ARM GAS  C:\Users\Bruger\AppData\Local\Temp\ccZAU2gd.s 			page 1


   1              		.syntax unified
   2              		.cpu cortex-m3
   3              		.fpu softvfp
   4              		.eabi_attribute 20, 1
   5              		.eabi_attribute 21, 1
   6              		.eabi_attribute 23, 3
   7              		.eabi_attribute 24, 1
   8              		.eabi_attribute 25, 1
   9              		.eabi_attribute 26, 1
  10              		.eabi_attribute 30, 6
  11              		.eabi_attribute 34, 1
  12              		.eabi_attribute 18, 4
  13              		.thumb
  14              		.file	"Arduino_Advanced_IO.cpp"
  15              		.text
  16              	.Ltext0:
  17              		.cfi_sections	.debug_frame
  18              		.section	.text._Z7pulseInhhm,"ax",%progbits
  19              		.align	2
  20              		.global	_Z7pulseInhhm
  21              		.thumb
  22              		.thumb_func
  23              		.type	_Z7pulseInhhm, %function
  24              	_Z7pulseInhhm:
  25              		.fnstart
  26              	.LFB147:
  27              		.file 1 "core\\Arduino_Advanced_IO.cpp"
   1:core/Arduino_Advanced_IO.cpp **** extern "C" {
   2:core/Arduino_Advanced_IO.cpp **** #include <Project.h>
   3:core/Arduino_Advanced_IO.cpp **** }
   4:core/Arduino_Advanced_IO.cpp **** 
   5:core/Arduino_Advanced_IO.cpp **** #include <stdint.h>
   6:core/Arduino_Advanced_IO.cpp **** #include "Arduino_Advanced_IO.h"
   7:core/Arduino_Advanced_IO.cpp **** #include <Arduino.h>
   8:core/Arduino_Advanced_IO.cpp **** #include "Arduino_Time.h"
   9:core/Arduino_Advanced_IO.cpp **** 
  10:core/Arduino_Advanced_IO.cpp **** uint32_t pulseIn(uint8_t pin, uint8_t level, uint32_t timeout)
  11:core/Arduino_Advanced_IO.cpp **** {
  28              		.loc 1 11 0
  29              		.cfi_startproc
  30              		@ args = 0, pretend = 0, frame = 16
  31              		@ frame_needed = 1, uses_anonymous_args = 0
  32 0000 80B5     		push	{r7, lr}
  33              		.save {r7, lr}
  34              		.cfi_def_cfa_offset 8
  35              		.cfi_offset 7, -8
  36              		.cfi_offset 14, -4
  37              		.pad #16
  38 0002 84B0     		sub	sp, sp, #16
  39              		.cfi_def_cfa_offset 24
  40              		.setfp r7, sp, #0
  41 0004 00AF     		add	r7, sp, #0
  42              		.cfi_def_cfa_register 7
  43 0006 0346     		mov	r3, r0
  44 0008 3A60     		str	r2, [r7]
  45 000a FB71     		strb	r3, [r7, #7]
  46 000c 0B46     		mov	r3, r1
ARM GAS  C:\Users\Bruger\AppData\Local\Temp\ccZAU2gd.s 			page 2


  47 000e BB71     		strb	r3, [r7, #6]
  48              	.LBB2:
  12:core/Arduino_Advanced_IO.cpp ****     pinMode(pin, INPUT);
  49              		.loc 1 12 0
  50 0010 FB79     		ldrb	r3, [r7, #7]	@ zero_extendqisi2
  51 0012 1846     		mov	r0, r3
  52 0014 0121     		movs	r1, #1
  53 0016 FFF7FEFF 		bl	_Z7pinModem8PIN_MODE
  13:core/Arduino_Advanced_IO.cpp ****     uint32_t clockStart = micros();
  54              		.loc 1 13 0
  55 001a FFF7FEFF 		bl	Micros_Counter_ReadCounter
  56 001e 0346     		mov	r3, r0
  57 0020 FB60     		str	r3, [r7, #12]
  14:core/Arduino_Advanced_IO.cpp ****     while (digitalRead(pin) != level)
  58              		.loc 1 14 0
  59 0022 0EE0     		b	.L2
  60              	.L4:
  15:core/Arduino_Advanced_IO.cpp ****     {
  16:core/Arduino_Advanced_IO.cpp ****         if (micros() - clockStart >= timeout) return 0;
  61              		.loc 1 16 0
  62 0024 FFF7FEFF 		bl	Micros_Counter_ReadCounter
  63 0028 0246     		mov	r2, r0
  64 002a FB68     		ldr	r3, [r7, #12]
  65 002c D21A     		subs	r2, r2, r3
  66 002e 3B68     		ldr	r3, [r7]
  67 0030 9A42     		cmp	r2, r3
  68 0032 2CBF     		ite	cs
  69 0034 0123     		movcs	r3, #1
  70 0036 0023     		movcc	r3, #0
  71 0038 DBB2     		uxtb	r3, r3
  72 003a 002B     		cmp	r3, #0
  73 003c 01D0     		beq	.L2
  74              		.loc 1 16 0 is_stmt 0 discriminator 1
  75 003e 0023     		movs	r3, #0
  76 0040 25E0     		b	.L3
  77              	.L2:
  14:core/Arduino_Advanced_IO.cpp ****     while (digitalRead(pin) != level)
  78              		.loc 1 14 0 is_stmt 1
  79 0042 FB79     		ldrb	r3, [r7, #7]	@ zero_extendqisi2
  80 0044 1846     		mov	r0, r3
  81 0046 FFF7FEFF 		bl	_Z11digitalReadm
  82 004a 0346     		mov	r3, r0
  83 004c 1A46     		mov	r2, r3
  84 004e BB79     		ldrb	r3, [r7, #6]	@ zero_extendqisi2
  85 0050 9342     		cmp	r3, r2
  86 0052 14BF     		ite	ne
  87 0054 0123     		movne	r3, #1
  88 0056 0023     		moveq	r3, #0
  89 0058 DBB2     		uxtb	r3, r3
  90 005a 002B     		cmp	r3, #0
  91 005c E2D1     		bne	.L4
  17:core/Arduino_Advanced_IO.cpp ****     }
  18:core/Arduino_Advanced_IO.cpp ****     clockStart = micros();
  92              		.loc 1 18 0
  93 005e FFF7FEFF 		bl	Micros_Counter_ReadCounter
  94 0062 0346     		mov	r3, r0
  95 0064 FB60     		str	r3, [r7, #12]
ARM GAS  C:\Users\Bruger\AppData\Local\Temp\ccZAU2gd.s 			page 3


  19:core/Arduino_Advanced_IO.cpp ****     while (digitalRead(pin) == level){};
  96              		.loc 1 19 0
  97 0066 00BF     		nop
  98              	.L5:
  99              		.loc 1 19 0 is_stmt 0 discriminator 1
 100 0068 FB79     		ldrb	r3, [r7, #7]	@ zero_extendqisi2
 101 006a 1846     		mov	r0, r3
 102 006c FFF7FEFF 		bl	_Z11digitalReadm
 103 0070 0346     		mov	r3, r0
 104 0072 1A46     		mov	r2, r3
 105 0074 BB79     		ldrb	r3, [r7, #6]	@ zero_extendqisi2
 106 0076 9342     		cmp	r3, r2
 107 0078 0CBF     		ite	eq
 108 007a 0123     		moveq	r3, #1
 109 007c 0023     		movne	r3, #0
 110 007e DBB2     		uxtb	r3, r3
 111 0080 002B     		cmp	r3, #0
 112 0082 F1D1     		bne	.L5
  20:core/Arduino_Advanced_IO.cpp ****     return micros() - clockStart;
 113              		.loc 1 20 0 is_stmt 1
 114 0084 FFF7FEFF 		bl	Micros_Counter_ReadCounter
 115 0088 0246     		mov	r2, r0
 116 008a FB68     		ldr	r3, [r7, #12]
 117 008c D31A     		subs	r3, r2, r3
 118              	.L3:
 119              	.LBE2:
  21:core/Arduino_Advanced_IO.cpp **** }
 120              		.loc 1 21 0
 121 008e 1846     		mov	r0, r3
 122 0090 1037     		adds	r7, r7, #16
 123              		.cfi_def_cfa_offset 8
 124 0092 BD46     		mov	sp, r7
 125              		.cfi_def_cfa_register 13
 126              		@ sp needed
 127 0094 80BD     		pop	{r7, pc}
 128              		.cfi_endproc
 129              	.LFE147:
 130              		.fnend
 131              		.size	_Z7pulseInhhm, .-_Z7pulseInhhm
 132 0096 00BF     		.section	.text._Z8shiftOuthhhh,"ax",%progbits
 133              		.align	2
 134              		.global	_Z8shiftOuthhhh
 135              		.thumb
 136              		.thumb_func
 137              		.type	_Z8shiftOuthhhh, %function
 138              	_Z8shiftOuthhhh:
 139              		.fnstart
 140              	.LFB148:
  22:core/Arduino_Advanced_IO.cpp **** 
  23:core/Arduino_Advanced_IO.cpp **** void shiftOut(uint8_t dataPin, uint8_t clockPin, uint8_t bitOrder, \
  24:core/Arduino_Advanced_IO.cpp ****     uint8_t value)
  25:core/Arduino_Advanced_IO.cpp **** {
 141              		.loc 1 25 0
 142              		.cfi_startproc
 143              		@ args = 0, pretend = 0, frame = 16
 144              		@ frame_needed = 1, uses_anonymous_args = 0
 145 0000 90B5     		push	{r4, r7, lr}
ARM GAS  C:\Users\Bruger\AppData\Local\Temp\ccZAU2gd.s 			page 4


 146              		.save {r4, r7, lr}
 147              		.cfi_def_cfa_offset 12
 148              		.cfi_offset 4, -12
 149              		.cfi_offset 7, -8
 150              		.cfi_offset 14, -4
 151              		.pad #20
 152 0002 85B0     		sub	sp, sp, #20
 153              		.cfi_def_cfa_offset 32
 154              		.setfp r7, sp, #0
 155 0004 00AF     		add	r7, sp, #0
 156              		.cfi_def_cfa_register 7
 157 0006 0446     		mov	r4, r0
 158 0008 0846     		mov	r0, r1
 159 000a 1146     		mov	r1, r2
 160 000c 1A46     		mov	r2, r3
 161 000e 2346     		mov	r3, r4
 162 0010 FB71     		strb	r3, [r7, #7]
 163 0012 0346     		mov	r3, r0
 164 0014 BB71     		strb	r3, [r7, #6]
 165 0016 0B46     		mov	r3, r1
 166 0018 7B71     		strb	r3, [r7, #5]
 167 001a 1346     		mov	r3, r2
 168 001c 3B71     		strb	r3, [r7, #4]
 169              	.LBB3:
  26:core/Arduino_Advanced_IO.cpp ****     pinMode(dataPin, OUTPUT);
 170              		.loc 1 26 0
 171 001e FB79     		ldrb	r3, [r7, #7]	@ zero_extendqisi2
 172 0020 1846     		mov	r0, r3
 173 0022 0021     		movs	r1, #0
 174 0024 FFF7FEFF 		bl	_Z7pinModem8PIN_MODE
  27:core/Arduino_Advanced_IO.cpp ****     pinMode(clockPin, OUTPUT);
 175              		.loc 1 27 0
 176 0028 BB79     		ldrb	r3, [r7, #6]	@ zero_extendqisi2
 177 002a 1846     		mov	r0, r3
 178 002c 0021     		movs	r1, #0
 179 002e FFF7FEFF 		bl	_Z7pinModem8PIN_MODE
  28:core/Arduino_Advanced_IO.cpp ****     uint8_t i;
  29:core/Arduino_Advanced_IO.cpp ****     if (bitOrder == LSBFIRST)
 180              		.loc 1 29 0
 181 0032 7B79     		ldrb	r3, [r7, #5]	@ zero_extendqisi2
 182 0034 012B     		cmp	r3, #1
 183 0036 36D1     		bne	.L7
  30:core/Arduino_Advanced_IO.cpp ****     {
  31:core/Arduino_Advanced_IO.cpp ****         for(i = 0; i<8; i++)
 184              		.loc 1 31 0
 185 0038 0023     		movs	r3, #0
 186 003a FB73     		strb	r3, [r7, #15]
 187 003c 2FE0     		b	.L8
 188              	.L11:
  32:core/Arduino_Advanced_IO.cpp ****         {
  33:core/Arduino_Advanced_IO.cpp ****             if (value>>i & 0x01) digitalWrite(dataPin, HIGH);
 189              		.loc 1 33 0
 190 003e 3A79     		ldrb	r2, [r7, #4]	@ zero_extendqisi2
 191 0040 FB7B     		ldrb	r3, [r7, #15]	@ zero_extendqisi2
 192 0042 42FA03F3 		asr	r3, r2, r3
 193 0046 03F00103 		and	r3, r3, #1
 194 004a 002B     		cmp	r3, #0
ARM GAS  C:\Users\Bruger\AppData\Local\Temp\ccZAU2gd.s 			page 5


 195 004c 05D0     		beq	.L9
 196              		.loc 1 33 0 is_stmt 0 discriminator 1
 197 004e FB79     		ldrb	r3, [r7, #7]	@ zero_extendqisi2
 198 0050 1846     		mov	r0, r3
 199 0052 0121     		movs	r1, #1
 200 0054 FFF7FEFF 		bl	_Z12digitalWritemh
 201 0058 04E0     		b	.L10
 202              	.L9:
  34:core/Arduino_Advanced_IO.cpp ****             else                 digitalWrite(dataPin, LOW);
 203              		.loc 1 34 0 is_stmt 1
 204 005a FB79     		ldrb	r3, [r7, #7]	@ zero_extendqisi2
 205 005c 1846     		mov	r0, r3
 206 005e 0021     		movs	r1, #0
 207 0060 FFF7FEFF 		bl	_Z12digitalWritemh
 208              	.L10:
  35:core/Arduino_Advanced_IO.cpp ****             digitalWrite(clockPin, digitalRead(clockPin) ^ 0x01);
 209              		.loc 1 35 0 discriminator 2
 210 0064 BC79     		ldrb	r4, [r7, #6]	@ zero_extendqisi2
 211 0066 BB79     		ldrb	r3, [r7, #6]	@ zero_extendqisi2
 212 0068 1846     		mov	r0, r3
 213 006a FFF7FEFF 		bl	_Z11digitalReadm
 214 006e 0346     		mov	r3, r0
 215 0070 83F00103 		eor	r3, r3, #1
 216 0074 DBB2     		uxtb	r3, r3
 217 0076 2046     		mov	r0, r4
 218 0078 1946     		mov	r1, r3
 219 007a FFF7FEFF 		bl	_Z12digitalWritemh
  36:core/Arduino_Advanced_IO.cpp ****             digitalWrite(clockPin, digitalRead(clockPin) ^ 0x01);
 220              		.loc 1 36 0 discriminator 2
 221 007e BC79     		ldrb	r4, [r7, #6]	@ zero_extendqisi2
 222 0080 BB79     		ldrb	r3, [r7, #6]	@ zero_extendqisi2
 223 0082 1846     		mov	r0, r3
 224 0084 FFF7FEFF 		bl	_Z11digitalReadm
 225 0088 0346     		mov	r3, r0
 226 008a 83F00103 		eor	r3, r3, #1
 227 008e DBB2     		uxtb	r3, r3
 228 0090 2046     		mov	r0, r4
 229 0092 1946     		mov	r1, r3
 230 0094 FFF7FEFF 		bl	_Z12digitalWritemh
  31:core/Arduino_Advanced_IO.cpp ****         {
 231              		.loc 1 31 0 discriminator 2
 232 0098 FB7B     		ldrb	r3, [r7, #15]	@ zero_extendqisi2
 233 009a 0133     		adds	r3, r3, #1
 234 009c FB73     		strb	r3, [r7, #15]
 235              	.L8:
  31:core/Arduino_Advanced_IO.cpp ****         {
 236              		.loc 1 31 0 is_stmt 0 discriminator 1
 237 009e FB7B     		ldrb	r3, [r7, #15]	@ zero_extendqisi2
 238 00a0 072B     		cmp	r3, #7
 239 00a2 CCD9     		bls	.L11
 240 00a4 35E0     		b	.L6
 241              	.L7:
  37:core/Arduino_Advanced_IO.cpp ****         }
  38:core/Arduino_Advanced_IO.cpp ****     }
  39:core/Arduino_Advanced_IO.cpp ****     else
  40:core/Arduino_Advanced_IO.cpp ****     {
  41:core/Arduino_Advanced_IO.cpp ****         for(i = 0; i<8; i++)
ARM GAS  C:\Users\Bruger\AppData\Local\Temp\ccZAU2gd.s 			page 6


 242              		.loc 1 41 0 is_stmt 1
 243 00a6 0023     		movs	r3, #0
 244 00a8 FB73     		strb	r3, [r7, #15]
 245 00aa 2FE0     		b	.L13
 246              	.L16:
  42:core/Arduino_Advanced_IO.cpp ****         {
  43:core/Arduino_Advanced_IO.cpp ****             if (value<<i & 0x80) digitalWrite(dataPin, HIGH);
 247              		.loc 1 43 0
 248 00ac 3A79     		ldrb	r2, [r7, #4]	@ zero_extendqisi2
 249 00ae FB7B     		ldrb	r3, [r7, #15]	@ zero_extendqisi2
 250 00b0 02FA03F3 		lsl	r3, r2, r3
 251 00b4 03F08003 		and	r3, r3, #128
 252 00b8 002B     		cmp	r3, #0
 253 00ba 05D0     		beq	.L14
 254              		.loc 1 43 0 is_stmt 0 discriminator 1
 255 00bc FB79     		ldrb	r3, [r7, #7]	@ zero_extendqisi2
 256 00be 1846     		mov	r0, r3
 257 00c0 0121     		movs	r1, #1
 258 00c2 FFF7FEFF 		bl	_Z12digitalWritemh
 259 00c6 04E0     		b	.L15
 260              	.L14:
  44:core/Arduino_Advanced_IO.cpp ****             else                 digitalWrite(dataPin, LOW);
 261              		.loc 1 44 0 is_stmt 1
 262 00c8 FB79     		ldrb	r3, [r7, #7]	@ zero_extendqisi2
 263 00ca 1846     		mov	r0, r3
 264 00cc 0021     		movs	r1, #0
 265 00ce FFF7FEFF 		bl	_Z12digitalWritemh
 266              	.L15:
  45:core/Arduino_Advanced_IO.cpp ****             digitalWrite(clockPin, digitalRead(clockPin) ^ 0x01);
 267              		.loc 1 45 0 discriminator 2
 268 00d2 BC79     		ldrb	r4, [r7, #6]	@ zero_extendqisi2
 269 00d4 BB79     		ldrb	r3, [r7, #6]	@ zero_extendqisi2
 270 00d6 1846     		mov	r0, r3
 271 00d8 FFF7FEFF 		bl	_Z11digitalReadm
 272 00dc 0346     		mov	r3, r0
 273 00de 83F00103 		eor	r3, r3, #1
 274 00e2 DBB2     		uxtb	r3, r3
 275 00e4 2046     		mov	r0, r4
 276 00e6 1946     		mov	r1, r3
 277 00e8 FFF7FEFF 		bl	_Z12digitalWritemh
  46:core/Arduino_Advanced_IO.cpp ****             digitalWrite(clockPin, digitalRead(clockPin) ^ 0x01);
 278              		.loc 1 46 0 discriminator 2
 279 00ec BC79     		ldrb	r4, [r7, #6]	@ zero_extendqisi2
 280 00ee BB79     		ldrb	r3, [r7, #6]	@ zero_extendqisi2
 281 00f0 1846     		mov	r0, r3
 282 00f2 FFF7FEFF 		bl	_Z11digitalReadm
 283 00f6 0346     		mov	r3, r0
 284 00f8 83F00103 		eor	r3, r3, #1
 285 00fc DBB2     		uxtb	r3, r3
 286 00fe 2046     		mov	r0, r4
 287 0100 1946     		mov	r1, r3
 288 0102 FFF7FEFF 		bl	_Z12digitalWritemh
  41:core/Arduino_Advanced_IO.cpp ****         {
 289              		.loc 1 41 0 discriminator 2
 290 0106 FB7B     		ldrb	r3, [r7, #15]	@ zero_extendqisi2
 291 0108 0133     		adds	r3, r3, #1
 292 010a FB73     		strb	r3, [r7, #15]
ARM GAS  C:\Users\Bruger\AppData\Local\Temp\ccZAU2gd.s 			page 7


 293              	.L13:
  41:core/Arduino_Advanced_IO.cpp ****         {
 294              		.loc 1 41 0 is_stmt 0 discriminator 1
 295 010c FB7B     		ldrb	r3, [r7, #15]	@ zero_extendqisi2
 296 010e 072B     		cmp	r3, #7
 297 0110 CCD9     		bls	.L16
 298              	.L6:
 299              	.LBE3:
  47:core/Arduino_Advanced_IO.cpp ****         }
  48:core/Arduino_Advanced_IO.cpp ****     }
  49:core/Arduino_Advanced_IO.cpp **** }
 300              		.loc 1 49 0 is_stmt 1
 301 0112 1437     		adds	r7, r7, #20
 302              		.cfi_def_cfa_offset 12
 303 0114 BD46     		mov	sp, r7
 304              		.cfi_def_cfa_register 13
 305              		@ sp needed
 306 0116 90BD     		pop	{r4, r7, pc}
 307              		.cfi_endproc
 308              	.LFE148:
 309              		.fnend
 310              		.size	_Z8shiftOuthhhh, .-_Z8shiftOuthhhh
 311              		.section	.text._Z7shiftInhhh,"ax",%progbits
 312              		.align	2
 313              		.global	_Z7shiftInhhh
 314              		.thumb
 315              		.thumb_func
 316              		.type	_Z7shiftInhhh, %function
 317              	_Z7shiftInhhh:
 318              		.fnstart
 319              	.LFB149:
  50:core/Arduino_Advanced_IO.cpp **** 
  51:core/Arduino_Advanced_IO.cpp **** uint8_t shiftIn(uint8_t dataPin, uint8_t clockPin, uint8_t bitOrder)
  52:core/Arduino_Advanced_IO.cpp **** {
 320              		.loc 1 52 0
 321              		.cfi_startproc
 322              		@ args = 0, pretend = 0, frame = 16
 323              		@ frame_needed = 1, uses_anonymous_args = 0
 324 0000 90B5     		push	{r4, r7, lr}
 325              		.save {r4, r7, lr}
 326              		.cfi_def_cfa_offset 12
 327              		.cfi_offset 4, -12
 328              		.cfi_offset 7, -8
 329              		.cfi_offset 14, -4
 330              		.pad #20
 331 0002 85B0     		sub	sp, sp, #20
 332              		.cfi_def_cfa_offset 32
 333              		.setfp r7, sp, #0
 334 0004 00AF     		add	r7, sp, #0
 335              		.cfi_def_cfa_register 7
 336 0006 0346     		mov	r3, r0
 337 0008 FB71     		strb	r3, [r7, #7]
 338 000a 0B46     		mov	r3, r1
 339 000c BB71     		strb	r3, [r7, #6]
 340 000e 1346     		mov	r3, r2
 341 0010 7B71     		strb	r3, [r7, #5]
 342              	.LBB4:
ARM GAS  C:\Users\Bruger\AppData\Local\Temp\ccZAU2gd.s 			page 8


  53:core/Arduino_Advanced_IO.cpp ****     pinMode(dataPin, INPUT);
 343              		.loc 1 53 0
 344 0012 FB79     		ldrb	r3, [r7, #7]	@ zero_extendqisi2
 345 0014 1846     		mov	r0, r3
 346 0016 0121     		movs	r1, #1
 347 0018 FFF7FEFF 		bl	_Z7pinModem8PIN_MODE
  54:core/Arduino_Advanced_IO.cpp ****     pinMode(clockPin, OUTPUT);
 348              		.loc 1 54 0
 349 001c BB79     		ldrb	r3, [r7, #6]	@ zero_extendqisi2
 350 001e 1846     		mov	r0, r3
 351 0020 0021     		movs	r1, #0
 352 0022 FFF7FEFF 		bl	_Z7pinModem8PIN_MODE
  55:core/Arduino_Advanced_IO.cpp ****     uint8_t i;
  56:core/Arduino_Advanced_IO.cpp ****     uint8_t rxByte = 0;
 353              		.loc 1 56 0
 354 0026 0023     		movs	r3, #0
 355 0028 BB73     		strb	r3, [r7, #14]
  57:core/Arduino_Advanced_IO.cpp ****     if (bitOrder == LSBFIRST)
 356              		.loc 1 57 0
 357 002a 7B79     		ldrb	r3, [r7, #5]	@ zero_extendqisi2
 358 002c 012B     		cmp	r3, #1
 359 002e 36D1     		bne	.L18
  58:core/Arduino_Advanced_IO.cpp ****     {
  59:core/Arduino_Advanced_IO.cpp ****         for(i = 0; i<8; i++)
 360              		.loc 1 59 0
 361 0030 0023     		movs	r3, #0
 362 0032 FB73     		strb	r3, [r7, #15]
 363 0034 2FE0     		b	.L19
 364              	.L21:
  60:core/Arduino_Advanced_IO.cpp ****         {
  61:core/Arduino_Advanced_IO.cpp ****             rxByte = rxByte << 1;
 365              		.loc 1 61 0
 366 0036 BB7B     		ldrb	r3, [r7, #14]
 367 0038 5B00     		lsls	r3, r3, #1
 368 003a BB73     		strb	r3, [r7, #14]
  62:core/Arduino_Advanced_IO.cpp ****             if (digitalRead(dataPin)) rxByte |= 0x01;
 369              		.loc 1 62 0
 370 003c FB79     		ldrb	r3, [r7, #7]	@ zero_extendqisi2
 371 003e 1846     		mov	r0, r3
 372 0040 FFF7FEFF 		bl	_Z11digitalReadm
 373 0044 0346     		mov	r3, r0
 374 0046 002B     		cmp	r3, #0
 375 0048 14BF     		ite	ne
 376 004a 0123     		movne	r3, #1
 377 004c 0023     		moveq	r3, #0
 378 004e DBB2     		uxtb	r3, r3
 379 0050 002B     		cmp	r3, #0
 380 0052 03D0     		beq	.L20
 381              		.loc 1 62 0 is_stmt 0 discriminator 1
 382 0054 BB7B     		ldrb	r3, [r7, #14]
 383 0056 43F00103 		orr	r3, r3, #1
 384 005a BB73     		strb	r3, [r7, #14]
 385              	.L20:
  63:core/Arduino_Advanced_IO.cpp ****             digitalWrite(clockPin, digitalRead(clockPin) ^ 0x01);
 386              		.loc 1 63 0 is_stmt 1 discriminator 2
 387 005c BC79     		ldrb	r4, [r7, #6]	@ zero_extendqisi2
 388 005e BB79     		ldrb	r3, [r7, #6]	@ zero_extendqisi2
ARM GAS  C:\Users\Bruger\AppData\Local\Temp\ccZAU2gd.s 			page 9


 389 0060 1846     		mov	r0, r3
 390 0062 FFF7FEFF 		bl	_Z11digitalReadm
 391 0066 0346     		mov	r3, r0
 392 0068 83F00103 		eor	r3, r3, #1
 393 006c DBB2     		uxtb	r3, r3
 394 006e 2046     		mov	r0, r4
 395 0070 1946     		mov	r1, r3
 396 0072 FFF7FEFF 		bl	_Z12digitalWritemh
  64:core/Arduino_Advanced_IO.cpp ****             digitalWrite(clockPin, digitalRead(clockPin) ^ 0x01);
 397              		.loc 1 64 0 discriminator 2
 398 0076 BC79     		ldrb	r4, [r7, #6]	@ zero_extendqisi2
 399 0078 BB79     		ldrb	r3, [r7, #6]	@ zero_extendqisi2
 400 007a 1846     		mov	r0, r3
 401 007c FFF7FEFF 		bl	_Z11digitalReadm
 402 0080 0346     		mov	r3, r0
 403 0082 83F00103 		eor	r3, r3, #1
 404 0086 DBB2     		uxtb	r3, r3
 405 0088 2046     		mov	r0, r4
 406 008a 1946     		mov	r1, r3
 407 008c FFF7FEFF 		bl	_Z12digitalWritemh
  59:core/Arduino_Advanced_IO.cpp ****         {
 408              		.loc 1 59 0 discriminator 2
 409 0090 FB7B     		ldrb	r3, [r7, #15]	@ zero_extendqisi2
 410 0092 0133     		adds	r3, r3, #1
 411 0094 FB73     		strb	r3, [r7, #15]
 412              	.L19:
  59:core/Arduino_Advanced_IO.cpp ****         {
 413              		.loc 1 59 0 is_stmt 0 discriminator 1
 414 0096 FB7B     		ldrb	r3, [r7, #15]	@ zero_extendqisi2
 415 0098 072B     		cmp	r3, #7
 416 009a CCD9     		bls	.L21
 417 009c 35E0     		b	.L22
 418              	.L18:
  65:core/Arduino_Advanced_IO.cpp ****         }
  66:core/Arduino_Advanced_IO.cpp ****     }
  67:core/Arduino_Advanced_IO.cpp ****     else
  68:core/Arduino_Advanced_IO.cpp ****     {
  69:core/Arduino_Advanced_IO.cpp ****         for(i = 0; i<8; i++)
 419              		.loc 1 69 0 is_stmt 1
 420 009e 0023     		movs	r3, #0
 421 00a0 FB73     		strb	r3, [r7, #15]
 422 00a2 2FE0     		b	.L23
 423              	.L25:
  70:core/Arduino_Advanced_IO.cpp ****         {
  71:core/Arduino_Advanced_IO.cpp ****             rxByte = rxByte >> 1;
 424              		.loc 1 71 0
 425 00a4 BB7B     		ldrb	r3, [r7, #14]	@ zero_extendqisi2
 426 00a6 5B10     		asrs	r3, r3, #1
 427 00a8 BB73     		strb	r3, [r7, #14]
  72:core/Arduino_Advanced_IO.cpp ****             if (digitalRead(dataPin)) rxByte |= 0x80;
 428              		.loc 1 72 0
 429 00aa FB79     		ldrb	r3, [r7, #7]	@ zero_extendqisi2
 430 00ac 1846     		mov	r0, r3
 431 00ae FFF7FEFF 		bl	_Z11digitalReadm
 432 00b2 0346     		mov	r3, r0
 433 00b4 002B     		cmp	r3, #0
 434 00b6 14BF     		ite	ne
ARM GAS  C:\Users\Bruger\AppData\Local\Temp\ccZAU2gd.s 			page 10


 435 00b8 0123     		movne	r3, #1
 436 00ba 0023     		moveq	r3, #0
 437 00bc DBB2     		uxtb	r3, r3
 438 00be 002B     		cmp	r3, #0
 439 00c0 03D0     		beq	.L24
 440              		.loc 1 72 0 is_stmt 0 discriminator 1
 441 00c2 BB7B     		ldrb	r3, [r7, #14]
 442 00c4 63F07F03 		orn	r3, r3, #127
 443 00c8 BB73     		strb	r3, [r7, #14]
 444              	.L24:
  73:core/Arduino_Advanced_IO.cpp ****             digitalWrite(clockPin, digitalRead(clockPin) ^ 0x01);
 445              		.loc 1 73 0 is_stmt 1 discriminator 2
 446 00ca BC79     		ldrb	r4, [r7, #6]	@ zero_extendqisi2
 447 00cc BB79     		ldrb	r3, [r7, #6]	@ zero_extendqisi2
 448 00ce 1846     		mov	r0, r3
 449 00d0 FFF7FEFF 		bl	_Z11digitalReadm
 450 00d4 0346     		mov	r3, r0
 451 00d6 83F00103 		eor	r3, r3, #1
 452 00da DBB2     		uxtb	r3, r3
 453 00dc 2046     		mov	r0, r4
 454 00de 1946     		mov	r1, r3
 455 00e0 FFF7FEFF 		bl	_Z12digitalWritemh
  74:core/Arduino_Advanced_IO.cpp ****             digitalWrite(clockPin, digitalRead(clockPin) ^ 0x01);
 456              		.loc 1 74 0 discriminator 2
 457 00e4 BC79     		ldrb	r4, [r7, #6]	@ zero_extendqisi2
 458 00e6 BB79     		ldrb	r3, [r7, #6]	@ zero_extendqisi2
 459 00e8 1846     		mov	r0, r3
 460 00ea FFF7FEFF 		bl	_Z11digitalReadm
 461 00ee 0346     		mov	r3, r0
 462 00f0 83F00103 		eor	r3, r3, #1
 463 00f4 DBB2     		uxtb	r3, r3
 464 00f6 2046     		mov	r0, r4
 465 00f8 1946     		mov	r1, r3
 466 00fa FFF7FEFF 		bl	_Z12digitalWritemh
  69:core/Arduino_Advanced_IO.cpp ****         {
 467              		.loc 1 69 0 discriminator 2
 468 00fe FB7B     		ldrb	r3, [r7, #15]	@ zero_extendqisi2
 469 0100 0133     		adds	r3, r3, #1
 470 0102 FB73     		strb	r3, [r7, #15]
 471              	.L23:
  69:core/Arduino_Advanced_IO.cpp ****         {
 472              		.loc 1 69 0 is_stmt 0 discriminator 1
 473 0104 FB7B     		ldrb	r3, [r7, #15]	@ zero_extendqisi2
 474 0106 072B     		cmp	r3, #7
 475 0108 CCD9     		bls	.L25
 476              	.L22:
  75:core/Arduino_Advanced_IO.cpp ****         }
  76:core/Arduino_Advanced_IO.cpp ****     }
  77:core/Arduino_Advanced_IO.cpp ****     return rxByte;
 477              		.loc 1 77 0 is_stmt 1
 478 010a BB7B     		ldrb	r3, [r7, #14]	@ zero_extendqisi2
 479              	.LBE4:
  78:core/Arduino_Advanced_IO.cpp **** }
 480              		.loc 1 78 0
 481 010c 1846     		mov	r0, r3
 482 010e 1437     		adds	r7, r7, #20
 483              		.cfi_def_cfa_offset 12
ARM GAS  C:\Users\Bruger\AppData\Local\Temp\ccZAU2gd.s 			page 11


 484 0110 BD46     		mov	sp, r7
 485              		.cfi_def_cfa_register 13
 486              		@ sp needed
 487 0112 90BD     		pop	{r4, r7, pc}
 488              		.cfi_endproc
 489              	.LFE149:
 490              		.fnend
 491              		.size	_Z7shiftInhhh, .-_Z7shiftInhhh
 492              		.section	.rodata
 493              		.type	_ZL2SS, %object
 494              		.size	_ZL2SS, 1
 495              	_ZL2SS:
 496 0000 0A       		.byte	10
 497              		.type	_ZL4MOSI, %object
 498              		.size	_ZL4MOSI, 1
 499              	_ZL4MOSI:
 500 0001 0B       		.byte	11
 501              		.type	_ZL4MISO, %object
 502              		.size	_ZL4MISO, 1
 503              	_ZL4MISO:
 504 0002 0C       		.byte	12
 505              		.type	_ZL3SCK, %object
 506              		.size	_ZL3SCK, 1
 507              	_ZL3SCK:
 508 0003 0D       		.byte	13
 509              		.type	_ZL3SDA, %object
 510              		.size	_ZL3SDA, 1
 511              	_ZL3SDA:
 512 0004 15       		.byte	21
 513              		.type	_ZL3SCL, %object
 514              		.size	_ZL3SCL, 1
 515              	_ZL3SCL:
 516 0005 14       		.byte	20
 517              		.text
 518              	.Letext0:
 519              		.file 2 "c:\\program files (x86)\\cypress\\psoc creator\\4.0\\psoc creator\\import\\gnu\\arm\\4.9.
 520              		.file 3 "c:\\program files (x86)\\cypress\\psoc creator\\4.0\\psoc creator\\import\\gnu\\arm\\4.9.
 521              		.file 4 ".\\core/pins_arduino.h"
 522              		.file 5 ".\\core/Arduino_Pins.h"
 523              		.file 6 "Generated_Source\\PSoC5/core_cm3.h"