ARM GAS  C:\Users\Bruger\AppData\Local\Temp\ccedqsPp.s 			page 1


   1              		.syntax unified
   2              		.cpu cortex-m3
   3              		.fpu softvfp
   4              		.eabi_attribute 20, 1
   5              		.eabi_attribute 21, 1
   6              		.eabi_attribute 23, 3
   7              		.eabi_attribute 24, 1
   8              		.eabi_attribute 25, 1
   9              		.eabi_attribute 26, 1
  10              		.eabi_attribute 30, 6
  11              		.eabi_attribute 34, 1
  12              		.eabi_attribute 18, 4
  13              		.thumb
  14              		.file	"Arduino_Analog_Out.cpp"
  15              		.text
  16              	.Ltext0:
  17              		.cfi_sections	.debug_frame
  18              		.section	.text._Z15analogWriteInitv,"ax",%progbits
  19              		.align	2
  20              		.global	_Z15analogWriteInitv
  21              		.thumb
  22              		.thumb_func
  23              		.type	_Z15analogWriteInitv, %function
  24              	_Z15analogWriteInitv:
  25              		.fnstart
  26              	.LFB63:
  27              		.file 1 "core\\Arduino_Analog_Out.cpp"
   1:core/Arduino_Analog_Out.cpp **** /* ========================================
   2:core/Arduino_Analog_Out.cpp ****  *
   3:core/Arduino_Analog_Out.cpp ****  * Copyright YOUR COMPANY, THE YEAR
   4:core/Arduino_Analog_Out.cpp ****  * All Rights Reserved
   5:core/Arduino_Analog_Out.cpp ****  * UNPUBLISHED, LICENSED SOFTWARE.
   6:core/Arduino_Analog_Out.cpp ****  *
   7:core/Arduino_Analog_Out.cpp ****  * CONFIDENTIAL AND PROPRIETARY INFORMATION
   8:core/Arduino_Analog_Out.cpp ****  * WHICH IS THE PROPERTY OF your company.
   9:core/Arduino_Analog_Out.cpp ****  *
  10:core/Arduino_Analog_Out.cpp ****  * ========================================
  11:core/Arduino_Analog_Out.cpp **** */
  12:core/Arduino_Analog_Out.cpp **** extern "C" {
  13:core/Arduino_Analog_Out.cpp **** #include <project.h>
  14:core/Arduino_Analog_Out.cpp **** }
  15:core/Arduino_Analog_Out.cpp **** 
  16:core/Arduino_Analog_Out.cpp **** #include <Arduino_Pins.h>
  17:core/Arduino_Analog_Out.cpp **** #include <Arduino_Analog_Out.h>
  18:core/Arduino_Analog_Out.cpp **** 
  19:core/Arduino_Analog_Out.cpp **** void analogWriteInit()
  20:core/Arduino_Analog_Out.cpp **** {
  28              		.loc 1 20 0
  29              		.cfi_startproc
  30              		@ args = 0, pretend = 0, frame = 0
  31              		@ frame_needed = 1, uses_anonymous_args = 0
  32 0000 80B5     		push	{r7, lr}
  33              		.save {r7, lr}
  34              		.cfi_def_cfa_offset 8
  35              		.cfi_offset 7, -8
  36              		.cfi_offset 14, -4
  37              		.setfp r7, sp, #0
ARM GAS  C:\Users\Bruger\AppData\Local\Temp\ccedqsPp.s 			page 2


  38 0002 00AF     		add	r7, sp, #0
  39              		.cfi_def_cfa_register 7
  21:core/Arduino_Analog_Out.cpp ****   D10_Ctrl_Write(0x00);
  40              		.loc 1 21 0
  41 0004 0020     		movs	r0, #0
  42 0006 FFF7FEFF 		bl	D10_Ctrl_Write
  22:core/Arduino_Analog_Out.cpp ****   D11_Ctrl_Write(0x00);
  43              		.loc 1 22 0
  44 000a 0020     		movs	r0, #0
  45 000c FFF7FEFF 		bl	D11_Ctrl_Write
  23:core/Arduino_Analog_Out.cpp **** }
  46              		.loc 1 23 0
  47 0010 80BD     		pop	{r7, pc}
  48              		.cfi_endproc
  49              	.LFE63:
  50              		.fnend
  51              		.size	_Z15analogWriteInitv, .-_Z15analogWriteInitv
  52 0012 00BF     		.section	.text._Z11analogWritemh,"ax",%progbits
  53              		.align	2
  54              		.global	_Z11analogWritemh
  55              		.thumb
  56              		.thumb_func
  57              		.type	_Z11analogWritemh, %function
  58              	_Z11analogWritemh:
  59              		.fnstart
  60              	.LFB64:
  24:core/Arduino_Analog_Out.cpp **** 
  25:core/Arduino_Analog_Out.cpp **** void analogWrite(uint32_t pin, uint8_t value)
  26:core/Arduino_Analog_Out.cpp **** {
  61              		.loc 1 26 0
  62              		.cfi_startproc
  63              		@ args = 0, pretend = 0, frame = 8
  64              		@ frame_needed = 1, uses_anonymous_args = 0
  65 0000 80B5     		push	{r7, lr}
  66              		.save {r7, lr}
  67              		.cfi_def_cfa_offset 8
  68              		.cfi_offset 7, -8
  69              		.cfi_offset 14, -4
  70              		.pad #8
  71 0002 82B0     		sub	sp, sp, #8
  72              		.cfi_def_cfa_offset 16
  73              		.setfp r7, sp, #0
  74 0004 00AF     		add	r7, sp, #0
  75              		.cfi_def_cfa_register 7
  76 0006 7860     		str	r0, [r7, #4]
  77 0008 0B46     		mov	r3, r1
  78 000a FB70     		strb	r3, [r7, #3]
  27:core/Arduino_Analog_Out.cpp ****   switch (pin)
  79              		.loc 1 27 0
  80 000c 7B68     		ldr	r3, [r7, #4]
  81 000e 052B     		cmp	r3, #5
  82 0010 0BD0     		beq	.L4
  83 0012 062B     		cmp	r3, #6
  84 0014 10D0     		beq	.L5
  85 0016 032B     		cmp	r3, #3
  86 0018 00D0     		beq	.L6
  28:core/Arduino_Analog_Out.cpp ****   {
ARM GAS  C:\Users\Bruger\AppData\Local\Temp\ccedqsPp.s 			page 3


  29:core/Arduino_Analog_Out.cpp ****     case 3:
  30:core/Arduino_Analog_Out.cpp ****       pin = D3;
  31:core/Arduino_Analog_Out.cpp ****       PWM_Reg_3_Write(value);
  32:core/Arduino_Analog_Out.cpp ****       break;
  33:core/Arduino_Analog_Out.cpp ****     case 5:
  34:core/Arduino_Analog_Out.cpp ****       pin = D5;
  35:core/Arduino_Analog_Out.cpp ****       PWM_Reg_5_Write(value);
  36:core/Arduino_Analog_Out.cpp ****       break;
  37:core/Arduino_Analog_Out.cpp ****     case 6:
  38:core/Arduino_Analog_Out.cpp ****       pin = D6;
  39:core/Arduino_Analog_Out.cpp ****       PWM_Reg_6_Write(value);
  40:core/Arduino_Analog_Out.cpp ****       break;
  41:core/Arduino_Analog_Out.cpp ****     default:
  42:core/Arduino_Analog_Out.cpp ****       return;
  87              		.loc 1 42 0
  88 001a 18E0     		b	.L2
  89              	.L6:
  30:core/Arduino_Analog_Out.cpp ****       PWM_Reg_3_Write(value);
  90              		.loc 1 30 0
  91 001c 0D4B     		ldr	r3, .L9
  92 001e 7B60     		str	r3, [r7, #4]
  31:core/Arduino_Analog_Out.cpp ****       break;
  93              		.loc 1 31 0
  94 0020 FB78     		ldrb	r3, [r7, #3]	@ zero_extendqisi2
  95 0022 1846     		mov	r0, r3
  96 0024 FFF7FEFF 		bl	PWM_Reg_3_Write
  32:core/Arduino_Analog_Out.cpp ****     case 5:
  97              		.loc 1 32 0
  98 0028 0DE0     		b	.L7
  99              	.L4:
  34:core/Arduino_Analog_Out.cpp ****       PWM_Reg_5_Write(value);
 100              		.loc 1 34 0
 101 002a 0B4B     		ldr	r3, .L9+4
 102 002c 7B60     		str	r3, [r7, #4]
  35:core/Arduino_Analog_Out.cpp ****       break;
 103              		.loc 1 35 0
 104 002e FB78     		ldrb	r3, [r7, #3]	@ zero_extendqisi2
 105 0030 1846     		mov	r0, r3
 106 0032 FFF7FEFF 		bl	PWM_Reg_5_Write
  36:core/Arduino_Analog_Out.cpp ****     case 6:
 107              		.loc 1 36 0
 108 0036 06E0     		b	.L7
 109              	.L5:
  38:core/Arduino_Analog_Out.cpp ****       PWM_Reg_6_Write(value);
 110              		.loc 1 38 0
 111 0038 084B     		ldr	r3, .L9+8
 112 003a 7B60     		str	r3, [r7, #4]
  39:core/Arduino_Analog_Out.cpp ****       break;
 113              		.loc 1 39 0
 114 003c FB78     		ldrb	r3, [r7, #3]	@ zero_extendqisi2
 115 003e 1846     		mov	r0, r3
 116 0040 FFF7FEFF 		bl	PWM_Reg_6_Write
  40:core/Arduino_Analog_Out.cpp ****     default:
 117              		.loc 1 40 0
 118 0044 00BF     		nop
 119              	.L7:
  43:core/Arduino_Analog_Out.cpp ****   }
ARM GAS  C:\Users\Bruger\AppData\Local\Temp\ccedqsPp.s 			page 4


  44:core/Arduino_Analog_Out.cpp ****       
  45:core/Arduino_Analog_Out.cpp ****   pinMode(pin, PERIPHERAL_OUT);
 120              		.loc 1 45 0
 121 0046 7868     		ldr	r0, [r7, #4]
 122 0048 0421     		movs	r1, #4
 123 004a FFF7FEFF 		bl	_Z7pinModem8PIN_MODE
 124              	.L2:
  46:core/Arduino_Analog_Out.cpp **** }
 125              		.loc 1 46 0
 126 004e 0837     		adds	r7, r7, #8
 127              		.cfi_def_cfa_offset 8
 128 0050 BD46     		mov	sp, r7
 129              		.cfi_def_cfa_register 13
 130              		@ sp needed
 131 0052 80BD     		pop	{r7, pc}
 132              	.L10:
 133              		.align	2
 134              	.L9:
 135 0054 13500040 		.word	1073762323
 136 0058 15500040 		.word	1073762325
 137 005c 16500040 		.word	1073762326
 138              		.cfi_endproc
 139              	.LFE64:
 140              		.fnend
 141              		.size	_Z11analogWritemh, .-_Z11analogWritemh
 142              		.text
 143              	.Letext0:
 144              		.file 2 "c:\\program files (x86)\\cypress\\psoc creator\\4.0\\psoc creator\\import\\gnu\\arm\\4.9.
 145              		.file 3 "c:\\program files (x86)\\cypress\\psoc creator\\4.0\\psoc creator\\import\\gnu\\arm\\4.9.
 146              		.file 4 ".\\core/Arduino_Pins.h"
 147              		.file 5 "Generated_Source\\PSoC5/core_cm3.h"