ARM GAS  C:\Users\Bruger\AppData\Local\Temp\ccJqrLE4.s 			page 1


   1              		.syntax unified
   2              		.cpu cortex-m3
   3              		.fpu softvfp
   4              		.eabi_attribute 20, 1
   5              		.eabi_attribute 21, 1
   6              		.eabi_attribute 23, 3
   7              		.eabi_attribute 24, 1
   8              		.eabi_attribute 25, 1
   9              		.eabi_attribute 26, 1
  10              		.eabi_attribute 30, 6
  11              		.eabi_attribute 34, 1
  12              		.eabi_attribute 18, 4
  13              		.thumb
  14              		.file	"Arduino_eeprom.cpp"
  15              		.text
  16              	.Ltext0:
  17              		.cfi_sections	.debug_frame
  18              		.section	.text._Z17eeprom_initializev,"ax",%progbits
  19              		.align	2
  20              		.global	_Z17eeprom_initializev
  21              		.thumb
  22              		.thumb_func
  23              		.type	_Z17eeprom_initializev, %function
  24              	_Z17eeprom_initializev:
  25              		.fnstart
  26              	.LFB63:
  27              		.file 1 "core\\Arduino_eeprom.cpp"
   1:core/Arduino_eeprom.cpp **** /* 
   2:core/Arduino_eeprom.cpp **** Simpel mapper to the EEPROM_1 functions created by PSOC Creator
   3:core/Arduino_eeprom.cpp **** */
   4:core/Arduino_eeprom.cpp **** 
   5:core/Arduino_eeprom.cpp **** #include <Arduino_eeprom.h>
   6:core/Arduino_eeprom.cpp **** 
   7:core/Arduino_eeprom.cpp **** extern "C" {
   8:core/Arduino_eeprom.cpp **** #include <Project.h>
   9:core/Arduino_eeprom.cpp **** }
  10:core/Arduino_eeprom.cpp **** 
  11:core/Arduino_eeprom.cpp **** //#define EEPROM_SIZE EEPROM_1_EEPROM_SIZE
  12:core/Arduino_eeprom.cpp **** 
  13:core/Arduino_eeprom.cpp **** void eeprom_initialize(void)
  14:core/Arduino_eeprom.cpp **** {
  28              		.loc 1 14 0
  29              		.cfi_startproc
  30              		@ args = 0, pretend = 0, frame = 0
  31              		@ frame_needed = 1, uses_anonymous_args = 0
  32 0000 80B5     		push	{r7, lr}
  33              		.save {r7, lr}
  34              		.cfi_def_cfa_offset 8
  35              		.cfi_offset 7, -8
  36              		.cfi_offset 14, -4
  37              		.setfp r7, sp, #0
  38 0002 00AF     		add	r7, sp, #0
  39              		.cfi_def_cfa_register 7
  15:core/Arduino_eeprom.cpp ****     // Enable the EEPROM 
  16:core/Arduino_eeprom.cpp ****     EEPROM_1_Enable();
  40              		.loc 1 16 0
  41 0004 FFF7FEFF 		bl	EEPROM_1_Enable
ARM GAS  C:\Users\Bruger\AppData\Local\Temp\ccJqrLE4.s 			page 2


  17:core/Arduino_eeprom.cpp ****     
  18:core/Arduino_eeprom.cpp ****     // Update the temperature for the EEPROM to ensure valid write
  19:core/Arduino_eeprom.cpp ****     EEPROM_1_UpdateTemperature();
  42              		.loc 1 19 0
  43 0008 FFF7FEFF 		bl	EEPROM_1_UpdateTemperature
  20:core/Arduino_eeprom.cpp **** 
  21:core/Arduino_eeprom.cpp **** }
  44              		.loc 1 21 0
  45 000c 80BD     		pop	{r7, pc}
  46              		.cfi_endproc
  47              	.LFE63:
  48              		.fnend
  49              		.size	_Z17eeprom_initializev, .-_Z17eeprom_initializev
  50 000e 00BF     		.section	.text._Z24eeprom_updatetemperaturev,"ax",%progbits
  51              		.align	2
  52              		.global	_Z24eeprom_updatetemperaturev
  53              		.thumb
  54              		.thumb_func
  55              		.type	_Z24eeprom_updatetemperaturev, %function
  56              	_Z24eeprom_updatetemperaturev:
  57              		.fnstart
  58              	.LFB64:
  22:core/Arduino_eeprom.cpp **** 
  23:core/Arduino_eeprom.cpp **** 
  24:core/Arduino_eeprom.cpp **** void eeprom_updatetemperature(void)
  25:core/Arduino_eeprom.cpp **** {
  59              		.loc 1 25 0
  60              		.cfi_startproc
  61              		@ args = 0, pretend = 0, frame = 0
  62              		@ frame_needed = 1, uses_anonymous_args = 0
  63 0000 80B5     		push	{r7, lr}
  64              		.save {r7, lr}
  65              		.cfi_def_cfa_offset 8
  66              		.cfi_offset 7, -8
  67              		.cfi_offset 14, -4
  68              		.setfp r7, sp, #0
  69 0002 00AF     		add	r7, sp, #0
  70              		.cfi_def_cfa_register 7
  26:core/Arduino_eeprom.cpp ****     // Update the temperature for the EEPROM to ensure valid write, 
  27:core/Arduino_eeprom.cpp ****     //      should be executed if temperature have changed more than 10 degree or just to be shure
  28:core/Arduino_eeprom.cpp ****     EEPROM_1_UpdateTemperature();
  71              		.loc 1 28 0
  72 0004 FFF7FEFF 		bl	EEPROM_1_UpdateTemperature
  29:core/Arduino_eeprom.cpp **** }
  73              		.loc 1 29 0
  74 0008 80BD     		pop	{r7, pc}
  75              		.cfi_endproc
  76              	.LFE64:
  77              		.fnend
  78              		.size	_Z24eeprom_updatetemperaturev, .-_Z24eeprom_updatetemperaturev
  79 000a 00BF     		.section	.text._Z16eeprom_read_bytePh,"ax",%progbits
  80              		.align	2
  81              		.global	_Z16eeprom_read_bytePh
  82              		.thumb
  83              		.thumb_func
  84              		.type	_Z16eeprom_read_bytePh, %function
  85              	_Z16eeprom_read_bytePh:
ARM GAS  C:\Users\Bruger\AppData\Local\Temp\ccJqrLE4.s 			page 3


  86              		.fnstart
  87              	.LFB65:
  30:core/Arduino_eeprom.cpp **** 
  31:core/Arduino_eeprom.cpp **** uint8_t eeprom_read_byte(uint8_t *addr)
  32:core/Arduino_eeprom.cpp **** {
  88              		.loc 1 32 0
  89              		.cfi_startproc
  90              		@ args = 0, pretend = 0, frame = 16
  91              		@ frame_needed = 1, uses_anonymous_args = 0
  92 0000 80B5     		push	{r7, lr}
  93              		.save {r7, lr}
  94              		.cfi_def_cfa_offset 8
  95              		.cfi_offset 7, -8
  96              		.cfi_offset 14, -4
  97              		.pad #16
  98 0002 84B0     		sub	sp, sp, #16
  99              		.cfi_def_cfa_offset 24
 100              		.setfp r7, sp, #0
 101 0004 00AF     		add	r7, sp, #0
 102              		.cfi_def_cfa_register 7
 103 0006 7860     		str	r0, [r7, #4]
 104              	.LBB2:
  33:core/Arduino_eeprom.cpp **** 	int intaddr = (int)(addr);
 105              		.loc 1 33 0
 106 0008 7B68     		ldr	r3, [r7, #4]
 107 000a FB60     		str	r3, [r7, #12]
  34:core/Arduino_eeprom.cpp ****     return EEPROM_1_ReadByte( (uint16_t) (intaddr & 0x0000ffff) );
 108              		.loc 1 34 0
 109 000c FB68     		ldr	r3, [r7, #12]
 110 000e 9BB2     		uxth	r3, r3
 111 0010 1846     		mov	r0, r3
 112 0012 FFF7FEFF 		bl	EEPROM_1_ReadByte
 113 0016 0346     		mov	r3, r0
 114              	.LBE2:
  35:core/Arduino_eeprom.cpp **** }
 115              		.loc 1 35 0
 116 0018 1846     		mov	r0, r3
 117 001a 1037     		adds	r7, r7, #16
 118              		.cfi_def_cfa_offset 8
 119 001c BD46     		mov	sp, r7
 120              		.cfi_def_cfa_register 13
 121              		@ sp needed
 122 001e 80BD     		pop	{r7, pc}
 123              		.cfi_endproc
 124              	.LFE65:
 125              		.fnend
 126              		.size	_Z16eeprom_read_bytePh, .-_Z16eeprom_read_bytePh
 127              		.section	.text._Z17eeprom_write_bytePhh,"ax",%progbits
 128              		.align	2
 129              		.global	_Z17eeprom_write_bytePhh
 130              		.thumb
 131              		.thumb_func
 132              		.type	_Z17eeprom_write_bytePhh, %function
 133              	_Z17eeprom_write_bytePhh:
 134              		.fnstart
 135              	.LFB66:
  36:core/Arduino_eeprom.cpp **** 
ARM GAS  C:\Users\Bruger\AppData\Local\Temp\ccJqrLE4.s 			page 4


  37:core/Arduino_eeprom.cpp **** 
  38:core/Arduino_eeprom.cpp **** void eeprom_write_byte(uint8_t *addr, uint8_t data)
  39:core/Arduino_eeprom.cpp **** {
 136              		.loc 1 39 0
 137              		.cfi_startproc
 138              		@ args = 0, pretend = 0, frame = 16
 139              		@ frame_needed = 1, uses_anonymous_args = 0
 140 0000 80B5     		push	{r7, lr}
 141              		.save {r7, lr}
 142              		.cfi_def_cfa_offset 8
 143              		.cfi_offset 7, -8
 144              		.cfi_offset 14, -4
 145              		.pad #16
 146 0002 84B0     		sub	sp, sp, #16
 147              		.cfi_def_cfa_offset 24
 148              		.setfp r7, sp, #0
 149 0004 00AF     		add	r7, sp, #0
 150              		.cfi_def_cfa_register 7
 151 0006 7860     		str	r0, [r7, #4]
 152 0008 0B46     		mov	r3, r1
 153 000a FB70     		strb	r3, [r7, #3]
 154              	.LBB3:
  40:core/Arduino_eeprom.cpp ****     int intaddr = (int)(addr);
 155              		.loc 1 40 0
 156 000c 7B68     		ldr	r3, [r7, #4]
 157 000e FB60     		str	r3, [r7, #12]
  41:core/Arduino_eeprom.cpp ****     // Write byte to eeprom
  42:core/Arduino_eeprom.cpp ****     EEPROM_1_WriteByte( data, (uint16_t) (intaddr & 0x0000ffff) );
 158              		.loc 1 42 0
 159 0010 FB68     		ldr	r3, [r7, #12]
 160 0012 9BB2     		uxth	r3, r3
 161 0014 FA78     		ldrb	r2, [r7, #3]	@ zero_extendqisi2
 162 0016 1046     		mov	r0, r2
 163 0018 1946     		mov	r1, r3
 164 001a FFF7FEFF 		bl	EEPROM_1_WriteByte
 165              	.LBE3:
  43:core/Arduino_eeprom.cpp **** }
 166              		.loc 1 43 0
 167 001e 1037     		adds	r7, r7, #16
 168              		.cfi_def_cfa_offset 8
 169 0020 BD46     		mov	sp, r7
 170              		.cfi_def_cfa_register 13
 171              		@ sp needed
 172 0022 80BD     		pop	{r7, pc}
 173              		.cfi_endproc
 174              	.LFE66:
 175              		.fnend
 176              		.size	_Z17eeprom_write_bytePhh, .-_Z17eeprom_write_bytePhh
 177              		.text
 178              	.Letext0:
 179              		.file 2 "c:\\program files (x86)\\cypress\\psoc creator\\4.0\\psoc creator\\import\\gnu\\arm\\4.9.
 180              		.file 3 "c:\\program files (x86)\\cypress\\psoc creator\\4.0\\psoc creator\\import\\gnu\\arm\\4.9.
 181              		.file 4 "Generated_Source\\PSoC5/core_cm3.h"