ARM GAS  C:\Users\Bruger\AppData\Local\Temp\ccVFTk88.s 			page 1


   1              		.syntax unified
   2              		.cpu cortex-m3
   3              		.fpu softvfp
   4              		.eabi_attribute 20, 1
   5              		.eabi_attribute 21, 1
   6              		.eabi_attribute 23, 3
   7              		.eabi_attribute 24, 1
   8              		.eabi_attribute 25, 1
   9              		.eabi_attribute 26, 1
  10              		.eabi_attribute 30, 6
  11              		.eabi_attribute 34, 1
  12              		.eabi_attribute 18, 4
  13              		.thumb
  14              		.file	"Arduino_Analog_In.cpp"
  15              		.text
  16              	.Ltext0:
  17              		.cfi_sections	.debug_frame
  18              		.section	.text._Z15initAnalogInputv,"ax",%progbits
  19              		.align	2
  20              		.global	_Z15initAnalogInputv
  21              		.thumb
  22              		.thumb_func
  23              		.type	_Z15initAnalogInputv, %function
  24              	_Z15initAnalogInputv:
  25              		.fnstart
  26              	.LFB63:
  27              		.file 1 "core\\Arduino_Analog_In.cpp"
   1:core/Arduino_Analog_In.cpp **** /* ========================================
   2:core/Arduino_Analog_In.cpp ****  *
   3:core/Arduino_Analog_In.cpp ****  * Copyright YOUR COMPANY, THE YEAR
   4:core/Arduino_Analog_In.cpp ****  * All Rights Reserved
   5:core/Arduino_Analog_In.cpp ****  * UNPUBLISHED, LICENSED SOFTWARE.
   6:core/Arduino_Analog_In.cpp ****  *
   7:core/Arduino_Analog_In.cpp ****  * CONFIDENTIAL AND PROPRIETARY INFORMATION
   8:core/Arduino_Analog_In.cpp ****  * WHICH IS THE PROPERTY OF your company.
   9:core/Arduino_Analog_In.cpp ****  *
  10:core/Arduino_Analog_In.cpp ****  * ========================================
  11:core/Arduino_Analog_In.cpp **** */
  12:core/Arduino_Analog_In.cpp **** extern "C" {
  13:core/Arduino_Analog_In.cpp **** #include <project.h>
  14:core/Arduino_Analog_In.cpp **** }
  15:core/Arduino_Analog_In.cpp **** 
  16:core/Arduino_Analog_In.cpp **** #include <Arduino_Analog_In.h>
  17:core/Arduino_Analog_In.cpp **** 
  18:core/Arduino_Analog_In.cpp **** void initAnalogInput()
  19:core/Arduino_Analog_In.cpp **** {
  28              		.loc 1 19 0
  29              		.cfi_startproc
  30              		@ args = 0, pretend = 0, frame = 0
  31              		@ frame_needed = 1, uses_anonymous_args = 0
  32 0000 80B5     		push	{r7, lr}
  33              		.save {r7, lr}
  34              		.cfi_def_cfa_offset 8
  35              		.cfi_offset 7, -8
  36              		.cfi_offset 14, -4
  37              		.setfp r7, sp, #0
  38 0002 00AF     		add	r7, sp, #0
ARM GAS  C:\Users\Bruger\AppData\Local\Temp\ccVFTk88.s 			page 2


  39              		.cfi_def_cfa_register 7
  20:core/Arduino_Analog_In.cpp ****     ADC_Mux_Start();
  40              		.loc 1 20 0
  41 0004 FFF7FEFF 		bl	ADC_Mux_Start
  21:core/Arduino_Analog_In.cpp ****     ADC_Start();
  42              		.loc 1 21 0
  43 0008 FFF7FEFF 		bl	ADC_Start
  22:core/Arduino_Analog_In.cpp **** }
  44              		.loc 1 22 0
  45 000c 80BD     		pop	{r7, pc}
  46              		.cfi_endproc
  47              	.LFE63:
  48              		.fnend
  49              		.size	_Z15initAnalogInputv, .-_Z15initAnalogInputv
  50 000e 00BF     		.section	.text._Z10analogReadh,"ax",%progbits
  51              		.align	2
  52              		.global	_Z10analogReadh
  53              		.thumb
  54              		.thumb_func
  55              		.type	_Z10analogReadh, %function
  56              	_Z10analogReadh:
  57              		.fnstart
  58              	.LFB64:
  23:core/Arduino_Analog_In.cpp **** 
  24:core/Arduino_Analog_In.cpp **** uint16_t analogRead(uint8_t pin)
  25:core/Arduino_Analog_In.cpp **** {
  59              		.loc 1 25 0
  60              		.cfi_startproc
  61              		@ args = 0, pretend = 0, frame = 8
  62              		@ frame_needed = 1, uses_anonymous_args = 0
  63 0000 80B5     		push	{r7, lr}
  64              		.save {r7, lr}
  65              		.cfi_def_cfa_offset 8
  66              		.cfi_offset 7, -8
  67              		.cfi_offset 14, -4
  68              		.pad #8
  69 0002 82B0     		sub	sp, sp, #8
  70              		.cfi_def_cfa_offset 16
  71              		.setfp r7, sp, #0
  72 0004 00AF     		add	r7, sp, #0
  73              		.cfi_def_cfa_register 7
  74 0006 0346     		mov	r3, r0
  75 0008 FB71     		strb	r3, [r7, #7]
  26:core/Arduino_Analog_In.cpp ****     if (pin > 21 || pin < 14) return 0;
  76              		.loc 1 26 0
  77 000a FB79     		ldrb	r3, [r7, #7]	@ zero_extendqisi2
  78 000c 152B     		cmp	r3, #21
  79 000e 02D8     		bhi	.L3
  80              		.loc 1 26 0 is_stmt 0 discriminator 2
  81 0010 FB79     		ldrb	r3, [r7, #7]	@ zero_extendqisi2
  82 0012 0D2B     		cmp	r3, #13
  83 0014 01D8     		bhi	.L4
  84              	.L3:
  85              		.loc 1 26 0 discriminator 3
  86 0016 0023     		movs	r3, #0
  87 0018 0FE0     		b	.L5
  88              	.L4:
ARM GAS  C:\Users\Bruger\AppData\Local\Temp\ccVFTk88.s 			page 3


  27:core/Arduino_Analog_In.cpp ****     ADC_Mux_Select(pin-14);
  89              		.loc 1 27 0 is_stmt 1
  90 001a FB79     		ldrb	r3, [r7, #7]
  91 001c 0E3B     		subs	r3, r3, #14
  92 001e DBB2     		uxtb	r3, r3
  93 0020 1846     		mov	r0, r3
  94 0022 FFF7FEFF 		bl	ADC_Mux_FastSelect
  28:core/Arduino_Analog_In.cpp ****     ADC_StartConvert();
  95              		.loc 1 28 0
  96 0026 FFF7FEFF 		bl	ADC_StartConvert
  29:core/Arduino_Analog_In.cpp ****     ADC_IsEndConversion(ADC_WAIT_FOR_RESULT);
  97              		.loc 1 29 0
  98 002a 0020     		movs	r0, #0
  99 002c FFF7FEFF 		bl	ADC_IsEndConversion
  30:core/Arduino_Analog_In.cpp ****     return ADC_GetResult16();
 100              		.loc 1 30 0
 101 0030 FFF7FEFF 		bl	ADC_GetResult16
 102 0034 0346     		mov	r3, r0
 103 0036 9BB2     		uxth	r3, r3
 104 0038 9BB2     		uxth	r3, r3
 105              	.L5:
  31:core/Arduino_Analog_In.cpp **** }
 106              		.loc 1 31 0
 107 003a 1846     		mov	r0, r3
 108 003c 0837     		adds	r7, r7, #8
 109              		.cfi_def_cfa_offset 8
 110 003e BD46     		mov	sp, r7
 111              		.cfi_def_cfa_register 13
 112              		@ sp needed
 113 0040 80BD     		pop	{r7, pc}
 114              		.cfi_endproc
 115              	.LFE64:
 116              		.fnend
 117              		.size	_Z10analogReadh, .-_Z10analogReadh
 118 0042 00BF     		.text
 119              	.Letext0:
 120              		.file 2 "c:\\program files (x86)\\cypress\\psoc creator\\4.0\\psoc creator\\import\\gnu\\arm\\4.9.
 121              		.file 3 "c:\\program files (x86)\\cypress\\psoc creator\\4.0\\psoc creator\\import\\gnu\\arm\\4.9.
 122              		.file 4 "Generated_Source\\PSoC5/core_cm3.h"