ARM GAS  C:\Users\Bruger\AppData\Local\Temp\ccks0v9L.s 			page 1


   1              		.syntax unified
   2              		.cpu cortex-m3
   3              		.fpu softvfp
   4              		.eabi_attribute 20, 1
   5              		.eabi_attribute 21, 1
   6              		.eabi_attribute 23, 3
   7              		.eabi_attribute 24, 1
   8              		.eabi_attribute 25, 1
   9              		.eabi_attribute 26, 1
  10              		.eabi_attribute 30, 6
  11              		.eabi_attribute 34, 1
  12              		.eabi_attribute 18, 4
  13              		.thumb
  14              		.file	"Arduino_HW_Interrupt.cpp"
  15              		.text
  16              	.Ltext0:
  17              		.cfi_sections	.debug_frame
  18              		.global	INT0Function
  19              		.bss
  20              		.align	2
  21              		.type	INT0Function, %object
  22              		.size	INT0Function, 4
  23              	INT0Function:
  24 0000 00000000 		.space	4
  25              		.global	INT1Function
  26              		.align	2
  27              		.type	INT1Function, %object
  28              		.size	INT1Function, 4
  29              	INT1Function:
  30 0004 00000000 		.space	4
  31              		.section	.text._Z15attachInterruptiPFvvE11HW_INT_MODE,"ax",%progbits
  32              		.align	2
  33              		.global	_Z15attachInterruptiPFvvE11HW_INT_MODE
  34              		.thumb
  35              		.thumb_func
  36              		.type	_Z15attachInterruptiPFvvE11HW_INT_MODE, %function
  37              	_Z15attachInterruptiPFvvE11HW_INT_MODE:
  38              		.fnstart
  39              	.LFB147:
  40              		.file 1 "core\\Arduino_HW_Interrupt.cpp"
   1:core/Arduino_HW_Interrupt.cpp **** extern "C" {
   2:core/Arduino_HW_Interrupt.cpp **** #include <project.h>
   3:core/Arduino_HW_Interrupt.cpp **** }
   4:core/Arduino_HW_Interrupt.cpp **** 
   5:core/Arduino_HW_Interrupt.cpp **** #include "Arduino.h"
   6:core/Arduino_HW_Interrupt.cpp **** #include "Arduino_HW_Interrupt.h"
   7:core/Arduino_HW_Interrupt.cpp **** #include <cydevice_trm.h>
   8:core/Arduino_HW_Interrupt.cpp **** 
   9:core/Arduino_HW_Interrupt.cpp **** void (*INT0Function)(void);
  10:core/Arduino_HW_Interrupt.cpp **** void (*INT1Function)(void);
  11:core/Arduino_HW_Interrupt.cpp **** 
  12:core/Arduino_HW_Interrupt.cpp **** #define INT0_MASK 0x01
  13:core/Arduino_HW_Interrupt.cpp **** #define INT1_MASK 0x08
  14:core/Arduino_HW_Interrupt.cpp **** 
  15:core/Arduino_HW_Interrupt.cpp **** CY_ISR_PROTO(HW_INT_ISR);
  16:core/Arduino_HW_Interrupt.cpp **** 
  17:core/Arduino_HW_Interrupt.cpp **** void attachInterrupt(int interrupt, void (*isr)(), enum HW_INT_MODE mode)
ARM GAS  C:\Users\Bruger\AppData\Local\Temp\ccks0v9L.s 			page 2


  18:core/Arduino_HW_Interrupt.cpp **** {
  41              		.loc 1 18 0
  42              		.cfi_startproc
  43              		@ args = 0, pretend = 0, frame = 24
  44              		@ frame_needed = 1, uses_anonymous_args = 0
  45 0000 80B5     		push	{r7, lr}
  46              		.save {r7, lr}
  47              		.cfi_def_cfa_offset 8
  48              		.cfi_offset 7, -8
  49              		.cfi_offset 14, -4
  50              		.pad #24
  51 0002 86B0     		sub	sp, sp, #24
  52              		.cfi_def_cfa_offset 32
  53              		.setfp r7, sp, #0
  54 0004 00AF     		add	r7, sp, #0
  55              		.cfi_def_cfa_register 7
  56 0006 F860     		str	r0, [r7, #12]
  57 0008 B960     		str	r1, [r7, #8]
  58 000a 1346     		mov	r3, r2
  59 000c FB71     		strb	r3, [r7, #7]
  60              	.LBB2:
  19:core/Arduino_HW_Interrupt.cpp ****   uint8_t intStat = *(uint8_t*)CYREG_PICU2_INTSTAT;
  61              		.loc 1 19 0
  62 000e 114B     		ldr	r3, .L4
  63 0010 1B78     		ldrb	r3, [r3]
  64 0012 FB75     		strb	r3, [r7, #23]
  20:core/Arduino_HW_Interrupt.cpp ****   if (intStat == 0);
  21:core/Arduino_HW_Interrupt.cpp ****   if (interrupt == 0) // Port 2.0 is used for interupt 0 
  65              		.loc 1 21 0
  66 0014 FB68     		ldr	r3, [r7, #12]
  67 0016 002B     		cmp	r3, #0
  68 0018 09D1     		bne	.L2
  22:core/Arduino_HW_Interrupt.cpp ****   {
  23:core/Arduino_HW_Interrupt.cpp ****     *(uint8_t*)CYREG_PICU2_INTTYPE2 = mode & 0x03;
  69              		.loc 1 23 0
  70 001a 0F4A     		ldr	r2, .L4+4
  71 001c FB79     		ldrb	r3, [r7, #7]
  72 001e 03F00303 		and	r3, r3, #3
  73 0022 DBB2     		uxtb	r3, r3
  74 0024 1370     		strb	r3, [r2]
  24:core/Arduino_HW_Interrupt.cpp ****     INT0Function = isr;
  75              		.loc 1 24 0
  76 0026 0D4A     		ldr	r2, .L4+8
  77 0028 BB68     		ldr	r3, [r7, #8]
  78 002a 1360     		str	r3, [r2]
  79 002c 0BE0     		b	.L3
  80              	.L2:
  25:core/Arduino_HW_Interrupt.cpp ****   }
  26:core/Arduino_HW_Interrupt.cpp ****   else if (interrupt == 4) // Port 2.4 is used for interupt 1 
  81              		.loc 1 26 0
  82 002e FB68     		ldr	r3, [r7, #12]
  83 0030 042B     		cmp	r3, #4
  84 0032 08D1     		bne	.L3
  27:core/Arduino_HW_Interrupt.cpp ****   {
  28:core/Arduino_HW_Interrupt.cpp ****     *(uint8_t*)CYREG_PICU2_INTTYPE3 = mode & 0x03;
  85              		.loc 1 28 0
  86 0034 0A4A     		ldr	r2, .L4+12
ARM GAS  C:\Users\Bruger\AppData\Local\Temp\ccks0v9L.s 			page 3


  87 0036 FB79     		ldrb	r3, [r7, #7]
  88 0038 03F00303 		and	r3, r3, #3
  89 003c DBB2     		uxtb	r3, r3
  90 003e 1370     		strb	r3, [r2]
  29:core/Arduino_HW_Interrupt.cpp ****     INT1Function = isr;
  91              		.loc 1 29 0
  92 0040 084A     		ldr	r2, .L4+16
  93 0042 BB68     		ldr	r3, [r7, #8]
  94 0044 1360     		str	r3, [r2]
  95              	.L3:
  30:core/Arduino_HW_Interrupt.cpp ****   }    
  31:core/Arduino_HW_Interrupt.cpp ****   HW_INT_StartEx(HW_INT_ISR);
  96              		.loc 1 31 0
  97 0046 0848     		ldr	r0, .L4+20
  98 0048 FFF7FEFF 		bl	HW_INT_StartEx
  99              	.LBE2:
  32:core/Arduino_HW_Interrupt.cpp **** }
 100              		.loc 1 32 0
 101 004c 1837     		adds	r7, r7, #24
 102              		.cfi_def_cfa_offset 8
 103 004e BD46     		mov	sp, r7
 104              		.cfi_def_cfa_register 13
 105              		@ sp needed
 106 0050 80BD     		pop	{r7, pc}
 107              	.L5:
 108 0052 00BF     		.align	2
 109              	.L4:
 110 0054 82450040 		.word	1073759618
 111 0058 12450040 		.word	1073759506
 112 005c 00000000 		.word	INT0Function
 113 0060 13450040 		.word	1073759507
 114 0064 00000000 		.word	INT1Function
 115 0068 00000000 		.word	_Z10HW_INT_ISRv
 116              		.cfi_endproc
 117              	.LFE147:
 118              		.fnend
 119              		.size	_Z15attachInterruptiPFvvE11HW_INT_MODE, .-_Z15attachInterruptiPFvvE11HW_INT_MODE
 120              		.section	.text._Z15detachInterrupti,"ax",%progbits
 121              		.align	2
 122              		.global	_Z15detachInterrupti
 123              		.thumb
 124              		.thumb_func
 125              		.type	_Z15detachInterrupti, %function
 126              	_Z15detachInterrupti:
 127              		.fnstart
 128              	.LFB148:
  33:core/Arduino_HW_Interrupt.cpp **** 
  34:core/Arduino_HW_Interrupt.cpp **** void detachInterrupt(int interrupt)
  35:core/Arduino_HW_Interrupt.cpp **** {
 129              		.loc 1 35 0
 130              		.cfi_startproc
 131              		@ args = 0, pretend = 0, frame = 8
 132              		@ frame_needed = 1, uses_anonymous_args = 0
 133              		@ link register save eliminated.
 134 0000 80B4     		push	{r7}
 135              		.cfi_def_cfa_offset 4
 136              		.cfi_offset 7, -4
ARM GAS  C:\Users\Bruger\AppData\Local\Temp\ccks0v9L.s 			page 4


 137 0002 83B0     		sub	sp, sp, #12
 138              		.cfi_def_cfa_offset 16
 139 0004 00AF     		add	r7, sp, #0
 140              		.cfi_def_cfa_register 7
 141 0006 7860     		str	r0, [r7, #4]
  36:core/Arduino_HW_Interrupt.cpp ****   if (interrupt == 0)
 142              		.loc 1 36 0
 143 0008 7B68     		ldr	r3, [r7, #4]
 144 000a 002B     		cmp	r3, #0
 145 000c 03D1     		bne	.L7
  37:core/Arduino_HW_Interrupt.cpp ****   {
  38:core/Arduino_HW_Interrupt.cpp ****     *(uint8_t*)CYREG_PICU2_INTTYPE2 = DISABLE;
 146              		.loc 1 38 0
 147 000e 074B     		ldr	r3, .L9
 148 0010 0022     		movs	r2, #0
 149 0012 1A70     		strb	r2, [r3]
 150 0014 05E0     		b	.L6
 151              	.L7:
  39:core/Arduino_HW_Interrupt.cpp ****   }
  40:core/Arduino_HW_Interrupt.cpp ****   else if (interrupt == 1)
 152              		.loc 1 40 0
 153 0016 7B68     		ldr	r3, [r7, #4]
 154 0018 012B     		cmp	r3, #1
 155 001a 02D1     		bne	.L6
  41:core/Arduino_HW_Interrupt.cpp ****   {
  42:core/Arduino_HW_Interrupt.cpp ****     *(uint8_t*)CYREG_PICU2_INTTYPE3 = DISABLE;
 156              		.loc 1 42 0
 157 001c 044B     		ldr	r3, .L9+4
 158 001e 0022     		movs	r2, #0
 159 0020 1A70     		strb	r2, [r3]
 160              	.L6:
  43:core/Arduino_HW_Interrupt.cpp ****   }
  44:core/Arduino_HW_Interrupt.cpp **** }
 161              		.loc 1 44 0
 162 0022 0C37     		adds	r7, r7, #12
 163              		.cfi_def_cfa_offset 4
 164 0024 BD46     		mov	sp, r7
 165              		.cfi_def_cfa_register 13
 166              		@ sp needed
 167 0026 5DF8047B 		ldr	r7, [sp], #4
 168              		.cfi_restore 7
 169              		.cfi_def_cfa_offset 0
 170 002a 7047     		bx	lr
 171              	.L10:
 172              		.align	2
 173              	.L9:
 174 002c 12450040 		.word	1073759506
 175 0030 13450040 		.word	1073759507
 176              		.cfi_endproc
 177              	.LFE148:
 178              		.cantunwind
 179              		.fnend
 180              		.size	_Z15detachInterrupti, .-_Z15detachInterrupti
 181              		.section	.text._Z10HW_INT_ISRv,"ax",%progbits
 182              		.align	2
 183              		.global	_Z10HW_INT_ISRv
 184              		.thumb
ARM GAS  C:\Users\Bruger\AppData\Local\Temp\ccks0v9L.s 			page 5


 185              		.thumb_func
 186              		.type	_Z10HW_INT_ISRv, %function
 187              	_Z10HW_INT_ISRv:
 188              		.fnstart
 189              	.LFB149:
  45:core/Arduino_HW_Interrupt.cpp **** 
  46:core/Arduino_HW_Interrupt.cpp **** CY_ISR(HW_INT_ISR)
  47:core/Arduino_HW_Interrupt.cpp **** {
 190              		.loc 1 47 0
 191              		.cfi_startproc
 192              		@ args = 0, pretend = 0, frame = 8
 193              		@ frame_needed = 1, uses_anonymous_args = 0
 194 0000 80B5     		push	{r7, lr}
 195              		.save {r7, lr}
 196              		.cfi_def_cfa_offset 8
 197              		.cfi_offset 7, -8
 198              		.cfi_offset 14, -4
 199              		.pad #8
 200 0002 82B0     		sub	sp, sp, #8
 201              		.cfi_def_cfa_offset 16
 202              		.setfp r7, sp, #0
 203 0004 00AF     		add	r7, sp, #0
 204              		.cfi_def_cfa_register 7
 205              	.LBB3:
  48:core/Arduino_HW_Interrupt.cpp ****   uint8_t intStat = *(uint8_t*)CYREG_PICU2_INTSTAT;
 206              		.loc 1 48 0
 207 0006 0B4B     		ldr	r3, .L14
 208 0008 1B78     		ldrb	r3, [r3]
 209 000a FB71     		strb	r3, [r7, #7]
  49:core/Arduino_HW_Interrupt.cpp ****   if ((intStat & INT0_MASK) != 0)
 210              		.loc 1 49 0
 211 000c FB79     		ldrb	r3, [r7, #7]	@ zero_extendqisi2
 212 000e 03F00103 		and	r3, r3, #1
 213 0012 002B     		cmp	r3, #0
 214 0014 02D0     		beq	.L12
  50:core/Arduino_HW_Interrupt.cpp ****   {
  51:core/Arduino_HW_Interrupt.cpp ****     INT0Function();
 215              		.loc 1 51 0
 216 0016 084B     		ldr	r3, .L14+4
 217 0018 1B68     		ldr	r3, [r3]
 218 001a 9847     		blx	r3
 219              	.L12:
  52:core/Arduino_HW_Interrupt.cpp ****   }
  53:core/Arduino_HW_Interrupt.cpp ****   if ((intStat & INT1_MASK) != 0)
 220              		.loc 1 53 0
 221 001c FB79     		ldrb	r3, [r7, #7]	@ zero_extendqisi2
 222 001e 03F00803 		and	r3, r3, #8
 223 0022 002B     		cmp	r3, #0
 224 0024 02D0     		beq	.L11
  54:core/Arduino_HW_Interrupt.cpp ****   {
  55:core/Arduino_HW_Interrupt.cpp ****     INT1Function();
 225              		.loc 1 55 0
 226 0026 054B     		ldr	r3, .L14+8
 227 0028 1B68     		ldr	r3, [r3]
 228 002a 9847     		blx	r3
 229              	.L11:
 230              	.LBE3:
ARM GAS  C:\Users\Bruger\AppData\Local\Temp\ccks0v9L.s 			page 6


  56:core/Arduino_HW_Interrupt.cpp ****   }
  57:core/Arduino_HW_Interrupt.cpp **** }
 231              		.loc 1 57 0
 232 002c 0837     		adds	r7, r7, #8
 233              		.cfi_def_cfa_offset 8
 234 002e BD46     		mov	sp, r7
 235              		.cfi_def_cfa_register 13
 236              		@ sp needed
 237 0030 80BD     		pop	{r7, pc}
 238              	.L15:
 239 0032 00BF     		.align	2
 240              	.L14:
 241 0034 82450040 		.word	1073759618
 242 0038 00000000 		.word	INT0Function
 243 003c 00000000 		.word	INT1Function
 244              		.cfi_endproc
 245              	.LFE149:
 246              		.fnend
 247              		.size	_Z10HW_INT_ISRv, .-_Z10HW_INT_ISRv
 248              		.section	.rodata
 249              		.type	_ZL2SS, %object
 250              		.size	_ZL2SS, 1
 251              	_ZL2SS:
 252 0000 0A       		.byte	10
 253              		.type	_ZL4MOSI, %object
 254              		.size	_ZL4MOSI, 1
 255              	_ZL4MOSI:
 256 0001 0B       		.byte	11
 257              		.type	_ZL4MISO, %object
 258              		.size	_ZL4MISO, 1
 259              	_ZL4MISO:
 260 0002 0C       		.byte	12
 261              		.type	_ZL3SCK, %object
 262              		.size	_ZL3SCK, 1
 263              	_ZL3SCK:
 264 0003 0D       		.byte	13
 265              		.type	_ZL3SDA, %object
 266              		.size	_ZL3SDA, 1
 267              	_ZL3SDA:
 268 0004 15       		.byte	21
 269              		.type	_ZL3SCL, %object
 270              		.size	_ZL3SCL, 1
 271              	_ZL3SCL:
 272 0005 14       		.byte	20
 273              		.text
 274              	.Letext0:
 275              		.file 2 "c:\\program files (x86)\\cypress\\psoc creator\\4.0\\psoc creator\\import\\gnu\\arm\\4.9.
 276              		.file 3 "c:\\program files (x86)\\cypress\\psoc creator\\4.0\\psoc creator\\import\\gnu\\arm\\4.9.
 277              		.file 4 ".\\core/pins_arduino.h"
 278              		.file 5 "Generated_Source\\PSoC5/core_cm3.h"
 279              		.file 6 "core\\Arduino_HW_Interrupt.h"