ARM GAS  C:\Users\Bruger\AppData\Local\Temp\ccy0JOmx.s 			page 1


   1              		.syntax unified
   2              		.cpu cortex-m3
   3              		.fpu softvfp
   4              		.eabi_attribute 20, 1
   5              		.eabi_attribute 21, 1
   6              		.eabi_attribute 23, 3
   7              		.eabi_attribute 24, 1
   8              		.eabi_attribute 25, 1
   9              		.eabi_attribute 26, 1
  10              		.eabi_attribute 30, 6
  11              		.eabi_attribute 34, 1
  12              		.eabi_attribute 18, 4
  13              		.thumb
  14              		.file	"Arduino_Serial.cpp"
  15              		.text
  16              	.Ltext0:
  17              		.cfi_sections	.debug_frame
  18              		.section	.text._Z12enableUSBCDCv,"ax",%progbits
  19              		.align	2
  20              		.global	_Z12enableUSBCDCv
  21              		.thumb
  22              		.thumb_func
  23              		.type	_Z12enableUSBCDCv, %function
  24              	_Z12enableUSBCDCv:
  25              		.fnstart
  26              	.LFB147:
  27              		.file 1 "core\\Arduino_Serial.cpp"
   1:core/Arduino_Serial.cpp **** extern "C" {
   2:core/Arduino_Serial.cpp **** #include <project.h>
   3:core/Arduino_Serial.cpp **** }
   4:core/Arduino_Serial.cpp **** #include "Arduino.h"
   5:core/Arduino_Serial.cpp **** #include "Arduino_Serial.h"
   6:core/Arduino_Serial.cpp **** #include "UARTClass.h"
   7:core/Arduino_Serial.cpp **** 
   8:core/Arduino_Serial.cpp **** /*******************************************************
   9:core/Arduino_Serial.cpp ****  * This file includes the middle-man functions which lie between the UART
  10:core/Arduino_Serial.cpp ****  * class and the Cypress API.
  11:core/Arduino_Serial.cpp ****  * We'll add to it as needed to support additional hardware in other virtual
  12:core/Arduino_Serial.cpp ****  * boards.
  13:core/Arduino_Serial.cpp ****  ******************************************************/
  14:core/Arduino_Serial.cpp **** 
  15:core/Arduino_Serial.cpp **** extern struct SerialHelperFuncs USBUART_Helpers;
  16:core/Arduino_Serial.cpp **** extern struct SerialHelperFuncs UART_Helpers;
  17:core/Arduino_Serial.cpp **** 
  18:core/Arduino_Serial.cpp **** // Wait for PC to configure USB for CONFIG_DELAY * CONFIG_LOOPS milliseconds
  19:core/Arduino_Serial.cpp **** #define CONFIG_DELAY 10
  20:core/Arduino_Serial.cpp **** #define CONFIG_LOOPS 200
  21:core/Arduino_Serial.cpp **** 
  22:core/Arduino_Serial.cpp **** bool enableUSBCDC()
  23:core/Arduino_Serial.cpp **** {
  28              		.loc 1 23 0
  29              		.cfi_startproc
  30              		@ args = 0, pretend = 0, frame = 8
  31              		@ frame_needed = 1, uses_anonymous_args = 0
  32 0000 80B5     		push	{r7, lr}
  33              		.save {r7, lr}
  34              		.cfi_def_cfa_offset 8
ARM GAS  C:\Users\Bruger\AppData\Local\Temp\ccy0JOmx.s 			page 2


  35              		.cfi_offset 7, -8
  36              		.cfi_offset 14, -4
  37              		.pad #8
  38 0002 82B0     		sub	sp, sp, #8
  39              		.cfi_def_cfa_offset 16
  40              		.setfp r7, sp, #0
  41 0004 00AF     		add	r7, sp, #0
  42              		.cfi_def_cfa_register 7
  43              	.LBB2:
  24:core/Arduino_Serial.cpp ****   USBUART_Start(0, USBUART_5V_OPERATION);
  44              		.loc 1 24 0
  45 0006 0020     		movs	r0, #0
  46 0008 0121     		movs	r1, #1
  47 000a FFF7FEFF 		bl	USBUART_Start
  25:core/Arduino_Serial.cpp ****   uint8_t delayCounter = 0;
  48              		.loc 1 25 0
  49 000e 0023     		movs	r3, #0
  50 0010 FB71     		strb	r3, [r7, #7]
  26:core/Arduino_Serial.cpp ****   /* It's important that we not loop forever here, or we'll never leave in
  27:core/Arduino_Serial.cpp ****    * cases where the device isn't plugged into a PC. We do, however, want to
  28:core/Arduino_Serial.cpp ****    * provide enough time for the PC to do its thing. */  
  29:core/Arduino_Serial.cpp ****   while(USBUART_GetConfiguration() == 0)
  51              		.loc 1 29 0
  52 0012 0AE0     		b	.L2
  53              	.L4:
  30:core/Arduino_Serial.cpp ****   {  
  31:core/Arduino_Serial.cpp ****     CyDelay(100);
  54              		.loc 1 31 0
  55 0014 6420     		movs	r0, #100
  56 0016 FFF7FEFF 		bl	CyDelay
  32:core/Arduino_Serial.cpp ****     delayCounter++;
  57              		.loc 1 32 0
  58 001a FB79     		ldrb	r3, [r7, #7]	@ zero_extendqisi2
  59 001c 0133     		adds	r3, r3, #1
  60 001e FB71     		strb	r3, [r7, #7]
  33:core/Arduino_Serial.cpp ****     if (delayCounter > 20)
  61              		.loc 1 33 0
  62 0020 FB79     		ldrb	r3, [r7, #7]	@ zero_extendqisi2
  63 0022 142B     		cmp	r3, #20
  64 0024 01D9     		bls	.L2
  34:core/Arduino_Serial.cpp ****     {
  35:core/Arduino_Serial.cpp ****       return false;
  65              		.loc 1 35 0
  66 0026 0023     		movs	r3, #0
  67 0028 0CE0     		b	.L3
  68              	.L2:
  29:core/Arduino_Serial.cpp ****   {  
  69              		.loc 1 29 0
  70 002a FFF7FEFF 		bl	USBUART_GetConfiguration
  71 002e 0346     		mov	r3, r0
  72 0030 002B     		cmp	r3, #0
  73 0032 0CBF     		ite	eq
  74 0034 0123     		moveq	r3, #1
  75 0036 0023     		movne	r3, #0
  76 0038 DBB2     		uxtb	r3, r3
  77 003a 002B     		cmp	r3, #0
  78 003c EAD1     		bne	.L4
ARM GAS  C:\Users\Bruger\AppData\Local\Temp\ccy0JOmx.s 			page 3


  36:core/Arduino_Serial.cpp ****     }
  37:core/Arduino_Serial.cpp ****   }
  38:core/Arduino_Serial.cpp ****   USBUART_CDC_Init();
  79              		.loc 1 38 0
  80 003e FFF7FEFF 		bl	USBUART_CDC_Init
  39:core/Arduino_Serial.cpp ****   return true;
  81              		.loc 1 39 0
  82 0042 0123     		movs	r3, #1
  83              	.L3:
  84              	.LBE2:
  40:core/Arduino_Serial.cpp **** }
  85              		.loc 1 40 0
  86 0044 1846     		mov	r0, r3
  87 0046 0837     		adds	r7, r7, #8
  88              		.cfi_def_cfa_offset 8
  89 0048 BD46     		mov	sp, r7
  90              		.cfi_def_cfa_register 13
  91              		@ sp needed
  92 004a 80BD     		pop	{r7, pc}
  93              		.cfi_endproc
  94              	.LFE147:
  95              		.fnend
  96              		.size	_Z12enableUSBCDCv, .-_Z12enableUSBCDCv
  97              		.section	.text._Z22USBUART_FunctionAttachv,"ax",%progbits
  98              		.align	2
  99              		.global	_Z22USBUART_FunctionAttachv
 100              		.thumb
 101              		.thumb_func
 102              		.type	_Z22USBUART_FunctionAttachv, %function
 103              	_Z22USBUART_FunctionAttachv:
 104              		.fnstart
 105              	.LFB148:
  41:core/Arduino_Serial.cpp **** 
  42:core/Arduino_Serial.cpp **** /**********************************************************************
  43:core/Arduino_Serial.cpp ****  * FunctionAttach() functions should point these to some implementation
  44:core/Arduino_Serial.cpp ****  * for the particular interface. Not all of them have to be implemented
  45:core/Arduino_Serial.cpp ****  * for all types of interface, as noted.
  46:core/Arduino_Serial.cpp ****   uint16_t (*bufferSize)(void); - Return number of bytes in the peripheral
  47:core/Arduino_Serial.cpp ****     buffer.
  48:core/Arduino_Serial.cpp ****   void (*sendData)(const uint8_t* buffer, uint16_t size);
  49:core/Arduino_Serial.cpp ****   uint16_t (*getData)(uint8_t* buffer, uint16_t size);
  50:core/Arduino_Serial.cpp ****   bool (*blockForReadyToWrite)(void); 
  51:core/Arduino_Serial.cpp **** 
  52:core/Arduino_Serial.cpp **** These are for non-USB UARTs only:
  53:core/Arduino_Serial.cpp ****   void (*clockAdjust)(uint16_t newDivider); - Changes the clock divider on
  54:core/Arduino_Serial.cpp ****     the UART clock input to provide the new baudrate output.
  55:core/Arduino_Serial.cpp ****   bool (*portEnable)(void);
  56:core/Arduino_Serial.cpp ****   void (*portDisable)(void);
  57:core/Arduino_Serial.cpp ****   void (*blockForWriteComplete)(void);
  58:core/Arduino_Serial.cpp **** **********************************************************************/
  59:core/Arduino_Serial.cpp **** 
  60:core/Arduino_Serial.cpp **** void Serial_CustomPutArray(const uint8_t* buffer, uint16_t size);
  61:core/Arduino_Serial.cpp **** int16_t USBUART_CustomGetCount();
  62:core/Arduino_Serial.cpp **** 
  63:core/Arduino_Serial.cpp **** void USBUART_FunctionAttach()
  64:core/Arduino_Serial.cpp **** {
 106              		.loc 1 64 0
ARM GAS  C:\Users\Bruger\AppData\Local\Temp\ccy0JOmx.s 			page 4


 107              		.cfi_startproc
 108              		@ args = 0, pretend = 0, frame = 0
 109              		@ frame_needed = 1, uses_anonymous_args = 0
 110              		@ link register save eliminated.
 111 0000 80B4     		push	{r7}
 112              		.cfi_def_cfa_offset 4
 113              		.cfi_offset 7, -4
 114 0002 00AF     		add	r7, sp, #0
 115              		.cfi_def_cfa_register 7
  65:core/Arduino_Serial.cpp ****   USBUART_Helpers.bufferSize = USBUART_CustomGetCount;
 116              		.loc 1 65 0
 117 0004 074B     		ldr	r3, .L6
 118 0006 084A     		ldr	r2, .L6+4
 119 0008 1A60     		str	r2, [r3]
  66:core/Arduino_Serial.cpp ****   USBUART_Helpers.sendData = USBUART_PutData;
 120              		.loc 1 66 0
 121 000a 064B     		ldr	r3, .L6
 122 000c 074A     		ldr	r2, .L6+8
 123 000e 1A61     		str	r2, [r3, #16]
  67:core/Arduino_Serial.cpp ****   USBUART_Helpers.getData = USBUART_GetData;
 124              		.loc 1 67 0
 125 0010 044B     		ldr	r3, .L6
 126 0012 074A     		ldr	r2, .L6+12
 127 0014 5A61     		str	r2, [r3, #20]
  68:core/Arduino_Serial.cpp ****   USBUART_Helpers.blockForReadyToWrite = USBUART_CDCIsReady;
 128              		.loc 1 68 0
 129 0016 034B     		ldr	r3, .L6
 130 0018 064A     		ldr	r2, .L6+16
 131 001a 1A62     		str	r2, [r3, #32]
  69:core/Arduino_Serial.cpp **** }
 132              		.loc 1 69 0
 133 001c BD46     		mov	sp, r7
 134              		.cfi_def_cfa_register 13
 135              		@ sp needed
 136 001e 5DF8047B 		ldr	r7, [sp], #4
 137              		.cfi_restore 7
 138              		.cfi_def_cfa_offset 0
 139 0022 7047     		bx	lr
 140              	.L7:
 141              		.align	2
 142              	.L6:
 143 0024 00000000 		.word	USBUART_Helpers
 144 0028 00000000 		.word	_Z22USBUART_CustomGetCountv
 145 002c 00000000 		.word	USBUART_PutData
 146 0030 00000000 		.word	USBUART_GetData
 147 0034 00000000 		.word	USBUART_CDCIsReady
 148              		.cfi_endproc
 149              	.LFE148:
 150              		.cantunwind
 151              		.fnend
 152              		.size	_Z22USBUART_FunctionAttachv, .-_Z22USBUART_FunctionAttachv
 153              		.section	.text._Z19UART_FunctionAttachv,"ax",%progbits
 154              		.align	2
 155              		.global	_Z19UART_FunctionAttachv
 156              		.thumb
 157              		.thumb_func
 158              		.type	_Z19UART_FunctionAttachv, %function
ARM GAS  C:\Users\Bruger\AppData\Local\Temp\ccy0JOmx.s 			page 5


 159              	_Z19UART_FunctionAttachv:
 160              		.fnstart
 161              	.LFB149:
  70:core/Arduino_Serial.cpp **** 
  71:core/Arduino_Serial.cpp **** uint16_t UART_CustomGetDataArray(uint8_t* buffer, uint16_t size);
  72:core/Arduino_Serial.cpp **** int16_t UART_CustomGetBufferSize(void);
  73:core/Arduino_Serial.cpp **** void     UART_CustomPutArray(const uint8_t* buffer, uint16_t size);
  74:core/Arduino_Serial.cpp **** bool     UART_CustomPortEnable(void);
  75:core/Arduino_Serial.cpp **** void     UART_CustomPortDisable(void);
  76:core/Arduino_Serial.cpp **** void     UART1Clock_CustomSetDivider(uint16_t newDivider);
  77:core/Arduino_Serial.cpp **** uint8_t  UART_CustomIsReady(void);
  78:core/Arduino_Serial.cpp **** 
  79:core/Arduino_Serial.cpp **** void UART_FunctionAttach()
  80:core/Arduino_Serial.cpp **** {
 162              		.loc 1 80 0
 163              		.cfi_startproc
 164              		@ args = 0, pretend = 0, frame = 0
 165              		@ frame_needed = 1, uses_anonymous_args = 0
 166              		@ link register save eliminated.
 167 0000 80B4     		push	{r7}
 168              		.cfi_def_cfa_offset 4
 169              		.cfi_offset 7, -4
 170 0002 00AF     		add	r7, sp, #0
 171              		.cfi_def_cfa_register 7
  81:core/Arduino_Serial.cpp ****   UART_Helpers.bufferSize = UART_CustomGetBufferSize;
 172              		.loc 1 81 0
 173 0004 0C4B     		ldr	r3, .L9
 174 0006 0D4A     		ldr	r2, .L9+4
 175 0008 1A60     		str	r2, [r3]
  82:core/Arduino_Serial.cpp ****   UART_Helpers.sendData = UART_CustomPutArray;
 176              		.loc 1 82 0
 177 000a 0B4B     		ldr	r3, .L9
 178 000c 0C4A     		ldr	r2, .L9+8
 179 000e 1A61     		str	r2, [r3, #16]
  83:core/Arduino_Serial.cpp ****   UART_Helpers.getData = UART_CustomGetDataArray;
 180              		.loc 1 83 0
 181 0010 094B     		ldr	r3, .L9
 182 0012 0C4A     		ldr	r2, .L9+12
 183 0014 5A61     		str	r2, [r3, #20]
  84:core/Arduino_Serial.cpp ****   UART_Helpers.portEnable = UART_CustomPortEnable;
 184              		.loc 1 84 0
 185 0016 084B     		ldr	r3, .L9
 186 0018 0B4A     		ldr	r2, .L9+16
 187 001a 5A60     		str	r2, [r3, #4]
  85:core/Arduino_Serial.cpp ****   UART_Helpers.portDisable = UART_CustomPortDisable;
 188              		.loc 1 85 0
 189 001c 064B     		ldr	r3, .L9
 190 001e 0B4A     		ldr	r2, .L9+20
 191 0020 9A60     		str	r2, [r3, #8]
  86:core/Arduino_Serial.cpp ****   UART_Helpers.clockAdjust = UART1Clock_CustomSetDivider;
 192              		.loc 1 86 0
 193 0022 054B     		ldr	r3, .L9
 194 0024 0A4A     		ldr	r2, .L9+24
 195 0026 DA60     		str	r2, [r3, #12]
  87:core/Arduino_Serial.cpp ****   UART_Helpers.blockForReadyToWrite = UART_CustomIsReady;
 196              		.loc 1 87 0
 197 0028 034B     		ldr	r3, .L9
ARM GAS  C:\Users\Bruger\AppData\Local\Temp\ccy0JOmx.s 			page 6


 198 002a 0A4A     		ldr	r2, .L9+28
 199 002c 1A62     		str	r2, [r3, #32]
  88:core/Arduino_Serial.cpp **** }
 200              		.loc 1 88 0
 201 002e BD46     		mov	sp, r7
 202              		.cfi_def_cfa_register 13
 203              		@ sp needed
 204 0030 5DF8047B 		ldr	r7, [sp], #4
 205              		.cfi_restore 7
 206              		.cfi_def_cfa_offset 0
 207 0034 7047     		bx	lr
 208              	.L10:
 209 0036 00BF     		.align	2
 210              	.L9:
 211 0038 00000000 		.word	UART_Helpers
 212 003c 00000000 		.word	_Z24UART_CustomGetBufferSizev
 213 0040 00000000 		.word	_Z19UART_CustomPutArrayPKht
 214 0044 00000000 		.word	_Z23UART_CustomGetDataArrayPht
 215 0048 00000000 		.word	_Z21UART_CustomPortEnablev
 216 004c 00000000 		.word	_Z22UART_CustomPortDisablev
 217 0050 00000000 		.word	_Z27UART1Clock_CustomSetDividert
 218 0054 00000000 		.word	_Z18UART_CustomIsReadyv
 219              		.cfi_endproc
 220              	.LFE149:
 221              		.cantunwind
 222              		.fnend
 223              		.size	_Z19UART_FunctionAttachv, .-_Z19UART_FunctionAttachv
 224              		.global	readByte
 225              		.bss
 226              		.align	2
 227              		.type	readByte, %object
 228              		.size	readByte, 4
 229              	readByte:
 230 0000 00000000 		.space	4
 231              		.global	readBufSize
 232              		.align	2
 233              		.type	readBufSize, %object
 234              		.size	readBufSize, 4
 235              	readBufSize:
 236 0004 00000000 		.space	4
 237              		.section	.text._Z23UART_CustomGetDataArrayPht,"ax",%progbits
 238              		.align	2
 239              		.global	_Z23UART_CustomGetDataArrayPht
 240              		.thumb
 241              		.thumb_func
 242              		.type	_Z23UART_CustomGetDataArrayPht, %function
 243              	_Z23UART_CustomGetDataArrayPht:
 244              		.fnstart
 245              	.LFB150:
  89:core/Arduino_Serial.cpp **** 
  90:core/Arduino_Serial.cpp **** 
  91:core/Arduino_Serial.cpp **** /**********************************************************************
  92:core/Arduino_Serial.cpp ****  * Sometimes, it's not possible to make a 1:1 conversion between the needs
  93:core/Arduino_Serial.cpp ****  * of the UART class and the available functions in the Cypress API. Below
  94:core/Arduino_Serial.cpp ****  * are the functions which implement that conversion.
  95:core/Arduino_Serial.cpp ****  * *******************************************************************/
  96:core/Arduino_Serial.cpp **** 
ARM GAS  C:\Users\Bruger\AppData\Local\Temp\ccy0JOmx.s 			page 7


  97:core/Arduino_Serial.cpp **** typedef uint8_t (*UART_getDataFunc)(void);
  98:core/Arduino_Serial.cpp **** typedef uint8_t (*UART_getBufferSize)(void);
  99:core/Arduino_Serial.cpp **** 
 100:core/Arduino_Serial.cpp **** UART_getDataFunc readByte;
 101:core/Arduino_Serial.cpp **** UART_getBufferSize readBufSize;
 102:core/Arduino_Serial.cpp **** 
 103:core/Arduino_Serial.cpp **** uint16_t UART_GetDataArray(uint8_t* buffer, uint8_t size);
 104:core/Arduino_Serial.cpp **** 
 105:core/Arduino_Serial.cpp **** uint16_t UART_CustomGetDataArray(uint8_t* buffer, uint16_t size)
 106:core/Arduino_Serial.cpp **** {
 246              		.loc 1 106 0
 247              		.cfi_startproc
 248              		@ args = 0, pretend = 0, frame = 8
 249              		@ frame_needed = 1, uses_anonymous_args = 0
 250 0000 80B5     		push	{r7, lr}
 251              		.save {r7, lr}
 252              		.cfi_def_cfa_offset 8
 253              		.cfi_offset 7, -8
 254              		.cfi_offset 14, -4
 255              		.pad #8
 256 0002 82B0     		sub	sp, sp, #8
 257              		.cfi_def_cfa_offset 16
 258              		.setfp r7, sp, #0
 259 0004 00AF     		add	r7, sp, #0
 260              		.cfi_def_cfa_register 7
 261 0006 7860     		str	r0, [r7, #4]
 262 0008 0B46     		mov	r3, r1
 263 000a 7B80     		strh	r3, [r7, #2]	@ movhi
 107:core/Arduino_Serial.cpp ****   readByte = UART_ReadRxData;
 264              		.loc 1 107 0
 265 000c 084B     		ldr	r3, .L13
 266 000e 094A     		ldr	r2, .L13+4
 267 0010 1A60     		str	r2, [r3]
 108:core/Arduino_Serial.cpp ****   readBufSize = UART_GetRxBufferSize;
 268              		.loc 1 108 0
 269 0012 094B     		ldr	r3, .L13+8
 270 0014 094A     		ldr	r2, .L13+12
 271 0016 1A60     		str	r2, [r3]
 109:core/Arduino_Serial.cpp ****   return UART_GetDataArray(buffer, size);
 272              		.loc 1 109 0
 273 0018 7B88     		ldrh	r3, [r7, #2]	@ movhi
 274 001a DBB2     		uxtb	r3, r3
 275 001c 7868     		ldr	r0, [r7, #4]
 276 001e 1946     		mov	r1, r3
 277 0020 FFF7FEFF 		bl	_Z17UART_GetDataArrayPhh
 278 0024 0346     		mov	r3, r0
 110:core/Arduino_Serial.cpp **** }
 279              		.loc 1 110 0
 280 0026 1846     		mov	r0, r3
 281 0028 0837     		adds	r7, r7, #8
 282              		.cfi_def_cfa_offset 8
 283 002a BD46     		mov	sp, r7
 284              		.cfi_def_cfa_register 13
 285              		@ sp needed
 286 002c 80BD     		pop	{r7, pc}
 287              	.L14:
 288 002e 00BF     		.align	2
ARM GAS  C:\Users\Bruger\AppData\Local\Temp\ccy0JOmx.s 			page 8


 289              	.L13:
 290 0030 00000000 		.word	readByte
 291 0034 00000000 		.word	UART_ReadRxData
 292 0038 00000000 		.word	readBufSize
 293 003c 00000000 		.word	UART_GetRxBufferSize
 294              		.cfi_endproc
 295              	.LFE150:
 296              		.fnend
 297              		.size	_Z23UART_CustomGetDataArrayPht, .-_Z23UART_CustomGetDataArrayPht
 298              		.section	.text._Z24UART_CustomGetBufferSizev,"ax",%progbits
 299              		.align	2
 300              		.global	_Z24UART_CustomGetBufferSizev
 301              		.thumb
 302              		.thumb_func
 303              		.type	_Z24UART_CustomGetBufferSizev, %function
 304              	_Z24UART_CustomGetBufferSizev:
 305              		.fnstart
 306              	.LFB151:
 111:core/Arduino_Serial.cpp **** 
 112:core/Arduino_Serial.cpp **** int16_t UART_CustomGetBufferSize(void)
 113:core/Arduino_Serial.cpp **** {
 307              		.loc 1 113 0
 308              		.cfi_startproc
 309              		@ args = 0, pretend = 0, frame = 0
 310              		@ frame_needed = 1, uses_anonymous_args = 0
 311 0000 80B5     		push	{r7, lr}
 312              		.save {r7, lr}
 313              		.cfi_def_cfa_offset 8
 314              		.cfi_offset 7, -8
 315              		.cfi_offset 14, -4
 316              		.setfp r7, sp, #0
 317 0002 00AF     		add	r7, sp, #0
 318              		.cfi_def_cfa_register 7
 114:core/Arduino_Serial.cpp ****   return (int16_t)UART_GetRxBufferSize();
 319              		.loc 1 114 0
 320 0004 FFF7FEFF 		bl	UART_GetRxBufferSize
 321 0008 0346     		mov	r3, r0
 322 000a 9BB2     		uxth	r3, r3
 323 000c 1BB2     		sxth	r3, r3
 115:core/Arduino_Serial.cpp **** }
 324              		.loc 1 115 0
 325 000e 1846     		mov	r0, r3
 326 0010 80BD     		pop	{r7, pc}
 327              		.cfi_endproc
 328              	.LFE151:
 329              		.fnend
 330              		.size	_Z24UART_CustomGetBufferSizev, .-_Z24UART_CustomGetBufferSizev
 331 0012 00BF     		.section	.text._Z19UART_CustomPutArrayPKht,"ax",%progbits
 332              		.align	2
 333              		.global	_Z19UART_CustomPutArrayPKht
 334              		.thumb
 335              		.thumb_func
 336              		.type	_Z19UART_CustomPutArrayPKht, %function
 337              	_Z19UART_CustomPutArrayPKht:
 338              		.fnstart
 339              	.LFB152:
 116:core/Arduino_Serial.cpp **** 
ARM GAS  C:\Users\Bruger\AppData\Local\Temp\ccy0JOmx.s 			page 9


 117:core/Arduino_Serial.cpp **** void UART_CustomPutArray(const uint8_t* buffer, uint16_t size)
 118:core/Arduino_Serial.cpp **** {
 340              		.loc 1 118 0
 341              		.cfi_startproc
 342              		@ args = 0, pretend = 0, frame = 8
 343              		@ frame_needed = 1, uses_anonymous_args = 0
 344 0000 80B5     		push	{r7, lr}
 345              		.save {r7, lr}
 346              		.cfi_def_cfa_offset 8
 347              		.cfi_offset 7, -8
 348              		.cfi_offset 14, -4
 349              		.pad #8
 350 0002 82B0     		sub	sp, sp, #8
 351              		.cfi_def_cfa_offset 16
 352              		.setfp r7, sp, #0
 353 0004 00AF     		add	r7, sp, #0
 354              		.cfi_def_cfa_register 7
 355 0006 7860     		str	r0, [r7, #4]
 356 0008 0B46     		mov	r3, r1
 357 000a 7B80     		strh	r3, [r7, #2]	@ movhi
 119:core/Arduino_Serial.cpp ****   UART_PutArray(buffer, size);
 358              		.loc 1 119 0
 359 000c 7B88     		ldrh	r3, [r7, #2]	@ movhi
 360 000e DBB2     		uxtb	r3, r3
 361 0010 7868     		ldr	r0, [r7, #4]
 362 0012 1946     		mov	r1, r3
 363 0014 FFF7FEFF 		bl	UART_PutArray
 120:core/Arduino_Serial.cpp **** }
 364              		.loc 1 120 0
 365 0018 0837     		adds	r7, r7, #8
 366              		.cfi_def_cfa_offset 8
 367 001a BD46     		mov	sp, r7
 368              		.cfi_def_cfa_register 13
 369              		@ sp needed
 370 001c 80BD     		pop	{r7, pc}
 371              		.cfi_endproc
 372              	.LFE152:
 373              		.fnend
 374              		.size	_Z19UART_CustomPutArrayPKht, .-_Z19UART_CustomPutArrayPKht
 375 001e 00BF     		.section	.text._Z21UART_CustomPortEnablev,"ax",%progbits
 376              		.align	2
 377              		.global	_Z21UART_CustomPortEnablev
 378              		.thumb
 379              		.thumb_func
 380              		.type	_Z21UART_CustomPortEnablev, %function
 381              	_Z21UART_CustomPortEnablev:
 382              		.fnstart
 383              	.LFB153:
 121:core/Arduino_Serial.cpp **** 
 122:core/Arduino_Serial.cpp **** bool UART_CustomPortEnable(void)
 123:core/Arduino_Serial.cpp **** {
 384              		.loc 1 123 0
 385              		.cfi_startproc
 386              		@ args = 0, pretend = 0, frame = 0
 387              		@ frame_needed = 1, uses_anonymous_args = 0
 388 0000 80B5     		push	{r7, lr}
 389              		.save {r7, lr}
ARM GAS  C:\Users\Bruger\AppData\Local\Temp\ccy0JOmx.s 			page 10


 390              		.cfi_def_cfa_offset 8
 391              		.cfi_offset 7, -8
 392              		.cfi_offset 14, -4
 393              		.setfp r7, sp, #0
 394 0002 00AF     		add	r7, sp, #0
 395              		.cfi_def_cfa_register 7
 124:core/Arduino_Serial.cpp ****   UART_Start();
 396              		.loc 1 124 0
 397 0004 FFF7FEFF 		bl	UART_Start
 125:core/Arduino_Serial.cpp ****   pinMode(D0, PERIPHERAL_IN);
 398              		.loc 1 125 0
 399 0008 0548     		ldr	r0, .L20
 400 000a 0521     		movs	r1, #5
 401 000c FFF7FEFF 		bl	_Z7pinModem8PIN_MODE
 126:core/Arduino_Serial.cpp ****   pinMode(D1, PERIPHERAL_OUT);
 402              		.loc 1 126 0
 403 0010 0448     		ldr	r0, .L20+4
 404 0012 0421     		movs	r1, #4
 405 0014 FFF7FEFF 		bl	_Z7pinModem8PIN_MODE
 127:core/Arduino_Serial.cpp ****   return true; 
 406              		.loc 1 127 0
 407 0018 0123     		movs	r3, #1
 128:core/Arduino_Serial.cpp **** }
 408              		.loc 1 128 0
 409 001a 1846     		mov	r0, r3
 410 001c 80BD     		pop	{r7, pc}
 411              	.L21:
 412 001e 00BF     		.align	2
 413              	.L20:
 414 0020 10500040 		.word	1073762320
 415 0024 11500040 		.word	1073762321
 416              		.cfi_endproc
 417              	.LFE153:
 418              		.fnend
 419              		.size	_Z21UART_CustomPortEnablev, .-_Z21UART_CustomPortEnablev
 420              		.section	.text._Z22UART_CustomPortDisablev,"ax",%progbits
 421              		.align	2
 422              		.global	_Z22UART_CustomPortDisablev
 423              		.thumb
 424              		.thumb_func
 425              		.type	_Z22UART_CustomPortDisablev, %function
 426              	_Z22UART_CustomPortDisablev:
 427              		.fnstart
 428              	.LFB154:
 129:core/Arduino_Serial.cpp **** 
 130:core/Arduino_Serial.cpp **** void UART_CustomPortDisable(void)
 131:core/Arduino_Serial.cpp **** {
 429              		.loc 1 131 0
 430              		.cfi_startproc
 431              		@ args = 0, pretend = 0, frame = 0
 432              		@ frame_needed = 1, uses_anonymous_args = 0
 433 0000 80B5     		push	{r7, lr}
 434              		.save {r7, lr}
 435              		.cfi_def_cfa_offset 8
 436              		.cfi_offset 7, -8
 437              		.cfi_offset 14, -4
 438              		.setfp r7, sp, #0
ARM GAS  C:\Users\Bruger\AppData\Local\Temp\ccy0JOmx.s 			page 11


 439 0002 00AF     		add	r7, sp, #0
 440              		.cfi_def_cfa_register 7
 132:core/Arduino_Serial.cpp ****   UART_Stop();
 441              		.loc 1 132 0
 442 0004 FFF7FEFF 		bl	UART_Stop
 133:core/Arduino_Serial.cpp ****   pinMode(D0, INPUT);
 443              		.loc 1 133 0
 444 0008 0448     		ldr	r0, .L23
 445 000a 0121     		movs	r1, #1
 446 000c FFF7FEFF 		bl	_Z7pinModem8PIN_MODE
 134:core/Arduino_Serial.cpp ****   pinMode(D1, INPUT);
 447              		.loc 1 134 0
 448 0010 0348     		ldr	r0, .L23+4
 449 0012 0121     		movs	r1, #1
 450 0014 FFF7FEFF 		bl	_Z7pinModem8PIN_MODE
 135:core/Arduino_Serial.cpp **** }
 451              		.loc 1 135 0
 452 0018 80BD     		pop	{r7, pc}
 453              	.L24:
 454 001a 00BF     		.align	2
 455              	.L23:
 456 001c 10500040 		.word	1073762320
 457 0020 11500040 		.word	1073762321
 458              		.cfi_endproc
 459              	.LFE154:
 460              		.fnend
 461              		.size	_Z22UART_CustomPortDisablev, .-_Z22UART_CustomPortDisablev
 462              		.section	.text._Z17UART_GetDataArrayPhh,"ax",%progbits
 463              		.align	2
 464              		.global	_Z17UART_GetDataArrayPhh
 465              		.thumb
 466              		.thumb_func
 467              		.type	_Z17UART_GetDataArrayPhh, %function
 468              	_Z17UART_GetDataArrayPhh:
 469              		.fnstart
 470              	.LFB155:
 136:core/Arduino_Serial.cpp **** 
 137:core/Arduino_Serial.cpp **** uint16_t UART_GetDataArray(uint8_t* buffer, uint8_t size)
 138:core/Arduino_Serial.cpp **** {
 471              		.loc 1 138 0
 472              		.cfi_startproc
 473              		@ args = 0, pretend = 0, frame = 16
 474              		@ frame_needed = 1, uses_anonymous_args = 0
 475 0000 90B5     		push	{r4, r7, lr}
 476              		.save {r4, r7, lr}
 477              		.cfi_def_cfa_offset 12
 478              		.cfi_offset 4, -12
 479              		.cfi_offset 7, -8
 480              		.cfi_offset 14, -4
 481              		.pad #20
 482 0002 85B0     		sub	sp, sp, #20
 483              		.cfi_def_cfa_offset 32
 484              		.setfp r7, sp, #0
 485 0004 00AF     		add	r7, sp, #0
 486              		.cfi_def_cfa_register 7
 487 0006 7860     		str	r0, [r7, #4]
 488 0008 0B46     		mov	r3, r1
ARM GAS  C:\Users\Bruger\AppData\Local\Temp\ccy0JOmx.s 			page 12


 489 000a FB70     		strb	r3, [r7, #3]
 490              	.LBB3:
 139:core/Arduino_Serial.cpp ****   uint16_t bytesRead = 0;
 491              		.loc 1 139 0
 492 000c 0023     		movs	r3, #0
 493 000e FB81     		strh	r3, [r7, #14]	@ movhi
 494              	.LBB4:
 140:core/Arduino_Serial.cpp ****   for (int i = 0; i < size; ++i)
 495              		.loc 1 140 0
 496 0010 0023     		movs	r3, #0
 497 0012 BB60     		str	r3, [r7, #8]
 498 0014 1AE0     		b	.L26
 499              	.L30:
 141:core/Arduino_Serial.cpp ****   {
 142:core/Arduino_Serial.cpp ****     if (readBufSize() > 0)
 500              		.loc 1 142 0
 501 0016 124B     		ldr	r3, .L33
 502 0018 1B68     		ldr	r3, [r3]
 503 001a 9847     		blx	r3
 504 001c 0346     		mov	r3, r0
 505 001e 002B     		cmp	r3, #0
 506 0020 14BF     		ite	ne
 507 0022 0123     		movne	r3, #1
 508 0024 0023     		moveq	r3, #0
 509 0026 DBB2     		uxtb	r3, r3
 510 0028 002B     		cmp	r3, #0
 511 002a 0BD0     		beq	.L27
 143:core/Arduino_Serial.cpp ****     {
 144:core/Arduino_Serial.cpp ****       buffer[i] = readByte();
 512              		.loc 1 144 0
 513 002c BB68     		ldr	r3, [r7, #8]
 514 002e 7A68     		ldr	r2, [r7, #4]
 515 0030 D418     		adds	r4, r2, r3
 516 0032 0C4B     		ldr	r3, .L33+4
 517 0034 1B68     		ldr	r3, [r3]
 518 0036 9847     		blx	r3
 519 0038 0346     		mov	r3, r0
 520 003a 2370     		strb	r3, [r4]
 145:core/Arduino_Serial.cpp ****       ++bytesRead;
 521              		.loc 1 145 0
 522 003c FB89     		ldrh	r3, [r7, #14]	@ movhi
 523 003e 0133     		adds	r3, r3, #1
 524 0040 FB81     		strh	r3, [r7, #14]	@ movhi
 525 0042 00E0     		b	.L32
 526              	.L27:
 146:core/Arduino_Serial.cpp ****     }
 147:core/Arduino_Serial.cpp ****     else
 148:core/Arduino_Serial.cpp ****     {
 149:core/Arduino_Serial.cpp ****       break;
 527              		.loc 1 149 0
 528 0044 06E0     		b	.L29
 529              	.L32:
 140:core/Arduino_Serial.cpp ****   {
 530              		.loc 1 140 0 discriminator 2
 531 0046 BB68     		ldr	r3, [r7, #8]
 532 0048 0133     		adds	r3, r3, #1
 533 004a BB60     		str	r3, [r7, #8]
ARM GAS  C:\Users\Bruger\AppData\Local\Temp\ccy0JOmx.s 			page 13


 534              	.L26:
 140:core/Arduino_Serial.cpp ****   {
 535              		.loc 1 140 0 is_stmt 0 discriminator 1
 536 004c FA78     		ldrb	r2, [r7, #3]	@ zero_extendqisi2
 537 004e BB68     		ldr	r3, [r7, #8]
 538 0050 9A42     		cmp	r2, r3
 539 0052 E0DC     		bgt	.L30
 540              	.L29:
 541              	.LBE4:
 150:core/Arduino_Serial.cpp ****     }
 151:core/Arduino_Serial.cpp ****   }
 152:core/Arduino_Serial.cpp ****   return bytesRead;
 542              		.loc 1 152 0 is_stmt 1
 543 0054 FB89     		ldrh	r3, [r7, #14]
 544              	.LBE3:
 153:core/Arduino_Serial.cpp **** }
 545              		.loc 1 153 0
 546 0056 1846     		mov	r0, r3
 547 0058 1437     		adds	r7, r7, #20
 548              		.cfi_def_cfa_offset 12
 549 005a BD46     		mov	sp, r7
 550              		.cfi_def_cfa_register 13
 551              		@ sp needed
 552 005c 90BD     		pop	{r4, r7, pc}
 553              	.L34:
 554 005e 00BF     		.align	2
 555              	.L33:
 556 0060 00000000 		.word	readBufSize
 557 0064 00000000 		.word	readByte
 558              		.cfi_endproc
 559              	.LFE155:
 560              		.fnend
 561              		.size	_Z17UART_GetDataArrayPhh, .-_Z17UART_GetDataArrayPhh
 562              		.section	.text._Z22USBUART_CustomGetCountv,"ax",%progbits
 563              		.align	2
 564              		.global	_Z22USBUART_CustomGetCountv
 565              		.thumb
 566              		.thumb_func
 567              		.type	_Z22USBUART_CustomGetCountv, %function
 568              	_Z22USBUART_CustomGetCountv:
 569              		.fnstart
 570              	.LFB156:
 154:core/Arduino_Serial.cpp **** 
 155:core/Arduino_Serial.cpp **** 
 156:core/Arduino_Serial.cpp **** int16_t USBUART_CustomGetCount()
 157:core/Arduino_Serial.cpp **** {
 571              		.loc 1 157 0
 572              		.cfi_startproc
 573              		@ args = 0, pretend = 0, frame = 0
 574              		@ frame_needed = 1, uses_anonymous_args = 0
 575 0000 80B5     		push	{r7, lr}
 576              		.save {r7, lr}
 577              		.cfi_def_cfa_offset 8
 578              		.cfi_offset 7, -8
 579              		.cfi_offset 14, -4
 580              		.setfp r7, sp, #0
 581 0002 00AF     		add	r7, sp, #0
ARM GAS  C:\Users\Bruger\AppData\Local\Temp\ccy0JOmx.s 			page 14


 582              		.cfi_def_cfa_register 7
 158:core/Arduino_Serial.cpp ****   if (USBUART_DataIsReady() == 0)
 583              		.loc 1 158 0
 584 0004 FFF7FEFF 		bl	USBUART_DataIsReady
 585 0008 0346     		mov	r3, r0
 586 000a 002B     		cmp	r3, #0
 587 000c 0CBF     		ite	eq
 588 000e 0123     		moveq	r3, #1
 589 0010 0023     		movne	r3, #0
 590 0012 DBB2     		uxtb	r3, r3
 591 0014 002B     		cmp	r3, #0
 592 0016 01D0     		beq	.L36
 159:core/Arduino_Serial.cpp ****   {
 160:core/Arduino_Serial.cpp ****     return 0;
 593              		.loc 1 160 0
 594 0018 0023     		movs	r3, #0
 595 001a 03E0     		b	.L37
 596              	.L36:
 161:core/Arduino_Serial.cpp ****   }
 162:core/Arduino_Serial.cpp ****   else
 163:core/Arduino_Serial.cpp ****   {
 164:core/Arduino_Serial.cpp ****     return USBUART_GetCount();
 597              		.loc 1 164 0
 598 001c FFF7FEFF 		bl	USBUART_GetCount
 599 0020 0346     		mov	r3, r0
 600 0022 9BB2     		uxth	r3, r3
 601              	.L37:
 602 0024 1BB2     		sxth	r3, r3
 165:core/Arduino_Serial.cpp ****   }
 166:core/Arduino_Serial.cpp **** }
 603              		.loc 1 166 0
 604 0026 1846     		mov	r0, r3
 605 0028 80BD     		pop	{r7, pc}
 606              		.cfi_endproc
 607              	.LFE156:
 608              		.fnend
 609              		.size	_Z22USBUART_CustomGetCountv, .-_Z22USBUART_CustomGetCountv
 610 002a 00BF     		.section	.text._Z27UART1Clock_CustomSetDividert,"ax",%progbits
 611              		.align	2
 612              		.global	_Z27UART1Clock_CustomSetDividert
 613              		.thumb
 614              		.thumb_func
 615              		.type	_Z27UART1Clock_CustomSetDividert, %function
 616              	_Z27UART1Clock_CustomSetDividert:
 617              		.fnstart
 618              	.LFB157:
 167:core/Arduino_Serial.cpp **** /***************************************************************************
 168:core/Arduino_Serial.cpp ****  * WHY!?!?!
 169:core/Arduino_Serial.cpp ****  * Why have a function which calls a seemingly identical function? It's not
 170:core/Arduino_Serial.cpp ****  * even abstracted or anything?!?!?!
 171:core/Arduino_Serial.cpp ****  * Because, SetDividerValue isn't a function, it's a macro for a function
 172:core/Arduino_Serial.cpp ****  * which is incompatible, so trying to use a pointer that's compatible with
 173:core/Arduino_Serial.cpp ****  * SetDividerValue doesn't work. Blech.
 174:core/Arduino_Serial.cpp ****  * ***********************************************************************/
 175:core/Arduino_Serial.cpp **** 
 176:core/Arduino_Serial.cpp **** void UART1Clock_CustomSetDivider(uint16_t newDivider)
 177:core/Arduino_Serial.cpp **** {
ARM GAS  C:\Users\Bruger\AppData\Local\Temp\ccy0JOmx.s 			page 15


 619              		.loc 1 177 0
 620              		.cfi_startproc
 621              		@ args = 0, pretend = 0, frame = 8
 622              		@ frame_needed = 1, uses_anonymous_args = 0
 623 0000 80B5     		push	{r7, lr}
 624              		.save {r7, lr}
 625              		.cfi_def_cfa_offset 8
 626              		.cfi_offset 7, -8
 627              		.cfi_offset 14, -4
 628              		.pad #8
 629 0002 82B0     		sub	sp, sp, #8
 630              		.cfi_def_cfa_offset 16
 631              		.setfp r7, sp, #0
 632 0004 00AF     		add	r7, sp, #0
 633              		.cfi_def_cfa_register 7
 634 0006 0346     		mov	r3, r0
 635 0008 FB80     		strh	r3, [r7, #6]	@ movhi
 178:core/Arduino_Serial.cpp ****   UART_Clock_SetDividerValue(newDivider);
 636              		.loc 1 178 0
 637 000a FB88     		ldrh	r3, [r7, #6]	@ movhi
 638 000c 013B     		subs	r3, r3, #1
 639 000e 9BB2     		uxth	r3, r3
 640 0010 1846     		mov	r0, r3
 641 0012 0121     		movs	r1, #1
 642 0014 FFF7FEFF 		bl	UART_Clock_SetDividerRegister
 179:core/Arduino_Serial.cpp **** }
 643              		.loc 1 179 0
 644 0018 0837     		adds	r7, r7, #8
 645              		.cfi_def_cfa_offset 8
 646 001a BD46     		mov	sp, r7
 647              		.cfi_def_cfa_register 13
 648              		@ sp needed
 649 001c 80BD     		pop	{r7, pc}
 650              		.cfi_endproc
 651              	.LFE157:
 652              		.fnend
 653              		.size	_Z27UART1Clock_CustomSetDividert, .-_Z27UART1Clock_CustomSetDividert
 654 001e 00BF     		.section	.text._Z18UART_CustomIsReadyv,"ax",%progbits
 655              		.align	2
 656              		.global	_Z18UART_CustomIsReadyv
 657              		.thumb
 658              		.thumb_func
 659              		.type	_Z18UART_CustomIsReadyv, %function
 660              	_Z18UART_CustomIsReadyv:
 661              		.fnstart
 662              	.LFB158:
 180:core/Arduino_Serial.cpp **** 
 181:core/Arduino_Serial.cpp **** uint8_t  UART_CustomIsReady( void )
 182:core/Arduino_Serial.cpp **** {
 663              		.loc 1 182 0
 664              		.cfi_startproc
 665              		@ args = 0, pretend = 0, frame = 0
 666              		@ frame_needed = 1, uses_anonymous_args = 0
 667 0000 80B5     		push	{r7, lr}
 668              		.save {r7, lr}
 669              		.cfi_def_cfa_offset 8
 670              		.cfi_offset 7, -8
ARM GAS  C:\Users\Bruger\AppData\Local\Temp\ccy0JOmx.s 			page 16


 671              		.cfi_offset 14, -4
 672              		.setfp r7, sp, #0
 673 0002 00AF     		add	r7, sp, #0
 674              		.cfi_def_cfa_register 7
 183:core/Arduino_Serial.cpp ****   return (UART_ReadTxStatus() != UART_TX_STS_FIFO_FULL);
 675              		.loc 1 183 0
 676 0004 FFF7FEFF 		bl	UART_ReadTxStatus
 677 0008 0346     		mov	r3, r0
 678 000a 042B     		cmp	r3, #4
 679 000c 14BF     		ite	ne
 680 000e 0123     		movne	r3, #1
 681 0010 0023     		moveq	r3, #0
 682 0012 DBB2     		uxtb	r3, r3
 184:core/Arduino_Serial.cpp **** }
 683              		.loc 1 184 0
 684 0014 1846     		mov	r0, r3
 685 0016 80BD     		pop	{r7, pc}
 686              		.cfi_endproc
 687              	.LFE158:
 688              		.fnend
 689              		.size	_Z18UART_CustomIsReadyv, .-_Z18UART_CustomIsReadyv
 690              		.section	.rodata
 691              		.type	_ZL2SS, %object
 692              		.size	_ZL2SS, 1
 693              	_ZL2SS:
 694 0000 0A       		.byte	10
 695              		.type	_ZL4MOSI, %object
 696              		.size	_ZL4MOSI, 1
 697              	_ZL4MOSI:
 698 0001 0B       		.byte	11
 699              		.type	_ZL4MISO, %object
 700              		.size	_ZL4MISO, 1
 701              	_ZL4MISO:
 702 0002 0C       		.byte	12
 703              		.type	_ZL3SCK, %object
 704              		.size	_ZL3SCK, 1
 705              	_ZL3SCK:
 706 0003 0D       		.byte	13
 707              		.type	_ZL3SDA, %object
 708              		.size	_ZL3SDA, 1
 709              	_ZL3SDA:
 710 0004 15       		.byte	21
 711              		.type	_ZL3SCL, %object
 712              		.size	_ZL3SCL, 1
 713              	_ZL3SCL:
 714 0005 14       		.byte	20
 715              		.text
 716              	.Letext0:
 717              		.file 2 "c:\\program files (x86)\\cypress\\psoc creator\\4.0\\psoc creator\\import\\gnu\\arm\\4.9.
 718              		.file 3 "c:\\program files (x86)\\cypress\\psoc creator\\4.0\\psoc creator\\import\\gnu\\arm\\4.9.
 719              		.file 4 "Generated_Source\\PSoC5/cytypes.h"
 720              		.file 5 "core\\UARTClass.h"
 721              		.file 6 ".\\core/pins_arduino.h"
 722              		.file 7 "Generated_Source\\PSoC5/core_cm3.h"
 723              		.file 8 "core\\Arduino_Pins.h"