ARM GAS  C:\Users\Bruger\AppData\Local\Temp\cc48xM37.s 			page 1


   1              		.syntax unified
   2              		.cpu cortex-m3
   3              		.fpu softvfp
   4              		.eabi_attribute 20, 1
   5              		.eabi_attribute 21, 1
   6              		.eabi_attribute 23, 3
   7              		.eabi_attribute 24, 1
   8              		.eabi_attribute 25, 1
   9              		.eabi_attribute 26, 1
  10              		.eabi_attribute 30, 6
  11              		.eabi_attribute 34, 1
  12              		.eabi_attribute 18, 4
  13              		.thumb
  14              		.file	"Arduino_Time.cpp"
  15              		.text
  16              	.Ltext0:
  17              		.cfi_sections	.debug_frame
  18              		.section	.text._Z12initTimebasev,"ax",%progbits
  19              		.align	2
  20              		.global	_Z12initTimebasev
  21              		.thumb
  22              		.thumb_func
  23              		.type	_Z12initTimebasev, %function
  24              	_Z12initTimebasev:
  25              		.fnstart
  26              	.LFB147:
  27              		.file 1 "core\\Arduino_Time.cpp"
   1:core/Arduino_Time.cpp **** /* ========================================
   2:core/Arduino_Time.cpp ****  *
   3:core/Arduino_Time.cpp ****  * Copyright YOUR COMPANY, THE YEAR
   4:core/Arduino_Time.cpp ****  * All Rights Reserved
   5:core/Arduino_Time.cpp ****  * UNPUBLISHED, LICENSED SOFTWARE.
   6:core/Arduino_Time.cpp ****  *
   7:core/Arduino_Time.cpp ****  * CONFIDENTIAL AND PROPRIETARY INFORMATION
   8:core/Arduino_Time.cpp ****  * WHICH IS THE PROPERTY OF your company.
   9:core/Arduino_Time.cpp ****  *
  10:core/Arduino_Time.cpp ****  * ========================================
  11:core/Arduino_Time.cpp **** */
  12:core/Arduino_Time.cpp **** 
  13:core/Arduino_Time.cpp **** extern "C" {
  14:core/Arduino_Time.cpp **** #include <Project.h>
  15:core/Arduino_Time.cpp **** }
  16:core/Arduino_Time.cpp **** 
  17:core/Arduino_Time.cpp **** #include <Arduino_Time.h>
  18:core/Arduino_Time.cpp **** #include <Arduino.h>
  19:core/Arduino_Time.cpp **** #include <UARTClass.h>
  20:core/Arduino_Time.cpp **** 
  21:core/Arduino_Time.cpp **** static void exitToBootloader(void);
  22:core/Arduino_Time.cpp **** CY_ISR_PROTO(BootloaderReset_ISR);
  23:core/Arduino_Time.cpp **** 
  24:core/Arduino_Time.cpp **** void initTimebase(void)
  25:core/Arduino_Time.cpp **** {
  28              		.loc 1 25 0
  29              		.cfi_startproc
  30              		@ args = 0, pretend = 0, frame = 0
  31              		@ frame_needed = 1, uses_anonymous_args = 0
  32 0000 80B5     		push	{r7, lr}
ARM GAS  C:\Users\Bruger\AppData\Local\Temp\cc48xM37.s 			page 2


  33              		.save {r7, lr}
  34              		.cfi_def_cfa_offset 8
  35              		.cfi_offset 7, -8
  36              		.cfi_offset 14, -4
  37              		.setfp r7, sp, #0
  38 0002 00AF     		add	r7, sp, #0
  39              		.cfi_def_cfa_register 7
  26:core/Arduino_Time.cpp ****     Micros_Counter_Start();
  40              		.loc 1 26 0
  41 0004 FFF7FEFF 		bl	Micros_Counter_Start
  27:core/Arduino_Time.cpp ****     Millis_Counter_Start();
  42              		.loc 1 27 0
  43 0008 FFF7FEFF 		bl	Millis_Counter_Start
  28:core/Arduino_Time.cpp ****     BootloaderResetTimer_Start();
  44              		.loc 1 28 0
  45 000c FFF7FEFF 		bl	BootloaderResetTimer_Start
  29:core/Arduino_Time.cpp ****     BootloaderResetInterrupt_StartEx(BootloaderReset_ISR);
  46              		.loc 1 29 0
  47 0010 0148     		ldr	r0, .L2
  48 0012 FFF7FEFF 		bl	BootloaderResetInterrupt_StartEx
  30:core/Arduino_Time.cpp **** }
  49              		.loc 1 30 0
  50 0016 80BD     		pop	{r7, pc}
  51              	.L3:
  52              		.align	2
  53              	.L2:
  54 0018 00000000 		.word	_Z19BootloaderReset_ISRv
  55              		.cfi_endproc
  56              	.LFE147:
  57              		.fnend
  58              		.size	_Z12initTimebasev, .-_Z12initTimebasev
  59              		.section	.text._Z5delayj,"ax",%progbits
  60              		.align	2
  61              		.global	_Z5delayj
  62              		.thumb
  63              		.thumb_func
  64              		.type	_Z5delayj, %function
  65              	_Z5delayj:
  66              		.fnstart
  67              	.LFB148:
  31:core/Arduino_Time.cpp **** 
  32:core/Arduino_Time.cpp **** void delay(unsigned int delayms)
  33:core/Arduino_Time.cpp **** {
  68              		.loc 1 33 0
  69              		.cfi_startproc
  70              		@ args = 0, pretend = 0, frame = 8
  71              		@ frame_needed = 1, uses_anonymous_args = 0
  72 0000 80B5     		push	{r7, lr}
  73              		.save {r7, lr}
  74              		.cfi_def_cfa_offset 8
  75              		.cfi_offset 7, -8
  76              		.cfi_offset 14, -4
  77              		.pad #8
  78 0002 82B0     		sub	sp, sp, #8
  79              		.cfi_def_cfa_offset 16
  80              		.setfp r7, sp, #0
  81 0004 00AF     		add	r7, sp, #0
ARM GAS  C:\Users\Bruger\AppData\Local\Temp\cc48xM37.s 			page 3


  82              		.cfi_def_cfa_register 7
  83 0006 7860     		str	r0, [r7, #4]
  34:core/Arduino_Time.cpp ****   CyDelay(delayms);
  84              		.loc 1 34 0
  85 0008 7868     		ldr	r0, [r7, #4]
  86 000a FFF7FEFF 		bl	CyDelay
  35:core/Arduino_Time.cpp **** }
  87              		.loc 1 35 0
  88 000e 0837     		adds	r7, r7, #8
  89              		.cfi_def_cfa_offset 8
  90 0010 BD46     		mov	sp, r7
  91              		.cfi_def_cfa_register 13
  92              		@ sp needed
  93 0012 80BD     		pop	{r7, pc}
  94              		.cfi_endproc
  95              	.LFE148:
  96              		.fnend
  97              		.size	_Z5delayj, .-_Z5delayj
  98              		.section	.text._Z17delayMicrosecondsj,"ax",%progbits
  99              		.align	2
 100              		.global	_Z17delayMicrosecondsj
 101              		.thumb
 102              		.thumb_func
 103              		.type	_Z17delayMicrosecondsj, %function
 104              	_Z17delayMicrosecondsj:
 105              		.fnstart
 106              	.LFB149:
  36:core/Arduino_Time.cpp **** 
  37:core/Arduino_Time.cpp **** void delayMicroseconds(unsigned int delayus)
  38:core/Arduino_Time.cpp **** {
 107              		.loc 1 38 0
 108              		.cfi_startproc
 109              		@ args = 0, pretend = 0, frame = 8
 110              		@ frame_needed = 1, uses_anonymous_args = 0
 111 0000 80B5     		push	{r7, lr}
 112              		.save {r7, lr}
 113              		.cfi_def_cfa_offset 8
 114              		.cfi_offset 7, -8
 115              		.cfi_offset 14, -4
 116              		.pad #8
 117 0002 82B0     		sub	sp, sp, #8
 118              		.cfi_def_cfa_offset 16
 119              		.setfp r7, sp, #0
 120 0004 00AF     		add	r7, sp, #0
 121              		.cfi_def_cfa_register 7
 122 0006 7860     		str	r0, [r7, #4]
  39:core/Arduino_Time.cpp ****   CyDelayUs(delayus);
 123              		.loc 1 39 0
 124 0008 7B68     		ldr	r3, [r7, #4]
 125 000a 9BB2     		uxth	r3, r3
 126 000c 1846     		mov	r0, r3
 127 000e FFF7FEFF 		bl	CyDelayUs
  40:core/Arduino_Time.cpp **** }
 128              		.loc 1 40 0
 129 0012 0837     		adds	r7, r7, #8
 130              		.cfi_def_cfa_offset 8
 131 0014 BD46     		mov	sp, r7
ARM GAS  C:\Users\Bruger\AppData\Local\Temp\cc48xM37.s 			page 4


 132              		.cfi_def_cfa_register 13
 133              		@ sp needed
 134 0016 80BD     		pop	{r7, pc}
 135              		.cfi_endproc
 136              	.LFE149:
 137              		.fnend
 138              		.size	_Z17delayMicrosecondsj, .-_Z17delayMicrosecondsj
 139              		.section	.text._Z19BootloaderReset_ISRv,"ax",%progbits
 140              		.align	2
 141              		.global	_Z19BootloaderReset_ISRv
 142              		.thumb
 143              		.thumb_func
 144              		.type	_Z19BootloaderReset_ISRv, %function
 145              	_Z19BootloaderReset_ISRv:
 146              		.fnstart
 147              	.LFB150:
  41:core/Arduino_Time.cpp **** 
  42:core/Arduino_Time.cpp **** CY_ISR(BootloaderReset_ISR)
  43:core/Arduino_Time.cpp **** {
 148              		.loc 1 43 0
 149              		.cfi_startproc
 150              		@ args = 0, pretend = 0, frame = 0
 151              		@ frame_needed = 1, uses_anonymous_args = 0
 152 0000 80B5     		push	{r7, lr}
 153              		.save {r7, lr}
 154              		.cfi_def_cfa_offset 8
 155              		.cfi_offset 7, -8
 156              		.cfi_offset 14, -4
 157              		.setfp r7, sp, #0
 158 0002 00AF     		add	r7, sp, #0
 159              		.cfi_def_cfa_register 7
  44:core/Arduino_Time.cpp ****   BootloaderResetInterrupt_ClearPending();         
 160              		.loc 1 44 0
 161 0004 FFF7FEFF 		bl	BootloaderResetInterrupt_ClearPending
  45:core/Arduino_Time.cpp ****   if(USBUART_GetConfiguration() != 0u)
 162              		.loc 1 45 0
 163 0008 FFF7FEFF 		bl	USBUART_GetConfiguration
 164 000c 0346     		mov	r3, r0
 165 000e 002B     		cmp	r3, #0
 166 0010 14BF     		ite	ne
 167 0012 0123     		movne	r3, #1
 168 0014 0023     		moveq	r3, #0
 169 0016 DBB2     		uxtb	r3, r3
 170 0018 002B     		cmp	r3, #0
 171 001a 0CD0     		beq	.L7
  46:core/Arduino_Time.cpp ****   {
  47:core/Arduino_Time.cpp ****     if(USBUART_DataIsReady() != 0u)
 172              		.loc 1 47 0
 173 001c FFF7FEFF 		bl	USBUART_DataIsReady
 174 0020 0346     		mov	r3, r0
 175 0022 002B     		cmp	r3, #0
 176 0024 14BF     		ite	ne
 177 0026 0123     		movne	r3, #1
 178 0028 0023     		moveq	r3, #0
 179 002a DBB2     		uxtb	r3, r3
 180 002c 002B     		cmp	r3, #0
 181 002e 02D0     		beq	.L7
ARM GAS  C:\Users\Bruger\AppData\Local\Temp\cc48xM37.s 			page 5


  48:core/Arduino_Time.cpp ****     {   
  49:core/Arduino_Time.cpp ****       Serial.buffer();
 182              		.loc 1 49 0
 183 0030 0848     		ldr	r0, .L9
 184 0032 FFF7FEFF 		bl	_ZN9UARTClass6bufferEv
 185              	.L7:
  50:core/Arduino_Time.cpp ****     }  
  51:core/Arduino_Time.cpp ****   }
  52:core/Arduino_Time.cpp ****   if (USBUART_GetDTERate() == 1200)
 186              		.loc 1 52 0
 187 0036 FFF7FEFF 		bl	USBUART_GetDTERate
 188 003a 0346     		mov	r3, r0
 189 003c B3F5966F 		cmp	r3, #1200
 190 0040 0CBF     		ite	eq
 191 0042 0123     		moveq	r3, #1
 192 0044 0023     		movne	r3, #0
 193 0046 DBB2     		uxtb	r3, r3
 194 0048 002B     		cmp	r3, #0
 195 004a 01D0     		beq	.L6
  53:core/Arduino_Time.cpp ****   {
  54:core/Arduino_Time.cpp ****     exitToBootloader();
 196              		.loc 1 54 0
 197 004c FFF7FEFF 		bl	_ZL16exitToBootloaderv
 198              	.L6:
  55:core/Arduino_Time.cpp ****   }
  56:core/Arduino_Time.cpp **** }
 199              		.loc 1 56 0
 200 0050 80BD     		pop	{r7, pc}
 201              	.L10:
 202 0052 00BF     		.align	2
 203              	.L9:
 204 0054 00000000 		.word	Serial
 205              		.cfi_endproc
 206              	.LFE150:
 207              		.fnend
 208              		.size	_Z19BootloaderReset_ISRv, .-_Z19BootloaderReset_ISRv
 209              		.section	.text._ZL16exitToBootloaderv,"ax",%progbits
 210              		.align	2
 211              		.thumb
 212              		.thumb_func
 213              		.type	_ZL16exitToBootloaderv, %function
 214              	_ZL16exitToBootloaderv:
 215              		.fnstart
 216              	.LFB151:
  57:core/Arduino_Time.cpp **** 
  58:core/Arduino_Time.cpp **** void exitToBootloader(void)
  59:core/Arduino_Time.cpp **** {
 217              		.loc 1 59 0
 218              		.cfi_startproc
 219              		@ args = 0, pretend = 0, frame = 0
 220              		@ frame_needed = 1, uses_anonymous_args = 0
 221 0000 80B5     		push	{r7, lr}
 222              		.save {r7, lr}
 223              		.cfi_def_cfa_offset 8
 224              		.cfi_offset 7, -8
 225              		.cfi_offset 14, -4
 226              		.setfp r7, sp, #0
ARM GAS  C:\Users\Bruger\AppData\Local\Temp\cc48xM37.s 			page 6


 227 0002 00AF     		add	r7, sp, #0
 228              		.cfi_def_cfa_register 7
  60:core/Arduino_Time.cpp ****   Bootloader_SET_RUN_TYPE(Bootloader_SCHEDULE_BTLDR);
 229              		.loc 1 60 0
 230 0004 024B     		ldr	r3, .L12
 231 0006 4022     		movs	r2, #64
 232 0008 1A70     		strb	r2, [r3]
  61:core/Arduino_Time.cpp ****   CySoftwareReset();
 233              		.loc 1 61 0
 234 000a FFF7FEFF 		bl	CySoftwareReset
  62:core/Arduino_Time.cpp **** }
 235              		.loc 1 62 0
 236 000e 80BD     		pop	{r7, pc}
 237              	.L13:
 238              		.align	2
 239              	.L12:
 240 0010 FA460040 		.word	1073759994
 241              		.cfi_endproc
 242              	.LFE151:
 243              		.fnend
 244              		.size	_ZL16exitToBootloaderv, .-_ZL16exitToBootloaderv
 245              		.section	.rodata
 246              		.type	_ZL2SS, %object
 247              		.size	_ZL2SS, 1
 248              	_ZL2SS:
 249 0000 0A       		.byte	10
 250              		.type	_ZL4MOSI, %object
 251              		.size	_ZL4MOSI, 1
 252              	_ZL4MOSI:
 253 0001 0B       		.byte	11
 254              		.type	_ZL4MISO, %object
 255              		.size	_ZL4MISO, 1
 256              	_ZL4MISO:
 257 0002 0C       		.byte	12
 258              		.type	_ZL3SCK, %object
 259              		.size	_ZL3SCK, 1
 260              	_ZL3SCK:
 261 0003 0D       		.byte	13
 262              		.type	_ZL3SDA, %object
 263              		.size	_ZL3SDA, 1
 264              	_ZL3SDA:
 265 0004 15       		.byte	21
 266              		.type	_ZL3SCL, %object
 267              		.size	_ZL3SCL, 1
 268              	_ZL3SCL:
 269 0005 14       		.byte	20
 270              		.text
 271              	.Letext0:
 272              		.file 2 "c:\\program files (x86)\\cypress\\psoc creator\\4.0\\psoc creator\\import\\gnu\\arm\\4.9.
 273              		.file 3 "c:\\program files (x86)\\cypress\\psoc creator\\4.0\\psoc creator\\import\\gnu\\arm\\4.9.
 274              		.file 4 "Generated_Source\\PSoC5/cytypes.h"
 275              		.file 5 "c:\\program files (x86)\\cypress\\psoc creator\\4.0\\psoc creator\\import\\gnu\\arm\\4.9.
 276              		.file 6 ".\\core/pins_arduino.h"
 277              		.file 7 "Generated_Source\\PSoC5/core_cm3.h"
 278              		.file 8 ".\\core/Arduino.h"
 279              		.file 9 ".\\core/Print.h"
 280              		.file 10 ".\\core/UARTClass.h"
ARM GAS  C:\Users\Bruger\AppData\Local\Temp\cc48xM37.s 			page 7

