ARM GAS  C:\Users\Bruger\AppData\Local\Temp\cc6o6Inw.s 			page 1


   1              		.syntax unified
   2              		.cpu cortex-m3
   3              		.fpu softvfp
   4              		.eabi_attribute 20, 1
   5              		.eabi_attribute 21, 1
   6              		.eabi_attribute 23, 3
   7              		.eabi_attribute 24, 1
   8              		.eabi_attribute 25, 1
   9              		.eabi_attribute 26, 1
  10              		.eabi_attribute 30, 6
  11              		.eabi_attribute 34, 1
  12              		.eabi_attribute 18, 4
  13              		.thumb
  14              		.file	"Arduino_I2C.cpp"
  15              		.text
  16              	.Ltext0:
  17              		.cfi_sections	.debug_frame
  18              		.section	.text._ZN5PrintC2Ev,"axG",%progbits,_ZN5PrintC5Ev,comdat
  19              		.align	2
  20              		.weak	_ZN5PrintC2Ev
  21              		.thumb
  22              		.thumb_func
  23              		.type	_ZN5PrintC2Ev, %function
  24              	_ZN5PrintC2Ev:
  25              		.fnstart
  26              	.LFB116:
  27              		.file 1 ".\\core/Print.h"
   1:.\core/Print.h **** /*
   2:.\core/Print.h ****   Print.h - Base class that provides print() and println()
   3:.\core/Print.h ****   Copyright (c) 2008 David A. Mellis.  All right reserved.
   4:.\core/Print.h **** 
   5:.\core/Print.h ****   This library is free software; you can redistribute it and/or
   6:.\core/Print.h ****   modify it under the terms of the GNU Lesser General Public
   7:.\core/Print.h ****   License as published by the Free Software Foundation; either
   8:.\core/Print.h ****   version 2.1 of the License, or (at your option) any later version.
   9:.\core/Print.h **** 
  10:.\core/Print.h ****   This library is distributed in the hope that it will be useful,
  11:.\core/Print.h ****   but WITHOUT ANY WARRANTY; without even the implied warranty of
  12:.\core/Print.h ****   MERCHANTABILITY or FITNESS FOR A PARTICULAR PURPOSE.  See the GNU
  13:.\core/Print.h ****   Lesser General Public License for more details.
  14:.\core/Print.h **** 
  15:.\core/Print.h ****   You should have received a copy of the GNU Lesser General Public
  16:.\core/Print.h ****   License along with this library; if not, write to the Free Software
  17:.\core/Print.h ****   Foundation, Inc., 51 Franklin St, Fifth Floor, Boston, MA  02110-1301  USA
  18:.\core/Print.h **** */
  19:.\core/Print.h **** 
  20:.\core/Print.h **** #ifndef Print_h
  21:.\core/Print.h **** #define Print_h
  22:.\core/Print.h **** 
  23:.\core/Print.h **** #include <inttypes.h>
  24:.\core/Print.h **** #include <stdio.h> // for size_t
  25:.\core/Print.h **** 
  26:.\core/Print.h **** #include "WString.h"
  27:.\core/Print.h **** #include "Printable.h"
  28:.\core/Print.h **** 
  29:.\core/Print.h **** #define DEC 10
  30:.\core/Print.h **** #define HEX 16
ARM GAS  C:\Users\Bruger\AppData\Local\Temp\cc6o6Inw.s 			page 2


  31:.\core/Print.h **** #define OCT 8
  32:.\core/Print.h **** #define BIN 2
  33:.\core/Print.h **** 
  34:.\core/Print.h **** class Print
  35:.\core/Print.h **** {
  36:.\core/Print.h ****   private:
  37:.\core/Print.h ****     int write_error;
  38:.\core/Print.h ****     size_t printNumber(unsigned long, uint8_t);
  39:.\core/Print.h ****     size_t printFloat(double, uint8_t);
  40:.\core/Print.h ****   protected:
  41:.\core/Print.h ****     void setWriteError(int err = 1) { write_error = err; }
  42:.\core/Print.h ****   public:
  43:.\core/Print.h ****     Print() : write_error(0) {}
  28              		.loc 1 43 0
  29              		.cfi_startproc
  30              		@ args = 0, pretend = 0, frame = 8
  31              		@ frame_needed = 1, uses_anonymous_args = 0
  32              		@ link register save eliminated.
  33 0000 80B4     		push	{r7}
  34              		.cfi_def_cfa_offset 4
  35              		.cfi_offset 7, -4
  36 0002 83B0     		sub	sp, sp, #12
  37              		.cfi_def_cfa_offset 16
  38 0004 00AF     		add	r7, sp, #0
  39              		.cfi_def_cfa_register 7
  40 0006 7860     		str	r0, [r7, #4]
  41              	.LBB2:
  42              		.loc 1 43 0
  43 0008 7B68     		ldr	r3, [r7, #4]
  44 000a 064A     		ldr	r2, .L4
  45 000c 1A60     		str	r2, [r3]
  46 000e 7B68     		ldr	r3, [r7, #4]
  47 0010 0022     		movs	r2, #0
  48 0012 5A60     		str	r2, [r3, #4]
  49              	.LBE2:
  50 0014 7B68     		ldr	r3, [r7, #4]
  51 0016 1846     		mov	r0, r3
  52 0018 0C37     		adds	r7, r7, #12
  53              		.cfi_def_cfa_offset 4
  54 001a BD46     		mov	sp, r7
  55              		.cfi_def_cfa_register 13
  56              		@ sp needed
  57 001c 5DF8047B 		ldr	r7, [sp], #4
  58              		.cfi_restore 7
  59              		.cfi_def_cfa_offset 0
  60 0020 7047     		bx	lr
  61              	.L5:
  62 0022 00BF     		.align	2
  63              	.L4:
  64 0024 08000000 		.word	_ZTV5Print+8
  65              		.cfi_endproc
  66              	.LFE116:
  67              		.cantunwind
  68              		.fnend
  69              		.size	_ZN5PrintC2Ev, .-_ZN5PrintC2Ev
  70              		.weak	_ZN5PrintC1Ev
  71              		.thumb_set _ZN5PrintC1Ev,_ZN5PrintC2Ev
ARM GAS  C:\Users\Bruger\AppData\Local\Temp\cc6o6Inw.s 			page 3


  72              		.section	.text._ZN5PrintD2Ev,"axG",%progbits,_ZN5PrintD5Ev,comdat
  73              		.align	2
  74              		.weak	_ZN5PrintD2Ev
  75              		.thumb
  76              		.thumb_func
  77              		.type	_ZN5PrintD2Ev, %function
  78              	_ZN5PrintD2Ev:
  79              		.fnstart
  80              	.LFB119:
  44:.\core/Print.h ****     ~Print(){}
  81              		.loc 1 44 0
  82              		.cfi_startproc
  83              		@ args = 0, pretend = 0, frame = 8
  84              		@ frame_needed = 1, uses_anonymous_args = 0
  85              		@ link register save eliminated.
  86 0000 80B4     		push	{r7}
  87              		.cfi_def_cfa_offset 4
  88              		.cfi_offset 7, -4
  89 0002 83B0     		sub	sp, sp, #12
  90              		.cfi_def_cfa_offset 16
  91 0004 00AF     		add	r7, sp, #0
  92              		.cfi_def_cfa_register 7
  93 0006 7860     		str	r0, [r7, #4]
  94              	.LBB3:
  95              		.loc 1 44 0
  96 0008 7B68     		ldr	r3, [r7, #4]
  97 000a 044A     		ldr	r2, .L9
  98 000c 1A60     		str	r2, [r3]
  99              	.LBE3:
 100 000e 7B68     		ldr	r3, [r7, #4]
 101 0010 1846     		mov	r0, r3
 102 0012 0C37     		adds	r7, r7, #12
 103              		.cfi_def_cfa_offset 4
 104 0014 BD46     		mov	sp, r7
 105              		.cfi_def_cfa_register 13
 106              		@ sp needed
 107 0016 5DF8047B 		ldr	r7, [sp], #4
 108              		.cfi_restore 7
 109              		.cfi_def_cfa_offset 0
 110 001a 7047     		bx	lr
 111              	.L10:
 112              		.align	2
 113              	.L9:
 114 001c 08000000 		.word	_ZTV5Print+8
 115              		.cfi_endproc
 116              	.LFE119:
 117              		.cantunwind
 118              		.fnend
 119              		.size	_ZN5PrintD2Ev, .-_ZN5PrintD2Ev
 120              		.weak	_ZN5PrintD1Ev
 121              		.thumb_set _ZN5PrintD1Ev,_ZN5PrintD2Ev
 122              		.section	.text._ZN6StreamD2Ev,"axG",%progbits,_ZN6StreamD5Ev,comdat
 123              		.align	2
 124              		.weak	_ZN6StreamD2Ev
 125              		.thumb
 126              		.thumb_func
 127              		.type	_ZN6StreamD2Ev, %function
ARM GAS  C:\Users\Bruger\AppData\Local\Temp\cc6o6Inw.s 			page 4


 128              	_ZN6StreamD2Ev:
 129              		.fnstart
 130              	.LFB126:
 131              		.file 2 ".\\core/Stream.h"
   1:.\core/Stream.h **** /*
   2:.\core/Stream.h ****   Stream.h - base class for character-based streams.
   3:.\core/Stream.h ****   Copyright (c) 2010 David A. Mellis.  All right reserved.
   4:.\core/Stream.h **** 
   5:.\core/Stream.h ****   This library is free software; you can redistribute it and/or
   6:.\core/Stream.h ****   modify it under the terms of the GNU Lesser General Public
   7:.\core/Stream.h ****   License as published by the Free Software Foundation; either
   8:.\core/Stream.h ****   version 2.1 of the License, or (at your option) any later version.
   9:.\core/Stream.h **** 
  10:.\core/Stream.h ****   This library is distributed in the hope that it will be useful,
  11:.\core/Stream.h ****   but WITHOUT ANY WARRANTY; without even the implied warranty of
  12:.\core/Stream.h ****   MERCHANTABILITY or FITNESS FOR A PARTICULAR PURPOSE.  See the GNU
  13:.\core/Stream.h ****   Lesser General Public License for more details.
  14:.\core/Stream.h **** 
  15:.\core/Stream.h ****   You should have received a copy of the GNU Lesser General Public
  16:.\core/Stream.h ****   License along with this library; if not, write to the Free Software
  17:.\core/Stream.h ****   Foundation, Inc., 51 Franklin St, Fifth Floor, Boston, MA  02110-1301  USA
  18:.\core/Stream.h **** 
  19:.\core/Stream.h ****   parsing functions based on TextFinder library by Michael Margolis
  20:.\core/Stream.h **** */
  21:.\core/Stream.h **** 
  22:.\core/Stream.h **** #ifndef Stream_h
  23:.\core/Stream.h **** #define Stream_h
  24:.\core/Stream.h **** 
  25:.\core/Stream.h **** #include <inttypes.h>
  26:.\core/Stream.h **** #include "Print.h"
  27:.\core/Stream.h **** 
  28:.\core/Stream.h **** // compatability macros for testing
  29:.\core/Stream.h **** /*
  30:.\core/Stream.h **** #define   getInt()            parseInt()
  31:.\core/Stream.h **** #define   getInt(skipChar)    parseInt(skipchar)
  32:.\core/Stream.h **** #define   getFloat()          parseFloat()
  33:.\core/Stream.h **** #define   getFloat(skipChar)  parseFloat(skipChar)
  34:.\core/Stream.h **** #define   getString( pre_string, post_string, buffer, length)
  35:.\core/Stream.h **** readBytesBetween( pre_string, terminator, buffer, length)
  36:.\core/Stream.h **** */
  37:.\core/Stream.h **** 
  38:.\core/Stream.h **** class Stream : public Print
  39:.\core/Stream.h **** {
  40:.\core/Stream.h ****   protected:
  41:.\core/Stream.h ****     unsigned long _timeout;      // number of milliseconds to wait for the next char before abortin
  42:.\core/Stream.h ****     unsigned long _startMillis;  // used for timeout measurement
  43:.\core/Stream.h ****     int timedRead();    // private method to read stream with timeout
  44:.\core/Stream.h ****     int timedPeek();    // private method to peek stream with timeout
  45:.\core/Stream.h ****     int peekNextDigit(); // returns the next numeric digit in the stream or -1 if timeout
  46:.\core/Stream.h **** 
  47:.\core/Stream.h ****   public:
  48:.\core/Stream.h ****     ~Stream(){}
 132              		.loc 2 48 0
 133              		.cfi_startproc
 134              		@ args = 0, pretend = 0, frame = 8
 135              		@ frame_needed = 1, uses_anonymous_args = 0
 136 0000 80B5     		push	{r7, lr}
ARM GAS  C:\Users\Bruger\AppData\Local\Temp\cc6o6Inw.s 			page 5


 137              		.cfi_def_cfa_offset 8
 138              		.cfi_offset 7, -8
 139              		.cfi_offset 14, -4
 140 0002 82B0     		sub	sp, sp, #8
 141              		.cfi_def_cfa_offset 16
 142 0004 00AF     		add	r7, sp, #0
 143              		.cfi_def_cfa_register 7
 144 0006 7860     		str	r0, [r7, #4]
 145              	.LBB4:
 146              		.loc 2 48 0
 147 0008 7B68     		ldr	r3, [r7, #4]
 148 000a 054A     		ldr	r2, .L14
 149 000c 1A60     		str	r2, [r3]
 150 000e 7B68     		ldr	r3, [r7, #4]
 151 0010 1846     		mov	r0, r3
 152 0012 FFF7FEFF 		bl	_ZN5PrintD2Ev
 153              	.LBE4:
 154 0016 7B68     		ldr	r3, [r7, #4]
 155 0018 1846     		mov	r0, r3
 156 001a 0837     		adds	r7, r7, #8
 157              		.cfi_def_cfa_offset 8
 158 001c BD46     		mov	sp, r7
 159              		.cfi_def_cfa_register 13
 160              		@ sp needed
 161 001e 80BD     		pop	{r7, pc}
 162              	.L15:
 163              		.align	2
 164              	.L14:
 165 0020 08000000 		.word	_ZTV6Stream+8
 166              		.cfi_endproc
 167              	.LFE126:
 168              		.cantunwind
 169              		.fnend
 170              		.size	_ZN6StreamD2Ev, .-_ZN6StreamD2Ev
 171              		.weak	_ZN6StreamD1Ev
 172              		.thumb_set _ZN6StreamD1Ev,_ZN6StreamD2Ev
 173              		.section	.text._ZN6StreamC2Ev,"axG",%progbits,_ZN6StreamC5Ev,comdat
 174              		.align	2
 175              		.weak	_ZN6StreamC2Ev
 176              		.thumb
 177              		.thumb_func
 178              		.type	_ZN6StreamC2Ev, %function
 179              	_ZN6StreamC2Ev:
 180              		.fnstart
 181              	.LFB129:
  49:.\core/Stream.h ****     virtual int available() = 0;
  50:.\core/Stream.h ****     virtual int read() = 0;
  51:.\core/Stream.h ****     virtual int peek() = 0;
  52:.\core/Stream.h ****     virtual void flush() = 0;
  53:.\core/Stream.h **** 
  54:.\core/Stream.h ****     Stream() {_timeout=1000;}
 182              		.loc 2 54 0
 183              		.cfi_startproc
 184              		@ args = 0, pretend = 0, frame = 8
 185              		@ frame_needed = 1, uses_anonymous_args = 0
 186 0000 80B5     		push	{r7, lr}
 187              		.cfi_def_cfa_offset 8
ARM GAS  C:\Users\Bruger\AppData\Local\Temp\cc6o6Inw.s 			page 6


 188              		.cfi_offset 7, -8
 189              		.cfi_offset 14, -4
 190 0002 82B0     		sub	sp, sp, #8
 191              		.cfi_def_cfa_offset 16
 192 0004 00AF     		add	r7, sp, #0
 193              		.cfi_def_cfa_register 7
 194 0006 7860     		str	r0, [r7, #4]
 195              	.LBB5:
 196              		.loc 2 54 0
 197 0008 7B68     		ldr	r3, [r7, #4]
 198 000a 1846     		mov	r0, r3
 199 000c FFF7FEFF 		bl	_ZN5PrintC2Ev
 200 0010 7B68     		ldr	r3, [r7, #4]
 201 0012 054A     		ldr	r2, .L19
 202 0014 1A60     		str	r2, [r3]
 203 0016 7B68     		ldr	r3, [r7, #4]
 204 0018 4FF47A72 		mov	r2, #1000
 205 001c 9A60     		str	r2, [r3, #8]
 206              	.LBE5:
 207 001e 7B68     		ldr	r3, [r7, #4]
 208 0020 1846     		mov	r0, r3
 209 0022 0837     		adds	r7, r7, #8
 210              		.cfi_def_cfa_offset 8
 211 0024 BD46     		mov	sp, r7
 212              		.cfi_def_cfa_register 13
 213              		@ sp needed
 214 0026 80BD     		pop	{r7, pc}
 215              	.L20:
 216              		.align	2
 217              	.L19:
 218 0028 08000000 		.word	_ZTV6Stream+8
 219              		.cfi_endproc
 220              	.LFE129:
 221              		.cantunwind
 222              		.fnend
 223              		.size	_ZN6StreamC2Ev, .-_ZN6StreamC2Ev
 224              		.weak	_ZN6StreamC1Ev
 225              		.thumb_set _ZN6StreamC1Ev,_ZN6StreamC2Ev
 226              		.section	.text._ZN7TwoWireC2Ev,"axG",%progbits,_ZN7TwoWireC5Ev,comdat
 227              		.align	2
 228              		.weak	_ZN7TwoWireC2Ev
 229              		.thumb
 230              		.thumb_func
 231              		.type	_ZN7TwoWireC2Ev, %function
 232              	_ZN7TwoWireC2Ev:
 233              		.fnstart
 234              	.LFB138:
 235              		.file 3 "Libraries\\Wire\\Arduino_I2C.h"
   1:Libraries\Wire/Arduino_I2C.h **** #ifndef _arduino_i2c_h
   2:Libraries\Wire/Arduino_I2C.h **** #define _arduino_i2c_h
   3:Libraries\Wire/Arduino_I2C.h ****   
   4:Libraries\Wire/Arduino_I2C.h **** extern "C" {
   5:Libraries\Wire/Arduino_I2C.h **** #include <Project.h>
   6:Libraries\Wire/Arduino_I2C.h **** }
   7:Libraries\Wire/Arduino_I2C.h **** #include "Stream.h"
   8:Libraries\Wire/Arduino_I2C.h ****   
   9:Libraries\Wire/Arduino_I2C.h **** enum XFER_MODE {COMPLETE, REPEATED_START, NO_STOP};
ARM GAS  C:\Users\Bruger\AppData\Local\Temp\cc6o6Inw.s 			page 7


  10:Libraries\Wire/Arduino_I2C.h **** 
  11:Libraries\Wire/Arduino_I2C.h **** class TwoWire;
  12:Libraries\Wire/Arduino_I2C.h **** 
  13:Libraries\Wire/Arduino_I2C.h **** extern TwoWire Wire;
  14:Libraries\Wire/Arduino_I2C.h **** 
  15:Libraries\Wire/Arduino_I2C.h **** class TwoWire : public Stream
  16:Libraries\Wire/Arduino_I2C.h **** {
  17:Libraries\Wire/Arduino_I2C.h ****   public:
  18:Libraries\Wire/Arduino_I2C.h ****     TwoWire(){};
 236              		.loc 3 18 0
 237              		.cfi_startproc
 238              		@ args = 0, pretend = 0, frame = 8
 239              		@ frame_needed = 1, uses_anonymous_args = 0
 240 0000 80B5     		push	{r7, lr}
 241              		.cfi_def_cfa_offset 8
 242              		.cfi_offset 7, -8
 243              		.cfi_offset 14, -4
 244 0002 82B0     		sub	sp, sp, #8
 245              		.cfi_def_cfa_offset 16
 246 0004 00AF     		add	r7, sp, #0
 247              		.cfi_def_cfa_register 7
 248 0006 7860     		str	r0, [r7, #4]
 249              	.LBB6:
 250              		.loc 3 18 0
 251 0008 7B68     		ldr	r3, [r7, #4]
 252 000a 1846     		mov	r0, r3
 253 000c FFF7FEFF 		bl	_ZN6StreamC2Ev
 254 0010 7B68     		ldr	r3, [r7, #4]
 255 0012 034A     		ldr	r2, .L24
 256 0014 1A60     		str	r2, [r3]
 257              	.LBE6:
 258 0016 7B68     		ldr	r3, [r7, #4]
 259 0018 1846     		mov	r0, r3
 260 001a 0837     		adds	r7, r7, #8
 261              		.cfi_def_cfa_offset 8
 262 001c BD46     		mov	sp, r7
 263              		.cfi_def_cfa_register 13
 264              		@ sp needed
 265 001e 80BD     		pop	{r7, pc}
 266              	.L25:
 267              		.align	2
 268              	.L24:
 269 0020 08000000 		.word	_ZTV7TwoWire+8
 270              		.cfi_endproc
 271              	.LFE138:
 272              		.cantunwind
 273              		.fnend
 274              		.size	_ZN7TwoWireC2Ev, .-_ZN7TwoWireC2Ev
 275              		.weak	_ZN7TwoWireC1Ev
 276              		.thumb_set _ZN7TwoWireC1Ev,_ZN7TwoWireC2Ev
 277              		.section	.text._ZN7TwoWireD2Ev,"axG",%progbits,_ZN7TwoWireD5Ev,comdat
 278              		.align	2
 279              		.weak	_ZN7TwoWireD2Ev
 280              		.thumb
 281              		.thumb_func
 282              		.type	_ZN7TwoWireD2Ev, %function
 283              	_ZN7TwoWireD2Ev:
ARM GAS  C:\Users\Bruger\AppData\Local\Temp\cc6o6Inw.s 			page 8


 284              		.fnstart
 285              	.LFB145:
  15:Libraries\Wire/Arduino_I2C.h **** {
 286              		.loc 3 15 0
 287              		.cfi_startproc
 288              		@ args = 0, pretend = 0, frame = 8
 289              		@ frame_needed = 1, uses_anonymous_args = 0
 290 0000 80B5     		push	{r7, lr}
 291              		.cfi_def_cfa_offset 8
 292              		.cfi_offset 7, -8
 293              		.cfi_offset 14, -4
 294 0002 82B0     		sub	sp, sp, #8
 295              		.cfi_def_cfa_offset 16
 296 0004 00AF     		add	r7, sp, #0
 297              		.cfi_def_cfa_register 7
 298 0006 7860     		str	r0, [r7, #4]
 299              	.LBB7:
  15:Libraries\Wire/Arduino_I2C.h **** {
 300              		.loc 3 15 0
 301 0008 7B68     		ldr	r3, [r7, #4]
 302 000a 054A     		ldr	r2, .L29
 303 000c 1A60     		str	r2, [r3]
 304 000e 7B68     		ldr	r3, [r7, #4]
 305 0010 1846     		mov	r0, r3
 306 0012 FFF7FEFF 		bl	_ZN6StreamD2Ev
 307              	.LBE7:
 308 0016 7B68     		ldr	r3, [r7, #4]
 309 0018 1846     		mov	r0, r3
 310 001a 0837     		adds	r7, r7, #8
 311              		.cfi_def_cfa_offset 8
 312 001c BD46     		mov	sp, r7
 313              		.cfi_def_cfa_register 13
 314              		@ sp needed
 315 001e 80BD     		pop	{r7, pc}
 316              	.L30:
 317              		.align	2
 318              	.L29:
 319 0020 08000000 		.word	_ZTV7TwoWire+8
 320              		.cfi_endproc
 321              	.LFE145:
 322              		.cantunwind
 323              		.fnend
 324              		.size	_ZN7TwoWireD2Ev, .-_ZN7TwoWireD2Ev
 325              		.weak	_ZN7TwoWireD1Ev
 326              		.thumb_set _ZN7TwoWireD1Ev,_ZN7TwoWireD2Ev
 327              		.global	Wire
 328              		.bss
 329              		.align	2
 330              		.type	Wire, %object
 331              		.size	Wire, 188
 332              	Wire:
 333 0000 00000000 		.space	188
 333      00000000 
 333      00000000 
 333      00000000 
 333      00000000 
 334              		.section	.text._ZN7TwoWire5beginEv,"ax",%progbits
ARM GAS  C:\Users\Bruger\AppData\Local\Temp\cc6o6Inw.s 			page 9


 335              		.align	2
 336              		.global	_ZN7TwoWire5beginEv
 337              		.thumb
 338              		.thumb_func
 339              		.type	_ZN7TwoWire5beginEv, %function
 340              	_ZN7TwoWire5beginEv:
 341              		.fnstart
 342              	.LFB156:
 343              		.file 4 "Libraries\\Wire\\Arduino_I2C.cpp"
   1:Libraries\Wire/Arduino_I2C.cpp **** /* ========================================
   2:Libraries\Wire/Arduino_I2C.cpp ****  *
   3:Libraries\Wire/Arduino_I2C.cpp ****  * Copyright YOUR COMPANY, THE YEAR
   4:Libraries\Wire/Arduino_I2C.cpp ****  * All Rights Reserved
   5:Libraries\Wire/Arduino_I2C.cpp ****  * UNPUBLISHED, LICENSED SOFTWARE.
   6:Libraries\Wire/Arduino_I2C.cpp ****  *
   7:Libraries\Wire/Arduino_I2C.cpp ****  * CONFIDENTIAL AND PROPRIETARY INFORMATION
   8:Libraries\Wire/Arduino_I2C.cpp ****  * WHICH IS THE PROPERTY OF your company.
   9:Libraries\Wire/Arduino_I2C.cpp ****  *
  10:Libraries\Wire/Arduino_I2C.cpp ****  * ========================================
  11:Libraries\Wire/Arduino_I2C.cpp **** */
  12:Libraries\Wire/Arduino_I2C.cpp **** 
  13:Libraries\Wire/Arduino_I2C.cpp **** 
  14:Libraries\Wire/Arduino_I2C.cpp **** extern "C" {
  15:Libraries\Wire/Arduino_I2C.cpp **** #include <Project.h>
  16:Libraries\Wire/Arduino_I2C.cpp **** } 
  17:Libraries\Wire/Arduino_I2C.cpp **** 
  18:Libraries\Wire/Arduino_I2C.cpp **** #include "stdint.h"
  19:Libraries\Wire/Arduino_I2C.cpp **** #include "Arduino_I2C.h"
  20:Libraries\Wire/Arduino_I2C.cpp **** #include "Arduino_Pins.h"
  21:Libraries\Wire/Arduino_I2C.cpp **** 
  22:Libraries\Wire/Arduino_I2C.cpp **** #define BUS_CLOCK_RATE 24000000
  23:Libraries\Wire/Arduino_I2C.cpp **** 
  24:Libraries\Wire/Arduino_I2C.cpp **** TwoWire Wire = TwoWire();
  25:Libraries\Wire/Arduino_I2C.cpp **** 
  26:Libraries\Wire/Arduino_I2C.cpp **** void TwoWire::begin()
  27:Libraries\Wire/Arduino_I2C.cpp **** {
 344              		.loc 4 27 0
 345              		.cfi_startproc
 346              		@ args = 0, pretend = 0, frame = 8
 347              		@ frame_needed = 1, uses_anonymous_args = 0
 348 0000 80B5     		push	{r7, lr}
 349              		.save {r7, lr}
 350              		.cfi_def_cfa_offset 8
 351              		.cfi_offset 7, -8
 352              		.cfi_offset 14, -4
 353              		.pad #8
 354 0002 82B0     		sub	sp, sp, #8
 355              		.cfi_def_cfa_offset 16
 356              		.setfp r7, sp, #0
 357 0004 00AF     		add	r7, sp, #0
 358              		.cfi_def_cfa_register 7
 359 0006 7860     		str	r0, [r7, #4]
  28:Libraries\Wire/Arduino_I2C.cpp **** #if defined (CY8CKIT059)
  29:Libraries\Wire/Arduino_I2C.cpp ****     pinMode(D22, PERIPHERAL_OD);
  30:Libraries\Wire/Arduino_I2C.cpp ****     pinMode(D23, PERIPHERAL_OD);
  31:Libraries\Wire/Arduino_I2C.cpp **** #else
  32:Libraries\Wire/Arduino_I2C.cpp ****     pinMode(A4, PERIPHERAL_OD);
ARM GAS  C:\Users\Bruger\AppData\Local\Temp\cc6o6Inw.s 			page 10


 360              		.loc 4 32 0
 361 0008 0748     		ldr	r0, .L32
 362 000a 0621     		movs	r1, #6
 363 000c FFF7FEFF 		bl	_Z7pinModem8PIN_MODE
  33:Libraries\Wire/Arduino_I2C.cpp ****     pinMode(A5, PERIPHERAL_OD);
 364              		.loc 4 33 0
 365 0010 0648     		ldr	r0, .L32+4
 366 0012 0621     		movs	r1, #6
 367 0014 FFF7FEFF 		bl	_Z7pinModem8PIN_MODE
  34:Libraries\Wire/Arduino_I2C.cpp **** #endif
  35:Libraries\Wire/Arduino_I2C.cpp ****     I2C_Enable_Write(0x01);
 368              		.loc 4 35 0
 369 0018 0120     		movs	r0, #1
 370 001a FFF7FEFF 		bl	I2C_Enable_Write
  36:Libraries\Wire/Arduino_I2C.cpp ****     I2C_Start();
 371              		.loc 4 36 0
 372 001e FFF7FEFF 		bl	I2C_Start
  37:Libraries\Wire/Arduino_I2C.cpp **** }
 373              		.loc 4 37 0
 374 0022 0837     		adds	r7, r7, #8
 375              		.cfi_def_cfa_offset 8
 376 0024 BD46     		mov	sp, r7
 377              		.cfi_def_cfa_register 13
 378              		@ sp needed
 379 0026 80BD     		pop	{r7, pc}
 380              	.L33:
 381              		.align	2
 382              	.L32:
 383 0028 04500040 		.word	1073762308
 384 002c 05500040 		.word	1073762309
 385              		.cfi_endproc
 386              	.LFE156:
 387              		.fnend
 388              		.size	_ZN7TwoWire5beginEv, .-_ZN7TwoWire5beginEv
 389              		.section	.text._ZN7TwoWire8setClockEm,"ax",%progbits
 390              		.align	2
 391              		.global	_ZN7TwoWire8setClockEm
 392              		.thumb
 393              		.thumb_func
 394              		.type	_ZN7TwoWire8setClockEm, %function
 395              	_ZN7TwoWire8setClockEm:
 396              		.fnstart
 397              	.LFB157:
  38:Libraries\Wire/Arduino_I2C.cpp **** 
  39:Libraries\Wire/Arduino_I2C.cpp **** void TwoWire::setClock(uint32_t newClockRate)
  40:Libraries\Wire/Arduino_I2C.cpp **** {
 398              		.loc 4 40 0
 399              		.cfi_startproc
 400              		@ args = 0, pretend = 0, frame = 16
 401              		@ frame_needed = 1, uses_anonymous_args = 0
 402              		@ link register save eliminated.
 403 0000 80B4     		push	{r7}
 404              		.cfi_def_cfa_offset 4
 405              		.cfi_offset 7, -4
 406 0002 85B0     		sub	sp, sp, #20
 407              		.cfi_def_cfa_offset 24
 408 0004 00AF     		add	r7, sp, #0
ARM GAS  C:\Users\Bruger\AppData\Local\Temp\cc6o6Inw.s 			page 11


 409              		.cfi_def_cfa_register 7
 410 0006 7860     		str	r0, [r7, #4]
 411 0008 3960     		str	r1, [r7]
 412              	.LBB8:
  41:Libraries\Wire/Arduino_I2C.cpp ****   uint32_t clockDivider = (1/BUS_CLOCK_RATE)*newClockRate;
 413              		.loc 4 41 0
 414 000a 0023     		movs	r3, #0
 415 000c FB60     		str	r3, [r7, #12]
  42:Libraries\Wire/Arduino_I2C.cpp ****   twiClock = newClockRate;
 416              		.loc 4 42 0
 417 000e 7B68     		ldr	r3, [r7, #4]
 418 0010 3A68     		ldr	r2, [r7]
 419 0012 1A61     		str	r2, [r3, #16]
  43:Libraries\Wire/Arduino_I2C.cpp ****   *(uint8_t*)(CYREG_I2C_CLK_DIV1) = (uint8_t)clockDivider;
 420              		.loc 4 43 0
 421 0014 084B     		ldr	r3, .L35
 422 0016 FA68     		ldr	r2, [r7, #12]
 423 0018 D2B2     		uxtb	r2, r2
 424 001a 1A70     		strb	r2, [r3]
  44:Libraries\Wire/Arduino_I2C.cpp ****   *(uint8_t*)(CYREG_I2C_CLK_DIV1) = (uint8_t)((clockDivider>>8)&0x02);
 425              		.loc 4 44 0
 426 001c 064A     		ldr	r2, .L35
 427 001e FB68     		ldr	r3, [r7, #12]
 428 0020 1B0A     		lsrs	r3, r3, #8
 429 0022 DBB2     		uxtb	r3, r3
 430 0024 03F00203 		and	r3, r3, #2
 431 0028 DBB2     		uxtb	r3, r3
 432 002a 1370     		strb	r3, [r2]
 433              	.LBE8:
  45:Libraries\Wire/Arduino_I2C.cpp **** 
  46:Libraries\Wire/Arduino_I2C.cpp **** }
 434              		.loc 4 46 0
 435 002c 1437     		adds	r7, r7, #20
 436              		.cfi_def_cfa_offset 4
 437 002e BD46     		mov	sp, r7
 438              		.cfi_def_cfa_register 13
 439              		@ sp needed
 440 0030 5DF8047B 		ldr	r7, [sp], #4
 441              		.cfi_restore 7
 442              		.cfi_def_cfa_offset 0
 443 0034 7047     		bx	lr
 444              	.L36:
 445 0036 00BF     		.align	2
 446              	.L35:
 447 0038 DB490040 		.word	1073760731
 448              		.cfi_endproc
 449              	.LFE157:
 450              		.cantunwind
 451              		.fnend
 452              		.size	_ZN7TwoWire8setClockEm, .-_ZN7TwoWire8setClockEm
 453              		.section	.text._ZN7TwoWire17beginTransmissionEh,"ax",%progbits
 454              		.align	2
 455              		.global	_ZN7TwoWire17beginTransmissionEh
 456              		.thumb
 457              		.thumb_func
 458              		.type	_ZN7TwoWire17beginTransmissionEh, %function
 459              	_ZN7TwoWire17beginTransmissionEh:
ARM GAS  C:\Users\Bruger\AppData\Local\Temp\cc6o6Inw.s 			page 12


 460              		.fnstart
 461              	.LFB158:
  47:Libraries\Wire/Arduino_I2C.cpp **** void TwoWire::beginTransmission(uint8_t address)
  48:Libraries\Wire/Arduino_I2C.cpp **** {
 462              		.loc 4 48 0
 463              		.cfi_startproc
 464              		@ args = 0, pretend = 0, frame = 8
 465              		@ frame_needed = 1, uses_anonymous_args = 0
 466              		@ link register save eliminated.
 467 0000 80B4     		push	{r7}
 468              		.cfi_def_cfa_offset 4
 469              		.cfi_offset 7, -4
 470 0002 83B0     		sub	sp, sp, #12
 471              		.cfi_def_cfa_offset 16
 472 0004 00AF     		add	r7, sp, #0
 473              		.cfi_def_cfa_register 7
 474 0006 7860     		str	r0, [r7, #4]
 475 0008 0B46     		mov	r3, r1
 476 000a FB70     		strb	r3, [r7, #3]
  49:Libraries\Wire/Arduino_I2C.cpp ****     slaveAddress = address;
 477              		.loc 4 49 0
 478 000c 7B68     		ldr	r3, [r7, #4]
 479 000e FA78     		ldrb	r2, [r7, #3]
 480 0010 83F8B620 		strb	r2, [r3, #182]
  50:Libraries\Wire/Arduino_I2C.cpp **** }
 481              		.loc 4 50 0
 482 0014 0C37     		adds	r7, r7, #12
 483              		.cfi_def_cfa_offset 4
 484 0016 BD46     		mov	sp, r7
 485              		.cfi_def_cfa_register 13
 486              		@ sp needed
 487 0018 5DF8047B 		ldr	r7, [sp], #4
 488              		.cfi_restore 7
 489              		.cfi_def_cfa_offset 0
 490 001c 7047     		bx	lr
 491              		.cfi_endproc
 492              	.LFE158:
 493              		.cantunwind
 494              		.fnend
 495              		.size	_ZN7TwoWire17beginTransmissionEh, .-_ZN7TwoWire17beginTransmissionEh
 496 001e 00BF     		.section	.text._ZN7TwoWire17beginTransmissionEi,"ax",%progbits
 497              		.align	2
 498              		.global	_ZN7TwoWire17beginTransmissionEi
 499              		.thumb
 500              		.thumb_func
 501              		.type	_ZN7TwoWire17beginTransmissionEi, %function
 502              	_ZN7TwoWire17beginTransmissionEi:
 503              		.fnstart
 504              	.LFB159:
  51:Libraries\Wire/Arduino_I2C.cpp **** 
  52:Libraries\Wire/Arduino_I2C.cpp **** void TwoWire::beginTransmission(int address)
  53:Libraries\Wire/Arduino_I2C.cpp **** {
 505              		.loc 4 53 0
 506              		.cfi_startproc
 507              		@ args = 0, pretend = 0, frame = 8
 508              		@ frame_needed = 1, uses_anonymous_args = 0
 509              		@ link register save eliminated.
ARM GAS  C:\Users\Bruger\AppData\Local\Temp\cc6o6Inw.s 			page 13


 510 0000 80B4     		push	{r7}
 511              		.cfi_def_cfa_offset 4
 512              		.cfi_offset 7, -4
 513 0002 83B0     		sub	sp, sp, #12
 514              		.cfi_def_cfa_offset 16
 515 0004 00AF     		add	r7, sp, #0
 516              		.cfi_def_cfa_register 7
 517 0006 7860     		str	r0, [r7, #4]
 518 0008 3960     		str	r1, [r7]
  54:Libraries\Wire/Arduino_I2C.cpp ****     slaveAddress = (uint8_t) address;
 519              		.loc 4 54 0
 520 000a 3B68     		ldr	r3, [r7]
 521 000c DAB2     		uxtb	r2, r3
 522 000e 7B68     		ldr	r3, [r7, #4]
 523 0010 83F8B620 		strb	r2, [r3, #182]
  55:Libraries\Wire/Arduino_I2C.cpp **** }
 524              		.loc 4 55 0
 525 0014 0C37     		adds	r7, r7, #12
 526              		.cfi_def_cfa_offset 4
 527 0016 BD46     		mov	sp, r7
 528              		.cfi_def_cfa_register 13
 529              		@ sp needed
 530 0018 5DF8047B 		ldr	r7, [sp], #4
 531              		.cfi_restore 7
 532              		.cfi_def_cfa_offset 0
 533 001c 7047     		bx	lr
 534              		.cfi_endproc
 535              	.LFE159:
 536              		.cantunwind
 537              		.fnend
 538              		.size	_ZN7TwoWire17beginTransmissionEi, .-_ZN7TwoWire17beginTransmissionEi
 539 001e 00BF     		.section	.text._ZN7TwoWire15endTransmissionE9XFER_MODE,"ax",%progbits
 540              		.align	2
 541              		.global	_ZN7TwoWire15endTransmissionE9XFER_MODE
 542              		.thumb
 543              		.thumb_func
 544              		.type	_ZN7TwoWire15endTransmissionE9XFER_MODE, %function
 545              	_ZN7TwoWire15endTransmissionE9XFER_MODE:
 546              		.fnstart
 547              	.LFB160:
  56:Libraries\Wire/Arduino_I2C.cpp **** 
  57:Libraries\Wire/Arduino_I2C.cpp **** uint8_t TwoWire::endTransmission(enum XFER_MODE stop)
  58:Libraries\Wire/Arduino_I2C.cpp **** {
 548              		.loc 4 58 0
 549              		.cfi_startproc
 550              		@ args = 0, pretend = 0, frame = 8
 551              		@ frame_needed = 1, uses_anonymous_args = 0
 552 0000 80B5     		push	{r7, lr}
 553              		.save {r7, lr}
 554              		.cfi_def_cfa_offset 8
 555              		.cfi_offset 7, -8
 556              		.cfi_offset 14, -4
 557              		.pad #8
 558 0002 82B0     		sub	sp, sp, #8
 559              		.cfi_def_cfa_offset 16
 560              		.setfp r7, sp, #0
 561 0004 00AF     		add	r7, sp, #0
ARM GAS  C:\Users\Bruger\AppData\Local\Temp\cc6o6Inw.s 			page 14


 562              		.cfi_def_cfa_register 7
 563 0006 7860     		str	r0, [r7, #4]
 564 0008 0B46     		mov	r3, r1
 565 000a FB70     		strb	r3, [r7, #3]
  59:Libraries\Wire/Arduino_I2C.cpp ****     I2C_MasterClearStatus();
 566              		.loc 4 59 0
 567 000c FFF7FEFF 		bl	I2C_MasterClearStatus
  60:Libraries\Wire/Arduino_I2C.cpp ****     
  61:Libraries\Wire/Arduino_I2C.cpp ****     if (stop == COMPLETE)
 568              		.loc 4 61 0
 569 0010 FB78     		ldrb	r3, [r7, #3]	@ zero_extendqisi2
 570 0012 002B     		cmp	r3, #0
 571 0014 0FD1     		bne	.L40
  62:Libraries\Wire/Arduino_I2C.cpp ****     {
  63:Libraries\Wire/Arduino_I2C.cpp ****         I2C_MasterWriteBuf(slaveAddress, i2cTXBuffer, i2cTXBufferSize, \
  64:Libraries\Wire/Arduino_I2C.cpp ****             I2C_MODE_COMPLETE_XFER);
 572              		.loc 4 64 0
 573 0016 7B68     		ldr	r3, [r7, #4]
 574 0018 93F8B610 		ldrb	r1, [r3, #182]	@ zero_extendqisi2
 575 001c 7B68     		ldr	r3, [r7, #4]
 576 001e 03F19402 		add	r2, r3, #148
 577 0022 7B68     		ldr	r3, [r7, #4]
 578 0024 93F8B530 		ldrb	r3, [r3, #181]	@ zero_extendqisi2
 579 0028 0846     		mov	r0, r1
 580 002a 1146     		mov	r1, r2
 581 002c 1A46     		mov	r2, r3
 582 002e 0023     		movs	r3, #0
 583 0030 FFF7FEFF 		bl	I2C_MasterWriteBuf
 584 0034 21E0     		b	.L41
 585              	.L40:
  65:Libraries\Wire/Arduino_I2C.cpp ****     }
  66:Libraries\Wire/Arduino_I2C.cpp ****     else if (stop == REPEATED_START)
 586              		.loc 4 66 0
 587 0036 FB78     		ldrb	r3, [r7, #3]	@ zero_extendqisi2
 588 0038 012B     		cmp	r3, #1
 589 003a 0FD1     		bne	.L42
  67:Libraries\Wire/Arduino_I2C.cpp ****     {
  68:Libraries\Wire/Arduino_I2C.cpp ****         I2C_MasterWriteBuf(slaveAddress, i2cTXBuffer, i2cTXBufferSize, \
  69:Libraries\Wire/Arduino_I2C.cpp ****             I2C_MODE_REPEAT_START);
 590              		.loc 4 69 0
 591 003c 7B68     		ldr	r3, [r7, #4]
 592 003e 93F8B610 		ldrb	r1, [r3, #182]	@ zero_extendqisi2
 593 0042 7B68     		ldr	r3, [r7, #4]
 594 0044 03F19402 		add	r2, r3, #148
 595 0048 7B68     		ldr	r3, [r7, #4]
 596 004a 93F8B530 		ldrb	r3, [r3, #181]	@ zero_extendqisi2
 597 004e 0846     		mov	r0, r1
 598 0050 1146     		mov	r1, r2
 599 0052 1A46     		mov	r2, r3
 600 0054 0123     		movs	r3, #1
 601 0056 FFF7FEFF 		bl	I2C_MasterWriteBuf
 602 005a 0EE0     		b	.L41
 603              	.L42:
  70:Libraries\Wire/Arduino_I2C.cpp ****     }
  71:Libraries\Wire/Arduino_I2C.cpp ****     else
  72:Libraries\Wire/Arduino_I2C.cpp ****     {
  73:Libraries\Wire/Arduino_I2C.cpp ****         I2C_MasterWriteBuf(slaveAddress, i2cTXBuffer, i2cTXBufferSize, \
ARM GAS  C:\Users\Bruger\AppData\Local\Temp\cc6o6Inw.s 			page 15


  74:Libraries\Wire/Arduino_I2C.cpp ****             I2C_MODE_NO_STOP);
 604              		.loc 4 74 0
 605 005c 7B68     		ldr	r3, [r7, #4]
 606 005e 93F8B610 		ldrb	r1, [r3, #182]	@ zero_extendqisi2
 607 0062 7B68     		ldr	r3, [r7, #4]
 608 0064 03F19402 		add	r2, r3, #148
 609 0068 7B68     		ldr	r3, [r7, #4]
 610 006a 93F8B530 		ldrb	r3, [r3, #181]	@ zero_extendqisi2
 611 006e 0846     		mov	r0, r1
 612 0070 1146     		mov	r1, r2
 613 0072 1A46     		mov	r2, r3
 614 0074 0223     		movs	r3, #2
 615 0076 FFF7FEFF 		bl	I2C_MasterWriteBuf
 616              	.L41:
  75:Libraries\Wire/Arduino_I2C.cpp ****     }
  76:Libraries\Wire/Arduino_I2C.cpp ****     
  77:Libraries\Wire/Arduino_I2C.cpp ****     while(0u != (I2C_MasterStatus() & I2C_MSTAT_XFER_INP));
 617              		.loc 4 77 0
 618 007a 00BF     		nop
 619              	.L43:
 620              		.loc 4 77 0 is_stmt 0 discriminator 1
 621 007c FFF7FEFF 		bl	I2C_MasterStatus
 622 0080 0346     		mov	r3, r0
 623 0082 03F00403 		and	r3, r3, #4
 624 0086 002B     		cmp	r3, #0
 625 0088 14BF     		ite	ne
 626 008a 0123     		movne	r3, #1
 627 008c 0023     		moveq	r3, #0
 628 008e DBB2     		uxtb	r3, r3
 629 0090 002B     		cmp	r3, #0
 630 0092 F3D1     		bne	.L43
  78:Libraries\Wire/Arduino_I2C.cpp ****     i2cTXBufferSize = 0;
 631              		.loc 4 78 0 is_stmt 1
 632 0094 7B68     		ldr	r3, [r7, #4]
 633 0096 0022     		movs	r2, #0
 634 0098 83F8B520 		strb	r2, [r3, #181]
  79:Libraries\Wire/Arduino_I2C.cpp ****     return 0;
 635              		.loc 4 79 0
 636 009c 0023     		movs	r3, #0
  80:Libraries\Wire/Arduino_I2C.cpp **** }
 637              		.loc 4 80 0
 638 009e 1846     		mov	r0, r3
 639 00a0 0837     		adds	r7, r7, #8
 640              		.cfi_def_cfa_offset 8
 641 00a2 BD46     		mov	sp, r7
 642              		.cfi_def_cfa_register 13
 643              		@ sp needed
 644 00a4 80BD     		pop	{r7, pc}
 645              		.cfi_endproc
 646              	.LFE160:
 647              		.fnend
 648              		.size	_ZN7TwoWire15endTransmissionE9XFER_MODE, .-_ZN7TwoWire15endTransmissionE9XFER_MODE
 649 00a6 00BF     		.section	.text._ZN7TwoWire15endTransmissionEv,"ax",%progbits
 650              		.align	2
 651              		.global	_ZN7TwoWire15endTransmissionEv
 652              		.thumb
 653              		.thumb_func
ARM GAS  C:\Users\Bruger\AppData\Local\Temp\cc6o6Inw.s 			page 16


 654              		.type	_ZN7TwoWire15endTransmissionEv, %function
 655              	_ZN7TwoWire15endTransmissionEv:
 656              		.fnstart
 657              	.LFB161:
  81:Libraries\Wire/Arduino_I2C.cpp **** 
  82:Libraries\Wire/Arduino_I2C.cpp **** uint8_t TwoWire::endTransmission()
  83:Libraries\Wire/Arduino_I2C.cpp **** {
 658              		.loc 4 83 0
 659              		.cfi_startproc
 660              		@ args = 0, pretend = 0, frame = 8
 661              		@ frame_needed = 1, uses_anonymous_args = 0
 662 0000 80B5     		push	{r7, lr}
 663              		.save {r7, lr}
 664              		.cfi_def_cfa_offset 8
 665              		.cfi_offset 7, -8
 666              		.cfi_offset 14, -4
 667              		.pad #8
 668 0002 82B0     		sub	sp, sp, #8
 669              		.cfi_def_cfa_offset 16
 670              		.setfp r7, sp, #0
 671 0004 00AF     		add	r7, sp, #0
 672              		.cfi_def_cfa_register 7
 673 0006 7860     		str	r0, [r7, #4]
  84:Libraries\Wire/Arduino_I2C.cpp ****   return endTransmission(COMPLETE);
 674              		.loc 4 84 0
 675 0008 7868     		ldr	r0, [r7, #4]
 676 000a 0021     		movs	r1, #0
 677 000c FFF7FEFF 		bl	_ZN7TwoWire15endTransmissionE9XFER_MODE
 678 0010 0346     		mov	r3, r0
  85:Libraries\Wire/Arduino_I2C.cpp **** }
 679              		.loc 4 85 0
 680 0012 1846     		mov	r0, r3
 681 0014 0837     		adds	r7, r7, #8
 682              		.cfi_def_cfa_offset 8
 683 0016 BD46     		mov	sp, r7
 684              		.cfi_def_cfa_register 13
 685              		@ sp needed
 686 0018 80BD     		pop	{r7, pc}
 687              		.cfi_endproc
 688              	.LFE161:
 689              		.fnend
 690              		.size	_ZN7TwoWire15endTransmissionEv, .-_ZN7TwoWire15endTransmissionEv
 691 001a 00BF     		.section	.text._ZN7TwoWire11requestFromEhh9XFER_MODE,"ax",%progbits
 692              		.align	2
 693              		.global	_ZN7TwoWire11requestFromEhh9XFER_MODE
 694              		.thumb
 695              		.thumb_func
 696              		.type	_ZN7TwoWire11requestFromEhh9XFER_MODE, %function
 697              	_ZN7TwoWire11requestFromEhh9XFER_MODE:
 698              		.fnstart
 699              	.LFB162:
  86:Libraries\Wire/Arduino_I2C.cpp ****     
  87:Libraries\Wire/Arduino_I2C.cpp **** uint8_t TwoWire::requestFrom(uint8_t address, uint8_t quantity, \
  88:Libraries\Wire/Arduino_I2C.cpp ****     enum XFER_MODE stop)
  89:Libraries\Wire/Arduino_I2C.cpp **** {
 700              		.loc 4 89 0
 701              		.cfi_startproc
ARM GAS  C:\Users\Bruger\AppData\Local\Temp\cc6o6Inw.s 			page 17


 702              		@ args = 0, pretend = 0, frame = 8
 703              		@ frame_needed = 1, uses_anonymous_args = 0
 704 0000 80B5     		push	{r7, lr}
 705              		.save {r7, lr}
 706              		.cfi_def_cfa_offset 8
 707              		.cfi_offset 7, -8
 708              		.cfi_offset 14, -4
 709              		.pad #8
 710 0002 82B0     		sub	sp, sp, #8
 711              		.cfi_def_cfa_offset 16
 712              		.setfp r7, sp, #0
 713 0004 00AF     		add	r7, sp, #0
 714              		.cfi_def_cfa_register 7
 715 0006 7860     		str	r0, [r7, #4]
 716 0008 0846     		mov	r0, r1
 717 000a 1146     		mov	r1, r2
 718 000c 1A46     		mov	r2, r3
 719 000e 0346     		mov	r3, r0
 720 0010 FB70     		strb	r3, [r7, #3]
 721 0012 0B46     		mov	r3, r1
 722 0014 BB70     		strb	r3, [r7, #2]
 723 0016 1346     		mov	r3, r2
 724 0018 7B70     		strb	r3, [r7, #1]
  90:Libraries\Wire/Arduino_I2C.cpp ****     I2C_MasterClearStatus();
 725              		.loc 4 90 0
 726 001a FFF7FEFF 		bl	I2C_MasterClearStatus
  91:Libraries\Wire/Arduino_I2C.cpp ****     
  92:Libraries\Wire/Arduino_I2C.cpp ****     if (stop == COMPLETE)
 727              		.loc 4 92 0
 728 001e 7B78     		ldrb	r3, [r7, #1]	@ zero_extendqisi2
 729 0020 002B     		cmp	r3, #0
 730 0022 0BD1     		bne	.L48
  93:Libraries\Wire/Arduino_I2C.cpp ****     {
  94:Libraries\Wire/Arduino_I2C.cpp ****         I2C_MasterReadBuf(address, i2cRXBuffer, quantity, \
  95:Libraries\Wire/Arduino_I2C.cpp ****             I2C_MODE_COMPLETE_XFER);
 731              		.loc 4 95 0
 732 0024 7B68     		ldr	r3, [r7, #4]
 733 0026 03F11402 		add	r2, r3, #20
 734 002a F978     		ldrb	r1, [r7, #3]	@ zero_extendqisi2
 735 002c BB78     		ldrb	r3, [r7, #2]	@ zero_extendqisi2
 736 002e 0846     		mov	r0, r1
 737 0030 1146     		mov	r1, r2
 738 0032 1A46     		mov	r2, r3
 739 0034 0023     		movs	r3, #0
 740 0036 FFF7FEFF 		bl	I2C_MasterReadBuf
 741 003a 19E0     		b	.L49
 742              	.L48:
  96:Libraries\Wire/Arduino_I2C.cpp ****     }
  97:Libraries\Wire/Arduino_I2C.cpp ****     else if (stop == REPEATED_START)
 743              		.loc 4 97 0
 744 003c 7B78     		ldrb	r3, [r7, #1]	@ zero_extendqisi2
 745 003e 012B     		cmp	r3, #1
 746 0040 0BD1     		bne	.L50
  98:Libraries\Wire/Arduino_I2C.cpp ****     {
  99:Libraries\Wire/Arduino_I2C.cpp ****         I2C_MasterReadBuf(address, i2cRXBuffer, quantity, \
 100:Libraries\Wire/Arduino_I2C.cpp ****             I2C_MODE_REPEAT_START);
 747              		.loc 4 100 0
ARM GAS  C:\Users\Bruger\AppData\Local\Temp\cc6o6Inw.s 			page 18


 748 0042 7B68     		ldr	r3, [r7, #4]
 749 0044 03F11402 		add	r2, r3, #20
 750 0048 F978     		ldrb	r1, [r7, #3]	@ zero_extendqisi2
 751 004a BB78     		ldrb	r3, [r7, #2]	@ zero_extendqisi2
 752 004c 0846     		mov	r0, r1
 753 004e 1146     		mov	r1, r2
 754 0050 1A46     		mov	r2, r3
 755 0052 0123     		movs	r3, #1
 756 0054 FFF7FEFF 		bl	I2C_MasterReadBuf
 757 0058 0AE0     		b	.L49
 758              	.L50:
 101:Libraries\Wire/Arduino_I2C.cpp ****     }
 102:Libraries\Wire/Arduino_I2C.cpp ****     else
 103:Libraries\Wire/Arduino_I2C.cpp ****     {
 104:Libraries\Wire/Arduino_I2C.cpp ****         I2C_MasterReadBuf(address, i2cRXBuffer, quantity, I2C_MODE_NO_STOP);
 759              		.loc 4 104 0
 760 005a 7B68     		ldr	r3, [r7, #4]
 761 005c 03F11402 		add	r2, r3, #20
 762 0060 F978     		ldrb	r1, [r7, #3]	@ zero_extendqisi2
 763 0062 BB78     		ldrb	r3, [r7, #2]	@ zero_extendqisi2
 764 0064 0846     		mov	r0, r1
 765 0066 1146     		mov	r1, r2
 766 0068 1A46     		mov	r2, r3
 767 006a 0223     		movs	r3, #2
 768 006c FFF7FEFF 		bl	I2C_MasterReadBuf
 769              	.L49:
 105:Libraries\Wire/Arduino_I2C.cpp ****     }
 106:Libraries\Wire/Arduino_I2C.cpp ****     
 107:Libraries\Wire/Arduino_I2C.cpp ****     while(0u == (I2C_MasterStatus() & I2C_MSTAT_RD_CMPLT));
 770              		.loc 4 107 0
 771 0070 00BF     		nop
 772              	.L51:
 773              		.loc 4 107 0 is_stmt 0 discriminator 1
 774 0072 FFF7FEFF 		bl	I2C_MasterStatus
 775 0076 0346     		mov	r3, r0
 776 0078 03F00103 		and	r3, r3, #1
 777 007c 002B     		cmp	r3, #0
 778 007e 0CBF     		ite	eq
 779 0080 0123     		moveq	r3, #1
 780 0082 0023     		movne	r3, #0
 781 0084 DBB2     		uxtb	r3, r3
 782 0086 002B     		cmp	r3, #0
 783 0088 F3D1     		bne	.L51
 108:Libraries\Wire/Arduino_I2C.cpp ****     i2cRXBufferSize = quantity;
 784              		.loc 4 108 0 is_stmt 1
 785 008a 7B68     		ldr	r3, [r7, #4]
 786 008c BA78     		ldrb	r2, [r7, #2]
 787 008e 83F8B420 		strb	r2, [r3, #180]
 109:Libraries\Wire/Arduino_I2C.cpp ****     return quantity;
 788              		.loc 4 109 0
 789 0092 BB78     		ldrb	r3, [r7, #2]	@ zero_extendqisi2
 110:Libraries\Wire/Arduino_I2C.cpp **** }
 790              		.loc 4 110 0
 791 0094 1846     		mov	r0, r3
 792 0096 0837     		adds	r7, r7, #8
 793              		.cfi_def_cfa_offset 8
 794 0098 BD46     		mov	sp, r7
ARM GAS  C:\Users\Bruger\AppData\Local\Temp\cc6o6Inw.s 			page 19


 795              		.cfi_def_cfa_register 13
 796              		@ sp needed
 797 009a 80BD     		pop	{r7, pc}
 798              		.cfi_endproc
 799              	.LFE162:
 800              		.fnend
 801              		.size	_ZN7TwoWire11requestFromEhh9XFER_MODE, .-_ZN7TwoWire11requestFromEhh9XFER_MODE
 802              		.section	.text._ZN7TwoWire11requestFromEhh,"ax",%progbits
 803              		.align	2
 804              		.global	_ZN7TwoWire11requestFromEhh
 805              		.thumb
 806              		.thumb_func
 807              		.type	_ZN7TwoWire11requestFromEhh, %function
 808              	_ZN7TwoWire11requestFromEhh:
 809              		.fnstart
 810              	.LFB163:
 111:Libraries\Wire/Arduino_I2C.cpp **** 
 112:Libraries\Wire/Arduino_I2C.cpp **** uint8_t TwoWire::requestFrom(uint8_t address, uint8_t quantity)
 113:Libraries\Wire/Arduino_I2C.cpp **** {
 811              		.loc 4 113 0
 812              		.cfi_startproc
 813              		@ args = 0, pretend = 0, frame = 8
 814              		@ frame_needed = 1, uses_anonymous_args = 0
 815 0000 80B5     		push	{r7, lr}
 816              		.save {r7, lr}
 817              		.cfi_def_cfa_offset 8
 818              		.cfi_offset 7, -8
 819              		.cfi_offset 14, -4
 820              		.pad #8
 821 0002 82B0     		sub	sp, sp, #8
 822              		.cfi_def_cfa_offset 16
 823              		.setfp r7, sp, #0
 824 0004 00AF     		add	r7, sp, #0
 825              		.cfi_def_cfa_register 7
 826 0006 7860     		str	r0, [r7, #4]
 827 0008 0B46     		mov	r3, r1
 828 000a FB70     		strb	r3, [r7, #3]
 829 000c 1346     		mov	r3, r2
 830 000e BB70     		strb	r3, [r7, #2]
 114:Libraries\Wire/Arduino_I2C.cpp ****   return requestFrom(address, quantity, COMPLETE);
 831              		.loc 4 114 0
 832 0010 FA78     		ldrb	r2, [r7, #3]	@ zero_extendqisi2
 833 0012 BB78     		ldrb	r3, [r7, #2]	@ zero_extendqisi2
 834 0014 7868     		ldr	r0, [r7, #4]
 835 0016 1146     		mov	r1, r2
 836 0018 1A46     		mov	r2, r3
 837 001a 0023     		movs	r3, #0
 838 001c FFF7FEFF 		bl	_ZN7TwoWire11requestFromEhh9XFER_MODE
 839 0020 0346     		mov	r3, r0
 115:Libraries\Wire/Arduino_I2C.cpp **** }
 840              		.loc 4 115 0
 841 0022 1846     		mov	r0, r3
 842 0024 0837     		adds	r7, r7, #8
 843              		.cfi_def_cfa_offset 8
 844 0026 BD46     		mov	sp, r7
 845              		.cfi_def_cfa_register 13
 846              		@ sp needed
ARM GAS  C:\Users\Bruger\AppData\Local\Temp\cc6o6Inw.s 			page 20


 847 0028 80BD     		pop	{r7, pc}
 848              		.cfi_endproc
 849              	.LFE163:
 850              		.fnend
 851              		.size	_ZN7TwoWire11requestFromEhh, .-_ZN7TwoWire11requestFromEhh
 852 002a 00BF     		.section	.text._ZN7TwoWire11requestFromEii,"ax",%progbits
 853              		.align	2
 854              		.global	_ZN7TwoWire11requestFromEii
 855              		.thumb
 856              		.thumb_func
 857              		.type	_ZN7TwoWire11requestFromEii, %function
 858              	_ZN7TwoWire11requestFromEii:
 859              		.fnstart
 860              	.LFB164:
 116:Libraries\Wire/Arduino_I2C.cpp **** 
 117:Libraries\Wire/Arduino_I2C.cpp **** uint8_t TwoWire::requestFrom(int address, int quantity)
 118:Libraries\Wire/Arduino_I2C.cpp **** {
 861              		.loc 4 118 0
 862              		.cfi_startproc
 863              		@ args = 0, pretend = 0, frame = 16
 864              		@ frame_needed = 1, uses_anonymous_args = 0
 865 0000 80B5     		push	{r7, lr}
 866              		.save {r7, lr}
 867              		.cfi_def_cfa_offset 8
 868              		.cfi_offset 7, -8
 869              		.cfi_offset 14, -4
 870              		.pad #16
 871 0002 84B0     		sub	sp, sp, #16
 872              		.cfi_def_cfa_offset 24
 873              		.setfp r7, sp, #0
 874 0004 00AF     		add	r7, sp, #0
 875              		.cfi_def_cfa_register 7
 876 0006 F860     		str	r0, [r7, #12]
 877 0008 B960     		str	r1, [r7, #8]
 878 000a 7A60     		str	r2, [r7, #4]
 119:Libraries\Wire/Arduino_I2C.cpp ****   return requestFrom((uint8_t)address, (uint8_t)quantity, (enum XFER_MODE)COMPLETE);
 879              		.loc 4 119 0
 880 000c BB68     		ldr	r3, [r7, #8]
 881 000e DAB2     		uxtb	r2, r3
 882 0010 7B68     		ldr	r3, [r7, #4]
 883 0012 DBB2     		uxtb	r3, r3
 884 0014 F868     		ldr	r0, [r7, #12]
 885 0016 1146     		mov	r1, r2
 886 0018 1A46     		mov	r2, r3
 887 001a 0023     		movs	r3, #0
 888 001c FFF7FEFF 		bl	_ZN7TwoWire11requestFromEhh9XFER_MODE
 889 0020 0346     		mov	r3, r0
 120:Libraries\Wire/Arduino_I2C.cpp **** }
 890              		.loc 4 120 0
 891 0022 1846     		mov	r0, r3
 892 0024 1037     		adds	r7, r7, #16
 893              		.cfi_def_cfa_offset 8
 894 0026 BD46     		mov	sp, r7
 895              		.cfi_def_cfa_register 13
 896              		@ sp needed
 897 0028 80BD     		pop	{r7, pc}
 898              		.cfi_endproc
ARM GAS  C:\Users\Bruger\AppData\Local\Temp\cc6o6Inw.s 			page 21


 899              	.LFE164:
 900              		.fnend
 901              		.size	_ZN7TwoWire11requestFromEii, .-_ZN7TwoWire11requestFromEii
 902 002a 00BF     		.section	.text._ZN7TwoWire11requestFromEiii,"ax",%progbits
 903              		.align	2
 904              		.global	_ZN7TwoWire11requestFromEiii
 905              		.thumb
 906              		.thumb_func
 907              		.type	_ZN7TwoWire11requestFromEiii, %function
 908              	_ZN7TwoWire11requestFromEiii:
 909              		.fnstart
 910              	.LFB165:
 121:Libraries\Wire/Arduino_I2C.cpp ****     
 122:Libraries\Wire/Arduino_I2C.cpp **** uint8_t TwoWire::requestFrom(int address, int quantity, int sendStop)
 123:Libraries\Wire/Arduino_I2C.cpp **** {
 911              		.loc 4 123 0
 912              		.cfi_startproc
 913              		@ args = 0, pretend = 0, frame = 16
 914              		@ frame_needed = 1, uses_anonymous_args = 0
 915 0000 80B5     		push	{r7, lr}
 916              		.save {r7, lr}
 917              		.cfi_def_cfa_offset 8
 918              		.cfi_offset 7, -8
 919              		.cfi_offset 14, -4
 920              		.pad #16
 921 0002 84B0     		sub	sp, sp, #16
 922              		.cfi_def_cfa_offset 24
 923              		.setfp r7, sp, #0
 924 0004 00AF     		add	r7, sp, #0
 925              		.cfi_def_cfa_register 7
 926 0006 F860     		str	r0, [r7, #12]
 927 0008 B960     		str	r1, [r7, #8]
 928 000a 7A60     		str	r2, [r7, #4]
 929 000c 3B60     		str	r3, [r7]
 124:Libraries\Wire/Arduino_I2C.cpp ****   return requestFrom((uint8_t) address, (uint8_t) quantity, (enum XFER_MODE)sendStop);
 930              		.loc 4 124 0
 931 000e BB68     		ldr	r3, [r7, #8]
 932 0010 D9B2     		uxtb	r1, r3
 933 0012 7B68     		ldr	r3, [r7, #4]
 934 0014 DAB2     		uxtb	r2, r3
 935 0016 3B68     		ldr	r3, [r7]
 936 0018 DBB2     		uxtb	r3, r3
 937 001a F868     		ldr	r0, [r7, #12]
 938 001c FFF7FEFF 		bl	_ZN7TwoWire11requestFromEhh9XFER_MODE
 939 0020 0346     		mov	r3, r0
 125:Libraries\Wire/Arduino_I2C.cpp **** }
 940              		.loc 4 125 0
 941 0022 1846     		mov	r0, r3
 942 0024 1037     		adds	r7, r7, #16
 943              		.cfi_def_cfa_offset 8
 944 0026 BD46     		mov	sp, r7
 945              		.cfi_def_cfa_register 13
 946              		@ sp needed
 947 0028 80BD     		pop	{r7, pc}
 948              		.cfi_endproc
 949              	.LFE165:
 950              		.fnend
ARM GAS  C:\Users\Bruger\AppData\Local\Temp\cc6o6Inw.s 			page 22


 951              		.size	_ZN7TwoWire11requestFromEiii, .-_ZN7TwoWire11requestFromEiii
 952 002a 00BF     		.section	.text._ZN7TwoWire5writeEPhh,"ax",%progbits
 953              		.align	2
 954              		.global	_ZN7TwoWire5writeEPhh
 955              		.thumb
 956              		.thumb_func
 957              		.type	_ZN7TwoWire5writeEPhh, %function
 958              	_ZN7TwoWire5writeEPhh:
 959              		.fnstart
 960              	.LFB166:
 126:Libraries\Wire/Arduino_I2C.cpp **** 
 127:Libraries\Wire/Arduino_I2C.cpp **** size_t TwoWire::write(uint8_t *buffer, uint8_t length)
 128:Libraries\Wire/Arduino_I2C.cpp **** {
 961              		.loc 4 128 0
 962              		.cfi_startproc
 963              		@ args = 0, pretend = 0, frame = 24
 964              		@ frame_needed = 1, uses_anonymous_args = 0
 965              		@ link register save eliminated.
 966 0000 80B4     		push	{r7}
 967              		.cfi_def_cfa_offset 4
 968              		.cfi_offset 7, -4
 969 0002 87B0     		sub	sp, sp, #28
 970              		.cfi_def_cfa_offset 32
 971 0004 00AF     		add	r7, sp, #0
 972              		.cfi_def_cfa_register 7
 973 0006 F860     		str	r0, [r7, #12]
 974 0008 B960     		str	r1, [r7, #8]
 975 000a 1346     		mov	r3, r2
 976 000c FB71     		strb	r3, [r7, #7]
 977              	.LBB9:
 129:Libraries\Wire/Arduino_I2C.cpp ****     uint8_t i;
 130:Libraries\Wire/Arduino_I2C.cpp ****     if (i2cTXBufferSize == 32)
 978              		.loc 4 130 0
 979 000e FB68     		ldr	r3, [r7, #12]
 980 0010 93F8B530 		ldrb	r3, [r3, #181]	@ zero_extendqisi2
 981 0014 202B     		cmp	r3, #32
 982 0016 05D1     		bne	.L60
 131:Libraries\Wire/Arduino_I2C.cpp ****     {
 132:Libraries\Wire/Arduino_I2C.cpp ****         txOverflow = 1;
 983              		.loc 4 132 0
 984 0018 FB68     		ldr	r3, [r7, #12]
 985 001a 0122     		movs	r2, #1
 986 001c 83F8B720 		strb	r2, [r3, #183]
 133:Libraries\Wire/Arduino_I2C.cpp ****         return 0;
 987              		.loc 4 133 0
 988 0020 0023     		movs	r3, #0
 989 0022 32E0     		b	.L61
 990              	.L60:
 134:Libraries\Wire/Arduino_I2C.cpp ****     }
 135:Libraries\Wire/Arduino_I2C.cpp ****     for (i=0; i < length; i++)
 991              		.loc 4 135 0
 992 0024 0023     		movs	r3, #0
 993 0026 FB75     		strb	r3, [r7, #23]
 994 0028 2AE0     		b	.L62
 995              	.L64:
 136:Libraries\Wire/Arduino_I2C.cpp ****     {
 137:Libraries\Wire/Arduino_I2C.cpp ****         i2cTXBuffer[i2cTXBufferSize+i] = buffer[i];
ARM GAS  C:\Users\Bruger\AppData\Local\Temp\cc6o6Inw.s 			page 23


 996              		.loc 4 137 0
 997 002a FB68     		ldr	r3, [r7, #12]
 998 002c 93F8B530 		ldrb	r3, [r3, #181]	@ zero_extendqisi2
 999 0030 1A46     		mov	r2, r3
 1000 0032 FB7D     		ldrb	r3, [r7, #23]	@ zero_extendqisi2
 1001 0034 1344     		add	r3, r3, r2
 1002 0036 FA7D     		ldrb	r2, [r7, #23]	@ zero_extendqisi2
 1003 0038 B968     		ldr	r1, [r7, #8]
 1004 003a 0A44     		add	r2, r2, r1
 1005 003c 1178     		ldrb	r1, [r2]	@ zero_extendqisi2
 1006 003e FA68     		ldr	r2, [r7, #12]
 1007 0040 1344     		add	r3, r3, r2
 1008 0042 0A46     		mov	r2, r1
 1009 0044 83F89420 		strb	r2, [r3, #148]
 138:Libraries\Wire/Arduino_I2C.cpp ****         if (++i2cTXBufferSize == 32)
 1010              		.loc 4 138 0
 1011 0048 FB68     		ldr	r3, [r7, #12]
 1012 004a 93F8B530 		ldrb	r3, [r3, #181]	@ zero_extendqisi2
 1013 004e 0133     		adds	r3, r3, #1
 1014 0050 DAB2     		uxtb	r2, r3
 1015 0052 FB68     		ldr	r3, [r7, #12]
 1016 0054 83F8B520 		strb	r2, [r3, #181]
 1017 0058 FB68     		ldr	r3, [r7, #12]
 1018 005a 93F8B530 		ldrb	r3, [r3, #181]	@ zero_extendqisi2
 1019 005e 202B     		cmp	r3, #32
 1020 0060 0CBF     		ite	eq
 1021 0062 0123     		moveq	r3, #1
 1022 0064 0023     		movne	r3, #0
 1023 0066 DBB2     		uxtb	r3, r3
 1024 0068 002B     		cmp	r3, #0
 1025 006a 06D0     		beq	.L63
 139:Libraries\Wire/Arduino_I2C.cpp ****         {
 140:Libraries\Wire/Arduino_I2C.cpp ****             txOverflow = 1;
 1026              		.loc 4 140 0
 1027 006c FB68     		ldr	r3, [r7, #12]
 1028 006e 0122     		movs	r2, #1
 1029 0070 83F8B720 		strb	r2, [r3, #183]
 141:Libraries\Wire/Arduino_I2C.cpp ****             return i+1;
 1030              		.loc 4 141 0
 1031 0074 FB7D     		ldrb	r3, [r7, #23]	@ zero_extendqisi2
 1032 0076 0133     		adds	r3, r3, #1
 1033 0078 07E0     		b	.L61
 1034              	.L63:
 135:Libraries\Wire/Arduino_I2C.cpp ****     {
 1035              		.loc 4 135 0 discriminator 2
 1036 007a FB7D     		ldrb	r3, [r7, #23]	@ zero_extendqisi2
 1037 007c 0133     		adds	r3, r3, #1
 1038 007e FB75     		strb	r3, [r7, #23]
 1039              	.L62:
 135:Libraries\Wire/Arduino_I2C.cpp ****     {
 1040              		.loc 4 135 0 is_stmt 0 discriminator 1
 1041 0080 FA7D     		ldrb	r2, [r7, #23]	@ zero_extendqisi2
 1042 0082 FB79     		ldrb	r3, [r7, #7]	@ zero_extendqisi2
 1043 0084 9A42     		cmp	r2, r3
 1044 0086 D0D3     		bcc	.L64
 142:Libraries\Wire/Arduino_I2C.cpp ****         }
 143:Libraries\Wire/Arduino_I2C.cpp ****     }
ARM GAS  C:\Users\Bruger\AppData\Local\Temp\cc6o6Inw.s 			page 24


 144:Libraries\Wire/Arduino_I2C.cpp ****     return i;
 1045              		.loc 4 144 0 is_stmt 1
 1046 0088 FB7D     		ldrb	r3, [r7, #23]	@ zero_extendqisi2
 1047              	.L61:
 1048              	.LBE9:
 145:Libraries\Wire/Arduino_I2C.cpp **** }
 1049              		.loc 4 145 0
 1050 008a 1846     		mov	r0, r3
 1051 008c 1C37     		adds	r7, r7, #28
 1052              		.cfi_def_cfa_offset 4
 1053 008e BD46     		mov	sp, r7
 1054              		.cfi_def_cfa_register 13
 1055              		@ sp needed
 1056 0090 5DF8047B 		ldr	r7, [sp], #4
 1057              		.cfi_restore 7
 1058              		.cfi_def_cfa_offset 0
 1059 0094 7047     		bx	lr
 1060              		.cfi_endproc
 1061              	.LFE166:
 1062              		.cantunwind
 1063              		.fnend
 1064              		.size	_ZN7TwoWire5writeEPhh, .-_ZN7TwoWire5writeEPhh
 1065 0096 00BF     		.section	.text._ZN7TwoWire5writeEh,"ax",%progbits
 1066              		.align	2
 1067              		.global	_ZN7TwoWire5writeEh
 1068              		.thumb
 1069              		.thumb_func
 1070              		.type	_ZN7TwoWire5writeEh, %function
 1071              	_ZN7TwoWire5writeEh:
 1072              		.fnstart
 1073              	.LFB167:
 146:Libraries\Wire/Arduino_I2C.cpp **** 
 147:Libraries\Wire/Arduino_I2C.cpp **** size_t TwoWire::write(uint8_t buffer)
 148:Libraries\Wire/Arduino_I2C.cpp **** {
 1074              		.loc 4 148 0
 1075              		.cfi_startproc
 1076              		@ args = 0, pretend = 0, frame = 8
 1077              		@ frame_needed = 1, uses_anonymous_args = 0
 1078 0000 80B5     		push	{r7, lr}
 1079              		.save {r7, lr}
 1080              		.cfi_def_cfa_offset 8
 1081              		.cfi_offset 7, -8
 1082              		.cfi_offset 14, -4
 1083              		.pad #8
 1084 0002 82B0     		sub	sp, sp, #8
 1085              		.cfi_def_cfa_offset 16
 1086              		.setfp r7, sp, #0
 1087 0004 00AF     		add	r7, sp, #0
 1088              		.cfi_def_cfa_register 7
 1089 0006 7860     		str	r0, [r7, #4]
 1090 0008 0B46     		mov	r3, r1
 1091 000a FB70     		strb	r3, [r7, #3]
 149:Libraries\Wire/Arduino_I2C.cpp ****   return write((uint8_t *)&buffer, 1);
 1092              		.loc 4 149 0
 1093 000c 7B68     		ldr	r3, [r7, #4]
 1094 000e 1B68     		ldr	r3, [r3]
 1095 0010 1833     		adds	r3, r3, #24
ARM GAS  C:\Users\Bruger\AppData\Local\Temp\cc6o6Inw.s 			page 25


 1096 0012 1B68     		ldr	r3, [r3]
 1097 0014 FA1C     		adds	r2, r7, #3
 1098 0016 7868     		ldr	r0, [r7, #4]
 1099 0018 1146     		mov	r1, r2
 1100 001a 0122     		movs	r2, #1
 1101 001c 9847     		blx	r3
 1102 001e 0346     		mov	r3, r0
 150:Libraries\Wire/Arduino_I2C.cpp **** }
 1103              		.loc 4 150 0
 1104 0020 1846     		mov	r0, r3
 1105 0022 0837     		adds	r7, r7, #8
 1106              		.cfi_def_cfa_offset 8
 1107 0024 BD46     		mov	sp, r7
 1108              		.cfi_def_cfa_register 13
 1109              		@ sp needed
 1110 0026 80BD     		pop	{r7, pc}
 1111              		.cfi_endproc
 1112              	.LFE167:
 1113              		.fnend
 1114              		.size	_ZN7TwoWire5writeEh, .-_ZN7TwoWire5writeEh
 1115              		.section	.text._ZN7TwoWire9availableEv,"ax",%progbits
 1116              		.align	2
 1117              		.global	_ZN7TwoWire9availableEv
 1118              		.thumb
 1119              		.thumb_func
 1120              		.type	_ZN7TwoWire9availableEv, %function
 1121              	_ZN7TwoWire9availableEv:
 1122              		.fnstart
 1123              	.LFB168:
 151:Libraries\Wire/Arduino_I2C.cpp **** 
 152:Libraries\Wire/Arduino_I2C.cpp **** int TwoWire::available()
 153:Libraries\Wire/Arduino_I2C.cpp **** {
 1124              		.loc 4 153 0
 1125              		.cfi_startproc
 1126              		@ args = 0, pretend = 0, frame = 8
 1127              		@ frame_needed = 1, uses_anonymous_args = 0
 1128              		@ link register save eliminated.
 1129 0000 80B4     		push	{r7}
 1130              		.cfi_def_cfa_offset 4
 1131              		.cfi_offset 7, -4
 1132 0002 83B0     		sub	sp, sp, #12
 1133              		.cfi_def_cfa_offset 16
 1134 0004 00AF     		add	r7, sp, #0
 1135              		.cfi_def_cfa_register 7
 1136 0006 7860     		str	r0, [r7, #4]
 154:Libraries\Wire/Arduino_I2C.cpp ****     return i2cRXBufferSize;
 1137              		.loc 4 154 0
 1138 0008 7B68     		ldr	r3, [r7, #4]
 1139 000a 93F8B430 		ldrb	r3, [r3, #180]	@ zero_extendqisi2
 155:Libraries\Wire/Arduino_I2C.cpp **** }
 1140              		.loc 4 155 0
 1141 000e 1846     		mov	r0, r3
 1142 0010 0C37     		adds	r7, r7, #12
 1143              		.cfi_def_cfa_offset 4
 1144 0012 BD46     		mov	sp, r7
 1145              		.cfi_def_cfa_register 13
 1146              		@ sp needed
ARM GAS  C:\Users\Bruger\AppData\Local\Temp\cc6o6Inw.s 			page 26


 1147 0014 5DF8047B 		ldr	r7, [sp], #4
 1148              		.cfi_restore 7
 1149              		.cfi_def_cfa_offset 0
 1150 0018 7047     		bx	lr
 1151              		.cfi_endproc
 1152              	.LFE168:
 1153              		.cantunwind
 1154              		.fnend
 1155              		.size	_ZN7TwoWire9availableEv, .-_ZN7TwoWire9availableEv
 1156 001a 00BF     		.section	.text._ZN7TwoWire4readEv,"ax",%progbits
 1157              		.align	2
 1158              		.global	_ZN7TwoWire4readEv
 1159              		.thumb
 1160              		.thumb_func
 1161              		.type	_ZN7TwoWire4readEv, %function
 1162              	_ZN7TwoWire4readEv:
 1163              		.fnstart
 1164              	.LFB169:
 156:Libraries\Wire/Arduino_I2C.cpp **** 
 157:Libraries\Wire/Arduino_I2C.cpp **** int TwoWire::read()
 158:Libraries\Wire/Arduino_I2C.cpp **** {
 1165              		.loc 4 158 0
 1166              		.cfi_startproc
 1167              		@ args = 0, pretend = 0, frame = 8
 1168              		@ frame_needed = 1, uses_anonymous_args = 0
 1169              		@ link register save eliminated.
 1170 0000 80B4     		push	{r7}
 1171              		.cfi_def_cfa_offset 4
 1172              		.cfi_offset 7, -4
 1173 0002 83B0     		sub	sp, sp, #12
 1174              		.cfi_def_cfa_offset 16
 1175 0004 00AF     		add	r7, sp, #0
 1176              		.cfi_def_cfa_register 7
 1177 0006 7860     		str	r0, [r7, #4]
 159:Libraries\Wire/Arduino_I2C.cpp ****     if (i2cRXBufferSize == 0) return -1;
 1178              		.loc 4 159 0
 1179 0008 7B68     		ldr	r3, [r7, #4]
 1180 000a 93F8B430 		ldrb	r3, [r3, #180]	@ zero_extendqisi2
 1181 000e 002B     		cmp	r3, #0
 1182 0010 02D1     		bne	.L70
 1183              		.loc 4 159 0 is_stmt 0 discriminator 1
 1184 0012 4FF0FF33 		mov	r3, #-1
 1185 0016 0EE0     		b	.L71
 1186              	.L70:
 160:Libraries\Wire/Arduino_I2C.cpp ****     return i2cRXBuffer[--i2cRXBufferSize];
 1187              		.loc 4 160 0 is_stmt 1
 1188 0018 7B68     		ldr	r3, [r7, #4]
 1189 001a 93F8B430 		ldrb	r3, [r3, #180]	@ zero_extendqisi2
 1190 001e 013B     		subs	r3, r3, #1
 1191 0020 DAB2     		uxtb	r2, r3
 1192 0022 7B68     		ldr	r3, [r7, #4]
 1193 0024 83F8B420 		strb	r2, [r3, #180]
 1194 0028 7B68     		ldr	r3, [r7, #4]
 1195 002a 93F8B430 		ldrb	r3, [r3, #180]	@ zero_extendqisi2
 1196 002e 1A46     		mov	r2, r3
 1197 0030 7B68     		ldr	r3, [r7, #4]
 1198 0032 1344     		add	r3, r3, r2
ARM GAS  C:\Users\Bruger\AppData\Local\Temp\cc6o6Inw.s 			page 27


 1199 0034 1B7D     		ldrb	r3, [r3, #20]	@ zero_extendqisi2
 1200              	.L71:
 161:Libraries\Wire/Arduino_I2C.cpp **** }
 1201              		.loc 4 161 0
 1202 0036 1846     		mov	r0, r3
 1203 0038 0C37     		adds	r7, r7, #12
 1204              		.cfi_def_cfa_offset 4
 1205 003a BD46     		mov	sp, r7
 1206              		.cfi_def_cfa_register 13
 1207              		@ sp needed
 1208 003c 5DF8047B 		ldr	r7, [sp], #4
 1209              		.cfi_restore 7
 1210              		.cfi_def_cfa_offset 0
 1211 0040 7047     		bx	lr
 1212              		.cfi_endproc
 1213              	.LFE169:
 1214              		.cantunwind
 1215              		.fnend
 1216              		.size	_ZN7TwoWire4readEv, .-_ZN7TwoWire4readEv
 1217 0042 00BF     		.section	.text._ZN7TwoWire4peekEv,"ax",%progbits
 1218              		.align	2
 1219              		.global	_ZN7TwoWire4peekEv
 1220              		.thumb
 1221              		.thumb_func
 1222              		.type	_ZN7TwoWire4peekEv, %function
 1223              	_ZN7TwoWire4peekEv:
 1224              		.fnstart
 1225              	.LFB170:
 162:Libraries\Wire/Arduino_I2C.cpp **** 
 163:Libraries\Wire/Arduino_I2C.cpp **** int TwoWire::peek()
 164:Libraries\Wire/Arduino_I2C.cpp **** {
 1226              		.loc 4 164 0
 1227              		.cfi_startproc
 1228              		@ args = 0, pretend = 0, frame = 8
 1229              		@ frame_needed = 1, uses_anonymous_args = 0
 1230              		@ link register save eliminated.
 1231 0000 80B4     		push	{r7}
 1232              		.cfi_def_cfa_offset 4
 1233              		.cfi_offset 7, -4
 1234 0002 83B0     		sub	sp, sp, #12
 1235              		.cfi_def_cfa_offset 16
 1236 0004 00AF     		add	r7, sp, #0
 1237              		.cfi_def_cfa_register 7
 1238 0006 7860     		str	r0, [r7, #4]
 165:Libraries\Wire/Arduino_I2C.cpp ****     if (i2cRXBufferSize == 0) return -1;
 1239              		.loc 4 165 0
 1240 0008 7B68     		ldr	r3, [r7, #4]
 1241 000a 93F8B430 		ldrb	r3, [r3, #180]	@ zero_extendqisi2
 1242 000e 002B     		cmp	r3, #0
 1243 0010 02D1     		bne	.L73
 1244              		.loc 4 165 0 is_stmt 0 discriminator 1
 1245 0012 4FF0FF33 		mov	r3, #-1
 1246 0016 06E0     		b	.L74
 1247              	.L73:
 166:Libraries\Wire/Arduino_I2C.cpp ****     return i2cRXBuffer[i2cRXBufferSize];
 1248              		.loc 4 166 0 is_stmt 1
 1249 0018 7B68     		ldr	r3, [r7, #4]
ARM GAS  C:\Users\Bruger\AppData\Local\Temp\cc6o6Inw.s 			page 28


 1250 001a 93F8B430 		ldrb	r3, [r3, #180]	@ zero_extendqisi2
 1251 001e 1A46     		mov	r2, r3
 1252 0020 7B68     		ldr	r3, [r7, #4]
 1253 0022 1344     		add	r3, r3, r2
 1254 0024 1B7D     		ldrb	r3, [r3, #20]	@ zero_extendqisi2
 1255              	.L74:
 167:Libraries\Wire/Arduino_I2C.cpp **** }
 1256              		.loc 4 167 0
 1257 0026 1846     		mov	r0, r3
 1258 0028 0C37     		adds	r7, r7, #12
 1259              		.cfi_def_cfa_offset 4
 1260 002a BD46     		mov	sp, r7
 1261              		.cfi_def_cfa_register 13
 1262              		@ sp needed
 1263 002c 5DF8047B 		ldr	r7, [sp], #4
 1264              		.cfi_restore 7
 1265              		.cfi_def_cfa_offset 0
 1266 0030 7047     		bx	lr
 1267              		.cfi_endproc
 1268              	.LFE170:
 1269              		.cantunwind
 1270              		.fnend
 1271              		.size	_ZN7TwoWire4peekEv, .-_ZN7TwoWire4peekEv
 1272 0032 00BF     		.section	.text._ZN7TwoWire5flushEv,"ax",%progbits
 1273              		.align	2
 1274              		.global	_ZN7TwoWire5flushEv
 1275              		.thumb
 1276              		.thumb_func
 1277              		.type	_ZN7TwoWire5flushEv, %function
 1278              	_ZN7TwoWire5flushEv:
 1279              		.fnstart
 1280              	.LFB171:
 168:Libraries\Wire/Arduino_I2C.cpp **** 
 169:Libraries\Wire/Arduino_I2C.cpp **** void TwoWire::flush()
 170:Libraries\Wire/Arduino_I2C.cpp **** {
 1281              		.loc 4 170 0
 1282              		.cfi_startproc
 1283              		@ args = 0, pretend = 0, frame = 8
 1284              		@ frame_needed = 1, uses_anonymous_args = 0
 1285              		@ link register save eliminated.
 1286 0000 80B4     		push	{r7}
 1287              		.cfi_def_cfa_offset 4
 1288              		.cfi_offset 7, -4
 1289 0002 83B0     		sub	sp, sp, #12
 1290              		.cfi_def_cfa_offset 16
 1291 0004 00AF     		add	r7, sp, #0
 1292              		.cfi_def_cfa_register 7
 1293 0006 7860     		str	r0, [r7, #4]
 171:Libraries\Wire/Arduino_I2C.cpp **** }
 1294              		.loc 4 171 0
 1295 0008 0C37     		adds	r7, r7, #12
 1296              		.cfi_def_cfa_offset 4
 1297 000a BD46     		mov	sp, r7
 1298              		.cfi_def_cfa_register 13
 1299              		@ sp needed
 1300 000c 5DF8047B 		ldr	r7, [sp], #4
 1301              		.cfi_restore 7
ARM GAS  C:\Users\Bruger\AppData\Local\Temp\cc6o6Inw.s 			page 29


 1302              		.cfi_def_cfa_offset 0
 1303 0010 7047     		bx	lr
 1304              		.cfi_endproc
 1305              	.LFE171:
 1306              		.cantunwind
 1307              		.fnend
 1308              		.size	_ZN7TwoWire5flushEv, .-_ZN7TwoWire5flushEv
 1309              		.global	_ZTV7TwoWire
 1310 0012 00BF     		.section	.rodata
 1311              		.align	3
 1312              		.type	_ZTV7TwoWire, %object
 1313              		.size	_ZTV7TwoWire, 36
 1314              	_ZTV7TwoWire:
 1315 0000 00000000 		.word	0
 1316 0004 00000000 		.word	_ZTI7TwoWire
 1317 0008 00000000 		.word	_ZN7TwoWire5writeEh
 1318 000c 00000000 		.word	_ZN5Print5writeEPKhj
 1319 0010 00000000 		.word	_ZN7TwoWire9availableEv
 1320 0014 00000000 		.word	_ZN7TwoWire4readEv
 1321 0018 00000000 		.word	_ZN7TwoWire4peekEv
 1322 001c 00000000 		.word	_ZN7TwoWire5flushEv
 1323 0020 00000000 		.word	_ZN7TwoWire5writeEPhh
 1324              		.weak	_ZTV6Stream
 1325              		.section	.rodata._ZTV6Stream,"aG",%progbits,_ZTV6Stream,comdat
 1326              		.align	3
 1327              		.type	_ZTV6Stream, %object
 1328              		.size	_ZTV6Stream, 32
 1329              	_ZTV6Stream:
 1330 0000 00000000 		.word	0
 1331 0004 00000000 		.word	_ZTI6Stream
 1332 0008 00000000 		.word	__cxa_pure_virtual
 1333 000c 00000000 		.word	_ZN5Print5writeEPKhj
 1334 0010 00000000 		.word	__cxa_pure_virtual
 1335 0014 00000000 		.word	__cxa_pure_virtual
 1336 0018 00000000 		.word	__cxa_pure_virtual
 1337 001c 00000000 		.word	__cxa_pure_virtual
 1338              		.global	_ZTI7TwoWire
 1339              		.section	.rodata
 1340              		.align	2
 1341              		.type	_ZTI7TwoWire, %object
 1342              		.size	_ZTI7TwoWire, 12
 1343              	_ZTI7TwoWire:
 1344 0024 08000000 		.word	_ZTVN10__cxxabiv120__si_class_type_infoE+8
 1345 0028 00000000 		.word	_ZTS7TwoWire
 1346 002c 00000000 		.word	_ZTI6Stream
 1347              		.global	_ZTS7TwoWire
 1348              		.align	2
 1349              		.type	_ZTS7TwoWire, %object
 1350              		.size	_ZTS7TwoWire, 9
 1351              	_ZTS7TwoWire:
 1352 0030 3754776F 		.ascii	"7TwoWire\000"
 1352      57697265 
 1352      00
 1353              		.weak	_ZTS6Stream
 1354 0039 00000000 		.section	.rodata._ZTS6Stream,"aG",%progbits,_ZTS6Stream,comdat
 1354      000000
 1355              		.align	2
ARM GAS  C:\Users\Bruger\AppData\Local\Temp\cc6o6Inw.s 			page 30


 1356              		.type	_ZTS6Stream, %object
 1357              		.size	_ZTS6Stream, 8
 1358              	_ZTS6Stream:
 1359 0000 36537472 		.ascii	"6Stream\000"
 1359      65616D00 
 1360              		.weak	_ZTI6Stream
 1361              		.section	.rodata._ZTI6Stream,"aG",%progbits,_ZTI6Stream,comdat
 1362              		.align	2
 1363              		.type	_ZTI6Stream, %object
 1364              		.size	_ZTI6Stream, 12
 1365              	_ZTI6Stream:
 1366 0000 08000000 		.word	_ZTVN10__cxxabiv120__si_class_type_infoE+8
 1367 0004 00000000 		.word	_ZTS6Stream
 1368 0008 00000000 		.word	_ZTI5Print
 1369              		.section	.text._Z41__static_initialization_and_destruction_0ii,"ax",%progbits
 1370              		.align	2
 1371              		.thumb
 1372              		.thumb_func
 1373              		.type	_Z41__static_initialization_and_destruction_0ii, %function
 1374              	_Z41__static_initialization_and_destruction_0ii:
 1375              		.fnstart
 1376              	.LFB172:
 1377              		.loc 4 171 0
 1378              		.cfi_startproc
 1379              		@ args = 0, pretend = 0, frame = 8
 1380              		@ frame_needed = 1, uses_anonymous_args = 0
 1381 0000 80B5     		push	{r7, lr}
 1382              		.cfi_def_cfa_offset 8
 1383              		.cfi_offset 7, -8
 1384              		.cfi_offset 14, -4
 1385 0002 82B0     		sub	sp, sp, #8
 1386              		.cfi_def_cfa_offset 16
 1387 0004 00AF     		add	r7, sp, #0
 1388              		.cfi_def_cfa_register 7
 1389 0006 7860     		str	r0, [r7, #4]
 1390 0008 3960     		str	r1, [r7]
 1391              		.loc 4 171 0
 1392 000a 7B68     		ldr	r3, [r7, #4]
 1393 000c 012B     		cmp	r3, #1
 1394 000e 0CD1     		bne	.L76
 1395              		.loc 4 171 0 is_stmt 0 discriminator 1
 1396 0010 3B68     		ldr	r3, [r7]
 1397 0012 4FF6FF72 		movw	r2, #65535
 1398 0016 9342     		cmp	r3, r2
 1399 0018 07D1     		bne	.L76
  24:Libraries\Wire/Arduino_I2C.cpp **** 
 1400              		.loc 4 24 0 is_stmt 1
 1401 001a 0548     		ldr	r0, .L78
 1402 001c FFF7FEFF 		bl	_ZN7TwoWireC1Ev
 1403 0020 0348     		ldr	r0, .L78
 1404 0022 0449     		ldr	r1, .L78+4
 1405 0024 044A     		ldr	r2, .L78+8
 1406 0026 FFF7FEFF 		bl	__aeabi_atexit
 1407              	.L76:
 1408              		.loc 4 171 0
 1409 002a 0837     		adds	r7, r7, #8
 1410              		.cfi_def_cfa_offset 8
ARM GAS  C:\Users\Bruger\AppData\Local\Temp\cc6o6Inw.s 			page 31


 1411 002c BD46     		mov	sp, r7
 1412              		.cfi_def_cfa_register 13
 1413              		@ sp needed
 1414 002e 80BD     		pop	{r7, pc}
 1415              	.L79:
 1416              		.align	2
 1417              	.L78:
 1418 0030 00000000 		.word	Wire
 1419 0034 00000000 		.word	_ZN7TwoWireD1Ev
 1420 0038 00000000 		.word	__dso_handle
 1421              		.cfi_endproc
 1422              	.LFE172:
 1423              		.cantunwind
 1424              		.fnend
 1425              		.size	_Z41__static_initialization_and_destruction_0ii, .-_Z41__static_initialization_and_destructi
 1426              		.section	.text._GLOBAL__sub_I_Wire,"ax",%progbits
 1427              		.align	2
 1428              		.thumb
 1429              		.thumb_func
 1430              		.type	_GLOBAL__sub_I_Wire, %function
 1431              	_GLOBAL__sub_I_Wire:
 1432              		.fnstart
 1433              	.LFB173:
 1434              		.loc 4 171 0
 1435              		.cfi_startproc
 1436              		@ args = 0, pretend = 0, frame = 0
 1437              		@ frame_needed = 1, uses_anonymous_args = 0
 1438 0000 80B5     		push	{r7, lr}
 1439              		.cfi_def_cfa_offset 8
 1440              		.cfi_offset 7, -8
 1441              		.cfi_offset 14, -4
 1442 0002 00AF     		add	r7, sp, #0
 1443              		.cfi_def_cfa_register 7
 1444              		.loc 4 171 0
 1445 0004 0120     		movs	r0, #1
 1446 0006 4FF6FF71 		movw	r1, #65535
 1447 000a FFF7FEFF 		bl	_Z41__static_initialization_and_destruction_0ii
 1448 000e 80BD     		pop	{r7, pc}
 1449              		.cfi_endproc
 1450              	.LFE173:
 1451              		.cantunwind
 1452              		.fnend
 1453              		.size	_GLOBAL__sub_I_Wire, .-_GLOBAL__sub_I_Wire
 1454              		.section	.init_array,"aw",%init_array
 1455              		.align	2
 1456 0000 00000000 		.word	_GLOBAL__sub_I_Wire(target1)
 1457              		.text
 1458              	.Letext0:
 1459              		.file 5 "c:\\program files (x86)\\cypress\\psoc creator\\4.0\\psoc creator\\import\\gnu\\arm\\4.9.
 1460              		.file 6 "c:\\program files (x86)\\cypress\\psoc creator\\4.0\\psoc creator\\import\\gnu\\arm\\4.9.
 1461              		.file 7 "c:\\program files (x86)\\cypress\\psoc creator\\4.0\\psoc creator\\import\\gnu\\arm\\4.9.
 1462              		.file 8 ".\\core/WString.h"
 1463              		.file 9 ".\\core/Arduino_Pins.h"
 1464              		.file 10 "Generated_Source\\PSoC5/core_cm3.h"
 1465              		.file 11 "<built-in>"