ARM GAS  C:\Users\Bruger\AppData\Local\Temp\ccu6y8fK.s 			page 1


   1              		.syntax unified
   2              		.cpu cortex-m3
   3              		.fpu softvfp
   4              		.eabi_attribute 20, 1
   5              		.eabi_attribute 21, 1
   6              		.eabi_attribute 23, 3
   7              		.eabi_attribute 24, 1
   8              		.eabi_attribute 25, 1
   9              		.eabi_attribute 26, 1
  10              		.eabi_attribute 30, 6
  11              		.eabi_attribute 34, 1
  12              		.eabi_attribute 18, 4
  13              		.thumb
  14              		.file	"Arduino_Math.cpp"
  15              		.text
  16              	.Ltext0:
  17              		.cfi_sections	.debug_frame
  18              		.section	.text._Z3maplllll,"ax",%progbits
  19              		.align	2
  20              		.global	_Z3maplllll
  21              		.thumb
  22              		.thumb_func
  23              		.type	_Z3maplllll, %function
  24              	_Z3maplllll:
  25              		.fnstart
  26              	.LFB147:
  27              		.file 1 "core\\Arduino_Math.cpp"
   1:core/Arduino_Math.cpp **** #include <Arduino.h>
   2:core/Arduino_Math.cpp **** #include "WMath.h"
   3:core/Arduino_Math.cpp **** 
   4:core/Arduino_Math.cpp **** long map(long x, long in_min, long in_max, long out_min, long out_max)
   5:core/Arduino_Math.cpp **** {
  28              		.loc 1 5 0
  29              		.cfi_startproc
  30              		@ args = 4, pretend = 0, frame = 16
  31              		@ frame_needed = 1, uses_anonymous_args = 0
  32              		@ link register save eliminated.
  33 0000 80B4     		push	{r7}
  34              		.cfi_def_cfa_offset 4
  35              		.cfi_offset 7, -4
  36 0002 85B0     		sub	sp, sp, #20
  37              		.cfi_def_cfa_offset 24
  38 0004 00AF     		add	r7, sp, #0
  39              		.cfi_def_cfa_register 7
  40 0006 F860     		str	r0, [r7, #12]
  41 0008 B960     		str	r1, [r7, #8]
  42 000a 7A60     		str	r2, [r7, #4]
  43 000c 3B60     		str	r3, [r7]
   6:core/Arduino_Math.cpp ****   return (x - in_min) * (out_max - out_min) / (in_max - in_min) + out_min;
  44              		.loc 1 6 0
  45 000e FA68     		ldr	r2, [r7, #12]
  46 0010 BB68     		ldr	r3, [r7, #8]
  47 0012 D31A     		subs	r3, r2, r3
  48 0014 B969     		ldr	r1, [r7, #24]
  49 0016 3A68     		ldr	r2, [r7]
  50 0018 8A1A     		subs	r2, r1, r2
  51 001a 02FB03F2 		mul	r2, r2, r3
ARM GAS  C:\Users\Bruger\AppData\Local\Temp\ccu6y8fK.s 			page 2


  52 001e 7968     		ldr	r1, [r7, #4]
  53 0020 BB68     		ldr	r3, [r7, #8]
  54 0022 CB1A     		subs	r3, r1, r3
  55 0024 92FBF3F2 		sdiv	r2, r2, r3
  56 0028 3B68     		ldr	r3, [r7]
  57 002a 1344     		add	r3, r3, r2
   7:core/Arduino_Math.cpp **** }
  58              		.loc 1 7 0
  59 002c 1846     		mov	r0, r3
  60 002e 1437     		adds	r7, r7, #20
  61              		.cfi_def_cfa_offset 4
  62 0030 BD46     		mov	sp, r7
  63              		.cfi_def_cfa_register 13
  64              		@ sp needed
  65 0032 5DF8047B 		ldr	r7, [sp], #4
  66              		.cfi_restore 7
  67              		.cfi_def_cfa_offset 0
  68 0036 7047     		bx	lr
  69              		.cfi_endproc
  70              	.LFE147:
  71              		.cantunwind
  72              		.fnend
  73              		.size	_Z3maplllll, .-_Z3maplllll
  74              		.section	.text._Z9constrainlll,"ax",%progbits
  75              		.align	2
  76              		.global	_Z9constrainlll
  77              		.thumb
  78              		.thumb_func
  79              		.type	_Z9constrainlll, %function
  80              	_Z9constrainlll:
  81              		.fnstart
  82              	.LFB148:
   8:core/Arduino_Math.cpp **** 
   9:core/Arduino_Math.cpp **** long constrain(long x, long a, long b)
  10:core/Arduino_Math.cpp **** {
  83              		.loc 1 10 0
  84              		.cfi_startproc
  85              		@ args = 0, pretend = 0, frame = 16
  86              		@ frame_needed = 1, uses_anonymous_args = 0
  87              		@ link register save eliminated.
  88 0000 80B4     		push	{r7}
  89              		.cfi_def_cfa_offset 4
  90              		.cfi_offset 7, -4
  91 0002 85B0     		sub	sp, sp, #20
  92              		.cfi_def_cfa_offset 24
  93 0004 00AF     		add	r7, sp, #0
  94              		.cfi_def_cfa_register 7
  95 0006 F860     		str	r0, [r7, #12]
  96 0008 B960     		str	r1, [r7, #8]
  97 000a 7A60     		str	r2, [r7, #4]
  11:core/Arduino_Math.cpp ****   if (x<a) return a;
  98              		.loc 1 11 0
  99 000c FA68     		ldr	r2, [r7, #12]
 100 000e BB68     		ldr	r3, [r7, #8]
 101 0010 9A42     		cmp	r2, r3
 102 0012 01DA     		bge	.L4
 103              		.loc 1 11 0 is_stmt 0 discriminator 1
ARM GAS  C:\Users\Bruger\AppData\Local\Temp\ccu6y8fK.s 			page 3


 104 0014 BB68     		ldr	r3, [r7, #8]
 105 0016 06E0     		b	.L5
 106              	.L4:
  12:core/Arduino_Math.cpp ****   if (x>b) return b;
 107              		.loc 1 12 0 is_stmt 1
 108 0018 FA68     		ldr	r2, [r7, #12]
 109 001a 7B68     		ldr	r3, [r7, #4]
 110 001c 9A42     		cmp	r2, r3
 111 001e 01DD     		ble	.L6
 112              		.loc 1 12 0 is_stmt 0 discriminator 1
 113 0020 7B68     		ldr	r3, [r7, #4]
 114 0022 00E0     		b	.L5
 115              	.L6:
  13:core/Arduino_Math.cpp ****   return x;
 116              		.loc 1 13 0 is_stmt 1
 117 0024 FB68     		ldr	r3, [r7, #12]
 118              	.L5:
  14:core/Arduino_Math.cpp **** }
 119              		.loc 1 14 0
 120 0026 1846     		mov	r0, r3
 121 0028 1437     		adds	r7, r7, #20
 122              		.cfi_def_cfa_offset 4
 123 002a BD46     		mov	sp, r7
 124              		.cfi_def_cfa_register 13
 125              		@ sp needed
 126 002c 5DF8047B 		ldr	r7, [sp], #4
 127              		.cfi_restore 7
 128              		.cfi_def_cfa_offset 0
 129 0030 7047     		bx	lr
 130              		.cfi_endproc
 131              	.LFE148:
 132              		.cantunwind
 133              		.fnend
 134              		.size	_Z9constrainlll, .-_Z9constrainlll
 135 0032 00BF     		.section	.text._Z3minll,"ax",%progbits
 136              		.align	2
 137              		.global	_Z3minll
 138              		.thumb
 139              		.thumb_func
 140              		.type	_Z3minll, %function
 141              	_Z3minll:
 142              		.fnstart
 143              	.LFB149:
  15:core/Arduino_Math.cpp **** 
  16:core/Arduino_Math.cpp **** long min (long x, long y)
  17:core/Arduino_Math.cpp **** {
 144              		.loc 1 17 0
 145              		.cfi_startproc
 146              		@ args = 0, pretend = 0, frame = 8
 147              		@ frame_needed = 1, uses_anonymous_args = 0
 148              		@ link register save eliminated.
 149 0000 80B4     		push	{r7}
 150              		.cfi_def_cfa_offset 4
 151              		.cfi_offset 7, -4
 152 0002 83B0     		sub	sp, sp, #12
 153              		.cfi_def_cfa_offset 16
 154 0004 00AF     		add	r7, sp, #0
ARM GAS  C:\Users\Bruger\AppData\Local\Temp\ccu6y8fK.s 			page 4


 155              		.cfi_def_cfa_register 7
 156 0006 7860     		str	r0, [r7, #4]
 157 0008 3960     		str	r1, [r7]
  18:core/Arduino_Math.cpp ****   return x>y? y: x;
 158              		.loc 1 18 0
 159 000a 7A68     		ldr	r2, [r7, #4]
 160 000c 3B68     		ldr	r3, [r7]
 161 000e 9A42     		cmp	r2, r3
 162 0010 01DD     		ble	.L8
 163              		.loc 1 18 0 is_stmt 0 discriminator 1
 164 0012 3B68     		ldr	r3, [r7]
 165 0014 00E0     		b	.L9
 166              	.L8:
 167              		.loc 1 18 0 discriminator 2
 168 0016 7B68     		ldr	r3, [r7, #4]
 169              	.L9:
  19:core/Arduino_Math.cpp **** }
 170              		.loc 1 19 0 is_stmt 1 discriminator 4
 171 0018 1846     		mov	r0, r3
 172 001a 0C37     		adds	r7, r7, #12
 173              		.cfi_def_cfa_offset 4
 174 001c BD46     		mov	sp, r7
 175              		.cfi_def_cfa_register 13
 176              		@ sp needed
 177 001e 5DF8047B 		ldr	r7, [sp], #4
 178              		.cfi_restore 7
 179              		.cfi_def_cfa_offset 0
 180 0022 7047     		bx	lr
 181              		.cfi_endproc
 182              	.LFE149:
 183              		.cantunwind
 184              		.fnend
 185              		.size	_Z3minll, .-_Z3minll
 186              		.section	.text._Z3maxll,"ax",%progbits
 187              		.align	2
 188              		.global	_Z3maxll
 189              		.thumb
 190              		.thumb_func
 191              		.type	_Z3maxll, %function
 192              	_Z3maxll:
 193              		.fnstart
 194              	.LFB150:
  20:core/Arduino_Math.cpp **** 
  21:core/Arduino_Math.cpp **** long max(long x, long y)
  22:core/Arduino_Math.cpp **** {
 195              		.loc 1 22 0
 196              		.cfi_startproc
 197              		@ args = 0, pretend = 0, frame = 8
 198              		@ frame_needed = 1, uses_anonymous_args = 0
 199              		@ link register save eliminated.
 200 0000 80B4     		push	{r7}
 201              		.cfi_def_cfa_offset 4
 202              		.cfi_offset 7, -4
 203 0002 83B0     		sub	sp, sp, #12
 204              		.cfi_def_cfa_offset 16
 205 0004 00AF     		add	r7, sp, #0
 206              		.cfi_def_cfa_register 7
ARM GAS  C:\Users\Bruger\AppData\Local\Temp\ccu6y8fK.s 			page 5


 207 0006 7860     		str	r0, [r7, #4]
 208 0008 3960     		str	r1, [r7]
  23:core/Arduino_Math.cpp ****   return x>y? y: x;
 209              		.loc 1 23 0
 210 000a 7A68     		ldr	r2, [r7, #4]
 211 000c 3B68     		ldr	r3, [r7]
 212 000e 9A42     		cmp	r2, r3
 213 0010 01DD     		ble	.L12
 214              		.loc 1 23 0 is_stmt 0 discriminator 1
 215 0012 3B68     		ldr	r3, [r7]
 216 0014 00E0     		b	.L13
 217              	.L12:
 218              		.loc 1 23 0 discriminator 2
 219 0016 7B68     		ldr	r3, [r7, #4]
 220              	.L13:
  24:core/Arduino_Math.cpp **** }
 221              		.loc 1 24 0 is_stmt 1 discriminator 4
 222 0018 1846     		mov	r0, r3
 223 001a 0C37     		adds	r7, r7, #12
 224              		.cfi_def_cfa_offset 4
 225 001c BD46     		mov	sp, r7
 226              		.cfi_def_cfa_register 13
 227              		@ sp needed
 228 001e 5DF8047B 		ldr	r7, [sp], #4
 229              		.cfi_restore 7
 230              		.cfi_def_cfa_offset 0
 231 0022 7047     		bx	lr
 232              		.cfi_endproc
 233              	.LFE150:
 234              		.cantunwind
 235              		.fnend
 236              		.size	_Z3maxll, .-_Z3maxll
 237              		.section	.text._Z8makeWordhh,"ax",%progbits
 238              		.align	2
 239              		.global	_Z8makeWordhh
 240              		.thumb
 241              		.thumb_func
 242              		.type	_Z8makeWordhh, %function
 243              	_Z8makeWordhh:
 244              		.fnstart
 245              	.LFB151:
  25:core/Arduino_Math.cpp **** 
  26:core/Arduino_Math.cpp **** //unsigned int makeWord(unsigned int w) { return w; }
  27:core/Arduino_Math.cpp **** uint16_t makeWord(uint8_t h, uint8_t l) { return (h << 8) | l; }
 246              		.loc 1 27 0
 247              		.cfi_startproc
 248              		@ args = 0, pretend = 0, frame = 8
 249              		@ frame_needed = 1, uses_anonymous_args = 0
 250              		@ link register save eliminated.
 251 0000 80B4     		push	{r7}
 252              		.cfi_def_cfa_offset 4
 253              		.cfi_offset 7, -4
 254 0002 83B0     		sub	sp, sp, #12
 255              		.cfi_def_cfa_offset 16
 256 0004 00AF     		add	r7, sp, #0
 257              		.cfi_def_cfa_register 7
 258 0006 0346     		mov	r3, r0
ARM GAS  C:\Users\Bruger\AppData\Local\Temp\ccu6y8fK.s 			page 6


 259 0008 0A46     		mov	r2, r1
 260 000a FB71     		strb	r3, [r7, #7]
 261 000c 1346     		mov	r3, r2
 262 000e BB71     		strb	r3, [r7, #6]
 263              		.loc 1 27 0
 264 0010 FB79     		ldrb	r3, [r7, #7]	@ zero_extendqisi2
 265 0012 1B02     		lsls	r3, r3, #8
 266 0014 9AB2     		uxth	r2, r3
 267 0016 BB79     		ldrb	r3, [r7, #6]	@ zero_extendqisi2
 268 0018 9BB2     		uxth	r3, r3
 269 001a 1343     		orrs	r3, r3, r2
 270 001c 9BB2     		uxth	r3, r3
 271 001e 9BB2     		uxth	r3, r3
 272 0020 1846     		mov	r0, r3
 273 0022 0C37     		adds	r7, r7, #12
 274              		.cfi_def_cfa_offset 4
 275 0024 BD46     		mov	sp, r7
 276              		.cfi_def_cfa_register 13
 277              		@ sp needed
 278 0026 5DF8047B 		ldr	r7, [sp], #4
 279              		.cfi_restore 7
 280              		.cfi_def_cfa_offset 0
 281 002a 7047     		bx	lr
 282              		.cfi_endproc
 283              	.LFE151:
 284              		.cantunwind
 285              		.fnend
 286              		.size	_Z8makeWordhh, .-_Z8makeWordhh
 287              		.section	.rodata
 288              		.type	_ZL2SS, %object
 289              		.size	_ZL2SS, 1
 290              	_ZL2SS:
 291 0000 0A       		.byte	10
 292              		.type	_ZL4MOSI, %object
 293              		.size	_ZL4MOSI, 1
 294              	_ZL4MOSI:
 295 0001 0B       		.byte	11
 296              		.type	_ZL4MISO, %object
 297              		.size	_ZL4MISO, 1
 298              	_ZL4MISO:
 299 0002 0C       		.byte	12
 300              		.type	_ZL3SCK, %object
 301              		.size	_ZL3SCK, 1
 302              	_ZL3SCK:
 303 0003 0D       		.byte	13
 304              		.type	_ZL3SDA, %object
 305              		.size	_ZL3SDA, 1
 306              	_ZL3SDA:
 307 0004 15       		.byte	21
 308              		.type	_ZL3SCL, %object
 309              		.size	_ZL3SCL, 1
 310              	_ZL3SCL:
 311 0005 14       		.byte	20
 312              		.text
 313              	.Letext0:
 314              		.file 2 "c:\\program files (x86)\\cypress\\psoc creator\\4.0\\psoc creator\\import\\gnu\\arm\\4.9.
 315              		.file 3 "c:\\program files (x86)\\cypress\\psoc creator\\4.0\\psoc creator\\import\\gnu\\arm\\4.9.
ARM GAS  C:\Users\Bruger\AppData\Local\Temp\ccu6y8fK.s 			page 7


 316              		.file 4 ".\\core/pins_arduino.h"
 317              		.file 5 "Generated_Source\\PSoC5/core_cm3.h"