ARM GAS  C:\Users\Bruger\AppData\Local\Temp\cc8LV3Pa.s 			page 1


   1              		.syntax unified
   2              		.cpu cortex-m3
   3              		.fpu softvfp
   4              		.eabi_attribute 20, 1
   5              		.eabi_attribute 21, 1
   6              		.eabi_attribute 23, 3
   7              		.eabi_attribute 24, 1
   8              		.eabi_attribute 25, 1
   9              		.eabi_attribute 26, 1
  10              		.eabi_attribute 30, 6
  11              		.eabi_attribute 34, 1
  12              		.eabi_attribute 18, 4
  13              		.thumb
  14              		.file	"Bootloadable.c"
  15              		.text
  16              	.Ltext0:
  17              		.cfi_sections	.debug_frame
  18              		.section	.text.Bootloadable_Load,"ax",%progbits
  19              		.align	2
  20              		.global	Bootloadable_Load
  21              		.thumb
  22              		.thumb_func
  23              		.type	Bootloadable_Load, %function
  24              	Bootloadable_Load:
  25              	.LFB0:
  26              		.file 1 "Generated_Source\\PSoC5\\Bootloadable.c"
   1:Generated_Source\PSoC5/Bootloadable.c **** /****************************************************************************//**
   2:Generated_Source\PSoC5/Bootloadable.c **** * \file Bootloadable.c
   3:Generated_Source\PSoC5/Bootloadable.c **** * \version 1.50
   4:Generated_Source\PSoC5/Bootloadable.c **** *
   5:Generated_Source\PSoC5/Bootloadable.c **** * \brief
   6:Generated_Source\PSoC5/Bootloadable.c **** *   Provides an API for the Bootloadable application.
   7:Generated_Source\PSoC5/Bootloadable.c **** *
   8:Generated_Source\PSoC5/Bootloadable.c **** ********************************************************************************
   9:Generated_Source\PSoC5/Bootloadable.c **** * \copyright
  10:Generated_Source\PSoC5/Bootloadable.c **** * Copyright 2008-2015, Cypress Semiconductor Corporation.  All rights reserved.
  11:Generated_Source\PSoC5/Bootloadable.c **** * You may use this file only in accordance with the license, terms, conditions,
  12:Generated_Source\PSoC5/Bootloadable.c **** * disclaimers, and limitations in the end user license agreement accompanying
  13:Generated_Source\PSoC5/Bootloadable.c **** * the software package with which this file was provided.
  14:Generated_Source\PSoC5/Bootloadable.c **** *******************************************************************************/
  15:Generated_Source\PSoC5/Bootloadable.c **** 
  16:Generated_Source\PSoC5/Bootloadable.c **** #include "Bootloadable.h"
  17:Generated_Source\PSoC5/Bootloadable.c **** 
  18:Generated_Source\PSoC5/Bootloadable.c **** /**
  19:Generated_Source\PSoC5/Bootloadable.c ****  \defgroup functions_group Functions
  20:Generated_Source\PSoC5/Bootloadable.c ****  @{
  21:Generated_Source\PSoC5/Bootloadable.c **** */
  22:Generated_Source\PSoC5/Bootloadable.c **** 
  23:Generated_Source\PSoC5/Bootloadable.c **** #if (CYDEV_PROJ_TYPE == CYDEV_PROJ_TYPE_LOADABLEANDBOOTLOADER)
  24:Generated_Source\PSoC5/Bootloadable.c **** static cystatus Bootloadable_WriteFlashByte(const uint32 address, const uint8 inputValue) CYLARGE \
  25:Generated_Source\PSoC5/Bootloadable.c ****                                ;
  26:Generated_Source\PSoC5/Bootloadable.c **** #endif /*(CYDEV_PROJ_TYPE == CYDEV_PROJ_TYPE_LOADABLEANDBOOTLOADER)*/
  27:Generated_Source\PSoC5/Bootloadable.c **** 
  28:Generated_Source\PSoC5/Bootloadable.c **** /*******************************************************************************
  29:Generated_Source\PSoC5/Bootloadable.c **** * Function Name: Bootloadable_Load
  30:Generated_Source\PSoC5/Bootloadable.c **** ****************************************************************************//**
  31:Generated_Source\PSoC5/Bootloadable.c **** *
ARM GAS  C:\Users\Bruger\AppData\Local\Temp\cc8LV3Pa.s 			page 2


  32:Generated_Source\PSoC5/Bootloadable.c **** * \brief
  33:Generated_Source\PSoC5/Bootloadable.c **** *  Schedules the Bootloader/Launcher to be launched and then performs
  34:Generated_Source\PSoC5/Bootloadable.c **** *  a software reset to launch it
  35:Generated_Source\PSoC5/Bootloadable.c **** *
  36:Generated_Source\PSoC5/Bootloadable.c **** * \return
  37:Generated_Source\PSoC5/Bootloadable.c **** *  This method will never return. It will load a new application and reset
  38:Generated_Source\PSoC5/Bootloadable.c **** *  the device.
  39:Generated_Source\PSoC5/Bootloadable.c **** *
  40:Generated_Source\PSoC5/Bootloadable.c **** *******************************************************************************/
  41:Generated_Source\PSoC5/Bootloadable.c **** void Bootloadable_Load(void) 
  42:Generated_Source\PSoC5/Bootloadable.c **** {
  27              		.loc 1 42 0
  28              		.cfi_startproc
  29              		@ args = 0, pretend = 0, frame = 0
  30              		@ frame_needed = 1, uses_anonymous_args = 0
  31 0000 80B5     		push	{r7, lr}
  32              		.cfi_def_cfa_offset 8
  33              		.cfi_offset 7, -8
  34              		.cfi_offset 14, -4
  35 0002 00AF     		add	r7, sp, #0
  36              		.cfi_def_cfa_register 7
  43:Generated_Source\PSoC5/Bootloadable.c ****     /* Schedule Bootloader to start after reset */
  44:Generated_Source\PSoC5/Bootloadable.c ****     Bootloadable_SET_RUN_TYPE(Bootloadable_SCHEDULE_BTLDR);
  37              		.loc 1 44 0
  38 0004 024B     		ldr	r3, .L2
  39 0006 4022     		movs	r2, #64
  40 0008 1A70     		strb	r2, [r3]
  45:Generated_Source\PSoC5/Bootloadable.c **** 
  46:Generated_Source\PSoC5/Bootloadable.c ****     CySoftwareReset();
  41              		.loc 1 46 0
  42 000a FFF7FEFF 		bl	CySoftwareReset
  47:Generated_Source\PSoC5/Bootloadable.c **** }
  43              		.loc 1 47 0
  44 000e 80BD     		pop	{r7, pc}
  45              	.L3:
  46              		.align	2
  47              	.L2:
  48 0010 FA460040 		.word	1073759994
  49              		.cfi_endproc
  50              	.LFE0:
  51              		.size	Bootloadable_Load, .-Bootloadable_Load
  52              		.section	.text.Bootloadable_SetFlashByte,"ax",%progbits
  53              		.align	2
  54              		.global	Bootloadable_SetFlashByte
  55              		.thumb
  56              		.thumb_func
  57              		.type	Bootloadable_SetFlashByte, %function
  58              	Bootloadable_SetFlashByte:
  59              	.LFB1:
  48:Generated_Source\PSoC5/Bootloadable.c **** 
  49:Generated_Source\PSoC5/Bootloadable.c **** #if (CYDEV_PROJ_TYPE == CYDEV_PROJ_TYPE_LOADABLEANDBOOTLOADER)
  50:Generated_Source\PSoC5/Bootloadable.c **** /*******************************************************************************
  51:Generated_Source\PSoC5/Bootloadable.c **** * Function Name: Bootloadable_GetActiveApplication
  52:Generated_Source\PSoC5/Bootloadable.c **** ****************************************************************************//**
  53:Generated_Source\PSoC5/Bootloadable.c **** *
  54:Generated_Source\PSoC5/Bootloadable.c **** * \brief
  55:Generated_Source\PSoC5/Bootloadable.c **** *   Gets the application which will be loaded after a next reset event.
ARM GAS  C:\Users\Bruger\AppData\Local\Temp\cc8LV3Pa.s 			page 3


  56:Generated_Source\PSoC5/Bootloadable.c **** *   NOTE Intended for the combination project type ONLY!
  57:Generated_Source\PSoC5/Bootloadable.c **** *
  58:Generated_Source\PSoC5/Bootloadable.c **** * \return 
  59:Generated_Source\PSoC5/Bootloadable.c **** *  A number of the current active application set in the metadata section.
  60:Generated_Source\PSoC5/Bootloadable.c **** *  \n  0 - app#0 is set as active.
  61:Generated_Source\PSoC5/Bootloadable.c **** *  \n  1 - app#1 is set as active.
  62:Generated_Source\PSoC5/Bootloadable.c **** *
  63:Generated_Source\PSoC5/Bootloadable.c **** * \note If neither of the applications is set active, then the API returns 0x02.
  64:Generated_Source\PSoC5/Bootloadable.c **** *
  65:Generated_Source\PSoC5/Bootloadable.c **** *******************************************************************************/
  66:Generated_Source\PSoC5/Bootloadable.c **** uint8 Bootloadable_GetActiveApplication(void) CYSMALL \
  67:Generated_Source\PSoC5/Bootloadable.c ****                           
  68:Generated_Source\PSoC5/Bootloadable.c **** {   
  69:Generated_Source\PSoC5/Bootloadable.c ****     uint8 result = Bootloadable_MD_BTLDB_ACTIVE_NONE;
  70:Generated_Source\PSoC5/Bootloadable.c ****     
  71:Generated_Source\PSoC5/Bootloadable.c ****     if (0u != Bootloadable_GET_CODE_DATA( \
  72:Generated_Source\PSoC5/Bootloadable.c ****               Bootloadable_MD_BTLDB_ACTIVE_OFFSET(Bootloadable_MD_BTLDB_ACTIVE_0))) 
  73:Generated_Source\PSoC5/Bootloadable.c ****     {
  74:Generated_Source\PSoC5/Bootloadable.c ****         result = Bootloadable_MD_BTLDB_ACTIVE_0;
  75:Generated_Source\PSoC5/Bootloadable.c ****     }
  76:Generated_Source\PSoC5/Bootloadable.c ****     else if (0u != Bootloadable_GET_CODE_DATA( \
  77:Generated_Source\PSoC5/Bootloadable.c ****                    Bootloadable_MD_BTLDB_ACTIVE_OFFSET(Bootloadable_MD_BTLDB_ACTIVE_1)))
  78:Generated_Source\PSoC5/Bootloadable.c ****     {
  79:Generated_Source\PSoC5/Bootloadable.c ****         result = Bootloadable_MD_BTLDB_ACTIVE_1;    
  80:Generated_Source\PSoC5/Bootloadable.c ****     }
  81:Generated_Source\PSoC5/Bootloadable.c ****     else
  82:Generated_Source\PSoC5/Bootloadable.c ****     {
  83:Generated_Source\PSoC5/Bootloadable.c ****         /*Do nothing, result is none*/
  84:Generated_Source\PSoC5/Bootloadable.c ****     }
  85:Generated_Source\PSoC5/Bootloadable.c ****     
  86:Generated_Source\PSoC5/Bootloadable.c ****     return (result);
  87:Generated_Source\PSoC5/Bootloadable.c **** }
  88:Generated_Source\PSoC5/Bootloadable.c **** 
  89:Generated_Source\PSoC5/Bootloadable.c **** /*******************************************************************************
  90:Generated_Source\PSoC5/Bootloadable.c **** * Function Name: Bootloadable_SetActiveApplication
  91:Generated_Source\PSoC5/Bootloadable.c **** ****************************************************************************//**
  92:Generated_Source\PSoC5/Bootloadable.c **** *
  93:Generated_Source\PSoC5/Bootloadable.c **** * \brief 
  94:Generated_Source\PSoC5/Bootloadable.c **** *   Sets the application which will be loaded after a next reset event.          
  95:Generated_Source\PSoC5/Bootloadable.c **** *   
  96:Generated_Source\PSoC5/Bootloadable.c **** * \details
  97:Generated_Source\PSoC5/Bootloadable.c **** * Theory: 
  98:Generated_Source\PSoC5/Bootloadable.c **** *   This API sets in the Flash (metadata section) the given active application 
  99:Generated_Source\PSoC5/Bootloadable.c **** *   number.
 100:Generated_Source\PSoC5/Bootloadable.c **** *          
 101:Generated_Source\PSoC5/Bootloadable.c **** *   NOTE The active application number is not set directly, but the boolean 
 102:Generated_Source\PSoC5/Bootloadable.c **** *   mark instead means that the application is active or not for the relative 
 103:Generated_Source\PSoC5/Bootloadable.c **** *   metadata. Both metadata sections are updated. For example, if the second 
 104:Generated_Source\PSoC5/Bootloadable.c **** *   application is to be set active, then in the metadata section for the first 
 105:Generated_Source\PSoC5/Bootloadable.c **** *   application there will be a "0" written, which means that it is not active, and 
 106:Generated_Source\PSoC5/Bootloadable.c **** *   for the second metadata section there will be a "1" written, which means that it is 
 107:Generated_Source\PSoC5/Bootloadable.c **** *   active. 
 108:Generated_Source\PSoC5/Bootloadable.c **** *
 109:Generated_Source\PSoC5/Bootloadable.c **** *   NOTE Intended for the combination project type ONLY!
 110:Generated_Source\PSoC5/Bootloadable.c **** *
 111:Generated_Source\PSoC5/Bootloadable.c **** * \param appId  
 112:Generated_Source\PSoC5/Bootloadable.c **** *   The active application number to be written to flash (metadata section) 
ARM GAS  C:\Users\Bruger\AppData\Local\Temp\cc8LV3Pa.s 			page 4


 113:Generated_Source\PSoC5/Bootloadable.c **** *   NOTE Possible values are:
 114:Generated_Source\PSoC5/Bootloadable.c **** *   0 - for the first application
 115:Generated_Source\PSoC5/Bootloadable.c **** *   1 - for the second application.
 116:Generated_Source\PSoC5/Bootloadable.c **** *   Any other number is considered invalid. 
 117:Generated_Source\PSoC5/Bootloadable.c **** *
 118:Generated_Source\PSoC5/Bootloadable.c **** * \return 
 119:Generated_Source\PSoC5/Bootloadable.c **** *   A status of writing to flash operation.
 120:Generated_Source\PSoC5/Bootloadable.c **** *   \n CYRET_SUCCESS - Returned if appId was successfully changed. 
 121:Generated_Source\PSoC5/Bootloadable.c **** *   \n CYRET_BAD_PARAM - Returned if the parameter appID passed to the function has the 
 122:Generated_Source\PSoC5/Bootloadable.c **** *                       same value as the active application ID. 
 123:Generated_Source\PSoC5/Bootloadable.c **** *   \note - The other non-zero value is considered as a failure during writing to flash.  
 124:Generated_Source\PSoC5/Bootloadable.c **** *
 125:Generated_Source\PSoC5/Bootloadable.c **** *   \note - This API does not update Bootloader_activeApp variable.
 126:Generated_Source\PSoC5/Bootloadable.c **** *
 127:Generated_Source\PSoC5/Bootloadable.c **** *******************************************************************************/
 128:Generated_Source\PSoC5/Bootloadable.c **** cystatus Bootloadable_SetActiveApplication(uint8 appId) CYSMALL \
 129:Generated_Source\PSoC5/Bootloadable.c ****                 
 130:Generated_Source\PSoC5/Bootloadable.c **** {
 131:Generated_Source\PSoC5/Bootloadable.c ****     cystatus result = CYRET_SUCCESS;
 132:Generated_Source\PSoC5/Bootloadable.c **** 
 133:Generated_Source\PSoC5/Bootloadable.c ****     uint8 CYDATA idx;
 134:Generated_Source\PSoC5/Bootloadable.c ****     
 135:Generated_Source\PSoC5/Bootloadable.c ****     /* If invalid application number */
 136:Generated_Source\PSoC5/Bootloadable.c ****     if (appId > Bootloadable_MD_BTLDB_ACTIVE_1)
 137:Generated_Source\PSoC5/Bootloadable.c ****     {
 138:Generated_Source\PSoC5/Bootloadable.c ****         result = CYRET_BAD_PARAM;
 139:Generated_Source\PSoC5/Bootloadable.c ****     }
 140:Generated_Source\PSoC5/Bootloadable.c ****     else
 141:Generated_Source\PSoC5/Bootloadable.c ****     {
 142:Generated_Source\PSoC5/Bootloadable.c ****         /* If appID has same value as active application ID */
 143:Generated_Source\PSoC5/Bootloadable.c ****         if (1u == Bootloadable_GET_CODE_DATA(Bootloadable_MD_BTLDB_ACTIVE_OFFSET(appId)))
 144:Generated_Source\PSoC5/Bootloadable.c ****         {
 145:Generated_Source\PSoC5/Bootloadable.c ****             result = CYRET_BAD_PARAM;
 146:Generated_Source\PSoC5/Bootloadable.c ****         }
 147:Generated_Source\PSoC5/Bootloadable.c ****         else
 148:Generated_Source\PSoC5/Bootloadable.c ****         {
 149:Generated_Source\PSoC5/Bootloadable.c ****             /* Updating metadata section */
 150:Generated_Source\PSoC5/Bootloadable.c ****             for(idx = 0u; idx < Bootloadable_MAX_NUM_OF_BTLDB; idx++)
 151:Generated_Source\PSoC5/Bootloadable.c ****             {
 152:Generated_Source\PSoC5/Bootloadable.c ****                 result |= Bootloadable_WriteFlashByte((uint32) Bootloadable_MD_BTLDB_ACTIVE_OFFSET(
 153:Generated_Source\PSoC5/Bootloadable.c ****                                                                                             (uint8)
 154:Generated_Source\PSoC5/Bootloadable.c ****             }
 155:Generated_Source\PSoC5/Bootloadable.c ****         }
 156:Generated_Source\PSoC5/Bootloadable.c ****     }
 157:Generated_Source\PSoC5/Bootloadable.c ****     
 158:Generated_Source\PSoC5/Bootloadable.c ****     return (result);
 159:Generated_Source\PSoC5/Bootloadable.c **** }
 160:Generated_Source\PSoC5/Bootloadable.c **** 
 161:Generated_Source\PSoC5/Bootloadable.c **** /*******************************************************************************
 162:Generated_Source\PSoC5/Bootloadable.c **** * Function Name: Bootloadable_WriteFlashByte
 163:Generated_Source\PSoC5/Bootloadable.c **** ****************************************************************************//**
 164:Generated_Source\PSoC5/Bootloadable.c **** *
 165:Generated_Source\PSoC5/Bootloadable.c **** * \brief 
 166:Generated_Source\PSoC5/Bootloadable.c **** *   This API writes to flash the specified data.
 167:Generated_Source\PSoC5/Bootloadable.c **** *
 168:Generated_Source\PSoC5/Bootloadable.c **** * \param address 
 169:Generated_Source\PSoC5/Bootloadable.c **** *   The address in flash.
ARM GAS  C:\Users\Bruger\AppData\Local\Temp\cc8LV3Pa.s 			page 5


 170:Generated_Source\PSoC5/Bootloadable.c **** *
 171:Generated_Source\PSoC5/Bootloadable.c **** * \param inputValue 
 172:Generated_Source\PSoC5/Bootloadable.c **** *   One-byte data.
 173:Generated_Source\PSoC5/Bootloadable.c **** *
 174:Generated_Source\PSoC5/Bootloadable.c **** * \return 
 175:Generated_Source\PSoC5/Bootloadable.c **** *   A status of the writing to flash procedure.
 176:Generated_Source\PSoC5/Bootloadable.c **** *
 177:Generated_Source\PSoC5/Bootloadable.c **** *******************************************************************************/
 178:Generated_Source\PSoC5/Bootloadable.c **** static cystatus Bootloadable_WriteFlashByte(const uint32 address, const uint8 inputValue) CYLARGE \
 179:Generated_Source\PSoC5/Bootloadable.c ****                                
 180:Generated_Source\PSoC5/Bootloadable.c **** {
 181:Generated_Source\PSoC5/Bootloadable.c ****     cystatus result = CYRET_SUCCESS;
 182:Generated_Source\PSoC5/Bootloadable.c ****     uint32 flsAddr = address - CYDEV_FLASH_BASE;
 183:Generated_Source\PSoC5/Bootloadable.c ****     uint8  rowData[CYDEV_FLS_ROW_SIZE];
 184:Generated_Source\PSoC5/Bootloadable.c **** 
 185:Generated_Source\PSoC5/Bootloadable.c ****     #if !(CY_PSOC4)
 186:Generated_Source\PSoC5/Bootloadable.c ****         uint8 arrayId = ( uint8 )(flsAddr / CYDEV_FLS_SECTOR_SIZE);
 187:Generated_Source\PSoC5/Bootloadable.c ****     #endif  /* !(CY_PSOC4) */
 188:Generated_Source\PSoC5/Bootloadable.c **** 
 189:Generated_Source\PSoC5/Bootloadable.c ****     #if (CY_PSOC4)
 190:Generated_Source\PSoC5/Bootloadable.c ****         uint16 rowNum = ( uint16 )(flsAddr / CYDEV_FLS_ROW_SIZE);
 191:Generated_Source\PSoC5/Bootloadable.c ****     #else
 192:Generated_Source\PSoC5/Bootloadable.c ****         uint16 rowNum = ( uint16 )((flsAddr % CYDEV_FLS_SECTOR_SIZE) / CYDEV_FLS_ROW_SIZE);
 193:Generated_Source\PSoC5/Bootloadable.c ****     #endif  /* (CY_PSOC4) */
 194:Generated_Source\PSoC5/Bootloadable.c **** 
 195:Generated_Source\PSoC5/Bootloadable.c ****     uint32 baseAddr = address - (address % CYDEV_FLS_ROW_SIZE);
 196:Generated_Source\PSoC5/Bootloadable.c ****     uint16 idx;
 197:Generated_Source\PSoC5/Bootloadable.c **** 
 198:Generated_Source\PSoC5/Bootloadable.c ****     for(idx = 0u; idx < CYDEV_FLS_ROW_SIZE; idx++)
 199:Generated_Source\PSoC5/Bootloadable.c ****     {
 200:Generated_Source\PSoC5/Bootloadable.c ****         rowData[idx] = (uint8)Bootloadable_GET_CODE_DATA(baseAddr + idx);
 201:Generated_Source\PSoC5/Bootloadable.c ****     }
 202:Generated_Source\PSoC5/Bootloadable.c **** 
 203:Generated_Source\PSoC5/Bootloadable.c ****     rowData[address % CYDEV_FLS_ROW_SIZE] = inputValue;
 204:Generated_Source\PSoC5/Bootloadable.c **** 
 205:Generated_Source\PSoC5/Bootloadable.c ****     #if(CY_PSOC4)
 206:Generated_Source\PSoC5/Bootloadable.c ****         result = CySysFlashWriteRow((uint32) rowNum, rowData);
 207:Generated_Source\PSoC5/Bootloadable.c ****     #else
 208:Generated_Source\PSoC5/Bootloadable.c ****         result = CyWriteRowData(arrayId, rowNum, rowData);
 209:Generated_Source\PSoC5/Bootloadable.c ****     #endif  /* (CY_PSOC4) */
 210:Generated_Source\PSoC5/Bootloadable.c **** 
 211:Generated_Source\PSoC5/Bootloadable.c ****     #if(CY_PSOC5)
 212:Generated_Source\PSoC5/Bootloadable.c ****         /***************************************************************************
 213:Generated_Source\PSoC5/Bootloadable.c ****         * When writing to flash, data in the instruction cache can become stale.
 214:Generated_Source\PSoC5/Bootloadable.c ****         * Therefore, the cache data does not correlate to the data just written to
 215:Generated_Source\PSoC5/Bootloadable.c ****         * flash. A call to CyFlushCache() is required to invalidate the data in the
 216:Generated_Source\PSoC5/Bootloadable.c ****         * cache and force fresh information to be loaded from flash.
 217:Generated_Source\PSoC5/Bootloadable.c ****         ***************************************************************************/
 218:Generated_Source\PSoC5/Bootloadable.c ****         CyFlushCache();
 219:Generated_Source\PSoC5/Bootloadable.c ****     #endif /* (CY_PSOC5) */
 220:Generated_Source\PSoC5/Bootloadable.c ****     return (result);
 221:Generated_Source\PSoC5/Bootloadable.c **** }
 222:Generated_Source\PSoC5/Bootloadable.c **** #endif /*(CYDEV_PROJ_TYPE == CYDEV_PROJ_TYPE_LOADABLEANDBOOTLOADER)*/
 223:Generated_Source\PSoC5/Bootloadable.c **** /** @} functions_group */
 224:Generated_Source\PSoC5/Bootloadable.c **** 
 225:Generated_Source\PSoC5/Bootloadable.c **** /*******************************************************************************
 226:Generated_Source\PSoC5/Bootloadable.c **** * The following code is OBSOLETE and must not be used.
ARM GAS  C:\Users\Bruger\AppData\Local\Temp\cc8LV3Pa.s 			page 6


 227:Generated_Source\PSoC5/Bootloadable.c **** *******************************************************************************/
 228:Generated_Source\PSoC5/Bootloadable.c **** void Bootloadable_SetFlashByte(uint32 address, uint8 runType) 
 229:Generated_Source\PSoC5/Bootloadable.c **** {
  60              		.loc 1 229 0
  61              		.cfi_startproc
  62              		@ args = 0, pretend = 0, frame = 280
  63              		@ frame_needed = 1, uses_anonymous_args = 0
  64 0000 80B5     		push	{r7, lr}
  65              		.cfi_def_cfa_offset 8
  66              		.cfi_offset 7, -8
  67              		.cfi_offset 14, -4
  68 0002 C6B0     		sub	sp, sp, #280
  69              		.cfi_def_cfa_offset 288
  70 0004 00AF     		add	r7, sp, #0
  71              		.cfi_def_cfa_register 7
  72 0006 3B1D     		adds	r3, r7, #4
  73 0008 1860     		str	r0, [r3]
  74 000a 0A46     		mov	r2, r1
  75 000c FB1C     		adds	r3, r7, #3
  76 000e 1A70     		strb	r2, [r3]
 230:Generated_Source\PSoC5/Bootloadable.c ****     uint32 flsAddr = address - CYDEV_FLASH_BASE;
  77              		.loc 1 230 0
  78 0010 3B1D     		adds	r3, r7, #4
  79 0012 1B68     		ldr	r3, [r3]
  80 0014 C7F81031 		str	r3, [r7, #272]
 231:Generated_Source\PSoC5/Bootloadable.c ****     uint8  rowData[CYDEV_FLS_ROW_SIZE];
 232:Generated_Source\PSoC5/Bootloadable.c **** 
 233:Generated_Source\PSoC5/Bootloadable.c ****     #if !(CY_PSOC4)
 234:Generated_Source\PSoC5/Bootloadable.c ****         uint8 arrayId = ( uint8 )(flsAddr / CYDEV_FLS_SECTOR_SIZE);
  81              		.loc 1 234 0
  82 0018 D7F81031 		ldr	r3, [r7, #272]
  83 001c 1B0C     		lsrs	r3, r3, #16
  84 001e 87F80F31 		strb	r3, [r7, #271]
 235:Generated_Source\PSoC5/Bootloadable.c ****     #endif  /* !(CY_PSOC4) */
 236:Generated_Source\PSoC5/Bootloadable.c **** 
 237:Generated_Source\PSoC5/Bootloadable.c ****     #if (CY_PSOC4)
 238:Generated_Source\PSoC5/Bootloadable.c ****         uint16 rowNum = ( uint16 )(flsAddr / CYDEV_FLS_ROW_SIZE);
 239:Generated_Source\PSoC5/Bootloadable.c ****     #else
 240:Generated_Source\PSoC5/Bootloadable.c ****         uint16 rowNum = ( uint16 )((flsAddr % CYDEV_FLS_SECTOR_SIZE) / CYDEV_FLS_ROW_SIZE);
  85              		.loc 1 240 0
  86 0022 D7F81031 		ldr	r3, [r7, #272]
  87 0026 9BB2     		uxth	r3, r3
  88 0028 1B0A     		lsrs	r3, r3, #8
  89 002a A7F80C31 		strh	r3, [r7, #268]	@ movhi
 241:Generated_Source\PSoC5/Bootloadable.c ****     #endif  /* (CY_PSOC4) */
 242:Generated_Source\PSoC5/Bootloadable.c **** 
 243:Generated_Source\PSoC5/Bootloadable.c ****     uint32 baseAddr = address - (address % CYDEV_FLS_ROW_SIZE);
  90              		.loc 1 243 0
  91 002e 3B1D     		adds	r3, r7, #4
  92 0030 1B68     		ldr	r3, [r3]
  93 0032 23F0FF03 		bic	r3, r3, #255
  94 0036 C7F80831 		str	r3, [r7, #264]
 244:Generated_Source\PSoC5/Bootloadable.c ****     uint16 idx;
 245:Generated_Source\PSoC5/Bootloadable.c **** 
 246:Generated_Source\PSoC5/Bootloadable.c **** 
 247:Generated_Source\PSoC5/Bootloadable.c ****     for (idx = 0u; idx < CYDEV_FLS_ROW_SIZE; idx++)
  95              		.loc 1 247 0
ARM GAS  C:\Users\Bruger\AppData\Local\Temp\cc8LV3Pa.s 			page 7


  96 003a 0023     		movs	r3, #0
  97 003c A7F81631 		strh	r3, [r7, #278]	@ movhi
  98 0040 0FE0     		b	.L5
  99              	.L6:
 248:Generated_Source\PSoC5/Bootloadable.c ****     {
 249:Generated_Source\PSoC5/Bootloadable.c ****         rowData[idx] = Bootloadable_GET_CODE_DATA(baseAddr + idx);
 100              		.loc 1 249 0 discriminator 3
 101 0042 B7F81631 		ldrh	r3, [r7, #278]
 102 0046 B7F81611 		ldrh	r1, [r7, #278]
 103 004a D7F80821 		ldr	r2, [r7, #264]
 104 004e 0A44     		add	r2, r2, r1
 105 0050 1178     		ldrb	r1, [r2]	@ zero_extendqisi2
 106 0052 07F10802 		add	r2, r7, #8
 107 0056 D154     		strb	r1, [r2, r3]
 247:Generated_Source\PSoC5/Bootloadable.c ****     {
 108              		.loc 1 247 0 discriminator 3
 109 0058 B7F81631 		ldrh	r3, [r7, #278]
 110 005c 0133     		adds	r3, r3, #1
 111 005e A7F81631 		strh	r3, [r7, #278]	@ movhi
 112              	.L5:
 247:Generated_Source\PSoC5/Bootloadable.c ****     {
 113              		.loc 1 247 0 is_stmt 0 discriminator 1
 114 0062 B7F81631 		ldrh	r3, [r7, #278]
 115 0066 FF2B     		cmp	r3, #255
 116 0068 EBD9     		bls	.L6
 250:Generated_Source\PSoC5/Bootloadable.c ****     }
 251:Generated_Source\PSoC5/Bootloadable.c ****     rowData[address % CYDEV_FLS_ROW_SIZE] = runType;
 117              		.loc 1 251 0 is_stmt 1
 118 006a 3B1D     		adds	r3, r7, #4
 119 006c 1B68     		ldr	r3, [r3]
 120 006e DBB2     		uxtb	r3, r3
 121 0070 07F10802 		add	r2, r7, #8
 122 0074 F91C     		adds	r1, r7, #3
 123 0076 0978     		ldrb	r1, [r1]
 124 0078 D154     		strb	r1, [r2, r3]
 252:Generated_Source\PSoC5/Bootloadable.c **** 
 253:Generated_Source\PSoC5/Bootloadable.c ****     #if(CY_PSOC4)
 254:Generated_Source\PSoC5/Bootloadable.c ****         (void) CySysFlashWriteRow((uint32) rowNum, rowData);
 255:Generated_Source\PSoC5/Bootloadable.c ****     #else
 256:Generated_Source\PSoC5/Bootloadable.c ****         (void) CyWriteRowData(arrayId, rowNum, rowData);
 125              		.loc 1 256 0
 126 007a 97F80F11 		ldrb	r1, [r7, #271]	@ zero_extendqisi2
 127 007e B7F80C21 		ldrh	r2, [r7, #268]
 128 0082 07F10803 		add	r3, r7, #8
 129 0086 0846     		mov	r0, r1
 130 0088 1146     		mov	r1, r2
 131 008a 1A46     		mov	r2, r3
 132 008c FFF7FEFF 		bl	CyWriteRowData
 257:Generated_Source\PSoC5/Bootloadable.c ****     #endif  /* (CY_PSOC4) */
 258:Generated_Source\PSoC5/Bootloadable.c **** 
 259:Generated_Source\PSoC5/Bootloadable.c ****     #if(CY_PSOC5)
 260:Generated_Source\PSoC5/Bootloadable.c ****         /***************************************************************************
 261:Generated_Source\PSoC5/Bootloadable.c ****         * When writing to flash, data in the instruction cache can become obsolete.
 262:Generated_Source\PSoC5/Bootloadable.c ****         * Therefore, the cache data does not correlate to the data just written to
 263:Generated_Source\PSoC5/Bootloadable.c ****         * flash. A call to CyFlushCache() is required to invalidate the data in the
 264:Generated_Source\PSoC5/Bootloadable.c ****         * cache and force fresh information to be loaded from flash.
 265:Generated_Source\PSoC5/Bootloadable.c ****         ***************************************************************************/
ARM GAS  C:\Users\Bruger\AppData\Local\Temp\cc8LV3Pa.s 			page 8


 266:Generated_Source\PSoC5/Bootloadable.c ****         CyFlushCache();
 133              		.loc 1 266 0
 134 0090 FFF7FEFF 		bl	CyFlushCache
 267:Generated_Source\PSoC5/Bootloadable.c ****     #endif /* (CY_PSOC5) */
 268:Generated_Source\PSoC5/Bootloadable.c **** }
 135              		.loc 1 268 0
 136 0094 07F58C77 		add	r7, r7, #280
 137              		.cfi_def_cfa_offset 8
 138 0098 BD46     		mov	sp, r7
 139              		.cfi_def_cfa_register 13
 140              		@ sp needed
 141 009a 80BD     		pop	{r7, pc}
 142              		.cfi_endproc
 143              	.LFE1:
 144              		.size	Bootloadable_SetFlashByte, .-Bootloadable_SetFlashByte
 145              		.text
 146              	.Letext0:
 147              		.file 2 "Generated_Source\\PSoC5\\cytypes.h"