ARM GAS  C:\Users\Bruger\AppData\Local\Temp\cc3emB1q.s 			page 1


   1              		.syntax unified
   2              		.cpu cortex-m3
   3              		.fpu softvfp
   4              		.eabi_attribute 20, 1
   5              		.eabi_attribute 21, 1
   6              		.eabi_attribute 23, 3
   7              		.eabi_attribute 24, 1
   8              		.eabi_attribute 25, 1
   9              		.eabi_attribute 26, 1
  10              		.eabi_attribute 30, 6
  11              		.eabi_attribute 34, 1
  12              		.eabi_attribute 18, 4
  13              		.thumb
  14              		.file	"Counter_1ms_PM.c"
  15              		.text
  16              	.Ltext0:
  17              		.cfi_sections	.debug_frame
  18              		.bss
  19              		.align	2
  20              	Counter_1ms_backup:
  21 0000 00000000 		.space	6
  21      0000
  22 0006 0000     		.section	.text.Counter_1ms_SaveConfig,"ax",%progbits
  23              		.align	2
  24              		.global	Counter_1ms_SaveConfig
  25              		.thumb
  26              		.thumb_func
  27              		.type	Counter_1ms_SaveConfig, %function
  28              	Counter_1ms_SaveConfig:
  29              	.LFB0:
  30              		.file 1 "Generated_Source\\PSoC5\\Counter_1ms_PM.c"
   1:Generated_Source\PSoC5/Counter_1ms_PM.c **** /*******************************************************************************
   2:Generated_Source\PSoC5/Counter_1ms_PM.c **** * File Name: Counter_1ms_PM.c  
   3:Generated_Source\PSoC5/Counter_1ms_PM.c **** * Version 3.0
   4:Generated_Source\PSoC5/Counter_1ms_PM.c **** *
   5:Generated_Source\PSoC5/Counter_1ms_PM.c **** *  Description:
   6:Generated_Source\PSoC5/Counter_1ms_PM.c **** *    This file provides the power management source code to API for the
   7:Generated_Source\PSoC5/Counter_1ms_PM.c **** *    Counter.  
   8:Generated_Source\PSoC5/Counter_1ms_PM.c **** *
   9:Generated_Source\PSoC5/Counter_1ms_PM.c **** *   Note:
  10:Generated_Source\PSoC5/Counter_1ms_PM.c **** *     None
  11:Generated_Source\PSoC5/Counter_1ms_PM.c **** *
  12:Generated_Source\PSoC5/Counter_1ms_PM.c **** ********************************************************************************
  13:Generated_Source\PSoC5/Counter_1ms_PM.c **** * Copyright 2008-2012, Cypress Semiconductor Corporation.  All rights reserved.
  14:Generated_Source\PSoC5/Counter_1ms_PM.c **** * You may use this file only in accordance with the license, terms, conditions, 
  15:Generated_Source\PSoC5/Counter_1ms_PM.c **** * disclaimers, and limitations in the end user license agreement accompanying 
  16:Generated_Source\PSoC5/Counter_1ms_PM.c **** * the software package with which this file was provided.
  17:Generated_Source\PSoC5/Counter_1ms_PM.c **** *******************************************************************************/
  18:Generated_Source\PSoC5/Counter_1ms_PM.c **** 
  19:Generated_Source\PSoC5/Counter_1ms_PM.c **** #include "Counter_1ms.h"
  20:Generated_Source\PSoC5/Counter_1ms_PM.c **** 
  21:Generated_Source\PSoC5/Counter_1ms_PM.c **** static Counter_1ms_backupStruct Counter_1ms_backup;
  22:Generated_Source\PSoC5/Counter_1ms_PM.c **** 
  23:Generated_Source\PSoC5/Counter_1ms_PM.c **** 
  24:Generated_Source\PSoC5/Counter_1ms_PM.c **** /*******************************************************************************
  25:Generated_Source\PSoC5/Counter_1ms_PM.c **** * Function Name: Counter_1ms_SaveConfig
  26:Generated_Source\PSoC5/Counter_1ms_PM.c **** ********************************************************************************
ARM GAS  C:\Users\Bruger\AppData\Local\Temp\cc3emB1q.s 			page 2


  27:Generated_Source\PSoC5/Counter_1ms_PM.c **** * Summary:
  28:Generated_Source\PSoC5/Counter_1ms_PM.c **** *     Save the current user configuration
  29:Generated_Source\PSoC5/Counter_1ms_PM.c **** *
  30:Generated_Source\PSoC5/Counter_1ms_PM.c **** * Parameters:  
  31:Generated_Source\PSoC5/Counter_1ms_PM.c **** *  void
  32:Generated_Source\PSoC5/Counter_1ms_PM.c **** *
  33:Generated_Source\PSoC5/Counter_1ms_PM.c **** * Return: 
  34:Generated_Source\PSoC5/Counter_1ms_PM.c **** *  void
  35:Generated_Source\PSoC5/Counter_1ms_PM.c **** *
  36:Generated_Source\PSoC5/Counter_1ms_PM.c **** * Global variables:
  37:Generated_Source\PSoC5/Counter_1ms_PM.c **** *  Counter_1ms_backup:  Variables of this global structure are modified to 
  38:Generated_Source\PSoC5/Counter_1ms_PM.c **** *  store the values of non retention configuration registers when Sleep() API is 
  39:Generated_Source\PSoC5/Counter_1ms_PM.c **** *  called.
  40:Generated_Source\PSoC5/Counter_1ms_PM.c **** *
  41:Generated_Source\PSoC5/Counter_1ms_PM.c **** *******************************************************************************/
  42:Generated_Source\PSoC5/Counter_1ms_PM.c **** void Counter_1ms_SaveConfig(void) 
  43:Generated_Source\PSoC5/Counter_1ms_PM.c **** {
  31              		.loc 1 43 0
  32              		.cfi_startproc
  33              		@ args = 0, pretend = 0, frame = 0
  34              		@ frame_needed = 1, uses_anonymous_args = 0
  35              		@ link register save eliminated.
  36 0000 80B4     		push	{r7}
  37              		.cfi_def_cfa_offset 4
  38              		.cfi_offset 7, -4
  39 0002 00AF     		add	r7, sp, #0
  40              		.cfi_def_cfa_register 7
  44:Generated_Source\PSoC5/Counter_1ms_PM.c ****     #if (!Counter_1ms_UsingFixedFunction)
  45:Generated_Source\PSoC5/Counter_1ms_PM.c **** 
  46:Generated_Source\PSoC5/Counter_1ms_PM.c ****         Counter_1ms_backup.CounterUdb = Counter_1ms_ReadCounter();
  47:Generated_Source\PSoC5/Counter_1ms_PM.c **** 
  48:Generated_Source\PSoC5/Counter_1ms_PM.c ****         #if(!Counter_1ms_ControlRegRemoved)
  49:Generated_Source\PSoC5/Counter_1ms_PM.c ****             Counter_1ms_backup.CounterControlRegister = Counter_1ms_ReadControlRegister();
  50:Generated_Source\PSoC5/Counter_1ms_PM.c ****         #endif /* (!Counter_1ms_ControlRegRemoved) */
  51:Generated_Source\PSoC5/Counter_1ms_PM.c **** 
  52:Generated_Source\PSoC5/Counter_1ms_PM.c ****     #endif /* (!Counter_1ms_UsingFixedFunction) */
  53:Generated_Source\PSoC5/Counter_1ms_PM.c **** }
  41              		.loc 1 53 0
  42 0004 BD46     		mov	sp, r7
  43              		.cfi_def_cfa_register 13
  44              		@ sp needed
  45 0006 5DF8047B 		ldr	r7, [sp], #4
  46              		.cfi_restore 7
  47              		.cfi_def_cfa_offset 0
  48 000a 7047     		bx	lr
  49              		.cfi_endproc
  50              	.LFE0:
  51              		.size	Counter_1ms_SaveConfig, .-Counter_1ms_SaveConfig
  52              		.section	.text.Counter_1ms_RestoreConfig,"ax",%progbits
  53              		.align	2
  54              		.global	Counter_1ms_RestoreConfig
  55              		.thumb
  56              		.thumb_func
  57              		.type	Counter_1ms_RestoreConfig, %function
  58              	Counter_1ms_RestoreConfig:
  59              	.LFB1:
  54:Generated_Source\PSoC5/Counter_1ms_PM.c **** 
ARM GAS  C:\Users\Bruger\AppData\Local\Temp\cc3emB1q.s 			page 3


  55:Generated_Source\PSoC5/Counter_1ms_PM.c **** 
  56:Generated_Source\PSoC5/Counter_1ms_PM.c **** /*******************************************************************************
  57:Generated_Source\PSoC5/Counter_1ms_PM.c **** * Function Name: Counter_1ms_RestoreConfig
  58:Generated_Source\PSoC5/Counter_1ms_PM.c **** ********************************************************************************
  59:Generated_Source\PSoC5/Counter_1ms_PM.c **** *
  60:Generated_Source\PSoC5/Counter_1ms_PM.c **** * Summary:
  61:Generated_Source\PSoC5/Counter_1ms_PM.c **** *  Restores the current user configuration.
  62:Generated_Source\PSoC5/Counter_1ms_PM.c **** *
  63:Generated_Source\PSoC5/Counter_1ms_PM.c **** * Parameters:  
  64:Generated_Source\PSoC5/Counter_1ms_PM.c **** *  void
  65:Generated_Source\PSoC5/Counter_1ms_PM.c **** *
  66:Generated_Source\PSoC5/Counter_1ms_PM.c **** * Return: 
  67:Generated_Source\PSoC5/Counter_1ms_PM.c **** *  void
  68:Generated_Source\PSoC5/Counter_1ms_PM.c **** *
  69:Generated_Source\PSoC5/Counter_1ms_PM.c **** * Global variables:
  70:Generated_Source\PSoC5/Counter_1ms_PM.c **** *  Counter_1ms_backup:  Variables of this global structure are used to 
  71:Generated_Source\PSoC5/Counter_1ms_PM.c **** *  restore the values of non retention registers on wakeup from sleep mode.
  72:Generated_Source\PSoC5/Counter_1ms_PM.c **** *
  73:Generated_Source\PSoC5/Counter_1ms_PM.c **** *******************************************************************************/
  74:Generated_Source\PSoC5/Counter_1ms_PM.c **** void Counter_1ms_RestoreConfig(void) 
  75:Generated_Source\PSoC5/Counter_1ms_PM.c **** {      
  60              		.loc 1 75 0
  61              		.cfi_startproc
  62              		@ args = 0, pretend = 0, frame = 0
  63              		@ frame_needed = 1, uses_anonymous_args = 0
  64              		@ link register save eliminated.
  65 0000 80B4     		push	{r7}
  66              		.cfi_def_cfa_offset 4
  67              		.cfi_offset 7, -4
  68 0002 00AF     		add	r7, sp, #0
  69              		.cfi_def_cfa_register 7
  76:Generated_Source\PSoC5/Counter_1ms_PM.c ****     #if (!Counter_1ms_UsingFixedFunction)
  77:Generated_Source\PSoC5/Counter_1ms_PM.c **** 
  78:Generated_Source\PSoC5/Counter_1ms_PM.c ****        Counter_1ms_WriteCounter(Counter_1ms_backup.CounterUdb);
  79:Generated_Source\PSoC5/Counter_1ms_PM.c **** 
  80:Generated_Source\PSoC5/Counter_1ms_PM.c ****         #if(!Counter_1ms_ControlRegRemoved)
  81:Generated_Source\PSoC5/Counter_1ms_PM.c ****             Counter_1ms_WriteControlRegister(Counter_1ms_backup.CounterControlRegister);
  82:Generated_Source\PSoC5/Counter_1ms_PM.c ****         #endif /* (!Counter_1ms_ControlRegRemoved) */
  83:Generated_Source\PSoC5/Counter_1ms_PM.c **** 
  84:Generated_Source\PSoC5/Counter_1ms_PM.c ****     #endif /* (!Counter_1ms_UsingFixedFunction) */
  85:Generated_Source\PSoC5/Counter_1ms_PM.c **** }
  70              		.loc 1 85 0
  71 0004 BD46     		mov	sp, r7
  72              		.cfi_def_cfa_register 13
  73              		@ sp needed
  74 0006 5DF8047B 		ldr	r7, [sp], #4
  75              		.cfi_restore 7
  76              		.cfi_def_cfa_offset 0
  77 000a 7047     		bx	lr
  78              		.cfi_endproc
  79              	.LFE1:
  80              		.size	Counter_1ms_RestoreConfig, .-Counter_1ms_RestoreConfig
  81              		.section	.text.Counter_1ms_Sleep,"ax",%progbits
  82              		.align	2
  83              		.global	Counter_1ms_Sleep
  84              		.thumb
  85              		.thumb_func
ARM GAS  C:\Users\Bruger\AppData\Local\Temp\cc3emB1q.s 			page 4


  86              		.type	Counter_1ms_Sleep, %function
  87              	Counter_1ms_Sleep:
  88              	.LFB2:
  86:Generated_Source\PSoC5/Counter_1ms_PM.c **** 
  87:Generated_Source\PSoC5/Counter_1ms_PM.c **** 
  88:Generated_Source\PSoC5/Counter_1ms_PM.c **** /*******************************************************************************
  89:Generated_Source\PSoC5/Counter_1ms_PM.c **** * Function Name: Counter_1ms_Sleep
  90:Generated_Source\PSoC5/Counter_1ms_PM.c **** ********************************************************************************
  91:Generated_Source\PSoC5/Counter_1ms_PM.c **** * Summary:
  92:Generated_Source\PSoC5/Counter_1ms_PM.c **** *     Stop and Save the user configuration
  93:Generated_Source\PSoC5/Counter_1ms_PM.c **** *
  94:Generated_Source\PSoC5/Counter_1ms_PM.c **** * Parameters:  
  95:Generated_Source\PSoC5/Counter_1ms_PM.c **** *  void
  96:Generated_Source\PSoC5/Counter_1ms_PM.c **** *
  97:Generated_Source\PSoC5/Counter_1ms_PM.c **** * Return: 
  98:Generated_Source\PSoC5/Counter_1ms_PM.c **** *  void
  99:Generated_Source\PSoC5/Counter_1ms_PM.c **** *
 100:Generated_Source\PSoC5/Counter_1ms_PM.c **** * Global variables:
 101:Generated_Source\PSoC5/Counter_1ms_PM.c **** *  Counter_1ms_backup.enableState:  Is modified depending on the enable 
 102:Generated_Source\PSoC5/Counter_1ms_PM.c **** *  state of the block before entering sleep mode.
 103:Generated_Source\PSoC5/Counter_1ms_PM.c **** *
 104:Generated_Source\PSoC5/Counter_1ms_PM.c **** *******************************************************************************/
 105:Generated_Source\PSoC5/Counter_1ms_PM.c **** void Counter_1ms_Sleep(void) 
 106:Generated_Source\PSoC5/Counter_1ms_PM.c **** {
  89              		.loc 1 106 0
  90              		.cfi_startproc
  91              		@ args = 0, pretend = 0, frame = 0
  92              		@ frame_needed = 1, uses_anonymous_args = 0
  93 0000 80B5     		push	{r7, lr}
  94              		.cfi_def_cfa_offset 8
  95              		.cfi_offset 7, -8
  96              		.cfi_offset 14, -4
  97 0002 00AF     		add	r7, sp, #0
  98              		.cfi_def_cfa_register 7
 107:Generated_Source\PSoC5/Counter_1ms_PM.c ****     #if(!Counter_1ms_ControlRegRemoved)
 108:Generated_Source\PSoC5/Counter_1ms_PM.c ****         /* Save Counter's enable state */
 109:Generated_Source\PSoC5/Counter_1ms_PM.c ****         if(Counter_1ms_CTRL_ENABLE == (Counter_1ms_CONTROL & Counter_1ms_CTRL_ENABLE))
  99              		.loc 1 109 0
 100 0004 094B     		ldr	r3, .L6
 101 0006 1B78     		ldrb	r3, [r3]
 102 0008 DBB2     		uxtb	r3, r3
 103 000a 03F00103 		and	r3, r3, #1
 104 000e 002B     		cmp	r3, #0
 105 0010 03D0     		beq	.L4
 110:Generated_Source\PSoC5/Counter_1ms_PM.c ****         {
 111:Generated_Source\PSoC5/Counter_1ms_PM.c ****             /* Counter is enabled */
 112:Generated_Source\PSoC5/Counter_1ms_PM.c ****             Counter_1ms_backup.CounterEnableState = 1u;
 106              		.loc 1 112 0
 107 0012 074B     		ldr	r3, .L6+4
 108 0014 0122     		movs	r2, #1
 109 0016 1A70     		strb	r2, [r3]
 110 0018 02E0     		b	.L5
 111              	.L4:
 113:Generated_Source\PSoC5/Counter_1ms_PM.c ****         }
 114:Generated_Source\PSoC5/Counter_1ms_PM.c ****         else
 115:Generated_Source\PSoC5/Counter_1ms_PM.c ****         {
 116:Generated_Source\PSoC5/Counter_1ms_PM.c ****             /* Counter is disabled */
ARM GAS  C:\Users\Bruger\AppData\Local\Temp\cc3emB1q.s 			page 5


 117:Generated_Source\PSoC5/Counter_1ms_PM.c ****             Counter_1ms_backup.CounterEnableState = 0u;
 112              		.loc 1 117 0
 113 001a 054B     		ldr	r3, .L6+4
 114 001c 0022     		movs	r2, #0
 115 001e 1A70     		strb	r2, [r3]
 116              	.L5:
 118:Generated_Source\PSoC5/Counter_1ms_PM.c ****         }
 119:Generated_Source\PSoC5/Counter_1ms_PM.c ****     #else
 120:Generated_Source\PSoC5/Counter_1ms_PM.c ****         Counter_1ms_backup.CounterEnableState = 1u;
 121:Generated_Source\PSoC5/Counter_1ms_PM.c ****         if(Counter_1ms_backup.CounterEnableState != 0u)
 122:Generated_Source\PSoC5/Counter_1ms_PM.c ****         {
 123:Generated_Source\PSoC5/Counter_1ms_PM.c ****             Counter_1ms_backup.CounterEnableState = 0u;
 124:Generated_Source\PSoC5/Counter_1ms_PM.c ****         }
 125:Generated_Source\PSoC5/Counter_1ms_PM.c ****     #endif /* (!Counter_1ms_ControlRegRemoved) */
 126:Generated_Source\PSoC5/Counter_1ms_PM.c ****     
 127:Generated_Source\PSoC5/Counter_1ms_PM.c ****     Counter_1ms_Stop();
 117              		.loc 1 127 0
 118 0020 FFF7FEFF 		bl	Counter_1ms_Stop
 128:Generated_Source\PSoC5/Counter_1ms_PM.c ****     Counter_1ms_SaveConfig();
 119              		.loc 1 128 0
 120 0024 FFF7FEFF 		bl	Counter_1ms_SaveConfig
 129:Generated_Source\PSoC5/Counter_1ms_PM.c **** }
 121              		.loc 1 129 0
 122 0028 80BD     		pop	{r7, pc}
 123              	.L7:
 124 002a 00BF     		.align	2
 125              	.L6:
 126 002c 0C4F0040 		.word	1073762060
 127 0030 00000000 		.word	Counter_1ms_backup
 128              		.cfi_endproc
 129              	.LFE2:
 130              		.size	Counter_1ms_Sleep, .-Counter_1ms_Sleep
 131              		.section	.text.Counter_1ms_Wakeup,"ax",%progbits
 132              		.align	2
 133              		.global	Counter_1ms_Wakeup
 134              		.thumb
 135              		.thumb_func
 136              		.type	Counter_1ms_Wakeup, %function
 137              	Counter_1ms_Wakeup:
 138              	.LFB3:
 130:Generated_Source\PSoC5/Counter_1ms_PM.c **** 
 131:Generated_Source\PSoC5/Counter_1ms_PM.c **** 
 132:Generated_Source\PSoC5/Counter_1ms_PM.c **** /*******************************************************************************
 133:Generated_Source\PSoC5/Counter_1ms_PM.c **** * Function Name: Counter_1ms_Wakeup
 134:Generated_Source\PSoC5/Counter_1ms_PM.c **** ********************************************************************************
 135:Generated_Source\PSoC5/Counter_1ms_PM.c **** *
 136:Generated_Source\PSoC5/Counter_1ms_PM.c **** * Summary:
 137:Generated_Source\PSoC5/Counter_1ms_PM.c **** *  Restores and enables the user configuration
 138:Generated_Source\PSoC5/Counter_1ms_PM.c **** *  
 139:Generated_Source\PSoC5/Counter_1ms_PM.c **** * Parameters:  
 140:Generated_Source\PSoC5/Counter_1ms_PM.c **** *  void
 141:Generated_Source\PSoC5/Counter_1ms_PM.c **** *
 142:Generated_Source\PSoC5/Counter_1ms_PM.c **** * Return: 
 143:Generated_Source\PSoC5/Counter_1ms_PM.c **** *  void
 144:Generated_Source\PSoC5/Counter_1ms_PM.c **** *
 145:Generated_Source\PSoC5/Counter_1ms_PM.c **** * Global variables:
 146:Generated_Source\PSoC5/Counter_1ms_PM.c **** *  Counter_1ms_backup.enableState:  Is used to restore the enable state of 
ARM GAS  C:\Users\Bruger\AppData\Local\Temp\cc3emB1q.s 			page 6


 147:Generated_Source\PSoC5/Counter_1ms_PM.c **** *  block on wakeup from sleep mode.
 148:Generated_Source\PSoC5/Counter_1ms_PM.c **** *
 149:Generated_Source\PSoC5/Counter_1ms_PM.c **** *******************************************************************************/
 150:Generated_Source\PSoC5/Counter_1ms_PM.c **** void Counter_1ms_Wakeup(void) 
 151:Generated_Source\PSoC5/Counter_1ms_PM.c **** {
 139              		.loc 1 151 0
 140              		.cfi_startproc
 141              		@ args = 0, pretend = 0, frame = 0
 142              		@ frame_needed = 1, uses_anonymous_args = 0
 143 0000 80B5     		push	{r7, lr}
 144              		.cfi_def_cfa_offset 8
 145              		.cfi_offset 7, -8
 146              		.cfi_offset 14, -4
 147 0002 00AF     		add	r7, sp, #0
 148              		.cfi_def_cfa_register 7
 152:Generated_Source\PSoC5/Counter_1ms_PM.c ****     Counter_1ms_RestoreConfig();
 149              		.loc 1 152 0
 150 0004 FFF7FEFF 		bl	Counter_1ms_RestoreConfig
 153:Generated_Source\PSoC5/Counter_1ms_PM.c ****     #if(!Counter_1ms_ControlRegRemoved)
 154:Generated_Source\PSoC5/Counter_1ms_PM.c ****         if(Counter_1ms_backup.CounterEnableState == 1u)
 151              		.loc 1 154 0
 152 0008 034B     		ldr	r3, .L10
 153 000a 1B78     		ldrb	r3, [r3]	@ zero_extendqisi2
 154 000c 012B     		cmp	r3, #1
 155 000e 01D1     		bne	.L8
 155:Generated_Source\PSoC5/Counter_1ms_PM.c ****         {
 156:Generated_Source\PSoC5/Counter_1ms_PM.c ****             /* Enable Counter's operation */
 157:Generated_Source\PSoC5/Counter_1ms_PM.c ****             Counter_1ms_Enable();
 156              		.loc 1 157 0
 157 0010 FFF7FEFF 		bl	Counter_1ms_Enable
 158              	.L8:
 158:Generated_Source\PSoC5/Counter_1ms_PM.c ****         } /* Do nothing if Counter was disabled before */    
 159:Generated_Source\PSoC5/Counter_1ms_PM.c ****     #endif /* (!Counter_1ms_ControlRegRemoved) */
 160:Generated_Source\PSoC5/Counter_1ms_PM.c ****     
 161:Generated_Source\PSoC5/Counter_1ms_PM.c **** }
 159              		.loc 1 161 0
 160 0014 80BD     		pop	{r7, pc}
 161              	.L11:
 162 0016 00BF     		.align	2
 163              	.L10:
 164 0018 00000000 		.word	Counter_1ms_backup
 165              		.cfi_endproc
 166              	.LFE3:
 167              		.size	Counter_1ms_Wakeup, .-Counter_1ms_Wakeup
 168              		.text
 169              	.Letext0:
 170              		.file 2 "Generated_Source\\PSoC5\\cytypes.h"
 171              		.file 3 "Generated_Source\\PSoC5\\Counter_1ms.h"