ARM GAS  C:\Users\Bruger\AppData\Local\Temp\cc4KdDNK.s 			page 1


   1              		.syntax unified
   2              		.cpu cortex-m3
   3              		.fpu softvfp
   4              		.eabi_attribute 20, 1
   5              		.eabi_attribute 21, 1
   6              		.eabi_attribute 23, 3
   7              		.eabi_attribute 24, 1
   8              		.eabi_attribute 25, 1
   9              		.eabi_attribute 26, 1
  10              		.eabi_attribute 30, 6
  11              		.eabi_attribute 34, 1
  12              		.eabi_attribute 18, 4
  13              		.thumb
  14              		.file	"CrankTriggerCaptureCounter.c"
  15              		.text
  16              	.Ltext0:
  17              		.cfi_sections	.debug_frame
  18              		.global	CrankTriggerCaptureCounter_initVar
  19              		.bss
  20              		.type	CrankTriggerCaptureCounter_initVar, %object
  21              		.size	CrankTriggerCaptureCounter_initVar, 1
  22              	CrankTriggerCaptureCounter_initVar:
  23 0000 00       		.space	1
  24              		.section	.text.CrankTriggerCaptureCounter_Init,"ax",%progbits
  25              		.align	2
  26              		.global	CrankTriggerCaptureCounter_Init
  27              		.thumb
  28              		.thumb_func
  29              		.type	CrankTriggerCaptureCounter_Init, %function
  30              	CrankTriggerCaptureCounter_Init:
  31              	.LFB0:
  32              		.file 1 "Generated_Source\\PSoC5\\CrankTriggerCaptureCounter.c"
   1:Generated_Source\PSoC5/CrankTriggerCaptureCounter.c **** /*******************************************************************************
   2:Generated_Source\PSoC5/CrankTriggerCaptureCounter.c **** * File Name: CrankTriggerCaptureCounter.c  
   3:Generated_Source\PSoC5/CrankTriggerCaptureCounter.c **** * Version 3.0
   4:Generated_Source\PSoC5/CrankTriggerCaptureCounter.c **** *
   5:Generated_Source\PSoC5/CrankTriggerCaptureCounter.c **** *  Description:
   6:Generated_Source\PSoC5/CrankTriggerCaptureCounter.c **** *     The Counter component consists of a 8, 16, 24 or 32-bit counter with
   7:Generated_Source\PSoC5/CrankTriggerCaptureCounter.c **** *     a selectable period between 2 and 2^Width - 1.  
   8:Generated_Source\PSoC5/CrankTriggerCaptureCounter.c **** *
   9:Generated_Source\PSoC5/CrankTriggerCaptureCounter.c **** *   Note:
  10:Generated_Source\PSoC5/CrankTriggerCaptureCounter.c **** *     None
  11:Generated_Source\PSoC5/CrankTriggerCaptureCounter.c **** *
  12:Generated_Source\PSoC5/CrankTriggerCaptureCounter.c **** ********************************************************************************
  13:Generated_Source\PSoC5/CrankTriggerCaptureCounter.c **** * Copyright 2008-2012, Cypress Semiconductor Corporation.  All rights reserved.
  14:Generated_Source\PSoC5/CrankTriggerCaptureCounter.c **** * You may use this file only in accordance with the license, terms, conditions, 
  15:Generated_Source\PSoC5/CrankTriggerCaptureCounter.c **** * disclaimers, and limitations in the end user license agreement accompanying 
  16:Generated_Source\PSoC5/CrankTriggerCaptureCounter.c **** * the software package with which this file was provided.
  17:Generated_Source\PSoC5/CrankTriggerCaptureCounter.c **** *******************************************************************************/
  18:Generated_Source\PSoC5/CrankTriggerCaptureCounter.c **** 
  19:Generated_Source\PSoC5/CrankTriggerCaptureCounter.c **** #include "CrankTriggerCaptureCounter.h"
  20:Generated_Source\PSoC5/CrankTriggerCaptureCounter.c **** 
  21:Generated_Source\PSoC5/CrankTriggerCaptureCounter.c **** uint8 CrankTriggerCaptureCounter_initVar = 0u;
  22:Generated_Source\PSoC5/CrankTriggerCaptureCounter.c **** 
  23:Generated_Source\PSoC5/CrankTriggerCaptureCounter.c **** 
  24:Generated_Source\PSoC5/CrankTriggerCaptureCounter.c **** /*******************************************************************************
  25:Generated_Source\PSoC5/CrankTriggerCaptureCounter.c **** * Function Name: CrankTriggerCaptureCounter_Init
ARM GAS  C:\Users\Bruger\AppData\Local\Temp\cc4KdDNK.s 			page 2


  26:Generated_Source\PSoC5/CrankTriggerCaptureCounter.c **** ********************************************************************************
  27:Generated_Source\PSoC5/CrankTriggerCaptureCounter.c **** * Summary:
  28:Generated_Source\PSoC5/CrankTriggerCaptureCounter.c **** *     Initialize to the schematic state
  29:Generated_Source\PSoC5/CrankTriggerCaptureCounter.c **** * 
  30:Generated_Source\PSoC5/CrankTriggerCaptureCounter.c **** * Parameters:  
  31:Generated_Source\PSoC5/CrankTriggerCaptureCounter.c **** *  void  
  32:Generated_Source\PSoC5/CrankTriggerCaptureCounter.c **** *
  33:Generated_Source\PSoC5/CrankTriggerCaptureCounter.c **** * Return: 
  34:Generated_Source\PSoC5/CrankTriggerCaptureCounter.c **** *  void
  35:Generated_Source\PSoC5/CrankTriggerCaptureCounter.c **** *
  36:Generated_Source\PSoC5/CrankTriggerCaptureCounter.c **** *******************************************************************************/
  37:Generated_Source\PSoC5/CrankTriggerCaptureCounter.c **** void CrankTriggerCaptureCounter_Init(void) 
  38:Generated_Source\PSoC5/CrankTriggerCaptureCounter.c **** {
  33              		.loc 1 38 0
  34              		.cfi_startproc
  35              		@ args = 0, pretend = 0, frame = 8
  36              		@ frame_needed = 1, uses_anonymous_args = 0
  37 0000 80B5     		push	{r7, lr}
  38              		.cfi_def_cfa_offset 8
  39              		.cfi_offset 7, -8
  40              		.cfi_offset 14, -4
  41 0002 82B0     		sub	sp, sp, #8
  42              		.cfi_def_cfa_offset 16
  43 0004 00AF     		add	r7, sp, #0
  44              		.cfi_def_cfa_register 7
  39:Generated_Source\PSoC5/CrankTriggerCaptureCounter.c ****         #if (!CrankTriggerCaptureCounter_UsingFixedFunction && !CrankTriggerCaptureCounter_ControlR
  40:Generated_Source\PSoC5/CrankTriggerCaptureCounter.c ****             uint8 ctrl;
  41:Generated_Source\PSoC5/CrankTriggerCaptureCounter.c ****         #endif /* (!CrankTriggerCaptureCounter_UsingFixedFunction && !CrankTriggerCaptureCounter_Co
  42:Generated_Source\PSoC5/CrankTriggerCaptureCounter.c ****         
  43:Generated_Source\PSoC5/CrankTriggerCaptureCounter.c ****         #if(!CrankTriggerCaptureCounter_UsingFixedFunction) 
  44:Generated_Source\PSoC5/CrankTriggerCaptureCounter.c ****             /* Interrupt State Backup for Critical Region*/
  45:Generated_Source\PSoC5/CrankTriggerCaptureCounter.c ****             uint8 CrankTriggerCaptureCounter_interruptState;
  46:Generated_Source\PSoC5/CrankTriggerCaptureCounter.c ****         #endif /* (!CrankTriggerCaptureCounter_UsingFixedFunction) */
  47:Generated_Source\PSoC5/CrankTriggerCaptureCounter.c ****         
  48:Generated_Source\PSoC5/CrankTriggerCaptureCounter.c ****         #if (CrankTriggerCaptureCounter_UsingFixedFunction)
  49:Generated_Source\PSoC5/CrankTriggerCaptureCounter.c ****             /* Clear all bits but the enable bit (if it's already set for Timer operation */
  50:Generated_Source\PSoC5/CrankTriggerCaptureCounter.c ****             CrankTriggerCaptureCounter_CONTROL &= CrankTriggerCaptureCounter_CTRL_ENABLE;
  51:Generated_Source\PSoC5/CrankTriggerCaptureCounter.c ****             
  52:Generated_Source\PSoC5/CrankTriggerCaptureCounter.c ****             /* Clear the mode bits for continuous run mode */
  53:Generated_Source\PSoC5/CrankTriggerCaptureCounter.c ****             #if (CY_PSOC5A)
  54:Generated_Source\PSoC5/CrankTriggerCaptureCounter.c ****                 CrankTriggerCaptureCounter_CONTROL2 &= ((uint8)(~CrankTriggerCaptureCounter_CTRL_MO
  55:Generated_Source\PSoC5/CrankTriggerCaptureCounter.c ****             #endif /* (CY_PSOC5A) */
  56:Generated_Source\PSoC5/CrankTriggerCaptureCounter.c ****             #if (CY_PSOC3 || CY_PSOC5LP)
  57:Generated_Source\PSoC5/CrankTriggerCaptureCounter.c ****                 CrankTriggerCaptureCounter_CONTROL3 &= ((uint8)(~CrankTriggerCaptureCounter_CTRL_MO
  58:Generated_Source\PSoC5/CrankTriggerCaptureCounter.c ****             #endif /* (CY_PSOC3 || CY_PSOC5LP) */
  59:Generated_Source\PSoC5/CrankTriggerCaptureCounter.c ****             /* Check if One Shot mode is enabled i.e. RunMode !=0*/
  60:Generated_Source\PSoC5/CrankTriggerCaptureCounter.c ****             #if (CrankTriggerCaptureCounter_RunModeUsed != 0x0u)
  61:Generated_Source\PSoC5/CrankTriggerCaptureCounter.c ****                 /* Set 3rd bit of Control register to enable one shot mode */
  62:Generated_Source\PSoC5/CrankTriggerCaptureCounter.c ****                 CrankTriggerCaptureCounter_CONTROL |= CrankTriggerCaptureCounter_ONESHOT;
  63:Generated_Source\PSoC5/CrankTriggerCaptureCounter.c ****             #endif /* (CrankTriggerCaptureCounter_RunModeUsed != 0x0u) */
  64:Generated_Source\PSoC5/CrankTriggerCaptureCounter.c ****             
  65:Generated_Source\PSoC5/CrankTriggerCaptureCounter.c ****             /* Set the IRQ to use the status register interrupts */
  66:Generated_Source\PSoC5/CrankTriggerCaptureCounter.c ****             CrankTriggerCaptureCounter_CONTROL2 |= CrankTriggerCaptureCounter_CTRL2_IRQ_SEL;
  67:Generated_Source\PSoC5/CrankTriggerCaptureCounter.c ****             
  68:Generated_Source\PSoC5/CrankTriggerCaptureCounter.c ****             /* Clear and Set SYNCTC and SYNCCMP bits of RT1 register */
  69:Generated_Source\PSoC5/CrankTriggerCaptureCounter.c ****             CrankTriggerCaptureCounter_RT1 &= ((uint8)(~CrankTriggerCaptureCounter_RT1_MASK));
  70:Generated_Source\PSoC5/CrankTriggerCaptureCounter.c ****             CrankTriggerCaptureCounter_RT1 |= CrankTriggerCaptureCounter_SYNC;     
ARM GAS  C:\Users\Bruger\AppData\Local\Temp\cc4KdDNK.s 			page 3


  71:Generated_Source\PSoC5/CrankTriggerCaptureCounter.c ****                     
  72:Generated_Source\PSoC5/CrankTriggerCaptureCounter.c ****             /*Enable DSI Sync all all inputs of the Timer*/
  73:Generated_Source\PSoC5/CrankTriggerCaptureCounter.c ****             CrankTriggerCaptureCounter_RT1 &= ((uint8)(~CrankTriggerCaptureCounter_SYNCDSI_MASK));
  74:Generated_Source\PSoC5/CrankTriggerCaptureCounter.c ****             CrankTriggerCaptureCounter_RT1 |= CrankTriggerCaptureCounter_SYNCDSI_EN;
  75:Generated_Source\PSoC5/CrankTriggerCaptureCounter.c **** 
  76:Generated_Source\PSoC5/CrankTriggerCaptureCounter.c ****         #else
  77:Generated_Source\PSoC5/CrankTriggerCaptureCounter.c ****             #if(!CrankTriggerCaptureCounter_ControlRegRemoved)
  78:Generated_Source\PSoC5/CrankTriggerCaptureCounter.c ****             /* Set the default compare mode defined in the parameter */
  79:Generated_Source\PSoC5/CrankTriggerCaptureCounter.c ****             ctrl = CrankTriggerCaptureCounter_CONTROL & ((uint8)(~CrankTriggerCaptureCounter_CTRL_C
  45              		.loc 1 79 0
  46 0006 1E4B     		ldr	r3, .L2
  47 0008 1B78     		ldrb	r3, [r3]
  48 000a DBB2     		uxtb	r3, r3
  49 000c 23F00703 		bic	r3, r3, #7
  50 0010 FB71     		strb	r3, [r7, #7]
  80:Generated_Source\PSoC5/CrankTriggerCaptureCounter.c ****             CrankTriggerCaptureCounter_CONTROL = ctrl | CrankTriggerCaptureCounter_DEFAULT_COMPARE_
  51              		.loc 1 80 0
  52 0012 1B4A     		ldr	r2, .L2
  53 0014 FB79     		ldrb	r3, [r7, #7]
  54 0016 43F00303 		orr	r3, r3, #3
  55 001a DBB2     		uxtb	r3, r3
  56 001c 1370     		strb	r3, [r2]
  81:Generated_Source\PSoC5/CrankTriggerCaptureCounter.c ****             
  82:Generated_Source\PSoC5/CrankTriggerCaptureCounter.c ****             /* Set the default capture mode defined in the parameter */
  83:Generated_Source\PSoC5/CrankTriggerCaptureCounter.c ****             ctrl = CrankTriggerCaptureCounter_CONTROL & ((uint8)(~CrankTriggerCaptureCounter_CTRL_C
  57              		.loc 1 83 0
  58 001e 184B     		ldr	r3, .L2
  59 0020 1B78     		ldrb	r3, [r3]
  60 0022 DBB2     		uxtb	r3, r3
  61 0024 23F00303 		bic	r3, r3, #3
  62 0028 FB71     		strb	r3, [r7, #7]
  84:Generated_Source\PSoC5/CrankTriggerCaptureCounter.c ****             
  85:Generated_Source\PSoC5/CrankTriggerCaptureCounter.c ****             #if( 0 != CrankTriggerCaptureCounter_CAPTURE_MODE_CONF)
  86:Generated_Source\PSoC5/CrankTriggerCaptureCounter.c ****                 CrankTriggerCaptureCounter_CONTROL = ctrl | CrankTriggerCaptureCounter_DEFAULT_CAPT
  63              		.loc 1 86 0
  64 002a 154A     		ldr	r2, .L2
  65 002c FB79     		ldrb	r3, [r7, #7]
  66 002e 43F00803 		orr	r3, r3, #8
  67 0032 DBB2     		uxtb	r3, r3
  68 0034 1370     		strb	r3, [r2]
  87:Generated_Source\PSoC5/CrankTriggerCaptureCounter.c ****             #else
  88:Generated_Source\PSoC5/CrankTriggerCaptureCounter.c ****                 CrankTriggerCaptureCounter_CONTROL = ctrl;
  89:Generated_Source\PSoC5/CrankTriggerCaptureCounter.c ****             #endif /* 0 != CrankTriggerCaptureCounter_CAPTURE_MODE */ 
  90:Generated_Source\PSoC5/CrankTriggerCaptureCounter.c ****             
  91:Generated_Source\PSoC5/CrankTriggerCaptureCounter.c ****             #endif /* (!CrankTriggerCaptureCounter_ControlRegRemoved) */
  92:Generated_Source\PSoC5/CrankTriggerCaptureCounter.c ****         #endif /* (CrankTriggerCaptureCounter_UsingFixedFunction) */
  93:Generated_Source\PSoC5/CrankTriggerCaptureCounter.c ****         
  94:Generated_Source\PSoC5/CrankTriggerCaptureCounter.c ****         /* Clear all data in the FIFO's */
  95:Generated_Source\PSoC5/CrankTriggerCaptureCounter.c ****         #if (!CrankTriggerCaptureCounter_UsingFixedFunction)
  96:Generated_Source\PSoC5/CrankTriggerCaptureCounter.c ****             CrankTriggerCaptureCounter_ClearFIFO();
  69              		.loc 1 96 0
  70 0036 FFF7FEFF 		bl	CrankTriggerCaptureCounter_ClearFIFO
  97:Generated_Source\PSoC5/CrankTriggerCaptureCounter.c ****         #endif /* (!CrankTriggerCaptureCounter_UsingFixedFunction) */
  98:Generated_Source\PSoC5/CrankTriggerCaptureCounter.c ****         
  99:Generated_Source\PSoC5/CrankTriggerCaptureCounter.c ****         /* Set Initial values from Configuration */
 100:Generated_Source\PSoC5/CrankTriggerCaptureCounter.c ****         CrankTriggerCaptureCounter_WritePeriod(CrankTriggerCaptureCounter_INIT_PERIOD_VALUE);
  71              		.loc 1 100 0
ARM GAS  C:\Users\Bruger\AppData\Local\Temp\cc4KdDNK.s 			page 4


  72 003a 4FF6FF70 		movw	r0, #65535
  73 003e FFF7FEFF 		bl	CrankTriggerCaptureCounter_WritePeriod
 101:Generated_Source\PSoC5/CrankTriggerCaptureCounter.c ****         #if (!(CrankTriggerCaptureCounter_UsingFixedFunction && (CY_PSOC5A)))
 102:Generated_Source\PSoC5/CrankTriggerCaptureCounter.c ****             CrankTriggerCaptureCounter_WriteCounter(CrankTriggerCaptureCounter_INIT_COUNTER_VALUE);
  74              		.loc 1 102 0
  75 0042 0020     		movs	r0, #0
  76 0044 FFF7FEFF 		bl	CrankTriggerCaptureCounter_WriteCounter
 103:Generated_Source\PSoC5/CrankTriggerCaptureCounter.c ****         #endif /* (!(CrankTriggerCaptureCounter_UsingFixedFunction && (CY_PSOC5A))) */
 104:Generated_Source\PSoC5/CrankTriggerCaptureCounter.c ****         CrankTriggerCaptureCounter_SetInterruptMode(CrankTriggerCaptureCounter_INIT_INTERRUPTS_MASK
  77              		.loc 1 104 0
  78 0048 1C20     		movs	r0, #28
  79 004a FFF7FEFF 		bl	CrankTriggerCaptureCounter_SetInterruptMode
 105:Generated_Source\PSoC5/CrankTriggerCaptureCounter.c ****         
 106:Generated_Source\PSoC5/CrankTriggerCaptureCounter.c ****         #if (!CrankTriggerCaptureCounter_UsingFixedFunction)
 107:Generated_Source\PSoC5/CrankTriggerCaptureCounter.c ****             /* Read the status register to clear the unwanted interrupts */
 108:Generated_Source\PSoC5/CrankTriggerCaptureCounter.c ****             (void)CrankTriggerCaptureCounter_ReadStatusRegister();
  80              		.loc 1 108 0
  81 004e FFF7FEFF 		bl	CrankTriggerCaptureCounter_ReadStatusRegister
 109:Generated_Source\PSoC5/CrankTriggerCaptureCounter.c ****             /* Set the compare value (only available to non-fixed function implementation */
 110:Generated_Source\PSoC5/CrankTriggerCaptureCounter.c ****             CrankTriggerCaptureCounter_WriteCompare(CrankTriggerCaptureCounter_INIT_COMPARE_VALUE);
  82              		.loc 1 110 0
  83 0052 4FF6FF70 		movw	r0, #65535
  84 0056 FFF7FEFF 		bl	CrankTriggerCaptureCounter_WriteCompare
 111:Generated_Source\PSoC5/CrankTriggerCaptureCounter.c ****             /* Use the interrupt output of the status register for IRQ output */
 112:Generated_Source\PSoC5/CrankTriggerCaptureCounter.c ****             
 113:Generated_Source\PSoC5/CrankTriggerCaptureCounter.c ****             /* CyEnterCriticalRegion and CyExitCriticalRegion are used to mark following region cri
 114:Generated_Source\PSoC5/CrankTriggerCaptureCounter.c ****             /* Enter Critical Region*/
 115:Generated_Source\PSoC5/CrankTriggerCaptureCounter.c ****             CrankTriggerCaptureCounter_interruptState = CyEnterCriticalSection();
  85              		.loc 1 115 0
  86 005a FFF7FEFF 		bl	CyEnterCriticalSection
  87 005e 0346     		mov	r3, r0
  88 0060 BB71     		strb	r3, [r7, #6]
 116:Generated_Source\PSoC5/CrankTriggerCaptureCounter.c ****             
 117:Generated_Source\PSoC5/CrankTriggerCaptureCounter.c ****             CrankTriggerCaptureCounter_STATUS_AUX_CTRL |= CrankTriggerCaptureCounter_STATUS_ACTL_IN
  89              		.loc 1 117 0
  90 0062 084A     		ldr	r2, .L2+4
  91 0064 074B     		ldr	r3, .L2+4
  92 0066 1B78     		ldrb	r3, [r3]
  93 0068 DBB2     		uxtb	r3, r3
  94 006a 43F01003 		orr	r3, r3, #16
  95 006e DBB2     		uxtb	r3, r3
  96 0070 1370     		strb	r3, [r2]
 118:Generated_Source\PSoC5/CrankTriggerCaptureCounter.c ****             
 119:Generated_Source\PSoC5/CrankTriggerCaptureCounter.c ****             /* Exit Critical Region*/
 120:Generated_Source\PSoC5/CrankTriggerCaptureCounter.c ****             CyExitCriticalSection(CrankTriggerCaptureCounter_interruptState);
  97              		.loc 1 120 0
  98 0072 BB79     		ldrb	r3, [r7, #6]	@ zero_extendqisi2
  99 0074 1846     		mov	r0, r3
 100 0076 FFF7FEFF 		bl	CyExitCriticalSection
 121:Generated_Source\PSoC5/CrankTriggerCaptureCounter.c ****             
 122:Generated_Source\PSoC5/CrankTriggerCaptureCounter.c ****         #endif /* (!CrankTriggerCaptureCounter_UsingFixedFunction) */
 123:Generated_Source\PSoC5/CrankTriggerCaptureCounter.c **** }
 101              		.loc 1 123 0
 102 007a 0837     		adds	r7, r7, #8
 103              		.cfi_def_cfa_offset 8
 104 007c BD46     		mov	sp, r7
 105              		.cfi_def_cfa_register 13
ARM GAS  C:\Users\Bruger\AppData\Local\Temp\cc4KdDNK.s 			page 5


 106              		@ sp needed
 107 007e 80BD     		pop	{r7, pc}
 108              	.L3:
 109              		.align	2
 110              	.L2:
 111 0080 78640040 		.word	1073767544
 112 0084 9C640040 		.word	1073767580
 113              		.cfi_endproc
 114              	.LFE0:
 115              		.size	CrankTriggerCaptureCounter_Init, .-CrankTriggerCaptureCounter_Init
 116              		.section	.text.CrankTriggerCaptureCounter_Enable,"ax",%progbits
 117              		.align	2
 118              		.global	CrankTriggerCaptureCounter_Enable
 119              		.thumb
 120              		.thumb_func
 121              		.type	CrankTriggerCaptureCounter_Enable, %function
 122              	CrankTriggerCaptureCounter_Enable:
 123              	.LFB1:
 124:Generated_Source\PSoC5/CrankTriggerCaptureCounter.c **** 
 125:Generated_Source\PSoC5/CrankTriggerCaptureCounter.c **** 
 126:Generated_Source\PSoC5/CrankTriggerCaptureCounter.c **** /*******************************************************************************
 127:Generated_Source\PSoC5/CrankTriggerCaptureCounter.c **** * Function Name: CrankTriggerCaptureCounter_Enable
 128:Generated_Source\PSoC5/CrankTriggerCaptureCounter.c **** ********************************************************************************
 129:Generated_Source\PSoC5/CrankTriggerCaptureCounter.c **** * Summary:
 130:Generated_Source\PSoC5/CrankTriggerCaptureCounter.c **** *     Enable the Counter
 131:Generated_Source\PSoC5/CrankTriggerCaptureCounter.c **** * 
 132:Generated_Source\PSoC5/CrankTriggerCaptureCounter.c **** * Parameters:  
 133:Generated_Source\PSoC5/CrankTriggerCaptureCounter.c **** *  void  
 134:Generated_Source\PSoC5/CrankTriggerCaptureCounter.c **** *
 135:Generated_Source\PSoC5/CrankTriggerCaptureCounter.c **** * Return: 
 136:Generated_Source\PSoC5/CrankTriggerCaptureCounter.c **** *  void
 137:Generated_Source\PSoC5/CrankTriggerCaptureCounter.c **** *
 138:Generated_Source\PSoC5/CrankTriggerCaptureCounter.c **** * Side Effects: 
 139:Generated_Source\PSoC5/CrankTriggerCaptureCounter.c **** *   If the Enable mode is set to Hardware only then this function has no effect 
 140:Generated_Source\PSoC5/CrankTriggerCaptureCounter.c **** *   on the operation of the counter.
 141:Generated_Source\PSoC5/CrankTriggerCaptureCounter.c **** *
 142:Generated_Source\PSoC5/CrankTriggerCaptureCounter.c **** *******************************************************************************/
 143:Generated_Source\PSoC5/CrankTriggerCaptureCounter.c **** void CrankTriggerCaptureCounter_Enable(void) 
 144:Generated_Source\PSoC5/CrankTriggerCaptureCounter.c **** {
 124              		.loc 1 144 0
 125              		.cfi_startproc
 126              		@ args = 0, pretend = 0, frame = 0
 127              		@ frame_needed = 1, uses_anonymous_args = 0
 128              		@ link register save eliminated.
 129 0000 80B4     		push	{r7}
 130              		.cfi_def_cfa_offset 4
 131              		.cfi_offset 7, -4
 132 0002 00AF     		add	r7, sp, #0
 133              		.cfi_def_cfa_register 7
 145:Generated_Source\PSoC5/CrankTriggerCaptureCounter.c ****     /* Globally Enable the Fixed Function Block chosen */
 146:Generated_Source\PSoC5/CrankTriggerCaptureCounter.c ****     #if (CrankTriggerCaptureCounter_UsingFixedFunction)
 147:Generated_Source\PSoC5/CrankTriggerCaptureCounter.c ****         CrankTriggerCaptureCounter_GLOBAL_ENABLE |= CrankTriggerCaptureCounter_BLOCK_EN_MASK;
 148:Generated_Source\PSoC5/CrankTriggerCaptureCounter.c ****         CrankTriggerCaptureCounter_GLOBAL_STBY_ENABLE |= CrankTriggerCaptureCounter_BLOCK_STBY_EN_M
 149:Generated_Source\PSoC5/CrankTriggerCaptureCounter.c ****     #endif /* (CrankTriggerCaptureCounter_UsingFixedFunction) */  
 150:Generated_Source\PSoC5/CrankTriggerCaptureCounter.c ****         
 151:Generated_Source\PSoC5/CrankTriggerCaptureCounter.c ****     /* Enable the counter from the control register  */
 152:Generated_Source\PSoC5/CrankTriggerCaptureCounter.c ****     /* If Fixed Function then make sure Mode is set correctly */
ARM GAS  C:\Users\Bruger\AppData\Local\Temp\cc4KdDNK.s 			page 6


 153:Generated_Source\PSoC5/CrankTriggerCaptureCounter.c ****     /* else make sure reset is clear */
 154:Generated_Source\PSoC5/CrankTriggerCaptureCounter.c ****     #if(!CrankTriggerCaptureCounter_ControlRegRemoved || CrankTriggerCaptureCounter_UsingFixedFunct
 155:Generated_Source\PSoC5/CrankTriggerCaptureCounter.c ****         CrankTriggerCaptureCounter_CONTROL |= CrankTriggerCaptureCounter_CTRL_ENABLE;              
 134              		.loc 1 155 0
 135 0004 054A     		ldr	r2, .L5
 136 0006 054B     		ldr	r3, .L5
 137 0008 1B78     		ldrb	r3, [r3]
 138 000a DBB2     		uxtb	r3, r3
 139 000c 63F07F03 		orn	r3, r3, #127
 140 0010 DBB2     		uxtb	r3, r3
 141 0012 1370     		strb	r3, [r2]
 156:Generated_Source\PSoC5/CrankTriggerCaptureCounter.c ****     #endif /* (!CrankTriggerCaptureCounter_ControlRegRemoved || CrankTriggerCaptureCounter_UsingFix
 157:Generated_Source\PSoC5/CrankTriggerCaptureCounter.c ****     
 158:Generated_Source\PSoC5/CrankTriggerCaptureCounter.c **** }
 142              		.loc 1 158 0
 143 0014 BD46     		mov	sp, r7
 144              		.cfi_def_cfa_register 13
 145              		@ sp needed
 146 0016 5DF8047B 		ldr	r7, [sp], #4
 147              		.cfi_restore 7
 148              		.cfi_def_cfa_offset 0
 149 001a 7047     		bx	lr
 150              	.L6:
 151              		.align	2
 152              	.L5:
 153 001c 78640040 		.word	1073767544
 154              		.cfi_endproc
 155              	.LFE1:
 156              		.size	CrankTriggerCaptureCounter_Enable, .-CrankTriggerCaptureCounter_Enable
 157              		.section	.text.CrankTriggerCaptureCounter_Start,"ax",%progbits
 158              		.align	2
 159              		.global	CrankTriggerCaptureCounter_Start
 160              		.thumb
 161              		.thumb_func
 162              		.type	CrankTriggerCaptureCounter_Start, %function
 163              	CrankTriggerCaptureCounter_Start:
 164              	.LFB2:
 159:Generated_Source\PSoC5/CrankTriggerCaptureCounter.c **** 
 160:Generated_Source\PSoC5/CrankTriggerCaptureCounter.c **** 
 161:Generated_Source\PSoC5/CrankTriggerCaptureCounter.c **** /*******************************************************************************
 162:Generated_Source\PSoC5/CrankTriggerCaptureCounter.c **** * Function Name: CrankTriggerCaptureCounter_Start
 163:Generated_Source\PSoC5/CrankTriggerCaptureCounter.c **** ********************************************************************************
 164:Generated_Source\PSoC5/CrankTriggerCaptureCounter.c **** * Summary:
 165:Generated_Source\PSoC5/CrankTriggerCaptureCounter.c **** *  Enables the counter for operation 
 166:Generated_Source\PSoC5/CrankTriggerCaptureCounter.c **** *
 167:Generated_Source\PSoC5/CrankTriggerCaptureCounter.c **** * Parameters:  
 168:Generated_Source\PSoC5/CrankTriggerCaptureCounter.c **** *  void  
 169:Generated_Source\PSoC5/CrankTriggerCaptureCounter.c **** *
 170:Generated_Source\PSoC5/CrankTriggerCaptureCounter.c **** * Return: 
 171:Generated_Source\PSoC5/CrankTriggerCaptureCounter.c **** *  void
 172:Generated_Source\PSoC5/CrankTriggerCaptureCounter.c **** *
 173:Generated_Source\PSoC5/CrankTriggerCaptureCounter.c **** * Global variables:
 174:Generated_Source\PSoC5/CrankTriggerCaptureCounter.c **** *  CrankTriggerCaptureCounter_initVar: Is modified when this function is called for the  
 175:Generated_Source\PSoC5/CrankTriggerCaptureCounter.c **** *   first time. Is used to ensure that initialization happens only once.
 176:Generated_Source\PSoC5/CrankTriggerCaptureCounter.c **** *
 177:Generated_Source\PSoC5/CrankTriggerCaptureCounter.c **** *******************************************************************************/
 178:Generated_Source\PSoC5/CrankTriggerCaptureCounter.c **** void CrankTriggerCaptureCounter_Start(void) 
ARM GAS  C:\Users\Bruger\AppData\Local\Temp\cc4KdDNK.s 			page 7


 179:Generated_Source\PSoC5/CrankTriggerCaptureCounter.c **** {
 165              		.loc 1 179 0
 166              		.cfi_startproc
 167              		@ args = 0, pretend = 0, frame = 0
 168              		@ frame_needed = 1, uses_anonymous_args = 0
 169 0000 80B5     		push	{r7, lr}
 170              		.cfi_def_cfa_offset 8
 171              		.cfi_offset 7, -8
 172              		.cfi_offset 14, -4
 173 0002 00AF     		add	r7, sp, #0
 174              		.cfi_def_cfa_register 7
 180:Generated_Source\PSoC5/CrankTriggerCaptureCounter.c ****     if(CrankTriggerCaptureCounter_initVar == 0u)
 175              		.loc 1 180 0
 176 0004 054B     		ldr	r3, .L9
 177 0006 1B78     		ldrb	r3, [r3]	@ zero_extendqisi2
 178 0008 002B     		cmp	r3, #0
 179 000a 04D1     		bne	.L8
 181:Generated_Source\PSoC5/CrankTriggerCaptureCounter.c ****     {
 182:Generated_Source\PSoC5/CrankTriggerCaptureCounter.c ****         CrankTriggerCaptureCounter_Init();
 180              		.loc 1 182 0
 181 000c FFF7FEFF 		bl	CrankTriggerCaptureCounter_Init
 183:Generated_Source\PSoC5/CrankTriggerCaptureCounter.c ****         
 184:Generated_Source\PSoC5/CrankTriggerCaptureCounter.c ****         CrankTriggerCaptureCounter_initVar = 1u; /* Clear this bit for Initialization */        
 182              		.loc 1 184 0
 183 0010 024B     		ldr	r3, .L9
 184 0012 0122     		movs	r2, #1
 185 0014 1A70     		strb	r2, [r3]
 186              	.L8:
 185:Generated_Source\PSoC5/CrankTriggerCaptureCounter.c ****     }
 186:Generated_Source\PSoC5/CrankTriggerCaptureCounter.c ****     
 187:Generated_Source\PSoC5/CrankTriggerCaptureCounter.c ****     /* Enable the Counter */
 188:Generated_Source\PSoC5/CrankTriggerCaptureCounter.c ****     CrankTriggerCaptureCounter_Enable();        
 187              		.loc 1 188 0
 188 0016 FFF7FEFF 		bl	CrankTriggerCaptureCounter_Enable
 189:Generated_Source\PSoC5/CrankTriggerCaptureCounter.c **** }
 189              		.loc 1 189 0
 190 001a 80BD     		pop	{r7, pc}
 191              	.L10:
 192              		.align	2
 193              	.L9:
 194 001c 00000000 		.word	CrankTriggerCaptureCounter_initVar
 195              		.cfi_endproc
 196              	.LFE2:
 197              		.size	CrankTriggerCaptureCounter_Start, .-CrankTriggerCaptureCounter_Start
 198              		.section	.text.CrankTriggerCaptureCounter_Stop,"ax",%progbits
 199              		.align	2
 200              		.global	CrankTriggerCaptureCounter_Stop
 201              		.thumb
 202              		.thumb_func
 203              		.type	CrankTriggerCaptureCounter_Stop, %function
 204              	CrankTriggerCaptureCounter_Stop:
 205              	.LFB3:
 190:Generated_Source\PSoC5/CrankTriggerCaptureCounter.c **** 
 191:Generated_Source\PSoC5/CrankTriggerCaptureCounter.c **** 
 192:Generated_Source\PSoC5/CrankTriggerCaptureCounter.c **** /*******************************************************************************
 193:Generated_Source\PSoC5/CrankTriggerCaptureCounter.c **** * Function Name: CrankTriggerCaptureCounter_Stop
 194:Generated_Source\PSoC5/CrankTriggerCaptureCounter.c **** ********************************************************************************
ARM GAS  C:\Users\Bruger\AppData\Local\Temp\cc4KdDNK.s 			page 8


 195:Generated_Source\PSoC5/CrankTriggerCaptureCounter.c **** * Summary:
 196:Generated_Source\PSoC5/CrankTriggerCaptureCounter.c **** * Halts the counter, but does not change any modes or disable interrupts.
 197:Generated_Source\PSoC5/CrankTriggerCaptureCounter.c **** *
 198:Generated_Source\PSoC5/CrankTriggerCaptureCounter.c **** * Parameters:  
 199:Generated_Source\PSoC5/CrankTriggerCaptureCounter.c **** *  void  
 200:Generated_Source\PSoC5/CrankTriggerCaptureCounter.c **** *
 201:Generated_Source\PSoC5/CrankTriggerCaptureCounter.c **** * Return: 
 202:Generated_Source\PSoC5/CrankTriggerCaptureCounter.c **** *  void
 203:Generated_Source\PSoC5/CrankTriggerCaptureCounter.c **** *
 204:Generated_Source\PSoC5/CrankTriggerCaptureCounter.c **** * Side Effects: If the Enable mode is set to Hardware only then this function
 205:Generated_Source\PSoC5/CrankTriggerCaptureCounter.c **** *               has no effect on the operation of the counter.
 206:Generated_Source\PSoC5/CrankTriggerCaptureCounter.c **** *
 207:Generated_Source\PSoC5/CrankTriggerCaptureCounter.c **** *******************************************************************************/
 208:Generated_Source\PSoC5/CrankTriggerCaptureCounter.c **** void CrankTriggerCaptureCounter_Stop(void) 
 209:Generated_Source\PSoC5/CrankTriggerCaptureCounter.c **** {
 206              		.loc 1 209 0
 207              		.cfi_startproc
 208              		@ args = 0, pretend = 0, frame = 0
 209              		@ frame_needed = 1, uses_anonymous_args = 0
 210              		@ link register save eliminated.
 211 0000 80B4     		push	{r7}
 212              		.cfi_def_cfa_offset 4
 213              		.cfi_offset 7, -4
 214 0002 00AF     		add	r7, sp, #0
 215              		.cfi_def_cfa_register 7
 210:Generated_Source\PSoC5/CrankTriggerCaptureCounter.c ****     /* Disable Counter */
 211:Generated_Source\PSoC5/CrankTriggerCaptureCounter.c ****     #if(!CrankTriggerCaptureCounter_ControlRegRemoved || CrankTriggerCaptureCounter_UsingFixedFunct
 212:Generated_Source\PSoC5/CrankTriggerCaptureCounter.c ****         CrankTriggerCaptureCounter_CONTROL &= ((uint8)(~CrankTriggerCaptureCounter_CTRL_ENABLE));  
 216              		.loc 1 212 0
 217 0004 054A     		ldr	r2, .L12
 218 0006 054B     		ldr	r3, .L12
 219 0008 1B78     		ldrb	r3, [r3]
 220 000a DBB2     		uxtb	r3, r3
 221 000c 03F07F03 		and	r3, r3, #127
 222 0010 DBB2     		uxtb	r3, r3
 223 0012 1370     		strb	r3, [r2]
 213:Generated_Source\PSoC5/CrankTriggerCaptureCounter.c ****     #endif /* (!CrankTriggerCaptureCounter_ControlRegRemoved || CrankTriggerCaptureCounter_UsingFix
 214:Generated_Source\PSoC5/CrankTriggerCaptureCounter.c ****     
 215:Generated_Source\PSoC5/CrankTriggerCaptureCounter.c ****     /* Globally disable the Fixed Function Block chosen */
 216:Generated_Source\PSoC5/CrankTriggerCaptureCounter.c ****     #if (CrankTriggerCaptureCounter_UsingFixedFunction)
 217:Generated_Source\PSoC5/CrankTriggerCaptureCounter.c ****         CrankTriggerCaptureCounter_GLOBAL_ENABLE &= ((uint8)(~CrankTriggerCaptureCounter_BLOCK_EN_M
 218:Generated_Source\PSoC5/CrankTriggerCaptureCounter.c ****         CrankTriggerCaptureCounter_GLOBAL_STBY_ENABLE &= ((uint8)(~CrankTriggerCaptureCounter_BLOCK
 219:Generated_Source\PSoC5/CrankTriggerCaptureCounter.c ****     #endif /* (CrankTriggerCaptureCounter_UsingFixedFunction) */
 220:Generated_Source\PSoC5/CrankTriggerCaptureCounter.c **** }
 224              		.loc 1 220 0
 225 0014 BD46     		mov	sp, r7
 226              		.cfi_def_cfa_register 13
 227              		@ sp needed
 228 0016 5DF8047B 		ldr	r7, [sp], #4
 229              		.cfi_restore 7
 230              		.cfi_def_cfa_offset 0
 231 001a 7047     		bx	lr
 232              	.L13:
 233              		.align	2
 234              	.L12:
 235 001c 78640040 		.word	1073767544
 236              		.cfi_endproc
ARM GAS  C:\Users\Bruger\AppData\Local\Temp\cc4KdDNK.s 			page 9


 237              	.LFE3:
 238              		.size	CrankTriggerCaptureCounter_Stop, .-CrankTriggerCaptureCounter_Stop
 239              		.section	.text.CrankTriggerCaptureCounter_SetInterruptMode,"ax",%progbits
 240              		.align	2
 241              		.global	CrankTriggerCaptureCounter_SetInterruptMode
 242              		.thumb
 243              		.thumb_func
 244              		.type	CrankTriggerCaptureCounter_SetInterruptMode, %function
 245              	CrankTriggerCaptureCounter_SetInterruptMode:
 246              	.LFB4:
 221:Generated_Source\PSoC5/CrankTriggerCaptureCounter.c **** 
 222:Generated_Source\PSoC5/CrankTriggerCaptureCounter.c **** 
 223:Generated_Source\PSoC5/CrankTriggerCaptureCounter.c **** /*******************************************************************************
 224:Generated_Source\PSoC5/CrankTriggerCaptureCounter.c **** * Function Name: CrankTriggerCaptureCounter_SetInterruptMode
 225:Generated_Source\PSoC5/CrankTriggerCaptureCounter.c **** ********************************************************************************
 226:Generated_Source\PSoC5/CrankTriggerCaptureCounter.c **** * Summary:
 227:Generated_Source\PSoC5/CrankTriggerCaptureCounter.c **** * Configures which interrupt sources are enabled to generate the final interrupt
 228:Generated_Source\PSoC5/CrankTriggerCaptureCounter.c **** *
 229:Generated_Source\PSoC5/CrankTriggerCaptureCounter.c **** * Parameters:  
 230:Generated_Source\PSoC5/CrankTriggerCaptureCounter.c **** *  InterruptsMask: This parameter is an or'd collection of the status bits
 231:Generated_Source\PSoC5/CrankTriggerCaptureCounter.c **** *                   which will be allowed to generate the counters interrupt.   
 232:Generated_Source\PSoC5/CrankTriggerCaptureCounter.c **** *
 233:Generated_Source\PSoC5/CrankTriggerCaptureCounter.c **** * Return: 
 234:Generated_Source\PSoC5/CrankTriggerCaptureCounter.c **** *  void
 235:Generated_Source\PSoC5/CrankTriggerCaptureCounter.c **** *
 236:Generated_Source\PSoC5/CrankTriggerCaptureCounter.c **** *******************************************************************************/
 237:Generated_Source\PSoC5/CrankTriggerCaptureCounter.c **** void CrankTriggerCaptureCounter_SetInterruptMode(uint8 interruptsMask) 
 238:Generated_Source\PSoC5/CrankTriggerCaptureCounter.c **** {
 247              		.loc 1 238 0
 248              		.cfi_startproc
 249              		@ args = 0, pretend = 0, frame = 8
 250              		@ frame_needed = 1, uses_anonymous_args = 0
 251              		@ link register save eliminated.
 252 0000 80B4     		push	{r7}
 253              		.cfi_def_cfa_offset 4
 254              		.cfi_offset 7, -4
 255 0002 83B0     		sub	sp, sp, #12
 256              		.cfi_def_cfa_offset 16
 257 0004 00AF     		add	r7, sp, #0
 258              		.cfi_def_cfa_register 7
 259 0006 0346     		mov	r3, r0
 260 0008 FB71     		strb	r3, [r7, #7]
 239:Generated_Source\PSoC5/CrankTriggerCaptureCounter.c ****     CrankTriggerCaptureCounter_STATUS_MASK = interruptsMask;
 261              		.loc 1 239 0
 262 000a 044A     		ldr	r2, .L15
 263 000c FB79     		ldrb	r3, [r7, #7]
 264 000e 1370     		strb	r3, [r2]
 240:Generated_Source\PSoC5/CrankTriggerCaptureCounter.c **** }
 265              		.loc 1 240 0
 266 0010 0C37     		adds	r7, r7, #12
 267              		.cfi_def_cfa_offset 4
 268 0012 BD46     		mov	sp, r7
 269              		.cfi_def_cfa_register 13
 270              		@ sp needed
 271 0014 5DF8047B 		ldr	r7, [sp], #4
 272              		.cfi_restore 7
 273              		.cfi_def_cfa_offset 0
ARM GAS  C:\Users\Bruger\AppData\Local\Temp\cc4KdDNK.s 			page 10


 274 0018 7047     		bx	lr
 275              	.L16:
 276 001a 00BF     		.align	2
 277              	.L15:
 278 001c 8C640040 		.word	1073767564
 279              		.cfi_endproc
 280              	.LFE4:
 281              		.size	CrankTriggerCaptureCounter_SetInterruptMode, .-CrankTriggerCaptureCounter_SetInterruptMode
 282              		.section	.text.CrankTriggerCaptureCounter_ReadStatusRegister,"ax",%progbits
 283              		.align	2
 284              		.global	CrankTriggerCaptureCounter_ReadStatusRegister
 285              		.thumb
 286              		.thumb_func
 287              		.type	CrankTriggerCaptureCounter_ReadStatusRegister, %function
 288              	CrankTriggerCaptureCounter_ReadStatusRegister:
 289              	.LFB5:
 241:Generated_Source\PSoC5/CrankTriggerCaptureCounter.c **** 
 242:Generated_Source\PSoC5/CrankTriggerCaptureCounter.c **** 
 243:Generated_Source\PSoC5/CrankTriggerCaptureCounter.c **** /*******************************************************************************
 244:Generated_Source\PSoC5/CrankTriggerCaptureCounter.c **** * Function Name: CrankTriggerCaptureCounter_ReadStatusRegister
 245:Generated_Source\PSoC5/CrankTriggerCaptureCounter.c **** ********************************************************************************
 246:Generated_Source\PSoC5/CrankTriggerCaptureCounter.c **** * Summary:
 247:Generated_Source\PSoC5/CrankTriggerCaptureCounter.c **** *   Reads the status register and returns it's state. This function should use
 248:Generated_Source\PSoC5/CrankTriggerCaptureCounter.c **** *       defined types for the bit-field information as the bits in this
 249:Generated_Source\PSoC5/CrankTriggerCaptureCounter.c **** *       register may be permuteable.
 250:Generated_Source\PSoC5/CrankTriggerCaptureCounter.c **** *
 251:Generated_Source\PSoC5/CrankTriggerCaptureCounter.c **** * Parameters:  
 252:Generated_Source\PSoC5/CrankTriggerCaptureCounter.c **** *  void
 253:Generated_Source\PSoC5/CrankTriggerCaptureCounter.c **** *
 254:Generated_Source\PSoC5/CrankTriggerCaptureCounter.c **** * Return: 
 255:Generated_Source\PSoC5/CrankTriggerCaptureCounter.c **** *  (uint8) The contents of the status register
 256:Generated_Source\PSoC5/CrankTriggerCaptureCounter.c **** *
 257:Generated_Source\PSoC5/CrankTriggerCaptureCounter.c **** * Side Effects:
 258:Generated_Source\PSoC5/CrankTriggerCaptureCounter.c **** *   Status register bits may be clear on read. 
 259:Generated_Source\PSoC5/CrankTriggerCaptureCounter.c **** *
 260:Generated_Source\PSoC5/CrankTriggerCaptureCounter.c **** *******************************************************************************/
 261:Generated_Source\PSoC5/CrankTriggerCaptureCounter.c **** uint8   CrankTriggerCaptureCounter_ReadStatusRegister(void) 
 262:Generated_Source\PSoC5/CrankTriggerCaptureCounter.c **** {
 290              		.loc 1 262 0
 291              		.cfi_startproc
 292              		@ args = 0, pretend = 0, frame = 0
 293              		@ frame_needed = 1, uses_anonymous_args = 0
 294              		@ link register save eliminated.
 295 0000 80B4     		push	{r7}
 296              		.cfi_def_cfa_offset 4
 297              		.cfi_offset 7, -4
 298 0002 00AF     		add	r7, sp, #0
 299              		.cfi_def_cfa_register 7
 263:Generated_Source\PSoC5/CrankTriggerCaptureCounter.c ****     return CrankTriggerCaptureCounter_STATUS;
 300              		.loc 1 263 0
 301 0004 034B     		ldr	r3, .L19
 302 0006 1B78     		ldrb	r3, [r3]
 303 0008 DBB2     		uxtb	r3, r3
 264:Generated_Source\PSoC5/CrankTriggerCaptureCounter.c **** }
 304              		.loc 1 264 0
 305 000a 1846     		mov	r0, r3
 306 000c BD46     		mov	sp, r7
ARM GAS  C:\Users\Bruger\AppData\Local\Temp\cc4KdDNK.s 			page 11


 307              		.cfi_def_cfa_register 13
 308              		@ sp needed
 309 000e 5DF8047B 		ldr	r7, [sp], #4
 310              		.cfi_restore 7
 311              		.cfi_def_cfa_offset 0
 312 0012 7047     		bx	lr
 313              	.L20:
 314              		.align	2
 315              	.L19:
 316 0014 6C640040 		.word	1073767532
 317              		.cfi_endproc
 318              	.LFE5:
 319              		.size	CrankTriggerCaptureCounter_ReadStatusRegister, .-CrankTriggerCaptureCounter_ReadStatusRegist
 320              		.section	.text.CrankTriggerCaptureCounter_ReadControlRegister,"ax",%progbits
 321              		.align	2
 322              		.global	CrankTriggerCaptureCounter_ReadControlRegister
 323              		.thumb
 324              		.thumb_func
 325              		.type	CrankTriggerCaptureCounter_ReadControlRegister, %function
 326              	CrankTriggerCaptureCounter_ReadControlRegister:
 327              	.LFB6:
 265:Generated_Source\PSoC5/CrankTriggerCaptureCounter.c **** 
 266:Generated_Source\PSoC5/CrankTriggerCaptureCounter.c **** 
 267:Generated_Source\PSoC5/CrankTriggerCaptureCounter.c **** #if(!CrankTriggerCaptureCounter_ControlRegRemoved)
 268:Generated_Source\PSoC5/CrankTriggerCaptureCounter.c **** /*******************************************************************************
 269:Generated_Source\PSoC5/CrankTriggerCaptureCounter.c **** * Function Name: CrankTriggerCaptureCounter_ReadControlRegister
 270:Generated_Source\PSoC5/CrankTriggerCaptureCounter.c **** ********************************************************************************
 271:Generated_Source\PSoC5/CrankTriggerCaptureCounter.c **** * Summary:
 272:Generated_Source\PSoC5/CrankTriggerCaptureCounter.c **** *   Reads the control register and returns it's state. This function should use
 273:Generated_Source\PSoC5/CrankTriggerCaptureCounter.c **** *       defined types for the bit-field information as the bits in this
 274:Generated_Source\PSoC5/CrankTriggerCaptureCounter.c **** *       register may be permuteable.
 275:Generated_Source\PSoC5/CrankTriggerCaptureCounter.c **** *
 276:Generated_Source\PSoC5/CrankTriggerCaptureCounter.c **** * Parameters:  
 277:Generated_Source\PSoC5/CrankTriggerCaptureCounter.c **** *  void
 278:Generated_Source\PSoC5/CrankTriggerCaptureCounter.c **** *
 279:Generated_Source\PSoC5/CrankTriggerCaptureCounter.c **** * Return: 
 280:Generated_Source\PSoC5/CrankTriggerCaptureCounter.c **** *  (uint8) The contents of the control register
 281:Generated_Source\PSoC5/CrankTriggerCaptureCounter.c **** *
 282:Generated_Source\PSoC5/CrankTriggerCaptureCounter.c **** *******************************************************************************/
 283:Generated_Source\PSoC5/CrankTriggerCaptureCounter.c **** uint8   CrankTriggerCaptureCounter_ReadControlRegister(void) 
 284:Generated_Source\PSoC5/CrankTriggerCaptureCounter.c **** {
 328              		.loc 1 284 0
 329              		.cfi_startproc
 330              		@ args = 0, pretend = 0, frame = 0
 331              		@ frame_needed = 1, uses_anonymous_args = 0
 332              		@ link register save eliminated.
 333 0000 80B4     		push	{r7}
 334              		.cfi_def_cfa_offset 4
 335              		.cfi_offset 7, -4
 336 0002 00AF     		add	r7, sp, #0
 337              		.cfi_def_cfa_register 7
 285:Generated_Source\PSoC5/CrankTriggerCaptureCounter.c ****     return CrankTriggerCaptureCounter_CONTROL;
 338              		.loc 1 285 0
 339 0004 034B     		ldr	r3, .L23
 340 0006 1B78     		ldrb	r3, [r3]
 341 0008 DBB2     		uxtb	r3, r3
 286:Generated_Source\PSoC5/CrankTriggerCaptureCounter.c **** }
ARM GAS  C:\Users\Bruger\AppData\Local\Temp\cc4KdDNK.s 			page 12


 342              		.loc 1 286 0
 343 000a 1846     		mov	r0, r3
 344 000c BD46     		mov	sp, r7
 345              		.cfi_def_cfa_register 13
 346              		@ sp needed
 347 000e 5DF8047B 		ldr	r7, [sp], #4
 348              		.cfi_restore 7
 349              		.cfi_def_cfa_offset 0
 350 0012 7047     		bx	lr
 351              	.L24:
 352              		.align	2
 353              	.L23:
 354 0014 78640040 		.word	1073767544
 355              		.cfi_endproc
 356              	.LFE6:
 357              		.size	CrankTriggerCaptureCounter_ReadControlRegister, .-CrankTriggerCaptureCounter_ReadControlRegi
 358              		.section	.text.CrankTriggerCaptureCounter_WriteControlRegister,"ax",%progbits
 359              		.align	2
 360              		.global	CrankTriggerCaptureCounter_WriteControlRegister
 361              		.thumb
 362              		.thumb_func
 363              		.type	CrankTriggerCaptureCounter_WriteControlRegister, %function
 364              	CrankTriggerCaptureCounter_WriteControlRegister:
 365              	.LFB7:
 287:Generated_Source\PSoC5/CrankTriggerCaptureCounter.c **** 
 288:Generated_Source\PSoC5/CrankTriggerCaptureCounter.c **** 
 289:Generated_Source\PSoC5/CrankTriggerCaptureCounter.c **** /*******************************************************************************
 290:Generated_Source\PSoC5/CrankTriggerCaptureCounter.c **** * Function Name: CrankTriggerCaptureCounter_WriteControlRegister
 291:Generated_Source\PSoC5/CrankTriggerCaptureCounter.c **** ********************************************************************************
 292:Generated_Source\PSoC5/CrankTriggerCaptureCounter.c **** * Summary:
 293:Generated_Source\PSoC5/CrankTriggerCaptureCounter.c **** *   Sets the bit-field of the control register.  This function should use
 294:Generated_Source\PSoC5/CrankTriggerCaptureCounter.c **** *       defined types for the bit-field information as the bits in this
 295:Generated_Source\PSoC5/CrankTriggerCaptureCounter.c **** *       register may be permuteable.
 296:Generated_Source\PSoC5/CrankTriggerCaptureCounter.c **** *
 297:Generated_Source\PSoC5/CrankTriggerCaptureCounter.c **** * Parameters:  
 298:Generated_Source\PSoC5/CrankTriggerCaptureCounter.c **** *  void
 299:Generated_Source\PSoC5/CrankTriggerCaptureCounter.c **** *
 300:Generated_Source\PSoC5/CrankTriggerCaptureCounter.c **** * Return: 
 301:Generated_Source\PSoC5/CrankTriggerCaptureCounter.c **** *  (uint8) The contents of the control register
 302:Generated_Source\PSoC5/CrankTriggerCaptureCounter.c **** *
 303:Generated_Source\PSoC5/CrankTriggerCaptureCounter.c **** *******************************************************************************/
 304:Generated_Source\PSoC5/CrankTriggerCaptureCounter.c **** void    CrankTriggerCaptureCounter_WriteControlRegister(uint8 control) 
 305:Generated_Source\PSoC5/CrankTriggerCaptureCounter.c **** {
 366              		.loc 1 305 0
 367              		.cfi_startproc
 368              		@ args = 0, pretend = 0, frame = 8
 369              		@ frame_needed = 1, uses_anonymous_args = 0
 370              		@ link register save eliminated.
 371 0000 80B4     		push	{r7}
 372              		.cfi_def_cfa_offset 4
 373              		.cfi_offset 7, -4
 374 0002 83B0     		sub	sp, sp, #12
 375              		.cfi_def_cfa_offset 16
 376 0004 00AF     		add	r7, sp, #0
 377              		.cfi_def_cfa_register 7
 378 0006 0346     		mov	r3, r0
 379 0008 FB71     		strb	r3, [r7, #7]
ARM GAS  C:\Users\Bruger\AppData\Local\Temp\cc4KdDNK.s 			page 13


 306:Generated_Source\PSoC5/CrankTriggerCaptureCounter.c ****     CrankTriggerCaptureCounter_CONTROL = control;
 380              		.loc 1 306 0
 381 000a 044A     		ldr	r2, .L26
 382 000c FB79     		ldrb	r3, [r7, #7]
 383 000e 1370     		strb	r3, [r2]
 307:Generated_Source\PSoC5/CrankTriggerCaptureCounter.c **** }
 384              		.loc 1 307 0
 385 0010 0C37     		adds	r7, r7, #12
 386              		.cfi_def_cfa_offset 4
 387 0012 BD46     		mov	sp, r7
 388              		.cfi_def_cfa_register 13
 389              		@ sp needed
 390 0014 5DF8047B 		ldr	r7, [sp], #4
 391              		.cfi_restore 7
 392              		.cfi_def_cfa_offset 0
 393 0018 7047     		bx	lr
 394              	.L27:
 395 001a 00BF     		.align	2
 396              	.L26:
 397 001c 78640040 		.word	1073767544
 398              		.cfi_endproc
 399              	.LFE7:
 400              		.size	CrankTriggerCaptureCounter_WriteControlRegister, .-CrankTriggerCaptureCounter_WriteControlRe
 401              		.section	.text.CrankTriggerCaptureCounter_WriteCounter,"ax",%progbits
 402              		.align	2
 403              		.global	CrankTriggerCaptureCounter_WriteCounter
 404              		.thumb
 405              		.thumb_func
 406              		.type	CrankTriggerCaptureCounter_WriteCounter, %function
 407              	CrankTriggerCaptureCounter_WriteCounter:
 408              	.LFB8:
 308:Generated_Source\PSoC5/CrankTriggerCaptureCounter.c **** 
 309:Generated_Source\PSoC5/CrankTriggerCaptureCounter.c **** #endif  /* (!CrankTriggerCaptureCounter_ControlRegRemoved) */
 310:Generated_Source\PSoC5/CrankTriggerCaptureCounter.c **** 
 311:Generated_Source\PSoC5/CrankTriggerCaptureCounter.c **** 
 312:Generated_Source\PSoC5/CrankTriggerCaptureCounter.c **** #if (!(CrankTriggerCaptureCounter_UsingFixedFunction && (CY_PSOC5A)))
 313:Generated_Source\PSoC5/CrankTriggerCaptureCounter.c **** /*******************************************************************************
 314:Generated_Source\PSoC5/CrankTriggerCaptureCounter.c **** * Function Name: CrankTriggerCaptureCounter_WriteCounter
 315:Generated_Source\PSoC5/CrankTriggerCaptureCounter.c **** ********************************************************************************
 316:Generated_Source\PSoC5/CrankTriggerCaptureCounter.c **** * Summary:
 317:Generated_Source\PSoC5/CrankTriggerCaptureCounter.c **** *   This funtion is used to set the counter to a specific value
 318:Generated_Source\PSoC5/CrankTriggerCaptureCounter.c **** *
 319:Generated_Source\PSoC5/CrankTriggerCaptureCounter.c **** * Parameters:  
 320:Generated_Source\PSoC5/CrankTriggerCaptureCounter.c **** *  counter:  New counter value. 
 321:Generated_Source\PSoC5/CrankTriggerCaptureCounter.c **** *
 322:Generated_Source\PSoC5/CrankTriggerCaptureCounter.c **** * Return: 
 323:Generated_Source\PSoC5/CrankTriggerCaptureCounter.c **** *  void 
 324:Generated_Source\PSoC5/CrankTriggerCaptureCounter.c **** *
 325:Generated_Source\PSoC5/CrankTriggerCaptureCounter.c **** *******************************************************************************/
 326:Generated_Source\PSoC5/CrankTriggerCaptureCounter.c **** void CrankTriggerCaptureCounter_WriteCounter(uint16 counter) \
 327:Generated_Source\PSoC5/CrankTriggerCaptureCounter.c ****                                    
 328:Generated_Source\PSoC5/CrankTriggerCaptureCounter.c **** {
 409              		.loc 1 328 0
 410              		.cfi_startproc
 411              		@ args = 0, pretend = 0, frame = 8
 412              		@ frame_needed = 1, uses_anonymous_args = 0
 413              		@ link register save eliminated.
ARM GAS  C:\Users\Bruger\AppData\Local\Temp\cc4KdDNK.s 			page 14


 414 0000 80B4     		push	{r7}
 415              		.cfi_def_cfa_offset 4
 416              		.cfi_offset 7, -4
 417 0002 83B0     		sub	sp, sp, #12
 418              		.cfi_def_cfa_offset 16
 419 0004 00AF     		add	r7, sp, #0
 420              		.cfi_def_cfa_register 7
 421 0006 0346     		mov	r3, r0
 422 0008 FB80     		strh	r3, [r7, #6]	@ movhi
 329:Generated_Source\PSoC5/CrankTriggerCaptureCounter.c ****     #if(CrankTriggerCaptureCounter_UsingFixedFunction)
 330:Generated_Source\PSoC5/CrankTriggerCaptureCounter.c ****         /* assert if block is already enabled */
 331:Generated_Source\PSoC5/CrankTriggerCaptureCounter.c ****         CYASSERT (0u == (CrankTriggerCaptureCounter_GLOBAL_ENABLE & CrankTriggerCaptureCounter_BLOC
 332:Generated_Source\PSoC5/CrankTriggerCaptureCounter.c ****         /* If block is disabled, enable it and then write the counter */
 333:Generated_Source\PSoC5/CrankTriggerCaptureCounter.c ****         CrankTriggerCaptureCounter_GLOBAL_ENABLE |= CrankTriggerCaptureCounter_BLOCK_EN_MASK;
 334:Generated_Source\PSoC5/CrankTriggerCaptureCounter.c ****         CY_SET_REG16(CrankTriggerCaptureCounter_COUNTER_LSB_PTR, (uint16)counter);
 335:Generated_Source\PSoC5/CrankTriggerCaptureCounter.c ****         CrankTriggerCaptureCounter_GLOBAL_ENABLE &= ((uint8)(~CrankTriggerCaptureCounter_BLOCK_EN_M
 336:Generated_Source\PSoC5/CrankTriggerCaptureCounter.c ****     #else
 337:Generated_Source\PSoC5/CrankTriggerCaptureCounter.c ****         CY_SET_REG16(CrankTriggerCaptureCounter_COUNTER_LSB_PTR, counter);
 423              		.loc 1 337 0
 424 000a 044A     		ldr	r2, .L29
 425 000c FB88     		ldrh	r3, [r7, #6]	@ movhi
 426 000e 1380     		strh	r3, [r2]	@ movhi
 338:Generated_Source\PSoC5/CrankTriggerCaptureCounter.c ****     #endif /* (CrankTriggerCaptureCounter_UsingFixedFunction) */
 339:Generated_Source\PSoC5/CrankTriggerCaptureCounter.c **** }
 427              		.loc 1 339 0
 428 0010 0C37     		adds	r7, r7, #12
 429              		.cfi_def_cfa_offset 4
 430 0012 BD46     		mov	sp, r7
 431              		.cfi_def_cfa_register 13
 432              		@ sp needed
 433 0014 5DF8047B 		ldr	r7, [sp], #4
 434              		.cfi_restore 7
 435              		.cfi_def_cfa_offset 0
 436 0018 7047     		bx	lr
 437              	.L30:
 438 001a 00BF     		.align	2
 439              	.L29:
 440 001c 1C680040 		.word	1073768476
 441              		.cfi_endproc
 442              	.LFE8:
 443              		.size	CrankTriggerCaptureCounter_WriteCounter, .-CrankTriggerCaptureCounter_WriteCounter
 444              		.section	.text.CrankTriggerCaptureCounter_ReadCounter,"ax",%progbits
 445              		.align	2
 446              		.global	CrankTriggerCaptureCounter_ReadCounter
 447              		.thumb
 448              		.thumb_func
 449              		.type	CrankTriggerCaptureCounter_ReadCounter, %function
 450              	CrankTriggerCaptureCounter_ReadCounter:
 451              	.LFB9:
 340:Generated_Source\PSoC5/CrankTriggerCaptureCounter.c **** #endif /* (!(CrankTriggerCaptureCounter_UsingFixedFunction && (CY_PSOC5A))) */
 341:Generated_Source\PSoC5/CrankTriggerCaptureCounter.c **** 
 342:Generated_Source\PSoC5/CrankTriggerCaptureCounter.c **** 
 343:Generated_Source\PSoC5/CrankTriggerCaptureCounter.c **** /*******************************************************************************
 344:Generated_Source\PSoC5/CrankTriggerCaptureCounter.c **** * Function Name: CrankTriggerCaptureCounter_ReadCounter
 345:Generated_Source\PSoC5/CrankTriggerCaptureCounter.c **** ********************************************************************************
 346:Generated_Source\PSoC5/CrankTriggerCaptureCounter.c **** * Summary:
 347:Generated_Source\PSoC5/CrankTriggerCaptureCounter.c **** * Returns the current value of the counter.  It doesn't matter
ARM GAS  C:\Users\Bruger\AppData\Local\Temp\cc4KdDNK.s 			page 15


 348:Generated_Source\PSoC5/CrankTriggerCaptureCounter.c **** * if the counter is enabled or running.
 349:Generated_Source\PSoC5/CrankTriggerCaptureCounter.c **** *
 350:Generated_Source\PSoC5/CrankTriggerCaptureCounter.c **** * Parameters:  
 351:Generated_Source\PSoC5/CrankTriggerCaptureCounter.c **** *  void:  
 352:Generated_Source\PSoC5/CrankTriggerCaptureCounter.c **** *
 353:Generated_Source\PSoC5/CrankTriggerCaptureCounter.c **** * Return: 
 354:Generated_Source\PSoC5/CrankTriggerCaptureCounter.c **** *  (uint16) The present value of the counter.
 355:Generated_Source\PSoC5/CrankTriggerCaptureCounter.c **** *
 356:Generated_Source\PSoC5/CrankTriggerCaptureCounter.c **** *******************************************************************************/
 357:Generated_Source\PSoC5/CrankTriggerCaptureCounter.c **** uint16 CrankTriggerCaptureCounter_ReadCounter(void) 
 358:Generated_Source\PSoC5/CrankTriggerCaptureCounter.c **** {
 452              		.loc 1 358 0
 453              		.cfi_startproc
 454              		@ args = 0, pretend = 0, frame = 0
 455              		@ frame_needed = 1, uses_anonymous_args = 0
 456              		@ link register save eliminated.
 457 0000 80B4     		push	{r7}
 458              		.cfi_def_cfa_offset 4
 459              		.cfi_offset 7, -4
 460 0002 00AF     		add	r7, sp, #0
 461              		.cfi_def_cfa_register 7
 359:Generated_Source\PSoC5/CrankTriggerCaptureCounter.c ****     /* Force capture by reading Accumulator */
 360:Generated_Source\PSoC5/CrankTriggerCaptureCounter.c ****     /* Must first do a software capture to be able to read the counter */
 361:Generated_Source\PSoC5/CrankTriggerCaptureCounter.c ****     /* It is up to the user code to make sure there isn't already captured data in the FIFO */
 362:Generated_Source\PSoC5/CrankTriggerCaptureCounter.c ****     #if(CrankTriggerCaptureCounter_UsingFixedFunction)
 363:Generated_Source\PSoC5/CrankTriggerCaptureCounter.c **** 		(void)CY_GET_REG16(CrankTriggerCaptureCounter_COUNTER_LSB_PTR);
 364:Generated_Source\PSoC5/CrankTriggerCaptureCounter.c **** 	#else
 365:Generated_Source\PSoC5/CrankTriggerCaptureCounter.c **** 		(void)CY_GET_REG8(CrankTriggerCaptureCounter_COUNTER_LSB_PTR_8BIT);
 462              		.loc 1 365 0
 463 0004 044B     		ldr	r3, .L33
 464 0006 1B78     		ldrb	r3, [r3]
 366:Generated_Source\PSoC5/CrankTriggerCaptureCounter.c **** 	#endif/* (CrankTriggerCaptureCounter_UsingFixedFunction) */
 367:Generated_Source\PSoC5/CrankTriggerCaptureCounter.c ****     
 368:Generated_Source\PSoC5/CrankTriggerCaptureCounter.c ****     /* Read the data from the FIFO (or capture register for Fixed Function)*/
 369:Generated_Source\PSoC5/CrankTriggerCaptureCounter.c ****     #if(CrankTriggerCaptureCounter_UsingFixedFunction)
 370:Generated_Source\PSoC5/CrankTriggerCaptureCounter.c ****         return ((uint16)CY_GET_REG16(CrankTriggerCaptureCounter_STATICCOUNT_LSB_PTR));
 371:Generated_Source\PSoC5/CrankTriggerCaptureCounter.c ****     #else
 372:Generated_Source\PSoC5/CrankTriggerCaptureCounter.c ****         return (CY_GET_REG16(CrankTriggerCaptureCounter_STATICCOUNT_LSB_PTR));
 465              		.loc 1 372 0
 466 0008 044B     		ldr	r3, .L33+4
 467 000a 1B88     		ldrh	r3, [r3]	@ movhi
 468 000c 9BB2     		uxth	r3, r3
 373:Generated_Source\PSoC5/CrankTriggerCaptureCounter.c ****     #endif /* (CrankTriggerCaptureCounter_UsingFixedFunction) */
 374:Generated_Source\PSoC5/CrankTriggerCaptureCounter.c **** }
 469              		.loc 1 374 0
 470 000e 1846     		mov	r0, r3
 471 0010 BD46     		mov	sp, r7
 472              		.cfi_def_cfa_register 13
 473              		@ sp needed
 474 0012 5DF8047B 		ldr	r7, [sp], #4
 475              		.cfi_restore 7
 476              		.cfi_def_cfa_offset 0
 477 0016 7047     		bx	lr
 478              	.L34:
 479              		.align	2
 480              	.L33:
 481 0018 0E640040 		.word	1073767438
ARM GAS  C:\Users\Bruger\AppData\Local\Temp\cc4KdDNK.s 			page 16


 482 001c 9C680040 		.word	1073768604
 483              		.cfi_endproc
 484              	.LFE9:
 485              		.size	CrankTriggerCaptureCounter_ReadCounter, .-CrankTriggerCaptureCounter_ReadCounter
 486              		.section	.text.CrankTriggerCaptureCounter_ReadCapture,"ax",%progbits
 487              		.align	2
 488              		.global	CrankTriggerCaptureCounter_ReadCapture
 489              		.thumb
 490              		.thumb_func
 491              		.type	CrankTriggerCaptureCounter_ReadCapture, %function
 492              	CrankTriggerCaptureCounter_ReadCapture:
 493              	.LFB10:
 375:Generated_Source\PSoC5/CrankTriggerCaptureCounter.c **** 
 376:Generated_Source\PSoC5/CrankTriggerCaptureCounter.c **** 
 377:Generated_Source\PSoC5/CrankTriggerCaptureCounter.c **** /*******************************************************************************
 378:Generated_Source\PSoC5/CrankTriggerCaptureCounter.c **** * Function Name: CrankTriggerCaptureCounter_ReadCapture
 379:Generated_Source\PSoC5/CrankTriggerCaptureCounter.c **** ********************************************************************************
 380:Generated_Source\PSoC5/CrankTriggerCaptureCounter.c **** * Summary:
 381:Generated_Source\PSoC5/CrankTriggerCaptureCounter.c **** *   This function returns the last value captured.
 382:Generated_Source\PSoC5/CrankTriggerCaptureCounter.c **** *
 383:Generated_Source\PSoC5/CrankTriggerCaptureCounter.c **** * Parameters:  
 384:Generated_Source\PSoC5/CrankTriggerCaptureCounter.c **** *  void
 385:Generated_Source\PSoC5/CrankTriggerCaptureCounter.c **** *
 386:Generated_Source\PSoC5/CrankTriggerCaptureCounter.c **** * Return: 
 387:Generated_Source\PSoC5/CrankTriggerCaptureCounter.c **** *  (uint16) Present Capture value.
 388:Generated_Source\PSoC5/CrankTriggerCaptureCounter.c **** *
 389:Generated_Source\PSoC5/CrankTriggerCaptureCounter.c **** *******************************************************************************/
 390:Generated_Source\PSoC5/CrankTriggerCaptureCounter.c **** uint16 CrankTriggerCaptureCounter_ReadCapture(void) 
 391:Generated_Source\PSoC5/CrankTriggerCaptureCounter.c **** {
 494              		.loc 1 391 0
 495              		.cfi_startproc
 496              		@ args = 0, pretend = 0, frame = 0
 497              		@ frame_needed = 1, uses_anonymous_args = 0
 498              		@ link register save eliminated.
 499 0000 80B4     		push	{r7}
 500              		.cfi_def_cfa_offset 4
 501              		.cfi_offset 7, -4
 502 0002 00AF     		add	r7, sp, #0
 503              		.cfi_def_cfa_register 7
 392:Generated_Source\PSoC5/CrankTriggerCaptureCounter.c ****     #if(CrankTriggerCaptureCounter_UsingFixedFunction)
 393:Generated_Source\PSoC5/CrankTriggerCaptureCounter.c ****         return ((uint16)CY_GET_REG16(CrankTriggerCaptureCounter_STATICCOUNT_LSB_PTR));
 394:Generated_Source\PSoC5/CrankTriggerCaptureCounter.c ****     #else
 395:Generated_Source\PSoC5/CrankTriggerCaptureCounter.c ****         return (CY_GET_REG16(CrankTriggerCaptureCounter_STATICCOUNT_LSB_PTR));
 504              		.loc 1 395 0
 505 0004 034B     		ldr	r3, .L37
 506 0006 1B88     		ldrh	r3, [r3]	@ movhi
 507 0008 9BB2     		uxth	r3, r3
 396:Generated_Source\PSoC5/CrankTriggerCaptureCounter.c ****     #endif /* (CrankTriggerCaptureCounter_UsingFixedFunction) */
 397:Generated_Source\PSoC5/CrankTriggerCaptureCounter.c **** }
 508              		.loc 1 397 0
 509 000a 1846     		mov	r0, r3
 510 000c BD46     		mov	sp, r7
 511              		.cfi_def_cfa_register 13
 512              		@ sp needed
 513 000e 5DF8047B 		ldr	r7, [sp], #4
 514              		.cfi_restore 7
 515              		.cfi_def_cfa_offset 0
ARM GAS  C:\Users\Bruger\AppData\Local\Temp\cc4KdDNK.s 			page 17


 516 0012 7047     		bx	lr
 517              	.L38:
 518              		.align	2
 519              	.L37:
 520 0014 9C680040 		.word	1073768604
 521              		.cfi_endproc
 522              	.LFE10:
 523              		.size	CrankTriggerCaptureCounter_ReadCapture, .-CrankTriggerCaptureCounter_ReadCapture
 524              		.section	.text.CrankTriggerCaptureCounter_WritePeriod,"ax",%progbits
 525              		.align	2
 526              		.global	CrankTriggerCaptureCounter_WritePeriod
 527              		.thumb
 528              		.thumb_func
 529              		.type	CrankTriggerCaptureCounter_WritePeriod, %function
 530              	CrankTriggerCaptureCounter_WritePeriod:
 531              	.LFB11:
 398:Generated_Source\PSoC5/CrankTriggerCaptureCounter.c **** 
 399:Generated_Source\PSoC5/CrankTriggerCaptureCounter.c **** 
 400:Generated_Source\PSoC5/CrankTriggerCaptureCounter.c **** /*******************************************************************************
 401:Generated_Source\PSoC5/CrankTriggerCaptureCounter.c **** * Function Name: CrankTriggerCaptureCounter_WritePeriod
 402:Generated_Source\PSoC5/CrankTriggerCaptureCounter.c **** ********************************************************************************
 403:Generated_Source\PSoC5/CrankTriggerCaptureCounter.c **** * Summary:
 404:Generated_Source\PSoC5/CrankTriggerCaptureCounter.c **** * Changes the period of the counter.  The new period 
 405:Generated_Source\PSoC5/CrankTriggerCaptureCounter.c **** * will be loaded the next time terminal count is detected.
 406:Generated_Source\PSoC5/CrankTriggerCaptureCounter.c **** *
 407:Generated_Source\PSoC5/CrankTriggerCaptureCounter.c **** * Parameters:  
 408:Generated_Source\PSoC5/CrankTriggerCaptureCounter.c **** *  period: (uint16) A value of 0 will result in
 409:Generated_Source\PSoC5/CrankTriggerCaptureCounter.c **** *         the counter remaining at zero.  
 410:Generated_Source\PSoC5/CrankTriggerCaptureCounter.c **** *
 411:Generated_Source\PSoC5/CrankTriggerCaptureCounter.c **** * Return: 
 412:Generated_Source\PSoC5/CrankTriggerCaptureCounter.c **** *  void
 413:Generated_Source\PSoC5/CrankTriggerCaptureCounter.c **** *
 414:Generated_Source\PSoC5/CrankTriggerCaptureCounter.c **** *******************************************************************************/
 415:Generated_Source\PSoC5/CrankTriggerCaptureCounter.c **** void CrankTriggerCaptureCounter_WritePeriod(uint16 period) 
 416:Generated_Source\PSoC5/CrankTriggerCaptureCounter.c **** {
 532              		.loc 1 416 0
 533              		.cfi_startproc
 534              		@ args = 0, pretend = 0, frame = 8
 535              		@ frame_needed = 1, uses_anonymous_args = 0
 536              		@ link register save eliminated.
 537 0000 80B4     		push	{r7}
 538              		.cfi_def_cfa_offset 4
 539              		.cfi_offset 7, -4
 540 0002 83B0     		sub	sp, sp, #12
 541              		.cfi_def_cfa_offset 16
 542 0004 00AF     		add	r7, sp, #0
 543              		.cfi_def_cfa_register 7
 544 0006 0346     		mov	r3, r0
 545 0008 FB80     		strh	r3, [r7, #6]	@ movhi
 417:Generated_Source\PSoC5/CrankTriggerCaptureCounter.c ****     #if(CrankTriggerCaptureCounter_UsingFixedFunction)
 418:Generated_Source\PSoC5/CrankTriggerCaptureCounter.c ****         CY_SET_REG16(CrankTriggerCaptureCounter_PERIOD_LSB_PTR,(uint16)period);
 419:Generated_Source\PSoC5/CrankTriggerCaptureCounter.c ****     #else
 420:Generated_Source\PSoC5/CrankTriggerCaptureCounter.c ****         CY_SET_REG16(CrankTriggerCaptureCounter_PERIOD_LSB_PTR, period);
 546              		.loc 1 420 0
 547 000a 044A     		ldr	r2, .L40
 548 000c FB88     		ldrh	r3, [r7, #6]	@ movhi
 549 000e 1380     		strh	r3, [r2]	@ movhi
ARM GAS  C:\Users\Bruger\AppData\Local\Temp\cc4KdDNK.s 			page 18


 421:Generated_Source\PSoC5/CrankTriggerCaptureCounter.c ****     #endif /* (CrankTriggerCaptureCounter_UsingFixedFunction) */
 422:Generated_Source\PSoC5/CrankTriggerCaptureCounter.c **** }
 550              		.loc 1 422 0
 551 0010 0C37     		adds	r7, r7, #12
 552              		.cfi_def_cfa_offset 4
 553 0012 BD46     		mov	sp, r7
 554              		.cfi_def_cfa_register 13
 555              		@ sp needed
 556 0014 5DF8047B 		ldr	r7, [sp], #4
 557              		.cfi_restore 7
 558              		.cfi_def_cfa_offset 0
 559 0018 7047     		bx	lr
 560              	.L41:
 561 001a 00BF     		.align	2
 562              	.L40:
 563 001c 5C680040 		.word	1073768540
 564              		.cfi_endproc
 565              	.LFE11:
 566              		.size	CrankTriggerCaptureCounter_WritePeriod, .-CrankTriggerCaptureCounter_WritePeriod
 567              		.section	.text.CrankTriggerCaptureCounter_ReadPeriod,"ax",%progbits
 568              		.align	2
 569              		.global	CrankTriggerCaptureCounter_ReadPeriod
 570              		.thumb
 571              		.thumb_func
 572              		.type	CrankTriggerCaptureCounter_ReadPeriod, %function
 573              	CrankTriggerCaptureCounter_ReadPeriod:
 574              	.LFB12:
 423:Generated_Source\PSoC5/CrankTriggerCaptureCounter.c **** 
 424:Generated_Source\PSoC5/CrankTriggerCaptureCounter.c **** 
 425:Generated_Source\PSoC5/CrankTriggerCaptureCounter.c **** /*******************************************************************************
 426:Generated_Source\PSoC5/CrankTriggerCaptureCounter.c **** * Function Name: CrankTriggerCaptureCounter_ReadPeriod
 427:Generated_Source\PSoC5/CrankTriggerCaptureCounter.c **** ********************************************************************************
 428:Generated_Source\PSoC5/CrankTriggerCaptureCounter.c **** * Summary:
 429:Generated_Source\PSoC5/CrankTriggerCaptureCounter.c **** * Reads the current period value without affecting counter operation.
 430:Generated_Source\PSoC5/CrankTriggerCaptureCounter.c **** *
 431:Generated_Source\PSoC5/CrankTriggerCaptureCounter.c **** * Parameters:  
 432:Generated_Source\PSoC5/CrankTriggerCaptureCounter.c **** *  void:  
 433:Generated_Source\PSoC5/CrankTriggerCaptureCounter.c **** *
 434:Generated_Source\PSoC5/CrankTriggerCaptureCounter.c **** * Return: 
 435:Generated_Source\PSoC5/CrankTriggerCaptureCounter.c **** *  (uint16) Present period value.
 436:Generated_Source\PSoC5/CrankTriggerCaptureCounter.c **** *
 437:Generated_Source\PSoC5/CrankTriggerCaptureCounter.c **** *******************************************************************************/
 438:Generated_Source\PSoC5/CrankTriggerCaptureCounter.c **** uint16 CrankTriggerCaptureCounter_ReadPeriod(void) 
 439:Generated_Source\PSoC5/CrankTriggerCaptureCounter.c **** {
 575              		.loc 1 439 0
 576              		.cfi_startproc
 577              		@ args = 0, pretend = 0, frame = 0
 578              		@ frame_needed = 1, uses_anonymous_args = 0
 579              		@ link register save eliminated.
 580 0000 80B4     		push	{r7}
 581              		.cfi_def_cfa_offset 4
 582              		.cfi_offset 7, -4
 583 0002 00AF     		add	r7, sp, #0
 584              		.cfi_def_cfa_register 7
 440:Generated_Source\PSoC5/CrankTriggerCaptureCounter.c ****     #if(CrankTriggerCaptureCounter_UsingFixedFunction)
 441:Generated_Source\PSoC5/CrankTriggerCaptureCounter.c ****         return ((uint16)CY_GET_REG16(CrankTriggerCaptureCounter_PERIOD_LSB_PTR));
 442:Generated_Source\PSoC5/CrankTriggerCaptureCounter.c ****     #else
ARM GAS  C:\Users\Bruger\AppData\Local\Temp\cc4KdDNK.s 			page 19


 443:Generated_Source\PSoC5/CrankTriggerCaptureCounter.c ****         return (CY_GET_REG16(CrankTriggerCaptureCounter_PERIOD_LSB_PTR));
 585              		.loc 1 443 0
 586 0004 034B     		ldr	r3, .L44
 587 0006 1B88     		ldrh	r3, [r3]	@ movhi
 588 0008 9BB2     		uxth	r3, r3
 444:Generated_Source\PSoC5/CrankTriggerCaptureCounter.c ****     #endif /* (CrankTriggerCaptureCounter_UsingFixedFunction) */
 445:Generated_Source\PSoC5/CrankTriggerCaptureCounter.c **** }
 589              		.loc 1 445 0
 590 000a 1846     		mov	r0, r3
 591 000c BD46     		mov	sp, r7
 592              		.cfi_def_cfa_register 13
 593              		@ sp needed
 594 000e 5DF8047B 		ldr	r7, [sp], #4
 595              		.cfi_restore 7
 596              		.cfi_def_cfa_offset 0
 597 0012 7047     		bx	lr
 598              	.L45:
 599              		.align	2
 600              	.L44:
 601 0014 5C680040 		.word	1073768540
 602              		.cfi_endproc
 603              	.LFE12:
 604              		.size	CrankTriggerCaptureCounter_ReadPeriod, .-CrankTriggerCaptureCounter_ReadPeriod
 605              		.section	.text.CrankTriggerCaptureCounter_WriteCompare,"ax",%progbits
 606              		.align	2
 607              		.global	CrankTriggerCaptureCounter_WriteCompare
 608              		.thumb
 609              		.thumb_func
 610              		.type	CrankTriggerCaptureCounter_WriteCompare, %function
 611              	CrankTriggerCaptureCounter_WriteCompare:
 612              	.LFB13:
 446:Generated_Source\PSoC5/CrankTriggerCaptureCounter.c **** 
 447:Generated_Source\PSoC5/CrankTriggerCaptureCounter.c **** 
 448:Generated_Source\PSoC5/CrankTriggerCaptureCounter.c **** #if (!CrankTriggerCaptureCounter_UsingFixedFunction)
 449:Generated_Source\PSoC5/CrankTriggerCaptureCounter.c **** /*******************************************************************************
 450:Generated_Source\PSoC5/CrankTriggerCaptureCounter.c **** * Function Name: CrankTriggerCaptureCounter_WriteCompare
 451:Generated_Source\PSoC5/CrankTriggerCaptureCounter.c **** ********************************************************************************
 452:Generated_Source\PSoC5/CrankTriggerCaptureCounter.c **** * Summary:
 453:Generated_Source\PSoC5/CrankTriggerCaptureCounter.c **** * Changes the compare value.  The compare output will 
 454:Generated_Source\PSoC5/CrankTriggerCaptureCounter.c **** * reflect the new value on the next UDB clock.  The compare output will be 
 455:Generated_Source\PSoC5/CrankTriggerCaptureCounter.c **** * driven high when the present counter value compares true based on the 
 456:Generated_Source\PSoC5/CrankTriggerCaptureCounter.c **** * configured compare mode setting. 
 457:Generated_Source\PSoC5/CrankTriggerCaptureCounter.c **** *
 458:Generated_Source\PSoC5/CrankTriggerCaptureCounter.c **** * Parameters:  
 459:Generated_Source\PSoC5/CrankTriggerCaptureCounter.c **** *  Compare:  New compare value. 
 460:Generated_Source\PSoC5/CrankTriggerCaptureCounter.c **** *
 461:Generated_Source\PSoC5/CrankTriggerCaptureCounter.c **** * Return: 
 462:Generated_Source\PSoC5/CrankTriggerCaptureCounter.c **** *  void
 463:Generated_Source\PSoC5/CrankTriggerCaptureCounter.c **** *
 464:Generated_Source\PSoC5/CrankTriggerCaptureCounter.c **** *******************************************************************************/
 465:Generated_Source\PSoC5/CrankTriggerCaptureCounter.c **** void CrankTriggerCaptureCounter_WriteCompare(uint16 compare) \
 466:Generated_Source\PSoC5/CrankTriggerCaptureCounter.c ****                                    
 467:Generated_Source\PSoC5/CrankTriggerCaptureCounter.c **** {
 613              		.loc 1 467 0
 614              		.cfi_startproc
 615              		@ args = 0, pretend = 0, frame = 8
 616              		@ frame_needed = 1, uses_anonymous_args = 0
ARM GAS  C:\Users\Bruger\AppData\Local\Temp\cc4KdDNK.s 			page 20


 617              		@ link register save eliminated.
 618 0000 80B4     		push	{r7}
 619              		.cfi_def_cfa_offset 4
 620              		.cfi_offset 7, -4
 621 0002 83B0     		sub	sp, sp, #12
 622              		.cfi_def_cfa_offset 16
 623 0004 00AF     		add	r7, sp, #0
 624              		.cfi_def_cfa_register 7
 625 0006 0346     		mov	r3, r0
 626 0008 FB80     		strh	r3, [r7, #6]	@ movhi
 468:Generated_Source\PSoC5/CrankTriggerCaptureCounter.c ****     #if(CrankTriggerCaptureCounter_UsingFixedFunction)
 469:Generated_Source\PSoC5/CrankTriggerCaptureCounter.c ****         CY_SET_REG16(CrankTriggerCaptureCounter_COMPARE_LSB_PTR, (uint16)compare);
 470:Generated_Source\PSoC5/CrankTriggerCaptureCounter.c ****     #else
 471:Generated_Source\PSoC5/CrankTriggerCaptureCounter.c ****         CY_SET_REG16(CrankTriggerCaptureCounter_COMPARE_LSB_PTR, compare);
 627              		.loc 1 471 0
 628 000a 044A     		ldr	r2, .L47
 629 000c FB88     		ldrh	r3, [r7, #6]	@ movhi
 630 000e 1380     		strh	r3, [r2]	@ movhi
 472:Generated_Source\PSoC5/CrankTriggerCaptureCounter.c ****     #endif /* (CrankTriggerCaptureCounter_UsingFixedFunction) */
 473:Generated_Source\PSoC5/CrankTriggerCaptureCounter.c **** }
 631              		.loc 1 473 0
 632 0010 0C37     		adds	r7, r7, #12
 633              		.cfi_def_cfa_offset 4
 634 0012 BD46     		mov	sp, r7
 635              		.cfi_def_cfa_register 13
 636              		@ sp needed
 637 0014 5DF8047B 		ldr	r7, [sp], #4
 638              		.cfi_restore 7
 639              		.cfi_def_cfa_offset 0
 640 0018 7047     		bx	lr
 641              	.L48:
 642 001a 00BF     		.align	2
 643              	.L47:
 644 001c 7C680040 		.word	1073768572
 645              		.cfi_endproc
 646              	.LFE13:
 647              		.size	CrankTriggerCaptureCounter_WriteCompare, .-CrankTriggerCaptureCounter_WriteCompare
 648              		.section	.text.CrankTriggerCaptureCounter_ReadCompare,"ax",%progbits
 649              		.align	2
 650              		.global	CrankTriggerCaptureCounter_ReadCompare
 651              		.thumb
 652              		.thumb_func
 653              		.type	CrankTriggerCaptureCounter_ReadCompare, %function
 654              	CrankTriggerCaptureCounter_ReadCompare:
 655              	.LFB14:
 474:Generated_Source\PSoC5/CrankTriggerCaptureCounter.c **** 
 475:Generated_Source\PSoC5/CrankTriggerCaptureCounter.c **** 
 476:Generated_Source\PSoC5/CrankTriggerCaptureCounter.c **** /*******************************************************************************
 477:Generated_Source\PSoC5/CrankTriggerCaptureCounter.c **** * Function Name: CrankTriggerCaptureCounter_ReadCompare
 478:Generated_Source\PSoC5/CrankTriggerCaptureCounter.c **** ********************************************************************************
 479:Generated_Source\PSoC5/CrankTriggerCaptureCounter.c **** * Summary:
 480:Generated_Source\PSoC5/CrankTriggerCaptureCounter.c **** * Returns the compare value.
 481:Generated_Source\PSoC5/CrankTriggerCaptureCounter.c **** *
 482:Generated_Source\PSoC5/CrankTriggerCaptureCounter.c **** * Parameters:  
 483:Generated_Source\PSoC5/CrankTriggerCaptureCounter.c **** *  void:
 484:Generated_Source\PSoC5/CrankTriggerCaptureCounter.c **** *
 485:Generated_Source\PSoC5/CrankTriggerCaptureCounter.c **** * Return: 
ARM GAS  C:\Users\Bruger\AppData\Local\Temp\cc4KdDNK.s 			page 21


 486:Generated_Source\PSoC5/CrankTriggerCaptureCounter.c **** *  (uint16) Present compare value.
 487:Generated_Source\PSoC5/CrankTriggerCaptureCounter.c **** *
 488:Generated_Source\PSoC5/CrankTriggerCaptureCounter.c **** *******************************************************************************/
 489:Generated_Source\PSoC5/CrankTriggerCaptureCounter.c **** uint16 CrankTriggerCaptureCounter_ReadCompare(void) 
 490:Generated_Source\PSoC5/CrankTriggerCaptureCounter.c **** {
 656              		.loc 1 490 0
 657              		.cfi_startproc
 658              		@ args = 0, pretend = 0, frame = 0
 659              		@ frame_needed = 1, uses_anonymous_args = 0
 660              		@ link register save eliminated.
 661 0000 80B4     		push	{r7}
 662              		.cfi_def_cfa_offset 4
 663              		.cfi_offset 7, -4
 664 0002 00AF     		add	r7, sp, #0
 665              		.cfi_def_cfa_register 7
 491:Generated_Source\PSoC5/CrankTriggerCaptureCounter.c ****     return (CY_GET_REG16(CrankTriggerCaptureCounter_COMPARE_LSB_PTR));
 666              		.loc 1 491 0
 667 0004 034B     		ldr	r3, .L51
 668 0006 1B88     		ldrh	r3, [r3]	@ movhi
 669 0008 9BB2     		uxth	r3, r3
 492:Generated_Source\PSoC5/CrankTriggerCaptureCounter.c **** }
 670              		.loc 1 492 0
 671 000a 1846     		mov	r0, r3
 672 000c BD46     		mov	sp, r7
 673              		.cfi_def_cfa_register 13
 674              		@ sp needed
 675 000e 5DF8047B 		ldr	r7, [sp], #4
 676              		.cfi_restore 7
 677              		.cfi_def_cfa_offset 0
 678 0012 7047     		bx	lr
 679              	.L52:
 680              		.align	2
 681              	.L51:
 682 0014 7C680040 		.word	1073768572
 683              		.cfi_endproc
 684              	.LFE14:
 685              		.size	CrankTriggerCaptureCounter_ReadCompare, .-CrankTriggerCaptureCounter_ReadCompare
 686              		.section	.text.CrankTriggerCaptureCounter_ClearFIFO,"ax",%progbits
 687              		.align	2
 688              		.global	CrankTriggerCaptureCounter_ClearFIFO
 689              		.thumb
 690              		.thumb_func
 691              		.type	CrankTriggerCaptureCounter_ClearFIFO, %function
 692              	CrankTriggerCaptureCounter_ClearFIFO:
 693              	.LFB15:
 493:Generated_Source\PSoC5/CrankTriggerCaptureCounter.c **** 
 494:Generated_Source\PSoC5/CrankTriggerCaptureCounter.c **** 
 495:Generated_Source\PSoC5/CrankTriggerCaptureCounter.c **** #if (CrankTriggerCaptureCounter_COMPARE_MODE_SOFTWARE)
 496:Generated_Source\PSoC5/CrankTriggerCaptureCounter.c **** /*******************************************************************************
 497:Generated_Source\PSoC5/CrankTriggerCaptureCounter.c **** * Function Name: CrankTriggerCaptureCounter_SetCompareMode
 498:Generated_Source\PSoC5/CrankTriggerCaptureCounter.c **** ********************************************************************************
 499:Generated_Source\PSoC5/CrankTriggerCaptureCounter.c **** * Summary:
 500:Generated_Source\PSoC5/CrankTriggerCaptureCounter.c **** *  Sets the software controlled Compare Mode.
 501:Generated_Source\PSoC5/CrankTriggerCaptureCounter.c **** *
 502:Generated_Source\PSoC5/CrankTriggerCaptureCounter.c **** * Parameters:
 503:Generated_Source\PSoC5/CrankTriggerCaptureCounter.c **** *  compareMode:  Compare Mode Enumerated Type.
 504:Generated_Source\PSoC5/CrankTriggerCaptureCounter.c **** *
ARM GAS  C:\Users\Bruger\AppData\Local\Temp\cc4KdDNK.s 			page 22


 505:Generated_Source\PSoC5/CrankTriggerCaptureCounter.c **** * Return:
 506:Generated_Source\PSoC5/CrankTriggerCaptureCounter.c **** *  void
 507:Generated_Source\PSoC5/CrankTriggerCaptureCounter.c **** *
 508:Generated_Source\PSoC5/CrankTriggerCaptureCounter.c **** *******************************************************************************/
 509:Generated_Source\PSoC5/CrankTriggerCaptureCounter.c **** void CrankTriggerCaptureCounter_SetCompareMode(uint8 compareMode) 
 510:Generated_Source\PSoC5/CrankTriggerCaptureCounter.c **** {
 511:Generated_Source\PSoC5/CrankTriggerCaptureCounter.c ****     /* Clear the compare mode bits in the control register */
 512:Generated_Source\PSoC5/CrankTriggerCaptureCounter.c ****     CrankTriggerCaptureCounter_CONTROL &= ((uint8)(~CrankTriggerCaptureCounter_CTRL_CMPMODE_MASK));
 513:Generated_Source\PSoC5/CrankTriggerCaptureCounter.c ****     
 514:Generated_Source\PSoC5/CrankTriggerCaptureCounter.c ****     /* Write the new setting */
 515:Generated_Source\PSoC5/CrankTriggerCaptureCounter.c ****     CrankTriggerCaptureCounter_CONTROL |= compareMode;
 516:Generated_Source\PSoC5/CrankTriggerCaptureCounter.c **** }
 517:Generated_Source\PSoC5/CrankTriggerCaptureCounter.c **** #endif  /* (CrankTriggerCaptureCounter_COMPARE_MODE_SOFTWARE) */
 518:Generated_Source\PSoC5/CrankTriggerCaptureCounter.c **** 
 519:Generated_Source\PSoC5/CrankTriggerCaptureCounter.c **** 
 520:Generated_Source\PSoC5/CrankTriggerCaptureCounter.c **** #if (CrankTriggerCaptureCounter_CAPTURE_MODE_SOFTWARE)
 521:Generated_Source\PSoC5/CrankTriggerCaptureCounter.c **** /*******************************************************************************
 522:Generated_Source\PSoC5/CrankTriggerCaptureCounter.c **** * Function Name: CrankTriggerCaptureCounter_SetCaptureMode
 523:Generated_Source\PSoC5/CrankTriggerCaptureCounter.c **** ********************************************************************************
 524:Generated_Source\PSoC5/CrankTriggerCaptureCounter.c **** * Summary:
 525:Generated_Source\PSoC5/CrankTriggerCaptureCounter.c **** *  Sets the software controlled Capture Mode.
 526:Generated_Source\PSoC5/CrankTriggerCaptureCounter.c **** *
 527:Generated_Source\PSoC5/CrankTriggerCaptureCounter.c **** * Parameters:
 528:Generated_Source\PSoC5/CrankTriggerCaptureCounter.c **** *  captureMode:  Capture Mode Enumerated Type.
 529:Generated_Source\PSoC5/CrankTriggerCaptureCounter.c **** *
 530:Generated_Source\PSoC5/CrankTriggerCaptureCounter.c **** * Return:
 531:Generated_Source\PSoC5/CrankTriggerCaptureCounter.c **** *  void
 532:Generated_Source\PSoC5/CrankTriggerCaptureCounter.c **** *
 533:Generated_Source\PSoC5/CrankTriggerCaptureCounter.c **** *******************************************************************************/
 534:Generated_Source\PSoC5/CrankTriggerCaptureCounter.c **** void CrankTriggerCaptureCounter_SetCaptureMode(uint8 captureMode) 
 535:Generated_Source\PSoC5/CrankTriggerCaptureCounter.c **** {
 536:Generated_Source\PSoC5/CrankTriggerCaptureCounter.c ****     /* Clear the capture mode bits in the control register */
 537:Generated_Source\PSoC5/CrankTriggerCaptureCounter.c ****     CrankTriggerCaptureCounter_CONTROL &= ((uint8)(~CrankTriggerCaptureCounter_CTRL_CAPMODE_MASK));
 538:Generated_Source\PSoC5/CrankTriggerCaptureCounter.c ****     
 539:Generated_Source\PSoC5/CrankTriggerCaptureCounter.c ****     /* Write the new setting */
 540:Generated_Source\PSoC5/CrankTriggerCaptureCounter.c ****     CrankTriggerCaptureCounter_CONTROL |= ((uint8)((uint8)captureMode << CrankTriggerCaptureCounter
 541:Generated_Source\PSoC5/CrankTriggerCaptureCounter.c **** }
 542:Generated_Source\PSoC5/CrankTriggerCaptureCounter.c **** #endif  /* (CrankTriggerCaptureCounter_CAPTURE_MODE_SOFTWARE) */
 543:Generated_Source\PSoC5/CrankTriggerCaptureCounter.c **** 
 544:Generated_Source\PSoC5/CrankTriggerCaptureCounter.c **** 
 545:Generated_Source\PSoC5/CrankTriggerCaptureCounter.c **** /*******************************************************************************
 546:Generated_Source\PSoC5/CrankTriggerCaptureCounter.c **** * Function Name: CrankTriggerCaptureCounter_ClearFIFO
 547:Generated_Source\PSoC5/CrankTriggerCaptureCounter.c **** ********************************************************************************
 548:Generated_Source\PSoC5/CrankTriggerCaptureCounter.c **** * Summary:
 549:Generated_Source\PSoC5/CrankTriggerCaptureCounter.c **** *   This function clears all capture data from the capture FIFO
 550:Generated_Source\PSoC5/CrankTriggerCaptureCounter.c **** *
 551:Generated_Source\PSoC5/CrankTriggerCaptureCounter.c **** * Parameters:  
 552:Generated_Source\PSoC5/CrankTriggerCaptureCounter.c **** *  void:
 553:Generated_Source\PSoC5/CrankTriggerCaptureCounter.c **** *
 554:Generated_Source\PSoC5/CrankTriggerCaptureCounter.c **** * Return: 
 555:Generated_Source\PSoC5/CrankTriggerCaptureCounter.c **** *  None
 556:Generated_Source\PSoC5/CrankTriggerCaptureCounter.c **** *
 557:Generated_Source\PSoC5/CrankTriggerCaptureCounter.c **** *******************************************************************************/
 558:Generated_Source\PSoC5/CrankTriggerCaptureCounter.c **** void CrankTriggerCaptureCounter_ClearFIFO(void) 
 559:Generated_Source\PSoC5/CrankTriggerCaptureCounter.c **** {
 694              		.loc 1 559 0
 695              		.cfi_startproc
ARM GAS  C:\Users\Bruger\AppData\Local\Temp\cc4KdDNK.s 			page 23


 696              		@ args = 0, pretend = 0, frame = 0
 697              		@ frame_needed = 1, uses_anonymous_args = 0
 698 0000 80B5     		push	{r7, lr}
 699              		.cfi_def_cfa_offset 8
 700              		.cfi_offset 7, -8
 701              		.cfi_offset 14, -4
 702 0002 00AF     		add	r7, sp, #0
 703              		.cfi_def_cfa_register 7
 560:Generated_Source\PSoC5/CrankTriggerCaptureCounter.c **** 
 561:Generated_Source\PSoC5/CrankTriggerCaptureCounter.c ****     while(0u != (CrankTriggerCaptureCounter_ReadStatusRegister() & CrankTriggerCaptureCounter_STATU
 704              		.loc 1 561 0
 705 0004 01E0     		b	.L54
 706              	.L55:
 562:Generated_Source\PSoC5/CrankTriggerCaptureCounter.c ****     {
 563:Generated_Source\PSoC5/CrankTriggerCaptureCounter.c ****         (void)CrankTriggerCaptureCounter_ReadCapture();
 707              		.loc 1 563 0
 708 0006 FFF7FEFF 		bl	CrankTriggerCaptureCounter_ReadCapture
 709              	.L54:
 561:Generated_Source\PSoC5/CrankTriggerCaptureCounter.c ****     {
 710              		.loc 1 561 0
 711 000a FFF7FEFF 		bl	CrankTriggerCaptureCounter_ReadStatusRegister
 712 000e 0346     		mov	r3, r0
 713 0010 03F04003 		and	r3, r3, #64
 714 0014 002B     		cmp	r3, #0
 715 0016 F6D1     		bne	.L55
 564:Generated_Source\PSoC5/CrankTriggerCaptureCounter.c ****     }
 565:Generated_Source\PSoC5/CrankTriggerCaptureCounter.c **** 
 566:Generated_Source\PSoC5/CrankTriggerCaptureCounter.c **** }
 716              		.loc 1 566 0
 717 0018 80BD     		pop	{r7, pc}
 718              		.cfi_endproc
 719              	.LFE15:
 720              		.size	CrankTriggerCaptureCounter_ClearFIFO, .-CrankTriggerCaptureCounter_ClearFIFO
 721 001a 00BF     		.text
 722              	.Letext0:
 723              		.file 2 "Generated_Source\\PSoC5\\cytypes.h"