ARM GAS  C:\Users\Bruger\AppData\Local\Temp\ccj0lDyf.s 			page 1


   1              		.syntax unified
   2              		.cpu cortex-m3
   3              		.fpu softvfp
   4              		.eabi_attribute 20, 1
   5              		.eabi_attribute 21, 1
   6              		.eabi_attribute 23, 3
   7              		.eabi_attribute 24, 1
   8              		.eabi_attribute 25, 1
   9              		.eabi_attribute 26, 1
  10              		.eabi_attribute 30, 6
  11              		.eabi_attribute 34, 1
  12              		.eabi_attribute 18, 4
  13              		.thumb
  14              		.file	"cyfitter_cfg.c"
  15              		.text
  16              	.Ltext0:
  17              		.cfi_sections	.debug_frame
  18              		.section	.text.CYMEMZERO,"ax",%progbits
  19              		.align	2
  20              		.thumb
  21              		.thumb_func
  22              		.type	CYMEMZERO, %function
  23              	CYMEMZERO:
  24              	.LFB0:
  25              		.file 1 "Generated_Source\\PSoC5\\cyfitter_cfg.c"
   1:Generated_Source\PSoC5/cyfitter_cfg.c **** /*******************************************************************************
   2:Generated_Source\PSoC5/cyfitter_cfg.c **** * File Name: cyfitter_cfg.c
   3:Generated_Source\PSoC5/cyfitter_cfg.c **** * 
   4:Generated_Source\PSoC5/cyfitter_cfg.c **** * PSoC Creator  4.0 Update 1
   5:Generated_Source\PSoC5/cyfitter_cfg.c **** *
   6:Generated_Source\PSoC5/cyfitter_cfg.c **** * Description:
   7:Generated_Source\PSoC5/cyfitter_cfg.c **** * This file contains device initialization code.
   8:Generated_Source\PSoC5/cyfitter_cfg.c **** * Except for the user defined sections in CyClockStartupError(), this file should not be modified.
   9:Generated_Source\PSoC5/cyfitter_cfg.c **** * This file is automatically generated by PSoC Creator.
  10:Generated_Source\PSoC5/cyfitter_cfg.c **** *
  11:Generated_Source\PSoC5/cyfitter_cfg.c **** ********************************************************************************
  12:Generated_Source\PSoC5/cyfitter_cfg.c **** * Copyright (c) 2007-2016 Cypress Semiconductor.  All rights reserved.
  13:Generated_Source\PSoC5/cyfitter_cfg.c **** * You may use this file only in accordance with the license, terms, conditions, 
  14:Generated_Source\PSoC5/cyfitter_cfg.c **** * disclaimers, and limitations in the end user license agreement accompanying 
  15:Generated_Source\PSoC5/cyfitter_cfg.c **** * the software package with which this file was provided.
  16:Generated_Source\PSoC5/cyfitter_cfg.c **** ********************************************************************************/
  17:Generated_Source\PSoC5/cyfitter_cfg.c **** 
  18:Generated_Source\PSoC5/cyfitter_cfg.c **** #include <string.h>
  19:Generated_Source\PSoC5/cyfitter_cfg.c **** #include "cytypes.h"
  20:Generated_Source\PSoC5/cyfitter_cfg.c **** #include "cydevice_trm.h"
  21:Generated_Source\PSoC5/cyfitter_cfg.c **** #include "cyfitter.h"
  22:Generated_Source\PSoC5/cyfitter_cfg.c **** #include "CyLib.h"
  23:Generated_Source\PSoC5/cyfitter_cfg.c **** #include "cyfitter_cfg.h"
  24:Generated_Source\PSoC5/cyfitter_cfg.c **** 
  25:Generated_Source\PSoC5/cyfitter_cfg.c **** #define CY_NEED_CYCLOCKSTARTUPERROR 1
  26:Generated_Source\PSoC5/cyfitter_cfg.c **** 
  27:Generated_Source\PSoC5/cyfitter_cfg.c **** 
  28:Generated_Source\PSoC5/cyfitter_cfg.c **** #if defined(__GNUC__) || defined(__ARMCC_VERSION)
  29:Generated_Source\PSoC5/cyfitter_cfg.c ****     #define CYPACKED 
  30:Generated_Source\PSoC5/cyfitter_cfg.c ****     #define CYPACKED_ATTR __attribute__ ((packed))
  31:Generated_Source\PSoC5/cyfitter_cfg.c ****     #define CYALIGNED __attribute__ ((aligned))
  32:Generated_Source\PSoC5/cyfitter_cfg.c ****     #define CY_CFG_UNUSED __attribute__ ((unused))
ARM GAS  C:\Users\Bruger\AppData\Local\Temp\ccj0lDyf.s 			page 2


  33:Generated_Source\PSoC5/cyfitter_cfg.c ****     #ifndef CY_CFG_SECTION
  34:Generated_Source\PSoC5/cyfitter_cfg.c ****         #define CY_CFG_SECTION __attribute__ ((section(".psocinit")))
  35:Generated_Source\PSoC5/cyfitter_cfg.c ****     #endif
  36:Generated_Source\PSoC5/cyfitter_cfg.c ****     
  37:Generated_Source\PSoC5/cyfitter_cfg.c ****     #if defined(__ARMCC_VERSION)
  38:Generated_Source\PSoC5/cyfitter_cfg.c ****         #define CY_CFG_MEMORY_BARRIER() __memory_changed()
  39:Generated_Source\PSoC5/cyfitter_cfg.c ****     #else
  40:Generated_Source\PSoC5/cyfitter_cfg.c ****         #define CY_CFG_MEMORY_BARRIER() __sync_synchronize()
  41:Generated_Source\PSoC5/cyfitter_cfg.c ****     #endif
  42:Generated_Source\PSoC5/cyfitter_cfg.c ****     
  43:Generated_Source\PSoC5/cyfitter_cfg.c **** #elif defined(__ICCARM__)
  44:Generated_Source\PSoC5/cyfitter_cfg.c ****     #include <intrinsics.h>
  45:Generated_Source\PSoC5/cyfitter_cfg.c **** 
  46:Generated_Source\PSoC5/cyfitter_cfg.c ****     #define CYPACKED __packed
  47:Generated_Source\PSoC5/cyfitter_cfg.c ****     #define CYPACKED_ATTR 
  48:Generated_Source\PSoC5/cyfitter_cfg.c ****     #define CYALIGNED _Pragma("data_alignment=4")
  49:Generated_Source\PSoC5/cyfitter_cfg.c ****     #define CY_CFG_UNUSED _Pragma("diag_suppress=Pe177")
  50:Generated_Source\PSoC5/cyfitter_cfg.c ****     #define CY_CFG_SECTION _Pragma("location=\".psocinit\"")
  51:Generated_Source\PSoC5/cyfitter_cfg.c ****     
  52:Generated_Source\PSoC5/cyfitter_cfg.c ****     #define CY_CFG_MEMORY_BARRIER() __DMB()
  53:Generated_Source\PSoC5/cyfitter_cfg.c ****     
  54:Generated_Source\PSoC5/cyfitter_cfg.c **** #else
  55:Generated_Source\PSoC5/cyfitter_cfg.c ****     #error Unsupported toolchain
  56:Generated_Source\PSoC5/cyfitter_cfg.c **** #endif
  57:Generated_Source\PSoC5/cyfitter_cfg.c **** 
  58:Generated_Source\PSoC5/cyfitter_cfg.c **** 
  59:Generated_Source\PSoC5/cyfitter_cfg.c **** CY_CFG_UNUSED
  60:Generated_Source\PSoC5/cyfitter_cfg.c **** static void CYMEMZERO(void *s, size_t n);
  61:Generated_Source\PSoC5/cyfitter_cfg.c **** CY_CFG_UNUSED
  62:Generated_Source\PSoC5/cyfitter_cfg.c **** static void CYMEMZERO(void *s, size_t n)
  63:Generated_Source\PSoC5/cyfitter_cfg.c **** {
  26              		.loc 1 63 0
  27              		.cfi_startproc
  28              		@ args = 0, pretend = 0, frame = 8
  29              		@ frame_needed = 1, uses_anonymous_args = 0
  30 0000 80B5     		push	{r7, lr}
  31              		.cfi_def_cfa_offset 8
  32              		.cfi_offset 7, -8
  33              		.cfi_offset 14, -4
  34 0002 82B0     		sub	sp, sp, #8
  35              		.cfi_def_cfa_offset 16
  36 0004 00AF     		add	r7, sp, #0
  37              		.cfi_def_cfa_register 7
  38 0006 7860     		str	r0, [r7, #4]
  39 0008 3960     		str	r1, [r7]
  64:Generated_Source\PSoC5/cyfitter_cfg.c **** 	(void)memset(s, 0, n);
  40              		.loc 1 64 0
  41 000a 7868     		ldr	r0, [r7, #4]
  42 000c 0021     		movs	r1, #0
  43 000e 3A68     		ldr	r2, [r7]
  44 0010 FFF7FEFF 		bl	memset
  65:Generated_Source\PSoC5/cyfitter_cfg.c **** }
  45              		.loc 1 65 0
  46 0014 0837     		adds	r7, r7, #8
  47              		.cfi_def_cfa_offset 8
  48 0016 BD46     		mov	sp, r7
  49              		.cfi_def_cfa_register 13
ARM GAS  C:\Users\Bruger\AppData\Local\Temp\ccj0lDyf.s 			page 3


  50              		@ sp needed
  51 0018 80BD     		pop	{r7, pc}
  52              		.cfi_endproc
  53              	.LFE0:
  54              		.size	CYMEMZERO, .-CYMEMZERO
  55 001a 00BF     		.section	.text.CYCONFIGCPY,"ax",%progbits
  56              		.align	2
  57              		.thumb
  58              		.thumb_func
  59              		.type	CYCONFIGCPY, %function
  60              	CYCONFIGCPY:
  61              	.LFB1:
  66:Generated_Source\PSoC5/cyfitter_cfg.c **** CY_CFG_UNUSED
  67:Generated_Source\PSoC5/cyfitter_cfg.c **** static void CYCONFIGCPY(void *dest, const void *src, size_t n);
  68:Generated_Source\PSoC5/cyfitter_cfg.c **** CY_CFG_UNUSED
  69:Generated_Source\PSoC5/cyfitter_cfg.c **** static void CYCONFIGCPY(void *dest, const void *src, size_t n)
  70:Generated_Source\PSoC5/cyfitter_cfg.c **** {
  62              		.loc 1 70 0
  63              		.cfi_startproc
  64              		@ args = 0, pretend = 0, frame = 16
  65              		@ frame_needed = 1, uses_anonymous_args = 0
  66 0000 80B5     		push	{r7, lr}
  67              		.cfi_def_cfa_offset 8
  68              		.cfi_offset 7, -8
  69              		.cfi_offset 14, -4
  70 0002 84B0     		sub	sp, sp, #16
  71              		.cfi_def_cfa_offset 24
  72 0004 00AF     		add	r7, sp, #0
  73              		.cfi_def_cfa_register 7
  74 0006 F860     		str	r0, [r7, #12]
  75 0008 B960     		str	r1, [r7, #8]
  76 000a 7A60     		str	r2, [r7, #4]
  71:Generated_Source\PSoC5/cyfitter_cfg.c **** 	(void)memcpy(dest, src, n);
  77              		.loc 1 71 0
  78 000c F868     		ldr	r0, [r7, #12]
  79 000e B968     		ldr	r1, [r7, #8]
  80 0010 7A68     		ldr	r2, [r7, #4]
  81 0012 FFF7FEFF 		bl	memcpy
  72:Generated_Source\PSoC5/cyfitter_cfg.c **** }
  82              		.loc 1 72 0
  83 0016 1037     		adds	r7, r7, #16
  84              		.cfi_def_cfa_offset 8
  85 0018 BD46     		mov	sp, r7
  86              		.cfi_def_cfa_register 13
  87              		@ sp needed
  88 001a 80BD     		pop	{r7, pc}
  89              		.cfi_endproc
  90              	.LFE1:
  91              		.size	CYCONFIGCPY, .-CYCONFIGCPY
  92              		.section	.text.CYCONFIGCPYCODE,"ax",%progbits
  93              		.align	2
  94              		.thumb
  95              		.thumb_func
  96              		.type	CYCONFIGCPYCODE, %function
  97              	CYCONFIGCPYCODE:
  98              	.LFB2:
  73:Generated_Source\PSoC5/cyfitter_cfg.c **** CY_CFG_UNUSED
ARM GAS  C:\Users\Bruger\AppData\Local\Temp\ccj0lDyf.s 			page 4


  74:Generated_Source\PSoC5/cyfitter_cfg.c **** static void CYCONFIGCPYCODE(void *dest, const void *src, size_t n);
  75:Generated_Source\PSoC5/cyfitter_cfg.c **** CY_CFG_UNUSED
  76:Generated_Source\PSoC5/cyfitter_cfg.c **** static void CYCONFIGCPYCODE(void *dest, const void *src, size_t n)
  77:Generated_Source\PSoC5/cyfitter_cfg.c **** {
  99              		.loc 1 77 0
 100              		.cfi_startproc
 101              		@ args = 0, pretend = 0, frame = 16
 102              		@ frame_needed = 1, uses_anonymous_args = 0
 103 0000 80B5     		push	{r7, lr}
 104              		.cfi_def_cfa_offset 8
 105              		.cfi_offset 7, -8
 106              		.cfi_offset 14, -4
 107 0002 84B0     		sub	sp, sp, #16
 108              		.cfi_def_cfa_offset 24
 109 0004 00AF     		add	r7, sp, #0
 110              		.cfi_def_cfa_register 7
 111 0006 F860     		str	r0, [r7, #12]
 112 0008 B960     		str	r1, [r7, #8]
 113 000a 7A60     		str	r2, [r7, #4]
  78:Generated_Source\PSoC5/cyfitter_cfg.c **** 	(void)memcpy(dest, src, n);
 114              		.loc 1 78 0
 115 000c F868     		ldr	r0, [r7, #12]
 116 000e B968     		ldr	r1, [r7, #8]
 117 0010 7A68     		ldr	r2, [r7, #4]
 118 0012 FFF7FEFF 		bl	memcpy
  79:Generated_Source\PSoC5/cyfitter_cfg.c **** }
 119              		.loc 1 79 0
 120 0016 1037     		adds	r7, r7, #16
 121              		.cfi_def_cfa_offset 8
 122 0018 BD46     		mov	sp, r7
 123              		.cfi_def_cfa_register 13
 124              		@ sp needed
 125 001a 80BD     		pop	{r7, pc}
 126              		.cfi_endproc
 127              	.LFE2:
 128              		.size	CYCONFIGCPYCODE, .-CYCONFIGCPYCODE
 129              		.section	.text.CyClockStartupError,"ax",%progbits
 130              		.align	2
 131              		.thumb
 132              		.thumb_func
 133              		.type	CyClockStartupError, %function
 134              	CyClockStartupError:
 135              	.LFB3:
  80:Generated_Source\PSoC5/cyfitter_cfg.c **** 
  81:Generated_Source\PSoC5/cyfitter_cfg.c **** 
  82:Generated_Source\PSoC5/cyfitter_cfg.c **** 
  83:Generated_Source\PSoC5/cyfitter_cfg.c **** 
  84:Generated_Source\PSoC5/cyfitter_cfg.c **** /* Clock startup error codes                                                   */
  85:Generated_Source\PSoC5/cyfitter_cfg.c **** #define CYCLOCKSTART_NO_ERROR    0u
  86:Generated_Source\PSoC5/cyfitter_cfg.c **** #define CYCLOCKSTART_XTAL_ERROR  1u
  87:Generated_Source\PSoC5/cyfitter_cfg.c **** #define CYCLOCKSTART_32KHZ_ERROR 2u
  88:Generated_Source\PSoC5/cyfitter_cfg.c **** #define CYCLOCKSTART_PLL_ERROR   3u
  89:Generated_Source\PSoC5/cyfitter_cfg.c **** 
  90:Generated_Source\PSoC5/cyfitter_cfg.c **** 
  91:Generated_Source\PSoC5/cyfitter_cfg.c **** #ifdef CY_NEED_CYCLOCKSTARTUPERROR
  92:Generated_Source\PSoC5/cyfitter_cfg.c **** /*******************************************************************************
  93:Generated_Source\PSoC5/cyfitter_cfg.c **** * Function Name: CyClockStartupError
ARM GAS  C:\Users\Bruger\AppData\Local\Temp\ccj0lDyf.s 			page 5


  94:Generated_Source\PSoC5/cyfitter_cfg.c **** ********************************************************************************
  95:Generated_Source\PSoC5/cyfitter_cfg.c **** * Summary:
  96:Generated_Source\PSoC5/cyfitter_cfg.c **** *  If an error is encountered during clock configuration (crystal startup error,
  97:Generated_Source\PSoC5/cyfitter_cfg.c **** *  PLL lock error, etc.), the system will end up here.  Unless reimplemented by
  98:Generated_Source\PSoC5/cyfitter_cfg.c **** *  the customer, this function will stop in an infinite loop.
  99:Generated_Source\PSoC5/cyfitter_cfg.c **** *
 100:Generated_Source\PSoC5/cyfitter_cfg.c **** * Parameters:
 101:Generated_Source\PSoC5/cyfitter_cfg.c **** *   void
 102:Generated_Source\PSoC5/cyfitter_cfg.c **** *
 103:Generated_Source\PSoC5/cyfitter_cfg.c **** * Return:
 104:Generated_Source\PSoC5/cyfitter_cfg.c **** *   void
 105:Generated_Source\PSoC5/cyfitter_cfg.c **** *
 106:Generated_Source\PSoC5/cyfitter_cfg.c **** *******************************************************************************/
 107:Generated_Source\PSoC5/cyfitter_cfg.c **** CY_CFG_UNUSED
 108:Generated_Source\PSoC5/cyfitter_cfg.c **** static void CyClockStartupError(uint8 errorCode);
 109:Generated_Source\PSoC5/cyfitter_cfg.c **** CY_CFG_UNUSED
 110:Generated_Source\PSoC5/cyfitter_cfg.c **** static void CyClockStartupError(uint8 errorCode)
 111:Generated_Source\PSoC5/cyfitter_cfg.c **** {
 136              		.loc 1 111 0
 137              		.cfi_startproc
 138              		@ args = 0, pretend = 0, frame = 8
 139              		@ frame_needed = 1, uses_anonymous_args = 0
 140              		@ link register save eliminated.
 141 0000 80B4     		push	{r7}
 142              		.cfi_def_cfa_offset 4
 143              		.cfi_offset 7, -4
 144 0002 83B0     		sub	sp, sp, #12
 145              		.cfi_def_cfa_offset 16
 146 0004 00AF     		add	r7, sp, #0
 147              		.cfi_def_cfa_register 7
 148 0006 0346     		mov	r3, r0
 149 0008 FB71     		strb	r3, [r7, #7]
 150              	.L5:
 112:Generated_Source\PSoC5/cyfitter_cfg.c ****     /* To remove the compiler warning if errorCode not used.                */
 113:Generated_Source\PSoC5/cyfitter_cfg.c ****     errorCode = errorCode;
 114:Generated_Source\PSoC5/cyfitter_cfg.c **** 
 115:Generated_Source\PSoC5/cyfitter_cfg.c ****     /* If we have a clock startup error (bad MHz crystal, PLL lock, etc.),  */
 116:Generated_Source\PSoC5/cyfitter_cfg.c ****     /* we will end up here to allow the customer to implement something to  */
 117:Generated_Source\PSoC5/cyfitter_cfg.c ****     /* deal with the clock condition.                                       */
 118:Generated_Source\PSoC5/cyfitter_cfg.c **** 
 119:Generated_Source\PSoC5/cyfitter_cfg.c **** #ifdef CY_CFG_CLOCK_STARTUP_ERROR_CALLBACK
 120:Generated_Source\PSoC5/cyfitter_cfg.c **** 	CY_CFG_Clock_Startup_ErrorCallback();
 121:Generated_Source\PSoC5/cyfitter_cfg.c **** #else
 122:Generated_Source\PSoC5/cyfitter_cfg.c **** 	/*  If not using CY_CFG_CLOCK_STARTUP_ERROR_CALLBACK, place your clock startup code here. */
 123:Generated_Source\PSoC5/cyfitter_cfg.c ****     /* `#START CyClockStartupError` */
 124:Generated_Source\PSoC5/cyfitter_cfg.c **** 
 125:Generated_Source\PSoC5/cyfitter_cfg.c **** 
 126:Generated_Source\PSoC5/cyfitter_cfg.c **** 
 127:Generated_Source\PSoC5/cyfitter_cfg.c ****     /* `#END` */
 128:Generated_Source\PSoC5/cyfitter_cfg.c **** 
 129:Generated_Source\PSoC5/cyfitter_cfg.c ****     /* If nothing else, stop here since the clocks have not started         */
 130:Generated_Source\PSoC5/cyfitter_cfg.c ****     /* correctly.                                                           */
 131:Generated_Source\PSoC5/cyfitter_cfg.c ****     while(1) {}
 151              		.loc 1 131 0 discriminator 1
 152 000a FEE7     		b	.L5
 153              		.cfi_endproc
 154              	.LFE3:
ARM GAS  C:\Users\Bruger\AppData\Local\Temp\ccj0lDyf.s 			page 6


 155              		.size	CyClockStartupError, .-CyClockStartupError
 156              		.section	.text.ClockSetup,"ax",%progbits
 157              		.align	2
 158              		.thumb
 159              		.thumb_func
 160              		.type	ClockSetup, %function
 161              	ClockSetup:
 162              	.LFB4:
 132:Generated_Source\PSoC5/cyfitter_cfg.c **** #endif /* CY_CFG_CLOCK_STARTUP_ERROR_CALLBACK */ 
 133:Generated_Source\PSoC5/cyfitter_cfg.c **** }
 134:Generated_Source\PSoC5/cyfitter_cfg.c **** #endif
 135:Generated_Source\PSoC5/cyfitter_cfg.c **** 
 136:Generated_Source\PSoC5/cyfitter_cfg.c **** 
 137:Generated_Source\PSoC5/cyfitter_cfg.c **** /*******************************************************************************
 138:Generated_Source\PSoC5/cyfitter_cfg.c **** * Function Name: ClockSetup
 139:Generated_Source\PSoC5/cyfitter_cfg.c **** ********************************************************************************
 140:Generated_Source\PSoC5/cyfitter_cfg.c **** *
 141:Generated_Source\PSoC5/cyfitter_cfg.c **** * Summary:
 142:Generated_Source\PSoC5/cyfitter_cfg.c **** *  Performs the initialization of all of the clocks in the device based on the
 143:Generated_Source\PSoC5/cyfitter_cfg.c **** *  settings in the Clock tab of the DWR.  This includes enabling the requested
 144:Generated_Source\PSoC5/cyfitter_cfg.c **** *  clocks and setting the necessary dividers to produce the desired frequency. 
 145:Generated_Source\PSoC5/cyfitter_cfg.c **** *
 146:Generated_Source\PSoC5/cyfitter_cfg.c **** * Parameters:
 147:Generated_Source\PSoC5/cyfitter_cfg.c **** *  void
 148:Generated_Source\PSoC5/cyfitter_cfg.c **** *
 149:Generated_Source\PSoC5/cyfitter_cfg.c **** * Return:
 150:Generated_Source\PSoC5/cyfitter_cfg.c **** *  void
 151:Generated_Source\PSoC5/cyfitter_cfg.c **** *
 152:Generated_Source\PSoC5/cyfitter_cfg.c **** *******************************************************************************/
 153:Generated_Source\PSoC5/cyfitter_cfg.c **** static void ClockSetup(void);
 154:Generated_Source\PSoC5/cyfitter_cfg.c **** static void ClockSetup(void)
 155:Generated_Source\PSoC5/cyfitter_cfg.c **** {
 163              		.loc 1 155 0
 164              		.cfi_startproc
 165              		@ args = 0, pretend = 0, frame = 8
 166              		@ frame_needed = 1, uses_anonymous_args = 0
 167 0000 80B5     		push	{r7, lr}
 168              		.cfi_def_cfa_offset 8
 169              		.cfi_offset 7, -8
 170              		.cfi_offset 14, -4
 171 0002 82B0     		sub	sp, sp, #8
 172              		.cfi_def_cfa_offset 16
 173 0004 00AF     		add	r7, sp, #0
 174              		.cfi_def_cfa_register 7
 156:Generated_Source\PSoC5/cyfitter_cfg.c **** 	uint32 timeout;
 157:Generated_Source\PSoC5/cyfitter_cfg.c **** 	uint8 pllLock;
 158:Generated_Source\PSoC5/cyfitter_cfg.c **** 
 159:Generated_Source\PSoC5/cyfitter_cfg.c **** 
 160:Generated_Source\PSoC5/cyfitter_cfg.c **** 	/* Configure Digital Clocks based on settings from Clock DWR */
 161:Generated_Source\PSoC5/cyfitter_cfg.c **** 	CY_SET_XTND_REG16((void CYFAR *)(CYREG_CLKDIST_DCFG0_CFG0), 0x0138u);
 175              		.loc 1 161 0
 176 0006 444B     		ldr	r3, .L11
 177 0008 4FF49C72 		mov	r2, #312
 178 000c 1A80     		strh	r2, [r3]	@ movhi
 162:Generated_Source\PSoC5/cyfitter_cfg.c **** 	CY_SET_XTND_REG8((void CYFAR *)(CYREG_CLKDIST_DCFG0_CFG0 + 0x2u), 0x19u);
 179              		.loc 1 162 0
 180 000e 434B     		ldr	r3, .L11+4
ARM GAS  C:\Users\Bruger\AppData\Local\Temp\ccj0lDyf.s 			page 7


 181 0010 1922     		movs	r2, #25
 182 0012 1A70     		strb	r2, [r3]
 163:Generated_Source\PSoC5/cyfitter_cfg.c **** 	CY_SET_XTND_REG16((void CYFAR *)(CYREG_CLKDIST_DCFG1_CFG0), 0x0002u);
 183              		.loc 1 163 0
 184 0014 424B     		ldr	r3, .L11+8
 185 0016 0222     		movs	r2, #2
 186 0018 1A80     		strh	r2, [r3]	@ movhi
 164:Generated_Source\PSoC5/cyfitter_cfg.c **** 	CY_SET_XTND_REG8((void CYFAR *)(CYREG_CLKDIST_DCFG1_CFG0 + 0x2u), 0x19u);
 187              		.loc 1 164 0
 188 001a 424B     		ldr	r3, .L11+12
 189 001c 1922     		movs	r2, #25
 190 001e 1A70     		strb	r2, [r3]
 165:Generated_Source\PSoC5/cyfitter_cfg.c **** 	CY_SET_XTND_REG16((void CYFAR *)(CYREG_CLKDIST_DCFG2_CFG0), 0x0001u);
 191              		.loc 1 165 0
 192 0020 414B     		ldr	r3, .L11+16
 193 0022 0122     		movs	r2, #1
 194 0024 1A80     		strh	r2, [r3]	@ movhi
 166:Generated_Source\PSoC5/cyfitter_cfg.c **** 	CY_SET_XTND_REG8((void CYFAR *)(CYREG_CLKDIST_DCFG2_CFG0 + 0x2u), 0x18u);
 195              		.loc 1 166 0
 196 0026 414B     		ldr	r3, .L11+20
 197 0028 1822     		movs	r2, #24
 198 002a 1A70     		strb	r2, [r3]
 167:Generated_Source\PSoC5/cyfitter_cfg.c **** 	CY_SET_XTND_REG16((void CYFAR *)(CYREG_CLKDIST_DCFG3_CFG0), 0x001Du);
 199              		.loc 1 167 0
 200 002c 404B     		ldr	r3, .L11+24
 201 002e 1D22     		movs	r2, #29
 202 0030 1A80     		strh	r2, [r3]	@ movhi
 168:Generated_Source\PSoC5/cyfitter_cfg.c **** 	CY_SET_XTND_REG8((void CYFAR *)(CYREG_CLKDIST_DCFG3_CFG0 + 0x2u), 0x18u);
 203              		.loc 1 168 0
 204 0032 404B     		ldr	r3, .L11+28
 205 0034 1822     		movs	r2, #24
 206 0036 1A70     		strb	r2, [r3]
 169:Generated_Source\PSoC5/cyfitter_cfg.c **** 	CY_SET_XTND_REG16((void CYFAR *)(CYREG_CLKDIST_DCFG4_CFG0), 0x002Fu);
 207              		.loc 1 169 0
 208 0038 3F4B     		ldr	r3, .L11+32
 209 003a 2F22     		movs	r2, #47
 210 003c 1A80     		strh	r2, [r3]	@ movhi
 170:Generated_Source\PSoC5/cyfitter_cfg.c **** 	CY_SET_XTND_REG8((void CYFAR *)(CYREG_CLKDIST_DCFG4_CFG0 + 0x2u), 0x18u);
 211              		.loc 1 170 0
 212 003e 3F4B     		ldr	r3, .L11+36
 213 0040 1822     		movs	r2, #24
 214 0042 1A70     		strb	r2, [r3]
 171:Generated_Source\PSoC5/cyfitter_cfg.c **** 	CY_SET_XTND_REG16((void CYFAR *)(CYREG_CLKDIST_DCFG5_CFG0), 0x002Fu);
 215              		.loc 1 171 0
 216 0044 3E4B     		ldr	r3, .L11+40
 217 0046 2F22     		movs	r2, #47
 218 0048 1A80     		strh	r2, [r3]	@ movhi
 172:Generated_Source\PSoC5/cyfitter_cfg.c **** 	CY_SET_XTND_REG8((void CYFAR *)(CYREG_CLKDIST_DCFG5_CFG0 + 0x2u), 0x19u);
 219              		.loc 1 172 0
 220 004a 3E4B     		ldr	r3, .L11+44
 221 004c 1922     		movs	r2, #25
 222 004e 1A70     		strb	r2, [r3]
 173:Generated_Source\PSoC5/cyfitter_cfg.c **** 	CY_SET_XTND_REG16((void CYFAR *)(CYREG_CLKDIST_DCFG6_CFG0), 0x00EFu);
 223              		.loc 1 173 0
 224 0050 3D4B     		ldr	r3, .L11+48
 225 0052 EF22     		movs	r2, #239
 226 0054 1A80     		strh	r2, [r3]	@ movhi
ARM GAS  C:\Users\Bruger\AppData\Local\Temp\ccj0lDyf.s 			page 8


 174:Generated_Source\PSoC5/cyfitter_cfg.c **** 	CY_SET_XTND_REG8((void CYFAR *)(CYREG_CLKDIST_DCFG6_CFG0 + 0x2u), 0x19u);
 227              		.loc 1 174 0
 228 0056 3D4B     		ldr	r3, .L11+52
 229 0058 1922     		movs	r2, #25
 230 005a 1A70     		strb	r2, [r3]
 175:Generated_Source\PSoC5/cyfitter_cfg.c **** 	CY_SET_XTND_REG16((void CYFAR *)(CYREG_CLKDIST_DCFG7_CFG0), 0x5DBFu);
 231              		.loc 1 175 0
 232 005c 3C4B     		ldr	r3, .L11+56
 233 005e 45F6BF52 		movw	r2, #23999
 234 0062 1A80     		strh	r2, [r3]	@ movhi
 176:Generated_Source\PSoC5/cyfitter_cfg.c **** 	CY_SET_XTND_REG8((void CYFAR *)(CYREG_CLKDIST_DCFG7_CFG0 + 0x2u), 0x19u);
 235              		.loc 1 176 0
 236 0064 3B4B     		ldr	r3, .L11+60
 237 0066 1922     		movs	r2, #25
 238 0068 1A70     		strb	r2, [r3]
 177:Generated_Source\PSoC5/cyfitter_cfg.c **** 
 178:Generated_Source\PSoC5/cyfitter_cfg.c **** 	/* Configure ILO based on settings from Clock DWR */
 179:Generated_Source\PSoC5/cyfitter_cfg.c **** 	CY_SET_XTND_REG8((void CYFAR *)(CYREG_SLOWCLK_ILO_CR0), 0x06u);
 239              		.loc 1 179 0
 240 006a 3B4B     		ldr	r3, .L11+64
 241 006c 0622     		movs	r2, #6
 242 006e 1A70     		strb	r2, [r3]
 180:Generated_Source\PSoC5/cyfitter_cfg.c **** 
 181:Generated_Source\PSoC5/cyfitter_cfg.c **** 	/* Configure IMO based on settings from Clock DWR */
 182:Generated_Source\PSoC5/cyfitter_cfg.c **** 	CY_SET_XTND_REG8((void CYFAR *)(CYREG_FASTCLK_IMO_CR), 0x52u);
 243              		.loc 1 182 0
 244 0070 3A4B     		ldr	r3, .L11+68
 245 0072 5222     		movs	r2, #82
 246 0074 1A70     		strb	r2, [r3]
 183:Generated_Source\PSoC5/cyfitter_cfg.c **** 	CY_SET_XTND_REG8((void CYFAR *)(CYREG_IMO_TR1), (CY_GET_XTND_REG8((void CYFAR *)CYREG_FLSHID_CUST_
 247              		.loc 1 183 0
 248 0076 3A4B     		ldr	r3, .L11+72
 249 0078 3A4A     		ldr	r2, .L11+76
 250 007a 1278     		ldrb	r2, [r2]
 251 007c D2B2     		uxtb	r2, r2
 252 007e 1A70     		strb	r2, [r3]
 184:Generated_Source\PSoC5/cyfitter_cfg.c **** 
 185:Generated_Source\PSoC5/cyfitter_cfg.c **** 	/* Configure PLL based on settings from Clock DWR */
 186:Generated_Source\PSoC5/cyfitter_cfg.c **** 	CY_SET_XTND_REG16((void CYFAR *)(CYREG_FASTCLK_PLL_P), 0x0710u);
 253              		.loc 1 186 0
 254 0080 394B     		ldr	r3, .L11+80
 255 0082 4FF4E262 		mov	r2, #1808
 256 0086 1A80     		strh	r2, [r3]	@ movhi
 187:Generated_Source\PSoC5/cyfitter_cfg.c **** 	CY_SET_XTND_REG16((void CYFAR *)(CYREG_FASTCLK_PLL_CFG0), 0x1251u);
 257              		.loc 1 187 0
 258 0088 384B     		ldr	r3, .L11+84
 259 008a 41F25122 		movw	r2, #4689
 260 008e 1A80     		strh	r2, [r3]	@ movhi
 188:Generated_Source\PSoC5/cyfitter_cfg.c **** 	/* Wait up to 250us for the PLL to lock */
 189:Generated_Source\PSoC5/cyfitter_cfg.c **** 	pllLock = 0u;
 261              		.loc 1 189 0
 262 0090 0023     		movs	r3, #0
 263 0092 FB70     		strb	r3, [r7, #3]
 190:Generated_Source\PSoC5/cyfitter_cfg.c **** 	for (timeout = 250u / 10u; (timeout > 0u) && (pllLock != 0x03u); timeout--)
 264              		.loc 1 190 0
 265 0094 1923     		movs	r3, #25
 266 0096 7B60     		str	r3, [r7, #4]
ARM GAS  C:\Users\Bruger\AppData\Local\Temp\ccj0lDyf.s 			page 9


 267 0098 14E0     		b	.L7
 268              	.L9:
 191:Generated_Source\PSoC5/cyfitter_cfg.c **** 	{ 
 192:Generated_Source\PSoC5/cyfitter_cfg.c **** 		pllLock = 0x03u & ((uint8)((uint8)pllLock << 1) | ((CY_GET_XTND_REG8((void CYFAR *)CYREG_FASTCLK_
 269              		.loc 1 192 0 discriminator 4
 270 009a FB78     		ldrb	r3, [r7, #3]
 271 009c 5B00     		lsls	r3, r3, #1
 272 009e DAB2     		uxtb	r2, r3
 273 00a0 334B     		ldr	r3, .L11+88
 274 00a2 1B78     		ldrb	r3, [r3]
 275 00a4 DBB2     		uxtb	r3, r3
 276 00a6 03F00103 		and	r3, r3, #1
 277 00aa DBB2     		uxtb	r3, r3
 278 00ac 1343     		orrs	r3, r3, r2
 279 00ae DBB2     		uxtb	r3, r3
 280 00b0 03F00303 		and	r3, r3, #3
 281 00b4 FB70     		strb	r3, [r7, #3]
 193:Generated_Source\PSoC5/cyfitter_cfg.c **** 		CyDelayCycles(10u * 48u); /* Delay 10us based on 48MHz clock */
 282              		.loc 1 193 0 discriminator 4
 283 00b6 4FF4F070 		mov	r0, #480
 284 00ba FFF7FEFF 		bl	CyDelayCycles
 190:Generated_Source\PSoC5/cyfitter_cfg.c **** 	for (timeout = 250u / 10u; (timeout > 0u) && (pllLock != 0x03u); timeout--)
 285              		.loc 1 190 0 discriminator 4
 286 00be 7B68     		ldr	r3, [r7, #4]
 287 00c0 013B     		subs	r3, r3, #1
 288 00c2 7B60     		str	r3, [r7, #4]
 289              	.L7:
 190:Generated_Source\PSoC5/cyfitter_cfg.c **** 	for (timeout = 250u / 10u; (timeout > 0u) && (pllLock != 0x03u); timeout--)
 290              		.loc 1 190 0 is_stmt 0 discriminator 1
 291 00c4 7B68     		ldr	r3, [r7, #4]
 292 00c6 002B     		cmp	r3, #0
 293 00c8 02D0     		beq	.L8
 190:Generated_Source\PSoC5/cyfitter_cfg.c **** 	for (timeout = 250u / 10u; (timeout > 0u) && (pllLock != 0x03u); timeout--)
 294              		.loc 1 190 0 discriminator 3
 295 00ca FB78     		ldrb	r3, [r7, #3]	@ zero_extendqisi2
 296 00cc 032B     		cmp	r3, #3
 297 00ce E4D1     		bne	.L9
 298              	.L8:
 194:Generated_Source\PSoC5/cyfitter_cfg.c **** 	}
 195:Generated_Source\PSoC5/cyfitter_cfg.c **** 	/* If we ran out of time the PLL didn't lock so go to the error function */
 196:Generated_Source\PSoC5/cyfitter_cfg.c **** 	if (timeout == 0u)
 299              		.loc 1 196 0 is_stmt 1
 300 00d0 7B68     		ldr	r3, [r7, #4]
 301 00d2 002B     		cmp	r3, #0
 302 00d4 02D1     		bne	.L10
 197:Generated_Source\PSoC5/cyfitter_cfg.c **** 	{
 198:Generated_Source\PSoC5/cyfitter_cfg.c **** 		CyClockStartupError(CYCLOCKSTART_PLL_ERROR);
 303              		.loc 1 198 0
 304 00d6 0320     		movs	r0, #3
 305 00d8 FFF7FEFF 		bl	CyClockStartupError
 306              	.L10:
 199:Generated_Source\PSoC5/cyfitter_cfg.c **** 	}
 200:Generated_Source\PSoC5/cyfitter_cfg.c **** 
 201:Generated_Source\PSoC5/cyfitter_cfg.c **** 	/* Configure Bus/Master Clock based on settings from Clock DWR */
 202:Generated_Source\PSoC5/cyfitter_cfg.c **** 	CY_SET_XTND_REG16((void CYFAR *)(CYREG_CLKDIST_MSTR0), 0x0100u);
 307              		.loc 1 202 0
 308 00dc 254B     		ldr	r3, .L11+92
ARM GAS  C:\Users\Bruger\AppData\Local\Temp\ccj0lDyf.s 			page 10


 309 00de 4FF48072 		mov	r2, #256
 310 00e2 1A80     		strh	r2, [r3]	@ movhi
 203:Generated_Source\PSoC5/cyfitter_cfg.c **** 	CY_SET_XTND_REG8((void CYFAR *)(CYREG_CLKDIST_MSTR0), 0x07u);
 311              		.loc 1 203 0
 312 00e4 234B     		ldr	r3, .L11+92
 313 00e6 0722     		movs	r2, #7
 314 00e8 1A70     		strb	r2, [r3]
 204:Generated_Source\PSoC5/cyfitter_cfg.c **** 	CY_SET_XTND_REG8((void CYFAR *)(CYREG_CLKDIST_BCFG0), 0x01u);
 315              		.loc 1 204 0
 316 00ea 234B     		ldr	r3, .L11+96
 317 00ec 0122     		movs	r2, #1
 318 00ee 1A70     		strb	r2, [r3]
 205:Generated_Source\PSoC5/cyfitter_cfg.c **** 	CY_SET_XTND_REG8((void CYFAR *)(CYREG_CLKDIST_BCFG2), 0x08u);
 319              		.loc 1 205 0
 320 00f0 224B     		ldr	r3, .L11+100
 321 00f2 0822     		movs	r2, #8
 322 00f4 1A70     		strb	r2, [r3]
 206:Generated_Source\PSoC5/cyfitter_cfg.c **** 	CY_SET_XTND_REG8((void CYFAR *)(CYREG_CLKDIST_MSTR0), 0x00u);
 323              		.loc 1 206 0
 324 00f6 1F4B     		ldr	r3, .L11+92
 325 00f8 0022     		movs	r2, #0
 326 00fa 1A70     		strb	r2, [r3]
 207:Generated_Source\PSoC5/cyfitter_cfg.c **** 
 208:Generated_Source\PSoC5/cyfitter_cfg.c **** 	/* Configure USB Clock based on settings from Clock DWR */
 209:Generated_Source\PSoC5/cyfitter_cfg.c **** 	CY_SET_XTND_REG8((void CYFAR *)(CYREG_CLKDIST_UCFG), 0x00u);
 327              		.loc 1 209 0
 328 00fc 204B     		ldr	r3, .L11+104
 329 00fe 0022     		movs	r2, #0
 330 0100 1A70     		strb	r2, [r3]
 210:Generated_Source\PSoC5/cyfitter_cfg.c **** 	CY_SET_XTND_REG8((void CYFAR *)(CYREG_CLKDIST_LD), 0x02u);
 331              		.loc 1 210 0
 332 0102 204B     		ldr	r3, .L11+108
 333 0104 0222     		movs	r2, #2
 334 0106 1A70     		strb	r2, [r3]
 211:Generated_Source\PSoC5/cyfitter_cfg.c **** 
 212:Generated_Source\PSoC5/cyfitter_cfg.c **** 	CY_SET_XTND_REG8((void CYFAR *)(CYREG_PM_ACT_CFG2), ((CY_GET_XTND_REG8((void CYFAR *)CYREG_PM_ACT_
 335              		.loc 1 212 0
 336 0108 1F4B     		ldr	r3, .L11+112
 337 010a 1B78     		ldrb	r3, [r3]
 338 010c 1E4B     		ldr	r3, .L11+112
 339 010e FF22     		movs	r2, #255
 340 0110 1A70     		strb	r2, [r3]
 213:Generated_Source\PSoC5/cyfitter_cfg.c **** }
 341              		.loc 1 213 0
 342 0112 0837     		adds	r7, r7, #8
 343              		.cfi_def_cfa_offset 8
 344 0114 BD46     		mov	sp, r7
 345              		.cfi_def_cfa_register 13
 346              		@ sp needed
 347 0116 80BD     		pop	{r7, pc}
 348              	.L12:
 349              		.align	2
 350              	.L11:
 351 0118 80400040 		.word	1073758336
 352 011c 82400040 		.word	1073758338
 353 0120 84400040 		.word	1073758340
 354 0124 86400040 		.word	1073758342
ARM GAS  C:\Users\Bruger\AppData\Local\Temp\ccj0lDyf.s 			page 11


 355 0128 88400040 		.word	1073758344
 356 012c 8A400040 		.word	1073758346
 357 0130 8C400040 		.word	1073758348
 358 0134 8E400040 		.word	1073758350
 359 0138 90400040 		.word	1073758352
 360 013c 92400040 		.word	1073758354
 361 0140 94400040 		.word	1073758356
 362 0144 96400040 		.word	1073758358
 363 0148 98400040 		.word	1073758360
 364 014c 9A400040 		.word	1073758362
 365 0150 9C400040 		.word	1073758364
 366 0154 9E400040 		.word	1073758366
 367 0158 00430040 		.word	1073758976
 368 015c 00420040 		.word	1073758720
 369 0160 A1460040 		.word	1073759905
 370 0164 0F010049 		.word	1224737039
 371 0168 22420040 		.word	1073758754
 372 016c 20420040 		.word	1073758752
 373 0170 25420040 		.word	1073758757
 374 0174 04400040 		.word	1073758212
 375 0178 06400040 		.word	1073758214
 376 017c 08400040 		.word	1073758216
 377 0180 09400040 		.word	1073758217
 378 0184 01400040 		.word	1073758209
 379 0188 A2430040 		.word	1073759138
 380              		.cfi_endproc
 381              	.LFE4:
 382              		.size	ClockSetup, .-ClockSetup
 383              		.section	.text.AnalogSetDefault,"ax",%progbits
 384              		.align	2
 385              		.thumb
 386              		.thumb_func
 387              		.type	AnalogSetDefault, %function
 388              	AnalogSetDefault:
 389              	.LFB5:
 214:Generated_Source\PSoC5/cyfitter_cfg.c **** 
 215:Generated_Source\PSoC5/cyfitter_cfg.c **** 
 216:Generated_Source\PSoC5/cyfitter_cfg.c **** /* Analog API Functions */
 217:Generated_Source\PSoC5/cyfitter_cfg.c **** 
 218:Generated_Source\PSoC5/cyfitter_cfg.c **** 
 219:Generated_Source\PSoC5/cyfitter_cfg.c **** /*******************************************************************************
 220:Generated_Source\PSoC5/cyfitter_cfg.c **** * Function Name: AnalogSetDefault
 221:Generated_Source\PSoC5/cyfitter_cfg.c **** ********************************************************************************
 222:Generated_Source\PSoC5/cyfitter_cfg.c **** *
 223:Generated_Source\PSoC5/cyfitter_cfg.c **** * Summary:
 224:Generated_Source\PSoC5/cyfitter_cfg.c **** *  Sets up the analog portions of the chip to default values based on chip
 225:Generated_Source\PSoC5/cyfitter_cfg.c **** *  configuration options from the project.
 226:Generated_Source\PSoC5/cyfitter_cfg.c **** *
 227:Generated_Source\PSoC5/cyfitter_cfg.c **** * Parameters:
 228:Generated_Source\PSoC5/cyfitter_cfg.c **** *  void
 229:Generated_Source\PSoC5/cyfitter_cfg.c **** *
 230:Generated_Source\PSoC5/cyfitter_cfg.c **** * Return:
 231:Generated_Source\PSoC5/cyfitter_cfg.c **** *  void
 232:Generated_Source\PSoC5/cyfitter_cfg.c **** *
 233:Generated_Source\PSoC5/cyfitter_cfg.c **** *******************************************************************************/
 234:Generated_Source\PSoC5/cyfitter_cfg.c **** static void AnalogSetDefault(void);
 235:Generated_Source\PSoC5/cyfitter_cfg.c **** static void AnalogSetDefault(void)
ARM GAS  C:\Users\Bruger\AppData\Local\Temp\ccj0lDyf.s 			page 12


 236:Generated_Source\PSoC5/cyfitter_cfg.c **** {
 390              		.loc 1 236 0
 391              		.cfi_startproc
 392              		@ args = 0, pretend = 0, frame = 8
 393              		@ frame_needed = 1, uses_anonymous_args = 0
 394 0000 80B5     		push	{r7, lr}
 395              		.cfi_def_cfa_offset 8
 396              		.cfi_offset 7, -8
 397              		.cfi_offset 14, -4
 398 0002 82B0     		sub	sp, sp, #8
 399              		.cfi_def_cfa_offset 16
 400 0004 00AF     		add	r7, sp, #0
 401              		.cfi_def_cfa_register 7
 237:Generated_Source\PSoC5/cyfitter_cfg.c **** 	uint8 bg_xover_inl_trim = CY_GET_XTND_REG8((void CYFAR *)(CYREG_FLSHID_MFG_CFG_BG_XOVER_INL_TRIM +
 402              		.loc 1 237 0
 403 0006 1C4B     		ldr	r3, .L14
 404 0008 1B78     		ldrb	r3, [r3]
 405 000a FB71     		strb	r3, [r7, #7]
 238:Generated_Source\PSoC5/cyfitter_cfg.c **** 	uint8 cr4 = CY_GET_XTND_REG8((void CYFAR *)(CYREG_RESET_CR4));
 406              		.loc 1 238 0
 407 000c 1B4B     		ldr	r3, .L14+4
 408 000e 1B78     		ldrb	r3, [r3]
 409 0010 BB71     		strb	r3, [r7, #6]
 239:Generated_Source\PSoC5/cyfitter_cfg.c **** 	uint8 cr5 = CY_GET_XTND_REG8((void CYFAR *)(CYREG_RESET_CR5));
 410              		.loc 1 239 0
 411 0012 1B4B     		ldr	r3, .L14+8
 412 0014 1B78     		ldrb	r3, [r3]
 413 0016 7B71     		strb	r3, [r7, #5]
 240:Generated_Source\PSoC5/cyfitter_cfg.c **** 	CY_SET_XTND_REG8((void CYFAR *)(CYREG_BG_DFT0), (bg_xover_inl_trim & 0x07u));
 414              		.loc 1 240 0
 415 0018 1A4A     		ldr	r2, .L14+12
 416 001a FB79     		ldrb	r3, [r7, #7]
 417 001c 03F00703 		and	r3, r3, #7
 418 0020 DBB2     		uxtb	r3, r3
 419 0022 1370     		strb	r3, [r2]
 241:Generated_Source\PSoC5/cyfitter_cfg.c **** 	CY_SET_XTND_REG8((void CYFAR *)(CYREG_BG_DFT1), ((bg_xover_inl_trim >> 4) & 0x0Fu));
 420              		.loc 1 241 0
 421 0024 184A     		ldr	r2, .L14+16
 422 0026 FB79     		ldrb	r3, [r7, #7]	@ zero_extendqisi2
 423 0028 1B09     		lsrs	r3, r3, #4
 424 002a DBB2     		uxtb	r3, r3
 425 002c 1370     		strb	r3, [r2]
 242:Generated_Source\PSoC5/cyfitter_cfg.c **** 	/* Disable PRES while setting up SAR voltage reference */
 243:Generated_Source\PSoC5/cyfitter_cfg.c **** 	CY_SET_XTND_REG8((void CYFAR *)(CYREG_RESET_CR4), (cr4 | 0x03u));
 426              		.loc 1 243 0
 427 002e 134A     		ldr	r2, .L14+4
 428 0030 BB79     		ldrb	r3, [r7, #6]
 429 0032 43F00303 		orr	r3, r3, #3
 430 0036 DBB2     		uxtb	r3, r3
 431 0038 1370     		strb	r3, [r2]
 244:Generated_Source\PSoC5/cyfitter_cfg.c **** 	CY_SET_XTND_REG8((void CYFAR *)(CYREG_RESET_CR5), (cr5 | 0x03u));
 432              		.loc 1 244 0
 433 003a 114A     		ldr	r2, .L14+8
 434 003c 7B79     		ldrb	r3, [r7, #5]
 435 003e 43F00303 		orr	r3, r3, #3
 436 0042 DBB2     		uxtb	r3, r3
 437 0044 1370     		strb	r3, [r2]
ARM GAS  C:\Users\Bruger\AppData\Local\Temp\ccj0lDyf.s 			page 13


 245:Generated_Source\PSoC5/cyfitter_cfg.c **** 	CY_SET_XTND_REG8((void CYFAR *)CYREG_SAR0_CSR1, 0x40u);
 438              		.loc 1 245 0
 439 0046 114B     		ldr	r3, .L14+20
 440 0048 4022     		movs	r2, #64
 441 004a 1A70     		strb	r2, [r3]
 246:Generated_Source\PSoC5/cyfitter_cfg.c **** 	CY_SET_XTND_REG8((void CYFAR *)CYREG_SAR0_CSR3, 0x40u);
 442              		.loc 1 246 0
 443 004c 104B     		ldr	r3, .L14+24
 444 004e 4022     		movs	r2, #64
 445 0050 1A70     		strb	r2, [r3]
 247:Generated_Source\PSoC5/cyfitter_cfg.c **** 	CY_SET_XTND_REG8((void CYFAR *)CYREG_SAR0_SW3, 0x20u);
 446              		.loc 1 247 0
 447 0052 104B     		ldr	r3, .L14+28
 448 0054 2022     		movs	r2, #32
 449 0056 1A70     		strb	r2, [r3]
 248:Generated_Source\PSoC5/cyfitter_cfg.c **** 	CyDelayUs(10u); /* Allow vref to settle before re-enabling PRES */
 450              		.loc 1 248 0
 451 0058 0A20     		movs	r0, #10
 452 005a FFF7FEFF 		bl	CyDelayUs
 249:Generated_Source\PSoC5/cyfitter_cfg.c **** 	CY_SET_XTND_REG8((void CYFAR *)(CYREG_RESET_CR5), (cr5));
 453              		.loc 1 249 0
 454 005e 084A     		ldr	r2, .L14+8
 455 0060 7B79     		ldrb	r3, [r7, #5]
 456 0062 1370     		strb	r3, [r2]
 250:Generated_Source\PSoC5/cyfitter_cfg.c **** 	CY_SET_XTND_REG8((void CYFAR *)(CYREG_RESET_CR4), (cr4));
 457              		.loc 1 250 0
 458 0064 054A     		ldr	r2, .L14+4
 459 0066 BB79     		ldrb	r3, [r7, #6]
 460 0068 1370     		strb	r3, [r2]
 251:Generated_Source\PSoC5/cyfitter_cfg.c **** 	CY_SET_XTND_REG8((void CYFAR *)CYREG_PUMP_CR0, 0x44u);
 461              		.loc 1 251 0
 462 006a 0B4B     		ldr	r3, .L14+32
 463 006c 4422     		movs	r2, #68
 464 006e 1A70     		strb	r2, [r3]
 252:Generated_Source\PSoC5/cyfitter_cfg.c **** }
 465              		.loc 1 252 0
 466 0070 0837     		adds	r7, r7, #8
 467              		.cfi_def_cfa_offset 8
 468 0072 BD46     		mov	sp, r7
 469              		.cfi_def_cfa_register 13
 470              		@ sp needed
 471 0074 80BD     		pop	{r7, pc}
 472              	.L15:
 473 0076 00BF     		.align	2
 474              	.L14:
 475 0078 CF010049 		.word	1224737231
 476 007c F8460040 		.word	1073759992
 477 0080 F9460040 		.word	1073759993
 478 0084 6E580040 		.word	1073764462
 479 0088 6F580040 		.word	1073764463
 480 008c 01590040 		.word	1073764609
 481 0090 03590040 		.word	1073764611
 482 0094 235B0040 		.word	1073765155
 483 0098 76580040 		.word	1073764470
 484              		.cfi_endproc
 485              	.LFE5:
 486              		.size	AnalogSetDefault, .-AnalogSetDefault
ARM GAS  C:\Users\Bruger\AppData\Local\Temp\ccj0lDyf.s 			page 14


 487              		.section	.text.SetAnalogRoutingPumps,"ax",%progbits
 488              		.align	2
 489              		.global	SetAnalogRoutingPumps
 490              		.thumb
 491              		.thumb_func
 492              		.type	SetAnalogRoutingPumps, %function
 493              	SetAnalogRoutingPumps:
 494              	.LFB6:
 253:Generated_Source\PSoC5/cyfitter_cfg.c **** 
 254:Generated_Source\PSoC5/cyfitter_cfg.c **** 
 255:Generated_Source\PSoC5/cyfitter_cfg.c **** /*******************************************************************************
 256:Generated_Source\PSoC5/cyfitter_cfg.c **** * Function Name: SetAnalogRoutingPumps
 257:Generated_Source\PSoC5/cyfitter_cfg.c **** ********************************************************************************
 258:Generated_Source\PSoC5/cyfitter_cfg.c **** *
 259:Generated_Source\PSoC5/cyfitter_cfg.c **** * Summary:
 260:Generated_Source\PSoC5/cyfitter_cfg.c **** * Enables or disables the analog pumps feeding analog routing switches.
 261:Generated_Source\PSoC5/cyfitter_cfg.c **** * Intended to be called at startup, based on the Vdda system configuration;
 262:Generated_Source\PSoC5/cyfitter_cfg.c **** * may be called during operation when the user informs us that the Vdda voltage
 263:Generated_Source\PSoC5/cyfitter_cfg.c **** * crossed the pump threshold.
 264:Generated_Source\PSoC5/cyfitter_cfg.c **** *
 265:Generated_Source\PSoC5/cyfitter_cfg.c **** * Parameters:
 266:Generated_Source\PSoC5/cyfitter_cfg.c **** *  enabled - 1 to enable the pumps, 0 to disable the pumps
 267:Generated_Source\PSoC5/cyfitter_cfg.c **** *
 268:Generated_Source\PSoC5/cyfitter_cfg.c **** * Return:
 269:Generated_Source\PSoC5/cyfitter_cfg.c **** *  void
 270:Generated_Source\PSoC5/cyfitter_cfg.c **** *
 271:Generated_Source\PSoC5/cyfitter_cfg.c **** *******************************************************************************/
 272:Generated_Source\PSoC5/cyfitter_cfg.c **** void SetAnalogRoutingPumps(uint8 enabled)
 273:Generated_Source\PSoC5/cyfitter_cfg.c **** {
 495              		.loc 1 273 0
 496              		.cfi_startproc
 497              		@ args = 0, pretend = 0, frame = 16
 498              		@ frame_needed = 1, uses_anonymous_args = 0
 499              		@ link register save eliminated.
 500 0000 80B4     		push	{r7}
 501              		.cfi_def_cfa_offset 4
 502              		.cfi_offset 7, -4
 503 0002 85B0     		sub	sp, sp, #20
 504              		.cfi_def_cfa_offset 24
 505 0004 00AF     		add	r7, sp, #0
 506              		.cfi_def_cfa_register 7
 507 0006 0346     		mov	r3, r0
 508 0008 FB71     		strb	r3, [r7, #7]
 274:Generated_Source\PSoC5/cyfitter_cfg.c **** 	uint8 regValue = CY_GET_XTND_REG8((void CYFAR *)CYREG_PUMP_CR0);
 509              		.loc 1 274 0
 510 000a 0B4B     		ldr	r3, .L19
 511 000c 1B78     		ldrb	r3, [r3]
 512 000e FB73     		strb	r3, [r7, #15]
 275:Generated_Source\PSoC5/cyfitter_cfg.c **** 	if (enabled != 0u)
 513              		.loc 1 275 0
 514 0010 FB79     		ldrb	r3, [r7, #7]	@ zero_extendqisi2
 515 0012 002B     		cmp	r3, #0
 516 0014 04D0     		beq	.L17
 276:Generated_Source\PSoC5/cyfitter_cfg.c **** 	{
 277:Generated_Source\PSoC5/cyfitter_cfg.c **** 		regValue |= 0x22u;
 517              		.loc 1 277 0
 518 0016 FB7B     		ldrb	r3, [r7, #15]
ARM GAS  C:\Users\Bruger\AppData\Local\Temp\ccj0lDyf.s 			page 15


 519 0018 43F02203 		orr	r3, r3, #34
 520 001c FB73     		strb	r3, [r7, #15]
 521 001e 03E0     		b	.L18
 522              	.L17:
 278:Generated_Source\PSoC5/cyfitter_cfg.c **** 	}
 279:Generated_Source\PSoC5/cyfitter_cfg.c **** 	else
 280:Generated_Source\PSoC5/cyfitter_cfg.c **** 	{
 281:Generated_Source\PSoC5/cyfitter_cfg.c **** 		regValue &= (uint8)~0x22u;
 523              		.loc 1 281 0
 524 0020 FB7B     		ldrb	r3, [r7, #15]
 525 0022 23F02203 		bic	r3, r3, #34
 526 0026 FB73     		strb	r3, [r7, #15]
 527              	.L18:
 282:Generated_Source\PSoC5/cyfitter_cfg.c **** 	}
 283:Generated_Source\PSoC5/cyfitter_cfg.c **** 	CY_SET_XTND_REG8((void CYFAR *)CYREG_PUMP_CR0, regValue);
 528              		.loc 1 283 0
 529 0028 034A     		ldr	r2, .L19
 530 002a FB7B     		ldrb	r3, [r7, #15]
 531 002c 1370     		strb	r3, [r2]
 284:Generated_Source\PSoC5/cyfitter_cfg.c **** }
 532              		.loc 1 284 0
 533 002e 1437     		adds	r7, r7, #20
 534              		.cfi_def_cfa_offset 4
 535 0030 BD46     		mov	sp, r7
 536              		.cfi_def_cfa_register 13
 537              		@ sp needed
 538 0032 5DF8047B 		ldr	r7, [sp], #4
 539              		.cfi_restore 7
 540              		.cfi_def_cfa_offset 0
 541 0036 7047     		bx	lr
 542              	.L20:
 543              		.align	2
 544              	.L19:
 545 0038 76580040 		.word	1073764470
 546              		.cfi_endproc
 547              	.LFE6:
 548              		.size	SetAnalogRoutingPumps, .-SetAnalogRoutingPumps
 549              		.section	.rodata
 550              		.align	2
 551              		.type	ADC_Mux__outerAddr, %object
 552              		.size	ADC_Mux__outerAddr, 32
 553              	ADC_Mux__outerAddr:
 554 0000 0D510040 		.word	1073762573
 555 0004 0D510040 		.word	1073762573
 556 0008 0D510040 		.word	1073762573
 557 000c 0D510040 		.word	1073762573
 558 0010 0D510040 		.word	1073762573
 559 0014 0D510040 		.word	1073762573
 560 0018 0D510040 		.word	1073762573
 561 001c 0D510040 		.word	1073762573
 562              		.align	2
 563              		.type	ADC_Mux__outerMask, %object
 564              		.size	ADC_Mux__outerMask, 8
 565              	ADC_Mux__outerMask:
 566 0020 01       		.byte	1
 567 0021 02       		.byte	2
 568 0022 04       		.byte	4
ARM GAS  C:\Users\Bruger\AppData\Local\Temp\ccj0lDyf.s 			page 16


 569 0023 08       		.byte	8
 570 0024 10       		.byte	16
 571 0025 20       		.byte	32
 572 0026 40       		.byte	64
 573 0027 80       		.byte	-128
 574              		.align	2
 575              		.type	ADC_Mux__innerAddr, %object
 576              		.size	ADC_Mux__innerAddr, 16
 577              	ADC_Mux__innerAddr:
 578 0028 205B0040 		.word	1073765152
 579 002c 205B0040 		.word	1073765152
 580 0030 205B0040 		.word	1073765152
 581 0034 205B0040 		.word	1073765152
 582              		.align	2
 583              		.type	ADC_Mux__innerMask, %object
 584              		.size	ADC_Mux__innerMask, 4
 585              	ADC_Mux__innerMask:
 586 0038 10       		.byte	16
 587 0039 20       		.byte	32
 588 003a 40       		.byte	64
 589 003b 80       		.byte	-128
 590              		.align	2
 591              		.type	ADC_Mux__innerMap, %object
 592              		.size	ADC_Mux__innerMap, 8
 593              	ADC_Mux__innerMap:
 594 003c 00       		.byte	0
 595 003d 01       		.byte	1
 596 003e 02       		.byte	2
 597 003f 03       		.byte	3
 598 0040 00       		.byte	0
 599 0041 01       		.byte	1
 600 0042 02       		.byte	2
 601 0043 03       		.byte	3
 602              		.bss
 603              	ADC_Mux__armsEnabled:
 604 0000 00       		.space	1
 605 0001 000000   		.align	2
 606              	ADC_Mux__refCnt:
 607 0004 00000000 		.space	4
 608              		.section	.text.ADC_Mux_Set,"ax",%progbits
 609              		.align	2
 610              		.global	ADC_Mux_Set
 611              		.thumb
 612              		.thumb_func
 613              		.type	ADC_Mux_Set, %function
 614              	ADC_Mux_Set:
 615              	.LFB7:
 285:Generated_Source\PSoC5/cyfitter_cfg.c **** 
 286:Generated_Source\PSoC5/cyfitter_cfg.c **** #define CY_AMUX_UNUSED CYREG_BOOST_SR
 287:Generated_Source\PSoC5/cyfitter_cfg.c **** static uint8 CYXDATA * const CYCODE ADC_Mux__outerAddr[8] = {
 288:Generated_Source\PSoC5/cyfitter_cfg.c **** 	(uint8 CYXDATA *)CYREG_PRT0_AG, 
 289:Generated_Source\PSoC5/cyfitter_cfg.c **** 	(uint8 CYXDATA *)CYREG_PRT0_AG, 
 290:Generated_Source\PSoC5/cyfitter_cfg.c **** 	(uint8 CYXDATA *)CYREG_PRT0_AG, 
 291:Generated_Source\PSoC5/cyfitter_cfg.c **** 	(uint8 CYXDATA *)CYREG_PRT0_AG, 
 292:Generated_Source\PSoC5/cyfitter_cfg.c **** 	(uint8 CYXDATA *)CYREG_PRT0_AG, 
 293:Generated_Source\PSoC5/cyfitter_cfg.c **** 	(uint8 CYXDATA *)CYREG_PRT0_AG, 
 294:Generated_Source\PSoC5/cyfitter_cfg.c **** 	(uint8 CYXDATA *)CYREG_PRT0_AG, 
ARM GAS  C:\Users\Bruger\AppData\Local\Temp\ccj0lDyf.s 			page 17


 295:Generated_Source\PSoC5/cyfitter_cfg.c **** 	(uint8 CYXDATA *)CYREG_PRT0_AG, 
 296:Generated_Source\PSoC5/cyfitter_cfg.c **** };
 297:Generated_Source\PSoC5/cyfitter_cfg.c **** 
 298:Generated_Source\PSoC5/cyfitter_cfg.c **** static const uint8 CYCODE ADC_Mux__outerMask[8] = {
 299:Generated_Source\PSoC5/cyfitter_cfg.c **** 	0x01u, 
 300:Generated_Source\PSoC5/cyfitter_cfg.c **** 	0x02u, 
 301:Generated_Source\PSoC5/cyfitter_cfg.c **** 	0x04u, 
 302:Generated_Source\PSoC5/cyfitter_cfg.c **** 	0x08u, 
 303:Generated_Source\PSoC5/cyfitter_cfg.c **** 	0x10u, 
 304:Generated_Source\PSoC5/cyfitter_cfg.c **** 	0x20u, 
 305:Generated_Source\PSoC5/cyfitter_cfg.c **** 	0x40u, 
 306:Generated_Source\PSoC5/cyfitter_cfg.c **** 	0x80u, 
 307:Generated_Source\PSoC5/cyfitter_cfg.c **** };
 308:Generated_Source\PSoC5/cyfitter_cfg.c **** 
 309:Generated_Source\PSoC5/cyfitter_cfg.c **** static uint8 CYXDATA * const CYCODE ADC_Mux__innerAddr[4] = {
 310:Generated_Source\PSoC5/cyfitter_cfg.c **** 	(uint8 CYXDATA *)CYREG_SAR0_SW0, 
 311:Generated_Source\PSoC5/cyfitter_cfg.c **** 	(uint8 CYXDATA *)CYREG_SAR0_SW0, 
 312:Generated_Source\PSoC5/cyfitter_cfg.c **** 	(uint8 CYXDATA *)CYREG_SAR0_SW0, 
 313:Generated_Source\PSoC5/cyfitter_cfg.c **** 	(uint8 CYXDATA *)CYREG_SAR0_SW0, 
 314:Generated_Source\PSoC5/cyfitter_cfg.c **** };
 315:Generated_Source\PSoC5/cyfitter_cfg.c **** 
 316:Generated_Source\PSoC5/cyfitter_cfg.c **** static const uint8 CYCODE ADC_Mux__innerMask[4] = {
 317:Generated_Source\PSoC5/cyfitter_cfg.c **** 	0x10u, 
 318:Generated_Source\PSoC5/cyfitter_cfg.c **** 	0x20u, 
 319:Generated_Source\PSoC5/cyfitter_cfg.c **** 	0x40u, 
 320:Generated_Source\PSoC5/cyfitter_cfg.c **** 	0x80u, 
 321:Generated_Source\PSoC5/cyfitter_cfg.c **** };
 322:Generated_Source\PSoC5/cyfitter_cfg.c **** 
 323:Generated_Source\PSoC5/cyfitter_cfg.c **** static const uint8 CYCODE ADC_Mux__innerMap[8] = {
 324:Generated_Source\PSoC5/cyfitter_cfg.c **** 	0u, 
 325:Generated_Source\PSoC5/cyfitter_cfg.c **** 	1u, 
 326:Generated_Source\PSoC5/cyfitter_cfg.c **** 	2u, 
 327:Generated_Source\PSoC5/cyfitter_cfg.c **** 	3u, 
 328:Generated_Source\PSoC5/cyfitter_cfg.c **** 	0u, 
 329:Generated_Source\PSoC5/cyfitter_cfg.c **** 	1u, 
 330:Generated_Source\PSoC5/cyfitter_cfg.c **** 	2u, 
 331:Generated_Source\PSoC5/cyfitter_cfg.c **** 	3u, 
 332:Generated_Source\PSoC5/cyfitter_cfg.c **** };
 333:Generated_Source\PSoC5/cyfitter_cfg.c **** 
 334:Generated_Source\PSoC5/cyfitter_cfg.c **** static uint8 ADC_Mux__armsEnabled = 0u;
 335:Generated_Source\PSoC5/cyfitter_cfg.c **** static uint8 ADC_Mux__refCnt[] = {0u, 0u, 0u, 0u};
 336:Generated_Source\PSoC5/cyfitter_cfg.c **** 
 337:Generated_Source\PSoC5/cyfitter_cfg.c **** /*******************************************************************************
 338:Generated_Source\PSoC5/cyfitter_cfg.c **** * Function Name: ADC_Mux_Set
 339:Generated_Source\PSoC5/cyfitter_cfg.c **** ********************************************************************************
 340:Generated_Source\PSoC5/cyfitter_cfg.c **** * Summary:
 341:Generated_Source\PSoC5/cyfitter_cfg.c **** *  This function is used to set a particular channel as active on the AMux.
 342:Generated_Source\PSoC5/cyfitter_cfg.c **** *
 343:Generated_Source\PSoC5/cyfitter_cfg.c **** * Parameters:  
 344:Generated_Source\PSoC5/cyfitter_cfg.c **** *   channel - The mux channel input to set as active
 345:Generated_Source\PSoC5/cyfitter_cfg.c **** *
 346:Generated_Source\PSoC5/cyfitter_cfg.c **** * Return:
 347:Generated_Source\PSoC5/cyfitter_cfg.c **** *   void
 348:Generated_Source\PSoC5/cyfitter_cfg.c **** *
 349:Generated_Source\PSoC5/cyfitter_cfg.c **** *******************************************************************************/
 350:Generated_Source\PSoC5/cyfitter_cfg.c **** void ADC_Mux_Set(uint8 channel)
 351:Generated_Source\PSoC5/cyfitter_cfg.c **** {
ARM GAS  C:\Users\Bruger\AppData\Local\Temp\ccj0lDyf.s 			page 18


 616              		.loc 1 351 0
 617              		.cfi_startproc
 618              		@ args = 0, pretend = 0, frame = 16
 619              		@ frame_needed = 1, uses_anonymous_args = 0
 620              		@ link register save eliminated.
 621 0000 80B4     		push	{r7}
 622              		.cfi_def_cfa_offset 4
 623              		.cfi_offset 7, -4
 624 0002 85B0     		sub	sp, sp, #20
 625              		.cfi_def_cfa_offset 24
 626 0004 00AF     		add	r7, sp, #0
 627              		.cfi_def_cfa_register 7
 628 0006 0346     		mov	r3, r0
 629 0008 FB71     		strb	r3, [r7, #7]
 352:Generated_Source\PSoC5/cyfitter_cfg.c **** 	uint8 i;
 353:Generated_Source\PSoC5/cyfitter_cfg.c **** 	uint8 channelMask = (1UL << channel);
 630              		.loc 1 353 0
 631 000a FB79     		ldrb	r3, [r7, #7]	@ zero_extendqisi2
 632 000c 0122     		movs	r2, #1
 633 000e 02FA03F3 		lsl	r3, r2, r3
 634 0012 FB73     		strb	r3, [r7, #15]
 354:Generated_Source\PSoC5/cyfitter_cfg.c **** 	if ((channel < 8u) && ((ADC_Mux__armsEnabled & channelMask) == ((uint32)0u)))
 635              		.loc 1 354 0
 636 0014 FB79     		ldrb	r3, [r7, #7]	@ zero_extendqisi2
 637 0016 072B     		cmp	r3, #7
 638 0018 3BD8     		bhi	.L21
 639              		.loc 1 354 0 is_stmt 0 discriminator 1
 640 001a 204B     		ldr	r3, .L24
 641 001c 1A78     		ldrb	r2, [r3]	@ zero_extendqisi2
 642 001e FB7B     		ldrb	r3, [r7, #15]
 643 0020 1340     		ands	r3, r3, r2
 644 0022 DBB2     		uxtb	r3, r3
 645 0024 002B     		cmp	r3, #0
 646 0026 34D1     		bne	.L21
 355:Generated_Source\PSoC5/cyfitter_cfg.c **** 	{
 356:Generated_Source\PSoC5/cyfitter_cfg.c **** 		ADC_Mux__armsEnabled |= channelMask;
 647              		.loc 1 356 0 is_stmt 1
 648 0028 1C4B     		ldr	r3, .L24
 649 002a 1A78     		ldrb	r2, [r3]	@ zero_extendqisi2
 650 002c FB7B     		ldrb	r3, [r7, #15]
 651 002e 1343     		orrs	r3, r3, r2
 652 0030 DAB2     		uxtb	r2, r3
 653 0032 1A4B     		ldr	r3, .L24
 654 0034 1A70     		strb	r2, [r3]
 357:Generated_Source\PSoC5/cyfitter_cfg.c **** 		*ADC_Mux__outerAddr[channel] |= ADC_Mux__outerMask[channel];
 655              		.loc 1 357 0
 656 0036 FB79     		ldrb	r3, [r7, #7]	@ zero_extendqisi2
 657 0038 194A     		ldr	r2, .L24+4
 658 003a 52F82330 		ldr	r3, [r2, r3, lsl #2]
 659 003e FA79     		ldrb	r2, [r7, #7]	@ zero_extendqisi2
 660 0040 1749     		ldr	r1, .L24+4
 661 0042 51F82220 		ldr	r2, [r1, r2, lsl #2]
 662 0046 1178     		ldrb	r1, [r2]	@ zero_extendqisi2
 663 0048 FA79     		ldrb	r2, [r7, #7]	@ zero_extendqisi2
 664 004a 1648     		ldr	r0, .L24+8
 665 004c 825C     		ldrb	r2, [r0, r2]	@ zero_extendqisi2
 666 004e 0A43     		orrs	r2, r2, r1
ARM GAS  C:\Users\Bruger\AppData\Local\Temp\ccj0lDyf.s 			page 19


 667 0050 D2B2     		uxtb	r2, r2
 668 0052 1A70     		strb	r2, [r3]
 358:Generated_Source\PSoC5/cyfitter_cfg.c **** 		i = ADC_Mux__innerMap[channel];
 669              		.loc 1 358 0
 670 0054 FB79     		ldrb	r3, [r7, #7]	@ zero_extendqisi2
 671 0056 144A     		ldr	r2, .L24+12
 672 0058 D35C     		ldrb	r3, [r2, r3]
 673 005a BB73     		strb	r3, [r7, #14]
 359:Generated_Source\PSoC5/cyfitter_cfg.c **** 		if (ADC_Mux__refCnt[i] == 0u)
 674              		.loc 1 359 0
 675 005c BB7B     		ldrb	r3, [r7, #14]	@ zero_extendqisi2
 676 005e 134A     		ldr	r2, .L24+16
 677 0060 D35C     		ldrb	r3, [r2, r3]	@ zero_extendqisi2
 678 0062 002B     		cmp	r3, #0
 679 0064 0ED1     		bne	.L23
 360:Generated_Source\PSoC5/cyfitter_cfg.c **** 		{
 361:Generated_Source\PSoC5/cyfitter_cfg.c **** 			*ADC_Mux__innerAddr[i] |= ADC_Mux__innerMask[i];
 680              		.loc 1 361 0
 681 0066 BB7B     		ldrb	r3, [r7, #14]	@ zero_extendqisi2
 682 0068 114A     		ldr	r2, .L24+20
 683 006a 52F82330 		ldr	r3, [r2, r3, lsl #2]
 684 006e BA7B     		ldrb	r2, [r7, #14]	@ zero_extendqisi2
 685 0070 0F49     		ldr	r1, .L24+20
 686 0072 51F82220 		ldr	r2, [r1, r2, lsl #2]
 687 0076 1178     		ldrb	r1, [r2]	@ zero_extendqisi2
 688 0078 BA7B     		ldrb	r2, [r7, #14]	@ zero_extendqisi2
 689 007a 0E48     		ldr	r0, .L24+24
 690 007c 825C     		ldrb	r2, [r0, r2]	@ zero_extendqisi2
 691 007e 0A43     		orrs	r2, r2, r1
 692 0080 D2B2     		uxtb	r2, r2
 693 0082 1A70     		strb	r2, [r3]
 694              	.L23:
 362:Generated_Source\PSoC5/cyfitter_cfg.c **** 		}
 363:Generated_Source\PSoC5/cyfitter_cfg.c **** 		ADC_Mux__refCnt[i]++;
 695              		.loc 1 363 0
 696 0084 BB7B     		ldrb	r3, [r7, #14]	@ zero_extendqisi2
 697 0086 094A     		ldr	r2, .L24+16
 698 0088 D25C     		ldrb	r2, [r2, r3]	@ zero_extendqisi2
 699 008a 0132     		adds	r2, r2, #1
 700 008c D1B2     		uxtb	r1, r2
 701 008e 074A     		ldr	r2, .L24+16
 702 0090 D154     		strb	r1, [r2, r3]
 703              	.L21:
 364:Generated_Source\PSoC5/cyfitter_cfg.c **** 	}
 365:Generated_Source\PSoC5/cyfitter_cfg.c **** }
 704              		.loc 1 365 0
 705 0092 1437     		adds	r7, r7, #20
 706              		.cfi_def_cfa_offset 4
 707 0094 BD46     		mov	sp, r7
 708              		.cfi_def_cfa_register 13
 709              		@ sp needed
 710 0096 5DF8047B 		ldr	r7, [sp], #4
 711              		.cfi_restore 7
 712              		.cfi_def_cfa_offset 0
 713 009a 7047     		bx	lr
 714              	.L25:
 715              		.align	2
ARM GAS  C:\Users\Bruger\AppData\Local\Temp\ccj0lDyf.s 			page 20


 716              	.L24:
 717 009c 00000000 		.word	ADC_Mux__armsEnabled
 718 00a0 00000000 		.word	ADC_Mux__outerAddr
 719 00a4 20000000 		.word	ADC_Mux__outerMask
 720 00a8 3C000000 		.word	ADC_Mux__innerMap
 721 00ac 04000000 		.word	ADC_Mux__refCnt
 722 00b0 28000000 		.word	ADC_Mux__innerAddr
 723 00b4 38000000 		.word	ADC_Mux__innerMask
 724              		.cfi_endproc
 725              	.LFE7:
 726              		.size	ADC_Mux_Set, .-ADC_Mux_Set
 727              		.section	.text.ADC_Mux_Unset,"ax",%progbits
 728              		.align	2
 729              		.global	ADC_Mux_Unset
 730              		.thumb
 731              		.thumb_func
 732              		.type	ADC_Mux_Unset, %function
 733              	ADC_Mux_Unset:
 734              	.LFB8:
 366:Generated_Source\PSoC5/cyfitter_cfg.c **** 
 367:Generated_Source\PSoC5/cyfitter_cfg.c **** /*******************************************************************************
 368:Generated_Source\PSoC5/cyfitter_cfg.c **** * Function Name: ADC_Mux_Unset
 369:Generated_Source\PSoC5/cyfitter_cfg.c **** ********************************************************************************
 370:Generated_Source\PSoC5/cyfitter_cfg.c **** * Summary:
 371:Generated_Source\PSoC5/cyfitter_cfg.c **** *  This function is used to clear a particular channel from being active on the
 372:Generated_Source\PSoC5/cyfitter_cfg.c **** *  AMux.
 373:Generated_Source\PSoC5/cyfitter_cfg.c **** *
 374:Generated_Source\PSoC5/cyfitter_cfg.c **** * Parameters:  
 375:Generated_Source\PSoC5/cyfitter_cfg.c **** *   channel - The mux channel input to mark inactive
 376:Generated_Source\PSoC5/cyfitter_cfg.c **** *
 377:Generated_Source\PSoC5/cyfitter_cfg.c **** * Return:
 378:Generated_Source\PSoC5/cyfitter_cfg.c **** *   void
 379:Generated_Source\PSoC5/cyfitter_cfg.c **** *
 380:Generated_Source\PSoC5/cyfitter_cfg.c **** *******************************************************************************/
 381:Generated_Source\PSoC5/cyfitter_cfg.c **** void ADC_Mux_Unset(uint8 channel)
 382:Generated_Source\PSoC5/cyfitter_cfg.c **** {
 735              		.loc 1 382 0
 736              		.cfi_startproc
 737              		@ args = 0, pretend = 0, frame = 16
 738              		@ frame_needed = 1, uses_anonymous_args = 0
 739              		@ link register save eliminated.
 740 0000 80B4     		push	{r7}
 741              		.cfi_def_cfa_offset 4
 742              		.cfi_offset 7, -4
 743 0002 85B0     		sub	sp, sp, #20
 744              		.cfi_def_cfa_offset 24
 745 0004 00AF     		add	r7, sp, #0
 746              		.cfi_def_cfa_register 7
 747 0006 0346     		mov	r3, r0
 748 0008 FB71     		strb	r3, [r7, #7]
 383:Generated_Source\PSoC5/cyfitter_cfg.c **** 	uint8 i;
 384:Generated_Source\PSoC5/cyfitter_cfg.c **** 	uint8 channelMask = (1UL << channel);
 749              		.loc 1 384 0
 750 000a FB79     		ldrb	r3, [r7, #7]	@ zero_extendqisi2
 751 000c 0122     		movs	r2, #1
 752 000e 02FA03F3 		lsl	r3, r2, r3
 753 0012 FB73     		strb	r3, [r7, #15]
ARM GAS  C:\Users\Bruger\AppData\Local\Temp\ccj0lDyf.s 			page 21


 385:Generated_Source\PSoC5/cyfitter_cfg.c **** 	if ((channel < 8u) && ((ADC_Mux__armsEnabled & channelMask) != ((uint32)0u)))
 754              		.loc 1 385 0
 755 0014 FB79     		ldrb	r3, [r7, #7]	@ zero_extendqisi2
 756 0016 072B     		cmp	r3, #7
 757 0018 41D8     		bhi	.L26
 758              		.loc 1 385 0 is_stmt 0 discriminator 1
 759 001a 234B     		ldr	r3, .L28
 760 001c 1A78     		ldrb	r2, [r3]	@ zero_extendqisi2
 761 001e FB7B     		ldrb	r3, [r7, #15]
 762 0020 1340     		ands	r3, r3, r2
 763 0022 DBB2     		uxtb	r3, r3
 764 0024 002B     		cmp	r3, #0
 765 0026 3AD0     		beq	.L26
 386:Generated_Source\PSoC5/cyfitter_cfg.c **** 	{
 387:Generated_Source\PSoC5/cyfitter_cfg.c **** 		ADC_Mux__armsEnabled &= (uint8)~channelMask;
 766              		.loc 1 387 0 is_stmt 1
 767 0028 FB7B     		ldrb	r3, [r7, #15]
 768 002a DB43     		mvns	r3, r3
 769 002c DAB2     		uxtb	r2, r3
 770 002e 1E4B     		ldr	r3, .L28
 771 0030 1B78     		ldrb	r3, [r3]	@ zero_extendqisi2
 772 0032 1340     		ands	r3, r3, r2
 773 0034 DAB2     		uxtb	r2, r3
 774 0036 1C4B     		ldr	r3, .L28
 775 0038 1A70     		strb	r2, [r3]
 388:Generated_Source\PSoC5/cyfitter_cfg.c **** 		*ADC_Mux__outerAddr[channel] &= (uint8)~ADC_Mux__outerMask[channel];
 776              		.loc 1 388 0
 777 003a FB79     		ldrb	r3, [r7, #7]	@ zero_extendqisi2
 778 003c 1B4A     		ldr	r2, .L28+4
 779 003e 52F82330 		ldr	r3, [r2, r3, lsl #2]
 780 0042 FA79     		ldrb	r2, [r7, #7]	@ zero_extendqisi2
 781 0044 1949     		ldr	r1, .L28+4
 782 0046 51F82220 		ldr	r2, [r1, r2, lsl #2]
 783 004a 1178     		ldrb	r1, [r2]	@ zero_extendqisi2
 784 004c FA79     		ldrb	r2, [r7, #7]	@ zero_extendqisi2
 785 004e 1848     		ldr	r0, .L28+8
 786 0050 825C     		ldrb	r2, [r0, r2]	@ zero_extendqisi2
 787 0052 D243     		mvns	r2, r2
 788 0054 D2B2     		uxtb	r2, r2
 789 0056 0A40     		ands	r2, r2, r1
 790 0058 D2B2     		uxtb	r2, r2
 791 005a 1A70     		strb	r2, [r3]
 389:Generated_Source\PSoC5/cyfitter_cfg.c **** 		i = ADC_Mux__innerMap[channel];
 792              		.loc 1 389 0
 793 005c FB79     		ldrb	r3, [r7, #7]	@ zero_extendqisi2
 794 005e 154A     		ldr	r2, .L28+12
 795 0060 D35C     		ldrb	r3, [r2, r3]
 796 0062 BB73     		strb	r3, [r7, #14]
 390:Generated_Source\PSoC5/cyfitter_cfg.c **** 		ADC_Mux__refCnt[i]--;
 797              		.loc 1 390 0
 798 0064 BB7B     		ldrb	r3, [r7, #14]	@ zero_extendqisi2
 799 0066 144A     		ldr	r2, .L28+16
 800 0068 D25C     		ldrb	r2, [r2, r3]	@ zero_extendqisi2
 801 006a 013A     		subs	r2, r2, #1
 802 006c D1B2     		uxtb	r1, r2
 803 006e 124A     		ldr	r2, .L28+16
 804 0070 D154     		strb	r1, [r2, r3]
ARM GAS  C:\Users\Bruger\AppData\Local\Temp\ccj0lDyf.s 			page 22


 391:Generated_Source\PSoC5/cyfitter_cfg.c **** 		if (ADC_Mux__refCnt[i] == 0)
 805              		.loc 1 391 0
 806 0072 BB7B     		ldrb	r3, [r7, #14]	@ zero_extendqisi2
 807 0074 104A     		ldr	r2, .L28+16
 808 0076 D35C     		ldrb	r3, [r2, r3]	@ zero_extendqisi2
 809 0078 002B     		cmp	r3, #0
 810 007a 10D1     		bne	.L26
 392:Generated_Source\PSoC5/cyfitter_cfg.c **** 		{
 393:Generated_Source\PSoC5/cyfitter_cfg.c **** 			*ADC_Mux__innerAddr[i] &= (uint8)~ADC_Mux__innerMask[i];
 811              		.loc 1 393 0
 812 007c BB7B     		ldrb	r3, [r7, #14]	@ zero_extendqisi2
 813 007e 0F4A     		ldr	r2, .L28+20
 814 0080 52F82330 		ldr	r3, [r2, r3, lsl #2]
 815 0084 BA7B     		ldrb	r2, [r7, #14]	@ zero_extendqisi2
 816 0086 0D49     		ldr	r1, .L28+20
 817 0088 51F82220 		ldr	r2, [r1, r2, lsl #2]
 818 008c 1178     		ldrb	r1, [r2]	@ zero_extendqisi2
 819 008e BA7B     		ldrb	r2, [r7, #14]	@ zero_extendqisi2
 820 0090 0B48     		ldr	r0, .L28+24
 821 0092 825C     		ldrb	r2, [r0, r2]	@ zero_extendqisi2
 822 0094 D243     		mvns	r2, r2
 823 0096 D2B2     		uxtb	r2, r2
 824 0098 0A40     		ands	r2, r2, r1
 825 009a D2B2     		uxtb	r2, r2
 826 009c 1A70     		strb	r2, [r3]
 827              	.L26:
 394:Generated_Source\PSoC5/cyfitter_cfg.c **** 		}
 395:Generated_Source\PSoC5/cyfitter_cfg.c **** 	}
 396:Generated_Source\PSoC5/cyfitter_cfg.c **** }
 828              		.loc 1 396 0
 829 009e 1437     		adds	r7, r7, #20
 830              		.cfi_def_cfa_offset 4
 831 00a0 BD46     		mov	sp, r7
 832              		.cfi_def_cfa_register 13
 833              		@ sp needed
 834 00a2 5DF8047B 		ldr	r7, [sp], #4
 835              		.cfi_restore 7
 836              		.cfi_def_cfa_offset 0
 837 00a6 7047     		bx	lr
 838              	.L29:
 839              		.align	2
 840              	.L28:
 841 00a8 00000000 		.word	ADC_Mux__armsEnabled
 842 00ac 00000000 		.word	ADC_Mux__outerAddr
 843 00b0 20000000 		.word	ADC_Mux__outerMask
 844 00b4 3C000000 		.word	ADC_Mux__innerMap
 845 00b8 04000000 		.word	ADC_Mux__refCnt
 846 00bc 28000000 		.word	ADC_Mux__innerAddr
 847 00c0 38000000 		.word	ADC_Mux__innerMask
 848              		.cfi_endproc
 849              	.LFE8:
 850              		.size	ADC_Mux_Unset, .-ADC_Mux_Unset
 851              		.section	.text.cyfitter_cfg,"ax",%progbits
 852              		.align	2
 853              		.global	cyfitter_cfg
 854              		.thumb
 855              		.thumb_func
ARM GAS  C:\Users\Bruger\AppData\Local\Temp\ccj0lDyf.s 			page 23


 856              		.type	cyfitter_cfg, %function
 857              	cyfitter_cfg:
 858              	.LFB9:
 397:Generated_Source\PSoC5/cyfitter_cfg.c **** 
 398:Generated_Source\PSoC5/cyfitter_cfg.c **** 
 399:Generated_Source\PSoC5/cyfitter_cfg.c **** 
 400:Generated_Source\PSoC5/cyfitter_cfg.c **** /*******************************************************************************
 401:Generated_Source\PSoC5/cyfitter_cfg.c **** * Function Name: cyfitter_cfg
 402:Generated_Source\PSoC5/cyfitter_cfg.c **** ********************************************************************************
 403:Generated_Source\PSoC5/cyfitter_cfg.c **** * Summary:
 404:Generated_Source\PSoC5/cyfitter_cfg.c **** *  This function is called by the start-up code for the selected device. It
 405:Generated_Source\PSoC5/cyfitter_cfg.c **** *  performs all of the necessary device configuration based on the design
 406:Generated_Source\PSoC5/cyfitter_cfg.c **** *  settings.  This includes settings from the Design Wide Resources (DWR) such
 407:Generated_Source\PSoC5/cyfitter_cfg.c **** *  as Clocks and Pins as well as any component configuration that is necessary.
 408:Generated_Source\PSoC5/cyfitter_cfg.c **** *
 409:Generated_Source\PSoC5/cyfitter_cfg.c **** * Parameters:  
 410:Generated_Source\PSoC5/cyfitter_cfg.c **** *   void
 411:Generated_Source\PSoC5/cyfitter_cfg.c **** *
 412:Generated_Source\PSoC5/cyfitter_cfg.c **** * Return:
 413:Generated_Source\PSoC5/cyfitter_cfg.c **** *   void
 414:Generated_Source\PSoC5/cyfitter_cfg.c **** *
 415:Generated_Source\PSoC5/cyfitter_cfg.c **** *******************************************************************************/
 416:Generated_Source\PSoC5/cyfitter_cfg.c **** 
 417:Generated_Source\PSoC5/cyfitter_cfg.c **** void cyfitter_cfg(void)
 418:Generated_Source\PSoC5/cyfitter_cfg.c **** {
 859              		.loc 1 418 0
 860              		.cfi_startproc
 861              		@ args = 0, pretend = 0, frame = 24
 862              		@ frame_needed = 1, uses_anonymous_args = 0
 863 0000 80B5     		push	{r7, lr}
 864              		.cfi_def_cfa_offset 8
 865              		.cfi_offset 7, -8
 866              		.cfi_offset 14, -4
 867 0002 86B0     		sub	sp, sp, #24
 868              		.cfi_def_cfa_offset 32
 869 0004 00AF     		add	r7, sp, #0
 870              		.cfi_def_cfa_register 7
 419:Generated_Source\PSoC5/cyfitter_cfg.c **** 	/* IOPINS0_0 Address: CYREG_PRT0_DM0 Size (bytes): 8 */
 420:Generated_Source\PSoC5/cyfitter_cfg.c **** 	static const uint8 CYCODE BS_IOPINS0_0_VAL[] = {
 421:Generated_Source\PSoC5/cyfitter_cfg.c **** 		0x0Fu, 0x0Fu, 0x0Eu, 0x00u, 0x00u, 0x00u, 0xF8u, 0x00u};
 422:Generated_Source\PSoC5/cyfitter_cfg.c **** 
 423:Generated_Source\PSoC5/cyfitter_cfg.c **** 	/* IOPINS0_7 Address: CYREG_PRT12_DM0 Size (bytes): 8 */
 424:Generated_Source\PSoC5/cyfitter_cfg.c **** 	static const uint8 CYCODE BS_IOPINS0_7_VAL[] = {
 425:Generated_Source\PSoC5/cyfitter_cfg.c **** 		0x7Cu, 0x80u, 0x83u, 0x00u, 0x83u, 0x03u, 0x00u, 0x00u};
 426:Generated_Source\PSoC5/cyfitter_cfg.c **** 
 427:Generated_Source\PSoC5/cyfitter_cfg.c **** 	/* IOPINS0_8 Address: CYREG_PRT15_DR Size (bytes): 10 */
 428:Generated_Source\PSoC5/cyfitter_cfg.c **** 	static const uint8 CYCODE BS_IOPINS0_8_VAL[] = {
 429:Generated_Source\PSoC5/cyfitter_cfg.c **** 		0x40u, 0x00u, 0x00u, 0x01u, 0x01u, 0x00u, 0x01u, 0x00u, 0xC0u, 0x00u};
 430:Generated_Source\PSoC5/cyfitter_cfg.c **** 
 431:Generated_Source\PSoC5/cyfitter_cfg.c **** 	/* IOPINS0_1 Address: CYREG_PRT1_DM0 Size (bytes): 8 */
 432:Generated_Source\PSoC5/cyfitter_cfg.c **** 	static const uint8 CYCODE BS_IOPINS0_1_VAL[] = {
 433:Generated_Source\PSoC5/cyfitter_cfg.c **** 		0x80u, 0x7Fu, 0x7Fu, 0x00u, 0x60u, 0x00u, 0x00u, 0x00u};
 434:Generated_Source\PSoC5/cyfitter_cfg.c **** 
 435:Generated_Source\PSoC5/cyfitter_cfg.c **** 	/* IOPINS0_2 Address: CYREG_PRT2_DR Size (bytes): 10 */
 436:Generated_Source\PSoC5/cyfitter_cfg.c **** 	static const uint8 CYCODE BS_IOPINS0_2_VAL[] = {
 437:Generated_Source\PSoC5/cyfitter_cfg.c **** 		0x04u, 0x00u, 0x11u, 0x7Du, 0xEAu, 0x00u, 0x68u, 0x00u, 0x00u, 0x00u};
 438:Generated_Source\PSoC5/cyfitter_cfg.c **** 
ARM GAS  C:\Users\Bruger\AppData\Local\Temp\ccj0lDyf.s 			page 24


 439:Generated_Source\PSoC5/cyfitter_cfg.c **** 	/* IOPINS0_3 Address: CYREG_PRT3_DM0 Size (bytes): 8 */
 440:Generated_Source\PSoC5/cyfitter_cfg.c **** 	static const uint8 CYCODE BS_IOPINS0_3_VAL[] = {
 441:Generated_Source\PSoC5/cyfitter_cfg.c **** 		0xFFu, 0x00u, 0x00u, 0x00u, 0x00u, 0x00u, 0x00u, 0x00u};
 442:Generated_Source\PSoC5/cyfitter_cfg.c **** 
 443:Generated_Source\PSoC5/cyfitter_cfg.c **** #ifdef CYGlobalIntDisable
 444:Generated_Source\PSoC5/cyfitter_cfg.c **** 	/* Disable interrupts by default. Let user enable if/when they want. */
 445:Generated_Source\PSoC5/cyfitter_cfg.c **** 	CYGlobalIntDisable
 871              		.loc 1 445 0
 872              	@ 445 "Generated_Source\PSoC5\cyfitter_cfg.c" 1
 873 0006 72B6     		CPSID   i
 874              	@ 0 "" 2
 446:Generated_Source\PSoC5/cyfitter_cfg.c **** #endif
 447:Generated_Source\PSoC5/cyfitter_cfg.c **** 
 448:Generated_Source\PSoC5/cyfitter_cfg.c **** 	/* Enable/Disable Debug functionality based on settings from System DWR */
 449:Generated_Source\PSoC5/cyfitter_cfg.c **** 	CY_SET_XTND_REG8((void CYFAR *)CYREG_MLOGIC_DEBUG, (CY_GET_XTND_REG8((void CYFAR *)CYREG_MLOGIC_DE
 875              		.loc 1 449 0
 876              		.thumb
 877 0008 4E4A     		ldr	r2, .L35
 878 000a 4E4B     		ldr	r3, .L35
 879 000c 1B78     		ldrb	r3, [r3]
 880 000e DBB2     		uxtb	r3, r3
 881 0010 43F00403 		orr	r3, r3, #4
 882 0014 DBB2     		uxtb	r3, r3
 883 0016 1370     		strb	r3, [r2]
 884              	.LBB2:
 450:Generated_Source\PSoC5/cyfitter_cfg.c **** 
 451:Generated_Source\PSoC5/cyfitter_cfg.c **** 	{
 452:Generated_Source\PSoC5/cyfitter_cfg.c **** 
 453:Generated_Source\PSoC5/cyfitter_cfg.c **** 		CYPACKED typedef struct {
 454:Generated_Source\PSoC5/cyfitter_cfg.c **** 			void CYFAR *address;
 455:Generated_Source\PSoC5/cyfitter_cfg.c **** 			uint16 size;
 456:Generated_Source\PSoC5/cyfitter_cfg.c **** 		} CYPACKED_ATTR cfg_memset_t;
 457:Generated_Source\PSoC5/cyfitter_cfg.c **** 
 458:Generated_Source\PSoC5/cyfitter_cfg.c **** 
 459:Generated_Source\PSoC5/cyfitter_cfg.c **** 		CYPACKED typedef struct {
 460:Generated_Source\PSoC5/cyfitter_cfg.c **** 			void CYFAR *dest;
 461:Generated_Source\PSoC5/cyfitter_cfg.c **** 			const void CYCODE *src;
 462:Generated_Source\PSoC5/cyfitter_cfg.c **** 			uint16 size;
 463:Generated_Source\PSoC5/cyfitter_cfg.c **** 		} CYPACKED_ATTR cfg_memcpy_t;
 464:Generated_Source\PSoC5/cyfitter_cfg.c **** 
 465:Generated_Source\PSoC5/cyfitter_cfg.c **** 		static const cfg_memset_t CYCODE cfg_memset_list [] = {
 466:Generated_Source\PSoC5/cyfitter_cfg.c **** 			/* address, size */
 467:Generated_Source\PSoC5/cyfitter_cfg.c **** 			{(void CYFAR *)(CYREG_I2C_XCFG), 25u},
 468:Generated_Source\PSoC5/cyfitter_cfg.c **** 			{(void CYFAR *)(CYREG_PRT4_DR), 48u},
 469:Generated_Source\PSoC5/cyfitter_cfg.c **** 			{(void CYFAR *)(CYDEV_UCFG_DSI4_BASE), 128u},
 470:Generated_Source\PSoC5/cyfitter_cfg.c **** 		};
 471:Generated_Source\PSoC5/cyfitter_cfg.c **** 
 472:Generated_Source\PSoC5/cyfitter_cfg.c **** 		/* IOPORT_1 Address: CYDEV_PRTDSI_PRT1_BASE Size (bytes): 7 */
 473:Generated_Source\PSoC5/cyfitter_cfg.c **** 		static const uint8 CYCODE BS_IOPORT_1_VAL[] = {
 474:Generated_Source\PSoC5/cyfitter_cfg.c **** 			0x40u, 0x60u, 0x00u, 0x00u, 0x94u, 0x00u, 0x00u};
 475:Generated_Source\PSoC5/cyfitter_cfg.c **** 
 476:Generated_Source\PSoC5/cyfitter_cfg.c **** 		/* IOPORT_2 Address: CYDEV_PRTDSI_PRT2_BASE Size (bytes): 7 */
 477:Generated_Source\PSoC5/cyfitter_cfg.c **** 		static const uint8 CYCODE BS_IOPORT_2_VAL[] = {
 478:Generated_Source\PSoC5/cyfitter_cfg.c **** 			0xD8u, 0x40u, 0x00u, 0x00u, 0x97u, 0x00u, 0x00u};
 479:Generated_Source\PSoC5/cyfitter_cfg.c **** 
 480:Generated_Source\PSoC5/cyfitter_cfg.c **** 		/* PICU_2 Address: CYDEV_PICU_INTTYPE_PICU2_BASE Size (bytes): 8 */
 481:Generated_Source\PSoC5/cyfitter_cfg.c **** 		static const uint8 CYCODE BS_PICU_2_VAL[] = {
ARM GAS  C:\Users\Bruger\AppData\Local\Temp\ccj0lDyf.s 			page 25


 482:Generated_Source\PSoC5/cyfitter_cfg.c **** 			0x01u, 0x00u, 0x00u, 0x00u, 0x01u, 0x00u, 0x00u, 0x00u};
 483:Generated_Source\PSoC5/cyfitter_cfg.c **** 
 484:Generated_Source\PSoC5/cyfitter_cfg.c **** 		/* IOPORT_3 Address: CYDEV_PRTDSI_PRT3_BASE Size (bytes): 7 */
 485:Generated_Source\PSoC5/cyfitter_cfg.c **** 		static const uint8 CYCODE BS_IOPORT_3_VAL[] = {
 486:Generated_Source\PSoC5/cyfitter_cfg.c **** 			0x00u, 0x00u, 0x00u, 0x00u, 0xFFu, 0x00u, 0x00u};
 487:Generated_Source\PSoC5/cyfitter_cfg.c **** 
 488:Generated_Source\PSoC5/cyfitter_cfg.c **** 		/* IOPORT_7 Address: CYDEV_PRTDSI_PRT12_BASE Size (bytes): 6 */
 489:Generated_Source\PSoC5/cyfitter_cfg.c **** 		static const uint8 CYCODE BS_IOPORT_7_VAL[] = {
 490:Generated_Source\PSoC5/cyfitter_cfg.c **** 			0x81u, 0x8Cu, 0x03u, 0x03u, 0x7Fu, 0x00u};
 491:Generated_Source\PSoC5/cyfitter_cfg.c **** 
 492:Generated_Source\PSoC5/cyfitter_cfg.c **** 		/* IOPORT_8 Address: CYDEV_PRTDSI_PRT15_BASE Size (bytes): 7 */
 493:Generated_Source\PSoC5/cyfitter_cfg.c **** 		static const uint8 CYCODE BS_IOPORT_8_VAL[] = {
 494:Generated_Source\PSoC5/cyfitter_cfg.c **** 			0x01u, 0x00u, 0x00u, 0x00u, 0x40u, 0x00u, 0x00u};
 495:Generated_Source\PSoC5/cyfitter_cfg.c **** 
 496:Generated_Source\PSoC5/cyfitter_cfg.c **** 		/* PICU_8 Address: CYDEV_PICU_INTTYPE_PICU15_BASE Size (bytes): 8 */
 497:Generated_Source\PSoC5/cyfitter_cfg.c **** 		static const uint8 CYCODE BS_PICU_8_VAL[] = {
 498:Generated_Source\PSoC5/cyfitter_cfg.c **** 			0x00u, 0x00u, 0x00u, 0x00u, 0x00u, 0x00u, 0x02u, 0x00u};
 499:Generated_Source\PSoC5/cyfitter_cfg.c **** 
 500:Generated_Source\PSoC5/cyfitter_cfg.c **** 		/* IDMUX_IRQ Address: CYREG_IDMUX_IRQ_CTL0 Size (bytes): 8 */
 501:Generated_Source\PSoC5/cyfitter_cfg.c **** 		static const uint8 CYCODE BS_IDMUX_IRQ_VAL[] = {
 502:Generated_Source\PSoC5/cyfitter_cfg.c **** 			0xFAu, 0x8Fu, 0xFAu, 0xCCu, 0x00u, 0x00u, 0x00u, 0x00u};
 503:Generated_Source\PSoC5/cyfitter_cfg.c **** 
 504:Generated_Source\PSoC5/cyfitter_cfg.c **** 		/* TMR0 Address: CYREG_TMR0_CFG0 Size (bytes): 12 */
 505:Generated_Source\PSoC5/cyfitter_cfg.c **** 		static const uint8 CYCODE BS_TMR0_VAL[] = {
 506:Generated_Source\PSoC5/cyfitter_cfg.c **** 			0x00u, 0x60u, 0x00u, 0x00u, 0x00u, 0x00u, 0x00u, 0x00u, 0x00u, 0x00u, 0x1Bu, 0x00u};
 507:Generated_Source\PSoC5/cyfitter_cfg.c **** 
 508:Generated_Source\PSoC5/cyfitter_cfg.c **** 		/* TMR1 Address: CYREG_TMR1_CFG0 Size (bytes): 12 */
 509:Generated_Source\PSoC5/cyfitter_cfg.c **** 		static const uint8 CYCODE BS_TMR1_VAL[] = {
 510:Generated_Source\PSoC5/cyfitter_cfg.c **** 			0x00u, 0x40u, 0x00u, 0x00u, 0x00u, 0x00u, 0x00u, 0x00u, 0x00u, 0x00u, 0x27u, 0x00u};
 511:Generated_Source\PSoC5/cyfitter_cfg.c **** 
 512:Generated_Source\PSoC5/cyfitter_cfg.c **** 		/* SAR0 Address: CYREG_SAR0_SW0 Size (bytes): 8 */
 513:Generated_Source\PSoC5/cyfitter_cfg.c **** 		static const uint8 CYCODE BS_SAR0_VAL[] = {
 514:Generated_Source\PSoC5/cyfitter_cfg.c **** 			0x00u, 0x00u, 0x00u, 0x00u, 0x00u, 0x00u, 0x00u, 0x84u};
 515:Generated_Source\PSoC5/cyfitter_cfg.c **** 
 516:Generated_Source\PSoC5/cyfitter_cfg.c **** 		/* UDB_1_5_0_CONFIG Address: CYDEV_UCFG_B0_P0_U0_BASE Size (bytes): 128 */
 517:Generated_Source\PSoC5/cyfitter_cfg.c **** 		static const uint8 CYCODE BS_UDB_1_5_0_CONFIG_VAL[] = {
 518:Generated_Source\PSoC5/cyfitter_cfg.c **** 			0x00u, 0x40u, 0x00u, 0x00u, 0x42u, 0x00u, 0x08u, 0x40u, 0x02u, 0x0Du, 0x0Du, 0xB0u, 0x8Du, 0x00u
 519:Generated_Source\PSoC5/cyfitter_cfg.c **** 			0x40u, 0x00u, 0x00u, 0x02u, 0x8Du, 0x40u, 0x00u, 0x00u, 0x8Du, 0x08u, 0x00u, 0x34u, 0x8Du, 0x24u
 520:Generated_Source\PSoC5/cyfitter_cfg.c **** 			0x0Du, 0x94u, 0x80u, 0x2Bu, 0x00u, 0x00u, 0x00u, 0x00u, 0x11u, 0x40u, 0x22u, 0x00u, 0x62u, 0x40u
 521:Generated_Source\PSoC5/cyfitter_cfg.c **** 			0x70u, 0x03u, 0x0Fu, 0x40u, 0x00u, 0x3Cu, 0x80u, 0x80u, 0x00u, 0x00u, 0x0Au, 0x20u, 0x00u, 0x00u
 522:Generated_Source\PSoC5/cyfitter_cfg.c **** 			0x00u, 0x00u, 0x00u, 0x00u, 0x00u, 0x00u, 0x00u, 0x00u, 0x00u, 0x00u, 0x00u, 0x00u, 0x00u, 0x00u
 523:Generated_Source\PSoC5/cyfitter_cfg.c **** 			0x00u, 0x00u, 0x00u, 0x00u, 0x09u, 0x00u, 0x00u, 0x00u, 0x04u, 0x04u, 0x00u, 0x04u, 0x11u, 0x10u
 524:Generated_Source\PSoC5/cyfitter_cfg.c **** 			0x00u, 0x00u, 0x00u, 0x00u, 0x00u, 0x00u, 0x00u, 0x00u, 0x00u, 0x00u, 0x00u, 0x00u, 0x00u, 0x00u
 525:Generated_Source\PSoC5/cyfitter_cfg.c **** 			0x00u, 0x00u, 0x00u, 0x00u, 0x00u, 0x00u, 0x00u, 0x00u, 0x00u, 0x00u, 0x00u, 0x00u, 0x00u, 0x00u
 526:Generated_Source\PSoC5/cyfitter_cfg.c **** 
 527:Generated_Source\PSoC5/cyfitter_cfg.c **** 		/* UDB_1_5_1_CONFIG Address: CYDEV_UCFG_B0_P0_U1_BASE Size (bytes): 128 */
 528:Generated_Source\PSoC5/cyfitter_cfg.c **** 		static const uint8 CYCODE BS_UDB_1_5_1_CONFIG_VAL[] = {
 529:Generated_Source\PSoC5/cyfitter_cfg.c **** 			0x00u, 0x00u, 0x00u, 0x00u, 0x00u, 0x00u, 0x00u, 0x00u, 0x00u, 0x00u, 0x08u, 0x00u, 0x00u, 0x00u
 530:Generated_Source\PSoC5/cyfitter_cfg.c **** 			0x00u, 0x00u, 0x04u, 0x00u, 0x02u, 0x00u, 0x00u, 0x00u, 0x00u, 0x00u, 0x00u, 0x00u, 0x10u, 0x00u
 531:Generated_Source\PSoC5/cyfitter_cfg.c **** 			0x00u, 0x00u, 0x03u, 0x00u, 0x18u, 0x00u, 0x00u, 0x00u, 0x00u, 0x00u, 0x10u, 0x00u, 0x00u, 0x00u
 532:Generated_Source\PSoC5/cyfitter_cfg.c **** 			0x00u, 0x00u, 0x01u, 0x00u, 0x02u, 0x00u, 0x1Cu, 0x00u, 0x00u, 0x00u, 0x00u, 0x00u, 0x00u, 0x00u
 533:Generated_Source\PSoC5/cyfitter_cfg.c **** 			0x00u, 0x00u, 0x00u, 0x00u, 0x00u, 0x00u, 0x00u, 0x00u, 0x00u, 0x00u, 0x00u, 0x00u, 0x00u, 0x00u
 534:Generated_Source\PSoC5/cyfitter_cfg.c **** 			0x00u, 0x00u, 0x80u, 0x00u, 0x07u, 0x00u, 0x04u, 0x00u, 0x04u, 0x00u, 0x00u, 0x04u, 0x02u, 0x20u
 535:Generated_Source\PSoC5/cyfitter_cfg.c **** 			0x00u, 0x00u, 0x00u, 0x00u, 0x00u, 0x00u, 0x00u, 0x00u, 0x00u, 0x00u, 0x00u, 0x00u, 0x00u, 0x00u
 536:Generated_Source\PSoC5/cyfitter_cfg.c **** 			0x00u, 0x00u, 0x00u, 0x00u, 0x00u, 0x00u, 0x00u, 0x00u, 0x00u, 0x00u, 0x00u, 0x00u, 0x00u, 0x00u
 537:Generated_Source\PSoC5/cyfitter_cfg.c **** 
 538:Generated_Source\PSoC5/cyfitter_cfg.c **** 		/* UDB_1_4_1_CONFIG Address: CYDEV_UCFG_B0_P1_U0_BASE Size (bytes): 128 */
ARM GAS  C:\Users\Bruger\AppData\Local\Temp\ccj0lDyf.s 			page 26


 539:Generated_Source\PSoC5/cyfitter_cfg.c **** 		static const uint8 CYCODE BS_UDB_1_4_1_CONFIG_VAL[] = {
 540:Generated_Source\PSoC5/cyfitter_cfg.c **** 			0x55u, 0x06u, 0x00u, 0x30u, 0x00u, 0x00u, 0x00u, 0x00u, 0x0Fu, 0x00u, 0x00u, 0x00u, 0x33u, 0x18u
 541:Generated_Source\PSoC5/cyfitter_cfg.c **** 			0x00u, 0x00u, 0x00u, 0x00u, 0x00u, 0x00u, 0x66u, 0x00u, 0x00u, 0x28u, 0x78u, 0x05u, 0x00u, 0x00u
 542:Generated_Source\PSoC5/cyfitter_cfg.c **** 			0x00u, 0x05u, 0x00u, 0x28u, 0x00u, 0x00u, 0x00u, 0x00u, 0x00u, 0x00u, 0x55u, 0x00u, 0x00u, 0x00u
 543:Generated_Source\PSoC5/cyfitter_cfg.c **** 			0x00u, 0x00u, 0x00u, 0x00u, 0x7Fu, 0x07u, 0x00u, 0x38u, 0x08u, 0x00u, 0x02u, 0x00u, 0x00u, 0x00u
 544:Generated_Source\PSoC5/cyfitter_cfg.c **** 			0x00u, 0x00u, 0x00u, 0x00u, 0x00u, 0x00u, 0x00u, 0x00u, 0x00u, 0x00u, 0x00u, 0x00u, 0x00u, 0x00u
 545:Generated_Source\PSoC5/cyfitter_cfg.c **** 			0x00u, 0x00u, 0xFFu, 0x00u, 0x00u, 0x00u, 0x10u, 0x00u, 0x04u, 0x04u, 0x00u, 0x04u, 0x00u, 0x50u
 546:Generated_Source\PSoC5/cyfitter_cfg.c **** 			0x00u, 0x00u, 0x00u, 0x00u, 0x00u, 0x00u, 0x00u, 0x00u, 0x00u, 0x00u, 0x00u, 0x00u, 0x00u, 0x00u
 547:Generated_Source\PSoC5/cyfitter_cfg.c **** 			0x00u, 0x00u, 0x00u, 0x00u, 0x00u, 0x00u, 0x00u, 0x00u, 0x00u, 0x00u, 0x00u, 0x00u, 0x00u, 0x00u
 548:Generated_Source\PSoC5/cyfitter_cfg.c **** 
 549:Generated_Source\PSoC5/cyfitter_cfg.c **** 		/* UDB_1_4_0_CONFIG Address: CYDEV_UCFG_B0_P1_U1_BASE Size (bytes): 128 */
 550:Generated_Source\PSoC5/cyfitter_cfg.c **** 		static const uint8 CYCODE BS_UDB_1_4_0_CONFIG_VAL[] = {
 551:Generated_Source\PSoC5/cyfitter_cfg.c **** 			0x00u, 0x00u, 0x00u, 0x00u, 0x00u, 0x80u, 0x20u, 0x15u, 0x00u, 0x2Au, 0x03u, 0x44u, 0x00u, 0x00u
 552:Generated_Source\PSoC5/cyfitter_cfg.c **** 			0x40u, 0x00u, 0x00u, 0x08u, 0x1Cu, 0x73u, 0x22u, 0x0Cu, 0x2Cu, 0x00u, 0x11u, 0x00u, 0x09u, 0x00u
 553:Generated_Source\PSoC5/cyfitter_cfg.c **** 			0x14u, 0x00u, 0x00u, 0x00u, 0x00u, 0x73u, 0x20u, 0x04u, 0x30u, 0x03u, 0x0Cu, 0x04u, 0x10u, 0x00u
 554:Generated_Source\PSoC5/cyfitter_cfg.c **** 			0x40u, 0xC0u, 0x1Fu, 0x0Fu, 0x20u, 0x30u, 0x00u, 0x00u, 0x00u, 0x22u, 0x00u, 0x08u, 0x00u, 0x00u
 555:Generated_Source\PSoC5/cyfitter_cfg.c **** 			0x00u, 0x00u, 0x00u, 0x00u, 0x00u, 0x00u, 0x00u, 0x00u, 0x00u, 0x00u, 0x00u, 0x00u, 0x00u, 0x00u
 556:Generated_Source\PSoC5/cyfitter_cfg.c **** 			0x00u, 0x00u, 0x00u, 0x00u, 0x40u, 0x00u, 0x00u, 0x00u, 0x04u, 0x04u, 0x00u, 0x04u, 0x00u, 0x10u
 557:Generated_Source\PSoC5/cyfitter_cfg.c **** 			0x00u, 0x00u, 0x00u, 0x00u, 0x00u, 0x00u, 0x00u, 0x00u, 0x00u, 0x00u, 0x00u, 0x00u, 0x00u, 0x00u
 558:Generated_Source\PSoC5/cyfitter_cfg.c **** 			0x00u, 0x00u, 0x00u, 0x00u, 0x00u, 0x00u, 0x00u, 0x00u, 0x00u, 0x00u, 0x00u, 0x00u, 0x00u, 0x00u
 559:Generated_Source\PSoC5/cyfitter_cfg.c **** 
 560:Generated_Source\PSoC5/cyfitter_cfg.c **** 		/* UDB_1_3_0_CONFIG Address: CYDEV_UCFG_B0_P2_U0_BASE Size (bytes): 128 */
 561:Generated_Source\PSoC5/cyfitter_cfg.c **** 		static const uint8 CYCODE BS_UDB_1_3_0_CONFIG_VAL[] = {
 562:Generated_Source\PSoC5/cyfitter_cfg.c **** 			0x00u, 0x00u, 0x00u, 0x06u, 0x01u, 0x00u, 0x0Eu, 0x08u, 0x01u, 0x00u, 0x16u, 0x00u, 0x00u, 0x00u
 563:Generated_Source\PSoC5/cyfitter_cfg.c **** 			0x00u, 0x05u, 0x00u, 0x00u, 0x1Cu, 0x00u, 0x03u, 0x00u, 0x00u, 0x00u, 0x20u, 0x00u, 0x00u, 0x03u
 564:Generated_Source\PSoC5/cyfitter_cfg.c **** 			0x00u, 0x00u, 0x00u, 0x05u, 0x00u, 0x00u, 0x03u, 0x00u, 0x00u, 0x00u, 0x20u, 0x00u, 0x00u, 0x00u
 565:Generated_Source\PSoC5/cyfitter_cfg.c **** 			0x20u, 0x07u, 0x0Fu, 0x00u, 0x1Au, 0x08u, 0x00u, 0x00u, 0x00u, 0x00u, 0x28u, 0x00u, 0x00u, 0x00u
 566:Generated_Source\PSoC5/cyfitter_cfg.c **** 			0x40u, 0x03u, 0x00u, 0x00u, 0x00u, 0x00u, 0x00u, 0x00u, 0x00u, 0xFFu, 0xFFu, 0xFFu, 0x00u, 0xA0u
 567:Generated_Source\PSoC5/cyfitter_cfg.c **** 			0x18u, 0x00u, 0x00u, 0x00u, 0x00u, 0x00u, 0x08u, 0x00u, 0x04u, 0x04u, 0x04u, 0x04u, 0x90u, 0x99u
 568:Generated_Source\PSoC5/cyfitter_cfg.c **** 			0x40u, 0x00u, 0x80u, 0x00u, 0x40u, 0x40u, 0x80u, 0x00u, 0x40u, 0x00u, 0x50u, 0xA8u, 0x40u, 0x20u
 569:Generated_Source\PSoC5/cyfitter_cfg.c **** 			0x00u, 0x00u, 0x00u, 0x00u, 0x00u, 0x00u, 0x00u, 0x00u, 0x00u, 0x00u, 0x00u, 0x00u, 0x00u, 0x00u
 570:Generated_Source\PSoC5/cyfitter_cfg.c **** 
 571:Generated_Source\PSoC5/cyfitter_cfg.c **** 		/* UDB_1_3_1_CONFIG Address: CYDEV_UCFG_B0_P2_U1_BASE Size (bytes): 128 */
 572:Generated_Source\PSoC5/cyfitter_cfg.c **** 		static const uint8 CYCODE BS_UDB_1_3_1_CONFIG_VAL[] = {
 573:Generated_Source\PSoC5/cyfitter_cfg.c **** 			0x00u, 0x00u, 0x01u, 0x00u, 0x00u, 0x00u, 0x00u, 0x00u, 0x05u, 0x00u, 0x00u, 0x00u, 0x00u, 0x00u
 574:Generated_Source\PSoC5/cyfitter_cfg.c **** 			0x00u, 0x00u, 0x00u, 0x00u, 0x01u, 0x00u, 0x00u, 0x00u, 0x00u, 0x00u, 0x00u, 0x00u, 0x00u, 0x00u
 575:Generated_Source\PSoC5/cyfitter_cfg.c **** 			0x00u, 0x01u, 0x03u, 0x00u, 0x00u, 0x00u, 0x00u, 0x00u, 0x00u, 0x00u, 0x00u, 0x00u, 0x04u, 0x00u
 576:Generated_Source\PSoC5/cyfitter_cfg.c **** 			0x01u, 0x00u, 0x02u, 0x01u, 0x04u, 0x00u, 0x08u, 0x00u, 0x00u, 0x00u, 0x20u, 0x00u, 0x00u, 0x00u
 577:Generated_Source\PSoC5/cyfitter_cfg.c **** 			0x10u, 0x03u, 0x00u, 0x00u, 0x00u, 0x5Cu, 0x20u, 0x4Eu, 0x3Fu, 0xFFu, 0xFFu, 0xFFu, 0x00u, 0xAFu
 578:Generated_Source\PSoC5/cyfitter_cfg.c **** 			0x18u, 0x00u, 0x80u, 0x00u, 0x07u, 0x00u, 0x04u, 0x00u, 0x04u, 0x04u, 0x04u, 0x04u, 0x09u, 0x99u
 579:Generated_Source\PSoC5/cyfitter_cfg.c **** 			0x40u, 0x00u, 0x80u, 0x00u, 0x40u, 0x40u, 0x80u, 0x00u, 0x40u, 0x00u, 0x50u, 0xA8u, 0x40u, 0x20u
 580:Generated_Source\PSoC5/cyfitter_cfg.c **** 			0x00u, 0x00u, 0x00u, 0x00u, 0x00u, 0x00u, 0x00u, 0x00u, 0x00u, 0x00u, 0x00u, 0x00u, 0x00u, 0x00u
 581:Generated_Source\PSoC5/cyfitter_cfg.c **** 
 582:Generated_Source\PSoC5/cyfitter_cfg.c **** 		/* UDB_1_2_1_CONFIG Address: CYDEV_UCFG_B0_P3_U0_BASE Size (bytes): 128 */
 583:Generated_Source\PSoC5/cyfitter_cfg.c **** 		static const uint8 CYCODE BS_UDB_1_2_1_CONFIG_VAL[] = {
 584:Generated_Source\PSoC5/cyfitter_cfg.c **** 			0x00u, 0x00u, 0x55u, 0x00u, 0x78u, 0x0Fu, 0x00u, 0x00u, 0x80u, 0x33u, 0x00u, 0x00u, 0x00u, 0x00u
 585:Generated_Source\PSoC5/cyfitter_cfg.c **** 			0x80u, 0x55u, 0x00u, 0x00u, 0x55u, 0x00u, 0x00u, 0x00u, 0x00u, 0x00u, 0x00u, 0x00u, 0x80u, 0x00u
 586:Generated_Source\PSoC5/cyfitter_cfg.c **** 			0x66u, 0x00u, 0x00u, 0x78u, 0x00u, 0x00u, 0x0Fu, 0x66u, 0x00u, 0x00u, 0x00u, 0x00u, 0x00u, 0x00u
 587:Generated_Source\PSoC5/cyfitter_cfg.c **** 			0x80u, 0x00u, 0x00u, 0x7Fu, 0x00u, 0x00u, 0x7Fu, 0x00u, 0x00u, 0x00u, 0x00u, 0x00u, 0x00u, 0x00u
 588:Generated_Source\PSoC5/cyfitter_cfg.c **** 			0x50u, 0x01u, 0x00u, 0x00u, 0x00u, 0x00u, 0x00u, 0x00u, 0x00u, 0xFFu, 0xFFu, 0xFFu, 0x00u, 0xA0u
 589:Generated_Source\PSoC5/cyfitter_cfg.c **** 			0x18u, 0x00u, 0x00u, 0x00u, 0x18u, 0x00u, 0x04u, 0x00u, 0x04u, 0x04u, 0x04u, 0x04u, 0x00u, 0x09u
 590:Generated_Source\PSoC5/cyfitter_cfg.c **** 			0x40u, 0x00u, 0x80u, 0x00u, 0x40u, 0x40u, 0x80u, 0x00u, 0x40u, 0x00u, 0x50u, 0xA8u, 0x40u, 0x20u
 591:Generated_Source\PSoC5/cyfitter_cfg.c **** 			0x00u, 0x00u, 0x00u, 0x00u, 0x00u, 0x00u, 0x00u, 0x00u, 0x00u, 0x00u, 0x00u, 0x00u, 0x00u, 0x00u
 592:Generated_Source\PSoC5/cyfitter_cfg.c **** 
 593:Generated_Source\PSoC5/cyfitter_cfg.c **** 		/* UDB_1_2_0_CONFIG Address: CYDEV_UCFG_B0_P3_U1_BASE Size (bytes): 128 */
 594:Generated_Source\PSoC5/cyfitter_cfg.c **** 		static const uint8 CYCODE BS_UDB_1_2_0_CONFIG_VAL[] = {
 595:Generated_Source\PSoC5/cyfitter_cfg.c **** 			0x55u, 0x00u, 0x00u, 0x00u, 0x00u, 0x03u, 0x00u, 0x00u, 0x00u, 0x02u, 0x78u, 0x00u, 0x00u, 0x00u
ARM GAS  C:\Users\Bruger\AppData\Local\Temp\ccj0lDyf.s 			page 27


 596:Generated_Source\PSoC5/cyfitter_cfg.c **** 			0x00u, 0x03u, 0x00u, 0x00u, 0x00u, 0x00u, 0x00u, 0x00u, 0x00u, 0x00u, 0x00u, 0x00u, 0x33u, 0x00u
 597:Generated_Source\PSoC5/cyfitter_cfg.c **** 			0x00u, 0x00u, 0x66u, 0x00u, 0x0Fu, 0x00u, 0x00u, 0x00u, 0x00u, 0x00u, 0x55u, 0x00u, 0x00u, 0x00u
 598:Generated_Source\PSoC5/cyfitter_cfg.c **** 			0x80u, 0x00u, 0x7Fu, 0x01u, 0x00u, 0x02u, 0x00u, 0x00u, 0x00u, 0x00u, 0x00u, 0x00u, 0x00u, 0x00u
 599:Generated_Source\PSoC5/cyfitter_cfg.c **** 			0x30u, 0x01u, 0x00u, 0x00u, 0x00u, 0xC5u, 0x2Eu, 0x40u, 0x3Fu, 0xFFu, 0xFFu, 0xFFu, 0x00u, 0xAFu
 600:Generated_Source\PSoC5/cyfitter_cfg.c **** 			0x18u, 0x00u, 0x00u, 0x00u, 0x00u, 0x00u, 0x02u, 0x24u, 0x04u, 0x04u, 0x04u, 0x04u, 0x92u, 0x19u
 601:Generated_Source\PSoC5/cyfitter_cfg.c **** 			0x40u, 0x00u, 0x80u, 0x00u, 0x40u, 0x40u, 0x80u, 0x00u, 0x40u, 0x00u, 0x50u, 0xA8u, 0x40u, 0x20u
 602:Generated_Source\PSoC5/cyfitter_cfg.c **** 			0x00u, 0x00u, 0x00u, 0x00u, 0x00u, 0x00u, 0x00u, 0x00u, 0x00u, 0x00u, 0x00u, 0x00u, 0x00u, 0x00u
 603:Generated_Source\PSoC5/cyfitter_cfg.c **** 
 604:Generated_Source\PSoC5/cyfitter_cfg.c **** 		/* UDB_0_2_1_CONFIG Address: CYDEV_UCFG_B0_P4_U0_BASE Size (bytes): 128 */
 605:Generated_Source\PSoC5/cyfitter_cfg.c **** 		static const uint8 CYCODE BS_UDB_0_2_1_CONFIG_VAL[] = {
 606:Generated_Source\PSoC5/cyfitter_cfg.c **** 			0x00u, 0x00u, 0x01u, 0x00u, 0x00u, 0x00u, 0x0Cu, 0x00u, 0x00u, 0x00u, 0x00u, 0x00u, 0x04u, 0x00u
 607:Generated_Source\PSoC5/cyfitter_cfg.c **** 			0x00u, 0x00u, 0x00u, 0x01u, 0x01u, 0x00u, 0x02u, 0x00u, 0x04u, 0x04u, 0x00u, 0x00u, 0x00u, 0x00u
 608:Generated_Source\PSoC5/cyfitter_cfg.c **** 			0x00u, 0x00u, 0x00u, 0x00u, 0x00u, 0x00u, 0x00u, 0x00u, 0x00u, 0x00u, 0x00u, 0x02u, 0x00u, 0x02u
 609:Generated_Source\PSoC5/cyfitter_cfg.c **** 			0x08u, 0x00u, 0x03u, 0x04u, 0x04u, 0x02u, 0x00u, 0x01u, 0x00u, 0x00u, 0x20u, 0x00u, 0x00u, 0x00u
 610:Generated_Source\PSoC5/cyfitter_cfg.c **** 			0x14u, 0x06u, 0x00u, 0x00u, 0x00u, 0x00u, 0x00u, 0x00u, 0x00u, 0xFFu, 0xFFu, 0xFFu, 0x00u, 0xA0u
 611:Generated_Source\PSoC5/cyfitter_cfg.c **** 			0x18u, 0x00u, 0x80u, 0x00u, 0x07u, 0x00u, 0x04u, 0x00u, 0x04u, 0x04u, 0x04u, 0x04u, 0x99u, 0x99u
 612:Generated_Source\PSoC5/cyfitter_cfg.c **** 			0x40u, 0x00u, 0x80u, 0x00u, 0x40u, 0x40u, 0x80u, 0x00u, 0x40u, 0x00u, 0x50u, 0xA8u, 0x40u, 0x20u
 613:Generated_Source\PSoC5/cyfitter_cfg.c **** 			0x00u, 0x00u, 0x00u, 0x00u, 0x00u, 0x00u, 0x00u, 0x00u, 0x00u, 0x00u, 0x00u, 0x00u, 0x00u, 0x00u
 614:Generated_Source\PSoC5/cyfitter_cfg.c **** 
 615:Generated_Source\PSoC5/cyfitter_cfg.c **** 		/* UDB_0_2_0_CONFIG Address: CYDEV_UCFG_B0_P4_U1_BASE Size (bytes): 128 */
 616:Generated_Source\PSoC5/cyfitter_cfg.c **** 		static const uint8 CYCODE BS_UDB_0_2_0_CONFIG_VAL[] = {
 617:Generated_Source\PSoC5/cyfitter_cfg.c **** 			0x55u, 0x00u, 0x00u, 0x00u, 0x00u, 0x55u, 0x66u, 0x00u, 0x00u, 0x00u, 0x55u, 0x0Fu, 0x00u, 0x00u
 618:Generated_Source\PSoC5/cyfitter_cfg.c **** 			0x00u, 0x00u, 0x00u, 0x00u, 0x00u, 0x00u, 0x00u, 0x00u, 0x00u, 0x78u, 0x78u, 0x00u, 0x00u, 0x00u
 619:Generated_Source\PSoC5/cyfitter_cfg.c **** 			0x33u, 0x00u, 0x00u, 0x33u, 0x0Fu, 0x00u, 0x00u, 0x00u, 0x00u, 0x66u, 0x00u, 0x00u, 0x00u, 0x00u
 620:Generated_Source\PSoC5/cyfitter_cfg.c **** 			0x7Fu, 0x00u, 0x00u, 0x7Fu, 0x00u, 0x00u, 0x00u, 0x00u, 0x00u, 0x00u, 0x00u, 0x03u, 0x00u, 0x00u
 621:Generated_Source\PSoC5/cyfitter_cfg.c **** 			0x14u, 0x02u, 0x00u, 0x00u, 0x00u, 0x00u, 0x00u, 0x00u, 0x00u, 0xFFu, 0xFFu, 0xFFu, 0x00u, 0xAFu
 622:Generated_Source\PSoC5/cyfitter_cfg.c **** 			0x18u, 0x00u, 0x80u, 0x00u, 0x07u, 0x00u, 0x00u, 0x00u, 0x04u, 0x04u, 0x04u, 0x04u, 0x50u, 0x99u
 623:Generated_Source\PSoC5/cyfitter_cfg.c **** 			0x40u, 0x00u, 0x80u, 0x00u, 0x40u, 0x40u, 0x80u, 0x00u, 0x40u, 0x00u, 0x50u, 0xA8u, 0x40u, 0x20u
 624:Generated_Source\PSoC5/cyfitter_cfg.c **** 			0x00u, 0x00u, 0x00u, 0x00u, 0x00u, 0x00u, 0x00u, 0x00u, 0x00u, 0x00u, 0x00u, 0x00u, 0x00u, 0x00u
 625:Generated_Source\PSoC5/cyfitter_cfg.c **** 
 626:Generated_Source\PSoC5/cyfitter_cfg.c **** 		/* UDB_0_3_0_CONFIG Address: CYDEV_UCFG_B0_P5_U0_BASE Size (bytes): 128 */
 627:Generated_Source\PSoC5/cyfitter_cfg.c **** 		static const uint8 CYCODE BS_UDB_0_3_0_CONFIG_VAL[] = {
 628:Generated_Source\PSoC5/cyfitter_cfg.c **** 			0x00u, 0x00u, 0x03u, 0xD5u, 0x00u, 0x0Fu, 0x00u, 0x00u, 0x01u, 0x33u, 0x00u, 0x00u, 0x00u, 0x00u
 629:Generated_Source\PSoC5/cyfitter_cfg.c **** 			0x00u, 0x55u, 0x00u, 0x00u, 0x00u, 0x00u, 0x00u, 0x00u, 0x00u, 0x00u, 0x00u, 0xE6u, 0x00u, 0x00u
 630:Generated_Source\PSoC5/cyfitter_cfg.c **** 			0x00u, 0x00u, 0x00u, 0x00u, 0x00u, 0x00u, 0x00u, 0x00u, 0x00u, 0x00u, 0x00u, 0x00u, 0x00u, 0x00u
 631:Generated_Source\PSoC5/cyfitter_cfg.c **** 			0x00u, 0x7Fu, 0x02u, 0x80u, 0x00u, 0x00u, 0x01u, 0x00u, 0x00u, 0x00u, 0x00u, 0x08u, 0x00u, 0x00u
 632:Generated_Source\PSoC5/cyfitter_cfg.c **** 			0x14u, 0x02u, 0x00u, 0x00u, 0x00u, 0x00u, 0x00u, 0x00u, 0x00u, 0xFFu, 0xFFu, 0xFFu, 0x00u, 0xAFu
 633:Generated_Source\PSoC5/cyfitter_cfg.c **** 			0x18u, 0x00u, 0xFFu, 0x00u, 0x00u, 0x00u, 0x10u, 0x00u, 0x04u, 0x04u, 0x04u, 0x04u, 0x59u, 0x59u
 634:Generated_Source\PSoC5/cyfitter_cfg.c **** 			0x40u, 0x00u, 0x80u, 0x00u, 0x40u, 0x40u, 0x80u, 0x00u, 0x40u, 0x00u, 0x50u, 0xA8u, 0x40u, 0x20u
 635:Generated_Source\PSoC5/cyfitter_cfg.c **** 			0x00u, 0x00u, 0x00u, 0x00u, 0x00u, 0x00u, 0x00u, 0x00u, 0x00u, 0x00u, 0x00u, 0x00u, 0x00u, 0x00u
 636:Generated_Source\PSoC5/cyfitter_cfg.c **** 
 637:Generated_Source\PSoC5/cyfitter_cfg.c **** 		/* UDB_0_3_1_CONFIG Address: CYDEV_UCFG_B0_P5_U1_BASE Size (bytes): 128 */
 638:Generated_Source\PSoC5/cyfitter_cfg.c **** 		static const uint8 CYCODE BS_UDB_0_3_1_CONFIG_VAL[] = {
 639:Generated_Source\PSoC5/cyfitter_cfg.c **** 			0x00u, 0x00u, 0x00u, 0x00u, 0x00u, 0x00u, 0x07u, 0x00u, 0x00u, 0x00u, 0x0Fu, 0x00u, 0x00u, 0x00u
 640:Generated_Source\PSoC5/cyfitter_cfg.c **** 			0x00u, 0x00u, 0x00u, 0x00u, 0x00u, 0x00u, 0x00u, 0x01u, 0x00u, 0x00u, 0x03u, 0x00u, 0x00u, 0x00u
 641:Generated_Source\PSoC5/cyfitter_cfg.c **** 			0x00u, 0x00u, 0x0Fu, 0x00u, 0x00u, 0x00u, 0x0Fu, 0x00u, 0x00u, 0x00u, 0x00u, 0x00u, 0x00u, 0x00u
 642:Generated_Source\PSoC5/cyfitter_cfg.c **** 			0x02u, 0x01u, 0x08u, 0x00u, 0x04u, 0x00u, 0x01u, 0x00u, 0x00u, 0x00u, 0xAAu, 0x00u, 0x00u, 0x00u
 643:Generated_Source\PSoC5/cyfitter_cfg.c **** 			0x14u, 0x02u, 0x00u, 0x00u, 0x00u, 0x52u, 0xE0u, 0x0Cu, 0x1Fu, 0xFFu, 0xFFu, 0xFFu, 0x00u, 0xAFu
 644:Generated_Source\PSoC5/cyfitter_cfg.c **** 			0x18u, 0x00u, 0x00u, 0x00u, 0x01u, 0x00u, 0x04u, 0x00u, 0x04u, 0x04u, 0x04u, 0x04u, 0x95u, 0x09u
 645:Generated_Source\PSoC5/cyfitter_cfg.c **** 			0x40u, 0x00u, 0x80u, 0x00u, 0x40u, 0x40u, 0x80u, 0x00u, 0x40u, 0x00u, 0x50u, 0xA8u, 0x40u, 0x20u
 646:Generated_Source\PSoC5/cyfitter_cfg.c **** 			0x00u, 0x00u, 0x00u, 0x00u, 0x00u, 0x00u, 0x00u, 0x00u, 0x00u, 0x00u, 0x00u, 0x00u, 0x00u, 0x00u
 647:Generated_Source\PSoC5/cyfitter_cfg.c **** 
 648:Generated_Source\PSoC5/cyfitter_cfg.c **** 		/* UDB_0_4_1_CONFIG Address: CYDEV_UCFG_B0_P6_U0_BASE Size (bytes): 128 */
 649:Generated_Source\PSoC5/cyfitter_cfg.c **** 		static const uint8 CYCODE BS_UDB_0_4_1_CONFIG_VAL[] = {
 650:Generated_Source\PSoC5/cyfitter_cfg.c **** 			0x00u, 0x04u, 0x00u, 0x09u, 0x00u, 0x00u, 0x00u, 0x00u, 0x00u, 0x05u, 0x04u, 0x0Au, 0x01u, 0xA0u
 651:Generated_Source\PSoC5/cyfitter_cfg.c **** 			0x00u, 0x03u, 0x00u, 0x04u, 0x00u, 0x0Eu, 0x00u, 0x00u, 0x00u, 0x00u, 0x00u, 0xA0u, 0x00u, 0x00u
 652:Generated_Source\PSoC5/cyfitter_cfg.c **** 			0x00u, 0xC0u, 0x0Au, 0x00u, 0x08u, 0x00u, 0x00u, 0x60u, 0x00u, 0x00u, 0x01u, 0x10u, 0x00u, 0x10u
ARM GAS  C:\Users\Bruger\AppData\Local\Temp\ccj0lDyf.s 			page 28


 653:Generated_Source\PSoC5/cyfitter_cfg.c **** 			0x04u, 0x00u, 0x03u, 0xE0u, 0x08u, 0x0Fu, 0x01u, 0x10u, 0x00u, 0x20u, 0x00u, 0x00u, 0x00u, 0x00u
 654:Generated_Source\PSoC5/cyfitter_cfg.c **** 			0x65u, 0x01u, 0x40u, 0x00u, 0x03u, 0xDEu, 0x0Fu, 0xCBu, 0x37u, 0xFFu, 0xFFu, 0xFFu, 0x22u, 0x00u
 655:Generated_Source\PSoC5/cyfitter_cfg.c **** 			0x04u, 0x00u, 0x00u, 0x00u, 0x17u, 0x00u, 0x04u, 0x00u, 0x04u, 0x04u, 0x04u, 0x04u, 0x19u, 0x91u
 656:Generated_Source\PSoC5/cyfitter_cfg.c **** 			0x00u, 0x00u, 0xC0u, 0x00u, 0x40u, 0x01u, 0x10u, 0x11u, 0xC0u, 0x01u, 0x00u, 0x11u, 0x40u, 0x01u
 657:Generated_Source\PSoC5/cyfitter_cfg.c **** 			0x00u, 0x00u, 0x00u, 0x00u, 0x00u, 0x00u, 0x00u, 0x00u, 0x00u, 0x00u, 0x00u, 0x00u, 0x00u, 0x00u
 658:Generated_Source\PSoC5/cyfitter_cfg.c **** 
 659:Generated_Source\PSoC5/cyfitter_cfg.c **** 		/* UDB_0_4_0_CONFIG Address: CYDEV_UCFG_B0_P6_U1_BASE Size (bytes): 128 */
 660:Generated_Source\PSoC5/cyfitter_cfg.c **** 		static const uint8 CYCODE BS_UDB_0_4_0_CONFIG_VAL[] = {
 661:Generated_Source\PSoC5/cyfitter_cfg.c **** 			0x00u, 0x00u, 0x00u, 0x00u, 0x00u, 0x00u, 0x00u, 0x00u, 0x00u, 0x00u, 0x00u, 0x00u, 0x00u, 0x00u
 662:Generated_Source\PSoC5/cyfitter_cfg.c **** 			0x00u, 0x00u, 0x00u, 0x00u, 0x00u, 0x00u, 0x00u, 0x00u, 0x00u, 0x00u, 0x00u, 0x00u, 0x00u, 0x01u
 663:Generated_Source\PSoC5/cyfitter_cfg.c **** 			0x00u, 0x00u, 0x00u, 0x00u, 0x00u, 0x00u, 0x00u, 0x00u, 0x00u, 0x00u, 0x00u, 0x00u, 0x00u, 0x00u
 664:Generated_Source\PSoC5/cyfitter_cfg.c **** 			0x00u, 0x00u, 0x00u, 0x00u, 0x00u, 0x01u, 0x00u, 0x00u, 0x00u, 0x00u, 0x00u, 0x00u, 0x00u, 0x00u
 665:Generated_Source\PSoC5/cyfitter_cfg.c **** 			0x56u, 0x03u, 0x00u, 0x00u, 0x00u, 0xECu, 0xBCu, 0x00u, 0x0Fu, 0xFFu, 0xFFu, 0xFFu, 0x00u, 0x00u
 666:Generated_Source\PSoC5/cyfitter_cfg.c **** 			0x0Cu, 0x00u, 0x00u, 0x00u, 0x00u, 0x00u, 0x00u, 0x00u, 0x00u, 0x04u, 0x04u, 0x04u, 0x00u, 0x00u
 667:Generated_Source\PSoC5/cyfitter_cfg.c **** 			0x00u, 0x00u, 0x00u, 0x00u, 0x00u, 0x00u, 0xC0u, 0x00u, 0x00u, 0x00u, 0x40u, 0x02u, 0x00u, 0x00u
 668:Generated_Source\PSoC5/cyfitter_cfg.c **** 			0x00u, 0x00u, 0x00u, 0x00u, 0x00u, 0x00u, 0x00u, 0x00u, 0x00u, 0x00u, 0x00u, 0x00u, 0x00u, 0x00u
 669:Generated_Source\PSoC5/cyfitter_cfg.c **** 
 670:Generated_Source\PSoC5/cyfitter_cfg.c **** 		/* UDB_0_5_0_CONFIG Address: CYDEV_UCFG_B0_P7_U0_BASE Size (bytes): 128 */
 671:Generated_Source\PSoC5/cyfitter_cfg.c **** 		static const uint8 CYCODE BS_UDB_0_5_0_CONFIG_VAL[] = {
 672:Generated_Source\PSoC5/cyfitter_cfg.c **** 			0x00u, 0x00u, 0x00u, 0x00u, 0x18u, 0x00u, 0x00u, 0x00u, 0x02u, 0x00u, 0x00u, 0x00u, 0x00u, 0x00u
 673:Generated_Source\PSoC5/cyfitter_cfg.c **** 			0x00u, 0x00u, 0x08u, 0x00u, 0x00u, 0x00u, 0x00u, 0x00u, 0x10u, 0x00u, 0x00u, 0x00u, 0x00u, 0x00u
 674:Generated_Source\PSoC5/cyfitter_cfg.c **** 			0x00u, 0x00u, 0x00u, 0x00u, 0x03u, 0x00u, 0x00u, 0x00u, 0x00u, 0x00u, 0x00u, 0x00u, 0x03u, 0x00u
 675:Generated_Source\PSoC5/cyfitter_cfg.c **** 			0x02u, 0x00u, 0x01u, 0x00u, 0x1Cu, 0x00u, 0x00u, 0x00u, 0x00u, 0x00u, 0x00u, 0x00u, 0x00u, 0x00u
 676:Generated_Source\PSoC5/cyfitter_cfg.c **** 			0x43u, 0x02u, 0x01u, 0x00u, 0x00u, 0x00u, 0x00u, 0x00u, 0x00u, 0xFFu, 0xFFu, 0xFFu, 0x00u, 0xA0u
 677:Generated_Source\PSoC5/cyfitter_cfg.c **** 			0x18u, 0x00u, 0x00u, 0x00u, 0x00u, 0x00u, 0x00u, 0x00u, 0x04u, 0x00u, 0x04u, 0x00u, 0x09u, 0x09u
 678:Generated_Source\PSoC5/cyfitter_cfg.c **** 			0x40u, 0x00u, 0x80u, 0x00u, 0x40u, 0x40u, 0x80u, 0x00u, 0x40u, 0x00u, 0x50u, 0xA8u, 0x40u, 0x20u
 679:Generated_Source\PSoC5/cyfitter_cfg.c **** 			0x00u, 0x00u, 0x00u, 0x00u, 0x00u, 0x00u, 0x00u, 0x00u, 0x00u, 0x00u, 0x00u, 0x00u, 0x00u, 0x00u
 680:Generated_Source\PSoC5/cyfitter_cfg.c **** 
 681:Generated_Source\PSoC5/cyfitter_cfg.c **** 		/* UDB_0_5_1_CONFIG Address: CYDEV_UCFG_B0_P7_U1_BASE Size (bytes): 128 */
 682:Generated_Source\PSoC5/cyfitter_cfg.c **** 		static const uint8 CYCODE BS_UDB_0_5_1_CONFIG_VAL[] = {
 683:Generated_Source\PSoC5/cyfitter_cfg.c **** 			0x04u, 0xFCu, 0x00u, 0x03u, 0x04u, 0x21u, 0x00u, 0xD8u, 0x0Au, 0x02u, 0x10u, 0x00u, 0x56u, 0x13u
 684:Generated_Source\PSoC5/cyfitter_cfg.c **** 			0x00u, 0x9Au, 0x00u, 0x00u, 0x01u, 0x02u, 0x80u, 0x98u, 0x00u, 0x98u, 0x04u, 0x02u, 0x04u, 0x38u
 685:Generated_Source\PSoC5/cyfitter_cfg.c **** 			0x07u, 0x98u, 0x38u, 0x02u, 0x04u, 0x00u, 0x00u, 0x00u, 0x60u, 0x9Au, 0x00u, 0x00u, 0x04u, 0x00u
 686:Generated_Source\PSoC5/cyfitter_cfg.c **** 			0x02u, 0xE0u, 0x7Fu, 0x0Fu, 0x80u, 0x00u, 0x00u, 0x13u, 0x08u, 0x00u, 0x00u, 0x0Au, 0x00u, 0x00u
 687:Generated_Source\PSoC5/cyfitter_cfg.c **** 			0x43u, 0x02u, 0x01u, 0x00u, 0x00u, 0x2Cu, 0x50u, 0x4Eu, 0x3Fu, 0xFFu, 0xFFu, 0xFFu, 0x00u, 0xAFu
 688:Generated_Source\PSoC5/cyfitter_cfg.c **** 			0x18u, 0x00u, 0x00u, 0x00u, 0x00u, 0x00u, 0x00u, 0x00u, 0x04u, 0x04u, 0x04u, 0x00u, 0x11u, 0x09u
 689:Generated_Source\PSoC5/cyfitter_cfg.c **** 			0x40u, 0x00u, 0x80u, 0x00u, 0x40u, 0x40u, 0x80u, 0x00u, 0x40u, 0x00u, 0x50u, 0xA8u, 0x40u, 0x20u
 690:Generated_Source\PSoC5/cyfitter_cfg.c **** 			0x00u, 0x00u, 0x00u, 0x00u, 0x00u, 0x00u, 0x00u, 0x00u, 0x00u, 0x00u, 0x00u, 0x00u, 0x00u, 0x00u
 691:Generated_Source\PSoC5/cyfitter_cfg.c **** 
 692:Generated_Source\PSoC5/cyfitter_cfg.c **** 		/* UDB_1_0_0_CONFIG Address: CYDEV_UCFG_B1_P2_U0_BASE Size (bytes): 128 */
 693:Generated_Source\PSoC5/cyfitter_cfg.c **** 		static const uint8 CYCODE BS_UDB_1_0_0_CONFIG_VAL[] = {
 694:Generated_Source\PSoC5/cyfitter_cfg.c **** 			0x00u, 0x4Fu, 0x02u, 0x30u, 0x00u, 0x30u, 0x08u, 0x00u, 0x00u, 0x10u, 0x01u, 0x00u, 0x08u, 0x00u
 695:Generated_Source\PSoC5/cyfitter_cfg.c **** 			0x00u, 0x79u, 0x08u, 0x04u, 0x00u, 0x00u, 0x00u, 0x00u, 0x04u, 0x00u, 0x00u, 0x08u, 0x08u, 0x20u
 696:Generated_Source\PSoC5/cyfitter_cfg.c **** 			0x04u, 0x7Fu, 0x00u, 0x00u, 0x04u, 0x00u, 0x00u, 0x46u, 0x00u, 0x08u, 0x02u, 0x00u, 0x00u, 0x39u
 697:Generated_Source\PSoC5/cyfitter_cfg.c **** 			0x08u, 0x3Eu, 0x04u, 0x01u, 0x03u, 0x00u, 0x00u, 0x70u, 0x02u, 0x00u, 0x00u, 0x02u, 0x00u, 0x00u
 698:Generated_Source\PSoC5/cyfitter_cfg.c **** 			0x02u, 0x00u, 0x00u, 0x00u, 0x00u, 0x00u, 0x00u, 0x40u, 0x00u, 0xFFu, 0x07u, 0xFFu, 0x40u, 0x20u
 699:Generated_Source\PSoC5/cyfitter_cfg.c **** 			0x08u, 0x00u, 0x00u, 0x00u, 0x00u, 0x00u, 0x02u, 0x12u, 0x04u, 0x04u, 0x04u, 0x04u, 0x00u, 0x00u
 700:Generated_Source\PSoC5/cyfitter_cfg.c **** 			0x40u, 0xA8u, 0x40u, 0x20u, 0x00u, 0x00u, 0x00u, 0x00u, 0x00u, 0x00u, 0x00u, 0x00u, 0x00u, 0x00u
 701:Generated_Source\PSoC5/cyfitter_cfg.c **** 			0x00u, 0x00u, 0x00u, 0x00u, 0x00u, 0x00u, 0x00u, 0x00u, 0x00u, 0x00u, 0x00u, 0x00u, 0x00u, 0x00u
 702:Generated_Source\PSoC5/cyfitter_cfg.c **** 
 703:Generated_Source\PSoC5/cyfitter_cfg.c **** 		/* UDB_1_0_1_CONFIG Address: CYDEV_UCFG_B1_P2_U1_BASE Size (bytes): 128 */
 704:Generated_Source\PSoC5/cyfitter_cfg.c **** 		static const uint8 CYCODE BS_UDB_1_0_1_CONFIG_VAL[] = {
 705:Generated_Source\PSoC5/cyfitter_cfg.c **** 			0x00u, 0x00u, 0x00u, 0x00u, 0x00u, 0x00u, 0x00u, 0x00u, 0x00u, 0x00u, 0x00u, 0x01u, 0x00u, 0x00u
 706:Generated_Source\PSoC5/cyfitter_cfg.c **** 			0x00u, 0x00u, 0x00u, 0x00u, 0x00u, 0x00u, 0x00u, 0x00u, 0x00u, 0x00u, 0x00u, 0x00u, 0x00u, 0x00u
 707:Generated_Source\PSoC5/cyfitter_cfg.c **** 			0x00u, 0x00u, 0x00u, 0x00u, 0x00u, 0x00u, 0x00u, 0x00u, 0x00u, 0x00u, 0x00u, 0x00u, 0x00u, 0x00u
 708:Generated_Source\PSoC5/cyfitter_cfg.c **** 			0x00u, 0x00u, 0x00u, 0x00u, 0x00u, 0x01u, 0x00u, 0x00u, 0x00u, 0x00u, 0x00u, 0x00u, 0x00u, 0x00u
 709:Generated_Source\PSoC5/cyfitter_cfg.c **** 			0x52u, 0x04u, 0x01u, 0x00u, 0x06u, 0x0Cu, 0xE0u, 0x00u, 0x09u, 0xFFu, 0xFFu, 0xFFu, 0x62u, 0xA0u
ARM GAS  C:\Users\Bruger\AppData\Local\Temp\ccj0lDyf.s 			page 29


 710:Generated_Source\PSoC5/cyfitter_cfg.c **** 			0x0Cu, 0x00u, 0x00u, 0x00u, 0x00u, 0x00u, 0x08u, 0x00u, 0x00u, 0x04u, 0x04u, 0x04u, 0x00u, 0x20u
 711:Generated_Source\PSoC5/cyfitter_cfg.c **** 			0x00u, 0x00u, 0x00u, 0x00u, 0x00u, 0x00u, 0x40u, 0x02u, 0x00u, 0x10u, 0x30u, 0x10u, 0x00u, 0x10u
 712:Generated_Source\PSoC5/cyfitter_cfg.c **** 			0x00u, 0x00u, 0x00u, 0x00u, 0x00u, 0x00u, 0x00u, 0x00u, 0x00u, 0x00u, 0x00u, 0x00u, 0x00u, 0x00u
 713:Generated_Source\PSoC5/cyfitter_cfg.c **** 
 714:Generated_Source\PSoC5/cyfitter_cfg.c **** 		/* UDB_1_1_1_CONFIG Address: CYDEV_UCFG_B1_P3_U0_BASE Size (bytes): 128 */
 715:Generated_Source\PSoC5/cyfitter_cfg.c **** 		static const uint8 CYCODE BS_UDB_1_1_1_CONFIG_VAL[] = {
 716:Generated_Source\PSoC5/cyfitter_cfg.c **** 			0x00u, 0x01u, 0x00u, 0x00u, 0x00u, 0x1Eu, 0x00u, 0x00u, 0x00u, 0x00u, 0x00u, 0x00u, 0x00u, 0x00u
 717:Generated_Source\PSoC5/cyfitter_cfg.c **** 			0x00u, 0xAAu, 0x02u, 0x00u, 0x00u, 0x00u, 0x00u, 0x00u, 0x02u, 0x00u, 0x00u, 0x00u, 0x00u, 0x01u
 718:Generated_Source\PSoC5/cyfitter_cfg.c **** 			0x00u, 0x00u, 0x00u, 0xF0u, 0x00u, 0x00u, 0x04u, 0xCCu, 0x00u, 0x66u, 0x00u, 0x00u, 0x00u, 0x00u
 719:Generated_Source\PSoC5/cyfitter_cfg.c **** 			0x04u, 0x00u, 0x02u, 0xFEu, 0x01u, 0x01u, 0x00u, 0x00u, 0x00u, 0x00u, 0x00u, 0x00u, 0x00u, 0x00u
 720:Generated_Source\PSoC5/cyfitter_cfg.c **** 			0x34u, 0x01u, 0x00u, 0x00u, 0x00u, 0x00u, 0x00u, 0x00u, 0x00u, 0xFFu, 0xFFu, 0xFFu, 0x00u, 0xA0u
 721:Generated_Source\PSoC5/cyfitter_cfg.c **** 			0x18u, 0x00u, 0x00u, 0x00u, 0x00u, 0x00u, 0x00u, 0x00u, 0x04u, 0x04u, 0x04u, 0x00u, 0x92u, 0x02u
 722:Generated_Source\PSoC5/cyfitter_cfg.c **** 			0x40u, 0x00u, 0x80u, 0x00u, 0x40u, 0x40u, 0x80u, 0x00u, 0x40u, 0x00u, 0x50u, 0xA8u, 0x40u, 0x20u
 723:Generated_Source\PSoC5/cyfitter_cfg.c **** 			0x00u, 0x00u, 0x00u, 0x00u, 0x00u, 0x00u, 0x00u, 0x00u, 0x00u, 0x00u, 0x00u, 0x00u, 0x00u, 0x00u
 724:Generated_Source\PSoC5/cyfitter_cfg.c **** 
 725:Generated_Source\PSoC5/cyfitter_cfg.c **** 		/* UDB_1_1_0_CONFIG Address: CYDEV_UCFG_B1_P3_U1_BASE Size (bytes): 128 */
 726:Generated_Source\PSoC5/cyfitter_cfg.c **** 		static const uint8 CYCODE BS_UDB_1_1_0_CONFIG_VAL[] = {
 727:Generated_Source\PSoC5/cyfitter_cfg.c **** 			0x00u, 0x00u, 0x04u, 0x00u, 0x00u, 0x00u, 0x00u, 0x00u, 0x02u, 0x78u, 0x01u, 0x00u, 0x01u, 0x00u
 728:Generated_Source\PSoC5/cyfitter_cfg.c **** 			0x00u, 0x00u, 0x00u, 0x55u, 0x00u, 0x55u, 0x00u, 0x00u, 0x00u, 0x00u, 0x00u, 0x0Fu, 0x00u, 0x00u
 729:Generated_Source\PSoC5/cyfitter_cfg.c **** 			0x00u, 0x66u, 0x00u, 0x00u, 0x00u, 0x00u, 0x00u, 0x00u, 0x00u, 0x80u, 0x00u, 0x00u, 0x00u, 0x00u
 730:Generated_Source\PSoC5/cyfitter_cfg.c **** 			0x03u, 0x00u, 0x00u, 0x80u, 0x04u, 0x7Fu, 0x00u, 0x00u, 0x00u, 0x00u, 0x00u, 0x00u, 0x00u, 0x00u
 731:Generated_Source\PSoC5/cyfitter_cfg.c **** 			0x35u, 0x01u, 0x00u, 0x00u, 0x00u, 0x42u, 0xC0u, 0x0Eu, 0x3Bu, 0xFFu, 0xFFu, 0xFFu, 0x00u, 0xAFu
 732:Generated_Source\PSoC5/cyfitter_cfg.c **** 			0x18u, 0x00u, 0xFFu, 0x00u, 0x00u, 0x00u, 0x10u, 0x00u, 0x04u, 0x04u, 0x04u, 0x04u, 0x01u, 0x52u
 733:Generated_Source\PSoC5/cyfitter_cfg.c **** 			0x40u, 0x00u, 0x80u, 0x00u, 0x40u, 0x40u, 0x80u, 0x00u, 0x40u, 0x00u, 0x50u, 0xA8u, 0x40u, 0x20u
 734:Generated_Source\PSoC5/cyfitter_cfg.c **** 			0x00u, 0x00u, 0x00u, 0x00u, 0x00u, 0x00u, 0x00u, 0x00u, 0x00u, 0x00u, 0x00u, 0x00u, 0x00u, 0x00u
 735:Generated_Source\PSoC5/cyfitter_cfg.c **** 
 736:Generated_Source\PSoC5/cyfitter_cfg.c **** 		/* UDB_0_1_1_CONFIG Address: CYDEV_UCFG_B1_P4_U0_BASE Size (bytes): 128 */
 737:Generated_Source\PSoC5/cyfitter_cfg.c **** 		static const uint8 CYCODE BS_UDB_0_1_1_CONFIG_VAL[] = {
 738:Generated_Source\PSoC5/cyfitter_cfg.c **** 			0x00u, 0x00u, 0x04u, 0x20u, 0x00u, 0x00u, 0x30u, 0x00u, 0x28u, 0x00u, 0x00u, 0x00u, 0x04u, 0x00u
 739:Generated_Source\PSoC5/cyfitter_cfg.c **** 			0x00u, 0x00u, 0x00u, 0x18u, 0x01u, 0x00u, 0x00u, 0x02u, 0x04u, 0x10u, 0x00u, 0x00u, 0x00u, 0x06u
 740:Generated_Source\PSoC5/cyfitter_cfg.c **** 			0x00u, 0x00u, 0x04u, 0x01u, 0x00u, 0x00u, 0x03u, 0x04u, 0x18u, 0x04u, 0x00u, 0x00u, 0x00u, 0x00u
 741:Generated_Source\PSoC5/cyfitter_cfg.c **** 			0x01u, 0x07u, 0x02u, 0x08u, 0x04u, 0x20u, 0x38u, 0x10u, 0x00u, 0x00u, 0x00u, 0x00u, 0x00u, 0x00u
 742:Generated_Source\PSoC5/cyfitter_cfg.c **** 			0x40u, 0x06u, 0x00u, 0x00u, 0x00u, 0x00u, 0x00u, 0x00u, 0x00u, 0xFFu, 0xFFu, 0xFFu, 0x00u, 0xA0u
 743:Generated_Source\PSoC5/cyfitter_cfg.c **** 			0x18u, 0x00u, 0x80u, 0x00u, 0x00u, 0x00u, 0x08u, 0x00u, 0x04u, 0x04u, 0x04u, 0x04u, 0x99u, 0x99u
 744:Generated_Source\PSoC5/cyfitter_cfg.c **** 			0x40u, 0x00u, 0x80u, 0x00u, 0x40u, 0x40u, 0x80u, 0x00u, 0x40u, 0x00u, 0x50u, 0xA8u, 0x40u, 0x20u
 745:Generated_Source\PSoC5/cyfitter_cfg.c **** 			0x00u, 0x00u, 0x00u, 0x00u, 0x00u, 0x00u, 0x00u, 0x00u, 0x00u, 0x00u, 0x00u, 0x00u, 0x00u, 0x00u
 746:Generated_Source\PSoC5/cyfitter_cfg.c **** 
 747:Generated_Source\PSoC5/cyfitter_cfg.c **** 		/* UDB_0_1_0_CONFIG Address: CYDEV_UCFG_B1_P4_U1_BASE Size (bytes): 128 */
 748:Generated_Source\PSoC5/cyfitter_cfg.c **** 		static const uint8 CYCODE BS_UDB_0_1_0_CONFIG_VAL[] = {
 749:Generated_Source\PSoC5/cyfitter_cfg.c **** 			0x00u, 0x00u, 0x0Cu, 0x00u, 0x00u, 0x00u, 0x02u, 0x00u, 0x00u, 0x00u, 0x00u, 0x00u, 0x00u, 0x00u
 750:Generated_Source\PSoC5/cyfitter_cfg.c **** 			0x00u, 0x00u, 0x00u, 0x00u, 0x00u, 0x00u, 0x04u, 0x00u, 0x00u, 0x00u, 0x08u, 0x00u, 0x00u, 0x00u
 751:Generated_Source\PSoC5/cyfitter_cfg.c **** 			0x00u, 0x00u, 0x00u, 0x00u, 0x00u, 0x00u, 0x00u, 0x00u, 0x04u, 0x00u, 0x08u, 0x00u, 0x00u, 0x00u
 752:Generated_Source\PSoC5/cyfitter_cfg.c **** 			0x02u, 0x00u, 0x0Cu, 0x00u, 0x01u, 0x01u, 0x00u, 0x00u, 0x00u, 0x00u, 0x22u, 0x00u, 0x00u, 0x00u
 753:Generated_Source\PSoC5/cyfitter_cfg.c **** 			0x40u, 0x06u, 0x00u, 0x00u, 0x00u, 0x00u, 0x00u, 0x00u, 0x00u, 0xFFu, 0xFFu, 0xFFu, 0x00u, 0xAFu
 754:Generated_Source\PSoC5/cyfitter_cfg.c **** 			0x18u, 0x00u, 0x80u, 0x00u, 0x00u, 0x00u, 0x00u, 0x00u, 0x04u, 0x04u, 0x04u, 0x04u, 0x05u, 0x99u
 755:Generated_Source\PSoC5/cyfitter_cfg.c **** 			0x40u, 0x00u, 0x80u, 0x00u, 0x40u, 0x40u, 0x80u, 0x00u, 0x40u, 0x00u, 0x50u, 0xA8u, 0x40u, 0x20u
 756:Generated_Source\PSoC5/cyfitter_cfg.c **** 			0x00u, 0x00u, 0x00u, 0x00u, 0x00u, 0x00u, 0x00u, 0x00u, 0x00u, 0x00u, 0x00u, 0x00u, 0x00u, 0x00u
 757:Generated_Source\PSoC5/cyfitter_cfg.c **** 
 758:Generated_Source\PSoC5/cyfitter_cfg.c **** 		/* UDB_0_0_0_CONFIG Address: CYDEV_UCFG_B1_P5_U0_BASE Size (bytes): 128 */
 759:Generated_Source\PSoC5/cyfitter_cfg.c **** 		static const uint8 CYCODE BS_UDB_0_0_0_CONFIG_VAL[] = {
 760:Generated_Source\PSoC5/cyfitter_cfg.c **** 			0x00u, 0x00u, 0x00u, 0x00u, 0x00u, 0x00u, 0x00u, 0x00u, 0x00u, 0x00u, 0x00u, 0x00u, 0x00u, 0x00u
 761:Generated_Source\PSoC5/cyfitter_cfg.c **** 			0x00u, 0x01u, 0x00u, 0x00u, 0x00u, 0x00u, 0x00u, 0x00u, 0x00u, 0x00u, 0x00u, 0x00u, 0x01u, 0x00u
 762:Generated_Source\PSoC5/cyfitter_cfg.c **** 			0x00u, 0x00u, 0x01u, 0x00u, 0x00u, 0x00u, 0x00u, 0x00u, 0x00u, 0x00u, 0x00u, 0x00u, 0x00u, 0x00u
 763:Generated_Source\PSoC5/cyfitter_cfg.c **** 			0x00u, 0x04u, 0x00u, 0x01u, 0x00u, 0x00u, 0x01u, 0x02u, 0x00u, 0x00u, 0x00u, 0x00u, 0x00u, 0x00u
 764:Generated_Source\PSoC5/cyfitter_cfg.c **** 			0x40u, 0x06u, 0x00u, 0x00u, 0x00u, 0x00u, 0x00u, 0x00u, 0x00u, 0xFFu, 0xFFu, 0xFFu, 0x00u, 0xAFu
 765:Generated_Source\PSoC5/cyfitter_cfg.c **** 			0x18u, 0x00u, 0x00u, 0x00u, 0x07u, 0x00u, 0x00u, 0x00u, 0x04u, 0x04u, 0x04u, 0x04u, 0x90u, 0x99u
 766:Generated_Source\PSoC5/cyfitter_cfg.c **** 			0x40u, 0x00u, 0x80u, 0x00u, 0x40u, 0x40u, 0x80u, 0x00u, 0x40u, 0x00u, 0x50u, 0xA8u, 0x40u, 0x20u
ARM GAS  C:\Users\Bruger\AppData\Local\Temp\ccj0lDyf.s 			page 30


 767:Generated_Source\PSoC5/cyfitter_cfg.c **** 			0x00u, 0x00u, 0x00u, 0x00u, 0x00u, 0x00u, 0x00u, 0x00u, 0x00u, 0x00u, 0x00u, 0x00u, 0x00u, 0x00u
 768:Generated_Source\PSoC5/cyfitter_cfg.c **** 
 769:Generated_Source\PSoC5/cyfitter_cfg.c **** 		/* UDB_0_0_1_CONFIG Address: CYDEV_UCFG_B1_P5_U1_BASE Size (bytes): 128 */
 770:Generated_Source\PSoC5/cyfitter_cfg.c **** 		static const uint8 CYCODE BS_UDB_0_0_1_CONFIG_VAL[] = {
 771:Generated_Source\PSoC5/cyfitter_cfg.c **** 			0x0Cu, 0x05u, 0x00u, 0x00u, 0x42u, 0x00u, 0x00u, 0x05u, 0x7Fu, 0x00u, 0x00u, 0x00u, 0x21u, 0x00u
 772:Generated_Source\PSoC5/cyfitter_cfg.c **** 			0x00u, 0xF8u, 0x73u, 0x00u, 0x0Fu, 0x08u, 0x70u, 0x30u, 0x73u, 0xA0u, 0x0Cu, 0x48u, 0x08u, 0x00u
 773:Generated_Source\PSoC5/cyfitter_cfg.c **** 			0x0Cu, 0x00u, 0x73u, 0x00u, 0x63u, 0xF8u, 0x00u, 0x00u, 0x04u, 0x06u, 0x00u, 0x00u, 0x00u, 0x50u
 774:Generated_Source\PSoC5/cyfitter_cfg.c **** 			0x60u, 0x00u, 0x1Cu, 0xC0u, 0x0Fu, 0x38u, 0x00u, 0x07u, 0x00u, 0x00u, 0x28u, 0x00u, 0x00u, 0x00u
 775:Generated_Source\PSoC5/cyfitter_cfg.c **** 			0x40u, 0x06u, 0x00u, 0x00u, 0x00u, 0x42u, 0xE0u, 0x0Cu, 0x1Fu, 0xFFu, 0xFFu, 0xFFu, 0x00u, 0xAFu
 776:Generated_Source\PSoC5/cyfitter_cfg.c **** 			0x18u, 0x00u, 0x00u, 0x00u, 0x00u, 0x00u, 0x08u, 0x00u, 0x04u, 0x04u, 0x04u, 0x04u, 0x00u, 0x99u
 777:Generated_Source\PSoC5/cyfitter_cfg.c **** 			0x40u, 0x00u, 0x80u, 0x00u, 0x40u, 0x40u, 0x80u, 0x00u, 0x40u, 0x00u, 0x50u, 0xA8u, 0x40u, 0x20u
 778:Generated_Source\PSoC5/cyfitter_cfg.c **** 			0x00u, 0x00u, 0x00u, 0x00u, 0x00u, 0x00u, 0x00u, 0x00u, 0x00u, 0x00u, 0x00u, 0x00u, 0x00u, 0x00u
 779:Generated_Source\PSoC5/cyfitter_cfg.c **** 
 780:Generated_Source\PSoC5/cyfitter_cfg.c **** 		/* UWRK_B0_WRK_STATCTL_BITS Address: CYDEV_UWRK_UWRK8_B0_BASE + 0x00000070u Size (bytes): 32 */
 781:Generated_Source\PSoC5/cyfitter_cfg.c **** 		static const uint8 CYCODE BS_UWRK_B0_WRK_STATCTL_BITS_VAL[] = {
 782:Generated_Source\PSoC5/cyfitter_cfg.c **** 			0x00u, 0x00u, 0x00u, 0x00u, 0x00u, 0x00u, 0x00u, 0x00u, 0x00u, 0x00u, 0x00u, 0x00u, 0x00u, 0x00u
 783:Generated_Source\PSoC5/cyfitter_cfg.c **** 			0x00u, 0x67u, 0x00u, 0x00u, 0x00u, 0x67u, 0x38u, 0x0Fu, 0x67u, 0x67u, 0x00u, 0x0Fu, 0x77u, 0x00u
 784:Generated_Source\PSoC5/cyfitter_cfg.c **** 
 785:Generated_Source\PSoC5/cyfitter_cfg.c **** 		/* UWRK_B1_WRK_STATCTL_BITS Address: CYDEV_UWRK_UWRK8_B1_BASE + 0x00000070u Size (bytes): 32 */
 786:Generated_Source\PSoC5/cyfitter_cfg.c **** 		static const uint8 CYCODE BS_UWRK_B1_WRK_STATCTL_BITS_VAL[] = {
 787:Generated_Source\PSoC5/cyfitter_cfg.c **** 			0x00u, 0x00u, 0x00u, 0x00u, 0x00u, 0x00u, 0x00u, 0x00u, 0x00u, 0x00u, 0x00u, 0x01u, 0x00u, 0x00u
 788:Generated_Source\PSoC5/cyfitter_cfg.c **** 			0x00u, 0x00u, 0x00u, 0x00u, 0x72u, 0x00u, 0x00u, 0x00u, 0x00u, 0x00u, 0x67u, 0x00u, 0x00u, 0x00u
 789:Generated_Source\PSoC5/cyfitter_cfg.c **** 
 790:Generated_Source\PSoC5/cyfitter_cfg.c **** 		/* UCFG_BCTL1 Address: CYREG_BCTL1_MDCLK_EN Size (bytes): 16 */
 791:Generated_Source\PSoC5/cyfitter_cfg.c **** 		static const uint8 CYCODE BS_UCFG_BCTL1_VAL[] = {
 792:Generated_Source\PSoC5/cyfitter_cfg.c **** 			0x27u, 0x01u, 0x00u, 0x00u, 0x00u, 0x00u, 0x00u, 0x00u, 0x00u, 0x00u, 0x27u, 0x01u, 0x21u, 0x01u
 793:Generated_Source\PSoC5/cyfitter_cfg.c **** 
 794:Generated_Source\PSoC5/cyfitter_cfg.c **** 		/* UCFG_BCTL0 Address: CYREG_BCTL0_MDCLK_EN Size (bytes): 16 */
 795:Generated_Source\PSoC5/cyfitter_cfg.c **** 		static const uint8 CYCODE BS_UCFG_BCTL0_VAL[] = {
 796:Generated_Source\PSoC5/cyfitter_cfg.c **** 			0x27u, 0x01u, 0x00u, 0x00u, 0x00u, 0x00u, 0x00u, 0x00u, 0x27u, 0x00u, 0x07u, 0x01u, 0x21u, 0x01u
 797:Generated_Source\PSoC5/cyfitter_cfg.c **** 
 798:Generated_Source\PSoC5/cyfitter_cfg.c **** 		/* DSISWITCH_0_0 Address: CYDEV_UCFG_DSI13_BASE Size (bytes): 128 */
 799:Generated_Source\PSoC5/cyfitter_cfg.c **** 		static const uint8 CYCODE BS_DSISWITCH_0_0_VAL[] = {
 800:Generated_Source\PSoC5/cyfitter_cfg.c **** 			0x00u, 0x00u, 0x00u, 0x00u, 0x00u, 0x00u, 0x00u, 0x00u, 0x00u, 0x00u, 0x00u, 0x00u, 0x00u, 0x00u
 801:Generated_Source\PSoC5/cyfitter_cfg.c **** 			0x80u, 0x00u, 0x00u, 0x00u, 0x00u, 0x00u, 0x00u, 0x00u, 0x00u, 0x00u, 0x00u, 0x00u, 0x00u, 0x00u
 802:Generated_Source\PSoC5/cyfitter_cfg.c **** 			0x00u, 0x00u, 0x00u, 0x00u, 0x00u, 0x00u, 0x00u, 0x00u, 0x00u, 0x00u, 0x00u, 0x00u, 0x00u, 0x00u
 803:Generated_Source\PSoC5/cyfitter_cfg.c **** 			0x00u, 0x00u, 0x00u, 0x00u, 0x00u, 0x00u, 0x00u, 0x00u, 0x00u, 0x00u, 0x00u, 0x00u, 0x00u, 0x00u
 804:Generated_Source\PSoC5/cyfitter_cfg.c **** 			0x00u, 0x00u, 0x00u, 0x00u, 0x00u, 0x00u, 0x00u, 0x00u, 0x00u, 0x00u, 0x00u, 0x00u, 0x00u, 0x00u
 805:Generated_Source\PSoC5/cyfitter_cfg.c **** 			0x00u, 0x00u, 0x00u, 0x00u, 0x00u, 0x00u, 0x00u, 0x00u, 0x00u, 0x00u, 0x00u, 0x00u, 0x00u, 0x00u
 806:Generated_Source\PSoC5/cyfitter_cfg.c **** 			0x00u, 0x00u, 0x00u, 0x00u, 0x00u, 0x00u, 0x00u, 0x00u, 0x00u, 0x00u, 0x00u, 0x00u, 0x00u, 0x00u
 807:Generated_Source\PSoC5/cyfitter_cfg.c **** 			0x00u, 0x00u, 0x00u, 0x00u, 0x00u, 0x02u, 0x00u, 0x00u, 0x00u, 0x00u, 0x00u, 0x00u, 0x00u, 0x00u
 808:Generated_Source\PSoC5/cyfitter_cfg.c **** 
 809:Generated_Source\PSoC5/cyfitter_cfg.c **** 		/* DSI0_0_HV_ROUTING Address: CYDEV_UCFG_DSI13_BASE + 0x00000080u Size (bytes): 128 */
 810:Generated_Source\PSoC5/cyfitter_cfg.c **** 		static const uint8 CYCODE BS_DSI0_0_HV_ROUTING_VAL[] = {
 811:Generated_Source\PSoC5/cyfitter_cfg.c **** 			0x00u, 0x00u, 0x00u, 0x00u, 0x00u, 0x00u, 0x00u, 0x00u, 0x80u, 0x00u, 0x00u, 0x00u, 0x00u, 0x00u
 812:Generated_Source\PSoC5/cyfitter_cfg.c **** 			0x00u, 0x00u, 0x00u, 0x00u, 0x00u, 0x00u, 0x00u, 0x00u, 0x00u, 0x02u, 0x00u, 0x00u, 0x00u, 0x00u
 813:Generated_Source\PSoC5/cyfitter_cfg.c **** 			0x00u, 0x00u, 0x00u, 0x00u, 0x00u, 0x00u, 0x00u, 0x00u, 0x00u, 0x00u, 0x00u, 0x20u, 0x80u, 0x00u
 814:Generated_Source\PSoC5/cyfitter_cfg.c **** 			0x00u, 0x02u, 0x00u, 0x00u, 0x10u, 0x01u, 0x04u, 0x00u, 0x00u, 0x00u, 0x00u, 0x00u, 0x00u, 0x00u
 815:Generated_Source\PSoC5/cyfitter_cfg.c **** 			0x00u, 0x00u, 0x00u, 0x00u, 0x08u, 0x00u, 0x00u, 0x00u, 0x00u, 0x00u, 0x00u, 0x00u, 0x00u, 0x00u
 816:Generated_Source\PSoC5/cyfitter_cfg.c **** 			0x00u, 0x00u, 0x00u, 0x00u, 0x00u, 0x00u, 0x00u, 0x00u, 0x00u, 0x00u, 0x00u, 0x00u, 0x00u, 0x00u
 817:Generated_Source\PSoC5/cyfitter_cfg.c **** 			0x00u, 0x00u, 0x00u, 0x00u, 0x00u, 0x00u, 0x01u, 0x00u, 0x09u, 0x00u, 0x02u, 0x00u, 0x02u, 0x00u
 818:Generated_Source\PSoC5/cyfitter_cfg.c **** 			0x00u, 0x00u, 0x00u, 0x00u, 0x00u, 0x00u, 0x00u, 0x00u, 0x00u, 0x00u, 0x00u, 0x00u, 0x00u, 0x00u
 819:Generated_Source\PSoC5/cyfitter_cfg.c **** 
 820:Generated_Source\PSoC5/cyfitter_cfg.c **** 		/* DSISWITCH_0_1 Address: CYDEV_UCFG_DSI12_BASE Size (bytes): 128 */
 821:Generated_Source\PSoC5/cyfitter_cfg.c **** 		static const uint8 CYCODE BS_DSISWITCH_0_1_VAL[] = {
 822:Generated_Source\PSoC5/cyfitter_cfg.c **** 			0x00u, 0x00u, 0x00u, 0x00u, 0x00u, 0x00u, 0x00u, 0x00u, 0x00u, 0x00u, 0x00u, 0x00u, 0x00u, 0x00u
 823:Generated_Source\PSoC5/cyfitter_cfg.c **** 			0x00u, 0x02u, 0x00u, 0x20u, 0x80u, 0x00u, 0x00u, 0x00u, 0x00u, 0x00u, 0x00u, 0x00u, 0x00u, 0x00u
ARM GAS  C:\Users\Bruger\AppData\Local\Temp\ccj0lDyf.s 			page 31


 824:Generated_Source\PSoC5/cyfitter_cfg.c **** 			0x00u, 0x00u, 0x00u, 0x00u, 0x00u, 0x00u, 0x00u, 0x00u, 0x00u, 0x00u, 0x00u, 0x00u, 0x00u, 0x00u
 825:Generated_Source\PSoC5/cyfitter_cfg.c **** 			0x00u, 0x00u, 0x00u, 0x00u, 0x00u, 0x00u, 0x00u, 0x00u, 0x00u, 0x00u, 0x00u, 0x00u, 0x00u, 0x00u
 826:Generated_Source\PSoC5/cyfitter_cfg.c **** 			0x00u, 0x00u, 0x00u, 0x00u, 0x00u, 0x00u, 0x00u, 0x00u, 0x00u, 0x00u, 0x00u, 0x00u, 0x00u, 0x00u
 827:Generated_Source\PSoC5/cyfitter_cfg.c **** 			0x00u, 0x00u, 0x00u, 0x00u, 0x00u, 0x00u, 0x00u, 0x00u, 0x00u, 0x00u, 0x00u, 0x00u, 0x00u, 0x00u
 828:Generated_Source\PSoC5/cyfitter_cfg.c **** 			0x40u, 0x00u, 0x00u, 0x00u, 0x00u, 0x01u, 0x00u, 0x00u, 0x00u, 0x00u, 0x00u, 0x00u, 0x00u, 0x00u
 829:Generated_Source\PSoC5/cyfitter_cfg.c **** 			0x00u, 0x00u, 0x00u, 0x00u, 0x00u, 0x00u, 0x00u, 0x00u, 0x00u, 0x08u, 0x00u, 0x00u, 0x10u, 0x00u
 830:Generated_Source\PSoC5/cyfitter_cfg.c **** 
 831:Generated_Source\PSoC5/cyfitter_cfg.c **** 		/* DSI0_1_HV_ROUTING Address: CYDEV_UCFG_DSI12_BASE + 0x00000080u Size (bytes): 128 */
 832:Generated_Source\PSoC5/cyfitter_cfg.c **** 		static const uint8 CYCODE BS_DSI0_1_HV_ROUTING_VAL[] = {
 833:Generated_Source\PSoC5/cyfitter_cfg.c **** 			0x00u, 0x20u, 0x00u, 0x00u, 0x00u, 0x00u, 0x00u, 0x00u, 0x40u, 0x04u, 0x00u, 0x00u, 0x00u, 0x01u
 834:Generated_Source\PSoC5/cyfitter_cfg.c **** 			0x40u, 0x00u, 0x00u, 0x00u, 0x00u, 0x00u, 0x00u, 0x00u, 0x00u, 0x00u, 0x00u, 0x00u, 0x00u, 0x00u
 835:Generated_Source\PSoC5/cyfitter_cfg.c **** 			0x00u, 0x00u, 0x00u, 0x00u, 0x40u, 0x20u, 0x00u, 0x00u, 0x00u, 0x00u, 0x00u, 0x00u, 0x00u, 0x00u
 836:Generated_Source\PSoC5/cyfitter_cfg.c **** 			0x00u, 0x00u, 0x00u, 0x00u, 0x00u, 0x00u, 0x00u, 0x00u, 0x00u, 0x00u, 0x00u, 0x00u, 0x00u, 0x00u
 837:Generated_Source\PSoC5/cyfitter_cfg.c **** 			0x00u, 0x00u, 0x01u, 0x00u, 0x0Eu, 0x00u, 0x00u, 0x00u, 0x00u, 0x00u, 0x00u, 0x00u, 0x00u, 0x00u
 838:Generated_Source\PSoC5/cyfitter_cfg.c **** 			0x00u, 0x00u, 0x00u, 0x00u, 0x00u, 0x00u, 0x00u, 0x00u, 0x03u, 0x00u, 0x00u, 0x00u, 0x00u, 0x00u
 839:Generated_Source\PSoC5/cyfitter_cfg.c **** 			0x00u, 0x00u, 0x08u, 0x00u, 0x05u, 0x00u, 0x00u, 0x00u, 0x00u, 0x00u, 0x00u, 0x00u, 0x00u, 0x00u
 840:Generated_Source\PSoC5/cyfitter_cfg.c **** 			0x00u, 0x00u, 0x00u, 0x00u, 0x00u, 0x00u, 0x00u, 0x00u, 0x00u, 0x00u, 0x00u, 0x00u, 0x00u, 0x00u
 841:Generated_Source\PSoC5/cyfitter_cfg.c **** 
 842:Generated_Source\PSoC5/cyfitter_cfg.c **** 		/* DSISWITCH_0_2 Address: CYDEV_UCFG_DSI7_BASE Size (bytes): 128 */
 843:Generated_Source\PSoC5/cyfitter_cfg.c **** 		static const uint8 CYCODE BS_DSISWITCH_0_2_VAL[] = {
 844:Generated_Source\PSoC5/cyfitter_cfg.c **** 			0x00u, 0x00u, 0x00u, 0x00u, 0x00u, 0x00u, 0x00u, 0x00u, 0x80u, 0x00u, 0x10u, 0x00u, 0x00u, 0x00u
 845:Generated_Source\PSoC5/cyfitter_cfg.c **** 			0x00u, 0x00u, 0x00u, 0x00u, 0x00u, 0x00u, 0x00u, 0x00u, 0x00u, 0x00u, 0x00u, 0x00u, 0x00u, 0x00u
 846:Generated_Source\PSoC5/cyfitter_cfg.c **** 			0x00u, 0x00u, 0x00u, 0x00u, 0x00u, 0x00u, 0x00u, 0x00u, 0x00u, 0x00u, 0x00u, 0x00u, 0x00u, 0x00u
 847:Generated_Source\PSoC5/cyfitter_cfg.c **** 			0x00u, 0x00u, 0x00u, 0x00u, 0x00u, 0x00u, 0x00u, 0x00u, 0x00u, 0x00u, 0x00u, 0x00u, 0x00u, 0x00u
 848:Generated_Source\PSoC5/cyfitter_cfg.c **** 			0x00u, 0x00u, 0x00u, 0x00u, 0x00u, 0x20u, 0x00u, 0x00u, 0x00u, 0x00u, 0x00u, 0x00u, 0x00u, 0x00u
 849:Generated_Source\PSoC5/cyfitter_cfg.c **** 			0x00u, 0x00u, 0x00u, 0x00u, 0x00u, 0x00u, 0x00u, 0x00u, 0x00u, 0x00u, 0x00u, 0x00u, 0x00u, 0x00u
 850:Generated_Source\PSoC5/cyfitter_cfg.c **** 			0x00u, 0x00u, 0x00u, 0x00u, 0x00u, 0x00u, 0x00u, 0x00u, 0x00u, 0x00u, 0x00u, 0x00u, 0x00u, 0x00u
 851:Generated_Source\PSoC5/cyfitter_cfg.c **** 			0x00u, 0x00u, 0x00u, 0x00u, 0x00u, 0x00u, 0x00u, 0x00u, 0x00u, 0x00u, 0x00u, 0x00u, 0x00u, 0x00u
 852:Generated_Source\PSoC5/cyfitter_cfg.c **** 
 853:Generated_Source\PSoC5/cyfitter_cfg.c **** 		/* DSI0_2_HV_ROUTING Address: CYDEV_UCFG_DSI7_BASE + 0x00000080u Size (bytes): 128 */
 854:Generated_Source\PSoC5/cyfitter_cfg.c **** 		static const uint8 CYCODE BS_DSI0_2_HV_ROUTING_VAL[] = {
 855:Generated_Source\PSoC5/cyfitter_cfg.c **** 			0x00u, 0x00u, 0x00u, 0x00u, 0x00u, 0x00u, 0x00u, 0x00u, 0x00u, 0x00u, 0x00u, 0x00u, 0x00u, 0x00u
 856:Generated_Source\PSoC5/cyfitter_cfg.c **** 			0x40u, 0x00u, 0x00u, 0x00u, 0x00u, 0x00u, 0x10u, 0x10u, 0x00u, 0x00u, 0x00u, 0x00u, 0x80u, 0x00u
 857:Generated_Source\PSoC5/cyfitter_cfg.c **** 			0x00u, 0x00u, 0x00u, 0x00u, 0x40u, 0x00u, 0x00u, 0x00u, 0x00u, 0x00u, 0x00u, 0x00u, 0x80u, 0x00u
 858:Generated_Source\PSoC5/cyfitter_cfg.c **** 			0x00u, 0x00u, 0x00u, 0x00u, 0x00u, 0x00u, 0x00u, 0x00u, 0x00u, 0x00u, 0x00u, 0x00u, 0x00u, 0x00u
 859:Generated_Source\PSoC5/cyfitter_cfg.c **** 			0x00u, 0x00u, 0x0Eu, 0x00u, 0x00u, 0x00u, 0x00u, 0x00u, 0x00u, 0x00u, 0x00u, 0x00u, 0x00u, 0x00u
 860:Generated_Source\PSoC5/cyfitter_cfg.c **** 			0x04u, 0x00u, 0x00u, 0x00u, 0x00u, 0x00u, 0x00u, 0x00u, 0x00u, 0x00u, 0x00u, 0x00u, 0x00u, 0x00u
 861:Generated_Source\PSoC5/cyfitter_cfg.c **** 			0x00u, 0x00u, 0x00u, 0x00u, 0x00u, 0x00u, 0x00u, 0x00u, 0x00u, 0x00u, 0x00u, 0x00u, 0x00u, 0x00u
 862:Generated_Source\PSoC5/cyfitter_cfg.c **** 			0x00u, 0x00u, 0x00u, 0x00u, 0x00u, 0x00u, 0x00u, 0x00u, 0x00u, 0x00u, 0x00u, 0x00u, 0x00u, 0x00u
 863:Generated_Source\PSoC5/cyfitter_cfg.c **** 
 864:Generated_Source\PSoC5/cyfitter_cfg.c **** 		/* DSISWITCH_0_3 Address: CYDEV_UCFG_DSI6_BASE Size (bytes): 128 */
 865:Generated_Source\PSoC5/cyfitter_cfg.c **** 		static const uint8 CYCODE BS_DSISWITCH_0_3_VAL[] = {
 866:Generated_Source\PSoC5/cyfitter_cfg.c **** 			0x00u, 0x00u, 0x00u, 0x00u, 0x00u, 0x00u, 0x00u, 0x00u, 0x00u, 0x00u, 0x00u, 0x00u, 0x00u, 0x00u
 867:Generated_Source\PSoC5/cyfitter_cfg.c **** 			0x00u, 0x00u, 0x00u, 0x00u, 0x00u, 0x00u, 0x00u, 0x00u, 0x00u, 0x00u, 0x80u, 0x00u, 0x00u, 0x00u
 868:Generated_Source\PSoC5/cyfitter_cfg.c **** 			0x00u, 0x00u, 0x00u, 0x00u, 0x00u, 0x00u, 0x00u, 0x00u, 0x00u, 0x00u, 0x00u, 0x00u, 0x00u, 0x00u
 869:Generated_Source\PSoC5/cyfitter_cfg.c **** 			0x00u, 0x00u, 0x00u, 0x00u, 0x00u, 0x00u, 0x00u, 0x00u, 0x00u, 0x00u, 0x00u, 0x00u, 0x00u, 0x00u
 870:Generated_Source\PSoC5/cyfitter_cfg.c **** 			0x00u, 0x00u, 0x00u, 0x00u, 0x00u, 0x00u, 0x00u, 0x00u, 0x00u, 0x00u, 0x00u, 0x00u, 0x00u, 0x00u
 871:Generated_Source\PSoC5/cyfitter_cfg.c **** 			0x00u, 0x00u, 0x00u, 0x00u, 0x00u, 0x00u, 0x00u, 0x00u, 0x00u, 0x00u, 0x00u, 0x00u, 0x00u, 0x00u
 872:Generated_Source\PSoC5/cyfitter_cfg.c **** 			0x00u, 0x00u, 0x00u, 0x00u, 0x00u, 0x00u, 0x00u, 0x00u, 0x00u, 0x00u, 0x00u, 0x00u, 0x00u, 0x00u
 873:Generated_Source\PSoC5/cyfitter_cfg.c **** 			0x00u, 0x00u, 0x00u, 0x00u, 0x00u, 0x00u, 0x00u, 0x00u, 0x00u, 0x00u, 0x00u, 0x00u, 0x00u, 0x00u
 874:Generated_Source\PSoC5/cyfitter_cfg.c **** 
 875:Generated_Source\PSoC5/cyfitter_cfg.c **** 		/* DSI0_3_HV_ROUTING Address: CYDEV_UCFG_DSI6_BASE + 0x00000080u Size (bytes): 128 */
 876:Generated_Source\PSoC5/cyfitter_cfg.c **** 		static const uint8 CYCODE BS_DSI0_3_HV_ROUTING_VAL[] = {
 877:Generated_Source\PSoC5/cyfitter_cfg.c **** 			0x40u, 0x00u, 0x00u, 0x00u, 0x00u, 0x00u, 0x00u, 0x00u, 0x00u, 0x00u, 0x00u, 0x00u, 0x00u, 0x00u
 878:Generated_Source\PSoC5/cyfitter_cfg.c **** 			0x00u, 0x00u, 0x00u, 0x00u, 0x00u, 0x00u, 0x10u, 0x10u, 0x00u, 0x00u, 0x00u, 0x00u, 0x00u, 0x00u
 879:Generated_Source\PSoC5/cyfitter_cfg.c **** 			0x00u, 0x00u, 0x00u, 0x00u, 0x40u, 0x00u, 0x00u, 0x00u, 0x00u, 0x00u, 0x10u, 0x00u, 0x00u, 0x00u
 880:Generated_Source\PSoC5/cyfitter_cfg.c **** 			0x00u, 0x00u, 0x00u, 0x00u, 0x00u, 0x08u, 0x00u, 0x00u, 0x00u, 0x00u, 0x00u, 0x00u, 0x00u, 0x00u
ARM GAS  C:\Users\Bruger\AppData\Local\Temp\ccj0lDyf.s 			page 32


 881:Generated_Source\PSoC5/cyfitter_cfg.c **** 			0x00u, 0x00u, 0x00u, 0x00u, 0x00u, 0x00u, 0x08u, 0x00u, 0x00u, 0x00u, 0x00u, 0x00u, 0x00u, 0x00u
 882:Generated_Source\PSoC5/cyfitter_cfg.c **** 			0x00u, 0x00u, 0x00u, 0x00u, 0x00u, 0x00u, 0x00u, 0x00u, 0x00u, 0x00u, 0x00u, 0x00u, 0x00u, 0x00u
 883:Generated_Source\PSoC5/cyfitter_cfg.c **** 			0x00u, 0x00u, 0x08u, 0x00u, 0x00u, 0x00u, 0x00u, 0x00u, 0x00u, 0x00u, 0x02u, 0x00u, 0x00u, 0x00u
 884:Generated_Source\PSoC5/cyfitter_cfg.c **** 			0x00u, 0x00u, 0x00u, 0x00u, 0x00u, 0x00u, 0x00u, 0x00u, 0x00u, 0x00u, 0x00u, 0x00u, 0x00u, 0x00u
 885:Generated_Source\PSoC5/cyfitter_cfg.c **** 
 886:Generated_Source\PSoC5/cyfitter_cfg.c **** 		/* DSISWITCH_0_4 Address: CYDEV_UCFG_DSI5_BASE Size (bytes): 128 */
 887:Generated_Source\PSoC5/cyfitter_cfg.c **** 		static const uint8 CYCODE BS_DSISWITCH_0_4_VAL[] = {
 888:Generated_Source\PSoC5/cyfitter_cfg.c **** 			0x00u, 0x08u, 0x00u, 0x00u, 0x00u, 0x00u, 0x00u, 0x00u, 0x00u, 0x00u, 0x00u, 0x00u, 0x00u, 0x00u
 889:Generated_Source\PSoC5/cyfitter_cfg.c **** 			0x00u, 0x00u, 0x00u, 0x00u, 0x00u, 0x00u, 0x00u, 0x00u, 0x00u, 0x00u, 0x00u, 0x00u, 0x00u, 0x00u
 890:Generated_Source\PSoC5/cyfitter_cfg.c **** 			0x00u, 0x00u, 0x00u, 0x00u, 0x00u, 0x00u, 0x00u, 0x00u, 0x00u, 0x00u, 0x00u, 0x00u, 0x00u, 0x00u
 891:Generated_Source\PSoC5/cyfitter_cfg.c **** 			0x00u, 0x00u, 0x00u, 0x00u, 0x00u, 0x00u, 0x00u, 0x00u, 0x00u, 0x00u, 0x00u, 0x00u, 0x00u, 0x00u
 892:Generated_Source\PSoC5/cyfitter_cfg.c **** 			0x00u, 0x00u, 0x00u, 0x00u, 0x00u, 0x00u, 0x00u, 0x00u, 0x00u, 0x00u, 0x00u, 0x00u, 0x00u, 0x00u
 893:Generated_Source\PSoC5/cyfitter_cfg.c **** 			0x00u, 0x00u, 0x00u, 0x00u, 0x40u, 0x00u, 0x00u, 0x00u, 0x00u, 0x00u, 0x01u, 0x00u, 0x00u, 0x00u
 894:Generated_Source\PSoC5/cyfitter_cfg.c **** 			0x00u, 0x00u, 0x00u, 0x00u, 0x00u, 0x00u, 0x01u, 0x00u, 0x00u, 0x00u, 0x00u, 0x00u, 0x00u, 0x00u
 895:Generated_Source\PSoC5/cyfitter_cfg.c **** 			0x00u, 0x00u, 0x00u, 0x00u, 0x00u, 0x00u, 0x00u, 0x00u, 0x00u, 0x00u, 0x00u, 0x00u, 0x00u, 0x00u
 896:Generated_Source\PSoC5/cyfitter_cfg.c **** 
 897:Generated_Source\PSoC5/cyfitter_cfg.c **** 		/* DSI0_4_HV_ROUTING Address: CYDEV_UCFG_DSI5_BASE + 0x00000080u Size (bytes): 128 */
 898:Generated_Source\PSoC5/cyfitter_cfg.c **** 		static const uint8 CYCODE BS_DSI0_4_HV_ROUTING_VAL[] = {
 899:Generated_Source\PSoC5/cyfitter_cfg.c **** 			0x00u, 0x00u, 0x00u, 0x00u, 0x00u, 0x00u, 0x01u, 0x00u, 0x00u, 0x00u, 0x00u, 0x00u, 0x00u, 0x00u
 900:Generated_Source\PSoC5/cyfitter_cfg.c **** 			0x00u, 0x00u, 0x00u, 0x00u, 0x00u, 0x00u, 0x00u, 0x00u, 0x00u, 0x00u, 0x01u, 0x00u, 0x00u, 0x00u
 901:Generated_Source\PSoC5/cyfitter_cfg.c **** 			0x00u, 0x00u, 0x00u, 0x00u, 0x00u, 0x00u, 0x00u, 0x00u, 0x00u, 0x00u, 0x00u, 0x00u, 0x00u, 0x00u
 902:Generated_Source\PSoC5/cyfitter_cfg.c **** 			0x00u, 0x00u, 0x00u, 0x00u, 0x00u, 0x00u, 0x00u, 0x00u, 0x00u, 0x00u, 0x00u, 0x00u, 0x00u, 0x00u
 903:Generated_Source\PSoC5/cyfitter_cfg.c **** 			0x08u, 0x00u, 0x00u, 0x00u, 0x00u, 0x00u, 0x00u, 0x00u, 0x00u, 0x00u, 0x00u, 0x00u, 0x00u, 0x00u
 904:Generated_Source\PSoC5/cyfitter_cfg.c **** 			0x00u, 0x00u, 0x00u, 0x00u, 0x02u, 0x00u, 0x02u, 0x00u, 0x01u, 0x00u, 0x00u, 0x00u, 0x00u, 0x00u
 905:Generated_Source\PSoC5/cyfitter_cfg.c **** 			0x00u, 0x00u, 0x00u, 0x00u, 0x00u, 0x00u, 0x00u, 0x00u, 0x00u, 0x00u, 0x00u, 0x00u, 0x00u, 0x00u
 906:Generated_Source\PSoC5/cyfitter_cfg.c **** 			0x00u, 0x00u, 0x00u, 0x00u, 0x00u, 0x00u, 0x00u, 0x00u, 0x00u, 0x00u, 0x00u, 0x00u, 0x00u, 0x00u
 907:Generated_Source\PSoC5/cyfitter_cfg.c **** 
 908:Generated_Source\PSoC5/cyfitter_cfg.c **** 		/* DSI0_5_HV_ROUTING Address: CYDEV_UCFG_DSI4_BASE + 0x00000080u Size (bytes): 128 */
 909:Generated_Source\PSoC5/cyfitter_cfg.c **** 		static const uint8 CYCODE BS_DSI0_5_HV_ROUTING_VAL[] = {
 910:Generated_Source\PSoC5/cyfitter_cfg.c **** 			0x00u, 0x00u, 0x00u, 0x00u, 0x00u, 0x00u, 0x00u, 0x00u, 0x00u, 0x00u, 0x00u, 0x00u, 0x00u, 0x00u
 911:Generated_Source\PSoC5/cyfitter_cfg.c **** 			0x00u, 0x00u, 0x00u, 0x00u, 0x00u, 0x00u, 0x00u, 0x00u, 0x00u, 0x00u, 0x00u, 0x00u, 0x00u, 0x00u
 912:Generated_Source\PSoC5/cyfitter_cfg.c **** 			0x00u, 0x00u, 0x00u, 0x00u, 0x00u, 0x00u, 0x00u, 0x00u, 0x00u, 0x00u, 0x00u, 0x00u, 0x00u, 0x00u
 913:Generated_Source\PSoC5/cyfitter_cfg.c **** 			0x00u, 0x00u, 0x00u, 0x00u, 0x00u, 0x00u, 0x00u, 0x00u, 0x00u, 0x00u, 0x00u, 0x00u, 0x00u, 0x00u
 914:Generated_Source\PSoC5/cyfitter_cfg.c **** 			0x00u, 0x00u, 0x00u, 0x00u, 0x00u, 0x00u, 0x00u, 0x00u, 0x00u, 0x00u, 0x00u, 0x00u, 0x00u, 0x00u
 915:Generated_Source\PSoC5/cyfitter_cfg.c **** 			0x00u, 0x00u, 0x00u, 0x00u, 0x00u, 0x00u, 0x00u, 0x00u, 0x00u, 0x00u, 0x00u, 0x00u, 0x00u, 0x00u
 916:Generated_Source\PSoC5/cyfitter_cfg.c **** 			0x00u, 0x00u, 0x00u, 0x00u, 0x02u, 0x00u, 0x00u, 0x00u, 0x00u, 0x00u, 0x00u, 0x00u, 0x00u, 0x00u
 917:Generated_Source\PSoC5/cyfitter_cfg.c **** 			0x00u, 0x00u, 0x00u, 0x00u, 0x00u, 0x00u, 0x00u, 0x00u, 0x00u, 0x00u, 0x00u, 0x00u, 0x00u, 0x00u
 918:Generated_Source\PSoC5/cyfitter_cfg.c **** 
 919:Generated_Source\PSoC5/cyfitter_cfg.c **** 		/* UDBSWITCH_0_0 Address: CYDEV_UCFG_B1_P5_ROUTE_BASE Size (bytes): 128 */
 920:Generated_Source\PSoC5/cyfitter_cfg.c **** 		static const uint8 CYCODE BS_UDBSWITCH_0_0_VAL[] = {
 921:Generated_Source\PSoC5/cyfitter_cfg.c **** 			0x00u, 0x00u, 0x00u, 0x00u, 0x01u, 0x80u, 0x00u, 0x28u, 0x00u, 0x80u, 0x00u, 0x00u, 0x40u, 0x00u
 922:Generated_Source\PSoC5/cyfitter_cfg.c **** 			0x80u, 0x00u, 0x00u, 0x00u, 0x80u, 0x00u, 0x00u, 0x14u, 0x00u, 0x40u, 0x00u, 0x00u, 0x00u, 0x00u
 923:Generated_Source\PSoC5/cyfitter_cfg.c **** 			0x00u, 0x80u, 0x05u, 0x00u, 0x08u, 0x00u, 0x80u, 0x24u, 0x00u, 0x00u, 0x80u, 0x00u, 0x20u, 0x80u
 924:Generated_Source\PSoC5/cyfitter_cfg.c **** 			0x80u, 0x00u, 0x01u, 0x00u, 0x00u, 0x00u, 0x00u, 0x25u, 0x00u, 0x00u, 0x02u, 0x02u, 0x80u, 0x00u
 925:Generated_Source\PSoC5/cyfitter_cfg.c **** 			0x40u, 0x00u, 0x00u, 0x00u, 0x00u, 0x02u, 0x00u, 0x00u, 0x00u, 0x00u, 0x00u, 0x10u, 0x80u, 0x00u
 926:Generated_Source\PSoC5/cyfitter_cfg.c **** 			0x00u, 0x00u, 0x00u, 0x00u, 0x00u, 0x00u, 0x80u, 0x14u, 0x00u, 0x40u, 0x28u, 0x00u, 0x00u, 0x40u
 927:Generated_Source\PSoC5/cyfitter_cfg.c **** 			0x00u, 0x00u, 0x00u, 0x28u, 0x00u, 0x00u, 0x40u, 0x00u, 0x00u, 0x00u, 0x00u, 0x00u, 0x02u, 0x00u
 928:Generated_Source\PSoC5/cyfitter_cfg.c **** 			0x00u, 0x00u, 0x00u, 0x00u, 0x00u, 0x00u, 0x00u, 0x00u, 0x00u, 0x00u, 0x00u, 0x00u, 0x00u, 0x00u
 929:Generated_Source\PSoC5/cyfitter_cfg.c **** 
 930:Generated_Source\PSoC5/cyfitter_cfg.c **** 		/* UDB_1_0_HV_ROUTING Address: CYDEV_UCFG_B1_P5_ROUTE_BASE + 0x00000080u Size (bytes): 128 */
 931:Generated_Source\PSoC5/cyfitter_cfg.c **** 		static const uint8 CYCODE BS_UDB_1_0_HV_ROUTING_VAL[] = {
 932:Generated_Source\PSoC5/cyfitter_cfg.c **** 			0x01u, 0x00u, 0x00u, 0x30u, 0x60u, 0x00u, 0x00u, 0x40u, 0x80u, 0x80u, 0x10u, 0x01u, 0x24u, 0x40u
 933:Generated_Source\PSoC5/cyfitter_cfg.c **** 			0x40u, 0x00u, 0x01u, 0x10u, 0x00u, 0x00u, 0x00u, 0x00u, 0x20u, 0x00u, 0x28u, 0x00u, 0x00u, 0x80u
 934:Generated_Source\PSoC5/cyfitter_cfg.c **** 			0x40u, 0x02u, 0x00u, 0x00u, 0x02u, 0x00u, 0x80u, 0x00u, 0x00u, 0x00u, 0x00u, 0x00u, 0x00u, 0x00u
 935:Generated_Source\PSoC5/cyfitter_cfg.c **** 			0x00u, 0x00u, 0x00u, 0x00u, 0x11u, 0x00u, 0x00u, 0x00u, 0x00u, 0x00u, 0x00u, 0x00u, 0x00u, 0x00u
 936:Generated_Source\PSoC5/cyfitter_cfg.c **** 			0xF0u, 0x00u, 0xF1u, 0x00u, 0x78u, 0x00u, 0x00u, 0x00u, 0x00u, 0x00u, 0x78u, 0x00u, 0xE9u, 0x00u
 937:Generated_Source\PSoC5/cyfitter_cfg.c **** 			0x81u, 0x00u, 0x24u, 0x00u, 0x00u, 0x00u, 0x1Eu, 0x00u, 0x16u, 0x00u, 0x00u, 0x00u, 0x00u, 0x00u
ARM GAS  C:\Users\Bruger\AppData\Local\Temp\ccj0lDyf.s 			page 33


 938:Generated_Source\PSoC5/cyfitter_cfg.c **** 			0x20u, 0x00u, 0x90u, 0x00u, 0x60u, 0x00u, 0x90u, 0x00u, 0x90u, 0x00u, 0x41u, 0x00u, 0x00u, 0x00u
 939:Generated_Source\PSoC5/cyfitter_cfg.c **** 			0x00u, 0x00u, 0x00u, 0x00u, 0x00u, 0x00u, 0x00u, 0x00u, 0x00u, 0x00u, 0x00u, 0x00u, 0x00u, 0x00u
 940:Generated_Source\PSoC5/cyfitter_cfg.c **** 
 941:Generated_Source\PSoC5/cyfitter_cfg.c **** 		/* UDBSWITCH_1_0 Address: CYDEV_UCFG_B1_P2_ROUTE_BASE Size (bytes): 128 */
 942:Generated_Source\PSoC5/cyfitter_cfg.c **** 		static const uint8 CYCODE BS_UDBSWITCH_1_0_VAL[] = {
 943:Generated_Source\PSoC5/cyfitter_cfg.c **** 			0x11u, 0x40u, 0x00u, 0x20u, 0x00u, 0x00u, 0x00u, 0x00u, 0x40u, 0x00u, 0x04u, 0x40u, 0x00u, 0x00u
 944:Generated_Source\PSoC5/cyfitter_cfg.c **** 			0x24u, 0x00u, 0x00u, 0x02u, 0x80u, 0x00u, 0x60u, 0x08u, 0x00u, 0x08u, 0x00u, 0x12u, 0x00u, 0x00u
 945:Generated_Source\PSoC5/cyfitter_cfg.c **** 			0x00u, 0xC0u, 0x06u, 0x40u, 0x00u, 0x00u, 0x00u, 0x08u, 0x44u, 0x09u, 0x08u, 0x01u, 0x00u, 0x00u
 946:Generated_Source\PSoC5/cyfitter_cfg.c **** 			0x80u, 0x00u, 0x22u, 0x00u, 0x00u, 0x00u, 0x00u, 0x00u, 0x2Au, 0x00u, 0x00u, 0x00u, 0x20u, 0x00u
 947:Generated_Source\PSoC5/cyfitter_cfg.c **** 			0x00u, 0x10u, 0x00u, 0x00u, 0x40u, 0x80u, 0x08u, 0x00u, 0x00u, 0x00u, 0x00u, 0x08u, 0x01u, 0x04u
 948:Generated_Source\PSoC5/cyfitter_cfg.c **** 			0x00u, 0x00u, 0x01u, 0x00u, 0x10u, 0x00u, 0x00u, 0x00u, 0x00u, 0x00u, 0x08u, 0x00u, 0x80u, 0x00u
 949:Generated_Source\PSoC5/cyfitter_cfg.c **** 			0x00u, 0x00u, 0x00u, 0x00u, 0x00u, 0x00u, 0x00u, 0x01u, 0x28u, 0x00u, 0x00u, 0x02u, 0x00u, 0x00u
 950:Generated_Source\PSoC5/cyfitter_cfg.c **** 			0x94u, 0x00u, 0x02u, 0x20u, 0x00u, 0x00u, 0x00u, 0x00u, 0x00u, 0x00u, 0x00u, 0x00u, 0x00u, 0x00u
 951:Generated_Source\PSoC5/cyfitter_cfg.c **** 
 952:Generated_Source\PSoC5/cyfitter_cfg.c **** 		/* UDB_2_0_HV_ROUTING Address: CYDEV_UCFG_B1_P2_ROUTE_BASE + 0x00000080u Size (bytes): 128 */
 953:Generated_Source\PSoC5/cyfitter_cfg.c **** 		static const uint8 CYCODE BS_UDB_2_0_HV_ROUTING_VAL[] = {
 954:Generated_Source\PSoC5/cyfitter_cfg.c **** 			0x11u, 0x40u, 0x00u, 0x20u, 0x08u, 0x00u, 0x0Eu, 0x00u, 0x24u, 0x00u, 0x00u, 0x61u, 0x11u, 0x01u
 955:Generated_Source\PSoC5/cyfitter_cfg.c **** 			0x00u, 0x20u, 0x00u, 0x00u, 0x00u, 0x84u, 0x00u, 0x09u, 0x00u, 0x01u, 0x40u, 0x00u, 0x00u, 0x00u
 956:Generated_Source\PSoC5/cyfitter_cfg.c **** 			0x00u, 0x00u, 0x20u, 0x00u, 0x00u, 0x00u, 0x00u, 0x00u, 0x00u, 0x00u, 0x00u, 0x00u, 0x00u, 0x00u
 957:Generated_Source\PSoC5/cyfitter_cfg.c **** 			0x00u, 0x00u, 0x04u, 0x00u, 0x00u, 0x00u, 0xC0u, 0x00u, 0x00u, 0x00u, 0x00u, 0x00u, 0x00u, 0x00u
 958:Generated_Source\PSoC5/cyfitter_cfg.c **** 			0x0Fu, 0x00u, 0x0Bu, 0x00u, 0x0Eu, 0x00u, 0x00u, 0x00u, 0x00u, 0x00u, 0x1Fu, 0x00u, 0x0Du, 0x00u
 959:Generated_Source\PSoC5/cyfitter_cfg.c **** 			0xB4u, 0x00u, 0x30u, 0x00u, 0x00u, 0x00u, 0x12u, 0x00u, 0x10u, 0x00u, 0x00u, 0x00u, 0x00u, 0x00u
 960:Generated_Source\PSoC5/cyfitter_cfg.c **** 			0x07u, 0x00u, 0x00u, 0x00u, 0x0Au, 0x00u, 0x04u, 0x00u, 0x10u, 0x00u, 0x01u, 0x00u, 0x00u, 0x00u
 961:Generated_Source\PSoC5/cyfitter_cfg.c **** 			0x00u, 0x00u, 0x00u, 0x00u, 0x00u, 0x00u, 0x00u, 0x00u, 0x00u, 0x00u, 0x00u, 0x00u, 0x00u, 0x00u
 962:Generated_Source\PSoC5/cyfitter_cfg.c **** 
 963:Generated_Source\PSoC5/cyfitter_cfg.c **** 		/* UDBSWITCH_0_1 Address: CYDEV_UCFG_B1_P4_ROUTE_BASE Size (bytes): 128 */
 964:Generated_Source\PSoC5/cyfitter_cfg.c **** 		static const uint8 CYCODE BS_UDBSWITCH_0_1_VAL[] = {
 965:Generated_Source\PSoC5/cyfitter_cfg.c **** 			0x06u, 0x00u, 0x00u, 0x00u, 0x00u, 0x01u, 0x28u, 0x02u, 0x04u, 0x20u, 0x02u, 0x00u, 0x00u, 0x40u
 966:Generated_Source\PSoC5/cyfitter_cfg.c **** 			0x08u, 0x00u, 0x00u, 0x00u, 0x10u, 0x20u, 0x40u, 0x41u, 0x24u, 0x10u, 0x00u, 0x01u, 0x40u, 0x02u
 967:Generated_Source\PSoC5/cyfitter_cfg.c **** 			0x08u, 0x00u, 0x00u, 0x00u, 0x01u, 0x40u, 0x22u, 0x20u, 0x00u, 0x80u, 0x00u, 0x00u, 0x20u, 0x00u
 968:Generated_Source\PSoC5/cyfitter_cfg.c **** 			0x00u, 0x00u, 0x00u, 0x00u, 0x02u, 0x00u, 0x88u, 0x20u, 0x00u, 0x00u, 0x00u, 0x00u, 0x00u, 0x02u
 969:Generated_Source\PSoC5/cyfitter_cfg.c **** 			0x00u, 0x02u, 0x00u, 0x00u, 0x20u, 0x02u, 0x00u, 0x08u, 0x00u, 0x00u, 0x00u, 0x10u, 0x04u, 0x00u
 970:Generated_Source\PSoC5/cyfitter_cfg.c **** 			0x00u, 0x00u, 0x00u, 0x00u, 0x00u, 0x00u, 0x00u, 0x00u, 0x00u, 0x00u, 0x00u, 0x00u, 0x20u, 0x00u
 971:Generated_Source\PSoC5/cyfitter_cfg.c **** 			0x00u, 0x00u, 0x00u, 0x00u, 0x12u, 0x20u, 0x00u, 0x00u, 0x00u, 0x00u, 0x00u, 0x00u, 0x00u, 0x00u
 972:Generated_Source\PSoC5/cyfitter_cfg.c **** 			0x00u, 0x00u, 0x00u, 0x40u, 0x00u, 0x00u, 0x00u, 0x40u, 0x00u, 0x00u, 0x00u, 0x00u, 0x00u, 0x00u
 973:Generated_Source\PSoC5/cyfitter_cfg.c **** 
 974:Generated_Source\PSoC5/cyfitter_cfg.c **** 		/* UDB_1_1_HV_ROUTING Address: CYDEV_UCFG_B1_P4_ROUTE_BASE + 0x00000080u Size (bytes): 128 */
 975:Generated_Source\PSoC5/cyfitter_cfg.c **** 		static const uint8 CYCODE BS_UDB_1_1_HV_ROUTING_VAL[] = {
 976:Generated_Source\PSoC5/cyfitter_cfg.c **** 			0x00u, 0x40u, 0x08u, 0x00u, 0x44u, 0x10u, 0x00u, 0x08u, 0x00u, 0x00u, 0x02u, 0x08u, 0x20u, 0x00u
 977:Generated_Source\PSoC5/cyfitter_cfg.c **** 			0x08u, 0x80u, 0x02u, 0x00u, 0x03u, 0x40u, 0x00u, 0x00u, 0x04u, 0x01u, 0x20u, 0x02u, 0x00u, 0x30u
 978:Generated_Source\PSoC5/cyfitter_cfg.c **** 			0x09u, 0x21u, 0x0Cu, 0x00u, 0x02u, 0x40u, 0x20u, 0x01u, 0x04u, 0x80u, 0x0Eu, 0x00u, 0x02u, 0x01u
 979:Generated_Source\PSoC5/cyfitter_cfg.c **** 			0x00u, 0x00u, 0x00u, 0x06u, 0x00u, 0x14u, 0x08u, 0x08u, 0x00u, 0x00u, 0x00u, 0x00u, 0x00u, 0x00u
 980:Generated_Source\PSoC5/cyfitter_cfg.c **** 			0xFCu, 0x00u, 0xE7u, 0x00u, 0xF2u, 0x00u, 0x00u, 0x00u, 0x00u, 0x00u, 0xE8u, 0x00u, 0xF0u, 0x00u
 981:Generated_Source\PSoC5/cyfitter_cfg.c **** 			0x81u, 0x00u, 0x24u, 0x00u, 0x00u, 0x00u, 0x70u, 0x00u, 0x70u, 0x00u, 0x00u, 0x00u, 0x00u, 0x00u
 982:Generated_Source\PSoC5/cyfitter_cfg.c **** 			0x24u, 0x00u, 0x50u, 0x00u, 0xD0u, 0x00u, 0x00u, 0x00u, 0x10u, 0x00u, 0x40u, 0x00u, 0x40u, 0x00u
 983:Generated_Source\PSoC5/cyfitter_cfg.c **** 			0x00u, 0x00u, 0x00u, 0x00u, 0x00u, 0x00u, 0x00u, 0x00u, 0x00u, 0x00u, 0x00u, 0x00u, 0x00u, 0x00u
 984:Generated_Source\PSoC5/cyfitter_cfg.c **** 
 985:Generated_Source\PSoC5/cyfitter_cfg.c **** 		/* UDBSWITCH_1_1 Address: CYDEV_UCFG_B1_P3_ROUTE_BASE Size (bytes): 128 */
 986:Generated_Source\PSoC5/cyfitter_cfg.c **** 		static const uint8 CYCODE BS_UDBSWITCH_1_1_VAL[] = {
 987:Generated_Source\PSoC5/cyfitter_cfg.c **** 			0x20u, 0x00u, 0x80u, 0x02u, 0x00u, 0x00u, 0x00u, 0x00u, 0x00u, 0x00u, 0x00u, 0x00u, 0x00u, 0x00u
 988:Generated_Source\PSoC5/cyfitter_cfg.c **** 			0x00u, 0x00u, 0x00u, 0x00u, 0x00u, 0x84u, 0x00u, 0x00u, 0x00u, 0x10u, 0x40u, 0x00u, 0x00u, 0x08u
 989:Generated_Source\PSoC5/cyfitter_cfg.c **** 			0x08u, 0x00u, 0x04u, 0x00u, 0x00u, 0x00u, 0x00u, 0x24u, 0x40u, 0x20u, 0x00u, 0x00u, 0x08u, 0x08u
 990:Generated_Source\PSoC5/cyfitter_cfg.c **** 			0x24u, 0x00u, 0x01u, 0x00u, 0x00u, 0x00u, 0x40u, 0x02u, 0x80u, 0x10u, 0x00u, 0x00u, 0x00u, 0x00u
 991:Generated_Source\PSoC5/cyfitter_cfg.c **** 			0x02u, 0x08u, 0x00u, 0x00u, 0x02u, 0x0Au, 0x00u, 0x00u, 0x40u, 0x00u, 0x12u, 0x00u, 0x00u, 0x00u
 992:Generated_Source\PSoC5/cyfitter_cfg.c **** 			0x00u, 0x03u, 0x16u, 0x00u, 0x00u, 0x00u, 0x00u, 0x00u, 0x00u, 0x00u, 0x00u, 0x00u, 0x00u, 0x00u
 993:Generated_Source\PSoC5/cyfitter_cfg.c **** 			0x00u, 0x00u, 0x00u, 0x00u, 0x00u, 0x00u, 0x00u, 0x00u, 0x08u, 0x01u, 0x06u, 0x02u, 0x00u, 0x00u
 994:Generated_Source\PSoC5/cyfitter_cfg.c **** 			0x60u, 0x04u, 0x01u, 0x80u, 0x00u, 0x00u, 0x00u, 0x00u, 0x00u, 0x00u, 0x00u, 0x00u, 0x00u, 0x00u
ARM GAS  C:\Users\Bruger\AppData\Local\Temp\ccj0lDyf.s 			page 34


 995:Generated_Source\PSoC5/cyfitter_cfg.c **** 
 996:Generated_Source\PSoC5/cyfitter_cfg.c **** 		/* UDB_2_1_HV_ROUTING Address: CYDEV_UCFG_B1_P3_ROUTE_BASE + 0x00000080u Size (bytes): 128 */
 997:Generated_Source\PSoC5/cyfitter_cfg.c **** 		static const uint8 CYCODE BS_UDB_2_1_HV_ROUTING_VAL[] = {
 998:Generated_Source\PSoC5/cyfitter_cfg.c **** 			0x00u, 0x14u, 0x00u, 0x00u, 0x00u, 0x00u, 0x60u, 0x80u, 0x04u, 0x00u, 0x00u, 0x01u, 0x20u, 0x40u
 999:Generated_Source\PSoC5/cyfitter_cfg.c **** 			0x00u, 0x30u, 0x00u, 0x40u, 0x00u, 0x43u, 0x01u, 0x0Au, 0x46u, 0x29u, 0x00u, 0x00u, 0x20u, 0x00u
1000:Generated_Source\PSoC5/cyfitter_cfg.c **** 			0x10u, 0x00u, 0x40u, 0xC3u, 0x60u, 0x00u, 0x10u, 0x00u, 0x06u, 0x42u, 0x00u, 0x08u, 0x00u, 0x08u
1001:Generated_Source\PSoC5/cyfitter_cfg.c **** 			0x10u, 0x00u, 0x00u, 0x20u, 0x14u, 0x08u, 0x00u, 0x00u, 0x00u, 0x00u, 0x00u, 0x00u, 0x00u, 0x00u
1002:Generated_Source\PSoC5/cyfitter_cfg.c **** 			0x0Bu, 0x00u, 0xD0u, 0x00u, 0xA0u, 0x00u, 0x00u, 0x00u, 0x00u, 0x00u, 0xE5u, 0x00u, 0x97u, 0x00u
1003:Generated_Source\PSoC5/cyfitter_cfg.c **** 			0xDAu, 0x00u, 0x08u, 0x00u, 0x00u, 0x00u, 0x00u, 0x00u, 0x00u, 0x00u, 0x00u, 0x00u, 0x00u, 0x00u
1004:Generated_Source\PSoC5/cyfitter_cfg.c **** 			0x0Eu, 0x00u, 0x10u, 0x00u, 0xC5u, 0x00u, 0x22u, 0x00u, 0x05u, 0x00u, 0x08u, 0x00u, 0x09u, 0x00u
1005:Generated_Source\PSoC5/cyfitter_cfg.c **** 			0x00u, 0x00u, 0x00u, 0x00u, 0x00u, 0x00u, 0x00u, 0x00u, 0x00u, 0x00u, 0x00u, 0x00u, 0x00u, 0x00u
1006:Generated_Source\PSoC5/cyfitter_cfg.c **** 
1007:Generated_Source\PSoC5/cyfitter_cfg.c **** 		/* UDBSWITCH_0_2 Address: CYDEV_UCFG_B0_P4_ROUTE_BASE Size (bytes): 128 */
1008:Generated_Source\PSoC5/cyfitter_cfg.c **** 		static const uint8 CYCODE BS_UDBSWITCH_0_2_VAL[] = {
1009:Generated_Source\PSoC5/cyfitter_cfg.c **** 			0x20u, 0x01u, 0x90u, 0x00u, 0x42u, 0x04u, 0x00u, 0x00u, 0x10u, 0x00u, 0x00u, 0x04u, 0x08u, 0x00u
1010:Generated_Source\PSoC5/cyfitter_cfg.c **** 			0xE0u, 0x00u, 0x00u, 0x00u, 0x00u, 0x40u, 0x00u, 0x00u, 0x00u, 0x00u, 0x80u, 0x00u, 0x40u, 0x08u
1011:Generated_Source\PSoC5/cyfitter_cfg.c **** 			0x00u, 0x01u, 0x05u, 0x00u, 0x00u, 0x00u, 0x00u, 0x1Au, 0x40u, 0x00u, 0x10u, 0x00u, 0x00u, 0x00u
1012:Generated_Source\PSoC5/cyfitter_cfg.c **** 			0x10u, 0x00u, 0x80u, 0x00u, 0x80u, 0x00u, 0x20u, 0x01u, 0x20u, 0x08u, 0x00u, 0x00u, 0x00u, 0x00u
1013:Generated_Source\PSoC5/cyfitter_cfg.c **** 			0x81u, 0x00u, 0x08u, 0x00u, 0x88u, 0x41u, 0x40u, 0x10u, 0x00u, 0x00u, 0x00u, 0x00u, 0x04u, 0x00u
1014:Generated_Source\PSoC5/cyfitter_cfg.c **** 			0x00u, 0x00u, 0x00u, 0x00u, 0x00u, 0x00u, 0x00u, 0x00u, 0x08u, 0x40u, 0x20u, 0x00u, 0x20u, 0x80u
1015:Generated_Source\PSoC5/cyfitter_cfg.c **** 			0x00u, 0x00u, 0x00u, 0x28u, 0x00u, 0x00u, 0x05u, 0x08u, 0x00u, 0x00u, 0x00u, 0x00u, 0x00u, 0x00u
1016:Generated_Source\PSoC5/cyfitter_cfg.c **** 			0x00u, 0x01u, 0x00u, 0x00u, 0x00u, 0x00u, 0x00u, 0x40u, 0x00u, 0x00u, 0x00u, 0x00u, 0x00u, 0x00u
1017:Generated_Source\PSoC5/cyfitter_cfg.c **** 
1018:Generated_Source\PSoC5/cyfitter_cfg.c **** 		/* UDB_1_2_HV_ROUTING Address: CYDEV_UCFG_B0_P4_ROUTE_BASE + 0x00000080u Size (bytes): 128 */
1019:Generated_Source\PSoC5/cyfitter_cfg.c **** 		static const uint8 CYCODE BS_UDB_1_2_HV_ROUTING_VAL[] = {
1020:Generated_Source\PSoC5/cyfitter_cfg.c **** 			0x00u, 0x00u, 0x00u, 0x00u, 0x00u, 0x00u, 0x10u, 0x01u, 0x00u, 0x00u, 0x00u, 0x00u, 0x20u, 0x00u
1021:Generated_Source\PSoC5/cyfitter_cfg.c **** 			0x20u, 0x89u, 0x20u, 0x04u, 0x01u, 0x02u, 0x88u, 0x00u, 0x04u, 0x40u, 0x70u, 0x00u, 0x00u, 0x30u
1022:Generated_Source\PSoC5/cyfitter_cfg.c **** 			0xB9u, 0x20u, 0x00u, 0x16u, 0x00u, 0x48u, 0x00u, 0x01u, 0x00u, 0x00u, 0x00u, 0x00u, 0x00u, 0x00u
1023:Generated_Source\PSoC5/cyfitter_cfg.c **** 			0x00u, 0x00u, 0x00u, 0x20u, 0x01u, 0x08u, 0x00u, 0x08u, 0x00u, 0x00u, 0x00u, 0x00u, 0x00u, 0x00u
1024:Generated_Source\PSoC5/cyfitter_cfg.c **** 			0xBEu, 0x00u, 0x62u, 0x00u, 0x8Cu, 0x00u, 0x00u, 0x00u, 0x00u, 0x00u, 0x35u, 0x00u, 0xBCu, 0x00u
1025:Generated_Source\PSoC5/cyfitter_cfg.c **** 			0x9Du, 0x00u, 0x20u, 0x00u, 0x00u, 0x00u, 0x7Eu, 0x00u, 0xE6u, 0x00u, 0x00u, 0x00u, 0x00u, 0x00u
1026:Generated_Source\PSoC5/cyfitter_cfg.c **** 			0x40u, 0x00u, 0x00u, 0x00u, 0x00u, 0x00u, 0x00u, 0x00u, 0x00u, 0x00u, 0x40u, 0x00u, 0x40u, 0x00u
1027:Generated_Source\PSoC5/cyfitter_cfg.c **** 			0x00u, 0x00u, 0x00u, 0x00u, 0x00u, 0x00u, 0x00u, 0x00u, 0x00u, 0x00u, 0x00u, 0x00u, 0x00u, 0x00u
1028:Generated_Source\PSoC5/cyfitter_cfg.c **** 
1029:Generated_Source\PSoC5/cyfitter_cfg.c **** 		/* UDBSWITCH_1_2 Address: CYDEV_UCFG_B0_P3_ROUTE_BASE Size (bytes): 128 */
1030:Generated_Source\PSoC5/cyfitter_cfg.c **** 		static const uint8 CYCODE BS_UDBSWITCH_1_2_VAL[] = {
1031:Generated_Source\PSoC5/cyfitter_cfg.c **** 			0x80u, 0x11u, 0x00u, 0x00u, 0x80u, 0x00u, 0x00u, 0x64u, 0x00u, 0x00u, 0x01u, 0x00u, 0x04u, 0x02u
1032:Generated_Source\PSoC5/cyfitter_cfg.c **** 			0x64u, 0x00u, 0x00u, 0x00u, 0x40u, 0x00u, 0x80u, 0x08u, 0x20u, 0x00u, 0x80u, 0x00u, 0x00u, 0x08u
1033:Generated_Source\PSoC5/cyfitter_cfg.c **** 			0x14u, 0x00u, 0x00u, 0x00u, 0x00u, 0x00u, 0x00u, 0x10u, 0x00u, 0x80u, 0x40u, 0x00u, 0x00u, 0x08u
1034:Generated_Source\PSoC5/cyfitter_cfg.c **** 			0x02u, 0x00u, 0x00u, 0x00u, 0x00u, 0x00u, 0x00u, 0x01u, 0x10u, 0x00u, 0x00u, 0x04u, 0x00u, 0x00u
1035:Generated_Source\PSoC5/cyfitter_cfg.c **** 			0x22u, 0x00u, 0x00u, 0x00u, 0x02u, 0x00u, 0x00u, 0x00u, 0x00u, 0x00u, 0x80u, 0x04u, 0x00u, 0x40u
1036:Generated_Source\PSoC5/cyfitter_cfg.c **** 			0x06u, 0x40u, 0x00u, 0x20u, 0x00u, 0x00u, 0x00u, 0x00u, 0x00u, 0x00u, 0x00u, 0x00u, 0x00u, 0x12u
1037:Generated_Source\PSoC5/cyfitter_cfg.c **** 			0x00u, 0x00u, 0x20u, 0x00u, 0x00u, 0x00u, 0x20u, 0x82u, 0x00u, 0x00u, 0x2Au, 0x02u, 0x00u, 0x00u
1038:Generated_Source\PSoC5/cyfitter_cfg.c **** 			0x00u, 0x00u, 0x00u, 0x01u, 0x00u, 0x00u, 0x00u, 0x00u, 0x00u, 0x00u, 0x00u, 0x00u, 0x00u, 0x00u
1039:Generated_Source\PSoC5/cyfitter_cfg.c **** 
1040:Generated_Source\PSoC5/cyfitter_cfg.c **** 		/* UDB_2_2_HV_ROUTING Address: CYDEV_UCFG_B0_P3_ROUTE_BASE + 0x00000080u Size (bytes): 128 */
1041:Generated_Source\PSoC5/cyfitter_cfg.c **** 		static const uint8 CYCODE BS_UDB_2_2_HV_ROUTING_VAL[] = {
1042:Generated_Source\PSoC5/cyfitter_cfg.c **** 			0x00u, 0x00u, 0x00u, 0x00u, 0x00u, 0x00u, 0x80u, 0xC0u, 0x00u, 0x00u, 0x00u, 0x00u, 0x00u, 0x00u
1043:Generated_Source\PSoC5/cyfitter_cfg.c **** 			0x80u, 0x20u, 0x14u, 0x00u, 0x00u, 0x02u, 0xE8u, 0x19u, 0x04u, 0x21u, 0x00u, 0x49u, 0x00u, 0x80u
1044:Generated_Source\PSoC5/cyfitter_cfg.c **** 			0x00u, 0x02u, 0x20u, 0x4Bu, 0x40u, 0x00u, 0x13u, 0x00u, 0x00u, 0x00u, 0x00u, 0x00u, 0x00u, 0x00u
1045:Generated_Source\PSoC5/cyfitter_cfg.c **** 			0x01u, 0x00u, 0x00u, 0x00u, 0x04u, 0x00u, 0x80u, 0x00u, 0x00u, 0x00u, 0x00u, 0x00u, 0x00u, 0x00u
1046:Generated_Source\PSoC5/cyfitter_cfg.c **** 			0xFBu, 0x00u, 0xB1u, 0x00u, 0x3Eu, 0x00u, 0x00u, 0x00u, 0x00u, 0x00u, 0xC0u, 0x00u, 0x81u, 0x00u
1047:Generated_Source\PSoC5/cyfitter_cfg.c **** 			0x1Au, 0x00u, 0x10u, 0x00u, 0x00u, 0x00u, 0x80u, 0x00u, 0xB4u, 0x00u, 0x00u, 0x00u, 0x00u, 0x00u
1048:Generated_Source\PSoC5/cyfitter_cfg.c **** 			0x00u, 0x00u, 0x02u, 0x00u, 0x00u, 0x00u, 0x08u, 0x00u, 0x00u, 0x00u, 0x00u, 0x00u, 0x00u, 0x00u
1049:Generated_Source\PSoC5/cyfitter_cfg.c **** 			0x00u, 0x00u, 0x00u, 0x00u, 0x00u, 0x00u, 0x00u, 0x00u, 0x00u, 0x00u, 0x00u, 0x00u, 0x00u, 0x00u
1050:Generated_Source\PSoC5/cyfitter_cfg.c **** 
1051:Generated_Source\PSoC5/cyfitter_cfg.c **** 		/* UDBSWITCH_0_3 Address: CYDEV_UCFG_B0_P5_ROUTE_BASE Size (bytes): 128 */
ARM GAS  C:\Users\Bruger\AppData\Local\Temp\ccj0lDyf.s 			page 35


1052:Generated_Source\PSoC5/cyfitter_cfg.c **** 		static const uint8 CYCODE BS_UDBSWITCH_0_3_VAL[] = {
1053:Generated_Source\PSoC5/cyfitter_cfg.c **** 			0x10u, 0x00u, 0x80u, 0x00u, 0x40u, 0x14u, 0x10u, 0x00u, 0x00u, 0x00u, 0x00u, 0x00u, 0x00u, 0x00u
1054:Generated_Source\PSoC5/cyfitter_cfg.c **** 			0x00u, 0x00u, 0x00u, 0x00u, 0x00u, 0x0Au, 0x00u, 0x00u, 0x10u, 0x40u, 0x00u, 0x00u, 0x40u, 0x04u
1055:Generated_Source\PSoC5/cyfitter_cfg.c **** 			0x20u, 0x04u, 0x01u, 0x00u, 0x80u, 0x00u, 0x00u, 0x00u, 0x00u, 0x00u, 0x00u, 0x01u, 0x00u, 0x00u
1056:Generated_Source\PSoC5/cyfitter_cfg.c **** 			0x02u, 0x10u, 0x00u, 0x00u, 0x08u, 0x00u, 0x00u, 0x00u, 0x40u, 0x96u, 0x00u, 0x00u, 0x00u, 0x00u
1057:Generated_Source\PSoC5/cyfitter_cfg.c **** 			0x01u, 0x10u, 0x88u, 0x00u, 0x00u, 0x40u, 0x88u, 0x00u, 0x00u, 0x00u, 0x00u, 0x00u, 0x00u, 0x00u
1058:Generated_Source\PSoC5/cyfitter_cfg.c **** 			0x00u, 0x00u, 0x00u, 0x00u, 0x00u, 0x00u, 0xC0u, 0x14u, 0x00u, 0x00u, 0x00u, 0x00u, 0x04u, 0x82u
1059:Generated_Source\PSoC5/cyfitter_cfg.c **** 			0x00u, 0x00u, 0x00u, 0x00u, 0x00u, 0x01u, 0x00u, 0x00u, 0x02u, 0x15u, 0x00u, 0x00u, 0x08u, 0x00u
1060:Generated_Source\PSoC5/cyfitter_cfg.c **** 			0xB1u, 0x00u, 0x00u, 0x20u, 0x00u, 0x00u, 0x00u, 0x00u, 0x00u, 0x00u, 0x00u, 0x00u, 0x00u, 0x00u
1061:Generated_Source\PSoC5/cyfitter_cfg.c **** 
1062:Generated_Source\PSoC5/cyfitter_cfg.c **** 		/* UDB_1_3_HV_ROUTING Address: CYDEV_UCFG_B0_P5_ROUTE_BASE + 0x00000080u Size (bytes): 128 */
1063:Generated_Source\PSoC5/cyfitter_cfg.c **** 		static const uint8 CYCODE BS_UDB_1_3_HV_ROUTING_VAL[] = {
1064:Generated_Source\PSoC5/cyfitter_cfg.c **** 			0x00u, 0x00u, 0x01u, 0x00u, 0x40u, 0x00u, 0x21u, 0x00u, 0x00u, 0x00u, 0x00u, 0x00u, 0x40u, 0x01u
1065:Generated_Source\PSoC5/cyfitter_cfg.c **** 			0x04u, 0x00u, 0x00u, 0x00u, 0xC0u, 0x20u, 0x8Fu, 0x00u, 0x0Cu, 0x82u, 0x00u, 0x00u, 0x00u, 0x2Cu
1066:Generated_Source\PSoC5/cyfitter_cfg.c **** 			0x01u, 0x20u, 0x10u, 0x00u, 0x50u, 0x08u, 0x00u, 0x00u, 0x02u, 0x01u, 0x00u, 0x10u, 0x00u, 0x00u
1067:Generated_Source\PSoC5/cyfitter_cfg.c **** 			0x00u, 0x00u, 0x00u, 0x00u, 0x88u, 0x04u, 0x00u, 0x00u, 0x00u, 0x00u, 0x00u, 0x00u, 0x00u, 0x00u
1068:Generated_Source\PSoC5/cyfitter_cfg.c **** 			0xEAu, 0x00u, 0xC0u, 0x00u, 0x30u, 0x00u, 0x00u, 0x00u, 0x00u, 0x00u, 0x08u, 0x00u, 0x45u, 0x00u
1069:Generated_Source\PSoC5/cyfitter_cfg.c **** 			0xBDu, 0x00u, 0x00u, 0x00u, 0x00u, 0x00u, 0xF0u, 0x00u, 0x80u, 0x00u, 0x00u, 0x00u, 0x00u, 0x00u
1070:Generated_Source\PSoC5/cyfitter_cfg.c **** 			0x00u, 0x00u, 0x50u, 0x00u, 0x04u, 0x00u, 0x40u, 0x00u, 0x00u, 0x00u, 0x19u, 0x00u, 0x00u, 0x00u
1071:Generated_Source\PSoC5/cyfitter_cfg.c **** 			0x00u, 0x00u, 0x00u, 0x00u, 0x00u, 0x00u, 0x00u, 0x00u, 0x00u, 0x00u, 0x00u, 0x00u, 0x00u, 0x00u
1072:Generated_Source\PSoC5/cyfitter_cfg.c **** 
1073:Generated_Source\PSoC5/cyfitter_cfg.c **** 		/* UDBSWITCH_1_3 Address: CYDEV_UCFG_B0_P2_ROUTE_BASE Size (bytes): 128 */
1074:Generated_Source\PSoC5/cyfitter_cfg.c **** 		static const uint8 CYCODE BS_UDBSWITCH_1_3_VAL[] = {
1075:Generated_Source\PSoC5/cyfitter_cfg.c **** 			0x00u, 0x00u, 0x09u, 0x20u, 0x40u, 0x10u, 0x82u, 0x00u, 0x00u, 0x10u, 0x02u, 0x20u, 0x80u, 0x08u
1076:Generated_Source\PSoC5/cyfitter_cfg.c **** 			0x00u, 0x44u, 0x00u, 0x10u, 0x00u, 0x80u, 0x40u, 0x00u, 0x20u, 0x02u, 0x00u, 0x20u, 0x40u, 0x18u
1077:Generated_Source\PSoC5/cyfitter_cfg.c **** 			0x04u, 0x00u, 0x00u, 0x80u, 0x00u, 0x00u, 0x04u, 0x00u, 0x00u, 0x00u, 0x00u, 0x80u, 0x00u, 0x00u
1078:Generated_Source\PSoC5/cyfitter_cfg.c **** 			0x01u, 0x00u, 0x80u, 0x00u, 0x00u, 0x00u, 0x00u, 0x00u, 0x00u, 0x89u, 0x00u, 0x80u, 0x20u, 0x90u
1079:Generated_Source\PSoC5/cyfitter_cfg.c **** 			0x40u, 0x00u, 0x20u, 0x08u, 0x00u, 0x00u, 0x22u, 0x00u, 0x00u, 0x00u, 0x00u, 0x00u, 0x00u, 0x00u
1080:Generated_Source\PSoC5/cyfitter_cfg.c **** 			0x00u, 0x00u, 0x00u, 0x00u, 0x90u, 0x42u, 0x08u, 0x00u, 0x00u, 0x80u, 0x00u, 0x00u, 0x00u, 0x10u
1081:Generated_Source\PSoC5/cyfitter_cfg.c **** 			0x00u, 0x00u, 0x40u, 0x00u, 0x00u, 0x00u, 0x08u, 0x44u, 0x00u, 0x00u, 0x00u, 0x00u, 0x00u, 0x00u
1082:Generated_Source\PSoC5/cyfitter_cfg.c **** 			0x00u, 0x00u, 0x00u, 0x00u, 0x00u, 0x00u, 0x80u, 0x00u, 0x00u, 0x00u, 0x00u, 0x00u, 0x00u, 0x00u
1083:Generated_Source\PSoC5/cyfitter_cfg.c **** 
1084:Generated_Source\PSoC5/cyfitter_cfg.c **** 		/* UDB_2_3_HV_ROUTING Address: CYDEV_UCFG_B0_P2_ROUTE_BASE + 0x00000080u Size (bytes): 128 */
1085:Generated_Source\PSoC5/cyfitter_cfg.c **** 		static const uint8 CYCODE BS_UDB_2_3_HV_ROUTING_VAL[] = {
1086:Generated_Source\PSoC5/cyfitter_cfg.c **** 			0x00u, 0x02u, 0x00u, 0x00u, 0x00u, 0x01u, 0x00u, 0xC0u, 0x00u, 0x00u, 0x00u, 0x00u, 0x00u, 0x00u
1087:Generated_Source\PSoC5/cyfitter_cfg.c **** 			0x80u, 0x6Cu, 0x16u, 0x20u, 0x20u, 0x03u, 0xA8u, 0x09u, 0x04u, 0x21u, 0x00u, 0x49u, 0x00u, 0x00u
1088:Generated_Source\PSoC5/cyfitter_cfg.c **** 			0x00u, 0x10u, 0x28u, 0x4Au, 0x40u, 0x00u, 0x13u, 0xA0u, 0x02u, 0x00u, 0x08u, 0x00u, 0x28u, 0x00u
1089:Generated_Source\PSoC5/cyfitter_cfg.c **** 			0x00u, 0x00u, 0x00u, 0x00u, 0x00u, 0x04u, 0x20u, 0x10u, 0x00u, 0x00u, 0x00u, 0x00u, 0x00u, 0x00u
1090:Generated_Source\PSoC5/cyfitter_cfg.c **** 			0x57u, 0x00u, 0xA7u, 0x00u, 0x97u, 0x00u, 0x00u, 0x00u, 0x00u, 0x00u, 0x81u, 0x00u, 0x09u, 0x00u
1091:Generated_Source\PSoC5/cyfitter_cfg.c **** 			0x53u, 0x00u, 0x00u, 0x00u, 0x00u, 0x00u, 0x78u, 0x00u, 0xE8u, 0x00u, 0x00u, 0x00u, 0x00u, 0x00u
1092:Generated_Source\PSoC5/cyfitter_cfg.c **** 			0x02u, 0x00u, 0x1Cu, 0x00u, 0x04u, 0x00u, 0x40u, 0x00u, 0x04u, 0x00u, 0x0Bu, 0x00u, 0x00u, 0x00u
1093:Generated_Source\PSoC5/cyfitter_cfg.c **** 			0x00u, 0x00u, 0x00u, 0x00u, 0x00u, 0x00u, 0x00u, 0x00u, 0x00u, 0x00u, 0x00u, 0x00u, 0x00u, 0x00u
1094:Generated_Source\PSoC5/cyfitter_cfg.c **** 
1095:Generated_Source\PSoC5/cyfitter_cfg.c **** 		/* UDBSWITCH_0_4 Address: CYDEV_UCFG_B0_P6_ROUTE_BASE Size (bytes): 128 */
1096:Generated_Source\PSoC5/cyfitter_cfg.c **** 		static const uint8 CYCODE BS_UDBSWITCH_0_4_VAL[] = {
1097:Generated_Source\PSoC5/cyfitter_cfg.c **** 			0x00u, 0x00u, 0x00u, 0x00u, 0x80u, 0x20u, 0x00u, 0x00u, 0x00u, 0x00u, 0x00u, 0x00u, 0x00u, 0x00u
1098:Generated_Source\PSoC5/cyfitter_cfg.c **** 			0x00u, 0x00u, 0x00u, 0x00u, 0x08u, 0x00u, 0x40u, 0x08u, 0x00u, 0x00u, 0x00u, 0x00u, 0x00u, 0xC0u
1099:Generated_Source\PSoC5/cyfitter_cfg.c **** 			0x04u, 0x00u, 0x00u, 0x00u, 0x00u, 0x00u, 0x00u, 0x15u, 0x00u, 0x00u, 0x00u, 0x00u, 0x00u, 0x28u
1100:Generated_Source\PSoC5/cyfitter_cfg.c **** 			0x00u, 0x00u, 0x80u, 0x00u, 0x02u, 0x00u, 0x00u, 0x64u, 0x00u, 0x00u, 0x00u, 0x00u, 0x40u, 0x00u
1101:Generated_Source\PSoC5/cyfitter_cfg.c **** 			0x20u, 0x00u, 0x00u, 0x00u, 0x02u, 0x4Au, 0x00u, 0x00u, 0x06u, 0x02u, 0x90u, 0x00u, 0x01u, 0x00u
1102:Generated_Source\PSoC5/cyfitter_cfg.c **** 			0x80u, 0x00u, 0x20u, 0x00u, 0x00u, 0x01u, 0x04u, 0x80u, 0x00u, 0x00u, 0x00u, 0x00u, 0x00u, 0x10u
1103:Generated_Source\PSoC5/cyfitter_cfg.c **** 			0x00u, 0x00u, 0x00u, 0x00u, 0x00u, 0x40u, 0x08u, 0x44u, 0x01u, 0x00u, 0x00u, 0x00u, 0x00u, 0x00u
1104:Generated_Source\PSoC5/cyfitter_cfg.c **** 			0x00u, 0x00u, 0x00u, 0x00u, 0x00u, 0x00u, 0x00u, 0x00u, 0x00u, 0x00u, 0x00u, 0x00u, 0x00u, 0x00u
1105:Generated_Source\PSoC5/cyfitter_cfg.c **** 
1106:Generated_Source\PSoC5/cyfitter_cfg.c **** 		/* UDB_1_4_HV_ROUTING Address: CYDEV_UCFG_B0_P6_ROUTE_BASE + 0x00000080u Size (bytes): 128 */
1107:Generated_Source\PSoC5/cyfitter_cfg.c **** 		static const uint8 CYCODE BS_UDB_1_4_HV_ROUTING_VAL[] = {
1108:Generated_Source\PSoC5/cyfitter_cfg.c **** 			0x00u, 0x00u, 0x20u, 0x04u, 0x00u, 0x00u, 0x00u, 0x40u, 0x14u, 0x00u, 0x00u, 0x00u, 0x20u, 0x80u
ARM GAS  C:\Users\Bruger\AppData\Local\Temp\ccj0lDyf.s 			page 36


1109:Generated_Source\PSoC5/cyfitter_cfg.c **** 			0x02u, 0x10u, 0x40u, 0x04u, 0x00u, 0x20u, 0x9Au, 0x00u, 0x04u, 0x00u, 0x4Au, 0x00u, 0x00u, 0x00u
1110:Generated_Source\PSoC5/cyfitter_cfg.c **** 			0x00u, 0x62u, 0x08u, 0x00u, 0x40u, 0x80u, 0x00u, 0x15u, 0x00u, 0x00u, 0x08u, 0x00u, 0x00u, 0x00u
1111:Generated_Source\PSoC5/cyfitter_cfg.c **** 			0x08u, 0x08u, 0x00u, 0x80u, 0x01u, 0x02u, 0x02u, 0x00u, 0x00u, 0x00u, 0x00u, 0x00u, 0x00u, 0x00u
1112:Generated_Source\PSoC5/cyfitter_cfg.c **** 			0xC0u, 0x00u, 0x00u, 0x00u, 0x70u, 0x00u, 0x00u, 0x00u, 0x00u, 0x00u, 0xF0u, 0x00u, 0xF8u, 0x00u
1113:Generated_Source\PSoC5/cyfitter_cfg.c **** 			0xD2u, 0x00u, 0x3Cu, 0x00u, 0x00u, 0x00u, 0x70u, 0x00u, 0xF0u, 0x00u, 0x00u, 0x00u, 0x00u, 0x00u
1114:Generated_Source\PSoC5/cyfitter_cfg.c **** 			0x68u, 0x00u, 0x00u, 0x00u, 0x40u, 0x00u, 0x80u, 0x00u, 0xC0u, 0x00u, 0x00u, 0x00u, 0x30u, 0x00u
1115:Generated_Source\PSoC5/cyfitter_cfg.c **** 			0x00u, 0x00u, 0x00u, 0x00u, 0x00u, 0x00u, 0x00u, 0x00u, 0x00u, 0x00u, 0x00u, 0x00u, 0x00u, 0x00u
1116:Generated_Source\PSoC5/cyfitter_cfg.c **** 
1117:Generated_Source\PSoC5/cyfitter_cfg.c **** 		/* UDBSWITCH_1_4 Address: CYDEV_UCFG_B0_P1_ROUTE_BASE Size (bytes): 128 */
1118:Generated_Source\PSoC5/cyfitter_cfg.c **** 		static const uint8 CYCODE BS_UDBSWITCH_1_4_VAL[] = {
1119:Generated_Source\PSoC5/cyfitter_cfg.c **** 			0x90u, 0x24u, 0x00u, 0x00u, 0x80u, 0x80u, 0x00u, 0x48u, 0x20u, 0x00u, 0x82u, 0x20u, 0x20u, 0x00u
1120:Generated_Source\PSoC5/cyfitter_cfg.c **** 			0x00u, 0x0Au, 0x09u, 0x00u, 0x04u, 0x00u, 0x00u, 0x00u, 0x14u, 0x00u, 0x40u, 0x00u, 0x00u, 0x11u
1121:Generated_Source\PSoC5/cyfitter_cfg.c **** 			0x00u, 0x10u, 0x09u, 0x00u, 0x00u, 0x00u, 0x40u, 0x04u, 0x20u, 0x00u, 0x20u, 0x20u, 0x00u, 0x00u
1122:Generated_Source\PSoC5/cyfitter_cfg.c **** 			0x00u, 0x00u, 0x09u, 0x00u, 0x00u, 0x00u, 0x00u, 0x20u, 0x20u, 0x04u, 0x00u, 0x28u, 0x00u, 0x01u
1123:Generated_Source\PSoC5/cyfitter_cfg.c **** 			0x00u, 0x00u, 0x00u, 0x00u, 0x00u, 0x00u, 0x00u, 0x00u, 0x00u, 0x00u, 0x00u, 0x00u, 0x00u, 0x00u
1124:Generated_Source\PSoC5/cyfitter_cfg.c **** 			0x00u, 0x00u, 0x00u, 0x00u, 0x00u, 0x00u, 0x00u, 0x00u, 0x00u, 0x00u, 0x00u, 0x00u, 0x00u, 0x00u
1125:Generated_Source\PSoC5/cyfitter_cfg.c **** 			0x08u, 0x40u, 0x00u, 0x10u, 0x00u, 0x00u, 0x00u, 0x00u, 0x00u, 0x40u, 0x00u, 0x00u, 0x00u, 0x00u
1126:Generated_Source\PSoC5/cyfitter_cfg.c **** 			0x00u, 0x00u, 0x00u, 0x00u, 0x00u, 0x80u, 0x80u, 0x28u, 0x00u, 0x00u, 0x00u, 0x00u, 0x00u, 0x00u
1127:Generated_Source\PSoC5/cyfitter_cfg.c **** 
1128:Generated_Source\PSoC5/cyfitter_cfg.c **** 		/* UDB_2_4_HV_ROUTING Address: CYDEV_UCFG_B0_P1_ROUTE_BASE + 0x00000080u Size (bytes): 128 */
1129:Generated_Source\PSoC5/cyfitter_cfg.c **** 		static const uint8 CYCODE BS_UDB_2_4_HV_ROUTING_VAL[] = {
1130:Generated_Source\PSoC5/cyfitter_cfg.c **** 			0x00u, 0x11u, 0x00u, 0x00u, 0x00u, 0x00u, 0x01u, 0x00u, 0x04u, 0x04u, 0x00u, 0x00u, 0x04u, 0x00u
1131:Generated_Source\PSoC5/cyfitter_cfg.c **** 			0x00u, 0x08u, 0x01u, 0x10u, 0x00u, 0x02u, 0x68u, 0x01u, 0x00u, 0x40u, 0x00u, 0x00u, 0x02u, 0x10u
1132:Generated_Source\PSoC5/cyfitter_cfg.c **** 			0x00u, 0x00u, 0x20u, 0x42u, 0x00u, 0x00u, 0x53u, 0x00u, 0x00u, 0x00u, 0x01u, 0x00u, 0x80u, 0x44u
1133:Generated_Source\PSoC5/cyfitter_cfg.c **** 			0x12u, 0x00u, 0x06u, 0x00u, 0x41u, 0x00u, 0x80u, 0x20u, 0x00u, 0x00u, 0x00u, 0x00u, 0x00u, 0x00u
1134:Generated_Source\PSoC5/cyfitter_cfg.c **** 			0xD7u, 0x00u, 0x6Fu, 0x00u, 0x4Fu, 0x00u, 0x00u, 0x00u, 0x00u, 0x00u, 0x86u, 0x00u, 0x23u, 0x00u
1135:Generated_Source\PSoC5/cyfitter_cfg.c **** 			0x00u, 0x00u, 0x00u, 0x00u, 0x00u, 0x00u, 0x00u, 0x00u, 0x0Eu, 0x00u, 0x00u, 0x00u, 0x00u, 0x00u
1136:Generated_Source\PSoC5/cyfitter_cfg.c **** 			0x08u, 0x00u, 0x01u, 0x00u, 0x00u, 0x00u, 0x03u, 0x00u, 0x00u, 0x00u, 0x0Cu, 0x00u, 0x00u, 0x00u
1137:Generated_Source\PSoC5/cyfitter_cfg.c **** 			0x00u, 0x00u, 0x00u, 0x00u, 0x00u, 0x00u, 0x00u, 0x00u, 0x00u, 0x00u, 0x00u, 0x00u, 0x00u, 0x00u
1138:Generated_Source\PSoC5/cyfitter_cfg.c **** 
1139:Generated_Source\PSoC5/cyfitter_cfg.c **** 		/* UDBSWITCH_0_5 Address: CYDEV_UCFG_B0_P7_ROUTE_BASE Size (bytes): 128 */
1140:Generated_Source\PSoC5/cyfitter_cfg.c **** 		static const uint8 CYCODE BS_UDBSWITCH_0_5_VAL[] = {
1141:Generated_Source\PSoC5/cyfitter_cfg.c **** 			0x90u, 0x00u, 0x00u, 0x10u, 0x20u, 0x08u, 0x02u, 0x40u, 0x00u, 0x00u, 0x8Au, 0x00u, 0x04u, 0x40u
1142:Generated_Source\PSoC5/cyfitter_cfg.c **** 			0x22u, 0x00u, 0x00u, 0x00u, 0x02u, 0x00u, 0x24u, 0x02u, 0x14u, 0x00u, 0x40u, 0x00u, 0x00u, 0x20u
1143:Generated_Source\PSoC5/cyfitter_cfg.c **** 			0x00u, 0x00u, 0x00u, 0x00u, 0x20u, 0x44u, 0x08u, 0x42u, 0x00u, 0x00u, 0x00u, 0x00u, 0x08u, 0x00u
1144:Generated_Source\PSoC5/cyfitter_cfg.c **** 			0x00u, 0x00u, 0x00u, 0x00u, 0x00u, 0x00u, 0x26u, 0x40u, 0x00u, 0x00u, 0x00u, 0x00u, 0x00u, 0x88u
1145:Generated_Source\PSoC5/cyfitter_cfg.c **** 			0x08u, 0x90u, 0x10u, 0x05u, 0x08u, 0x80u, 0x00u, 0x05u, 0x00u, 0x00u, 0x00u, 0x00u, 0x00u, 0x02u
1146:Generated_Source\PSoC5/cyfitter_cfg.c **** 			0x00u, 0x00u, 0x00u, 0x00u, 0x22u, 0x00u, 0x48u, 0x00u, 0x00u, 0x00u, 0x00u, 0x00u, 0x00u, 0x00u
1147:Generated_Source\PSoC5/cyfitter_cfg.c **** 			0x00u, 0x00u, 0x00u, 0x00u, 0x00u, 0x00u, 0x00u, 0x00u, 0x00u, 0x00u, 0x00u, 0x00u, 0x00u, 0x00u
1148:Generated_Source\PSoC5/cyfitter_cfg.c **** 			0x00u, 0x00u, 0x00u, 0x00u, 0x00u, 0x00u, 0x00u, 0x00u, 0x00u, 0x00u, 0x00u, 0x00u, 0x00u, 0x00u
1149:Generated_Source\PSoC5/cyfitter_cfg.c **** 
1150:Generated_Source\PSoC5/cyfitter_cfg.c **** 		/* UDB_1_5_HV_ROUTING Address: CYDEV_UCFG_B0_P7_ROUTE_BASE + 0x00000080u Size (bytes): 128 */
1151:Generated_Source\PSoC5/cyfitter_cfg.c **** 		static const uint8 CYCODE BS_UDB_1_5_HV_ROUTING_VAL[] = {
1152:Generated_Source\PSoC5/cyfitter_cfg.c **** 			0x00u, 0x00u, 0x00u, 0x04u, 0x00u, 0x00u, 0x40u, 0x00u, 0x02u, 0x52u, 0x20u, 0x00u, 0x04u, 0x40u
1153:Generated_Source\PSoC5/cyfitter_cfg.c **** 			0x00u, 0x00u, 0x00u, 0x00u, 0x00u, 0x00u, 0x00u, 0x00u, 0x00u, 0x00u, 0x00u, 0x00u, 0x00u, 0x00u
1154:Generated_Source\PSoC5/cyfitter_cfg.c **** 			0x00u, 0x00u, 0x00u, 0x00u, 0x00u, 0x00u, 0x00u, 0x00u, 0x00u, 0x00u, 0x00u, 0x00u, 0x00u, 0x00u
1155:Generated_Source\PSoC5/cyfitter_cfg.c **** 			0x00u, 0x00u, 0x00u, 0x00u, 0x00u, 0x00u, 0x00u, 0x00u, 0x00u, 0x00u, 0x00u, 0x00u, 0x00u, 0x00u
1156:Generated_Source\PSoC5/cyfitter_cfg.c **** 			0xF7u, 0x00u, 0xEBu, 0x00u, 0xF5u, 0x00u, 0x00u, 0x00u, 0x00u, 0x00u, 0xA0u, 0x00u, 0xF0u, 0x00u
1157:Generated_Source\PSoC5/cyfitter_cfg.c **** 			0xFFu, 0x00u, 0x00u, 0x00u, 0x00u, 0x00u, 0x00u, 0x00u, 0x00u, 0x00u, 0x00u, 0x00u, 0x00u, 0x00u
1158:Generated_Source\PSoC5/cyfitter_cfg.c **** 			0x60u, 0x00u, 0x00u, 0x00u, 0x10u, 0x00u, 0x20u, 0x00u, 0x00u, 0x00u, 0x00u, 0x00u, 0x00u, 0x00u
1159:Generated_Source\PSoC5/cyfitter_cfg.c **** 			0x00u, 0x00u, 0x00u, 0x00u, 0x00u, 0x00u, 0x00u, 0x00u, 0x00u, 0x00u, 0x00u, 0x00u, 0x00u, 0x00u
1160:Generated_Source\PSoC5/cyfitter_cfg.c **** 
1161:Generated_Source\PSoC5/cyfitter_cfg.c **** 		/* UDBSWITCH_1_5 Address: CYDEV_UCFG_B0_P0_ROUTE_BASE Size (bytes): 128 */
1162:Generated_Source\PSoC5/cyfitter_cfg.c **** 		static const uint8 CYCODE BS_UDBSWITCH_1_5_VAL[] = {
1163:Generated_Source\PSoC5/cyfitter_cfg.c **** 			0x00u, 0x80u, 0x02u, 0x28u, 0x00u, 0x10u, 0x00u, 0x00u, 0x06u, 0x00u, 0x28u, 0x01u, 0x00u, 0x00u
1164:Generated_Source\PSoC5/cyfitter_cfg.c **** 			0x00u, 0x00u, 0x41u, 0x22u, 0x00u, 0x02u, 0x00u, 0x14u, 0x41u, 0x00u, 0x02u, 0x08u, 0x00u, 0x00u
1165:Generated_Source\PSoC5/cyfitter_cfg.c **** 			0x00u, 0x02u, 0x60u, 0x10u, 0x00u, 0x00u, 0x00u, 0x00u, 0x04u, 0x80u, 0x01u, 0x00u, 0x00u, 0x00u
ARM GAS  C:\Users\Bruger\AppData\Local\Temp\ccj0lDyf.s 			page 37


1166:Generated_Source\PSoC5/cyfitter_cfg.c **** 			0x00u, 0x02u, 0xA4u, 0x02u, 0x00u, 0x00u, 0x00u, 0x00u, 0x00u, 0x20u, 0x40u, 0x09u, 0x00u, 0x00u
1167:Generated_Source\PSoC5/cyfitter_cfg.c **** 			0x00u, 0x00u, 0x00u, 0x00u, 0x00u, 0x00u, 0x00u, 0x00u, 0x00u, 0x00u, 0x00u, 0x00u, 0x00u, 0x00u
1168:Generated_Source\PSoC5/cyfitter_cfg.c **** 			0x00u, 0x00u, 0x00u, 0x00u, 0x00u, 0x00u, 0x00u, 0x00u, 0x18u, 0x00u, 0x82u, 0x00u, 0x00u, 0x00u
1169:Generated_Source\PSoC5/cyfitter_cfg.c **** 			0x00u, 0x80u, 0x00u, 0x00u, 0x80u, 0x00u, 0x14u, 0x00u, 0x00u, 0x00u, 0x00u, 0x00u, 0x00u, 0x00u
1170:Generated_Source\PSoC5/cyfitter_cfg.c **** 			0x00u, 0x00u, 0x00u, 0x00u, 0x00u, 0x00u, 0x80u, 0x00u, 0x00u, 0x00u, 0x00u, 0x00u, 0x00u, 0x00u
1171:Generated_Source\PSoC5/cyfitter_cfg.c **** 
1172:Generated_Source\PSoC5/cyfitter_cfg.c **** 		/* UDB_2_5_HV_ROUTING Address: CYDEV_UCFG_B0_P0_ROUTE_BASE + 0x00000080u Size (bytes): 128 */
1173:Generated_Source\PSoC5/cyfitter_cfg.c **** 		static const uint8 CYCODE BS_UDB_2_5_HV_ROUTING_VAL[] = {
1174:Generated_Source\PSoC5/cyfitter_cfg.c **** 			0x08u, 0x00u, 0x00u, 0x00u, 0x00u, 0x80u, 0x00u, 0x00u, 0x00u, 0x10u, 0x00u, 0x22u, 0x00u, 0x00u
1175:Generated_Source\PSoC5/cyfitter_cfg.c **** 			0x00u, 0x00u, 0x00u, 0x00u, 0x00u, 0x00u, 0x00u, 0x00u, 0x00u, 0x00u, 0x00u, 0x00u, 0x00u, 0x00u
1176:Generated_Source\PSoC5/cyfitter_cfg.c **** 			0x00u, 0x00u, 0x00u, 0x00u, 0x00u, 0x00u, 0x00u, 0x00u, 0x00u, 0x00u, 0x00u, 0x00u, 0x00u, 0x00u
1177:Generated_Source\PSoC5/cyfitter_cfg.c **** 			0x00u, 0x00u, 0x00u, 0x00u, 0x00u, 0x00u, 0x00u, 0x00u, 0x00u, 0x00u, 0x00u, 0x00u, 0x00u, 0x00u
1178:Generated_Source\PSoC5/cyfitter_cfg.c **** 			0x47u, 0x00u, 0xBFu, 0x00u, 0x7Bu, 0x00u, 0x00u, 0x00u, 0x00u, 0x00u, 0x0Du, 0x00u, 0x0Fu, 0x00u
1179:Generated_Source\PSoC5/cyfitter_cfg.c **** 			0x00u, 0x00u, 0x00u, 0x00u, 0x00u, 0x00u, 0x7Fu, 0x00u, 0xE8u, 0x00u, 0x00u, 0x00u, 0x00u, 0x00u
1180:Generated_Source\PSoC5/cyfitter_cfg.c **** 			0x00u, 0x00u, 0x00u, 0x00u, 0x00u, 0x00u, 0x06u, 0x00u, 0x00u, 0x00u, 0x00u, 0x00u, 0x00u, 0x00u
1181:Generated_Source\PSoC5/cyfitter_cfg.c **** 			0x00u, 0x00u, 0x00u, 0x00u, 0x00u, 0x00u, 0x00u, 0x00u, 0x00u, 0x00u, 0x00u, 0x00u, 0x00u, 0x00u
1182:Generated_Source\PSoC5/cyfitter_cfg.c **** 
1183:Generated_Source\PSoC5/cyfitter_cfg.c **** 		/* DSISWITCH_1_0 Address: CYDEV_UCFG_DSI9_BASE Size (bytes): 128 */
1184:Generated_Source\PSoC5/cyfitter_cfg.c **** 		static const uint8 CYCODE BS_DSISWITCH_1_0_VAL[] = {
1185:Generated_Source\PSoC5/cyfitter_cfg.c **** 			0x00u, 0x00u, 0x00u, 0x00u, 0x00u, 0x00u, 0x00u, 0x00u, 0x00u, 0x00u, 0x00u, 0x00u, 0x00u, 0x00u
1186:Generated_Source\PSoC5/cyfitter_cfg.c **** 			0x00u, 0x00u, 0x40u, 0x00u, 0x00u, 0x00u, 0x00u, 0x02u, 0x00u, 0x00u, 0x00u, 0x40u, 0x00u, 0x00u
1187:Generated_Source\PSoC5/cyfitter_cfg.c **** 			0x00u, 0x00u, 0x08u, 0x00u, 0x00u, 0x00u, 0x00u, 0x00u, 0x00u, 0x00u, 0x00u, 0x00u, 0x00u, 0x00u
1188:Generated_Source\PSoC5/cyfitter_cfg.c **** 			0x00u, 0x00u, 0x00u, 0x00u, 0x00u, 0x00u, 0x00u, 0x00u, 0x00u, 0x00u, 0x00u, 0x00u, 0x00u, 0x00u
1189:Generated_Source\PSoC5/cyfitter_cfg.c **** 			0x00u, 0x00u, 0x00u, 0x00u, 0x00u, 0x00u, 0x00u, 0x00u, 0x00u, 0x00u, 0x00u, 0x00u, 0x00u, 0x00u
1190:Generated_Source\PSoC5/cyfitter_cfg.c **** 			0x00u, 0x00u, 0x00u, 0x00u, 0x00u, 0x00u, 0x00u, 0x00u, 0x00u, 0x00u, 0x00u, 0x00u, 0x00u, 0x00u
1191:Generated_Source\PSoC5/cyfitter_cfg.c **** 			0x00u, 0x00u, 0x00u, 0x00u, 0x00u, 0x00u, 0x00u, 0x00u, 0x00u, 0x00u, 0x00u, 0x00u, 0x00u, 0x00u
1192:Generated_Source\PSoC5/cyfitter_cfg.c **** 			0x00u, 0x00u, 0x00u, 0x40u, 0x00u, 0x04u, 0x00u, 0x00u, 0x00u, 0x00u, 0x00u, 0x00u, 0x00u, 0x00u
1193:Generated_Source\PSoC5/cyfitter_cfg.c **** 
1194:Generated_Source\PSoC5/cyfitter_cfg.c **** 		/* DSI3_0_HV_ROUTING Address: CYDEV_UCFG_DSI9_BASE + 0x00000080u Size (bytes): 128 */
1195:Generated_Source\PSoC5/cyfitter_cfg.c **** 		static const uint8 CYCODE BS_DSI3_0_HV_ROUTING_VAL[] = {
1196:Generated_Source\PSoC5/cyfitter_cfg.c **** 			0x00u, 0x00u, 0x00u, 0x00u, 0x00u, 0x00u, 0x00u, 0x00u, 0x00u, 0x00u, 0x00u, 0x00u, 0x00u, 0x00u
1197:Generated_Source\PSoC5/cyfitter_cfg.c **** 			0x00u, 0x00u, 0x00u, 0x40u, 0x00u, 0x00u, 0x00u, 0x80u, 0x00u, 0x04u, 0x00u, 0x00u, 0x00u, 0x00u
1198:Generated_Source\PSoC5/cyfitter_cfg.c **** 			0x00u, 0x00u, 0x00u, 0x00u, 0x00u, 0x00u, 0x08u, 0x40u, 0x00u, 0x00u, 0x10u, 0x00u, 0x00u, 0x00u
1199:Generated_Source\PSoC5/cyfitter_cfg.c **** 			0x00u, 0x00u, 0x00u, 0x00u, 0x00u, 0x00u, 0x20u, 0x02u, 0x00u, 0x00u, 0x00u, 0x00u, 0x00u, 0x00u
1200:Generated_Source\PSoC5/cyfitter_cfg.c **** 			0x00u, 0x00u, 0x00u, 0x00u, 0x30u, 0x00u, 0xC0u, 0x00u, 0x40u, 0x00u, 0x00u, 0x00u, 0x00u, 0x00u
1201:Generated_Source\PSoC5/cyfitter_cfg.c **** 			0x00u, 0x00u, 0x00u, 0x00u, 0x00u, 0x00u, 0x00u, 0x00u, 0x00u, 0x00u, 0x00u, 0x00u, 0x80u, 0x00u
1202:Generated_Source\PSoC5/cyfitter_cfg.c **** 			0x00u, 0x00u, 0x00u, 0x00u, 0x00u, 0x00u, 0x00u, 0x00u, 0x00u, 0x00u, 0x80u, 0x00u, 0x00u, 0x00u
1203:Generated_Source\PSoC5/cyfitter_cfg.c **** 			0x00u, 0x00u, 0x00u, 0x00u, 0x00u, 0x00u, 0x00u, 0x00u, 0x00u, 0x00u, 0x00u, 0x00u, 0x00u, 0x00u
1204:Generated_Source\PSoC5/cyfitter_cfg.c **** 
1205:Generated_Source\PSoC5/cyfitter_cfg.c **** 		/* DSISWITCH_1_1 Address: CYDEV_UCFG_DSI8_BASE Size (bytes): 128 */
1206:Generated_Source\PSoC5/cyfitter_cfg.c **** 		static const uint8 CYCODE BS_DSISWITCH_1_1_VAL[] = {
1207:Generated_Source\PSoC5/cyfitter_cfg.c **** 			0x00u, 0x00u, 0x00u, 0x00u, 0x00u, 0x00u, 0x00u, 0x00u, 0x00u, 0x00u, 0x00u, 0x00u, 0x00u, 0x00u
1208:Generated_Source\PSoC5/cyfitter_cfg.c **** 			0x00u, 0x00u, 0x00u, 0x00u, 0x00u, 0x00u, 0x00u, 0x00u, 0x00u, 0x00u, 0x00u, 0x00u, 0x00u, 0x00u
1209:Generated_Source\PSoC5/cyfitter_cfg.c **** 			0x00u, 0x00u, 0x00u, 0x00u, 0x00u, 0x00u, 0x00u, 0x00u, 0x00u, 0x00u, 0x00u, 0x00u, 0x00u, 0x00u
1210:Generated_Source\PSoC5/cyfitter_cfg.c **** 			0x00u, 0x00u, 0x00u, 0x00u, 0x00u, 0x00u, 0x00u, 0x00u, 0x00u, 0x00u, 0x00u, 0x00u, 0x00u, 0x00u
1211:Generated_Source\PSoC5/cyfitter_cfg.c **** 			0x00u, 0x00u, 0x00u, 0x00u, 0x00u, 0x00u, 0x00u, 0x00u, 0x00u, 0x00u, 0x00u, 0x00u, 0x00u, 0x00u
1212:Generated_Source\PSoC5/cyfitter_cfg.c **** 			0x00u, 0x00u, 0x00u, 0x00u, 0x00u, 0x00u, 0x20u, 0x00u, 0x00u, 0x00u, 0x00u, 0x00u, 0x00u, 0x00u
1213:Generated_Source\PSoC5/cyfitter_cfg.c **** 			0x00u, 0x00u, 0x00u, 0x00u, 0x00u, 0x00u, 0x00u, 0x00u, 0x00u, 0x00u, 0x00u, 0x00u, 0x00u, 0x00u
1214:Generated_Source\PSoC5/cyfitter_cfg.c **** 			0x00u, 0x00u, 0x00u, 0x00u, 0x00u, 0x00u, 0x00u, 0x00u, 0x00u, 0x00u, 0x00u, 0x00u, 0x00u, 0x00u
1215:Generated_Source\PSoC5/cyfitter_cfg.c **** 
1216:Generated_Source\PSoC5/cyfitter_cfg.c **** 		/* DSI3_1_HV_ROUTING Address: CYDEV_UCFG_DSI8_BASE + 0x00000080u Size (bytes): 128 */
1217:Generated_Source\PSoC5/cyfitter_cfg.c **** 		static const uint8 CYCODE BS_DSI3_1_HV_ROUTING_VAL[] = {
1218:Generated_Source\PSoC5/cyfitter_cfg.c **** 			0x00u, 0x00u, 0x00u, 0x40u, 0x00u, 0x00u, 0x00u, 0x40u, 0x00u, 0x08u, 0x40u, 0x00u, 0x00u, 0x04u
1219:Generated_Source\PSoC5/cyfitter_cfg.c **** 			0x00u, 0x00u, 0x00u, 0x00u, 0x00u, 0x00u, 0x10u, 0x00u, 0x00u, 0x00u, 0x00u, 0x00u, 0x00u, 0x00u
1220:Generated_Source\PSoC5/cyfitter_cfg.c **** 			0x00u, 0x00u, 0x00u, 0x00u, 0x00u, 0x08u, 0x00u, 0x00u, 0x00u, 0x00u, 0x00u, 0x10u, 0x40u, 0x00u
1221:Generated_Source\PSoC5/cyfitter_cfg.c **** 			0x00u, 0x00u, 0x00u, 0x00u, 0x00u, 0x00u, 0x00u, 0x00u, 0x00u, 0x00u, 0x00u, 0x00u, 0x00u, 0x00u
1222:Generated_Source\PSoC5/cyfitter_cfg.c **** 			0x00u, 0x00u, 0x00u, 0x00u, 0x00u, 0x00u, 0x00u, 0x00u, 0x00u, 0x00u, 0x00u, 0x00u, 0x00u, 0x00u
ARM GAS  C:\Users\Bruger\AppData\Local\Temp\ccj0lDyf.s 			page 38


1223:Generated_Source\PSoC5/cyfitter_cfg.c **** 			0x00u, 0x00u, 0x00u, 0x00u, 0x40u, 0x00u, 0x00u, 0x00u, 0x00u, 0x00u, 0x00u, 0x00u, 0x00u, 0x00u
1224:Generated_Source\PSoC5/cyfitter_cfg.c **** 			0x30u, 0x00u, 0x00u, 0x00u, 0x00u, 0x00u, 0x00u, 0x00u, 0x00u, 0x00u, 0x40u, 0x00u, 0x00u, 0x00u
1225:Generated_Source\PSoC5/cyfitter_cfg.c **** 			0x00u, 0x00u, 0x00u, 0x00u, 0x00u, 0x00u, 0x00u, 0x00u, 0x00u, 0x00u, 0x00u, 0x00u, 0x00u, 0x00u
1226:Generated_Source\PSoC5/cyfitter_cfg.c **** 
1227:Generated_Source\PSoC5/cyfitter_cfg.c **** 		/* DSISWITCH_1_2 Address: CYDEV_UCFG_DSI3_BASE Size (bytes): 128 */
1228:Generated_Source\PSoC5/cyfitter_cfg.c **** 		static const uint8 CYCODE BS_DSISWITCH_1_2_VAL[] = {
1229:Generated_Source\PSoC5/cyfitter_cfg.c **** 			0x00u, 0x00u, 0x00u, 0x00u, 0x00u, 0x00u, 0x00u, 0x00u, 0x00u, 0x00u, 0x00u, 0x00u, 0x00u, 0x00u
1230:Generated_Source\PSoC5/cyfitter_cfg.c **** 			0x00u, 0x00u, 0x00u, 0x00u, 0x00u, 0x00u, 0x00u, 0x00u, 0x00u, 0x00u, 0x00u, 0x00u, 0x00u, 0x00u
1231:Generated_Source\PSoC5/cyfitter_cfg.c **** 			0x00u, 0x00u, 0x00u, 0x00u, 0x00u, 0x00u, 0x00u, 0x00u, 0x00u, 0x00u, 0x00u, 0x00u, 0x00u, 0x00u
1232:Generated_Source\PSoC5/cyfitter_cfg.c **** 			0x00u, 0x00u, 0x00u, 0x00u, 0x00u, 0x00u, 0x00u, 0x00u, 0x00u, 0x00u, 0x00u, 0x00u, 0x00u, 0x00u
1233:Generated_Source\PSoC5/cyfitter_cfg.c **** 			0x00u, 0x00u, 0x00u, 0x00u, 0x00u, 0x00u, 0x00u, 0x00u, 0x00u, 0x00u, 0x00u, 0x00u, 0x00u, 0x00u
1234:Generated_Source\PSoC5/cyfitter_cfg.c **** 			0x00u, 0x00u, 0x00u, 0x00u, 0x00u, 0x08u, 0x00u, 0x00u, 0x00u, 0x00u, 0x00u, 0x00u, 0x00u, 0x00u
1235:Generated_Source\PSoC5/cyfitter_cfg.c **** 			0x00u, 0x00u, 0x00u, 0x20u, 0x00u, 0x00u, 0x00u, 0x00u, 0x00u, 0x00u, 0x00u, 0x00u, 0x00u, 0x00u
1236:Generated_Source\PSoC5/cyfitter_cfg.c **** 			0x00u, 0x00u, 0x00u, 0x00u, 0x40u, 0x00u, 0x00u, 0x00u, 0x00u, 0x00u, 0x00u, 0x00u, 0x00u, 0x00u
1237:Generated_Source\PSoC5/cyfitter_cfg.c **** 
1238:Generated_Source\PSoC5/cyfitter_cfg.c **** 		/* DSI3_2_HV_ROUTING Address: CYDEV_UCFG_DSI3_BASE + 0x00000080u Size (bytes): 128 */
1239:Generated_Source\PSoC5/cyfitter_cfg.c **** 		static const uint8 CYCODE BS_DSI3_2_HV_ROUTING_VAL[] = {
1240:Generated_Source\PSoC5/cyfitter_cfg.c **** 			0x00u, 0x00u, 0x00u, 0x00u, 0x00u, 0x00u, 0x00u, 0x10u, 0x00u, 0x00u, 0x00u, 0x00u, 0x00u, 0x00u
1241:Generated_Source\PSoC5/cyfitter_cfg.c **** 			0x00u, 0x00u, 0x00u, 0x00u, 0x00u, 0x00u, 0x10u, 0x10u, 0x00u, 0x00u, 0x00u, 0x00u, 0x00u, 0x00u
1242:Generated_Source\PSoC5/cyfitter_cfg.c **** 			0x00u, 0x00u, 0x00u, 0x00u, 0x00u, 0x00u, 0x00u, 0x00u, 0x00u, 0x00u, 0x00u, 0x00u, 0x00u, 0x00u
1243:Generated_Source\PSoC5/cyfitter_cfg.c **** 			0x00u, 0x00u, 0x00u, 0x00u, 0x00u, 0x00u, 0x00u, 0x00u, 0x00u, 0x00u, 0x00u, 0x00u, 0x00u, 0x00u
1244:Generated_Source\PSoC5/cyfitter_cfg.c **** 			0x00u, 0x00u, 0x00u, 0x00u, 0x00u, 0x00u, 0x00u, 0x00u, 0x00u, 0x00u, 0x00u, 0x00u, 0x00u, 0x00u
1245:Generated_Source\PSoC5/cyfitter_cfg.c **** 			0x00u, 0x00u, 0x00u, 0x00u, 0x40u, 0x00u, 0x00u, 0x00u, 0x40u, 0x00u, 0x00u, 0x00u, 0x40u, 0x00u
1246:Generated_Source\PSoC5/cyfitter_cfg.c **** 			0x00u, 0x00u, 0x10u, 0x00u, 0x00u, 0x00u, 0x00u, 0x00u, 0x00u, 0x00u, 0x00u, 0x00u, 0x00u, 0x00u
1247:Generated_Source\PSoC5/cyfitter_cfg.c **** 			0x00u, 0x00u, 0x00u, 0x00u, 0x00u, 0x00u, 0x00u, 0x00u, 0x00u, 0x00u, 0x00u, 0x00u, 0x00u, 0x00u
1248:Generated_Source\PSoC5/cyfitter_cfg.c **** 
1249:Generated_Source\PSoC5/cyfitter_cfg.c **** 		/* DSISWITCH_1_3 Address: CYDEV_UCFG_DSI2_BASE Size (bytes): 128 */
1250:Generated_Source\PSoC5/cyfitter_cfg.c **** 		static const uint8 CYCODE BS_DSISWITCH_1_3_VAL[] = {
1251:Generated_Source\PSoC5/cyfitter_cfg.c **** 			0x00u, 0x00u, 0x00u, 0x00u, 0x00u, 0x00u, 0x00u, 0x00u, 0x00u, 0x00u, 0x00u, 0x00u, 0x00u, 0x00u
1252:Generated_Source\PSoC5/cyfitter_cfg.c **** 			0x00u, 0x00u, 0x80u, 0x00u, 0x80u, 0x00u, 0x00u, 0x00u, 0x00u, 0x00u, 0x00u, 0x00u, 0x00u, 0x00u
1253:Generated_Source\PSoC5/cyfitter_cfg.c **** 			0x00u, 0x00u, 0x00u, 0x00u, 0x00u, 0x00u, 0x00u, 0x00u, 0x00u, 0x00u, 0x00u, 0x00u, 0x00u, 0x00u
1254:Generated_Source\PSoC5/cyfitter_cfg.c **** 			0x00u, 0x00u, 0x20u, 0x00u, 0x00u, 0x00u, 0x40u, 0x08u, 0x00u, 0x00u, 0x00u, 0x00u, 0x00u, 0x00u
1255:Generated_Source\PSoC5/cyfitter_cfg.c **** 			0x00u, 0x00u, 0x00u, 0x00u, 0x00u, 0x00u, 0x00u, 0x00u, 0x00u, 0x00u, 0x00u, 0x00u, 0x00u, 0x00u
1256:Generated_Source\PSoC5/cyfitter_cfg.c **** 			0x00u, 0x00u, 0x00u, 0x00u, 0x00u, 0x00u, 0x00u, 0x00u, 0x00u, 0x00u, 0x00u, 0x00u, 0x00u, 0x00u
1257:Generated_Source\PSoC5/cyfitter_cfg.c **** 			0x00u, 0x00u, 0x00u, 0x00u, 0x00u, 0x00u, 0x00u, 0x00u, 0x00u, 0x00u, 0x00u, 0x00u, 0x00u, 0x00u
1258:Generated_Source\PSoC5/cyfitter_cfg.c **** 			0x00u, 0x00u, 0x00u, 0x00u, 0x00u, 0x00u, 0x00u, 0x00u, 0x00u, 0x00u, 0x00u, 0x00u, 0x00u, 0x00u
1259:Generated_Source\PSoC5/cyfitter_cfg.c **** 
1260:Generated_Source\PSoC5/cyfitter_cfg.c **** 		/* DSI3_3_HV_ROUTING Address: CYDEV_UCFG_DSI2_BASE + 0x00000080u Size (bytes): 128 */
1261:Generated_Source\PSoC5/cyfitter_cfg.c **** 		static const uint8 CYCODE BS_DSI3_3_HV_ROUTING_VAL[] = {
1262:Generated_Source\PSoC5/cyfitter_cfg.c **** 			0x00u, 0x00u, 0x00u, 0x08u, 0x00u, 0x00u, 0x40u, 0x00u, 0x00u, 0x00u, 0x00u, 0x00u, 0x80u, 0x00u
1263:Generated_Source\PSoC5/cyfitter_cfg.c **** 			0x00u, 0x00u, 0x00u, 0x00u, 0x00u, 0x00u, 0x00u, 0x50u, 0x00u, 0x00u, 0x00u, 0x00u, 0x80u, 0x00u
1264:Generated_Source\PSoC5/cyfitter_cfg.c **** 			0x00u, 0x00u, 0x20u, 0x00u, 0x80u, 0x00u, 0x81u, 0x00u, 0x08u, 0x00u, 0x00u, 0x00u, 0x00u, 0x00u
1265:Generated_Source\PSoC5/cyfitter_cfg.c **** 			0x00u, 0x00u, 0x00u, 0x00u, 0x00u, 0x00u, 0x00u, 0x00u, 0x00u, 0x00u, 0x00u, 0x00u, 0x00u, 0x00u
1266:Generated_Source\PSoC5/cyfitter_cfg.c **** 			0x00u, 0x00u, 0x00u, 0x00u, 0x30u, 0x00u, 0x00u, 0x00u, 0x00u, 0x00u, 0x00u, 0x00u, 0xB0u, 0x00u
1267:Generated_Source\PSoC5/cyfitter_cfg.c **** 			0x00u, 0x00u, 0x00u, 0x00u, 0x00u, 0x00u, 0x00u, 0x00u, 0x00u, 0x00u, 0x00u, 0x00u, 0x00u, 0x00u
1268:Generated_Source\PSoC5/cyfitter_cfg.c **** 			0x00u, 0x00u, 0x20u, 0x00u, 0x00u, 0x00u, 0x40u, 0x00u, 0x00u, 0x00u, 0x90u, 0x00u, 0x00u, 0x00u
1269:Generated_Source\PSoC5/cyfitter_cfg.c **** 			0x00u, 0x00u, 0x00u, 0x00u, 0x00u, 0x00u, 0x00u, 0x00u, 0x00u, 0x00u, 0x00u, 0x00u, 0x00u, 0x00u
1270:Generated_Source\PSoC5/cyfitter_cfg.c **** 
1271:Generated_Source\PSoC5/cyfitter_cfg.c **** 		/* DSISWITCH_1_4 Address: CYDEV_UCFG_DSI1_BASE Size (bytes): 128 */
1272:Generated_Source\PSoC5/cyfitter_cfg.c **** 		static const uint8 CYCODE BS_DSISWITCH_1_4_VAL[] = {
1273:Generated_Source\PSoC5/cyfitter_cfg.c **** 			0x00u, 0x00u, 0x00u, 0x00u, 0x00u, 0x00u, 0x00u, 0x00u, 0x00u, 0x00u, 0x00u, 0x00u, 0x00u, 0x00u
1274:Generated_Source\PSoC5/cyfitter_cfg.c **** 			0x00u, 0x00u, 0x00u, 0x00u, 0x00u, 0x00u, 0x00u, 0x00u, 0x00u, 0x00u, 0x00u, 0x00u, 0x00u, 0x00u
1275:Generated_Source\PSoC5/cyfitter_cfg.c **** 			0x00u, 0x00u, 0x00u, 0x00u, 0x00u, 0x00u, 0x00u, 0x00u, 0x00u, 0x00u, 0x00u, 0x00u, 0x00u, 0x00u
1276:Generated_Source\PSoC5/cyfitter_cfg.c **** 			0x88u, 0x00u, 0x00u, 0x00u, 0x00u, 0x00u, 0x00u, 0x08u, 0x00u, 0x00u, 0x00u, 0x40u, 0x00u, 0x00u
1277:Generated_Source\PSoC5/cyfitter_cfg.c **** 			0x00u, 0x00u, 0x00u, 0x00u, 0x00u, 0x00u, 0x00u, 0x00u, 0x00u, 0x00u, 0x00u, 0x00u, 0x00u, 0x00u
1278:Generated_Source\PSoC5/cyfitter_cfg.c **** 			0x00u, 0x00u, 0x00u, 0x00u, 0x00u, 0x00u, 0x00u, 0x00u, 0x00u, 0x00u, 0x00u, 0x00u, 0x00u, 0x00u
1279:Generated_Source\PSoC5/cyfitter_cfg.c **** 			0x00u, 0x00u, 0x00u, 0x00u, 0x00u, 0x00u, 0x00u, 0x00u, 0x00u, 0x00u, 0x00u, 0x00u, 0x00u, 0x00u
ARM GAS  C:\Users\Bruger\AppData\Local\Temp\ccj0lDyf.s 			page 39


1280:Generated_Source\PSoC5/cyfitter_cfg.c **** 			0x00u, 0x00u, 0x00u, 0x00u, 0x00u, 0x00u, 0x00u, 0x00u, 0x00u, 0x00u, 0x00u, 0x00u, 0x00u, 0x00u
1281:Generated_Source\PSoC5/cyfitter_cfg.c **** 
1282:Generated_Source\PSoC5/cyfitter_cfg.c **** 		/* DSI3_4_HV_ROUTING Address: CYDEV_UCFG_DSI1_BASE + 0x00000080u Size (bytes): 128 */
1283:Generated_Source\PSoC5/cyfitter_cfg.c **** 		static const uint8 CYCODE BS_DSI3_4_HV_ROUTING_VAL[] = {
1284:Generated_Source\PSoC5/cyfitter_cfg.c **** 			0x00u, 0x00u, 0x00u, 0x00u, 0x00u, 0x00u, 0x20u, 0x00u, 0x00u, 0x00u, 0x00u, 0x00u, 0x00u, 0x00u
1285:Generated_Source\PSoC5/cyfitter_cfg.c **** 			0x00u, 0x00u, 0x00u, 0x00u, 0x00u, 0x00u, 0x00u, 0x10u, 0x00u, 0x00u, 0x00u, 0x00u, 0x80u, 0x00u
1286:Generated_Source\PSoC5/cyfitter_cfg.c **** 			0x00u, 0x00u, 0x00u, 0x00u, 0x00u, 0x00u, 0x81u, 0x00u, 0x00u, 0x00u, 0x00u, 0x00u, 0x00u, 0x00u
1287:Generated_Source\PSoC5/cyfitter_cfg.c **** 			0x00u, 0x00u, 0x00u, 0x00u, 0x00u, 0x00u, 0x00u, 0x00u, 0x00u, 0x00u, 0x00u, 0x00u, 0x00u, 0x00u
1288:Generated_Source\PSoC5/cyfitter_cfg.c **** 			0x00u, 0x00u, 0x00u, 0x00u, 0x00u, 0x00u, 0x00u, 0x00u, 0x00u, 0x00u, 0x00u, 0x00u, 0xD0u, 0x00u
1289:Generated_Source\PSoC5/cyfitter_cfg.c **** 			0x00u, 0x00u, 0x00u, 0x00u, 0x00u, 0x00u, 0x00u, 0x00u, 0x00u, 0x00u, 0x00u, 0x00u, 0x00u, 0x00u
1290:Generated_Source\PSoC5/cyfitter_cfg.c **** 			0x00u, 0x00u, 0x00u, 0x00u, 0x00u, 0x00u, 0x40u, 0x00u, 0x00u, 0x00u, 0x00u, 0x00u, 0x00u, 0x00u
1291:Generated_Source\PSoC5/cyfitter_cfg.c **** 			0x00u, 0x00u, 0x00u, 0x00u, 0x00u, 0x00u, 0x00u, 0x00u, 0x00u, 0x00u, 0x00u, 0x00u, 0x00u, 0x00u
1292:Generated_Source\PSoC5/cyfitter_cfg.c **** 
1293:Generated_Source\PSoC5/cyfitter_cfg.c **** 		/* DSISWITCH_1_5 Address: CYDEV_UCFG_DSI0_BASE Size (bytes): 128 */
1294:Generated_Source\PSoC5/cyfitter_cfg.c **** 		static const uint8 CYCODE BS_DSISWITCH_1_5_VAL[] = {
1295:Generated_Source\PSoC5/cyfitter_cfg.c **** 			0x00u, 0x00u, 0x00u, 0x00u, 0x00u, 0x00u, 0x00u, 0x00u, 0x00u, 0x00u, 0x00u, 0x00u, 0x00u, 0x00u
1296:Generated_Source\PSoC5/cyfitter_cfg.c **** 			0x00u, 0x00u, 0x00u, 0x00u, 0x00u, 0x00u, 0x00u, 0x00u, 0x00u, 0x00u, 0x00u, 0x00u, 0x00u, 0x00u
1297:Generated_Source\PSoC5/cyfitter_cfg.c **** 			0x00u, 0x00u, 0x00u, 0x00u, 0x00u, 0x00u, 0x00u, 0x00u, 0x00u, 0x00u, 0x00u, 0x00u, 0x00u, 0x00u
1298:Generated_Source\PSoC5/cyfitter_cfg.c **** 			0x00u, 0x00u, 0x80u, 0x08u, 0x80u, 0x00u, 0x01u, 0x00u, 0x00u, 0x00u, 0x00u, 0x10u, 0x00u, 0x00u
1299:Generated_Source\PSoC5/cyfitter_cfg.c **** 			0x00u, 0x00u, 0x00u, 0x00u, 0x00u, 0x00u, 0x00u, 0x00u, 0x00u, 0x00u, 0x00u, 0x00u, 0x00u, 0x00u
1300:Generated_Source\PSoC5/cyfitter_cfg.c **** 			0x00u, 0x00u, 0x00u, 0x00u, 0x00u, 0x00u, 0x00u, 0x00u, 0x00u, 0x00u, 0x00u, 0x00u, 0x00u, 0x00u
1301:Generated_Source\PSoC5/cyfitter_cfg.c **** 			0x00u, 0x00u, 0x00u, 0x00u, 0x00u, 0x00u, 0x00u, 0x00u, 0x00u, 0x00u, 0x00u, 0x00u, 0x00u, 0x00u
1302:Generated_Source\PSoC5/cyfitter_cfg.c **** 			0x00u, 0x00u, 0x00u, 0x00u, 0x00u, 0x00u, 0x00u, 0x00u, 0x00u, 0x00u, 0x00u, 0x00u, 0x00u, 0x00u
1303:Generated_Source\PSoC5/cyfitter_cfg.c **** 
1304:Generated_Source\PSoC5/cyfitter_cfg.c **** 		/* DSI3_5_HV_ROUTING Address: CYDEV_UCFG_DSI0_BASE + 0x00000080u Size (bytes): 128 */
1305:Generated_Source\PSoC5/cyfitter_cfg.c **** 		static const uint8 CYCODE BS_DSI3_5_HV_ROUTING_VAL[] = {
1306:Generated_Source\PSoC5/cyfitter_cfg.c **** 			0x00u, 0x00u, 0x00u, 0x00u, 0x00u, 0x00u, 0x00u, 0x00u, 0x00u, 0x00u, 0x00u, 0x00u, 0x00u, 0x00u
1307:Generated_Source\PSoC5/cyfitter_cfg.c **** 			0x00u, 0x00u, 0x00u, 0x00u, 0x00u, 0x00u, 0x00u, 0x00u, 0x00u, 0x00u, 0x00u, 0x00u, 0x00u, 0x00u
1308:Generated_Source\PSoC5/cyfitter_cfg.c **** 			0x00u, 0x00u, 0x00u, 0x00u, 0x00u, 0x00u, 0x00u, 0x00u, 0x00u, 0x00u, 0x00u, 0x00u, 0x00u, 0x00u
1309:Generated_Source\PSoC5/cyfitter_cfg.c **** 			0x00u, 0x00u, 0x00u, 0x00u, 0x00u, 0x00u, 0x00u, 0x00u, 0x00u, 0x00u, 0x00u, 0x00u, 0x00u, 0x00u
1310:Generated_Source\PSoC5/cyfitter_cfg.c **** 			0x00u, 0x00u, 0x00u, 0x00u, 0x00u, 0x00u, 0x00u, 0x00u, 0x00u, 0x00u, 0x00u, 0x00u, 0xF0u, 0x00u
1311:Generated_Source\PSoC5/cyfitter_cfg.c **** 			0x00u, 0x00u, 0x00u, 0x00u, 0x00u, 0x00u, 0x00u, 0x00u, 0x00u, 0x00u, 0x00u, 0x00u, 0x00u, 0x00u
1312:Generated_Source\PSoC5/cyfitter_cfg.c **** 			0x00u, 0x00u, 0x00u, 0x00u, 0x00u, 0x00u, 0x00u, 0x00u, 0x00u, 0x00u, 0x00u, 0x00u, 0x00u, 0x00u
1313:Generated_Source\PSoC5/cyfitter_cfg.c **** 			0x00u, 0x00u, 0x00u, 0x00u, 0x00u, 0x00u, 0x00u, 0x00u, 0x00u, 0x00u, 0x00u, 0x00u, 0x00u, 0x00u
1314:Generated_Source\PSoC5/cyfitter_cfg.c **** 
1315:Generated_Source\PSoC5/cyfitter_cfg.c **** 		static const cfg_memcpy_t CYCODE cfg_memcpy_list [] = {
1316:Generated_Source\PSoC5/cyfitter_cfg.c **** 			/* dest, src, size */
1317:Generated_Source\PSoC5/cyfitter_cfg.c **** 			{(void CYFAR *)(CYDEV_PRTDSI_PRT1_BASE), BS_IOPORT_1_VAL, 7u},
1318:Generated_Source\PSoC5/cyfitter_cfg.c **** 			{(void CYFAR *)(CYDEV_PRTDSI_PRT2_BASE), BS_IOPORT_2_VAL, 7u},
1319:Generated_Source\PSoC5/cyfitter_cfg.c **** 			{(void CYFAR *)(CYDEV_PICU_INTTYPE_PICU2_BASE), BS_PICU_2_VAL, 8u},
1320:Generated_Source\PSoC5/cyfitter_cfg.c **** 			{(void CYFAR *)(CYDEV_PRTDSI_PRT3_BASE), BS_IOPORT_3_VAL, 7u},
1321:Generated_Source\PSoC5/cyfitter_cfg.c **** 			{(void CYFAR *)(CYDEV_PRTDSI_PRT12_BASE), BS_IOPORT_7_VAL, 6u},
1322:Generated_Source\PSoC5/cyfitter_cfg.c **** 			{(void CYFAR *)(CYDEV_PRTDSI_PRT15_BASE), BS_IOPORT_8_VAL, 7u},
1323:Generated_Source\PSoC5/cyfitter_cfg.c **** 			{(void CYFAR *)(CYDEV_PICU_INTTYPE_PICU15_BASE), BS_PICU_8_VAL, 8u},
1324:Generated_Source\PSoC5/cyfitter_cfg.c **** 			{(void CYFAR *)(CYREG_IDMUX_IRQ_CTL0), BS_IDMUX_IRQ_VAL, 8u},
1325:Generated_Source\PSoC5/cyfitter_cfg.c **** 			{(void CYFAR *)(CYREG_TMR0_CFG0), BS_TMR0_VAL, 12u},
1326:Generated_Source\PSoC5/cyfitter_cfg.c **** 			{(void CYFAR *)(CYREG_TMR1_CFG0), BS_TMR1_VAL, 12u},
1327:Generated_Source\PSoC5/cyfitter_cfg.c **** 			{(void CYFAR *)(CYREG_SAR0_SW0), BS_SAR0_VAL, 8u},
1328:Generated_Source\PSoC5/cyfitter_cfg.c **** 			{(void CYFAR *)(CYDEV_UCFG_B0_P0_U0_BASE), BS_UDB_1_5_0_CONFIG_VAL, 128u},
1329:Generated_Source\PSoC5/cyfitter_cfg.c **** 			{(void CYFAR *)(CYDEV_UCFG_B0_P0_U1_BASE), BS_UDB_1_5_1_CONFIG_VAL, 128u},
1330:Generated_Source\PSoC5/cyfitter_cfg.c **** 			{(void CYFAR *)(CYDEV_UCFG_B0_P1_U0_BASE), BS_UDB_1_4_1_CONFIG_VAL, 128u},
1331:Generated_Source\PSoC5/cyfitter_cfg.c **** 			{(void CYFAR *)(CYDEV_UCFG_B0_P1_U1_BASE), BS_UDB_1_4_0_CONFIG_VAL, 128u},
1332:Generated_Source\PSoC5/cyfitter_cfg.c **** 			{(void CYFAR *)(CYDEV_UCFG_B0_P2_U0_BASE), BS_UDB_1_3_0_CONFIG_VAL, 128u},
1333:Generated_Source\PSoC5/cyfitter_cfg.c **** 			{(void CYFAR *)(CYDEV_UCFG_B0_P2_U1_BASE), BS_UDB_1_3_1_CONFIG_VAL, 128u},
1334:Generated_Source\PSoC5/cyfitter_cfg.c **** 			{(void CYFAR *)(CYDEV_UCFG_B0_P3_U0_BASE), BS_UDB_1_2_1_CONFIG_VAL, 128u},
1335:Generated_Source\PSoC5/cyfitter_cfg.c **** 			{(void CYFAR *)(CYDEV_UCFG_B0_P3_U1_BASE), BS_UDB_1_2_0_CONFIG_VAL, 128u},
1336:Generated_Source\PSoC5/cyfitter_cfg.c **** 			{(void CYFAR *)(CYDEV_UCFG_B0_P4_U0_BASE), BS_UDB_0_2_1_CONFIG_VAL, 128u},
ARM GAS  C:\Users\Bruger\AppData\Local\Temp\ccj0lDyf.s 			page 40


1337:Generated_Source\PSoC5/cyfitter_cfg.c **** 			{(void CYFAR *)(CYDEV_UCFG_B0_P4_U1_BASE), BS_UDB_0_2_0_CONFIG_VAL, 128u},
1338:Generated_Source\PSoC5/cyfitter_cfg.c **** 			{(void CYFAR *)(CYDEV_UCFG_B0_P5_U0_BASE), BS_UDB_0_3_0_CONFIG_VAL, 128u},
1339:Generated_Source\PSoC5/cyfitter_cfg.c **** 			{(void CYFAR *)(CYDEV_UCFG_B0_P5_U1_BASE), BS_UDB_0_3_1_CONFIG_VAL, 128u},
1340:Generated_Source\PSoC5/cyfitter_cfg.c **** 			{(void CYFAR *)(CYDEV_UCFG_B0_P6_U0_BASE), BS_UDB_0_4_1_CONFIG_VAL, 128u},
1341:Generated_Source\PSoC5/cyfitter_cfg.c **** 			{(void CYFAR *)(CYDEV_UCFG_B0_P6_U1_BASE), BS_UDB_0_4_0_CONFIG_VAL, 128u},
1342:Generated_Source\PSoC5/cyfitter_cfg.c **** 			{(void CYFAR *)(CYDEV_UCFG_B0_P7_U0_BASE), BS_UDB_0_5_0_CONFIG_VAL, 128u},
1343:Generated_Source\PSoC5/cyfitter_cfg.c **** 			{(void CYFAR *)(CYDEV_UCFG_B0_P7_U1_BASE), BS_UDB_0_5_1_CONFIG_VAL, 128u},
1344:Generated_Source\PSoC5/cyfitter_cfg.c **** 			{(void CYFAR *)(CYDEV_UCFG_B1_P2_U0_BASE), BS_UDB_1_0_0_CONFIG_VAL, 128u},
1345:Generated_Source\PSoC5/cyfitter_cfg.c **** 			{(void CYFAR *)(CYDEV_UCFG_B1_P2_U1_BASE), BS_UDB_1_0_1_CONFIG_VAL, 128u},
1346:Generated_Source\PSoC5/cyfitter_cfg.c **** 			{(void CYFAR *)(CYDEV_UCFG_B1_P3_U0_BASE), BS_UDB_1_1_1_CONFIG_VAL, 128u},
1347:Generated_Source\PSoC5/cyfitter_cfg.c **** 			{(void CYFAR *)(CYDEV_UCFG_B1_P3_U1_BASE), BS_UDB_1_1_0_CONFIG_VAL, 128u},
1348:Generated_Source\PSoC5/cyfitter_cfg.c **** 			{(void CYFAR *)(CYDEV_UCFG_B1_P4_U0_BASE), BS_UDB_0_1_1_CONFIG_VAL, 128u},
1349:Generated_Source\PSoC5/cyfitter_cfg.c **** 			{(void CYFAR *)(CYDEV_UCFG_B1_P4_U1_BASE), BS_UDB_0_1_0_CONFIG_VAL, 128u},
1350:Generated_Source\PSoC5/cyfitter_cfg.c **** 			{(void CYFAR *)(CYDEV_UCFG_B1_P5_U0_BASE), BS_UDB_0_0_0_CONFIG_VAL, 128u},
1351:Generated_Source\PSoC5/cyfitter_cfg.c **** 			{(void CYFAR *)(CYDEV_UCFG_B1_P5_U1_BASE), BS_UDB_0_0_1_CONFIG_VAL, 128u},
1352:Generated_Source\PSoC5/cyfitter_cfg.c **** 			{(void CYFAR *)(CYDEV_UWRK_UWRK8_B0_BASE + 0x00000070u), BS_UWRK_B0_WRK_STATCTL_BITS_VAL, 32u},
1353:Generated_Source\PSoC5/cyfitter_cfg.c **** 			{(void CYFAR *)(CYDEV_UWRK_UWRK8_B1_BASE + 0x00000070u), BS_UWRK_B1_WRK_STATCTL_BITS_VAL, 32u},
1354:Generated_Source\PSoC5/cyfitter_cfg.c **** 			{(void CYFAR *)(CYREG_BCTL1_MDCLK_EN), BS_UCFG_BCTL1_VAL, 16u},
1355:Generated_Source\PSoC5/cyfitter_cfg.c **** 			{(void CYFAR *)(CYREG_BCTL0_MDCLK_EN), BS_UCFG_BCTL0_VAL, 16u},
1356:Generated_Source\PSoC5/cyfitter_cfg.c **** 			{(void CYFAR *)(CYDEV_UCFG_DSI13_BASE), BS_DSISWITCH_0_0_VAL, 128u},
1357:Generated_Source\PSoC5/cyfitter_cfg.c **** 			{(void CYFAR *)(CYDEV_UCFG_DSI13_BASE + 0x00000080u), BS_DSI0_0_HV_ROUTING_VAL, 128u},
1358:Generated_Source\PSoC5/cyfitter_cfg.c **** 			{(void CYFAR *)(CYDEV_UCFG_DSI12_BASE), BS_DSISWITCH_0_1_VAL, 128u},
1359:Generated_Source\PSoC5/cyfitter_cfg.c **** 			{(void CYFAR *)(CYDEV_UCFG_DSI12_BASE + 0x00000080u), BS_DSI0_1_HV_ROUTING_VAL, 128u},
1360:Generated_Source\PSoC5/cyfitter_cfg.c **** 			{(void CYFAR *)(CYDEV_UCFG_DSI7_BASE), BS_DSISWITCH_0_2_VAL, 128u},
1361:Generated_Source\PSoC5/cyfitter_cfg.c **** 			{(void CYFAR *)(CYDEV_UCFG_DSI7_BASE + 0x00000080u), BS_DSI0_2_HV_ROUTING_VAL, 128u},
1362:Generated_Source\PSoC5/cyfitter_cfg.c **** 			{(void CYFAR *)(CYDEV_UCFG_DSI6_BASE), BS_DSISWITCH_0_3_VAL, 128u},
1363:Generated_Source\PSoC5/cyfitter_cfg.c **** 			{(void CYFAR *)(CYDEV_UCFG_DSI6_BASE + 0x00000080u), BS_DSI0_3_HV_ROUTING_VAL, 128u},
1364:Generated_Source\PSoC5/cyfitter_cfg.c **** 			{(void CYFAR *)(CYDEV_UCFG_DSI5_BASE), BS_DSISWITCH_0_4_VAL, 128u},
1365:Generated_Source\PSoC5/cyfitter_cfg.c **** 			{(void CYFAR *)(CYDEV_UCFG_DSI5_BASE + 0x00000080u), BS_DSI0_4_HV_ROUTING_VAL, 128u},
1366:Generated_Source\PSoC5/cyfitter_cfg.c **** 			{(void CYFAR *)(CYDEV_UCFG_DSI4_BASE + 0x00000080u), BS_DSI0_5_HV_ROUTING_VAL, 128u},
1367:Generated_Source\PSoC5/cyfitter_cfg.c **** 			{(void CYFAR *)(CYDEV_UCFG_B1_P5_ROUTE_BASE), BS_UDBSWITCH_0_0_VAL, 128u},
1368:Generated_Source\PSoC5/cyfitter_cfg.c **** 			{(void CYFAR *)(CYDEV_UCFG_B1_P5_ROUTE_BASE + 0x00000080u), BS_UDB_1_0_HV_ROUTING_VAL, 128u},
1369:Generated_Source\PSoC5/cyfitter_cfg.c **** 			{(void CYFAR *)(CYDEV_UCFG_B1_P2_ROUTE_BASE), BS_UDBSWITCH_1_0_VAL, 128u},
1370:Generated_Source\PSoC5/cyfitter_cfg.c **** 			{(void CYFAR *)(CYDEV_UCFG_B1_P2_ROUTE_BASE + 0x00000080u), BS_UDB_2_0_HV_ROUTING_VAL, 128u},
1371:Generated_Source\PSoC5/cyfitter_cfg.c **** 			{(void CYFAR *)(CYDEV_UCFG_B1_P4_ROUTE_BASE), BS_UDBSWITCH_0_1_VAL, 128u},
1372:Generated_Source\PSoC5/cyfitter_cfg.c **** 			{(void CYFAR *)(CYDEV_UCFG_B1_P4_ROUTE_BASE + 0x00000080u), BS_UDB_1_1_HV_ROUTING_VAL, 128u},
1373:Generated_Source\PSoC5/cyfitter_cfg.c **** 			{(void CYFAR *)(CYDEV_UCFG_B1_P3_ROUTE_BASE), BS_UDBSWITCH_1_1_VAL, 128u},
1374:Generated_Source\PSoC5/cyfitter_cfg.c **** 			{(void CYFAR *)(CYDEV_UCFG_B1_P3_ROUTE_BASE + 0x00000080u), BS_UDB_2_1_HV_ROUTING_VAL, 128u},
1375:Generated_Source\PSoC5/cyfitter_cfg.c **** 			{(void CYFAR *)(CYDEV_UCFG_B0_P4_ROUTE_BASE), BS_UDBSWITCH_0_2_VAL, 128u},
1376:Generated_Source\PSoC5/cyfitter_cfg.c **** 			{(void CYFAR *)(CYDEV_UCFG_B0_P4_ROUTE_BASE + 0x00000080u), BS_UDB_1_2_HV_ROUTING_VAL, 128u},
1377:Generated_Source\PSoC5/cyfitter_cfg.c **** 			{(void CYFAR *)(CYDEV_UCFG_B0_P3_ROUTE_BASE), BS_UDBSWITCH_1_2_VAL, 128u},
1378:Generated_Source\PSoC5/cyfitter_cfg.c **** 			{(void CYFAR *)(CYDEV_UCFG_B0_P3_ROUTE_BASE + 0x00000080u), BS_UDB_2_2_HV_ROUTING_VAL, 128u},
1379:Generated_Source\PSoC5/cyfitter_cfg.c **** 			{(void CYFAR *)(CYDEV_UCFG_B0_P5_ROUTE_BASE), BS_UDBSWITCH_0_3_VAL, 128u},
1380:Generated_Source\PSoC5/cyfitter_cfg.c **** 			{(void CYFAR *)(CYDEV_UCFG_B0_P5_ROUTE_BASE + 0x00000080u), BS_UDB_1_3_HV_ROUTING_VAL, 128u},
1381:Generated_Source\PSoC5/cyfitter_cfg.c **** 			{(void CYFAR *)(CYDEV_UCFG_B0_P2_ROUTE_BASE), BS_UDBSWITCH_1_3_VAL, 128u},
1382:Generated_Source\PSoC5/cyfitter_cfg.c **** 			{(void CYFAR *)(CYDEV_UCFG_B0_P2_ROUTE_BASE + 0x00000080u), BS_UDB_2_3_HV_ROUTING_VAL, 128u},
1383:Generated_Source\PSoC5/cyfitter_cfg.c **** 			{(void CYFAR *)(CYDEV_UCFG_B0_P6_ROUTE_BASE), BS_UDBSWITCH_0_4_VAL, 128u},
1384:Generated_Source\PSoC5/cyfitter_cfg.c **** 			{(void CYFAR *)(CYDEV_UCFG_B0_P6_ROUTE_BASE + 0x00000080u), BS_UDB_1_4_HV_ROUTING_VAL, 128u},
1385:Generated_Source\PSoC5/cyfitter_cfg.c **** 			{(void CYFAR *)(CYDEV_UCFG_B0_P1_ROUTE_BASE), BS_UDBSWITCH_1_4_VAL, 128u},
1386:Generated_Source\PSoC5/cyfitter_cfg.c **** 			{(void CYFAR *)(CYDEV_UCFG_B0_P1_ROUTE_BASE + 0x00000080u), BS_UDB_2_4_HV_ROUTING_VAL, 128u},
1387:Generated_Source\PSoC5/cyfitter_cfg.c **** 			{(void CYFAR *)(CYDEV_UCFG_B0_P7_ROUTE_BASE), BS_UDBSWITCH_0_5_VAL, 128u},
1388:Generated_Source\PSoC5/cyfitter_cfg.c **** 			{(void CYFAR *)(CYDEV_UCFG_B0_P7_ROUTE_BASE + 0x00000080u), BS_UDB_1_5_HV_ROUTING_VAL, 128u},
1389:Generated_Source\PSoC5/cyfitter_cfg.c **** 			{(void CYFAR *)(CYDEV_UCFG_B0_P0_ROUTE_BASE), BS_UDBSWITCH_1_5_VAL, 128u},
1390:Generated_Source\PSoC5/cyfitter_cfg.c **** 			{(void CYFAR *)(CYDEV_UCFG_B0_P0_ROUTE_BASE + 0x00000080u), BS_UDB_2_5_HV_ROUTING_VAL, 128u},
1391:Generated_Source\PSoC5/cyfitter_cfg.c **** 			{(void CYFAR *)(CYDEV_UCFG_DSI9_BASE), BS_DSISWITCH_1_0_VAL, 128u},
1392:Generated_Source\PSoC5/cyfitter_cfg.c **** 			{(void CYFAR *)(CYDEV_UCFG_DSI9_BASE + 0x00000080u), BS_DSI3_0_HV_ROUTING_VAL, 128u},
1393:Generated_Source\PSoC5/cyfitter_cfg.c **** 			{(void CYFAR *)(CYDEV_UCFG_DSI8_BASE), BS_DSISWITCH_1_1_VAL, 128u},
ARM GAS  C:\Users\Bruger\AppData\Local\Temp\ccj0lDyf.s 			page 41


1394:Generated_Source\PSoC5/cyfitter_cfg.c **** 			{(void CYFAR *)(CYDEV_UCFG_DSI8_BASE + 0x00000080u), BS_DSI3_1_HV_ROUTING_VAL, 128u},
1395:Generated_Source\PSoC5/cyfitter_cfg.c **** 			{(void CYFAR *)(CYDEV_UCFG_DSI3_BASE), BS_DSISWITCH_1_2_VAL, 128u},
1396:Generated_Source\PSoC5/cyfitter_cfg.c **** 			{(void CYFAR *)(CYDEV_UCFG_DSI3_BASE + 0x00000080u), BS_DSI3_2_HV_ROUTING_VAL, 128u},
1397:Generated_Source\PSoC5/cyfitter_cfg.c **** 			{(void CYFAR *)(CYDEV_UCFG_DSI2_BASE), BS_DSISWITCH_1_3_VAL, 128u},
1398:Generated_Source\PSoC5/cyfitter_cfg.c **** 			{(void CYFAR *)(CYDEV_UCFG_DSI2_BASE + 0x00000080u), BS_DSI3_3_HV_ROUTING_VAL, 128u},
1399:Generated_Source\PSoC5/cyfitter_cfg.c **** 			{(void CYFAR *)(CYDEV_UCFG_DSI1_BASE), BS_DSISWITCH_1_4_VAL, 128u},
1400:Generated_Source\PSoC5/cyfitter_cfg.c **** 			{(void CYFAR *)(CYDEV_UCFG_DSI1_BASE + 0x00000080u), BS_DSI3_4_HV_ROUTING_VAL, 128u},
1401:Generated_Source\PSoC5/cyfitter_cfg.c **** 			{(void CYFAR *)(CYDEV_UCFG_DSI0_BASE), BS_DSISWITCH_1_5_VAL, 128u},
1402:Generated_Source\PSoC5/cyfitter_cfg.c **** 			{(void CYFAR *)(CYDEV_UCFG_DSI0_BASE + 0x00000080u), BS_DSI3_5_HV_ROUTING_VAL, 128u},
1403:Generated_Source\PSoC5/cyfitter_cfg.c **** 		};
1404:Generated_Source\PSoC5/cyfitter_cfg.c **** 
1405:Generated_Source\PSoC5/cyfitter_cfg.c **** 		uint8 CYDATA i;
1406:Generated_Source\PSoC5/cyfitter_cfg.c **** 
1407:Generated_Source\PSoC5/cyfitter_cfg.c **** 		/* Zero out critical memory blocks before beginning configuration */
1408:Generated_Source\PSoC5/cyfitter_cfg.c **** 		for (i = 0u; i < (sizeof(cfg_memset_list)/sizeof(cfg_memset_list[0])); i++)
 885              		.loc 1 1408 0
 886 0018 0023     		movs	r3, #0
 887 001a FB75     		strb	r3, [r7, #23]
 888 001c 13E0     		b	.L31
 889              	.L32:
 890              	.LBB3:
1409:Generated_Source\PSoC5/cyfitter_cfg.c **** 		{
1410:Generated_Source\PSoC5/cyfitter_cfg.c **** 			const cfg_memset_t CYCODE * CYDATA ms = &cfg_memset_list[i];
 891              		.loc 1 1410 0 discriminator 3
 892 001e FA7D     		ldrb	r2, [r7, #23]	@ zero_extendqisi2
 893 0020 1346     		mov	r3, r2
 894 0022 5B00     		lsls	r3, r3, #1
 895 0024 1344     		add	r3, r3, r2
 896 0026 5B00     		lsls	r3, r3, #1
 897 0028 474A     		ldr	r2, .L35+4
 898 002a 1344     		add	r3, r3, r2
 899 002c 3B61     		str	r3, [r7, #16]
1411:Generated_Source\PSoC5/cyfitter_cfg.c **** 			CYMEMZERO(ms->address, (size_t)(uint32)(ms->size));
 900              		.loc 1 1411 0 discriminator 3
 901 002e 3B69     		ldr	r3, [r7, #16]
 902 0030 1A68     		ldr	r2, [r3]	@ unaligned
 903 0032 3B69     		ldr	r3, [r7, #16]
 904 0034 9B88     		ldrh	r3, [r3, #4]	@ unaligned
 905 0036 9BB2     		uxth	r3, r3
 906 0038 1046     		mov	r0, r2
 907 003a 1946     		mov	r1, r3
 908 003c FFF7FEFF 		bl	CYMEMZERO
 909              	.LBE3:
1408:Generated_Source\PSoC5/cyfitter_cfg.c **** 		{
 910              		.loc 1 1408 0 discriminator 3
 911 0040 FB7D     		ldrb	r3, [r7, #23]	@ zero_extendqisi2
 912 0042 0133     		adds	r3, r3, #1
 913 0044 FB75     		strb	r3, [r7, #23]
 914              	.L31:
1408:Generated_Source\PSoC5/cyfitter_cfg.c **** 		{
 915              		.loc 1 1408 0 is_stmt 0 discriminator 1
 916 0046 FB7D     		ldrb	r3, [r7, #23]	@ zero_extendqisi2
 917 0048 022B     		cmp	r3, #2
 918 004a E8D9     		bls	.L32
1412:Generated_Source\PSoC5/cyfitter_cfg.c **** 		}
1413:Generated_Source\PSoC5/cyfitter_cfg.c **** 
1414:Generated_Source\PSoC5/cyfitter_cfg.c **** 		/* Copy device configuration data into registers */
ARM GAS  C:\Users\Bruger\AppData\Local\Temp\ccj0lDyf.s 			page 42


1415:Generated_Source\PSoC5/cyfitter_cfg.c **** 		for (i = 0u; i < (sizeof(cfg_memcpy_list)/sizeof(cfg_memcpy_list[0])); i++)
 919              		.loc 1 1415 0 is_stmt 1
 920 004c 0023     		movs	r3, #0
 921 004e FB75     		strb	r3, [r7, #23]
 922 0050 1CE0     		b	.L33
 923              	.L34:
 924              	.LBB4:
1416:Generated_Source\PSoC5/cyfitter_cfg.c **** 		{
1417:Generated_Source\PSoC5/cyfitter_cfg.c **** 			const cfg_memcpy_t CYCODE * CYDATA mc = &cfg_memcpy_list[i];
 925              		.loc 1 1417 0 discriminator 3
 926 0052 FA7D     		ldrb	r2, [r7, #23]	@ zero_extendqisi2
 927 0054 1346     		mov	r3, r2
 928 0056 9B00     		lsls	r3, r3, #2
 929 0058 1344     		add	r3, r3, r2
 930 005a 5B00     		lsls	r3, r3, #1
 931 005c 3B4A     		ldr	r2, .L35+8
 932 005e 1344     		add	r3, r3, r2
 933 0060 FB60     		str	r3, [r7, #12]
1418:Generated_Source\PSoC5/cyfitter_cfg.c **** 			void * CYDATA destPtr = mc->dest;
 934              		.loc 1 1418 0 discriminator 3
 935 0062 FB68     		ldr	r3, [r7, #12]
 936 0064 1B68     		ldr	r3, [r3]	@ unaligned
 937 0066 BB60     		str	r3, [r7, #8]
1419:Generated_Source\PSoC5/cyfitter_cfg.c **** 			const void CYCODE * CYDATA srcPtr = mc->src;
 938              		.loc 1 1419 0 discriminator 3
 939 0068 FB68     		ldr	r3, [r7, #12]
 940 006a 5B68     		ldr	r3, [r3, #4]	@ unaligned
 941 006c 7B60     		str	r3, [r7, #4]
1420:Generated_Source\PSoC5/cyfitter_cfg.c **** 			uint16 CYDATA numBytes = mc->size;
 942              		.loc 1 1420 0 discriminator 3
 943 006e FB68     		ldr	r3, [r7, #12]
 944 0070 1A7A     		ldrb	r2, [r3, #8]	@ zero_extendqisi2
 945 0072 5B7A     		ldrb	r3, [r3, #9]	@ zero_extendqisi2
 946 0074 1B02     		lsls	r3, r3, #8
 947 0076 1343     		orrs	r3, r3, r2
 948 0078 7B80     		strh	r3, [r7, #2]	@ movhi
1421:Generated_Source\PSoC5/cyfitter_cfg.c **** 			CYCONFIGCPYCODE(destPtr, srcPtr, numBytes);
 949              		.loc 1 1421 0 discriminator 3
 950 007a 7B88     		ldrh	r3, [r7, #2]
 951 007c B868     		ldr	r0, [r7, #8]
 952 007e 7968     		ldr	r1, [r7, #4]
 953 0080 1A46     		mov	r2, r3
 954 0082 FFF7FEFF 		bl	CYCONFIGCPYCODE
 955              	.LBE4:
1415:Generated_Source\PSoC5/cyfitter_cfg.c **** 		{
 956              		.loc 1 1415 0 discriminator 3
 957 0086 FB7D     		ldrb	r3, [r7, #23]	@ zero_extendqisi2
 958 0088 0133     		adds	r3, r3, #1
 959 008a FB75     		strb	r3, [r7, #23]
 960              	.L33:
1415:Generated_Source\PSoC5/cyfitter_cfg.c **** 		{
 961              		.loc 1 1415 0 is_stmt 0 discriminator 1
 962 008c FB7D     		ldrb	r3, [r7, #23]	@ zero_extendqisi2
 963 008e 552B     		cmp	r3, #85
 964 0090 DFD9     		bls	.L34
1422:Generated_Source\PSoC5/cyfitter_cfg.c **** 		}
1423:Generated_Source\PSoC5/cyfitter_cfg.c **** 
ARM GAS  C:\Users\Bruger\AppData\Local\Temp\ccj0lDyf.s 			page 43


1424:Generated_Source\PSoC5/cyfitter_cfg.c **** 		/* Enable digital routing */
1425:Generated_Source\PSoC5/cyfitter_cfg.c **** 		CY_SET_XTND_REG8((void CYFAR *)CYREG_BCTL0_BANK_CTL, CY_GET_XTND_REG8((void CYFAR *)CYREG_BCTL0_B
 965              		.loc 1 1425 0 is_stmt 1
 966 0092 2F4A     		ldr	r2, .L35+12
 967 0094 2E4B     		ldr	r3, .L35+12
 968 0096 1B78     		ldrb	r3, [r3]
 969 0098 DBB2     		uxtb	r3, r3
 970 009a 43F00203 		orr	r3, r3, #2
 971 009e DBB2     		uxtb	r3, r3
 972 00a0 1370     		strb	r3, [r2]
1426:Generated_Source\PSoC5/cyfitter_cfg.c **** 		CY_SET_XTND_REG8((void CYFAR *)CYREG_BCTL1_BANK_CTL, CY_GET_XTND_REG8((void CYFAR *)CYREG_BCTL1_B
 973              		.loc 1 1426 0
 974 00a2 2C4A     		ldr	r2, .L35+16
 975 00a4 2B4B     		ldr	r3, .L35+16
 976 00a6 1B78     		ldrb	r3, [r3]
 977 00a8 DBB2     		uxtb	r3, r3
 978 00aa 43F00203 		orr	r3, r3, #2
 979 00ae DBB2     		uxtb	r3, r3
 980 00b0 1370     		strb	r3, [r2]
1427:Generated_Source\PSoC5/cyfitter_cfg.c **** 
1428:Generated_Source\PSoC5/cyfitter_cfg.c **** 		/* Enable UDB array */
1429:Generated_Source\PSoC5/cyfitter_cfg.c **** 		CY_SET_XTND_REG8((void CYFAR *)CYREG_PM_ACT_CFG0, CY_GET_XTND_REG8((void CYFAR *)CYREG_PM_ACT_CFG
 981              		.loc 1 1429 0
 982 00b2 294A     		ldr	r2, .L35+20
 983 00b4 284B     		ldr	r3, .L35+20
 984 00b6 1B78     		ldrb	r3, [r3]
 985 00b8 DBB2     		uxtb	r3, r3
 986 00ba 43F04003 		orr	r3, r3, #64
 987 00be DBB2     		uxtb	r3, r3
 988 00c0 1370     		strb	r3, [r2]
1430:Generated_Source\PSoC5/cyfitter_cfg.c **** 		CY_SET_XTND_REG8((void CYFAR *)CYREG_PM_AVAIL_CR2, CY_GET_XTND_REG8((void CYFAR *)CYREG_PM_AVAIL_
 989              		.loc 1 1430 0
 990 00c2 264A     		ldr	r2, .L35+24
 991 00c4 254B     		ldr	r3, .L35+24
 992 00c6 1B78     		ldrb	r3, [r3]
 993 00c8 DBB2     		uxtb	r3, r3
 994 00ca 43F01003 		orr	r3, r3, #16
 995 00ce DBB2     		uxtb	r3, r3
 996 00d0 1370     		strb	r3, [r2]
 997              	.LBE2:
1431:Generated_Source\PSoC5/cyfitter_cfg.c **** 	}
1432:Generated_Source\PSoC5/cyfitter_cfg.c **** 
1433:Generated_Source\PSoC5/cyfitter_cfg.c **** 
1434:Generated_Source\PSoC5/cyfitter_cfg.c **** 	/* Perform second pass device configuration. These items must be configured in specific order afte
1435:Generated_Source\PSoC5/cyfitter_cfg.c **** 	CYCONFIGCPYCODE((void CYFAR *)(CYREG_PRT0_DM0), (const void CYCODE *)(BS_IOPINS0_0_VAL), 8u);
 998              		.loc 1 1435 0
 999 00d2 2348     		ldr	r0, .L35+28
 1000 00d4 2349     		ldr	r1, .L35+32
 1001 00d6 0822     		movs	r2, #8
 1002 00d8 FFF7FEFF 		bl	CYCONFIGCPYCODE
1436:Generated_Source\PSoC5/cyfitter_cfg.c **** 	CYCONFIGCPYCODE((void CYFAR *)(CYREG_PRT12_DM0), (const void CYCODE *)(BS_IOPINS0_7_VAL), 8u);
 1003              		.loc 1 1436 0
 1004 00dc 2248     		ldr	r0, .L35+36
 1005 00de 2349     		ldr	r1, .L35+40
 1006 00e0 0822     		movs	r2, #8
 1007 00e2 FFF7FEFF 		bl	CYCONFIGCPYCODE
1437:Generated_Source\PSoC5/cyfitter_cfg.c **** 	CYCONFIGCPYCODE((void CYFAR *)(CYREG_PRT15_DR), (const void CYCODE *)(BS_IOPINS0_8_VAL), 10u);
ARM GAS  C:\Users\Bruger\AppData\Local\Temp\ccj0lDyf.s 			page 44


 1008              		.loc 1 1437 0
 1009 00e6 2248     		ldr	r0, .L35+44
 1010 00e8 2249     		ldr	r1, .L35+48
 1011 00ea 0A22     		movs	r2, #10
 1012 00ec FFF7FEFF 		bl	CYCONFIGCPYCODE
1438:Generated_Source\PSoC5/cyfitter_cfg.c **** 	CYCONFIGCPYCODE((void CYFAR *)(CYREG_PRT1_DM0), (const void CYCODE *)(BS_IOPINS0_1_VAL), 8u);
 1013              		.loc 1 1438 0
 1014 00f0 2148     		ldr	r0, .L35+52
 1015 00f2 2249     		ldr	r1, .L35+56
 1016 00f4 0822     		movs	r2, #8
 1017 00f6 FFF7FEFF 		bl	CYCONFIGCPYCODE
1439:Generated_Source\PSoC5/cyfitter_cfg.c **** 	CYCONFIGCPYCODE((void CYFAR *)(CYREG_PRT2_DR), (const void CYCODE *)(BS_IOPINS0_2_VAL), 10u);
 1018              		.loc 1 1439 0
 1019 00fa 2148     		ldr	r0, .L35+60
 1020 00fc 2149     		ldr	r1, .L35+64
 1021 00fe 0A22     		movs	r2, #10
 1022 0100 FFF7FEFF 		bl	CYCONFIGCPYCODE
1440:Generated_Source\PSoC5/cyfitter_cfg.c **** 	CYCONFIGCPYCODE((void CYFAR *)(CYREG_PRT3_DM0), (const void CYCODE *)(BS_IOPINS0_3_VAL), 8u);
 1023              		.loc 1 1440 0
 1024 0104 2048     		ldr	r0, .L35+68
 1025 0106 2149     		ldr	r1, .L35+72
 1026 0108 0822     		movs	r2, #8
 1027 010a FFF7FEFF 		bl	CYCONFIGCPYCODE
1441:Generated_Source\PSoC5/cyfitter_cfg.c **** 	/* Switch Boost to the precision bandgap reference from its internal reference */
1442:Generated_Source\PSoC5/cyfitter_cfg.c **** 	CY_SET_REG8((void CYXDATA *)CYREG_BOOST_CR2, (CY_GET_REG8((void CYXDATA *)CYREG_BOOST_CR2) | 0x08u
 1028              		.loc 1 1442 0
 1029 010e 204A     		ldr	r2, .L35+76
 1030 0110 1F4B     		ldr	r3, .L35+76
 1031 0112 1B78     		ldrb	r3, [r3]
 1032 0114 DBB2     		uxtb	r3, r3
 1033 0116 43F00803 		orr	r3, r3, #8
 1034 011a DBB2     		uxtb	r3, r3
 1035 011c 1370     		strb	r3, [r2]
1443:Generated_Source\PSoC5/cyfitter_cfg.c **** 
1444:Generated_Source\PSoC5/cyfitter_cfg.c **** 	/* Set Flash Cycles based on max possible frequency in case a glitch occurs during ClockSetup(). *
1445:Generated_Source\PSoC5/cyfitter_cfg.c **** 	CY_SET_XTND_REG8((void CYFAR *)(CYREG_CACHE_CC_CTL), (((CYDEV_INSTRUCT_CACHE_ENABLED) != 0) ? 0x61
 1036              		.loc 1 1445 0
 1037 011e 1D4B     		ldr	r3, .L35+80
 1038 0120 6122     		movs	r2, #97
 1039 0122 1A70     		strb	r2, [r3]
1446:Generated_Source\PSoC5/cyfitter_cfg.c **** 	/* Setup clocks based on selections from Clock DWR */
1447:Generated_Source\PSoC5/cyfitter_cfg.c **** 	ClockSetup();
 1040              		.loc 1 1447 0
 1041 0124 FFF7FEFF 		bl	ClockSetup
1448:Generated_Source\PSoC5/cyfitter_cfg.c **** 	/* Set Flash Cycles based on newly configured 24.00MHz Bus Clock. */
1449:Generated_Source\PSoC5/cyfitter_cfg.c **** 	CY_SET_XTND_REG8((void CYFAR *)(CYREG_CACHE_CC_CTL), (((CYDEV_INSTRUCT_CACHE_ENABLED) != 0) ? 0x81
 1042              		.loc 1 1449 0
 1043 0128 1A4B     		ldr	r3, .L35+80
 1044 012a 8122     		movs	r2, #129
 1045 012c 1A70     		strb	r2, [r3]
1450:Generated_Source\PSoC5/cyfitter_cfg.c **** 
1451:Generated_Source\PSoC5/cyfitter_cfg.c **** 	/* Perform basic analog initialization to defaults */
1452:Generated_Source\PSoC5/cyfitter_cfg.c **** 	AnalogSetDefault();
 1046              		.loc 1 1452 0
 1047 012e FFF7FEFF 		bl	AnalogSetDefault
1453:Generated_Source\PSoC5/cyfitter_cfg.c **** 
1454:Generated_Source\PSoC5/cyfitter_cfg.c **** 	/* Configure alternate active mode */
ARM GAS  C:\Users\Bruger\AppData\Local\Temp\ccj0lDyf.s 			page 45


1455:Generated_Source\PSoC5/cyfitter_cfg.c **** 	CYCONFIGCPY((void CYFAR *)CYDEV_PM_STBY_BASE, (const void CYFAR *)CYDEV_PM_ACT_BASE, 14u);
 1048              		.loc 1 1455 0
 1049 0132 1948     		ldr	r0, .L35+84
 1050 0134 0849     		ldr	r1, .L35+20
 1051 0136 0E22     		movs	r2, #14
 1052 0138 FFF7FEFF 		bl	CYCONFIGCPY
1456:Generated_Source\PSoC5/cyfitter_cfg.c **** }
 1053              		.loc 1 1456 0
 1054 013c 1837     		adds	r7, r7, #24
 1055              		.cfi_def_cfa_offset 8
 1056 013e BD46     		mov	sp, r7
 1057              		.cfi_def_cfa_register 13
 1058              		@ sp needed
 1059 0140 80BD     		pop	{r7, pc}
 1060              	.L36:
 1061 0142 00BF     		.align	2
 1062              	.L35:
 1063 0144 E8460040 		.word	1073759976
 1064 0148 44000000 		.word	cfg_memset_list.4897
 1065 014c 58000000 		.word	cfg_memcpy_list.4984
 1066 0150 03500140 		.word	1073827843
 1067 0154 13500140 		.word	1073827859
 1068 0158 A0430040 		.word	1073759136
 1069 015c C2430040 		.word	1073759170
 1070 0160 02510040 		.word	1073762562
 1071 0164 B4030000 		.word	BS_IOPINS0_0_VAL.4882
 1072 0168 C2510040 		.word	1073762754
 1073 016c BC030000 		.word	BS_IOPINS0_7_VAL.4883
 1074 0170 F0510040 		.word	1073762800
 1075 0174 C4030000 		.word	BS_IOPINS0_8_VAL.4884
 1076 0178 12510040 		.word	1073762578
 1077 017c D0030000 		.word	BS_IOPINS0_1_VAL.4885
 1078 0180 20510040 		.word	1073762592
 1079 0184 D8030000 		.word	BS_IOPINS0_2_VAL.4886
 1080 0188 32510040 		.word	1073762610
 1081 018c E4030000 		.word	BS_IOPINS0_3_VAL.4887
 1082 0190 22430040 		.word	1073759010
 1083 0194 00480040 		.word	1073760256
 1084 0198 B0430040 		.word	1073759152
 1085              		.cfi_endproc
 1086              	.LFE9:
 1087              		.size	cyfitter_cfg, .-cyfitter_cfg
 1088              		.section	.rodata
 1089              		.align	2
 1090              		.type	cfg_memset_list.4897, %object
 1091              		.size	cfg_memset_list.4897, 18
 1092              	cfg_memset_list.4897:
 1093 0044 C8490040 		.word	1073760712
 1094 0048 1900     		.short	25
 1095 004a 40510040 		.4byte	1073762624
 1096 004e 3000     		.short	48
 1097 0050 00440140 		.word	1073824768
 1098 0054 8000     		.short	128
 1099 0056 0000     		.align	2
 1100              		.type	cfg_memcpy_list.4984, %object
 1101              		.size	cfg_memcpy_list.4984, 860
 1102              	cfg_memcpy_list.4984:
ARM GAS  C:\Users\Bruger\AppData\Local\Temp\ccj0lDyf.s 			page 46


 1103 0058 08520040 		.word	1073762824
 1104 005c 24280000 		.word	BS_IOPORT_1_VAL.4898
 1105 0060 0700     		.short	7
 1106 0062 10520040 		.4byte	1073762832
 1107 0066 1C280000 		.4byte	BS_IOPORT_2_VAL.4899
 1108 006a 0700     		.short	7
 1109 006c 10450040 		.word	1073759504
 1110 0070 14280000 		.word	BS_PICU_2_VAL.4900
 1111 0074 0800     		.short	8
 1112 0076 18520040 		.4byte	1073762840
 1113 007a 0C280000 		.4byte	BS_IOPORT_3_VAL.4901
 1114 007e 0700     		.short	7
 1115 0080 60520040 		.word	1073762912
 1116 0084 04280000 		.word	BS_IOPORT_7_VAL.4902
 1117 0088 0600     		.short	6
 1118 008a 78520040 		.4byte	1073762936
 1119 008e FC270000 		.4byte	BS_IOPORT_8_VAL.4903
 1120 0092 0700     		.short	7
 1121 0094 78450040 		.word	1073759608
 1122 0098 F4270000 		.word	BS_PICU_8_VAL.4904
 1123 009c 0800     		.short	8
 1124 009e 00510140 		.4byte	1073828096
 1125 00a2 EC270000 		.4byte	BS_IDMUX_IRQ_VAL.4905
 1126 00a6 0800     		.short	8
 1127 00a8 004F0040 		.word	1073762048
 1128 00ac E0270000 		.word	BS_TMR0_VAL.4906
 1129 00b0 0C00     		.short	12
 1130 00b2 0C4F0040 		.4byte	1073762060
 1131 00b6 D4270000 		.4byte	BS_TMR1_VAL.4907
 1132 00ba 0C00     		.short	12
 1133 00bc 205B0040 		.word	1073765152
 1134 00c0 CC270000 		.word	BS_SAR0_VAL.4908
 1135 00c4 0800     		.short	8
 1136 00c6 00000140 		.4byte	1073807360
 1137 00ca 4C270000 		.4byte	BS_UDB_1_5_0_CONFIG_VAL.4909
 1138 00ce 8000     		.short	128
 1139 00d0 80000140 		.word	1073807488
 1140 00d4 CC260000 		.word	BS_UDB_1_5_1_CONFIG_VAL.4910
 1141 00d8 8000     		.short	128
 1142 00da 00020140 		.4byte	1073807872
 1143 00de 4C260000 		.4byte	BS_UDB_1_4_1_CONFIG_VAL.4911
 1144 00e2 8000     		.short	128
 1145 00e4 80020140 		.word	1073808000
 1146 00e8 CC250000 		.word	BS_UDB_1_4_0_CONFIG_VAL.4912
 1147 00ec 8000     		.short	128
 1148 00ee 00040140 		.4byte	1073808384
 1149 00f2 4C250000 		.4byte	BS_UDB_1_3_0_CONFIG_VAL.4913
 1150 00f6 8000     		.short	128
 1151 00f8 80040140 		.word	1073808512
 1152 00fc CC240000 		.word	BS_UDB_1_3_1_CONFIG_VAL.4914
 1153 0100 8000     		.short	128
 1154 0102 00060140 		.4byte	1073808896
 1155 0106 4C240000 		.4byte	BS_UDB_1_2_1_CONFIG_VAL.4915
 1156 010a 8000     		.short	128
 1157 010c 80060140 		.word	1073809024
 1158 0110 CC230000 		.word	BS_UDB_1_2_0_CONFIG_VAL.4916
 1159 0114 8000     		.short	128
ARM GAS  C:\Users\Bruger\AppData\Local\Temp\ccj0lDyf.s 			page 47


 1160 0116 00080140 		.4byte	1073809408
 1161 011a 4C230000 		.4byte	BS_UDB_0_2_1_CONFIG_VAL.4917
 1162 011e 8000     		.short	128
 1163 0120 80080140 		.word	1073809536
 1164 0124 CC220000 		.word	BS_UDB_0_2_0_CONFIG_VAL.4918
 1165 0128 8000     		.short	128
 1166 012a 000A0140 		.4byte	1073809920
 1167 012e 4C220000 		.4byte	BS_UDB_0_3_0_CONFIG_VAL.4919
 1168 0132 8000     		.short	128
 1169 0134 800A0140 		.word	1073810048
 1170 0138 CC210000 		.word	BS_UDB_0_3_1_CONFIG_VAL.4920
 1171 013c 8000     		.short	128
 1172 013e 000C0140 		.4byte	1073810432
 1173 0142 4C210000 		.4byte	BS_UDB_0_4_1_CONFIG_VAL.4921
 1174 0146 8000     		.short	128
 1175 0148 800C0140 		.word	1073810560
 1176 014c CC200000 		.word	BS_UDB_0_4_0_CONFIG_VAL.4922
 1177 0150 8000     		.short	128
 1178 0152 000E0140 		.4byte	1073810944
 1179 0156 4C200000 		.4byte	BS_UDB_0_5_0_CONFIG_VAL.4923
 1180 015a 8000     		.short	128
 1181 015c 800E0140 		.word	1073811072
 1182 0160 CC1F0000 		.word	BS_UDB_0_5_1_CONFIG_VAL.4924
 1183 0164 8000     		.short	128
 1184 0166 00140140 		.4byte	1073812480
 1185 016a 4C1F0000 		.4byte	BS_UDB_1_0_0_CONFIG_VAL.4925
 1186 016e 8000     		.short	128
 1187 0170 80140140 		.word	1073812608
 1188 0174 CC1E0000 		.word	BS_UDB_1_0_1_CONFIG_VAL.4926
 1189 0178 8000     		.short	128
 1190 017a 00160140 		.4byte	1073812992
 1191 017e 4C1E0000 		.4byte	BS_UDB_1_1_1_CONFIG_VAL.4927
 1192 0182 8000     		.short	128
 1193 0184 80160140 		.word	1073813120
 1194 0188 CC1D0000 		.word	BS_UDB_1_1_0_CONFIG_VAL.4928
 1195 018c 8000     		.short	128
 1196 018e 00180140 		.4byte	1073813504
 1197 0192 4C1D0000 		.4byte	BS_UDB_0_1_1_CONFIG_VAL.4929
 1198 0196 8000     		.short	128
 1199 0198 80180140 		.word	1073813632
 1200 019c CC1C0000 		.word	BS_UDB_0_1_0_CONFIG_VAL.4930
 1201 01a0 8000     		.short	128
 1202 01a2 001A0140 		.4byte	1073814016
 1203 01a6 4C1C0000 		.4byte	BS_UDB_0_0_0_CONFIG_VAL.4931
 1204 01aa 8000     		.short	128
 1205 01ac 801A0140 		.word	1073814144
 1206 01b0 CC1B0000 		.word	BS_UDB_0_0_1_CONFIG_VAL.4932
 1207 01b4 8000     		.short	128
 1208 01b6 70640040 		.4byte	1073767536
 1209 01ba AC1B0000 		.4byte	BS_UWRK_B0_WRK_STATCTL_BITS_VAL.4933
 1210 01be 2000     		.short	32
 1211 01c0 70650040 		.word	1073767792
 1212 01c4 8C1B0000 		.word	BS_UWRK_B1_WRK_STATCTL_BITS_VAL.4934
 1213 01c8 2000     		.short	32
 1214 01ca 10500140 		.4byte	1073827856
 1215 01ce 7C1B0000 		.4byte	BS_UCFG_BCTL1_VAL.4935
 1216 01d2 1000     		.short	16
ARM GAS  C:\Users\Bruger\AppData\Local\Temp\ccj0lDyf.s 			page 48


 1217 01d4 00500140 		.word	1073827840
 1218 01d8 6C1B0000 		.word	BS_UCFG_BCTL0_VAL.4936
 1219 01dc 1000     		.short	16
 1220 01de 004D0140 		.4byte	1073827072
 1221 01e2 EC1A0000 		.4byte	BS_DSISWITCH_0_0_VAL.4937
 1222 01e6 8000     		.short	128
 1223 01e8 804D0140 		.word	1073827200
 1224 01ec 6C1A0000 		.word	BS_DSI0_0_HV_ROUTING_VAL.4938
 1225 01f0 8000     		.short	128
 1226 01f2 004C0140 		.4byte	1073826816
 1227 01f6 EC190000 		.4byte	BS_DSISWITCH_0_1_VAL.4939
 1228 01fa 8000     		.short	128
 1229 01fc 804C0140 		.word	1073826944
 1230 0200 6C190000 		.word	BS_DSI0_1_HV_ROUTING_VAL.4940
 1231 0204 8000     		.short	128
 1232 0206 00470140 		.4byte	1073825536
 1233 020a EC180000 		.4byte	BS_DSISWITCH_0_2_VAL.4941
 1234 020e 8000     		.short	128
 1235 0210 80470140 		.word	1073825664
 1236 0214 6C180000 		.word	BS_DSI0_2_HV_ROUTING_VAL.4942
 1237 0218 8000     		.short	128
 1238 021a 00460140 		.4byte	1073825280
 1239 021e EC170000 		.4byte	BS_DSISWITCH_0_3_VAL.4943
 1240 0222 8000     		.short	128
 1241 0224 80460140 		.word	1073825408
 1242 0228 6C170000 		.word	BS_DSI0_3_HV_ROUTING_VAL.4944
 1243 022c 8000     		.short	128
 1244 022e 00450140 		.4byte	1073825024
 1245 0232 EC160000 		.4byte	BS_DSISWITCH_0_4_VAL.4945
 1246 0236 8000     		.short	128
 1247 0238 80450140 		.word	1073825152
 1248 023c 6C160000 		.word	BS_DSI0_4_HV_ROUTING_VAL.4946
 1249 0240 8000     		.short	128
 1250 0242 80440140 		.4byte	1073824896
 1251 0246 EC150000 		.4byte	BS_DSI0_5_HV_ROUTING_VAL.4947
 1252 024a 8000     		.short	128
 1253 024c 001B0140 		.word	1073814272
 1254 0250 6C150000 		.word	BS_UDBSWITCH_0_0_VAL.4948
 1255 0254 8000     		.short	128
 1256 0256 801B0140 		.4byte	1073814400
 1257 025a EC140000 		.4byte	BS_UDB_1_0_HV_ROUTING_VAL.4949
 1258 025e 8000     		.short	128
 1259 0260 00150140 		.word	1073812736
 1260 0264 6C140000 		.word	BS_UDBSWITCH_1_0_VAL.4950
 1261 0268 8000     		.short	128
 1262 026a 80150140 		.4byte	1073812864
 1263 026e EC130000 		.4byte	BS_UDB_2_0_HV_ROUTING_VAL.4951
 1264 0272 8000     		.short	128
 1265 0274 00190140 		.word	1073813760
 1266 0278 6C130000 		.word	BS_UDBSWITCH_0_1_VAL.4952
 1267 027c 8000     		.short	128
 1268 027e 80190140 		.4byte	1073813888
 1269 0282 EC120000 		.4byte	BS_UDB_1_1_HV_ROUTING_VAL.4953
 1270 0286 8000     		.short	128
 1271 0288 00170140 		.word	1073813248
 1272 028c 6C120000 		.word	BS_UDBSWITCH_1_1_VAL.4954
 1273 0290 8000     		.short	128
ARM GAS  C:\Users\Bruger\AppData\Local\Temp\ccj0lDyf.s 			page 49


 1274 0292 80170140 		.4byte	1073813376
 1275 0296 EC110000 		.4byte	BS_UDB_2_1_HV_ROUTING_VAL.4955
 1276 029a 8000     		.short	128
 1277 029c 00090140 		.word	1073809664
 1278 02a0 6C110000 		.word	BS_UDBSWITCH_0_2_VAL.4956
 1279 02a4 8000     		.short	128
 1280 02a6 80090140 		.4byte	1073809792
 1281 02aa EC100000 		.4byte	BS_UDB_1_2_HV_ROUTING_VAL.4957
 1282 02ae 8000     		.short	128
 1283 02b0 00070140 		.word	1073809152
 1284 02b4 6C100000 		.word	BS_UDBSWITCH_1_2_VAL.4958
 1285 02b8 8000     		.short	128
 1286 02ba 80070140 		.4byte	1073809280
 1287 02be EC0F0000 		.4byte	BS_UDB_2_2_HV_ROUTING_VAL.4959
 1288 02c2 8000     		.short	128
 1289 02c4 000B0140 		.word	1073810176
 1290 02c8 6C0F0000 		.word	BS_UDBSWITCH_0_3_VAL.4960
 1291 02cc 8000     		.short	128
 1292 02ce 800B0140 		.4byte	1073810304
 1293 02d2 EC0E0000 		.4byte	BS_UDB_1_3_HV_ROUTING_VAL.4961
 1294 02d6 8000     		.short	128
 1295 02d8 00050140 		.word	1073808640
 1296 02dc 6C0E0000 		.word	BS_UDBSWITCH_1_3_VAL.4962
 1297 02e0 8000     		.short	128
 1298 02e2 80050140 		.4byte	1073808768
 1299 02e6 EC0D0000 		.4byte	BS_UDB_2_3_HV_ROUTING_VAL.4963
 1300 02ea 8000     		.short	128
 1301 02ec 000D0140 		.word	1073810688
 1302 02f0 6C0D0000 		.word	BS_UDBSWITCH_0_4_VAL.4964
 1303 02f4 8000     		.short	128
 1304 02f6 800D0140 		.4byte	1073810816
 1305 02fa EC0C0000 		.4byte	BS_UDB_1_4_HV_ROUTING_VAL.4965
 1306 02fe 8000     		.short	128
 1307 0300 00030140 		.word	1073808128
 1308 0304 6C0C0000 		.word	BS_UDBSWITCH_1_4_VAL.4966
 1309 0308 8000     		.short	128
 1310 030a 80030140 		.4byte	1073808256
 1311 030e EC0B0000 		.4byte	BS_UDB_2_4_HV_ROUTING_VAL.4967
 1312 0312 8000     		.short	128
 1313 0314 000F0140 		.word	1073811200
 1314 0318 6C0B0000 		.word	BS_UDBSWITCH_0_5_VAL.4968
 1315 031c 8000     		.short	128
 1316 031e 800F0140 		.4byte	1073811328
 1317 0322 EC0A0000 		.4byte	BS_UDB_1_5_HV_ROUTING_VAL.4969
 1318 0326 8000     		.short	128
 1319 0328 00010140 		.word	1073807616
 1320 032c 6C0A0000 		.word	BS_UDBSWITCH_1_5_VAL.4970
 1321 0330 8000     		.short	128
 1322 0332 80010140 		.4byte	1073807744
 1323 0336 EC090000 		.4byte	BS_UDB_2_5_HV_ROUTING_VAL.4971
 1324 033a 8000     		.short	128
 1325 033c 00490140 		.word	1073826048
 1326 0340 6C090000 		.word	BS_DSISWITCH_1_0_VAL.4972
 1327 0344 8000     		.short	128
 1328 0346 80490140 		.4byte	1073826176
 1329 034a EC080000 		.4byte	BS_DSI3_0_HV_ROUTING_VAL.4973
 1330 034e 8000     		.short	128
ARM GAS  C:\Users\Bruger\AppData\Local\Temp\ccj0lDyf.s 			page 50


 1331 0350 00480140 		.word	1073825792
 1332 0354 6C080000 		.word	BS_DSISWITCH_1_1_VAL.4974
 1333 0358 8000     		.short	128
 1334 035a 80480140 		.4byte	1073825920
 1335 035e EC070000 		.4byte	BS_DSI3_1_HV_ROUTING_VAL.4975
 1336 0362 8000     		.short	128
 1337 0364 00430140 		.word	1073824512
 1338 0368 6C070000 		.word	BS_DSISWITCH_1_2_VAL.4976
 1339 036c 8000     		.short	128
 1340 036e 80430140 		.4byte	1073824640
 1341 0372 EC060000 		.4byte	BS_DSI3_2_HV_ROUTING_VAL.4977
 1342 0376 8000     		.short	128
 1343 0378 00420140 		.word	1073824256
 1344 037c 6C060000 		.word	BS_DSISWITCH_1_3_VAL.4978
 1345 0380 8000     		.short	128
 1346 0382 80420140 		.4byte	1073824384
 1347 0386 EC050000 		.4byte	BS_DSI3_3_HV_ROUTING_VAL.4979
 1348 038a 8000     		.short	128
 1349 038c 00410140 		.word	1073824000
 1350 0390 6C050000 		.word	BS_DSISWITCH_1_4_VAL.4980
 1351 0394 8000     		.short	128
 1352 0396 80410140 		.4byte	1073824128
 1353 039a EC040000 		.4byte	BS_DSI3_4_HV_ROUTING_VAL.4981
 1354 039e 8000     		.short	128
 1355 03a0 00400140 		.word	1073823744
 1356 03a4 6C040000 		.word	BS_DSISWITCH_1_5_VAL.4982
 1357 03a8 8000     		.short	128
 1358 03aa 80400140 		.4byte	1073823872
 1359 03ae EC030000 		.4byte	BS_DSI3_5_HV_ROUTING_VAL.4983
 1360 03b2 8000     		.short	128
 1361              		.align	2
 1362              		.type	BS_IOPINS0_0_VAL.4882, %object
 1363              		.size	BS_IOPINS0_0_VAL.4882, 8
 1364              	BS_IOPINS0_0_VAL.4882:
 1365 03b4 0F       		.byte	15
 1366 03b5 0F       		.byte	15
 1367 03b6 0E       		.byte	14
 1368 03b7 00       		.byte	0
 1369 03b8 00       		.byte	0
 1370 03b9 00       		.byte	0
 1371 03ba F8       		.byte	-8
 1372 03bb 00       		.byte	0
 1373              		.align	2
 1374              		.type	BS_IOPINS0_7_VAL.4883, %object
 1375              		.size	BS_IOPINS0_7_VAL.4883, 8
 1376              	BS_IOPINS0_7_VAL.4883:
 1377 03bc 7C       		.byte	124
 1378 03bd 80       		.byte	-128
 1379 03be 83       		.byte	-125
 1380 03bf 00       		.byte	0
 1381 03c0 83       		.byte	-125
 1382 03c1 03       		.byte	3
 1383 03c2 00       		.byte	0
 1384 03c3 00       		.byte	0
 1385              		.align	2
 1386              		.type	BS_IOPINS0_8_VAL.4884, %object
 1387              		.size	BS_IOPINS0_8_VAL.4884, 10
ARM GAS  C:\Users\Bruger\AppData\Local\Temp\ccj0lDyf.s 			page 51


 1388              	BS_IOPINS0_8_VAL.4884:
 1389 03c4 40       		.byte	64
 1390 03c5 00       		.byte	0
 1391 03c6 00       		.byte	0
 1392 03c7 01       		.byte	1
 1393 03c8 01       		.byte	1
 1394 03c9 00       		.byte	0
 1395 03ca 01       		.byte	1
 1396 03cb 00       		.byte	0
 1397 03cc C0       		.byte	-64
 1398 03cd 00       		.byte	0
 1399 03ce 0000     		.align	2
 1400              		.type	BS_IOPINS0_1_VAL.4885, %object
 1401              		.size	BS_IOPINS0_1_VAL.4885, 8
 1402              	BS_IOPINS0_1_VAL.4885:
 1403 03d0 80       		.byte	-128
 1404 03d1 7F       		.byte	127
 1405 03d2 7F       		.byte	127
 1406 03d3 00       		.byte	0
 1407 03d4 60       		.byte	96
 1408 03d5 00       		.byte	0
 1409 03d6 00       		.byte	0
 1410 03d7 00       		.byte	0
 1411              		.align	2
 1412              		.type	BS_IOPINS0_2_VAL.4886, %object
 1413              		.size	BS_IOPINS0_2_VAL.4886, 10
 1414              	BS_IOPINS0_2_VAL.4886:
 1415 03d8 04       		.byte	4
 1416 03d9 00       		.byte	0
 1417 03da 11       		.byte	17
 1418 03db 7D       		.byte	125
 1419 03dc EA       		.byte	-22
 1420 03dd 00       		.byte	0
 1421 03de 68       		.byte	104
 1422 03df 00       		.byte	0
 1423 03e0 00       		.byte	0
 1424 03e1 00       		.byte	0
 1425 03e2 0000     		.align	2
 1426              		.type	BS_IOPINS0_3_VAL.4887, %object
 1427              		.size	BS_IOPINS0_3_VAL.4887, 8
 1428              	BS_IOPINS0_3_VAL.4887:
 1429 03e4 FF       		.byte	-1
 1430 03e5 00       		.byte	0
 1431 03e6 00       		.byte	0
 1432 03e7 00       		.byte	0
 1433 03e8 00       		.byte	0
 1434 03e9 00       		.byte	0
 1435 03ea 00       		.byte	0
 1436 03eb 00       		.byte	0
 1437              		.align	2
 1438              		.type	BS_DSI3_5_HV_ROUTING_VAL.4983, %object
 1439              		.size	BS_DSI3_5_HV_ROUTING_VAL.4983, 128
 1440              	BS_DSI3_5_HV_ROUTING_VAL.4983:
 1441 03ec 00       		.byte	0
 1442 03ed 00       		.byte	0
 1443 03ee 00       		.byte	0
 1444 03ef 00       		.byte	0
ARM GAS  C:\Users\Bruger\AppData\Local\Temp\ccj0lDyf.s 			page 52


 1445 03f0 00       		.byte	0
 1446 03f1 00       		.byte	0
 1447 03f2 00       		.byte	0
 1448 03f3 00       		.byte	0
 1449 03f4 00       		.byte	0
 1450 03f5 00       		.byte	0
 1451 03f6 00       		.byte	0
 1452 03f7 00       		.byte	0
 1453 03f8 00       		.byte	0
 1454 03f9 00       		.byte	0
 1455 03fa 00       		.byte	0
 1456 03fb 00       		.byte	0
 1457 03fc 00       		.byte	0
 1458 03fd 00       		.byte	0
 1459 03fe 00       		.byte	0
 1460 03ff 00       		.byte	0
 1461 0400 00       		.byte	0
 1462 0401 00       		.byte	0
 1463 0402 00       		.byte	0
 1464 0403 00       		.byte	0
 1465 0404 00       		.byte	0
 1466 0405 00       		.byte	0
 1467 0406 00       		.byte	0
 1468 0407 00       		.byte	0
 1469 0408 00       		.byte	0
 1470 0409 00       		.byte	0
 1471 040a 00       		.byte	0
 1472 040b 00       		.byte	0
 1473 040c 00       		.byte	0
 1474 040d 00       		.byte	0
 1475 040e 00       		.byte	0
 1476 040f 00       		.byte	0
 1477 0410 00       		.byte	0
 1478 0411 00       		.byte	0
 1479 0412 00       		.byte	0
 1480 0413 00       		.byte	0
 1481 0414 00       		.byte	0
 1482 0415 00       		.byte	0
 1483 0416 00       		.byte	0
 1484 0417 00       		.byte	0
 1485 0418 00       		.byte	0
 1486 0419 00       		.byte	0
 1487 041a 00       		.byte	0
 1488 041b 00       		.byte	0
 1489 041c 00       		.byte	0
 1490 041d 00       		.byte	0
 1491 041e 00       		.byte	0
 1492 041f 00       		.byte	0
 1493 0420 00       		.byte	0
 1494 0421 00       		.byte	0
 1495 0422 00       		.byte	0
 1496 0423 00       		.byte	0
 1497 0424 00       		.byte	0
 1498 0425 00       		.byte	0
 1499 0426 00       		.byte	0
 1500 0427 00       		.byte	0
 1501 0428 00       		.byte	0
ARM GAS  C:\Users\Bruger\AppData\Local\Temp\ccj0lDyf.s 			page 53


 1502 0429 00       		.byte	0
 1503 042a 00       		.byte	0
 1504 042b 00       		.byte	0
 1505 042c 00       		.byte	0
 1506 042d 00       		.byte	0
 1507 042e 00       		.byte	0
 1508 042f 00       		.byte	0
 1509 0430 00       		.byte	0
 1510 0431 00       		.byte	0
 1511 0432 00       		.byte	0
 1512 0433 00       		.byte	0
 1513 0434 00       		.byte	0
 1514 0435 00       		.byte	0
 1515 0436 00       		.byte	0
 1516 0437 00       		.byte	0
 1517 0438 F0       		.byte	-16
 1518 0439 00       		.byte	0
 1519 043a 10       		.byte	16
 1520 043b 00       		.byte	0
 1521 043c 00       		.byte	0
 1522 043d 00       		.byte	0
 1523 043e 00       		.byte	0
 1524 043f 00       		.byte	0
 1525 0440 00       		.byte	0
 1526 0441 00       		.byte	0
 1527 0442 00       		.byte	0
 1528 0443 00       		.byte	0
 1529 0444 00       		.byte	0
 1530 0445 00       		.byte	0
 1531 0446 00       		.byte	0
 1532 0447 00       		.byte	0
 1533 0448 00       		.byte	0
 1534 0449 00       		.byte	0
 1535 044a 00       		.byte	0
 1536 044b 00       		.byte	0
 1537 044c 00       		.byte	0
 1538 044d 00       		.byte	0
 1539 044e 00       		.byte	0
 1540 044f 00       		.byte	0
 1541 0450 00       		.byte	0
 1542 0451 00       		.byte	0
 1543 0452 00       		.byte	0
 1544 0453 00       		.byte	0
 1545 0454 00       		.byte	0
 1546 0455 00       		.byte	0
 1547 0456 00       		.byte	0
 1548 0457 00       		.byte	0
 1549 0458 00       		.byte	0
 1550 0459 00       		.byte	0
 1551 045a 00       		.byte	0
 1552 045b 00       		.byte	0
 1553 045c 00       		.byte	0
 1554 045d 00       		.byte	0
 1555 045e 00       		.byte	0
 1556 045f 00       		.byte	0
 1557 0460 00       		.byte	0
 1558 0461 00       		.byte	0
ARM GAS  C:\Users\Bruger\AppData\Local\Temp\ccj0lDyf.s 			page 54


 1559 0462 00       		.byte	0
 1560 0463 00       		.byte	0
 1561 0464 00       		.byte	0
 1562 0465 00       		.byte	0
 1563 0466 00       		.byte	0
 1564 0467 00       		.byte	0
 1565 0468 00       		.byte	0
 1566 0469 00       		.byte	0
 1567 046a 00       		.byte	0
 1568 046b 00       		.byte	0
 1569              		.align	2
 1570              		.type	BS_DSISWITCH_1_5_VAL.4982, %object
 1571              		.size	BS_DSISWITCH_1_5_VAL.4982, 128
 1572              	BS_DSISWITCH_1_5_VAL.4982:
 1573 046c 00       		.byte	0
 1574 046d 00       		.byte	0
 1575 046e 00       		.byte	0
 1576 046f 00       		.byte	0
 1577 0470 00       		.byte	0
 1578 0471 00       		.byte	0
 1579 0472 00       		.byte	0
 1580 0473 00       		.byte	0
 1581 0474 00       		.byte	0
 1582 0475 00       		.byte	0
 1583 0476 00       		.byte	0
 1584 0477 00       		.byte	0
 1585 0478 00       		.byte	0
 1586 0479 00       		.byte	0
 1587 047a 00       		.byte	0
 1588 047b 00       		.byte	0
 1589 047c 00       		.byte	0
 1590 047d 00       		.byte	0
 1591 047e 00       		.byte	0
 1592 047f 00       		.byte	0
 1593 0480 00       		.byte	0
 1594 0481 00       		.byte	0
 1595 0482 00       		.byte	0
 1596 0483 00       		.byte	0
 1597 0484 00       		.byte	0
 1598 0485 00       		.byte	0
 1599 0486 00       		.byte	0
 1600 0487 00       		.byte	0
 1601 0488 00       		.byte	0
 1602 0489 00       		.byte	0
 1603 048a 00       		.byte	0
 1604 048b 00       		.byte	0
 1605 048c 00       		.byte	0
 1606 048d 00       		.byte	0
 1607 048e 00       		.byte	0
 1608 048f 00       		.byte	0
 1609 0490 00       		.byte	0
 1610 0491 00       		.byte	0
 1611 0492 00       		.byte	0
 1612 0493 00       		.byte	0
 1613 0494 00       		.byte	0
 1614 0495 00       		.byte	0
 1615 0496 00       		.byte	0
ARM GAS  C:\Users\Bruger\AppData\Local\Temp\ccj0lDyf.s 			page 55


 1616 0497 00       		.byte	0
 1617 0498 00       		.byte	0
 1618 0499 00       		.byte	0
 1619 049a 00       		.byte	0
 1620 049b 00       		.byte	0
 1621 049c 00       		.byte	0
 1622 049d 00       		.byte	0
 1623 049e 80       		.byte	-128
 1624 049f 08       		.byte	8
 1625 04a0 80       		.byte	-128
 1626 04a1 00       		.byte	0
 1627 04a2 01       		.byte	1
 1628 04a3 00       		.byte	0
 1629 04a4 00       		.byte	0
 1630 04a5 00       		.byte	0
 1631 04a6 00       		.byte	0
 1632 04a7 10       		.byte	16
 1633 04a8 00       		.byte	0
 1634 04a9 00       		.byte	0
 1635 04aa 00       		.byte	0
 1636 04ab 00       		.byte	0
 1637 04ac 00       		.byte	0
 1638 04ad 00       		.byte	0
 1639 04ae 00       		.byte	0
 1640 04af 00       		.byte	0
 1641 04b0 00       		.byte	0
 1642 04b1 00       		.byte	0
 1643 04b2 00       		.byte	0
 1644 04b3 00       		.byte	0
 1645 04b4 00       		.byte	0
 1646 04b5 00       		.byte	0
 1647 04b6 00       		.byte	0
 1648 04b7 00       		.byte	0
 1649 04b8 00       		.byte	0
 1650 04b9 00       		.byte	0
 1651 04ba 00       		.byte	0
 1652 04bb 00       		.byte	0
 1653 04bc 00       		.byte	0
 1654 04bd 00       		.byte	0
 1655 04be 00       		.byte	0
 1656 04bf 00       		.byte	0
 1657 04c0 00       		.byte	0
 1658 04c1 00       		.byte	0
 1659 04c2 00       		.byte	0
 1660 04c3 00       		.byte	0
 1661 04c4 00       		.byte	0
 1662 04c5 00       		.byte	0
 1663 04c6 00       		.byte	0
 1664 04c7 00       		.byte	0
 1665 04c8 00       		.byte	0
 1666 04c9 00       		.byte	0
 1667 04ca 00       		.byte	0
 1668 04cb 00       		.byte	0
 1669 04cc 00       		.byte	0
 1670 04cd 00       		.byte	0
 1671 04ce 00       		.byte	0
 1672 04cf 00       		.byte	0
ARM GAS  C:\Users\Bruger\AppData\Local\Temp\ccj0lDyf.s 			page 56


 1673 04d0 00       		.byte	0
 1674 04d1 00       		.byte	0
 1675 04d2 00       		.byte	0
 1676 04d3 00       		.byte	0
 1677 04d4 00       		.byte	0
 1678 04d5 00       		.byte	0
 1679 04d6 00       		.byte	0
 1680 04d7 00       		.byte	0
 1681 04d8 00       		.byte	0
 1682 04d9 00       		.byte	0
 1683 04da 00       		.byte	0
 1684 04db 00       		.byte	0
 1685 04dc 00       		.byte	0
 1686 04dd 00       		.byte	0
 1687 04de 00       		.byte	0
 1688 04df 00       		.byte	0
 1689 04e0 00       		.byte	0
 1690 04e1 00       		.byte	0
 1691 04e2 00       		.byte	0
 1692 04e3 00       		.byte	0
 1693 04e4 00       		.byte	0
 1694 04e5 00       		.byte	0
 1695 04e6 00       		.byte	0
 1696 04e7 00       		.byte	0
 1697 04e8 00       		.byte	0
 1698 04e9 00       		.byte	0
 1699 04ea 00       		.byte	0
 1700 04eb 00       		.byte	0
 1701              		.align	2
 1702              		.type	BS_DSI3_4_HV_ROUTING_VAL.4981, %object
 1703              		.size	BS_DSI3_4_HV_ROUTING_VAL.4981, 128
 1704              	BS_DSI3_4_HV_ROUTING_VAL.4981:
 1705 04ec 00       		.byte	0
 1706 04ed 00       		.byte	0
 1707 04ee 00       		.byte	0
 1708 04ef 00       		.byte	0
 1709 04f0 00       		.byte	0
 1710 04f1 00       		.byte	0
 1711 04f2 20       		.byte	32
 1712 04f3 00       		.byte	0
 1713 04f4 00       		.byte	0
 1714 04f5 00       		.byte	0
 1715 04f6 00       		.byte	0
 1716 04f7 00       		.byte	0
 1717 04f8 00       		.byte	0
 1718 04f9 00       		.byte	0
 1719 04fa 00       		.byte	0
 1720 04fb 00       		.byte	0
 1721 04fc 00       		.byte	0
 1722 04fd 00       		.byte	0
 1723 04fe 00       		.byte	0
 1724 04ff 00       		.byte	0
 1725 0500 00       		.byte	0
 1726 0501 00       		.byte	0
 1727 0502 00       		.byte	0
 1728 0503 10       		.byte	16
 1729 0504 00       		.byte	0
ARM GAS  C:\Users\Bruger\AppData\Local\Temp\ccj0lDyf.s 			page 57


 1730 0505 00       		.byte	0
 1731 0506 00       		.byte	0
 1732 0507 00       		.byte	0
 1733 0508 80       		.byte	-128
 1734 0509 00       		.byte	0
 1735 050a 00       		.byte	0
 1736 050b 00       		.byte	0
 1737 050c 00       		.byte	0
 1738 050d 00       		.byte	0
 1739 050e 00       		.byte	0
 1740 050f 00       		.byte	0
 1741 0510 00       		.byte	0
 1742 0511 00       		.byte	0
 1743 0512 81       		.byte	-127
 1744 0513 00       		.byte	0
 1745 0514 00       		.byte	0
 1746 0515 00       		.byte	0
 1747 0516 00       		.byte	0
 1748 0517 00       		.byte	0
 1749 0518 00       		.byte	0
 1750 0519 00       		.byte	0
 1751 051a 00       		.byte	0
 1752 051b 08       		.byte	8
 1753 051c 00       		.byte	0
 1754 051d 00       		.byte	0
 1755 051e 00       		.byte	0
 1756 051f 00       		.byte	0
 1757 0520 00       		.byte	0
 1758 0521 00       		.byte	0
 1759 0522 00       		.byte	0
 1760 0523 00       		.byte	0
 1761 0524 00       		.byte	0
 1762 0525 00       		.byte	0
 1763 0526 00       		.byte	0
 1764 0527 00       		.byte	0
 1765 0528 00       		.byte	0
 1766 0529 00       		.byte	0
 1767 052a 00       		.byte	0
 1768 052b 00       		.byte	0
 1769 052c 00       		.byte	0
 1770 052d 00       		.byte	0
 1771 052e 00       		.byte	0
 1772 052f 00       		.byte	0
 1773 0530 00       		.byte	0
 1774 0531 00       		.byte	0
 1775 0532 00       		.byte	0
 1776 0533 00       		.byte	0
 1777 0534 00       		.byte	0
 1778 0535 00       		.byte	0
 1779 0536 00       		.byte	0
 1780 0537 00       		.byte	0
 1781 0538 D0       		.byte	-48
 1782 0539 00       		.byte	0
 1783 053a 10       		.byte	16
 1784 053b 00       		.byte	0
 1785 053c 00       		.byte	0
 1786 053d 00       		.byte	0
ARM GAS  C:\Users\Bruger\AppData\Local\Temp\ccj0lDyf.s 			page 58


 1787 053e 00       		.byte	0
 1788 053f 00       		.byte	0
 1789 0540 00       		.byte	0
 1790 0541 00       		.byte	0
 1791 0542 00       		.byte	0
 1792 0543 00       		.byte	0
 1793 0544 00       		.byte	0
 1794 0545 00       		.byte	0
 1795 0546 00       		.byte	0
 1796 0547 00       		.byte	0
 1797 0548 00       		.byte	0
 1798 0549 00       		.byte	0
 1799 054a 00       		.byte	0
 1800 054b 00       		.byte	0
 1801 054c 00       		.byte	0
 1802 054d 00       		.byte	0
 1803 054e 00       		.byte	0
 1804 054f 00       		.byte	0
 1805 0550 00       		.byte	0
 1806 0551 00       		.byte	0
 1807 0552 40       		.byte	64
 1808 0553 00       		.byte	0
 1809 0554 00       		.byte	0
 1810 0555 00       		.byte	0
 1811 0556 00       		.byte	0
 1812 0557 00       		.byte	0
 1813 0558 00       		.byte	0
 1814 0559 00       		.byte	0
 1815 055a 40       		.byte	64
 1816 055b 00       		.byte	0
 1817 055c 00       		.byte	0
 1818 055d 00       		.byte	0
 1819 055e 00       		.byte	0
 1820 055f 00       		.byte	0
 1821 0560 00       		.byte	0
 1822 0561 00       		.byte	0
 1823 0562 00       		.byte	0
 1824 0563 00       		.byte	0
 1825 0564 00       		.byte	0
 1826 0565 00       		.byte	0
 1827 0566 00       		.byte	0
 1828 0567 00       		.byte	0
 1829 0568 00       		.byte	0
 1830 0569 00       		.byte	0
 1831 056a 00       		.byte	0
 1832 056b 00       		.byte	0
 1833              		.align	2
 1834              		.type	BS_DSISWITCH_1_4_VAL.4980, %object
 1835              		.size	BS_DSISWITCH_1_4_VAL.4980, 128
 1836              	BS_DSISWITCH_1_4_VAL.4980:
 1837 056c 00       		.byte	0
 1838 056d 00       		.byte	0
 1839 056e 00       		.byte	0
 1840 056f 00       		.byte	0
 1841 0570 00       		.byte	0
 1842 0571 00       		.byte	0
 1843 0572 00       		.byte	0
ARM GAS  C:\Users\Bruger\AppData\Local\Temp\ccj0lDyf.s 			page 59


 1844 0573 00       		.byte	0
 1845 0574 00       		.byte	0
 1846 0575 00       		.byte	0
 1847 0576 00       		.byte	0
 1848 0577 00       		.byte	0
 1849 0578 00       		.byte	0
 1850 0579 00       		.byte	0
 1851 057a 00       		.byte	0
 1852 057b 00       		.byte	0
 1853 057c 00       		.byte	0
 1854 057d 00       		.byte	0
 1855 057e 00       		.byte	0
 1856 057f 00       		.byte	0
 1857 0580 00       		.byte	0
 1858 0581 00       		.byte	0
 1859 0582 00       		.byte	0
 1860 0583 00       		.byte	0
 1861 0584 00       		.byte	0
 1862 0585 00       		.byte	0
 1863 0586 00       		.byte	0
 1864 0587 00       		.byte	0
 1865 0588 00       		.byte	0
 1866 0589 00       		.byte	0
 1867 058a 00       		.byte	0
 1868 058b 00       		.byte	0
 1869 058c 00       		.byte	0
 1870 058d 00       		.byte	0
 1871 058e 00       		.byte	0
 1872 058f 00       		.byte	0
 1873 0590 00       		.byte	0
 1874 0591 00       		.byte	0
 1875 0592 00       		.byte	0
 1876 0593 00       		.byte	0
 1877 0594 00       		.byte	0
 1878 0595 00       		.byte	0
 1879 0596 00       		.byte	0
 1880 0597 00       		.byte	0
 1881 0598 00       		.byte	0
 1882 0599 00       		.byte	0
 1883 059a 00       		.byte	0
 1884 059b 00       		.byte	0
 1885 059c 88       		.byte	-120
 1886 059d 00       		.byte	0
 1887 059e 00       		.byte	0
 1888 059f 00       		.byte	0
 1889 05a0 00       		.byte	0
 1890 05a1 00       		.byte	0
 1891 05a2 00       		.byte	0
 1892 05a3 08       		.byte	8
 1893 05a4 00       		.byte	0
 1894 05a5 00       		.byte	0
 1895 05a6 00       		.byte	0
 1896 05a7 40       		.byte	64
 1897 05a8 00       		.byte	0
 1898 05a9 00       		.byte	0
 1899 05aa 00       		.byte	0
 1900 05ab 00       		.byte	0
ARM GAS  C:\Users\Bruger\AppData\Local\Temp\ccj0lDyf.s 			page 60


 1901 05ac 00       		.byte	0
 1902 05ad 00       		.byte	0
 1903 05ae 00       		.byte	0
 1904 05af 00       		.byte	0
 1905 05b0 00       		.byte	0
 1906 05b1 00       		.byte	0
 1907 05b2 00       		.byte	0
 1908 05b3 00       		.byte	0
 1909 05b4 00       		.byte	0
 1910 05b5 00       		.byte	0
 1911 05b6 00       		.byte	0
 1912 05b7 00       		.byte	0
 1913 05b8 00       		.byte	0
 1914 05b9 00       		.byte	0
 1915 05ba 00       		.byte	0
 1916 05bb 00       		.byte	0
 1917 05bc 00       		.byte	0
 1918 05bd 00       		.byte	0
 1919 05be 00       		.byte	0
 1920 05bf 00       		.byte	0
 1921 05c0 00       		.byte	0
 1922 05c1 00       		.byte	0
 1923 05c2 00       		.byte	0
 1924 05c3 00       		.byte	0
 1925 05c4 00       		.byte	0
 1926 05c5 00       		.byte	0
 1927 05c6 00       		.byte	0
 1928 05c7 00       		.byte	0
 1929 05c8 00       		.byte	0
 1930 05c9 00       		.byte	0
 1931 05ca 00       		.byte	0
 1932 05cb 00       		.byte	0
 1933 05cc 00       		.byte	0
 1934 05cd 00       		.byte	0
 1935 05ce 00       		.byte	0
 1936 05cf 00       		.byte	0
 1937 05d0 00       		.byte	0
 1938 05d1 00       		.byte	0
 1939 05d2 00       		.byte	0
 1940 05d3 00       		.byte	0
 1941 05d4 00       		.byte	0
 1942 05d5 00       		.byte	0
 1943 05d6 00       		.byte	0
 1944 05d7 00       		.byte	0
 1945 05d8 00       		.byte	0
 1946 05d9 00       		.byte	0
 1947 05da 00       		.byte	0
 1948 05db 00       		.byte	0
 1949 05dc 00       		.byte	0
 1950 05dd 00       		.byte	0
 1951 05de 00       		.byte	0
 1952 05df 00       		.byte	0
 1953 05e0 00       		.byte	0
 1954 05e1 00       		.byte	0
 1955 05e2 00       		.byte	0
 1956 05e3 00       		.byte	0
 1957 05e4 00       		.byte	0
ARM GAS  C:\Users\Bruger\AppData\Local\Temp\ccj0lDyf.s 			page 61


 1958 05e5 00       		.byte	0
 1959 05e6 00       		.byte	0
 1960 05e7 00       		.byte	0
 1961 05e8 00       		.byte	0
 1962 05e9 00       		.byte	0
 1963 05ea 00       		.byte	0
 1964 05eb 00       		.byte	0
 1965              		.align	2
 1966              		.type	BS_DSI3_3_HV_ROUTING_VAL.4979, %object
 1967              		.size	BS_DSI3_3_HV_ROUTING_VAL.4979, 128
 1968              	BS_DSI3_3_HV_ROUTING_VAL.4979:
 1969 05ec 00       		.byte	0
 1970 05ed 00       		.byte	0
 1971 05ee 00       		.byte	0
 1972 05ef 08       		.byte	8
 1973 05f0 00       		.byte	0
 1974 05f1 00       		.byte	0
 1975 05f2 40       		.byte	64
 1976 05f3 00       		.byte	0
 1977 05f4 00       		.byte	0
 1978 05f5 00       		.byte	0
 1979 05f6 00       		.byte	0
 1980 05f7 00       		.byte	0
 1981 05f8 80       		.byte	-128
 1982 05f9 00       		.byte	0
 1983 05fa 01       		.byte	1
 1984 05fb 00       		.byte	0
 1985 05fc 00       		.byte	0
 1986 05fd 00       		.byte	0
 1987 05fe 00       		.byte	0
 1988 05ff 00       		.byte	0
 1989 0600 00       		.byte	0
 1990 0601 00       		.byte	0
 1991 0602 00       		.byte	0
 1992 0603 50       		.byte	80
 1993 0604 00       		.byte	0
 1994 0605 00       		.byte	0
 1995 0606 00       		.byte	0
 1996 0607 00       		.byte	0
 1997 0608 80       		.byte	-128
 1998 0609 00       		.byte	0
 1999 060a 00       		.byte	0
 2000 060b 00       		.byte	0
 2001 060c 00       		.byte	0
 2002 060d 00       		.byte	0
 2003 060e 20       		.byte	32
 2004 060f 00       		.byte	0
 2005 0610 80       		.byte	-128
 2006 0611 00       		.byte	0
 2007 0612 81       		.byte	-127
 2008 0613 00       		.byte	0
 2009 0614 08       		.byte	8
 2010 0615 00       		.byte	0
 2011 0616 00       		.byte	0
 2012 0617 00       		.byte	0
 2013 0618 00       		.byte	0
 2014 0619 00       		.byte	0
ARM GAS  C:\Users\Bruger\AppData\Local\Temp\ccj0lDyf.s 			page 62


 2015 061a 00       		.byte	0
 2016 061b 08       		.byte	8
 2017 061c 00       		.byte	0
 2018 061d 00       		.byte	0
 2019 061e 00       		.byte	0
 2020 061f 00       		.byte	0
 2021 0620 00       		.byte	0
 2022 0621 00       		.byte	0
 2023 0622 00       		.byte	0
 2024 0623 00       		.byte	0
 2025 0624 00       		.byte	0
 2026 0625 00       		.byte	0
 2027 0626 00       		.byte	0
 2028 0627 00       		.byte	0
 2029 0628 00       		.byte	0
 2030 0629 00       		.byte	0
 2031 062a 00       		.byte	0
 2032 062b 00       		.byte	0
 2033 062c 00       		.byte	0
 2034 062d 00       		.byte	0
 2035 062e 00       		.byte	0
 2036 062f 00       		.byte	0
 2037 0630 30       		.byte	48
 2038 0631 00       		.byte	0
 2039 0632 00       		.byte	0
 2040 0633 00       		.byte	0
 2041 0634 00       		.byte	0
 2042 0635 00       		.byte	0
 2043 0636 00       		.byte	0
 2044 0637 00       		.byte	0
 2045 0638 B0       		.byte	-80
 2046 0639 00       		.byte	0
 2047 063a 20       		.byte	32
 2048 063b 00       		.byte	0
 2049 063c 00       		.byte	0
 2050 063d 00       		.byte	0
 2051 063e 00       		.byte	0
 2052 063f 00       		.byte	0
 2053 0640 00       		.byte	0
 2054 0641 00       		.byte	0
 2055 0642 00       		.byte	0
 2056 0643 00       		.byte	0
 2057 0644 00       		.byte	0
 2058 0645 00       		.byte	0
 2059 0646 00       		.byte	0
 2060 0647 00       		.byte	0
 2061 0648 00       		.byte	0
 2062 0649 00       		.byte	0
 2063 064a 00       		.byte	0
 2064 064b 00       		.byte	0
 2065 064c 00       		.byte	0
 2066 064d 00       		.byte	0
 2067 064e 20       		.byte	32
 2068 064f 00       		.byte	0
 2069 0650 00       		.byte	0
 2070 0651 00       		.byte	0
 2071 0652 40       		.byte	64
ARM GAS  C:\Users\Bruger\AppData\Local\Temp\ccj0lDyf.s 			page 63


 2072 0653 00       		.byte	0
 2073 0654 00       		.byte	0
 2074 0655 00       		.byte	0
 2075 0656 90       		.byte	-112
 2076 0657 00       		.byte	0
 2077 0658 00       		.byte	0
 2078 0659 00       		.byte	0
 2079 065a 00       		.byte	0
 2080 065b 00       		.byte	0
 2081 065c 00       		.byte	0
 2082 065d 00       		.byte	0
 2083 065e 00       		.byte	0
 2084 065f 00       		.byte	0
 2085 0660 00       		.byte	0
 2086 0661 00       		.byte	0
 2087 0662 00       		.byte	0
 2088 0663 00       		.byte	0
 2089 0664 00       		.byte	0
 2090 0665 00       		.byte	0
 2091 0666 00       		.byte	0
 2092 0667 00       		.byte	0
 2093 0668 00       		.byte	0
 2094 0669 00       		.byte	0
 2095 066a 00       		.byte	0
 2096 066b 00       		.byte	0
 2097              		.align	2
 2098              		.type	BS_DSISWITCH_1_3_VAL.4978, %object
 2099              		.size	BS_DSISWITCH_1_3_VAL.4978, 128
 2100              	BS_DSISWITCH_1_3_VAL.4978:
 2101 066c 00       		.byte	0
 2102 066d 00       		.byte	0
 2103 066e 00       		.byte	0
 2104 066f 00       		.byte	0
 2105 0670 00       		.byte	0
 2106 0671 00       		.byte	0
 2107 0672 00       		.byte	0
 2108 0673 00       		.byte	0
 2109 0674 00       		.byte	0
 2110 0675 00       		.byte	0
 2111 0676 00       		.byte	0
 2112 0677 00       		.byte	0
 2113 0678 00       		.byte	0
 2114 0679 00       		.byte	0
 2115 067a 00       		.byte	0
 2116 067b 00       		.byte	0
 2117 067c 00       		.byte	0
 2118 067d 00       		.byte	0
 2119 067e 80       		.byte	-128
 2120 067f 00       		.byte	0
 2121 0680 80       		.byte	-128
 2122 0681 00       		.byte	0
 2123 0682 00       		.byte	0
 2124 0683 00       		.byte	0
 2125 0684 00       		.byte	0
 2126 0685 00       		.byte	0
 2127 0686 00       		.byte	0
 2128 0687 00       		.byte	0
ARM GAS  C:\Users\Bruger\AppData\Local\Temp\ccj0lDyf.s 			page 64


 2129 0688 00       		.byte	0
 2130 0689 00       		.byte	0
 2131 068a 00       		.byte	0
 2132 068b 00       		.byte	0
 2133 068c 00       		.byte	0
 2134 068d 00       		.byte	0
 2135 068e 00       		.byte	0
 2136 068f 00       		.byte	0
 2137 0690 00       		.byte	0
 2138 0691 00       		.byte	0
 2139 0692 00       		.byte	0
 2140 0693 00       		.byte	0
 2141 0694 00       		.byte	0
 2142 0695 00       		.byte	0
 2143 0696 00       		.byte	0
 2144 0697 00       		.byte	0
 2145 0698 00       		.byte	0
 2146 0699 00       		.byte	0
 2147 069a 00       		.byte	0
 2148 069b 00       		.byte	0
 2149 069c 00       		.byte	0
 2150 069d 00       		.byte	0
 2151 069e 20       		.byte	32
 2152 069f 00       		.byte	0
 2153 06a0 00       		.byte	0
 2154 06a1 00       		.byte	0
 2155 06a2 40       		.byte	64
 2156 06a3 08       		.byte	8
 2157 06a4 00       		.byte	0
 2158 06a5 00       		.byte	0
 2159 06a6 00       		.byte	0
 2160 06a7 00       		.byte	0
 2161 06a8 00       		.byte	0
 2162 06a9 00       		.byte	0
 2163 06aa 10       		.byte	16
 2164 06ab 00       		.byte	0
 2165 06ac 00       		.byte	0
 2166 06ad 00       		.byte	0
 2167 06ae 00       		.byte	0
 2168 06af 00       		.byte	0
 2169 06b0 00       		.byte	0
 2170 06b1 00       		.byte	0
 2171 06b2 00       		.byte	0
 2172 06b3 00       		.byte	0
 2173 06b4 00       		.byte	0
 2174 06b5 00       		.byte	0
 2175 06b6 00       		.byte	0
 2176 06b7 00       		.byte	0
 2177 06b8 00       		.byte	0
 2178 06b9 00       		.byte	0
 2179 06ba 00       		.byte	0
 2180 06bb 00       		.byte	0
 2181 06bc 00       		.byte	0
 2182 06bd 00       		.byte	0
 2183 06be 00       		.byte	0
 2184 06bf 00       		.byte	0
 2185 06c0 00       		.byte	0
ARM GAS  C:\Users\Bruger\AppData\Local\Temp\ccj0lDyf.s 			page 65


 2186 06c1 00       		.byte	0
 2187 06c2 00       		.byte	0
 2188 06c3 00       		.byte	0
 2189 06c4 00       		.byte	0
 2190 06c5 00       		.byte	0
 2191 06c6 00       		.byte	0
 2192 06c7 00       		.byte	0
 2193 06c8 00       		.byte	0
 2194 06c9 00       		.byte	0
 2195 06ca 00       		.byte	0
 2196 06cb 00       		.byte	0
 2197 06cc 00       		.byte	0
 2198 06cd 00       		.byte	0
 2199 06ce 00       		.byte	0
 2200 06cf 00       		.byte	0
 2201 06d0 00       		.byte	0
 2202 06d1 00       		.byte	0
 2203 06d2 00       		.byte	0
 2204 06d3 00       		.byte	0
 2205 06d4 00       		.byte	0
 2206 06d5 00       		.byte	0
 2207 06d6 00       		.byte	0
 2208 06d7 00       		.byte	0
 2209 06d8 00       		.byte	0
 2210 06d9 00       		.byte	0
 2211 06da 00       		.byte	0
 2212 06db 00       		.byte	0
 2213 06dc 00       		.byte	0
 2214 06dd 00       		.byte	0
 2215 06de 00       		.byte	0
 2216 06df 00       		.byte	0
 2217 06e0 00       		.byte	0
 2218 06e1 00       		.byte	0
 2219 06e2 00       		.byte	0
 2220 06e3 00       		.byte	0
 2221 06e4 00       		.byte	0
 2222 06e5 00       		.byte	0
 2223 06e6 00       		.byte	0
 2224 06e7 00       		.byte	0
 2225 06e8 00       		.byte	0
 2226 06e9 00       		.byte	0
 2227 06ea 00       		.byte	0
 2228 06eb 00       		.byte	0
 2229              		.align	2
 2230              		.type	BS_DSI3_2_HV_ROUTING_VAL.4977, %object
 2231              		.size	BS_DSI3_2_HV_ROUTING_VAL.4977, 128
 2232              	BS_DSI3_2_HV_ROUTING_VAL.4977:
 2233 06ec 00       		.byte	0
 2234 06ed 00       		.byte	0
 2235 06ee 00       		.byte	0
 2236 06ef 00       		.byte	0
 2237 06f0 00       		.byte	0
 2238 06f1 00       		.byte	0
 2239 06f2 00       		.byte	0
 2240 06f3 10       		.byte	16
 2241 06f4 00       		.byte	0
 2242 06f5 00       		.byte	0
ARM GAS  C:\Users\Bruger\AppData\Local\Temp\ccj0lDyf.s 			page 66


 2243 06f6 00       		.byte	0
 2244 06f7 00       		.byte	0
 2245 06f8 00       		.byte	0
 2246 06f9 00       		.byte	0
 2247 06fa 00       		.byte	0
 2248 06fb 00       		.byte	0
 2249 06fc 00       		.byte	0
 2250 06fd 00       		.byte	0
 2251 06fe 00       		.byte	0
 2252 06ff 00       		.byte	0
 2253 0700 00       		.byte	0
 2254 0701 00       		.byte	0
 2255 0702 10       		.byte	16
 2256 0703 10       		.byte	16
 2257 0704 00       		.byte	0
 2258 0705 00       		.byte	0
 2259 0706 00       		.byte	0
 2260 0707 00       		.byte	0
 2261 0708 00       		.byte	0
 2262 0709 00       		.byte	0
 2263 070a 00       		.byte	0
 2264 070b 00       		.byte	0
 2265 070c 00       		.byte	0
 2266 070d 00       		.byte	0
 2267 070e 00       		.byte	0
 2268 070f 00       		.byte	0
 2269 0710 00       		.byte	0
 2270 0711 00       		.byte	0
 2271 0712 00       		.byte	0
 2272 0713 00       		.byte	0
 2273 0714 00       		.byte	0
 2274 0715 00       		.byte	0
 2275 0716 00       		.byte	0
 2276 0717 00       		.byte	0
 2277 0718 00       		.byte	0
 2278 0719 00       		.byte	0
 2279 071a 00       		.byte	0
 2280 071b 40       		.byte	64
 2281 071c 00       		.byte	0
 2282 071d 00       		.byte	0
 2283 071e 00       		.byte	0
 2284 071f 00       		.byte	0
 2285 0720 00       		.byte	0
 2286 0721 00       		.byte	0
 2287 0722 00       		.byte	0
 2288 0723 00       		.byte	0
 2289 0724 00       		.byte	0
 2290 0725 00       		.byte	0
 2291 0726 00       		.byte	0
 2292 0727 00       		.byte	0
 2293 0728 00       		.byte	0
 2294 0729 00       		.byte	0
 2295 072a 00       		.byte	0
 2296 072b 00       		.byte	0
 2297 072c 00       		.byte	0
 2298 072d 00       		.byte	0
 2299 072e 00       		.byte	0
ARM GAS  C:\Users\Bruger\AppData\Local\Temp\ccj0lDyf.s 			page 67


 2300 072f 00       		.byte	0
 2301 0730 00       		.byte	0
 2302 0731 00       		.byte	0
 2303 0732 00       		.byte	0
 2304 0733 00       		.byte	0
 2305 0734 00       		.byte	0
 2306 0735 00       		.byte	0
 2307 0736 00       		.byte	0
 2308 0737 00       		.byte	0
 2309 0738 00       		.byte	0
 2310 0739 00       		.byte	0
 2311 073a 00       		.byte	0
 2312 073b 00       		.byte	0
 2313 073c 00       		.byte	0
 2314 073d 00       		.byte	0
 2315 073e 00       		.byte	0
 2316 073f 00       		.byte	0
 2317 0740 40       		.byte	64
 2318 0741 00       		.byte	0
 2319 0742 00       		.byte	0
 2320 0743 00       		.byte	0
 2321 0744 40       		.byte	64
 2322 0745 00       		.byte	0
 2323 0746 00       		.byte	0
 2324 0747 00       		.byte	0
 2325 0748 40       		.byte	64
 2326 0749 00       		.byte	0
 2327 074a 00       		.byte	0
 2328 074b 00       		.byte	0
 2329 074c 00       		.byte	0
 2330 074d 00       		.byte	0
 2331 074e 10       		.byte	16
 2332 074f 00       		.byte	0
 2333 0750 00       		.byte	0
 2334 0751 00       		.byte	0
 2335 0752 00       		.byte	0
 2336 0753 00       		.byte	0
 2337 0754 00       		.byte	0
 2338 0755 00       		.byte	0
 2339 0756 00       		.byte	0
 2340 0757 00       		.byte	0
 2341 0758 00       		.byte	0
 2342 0759 00       		.byte	0
 2343 075a 40       		.byte	64
 2344 075b 00       		.byte	0
 2345 075c 00       		.byte	0
 2346 075d 00       		.byte	0
 2347 075e 00       		.byte	0
 2348 075f 00       		.byte	0
 2349 0760 00       		.byte	0
 2350 0761 00       		.byte	0
 2351 0762 00       		.byte	0
 2352 0763 00       		.byte	0
 2353 0764 00       		.byte	0
 2354 0765 00       		.byte	0
 2355 0766 00       		.byte	0
 2356 0767 00       		.byte	0
ARM GAS  C:\Users\Bruger\AppData\Local\Temp\ccj0lDyf.s 			page 68


 2357 0768 00       		.byte	0
 2358 0769 00       		.byte	0
 2359 076a 00       		.byte	0
 2360 076b 00       		.byte	0
 2361              		.align	2
 2362              		.type	BS_DSISWITCH_1_2_VAL.4976, %object
 2363              		.size	BS_DSISWITCH_1_2_VAL.4976, 128
 2364              	BS_DSISWITCH_1_2_VAL.4976:
 2365 076c 00       		.byte	0
 2366 076d 00       		.byte	0
 2367 076e 00       		.byte	0
 2368 076f 00       		.byte	0
 2369 0770 00       		.byte	0
 2370 0771 00       		.byte	0
 2371 0772 00       		.byte	0
 2372 0773 00       		.byte	0
 2373 0774 00       		.byte	0
 2374 0775 00       		.byte	0
 2375 0776 00       		.byte	0
 2376 0777 00       		.byte	0
 2377 0778 00       		.byte	0
 2378 0779 00       		.byte	0
 2379 077a 00       		.byte	0
 2380 077b 00       		.byte	0
 2381 077c 00       		.byte	0
 2382 077d 00       		.byte	0
 2383 077e 00       		.byte	0
 2384 077f 00       		.byte	0
 2385 0780 00       		.byte	0
 2386 0781 00       		.byte	0
 2387 0782 00       		.byte	0
 2388 0783 00       		.byte	0
 2389 0784 00       		.byte	0
 2390 0785 00       		.byte	0
 2391 0786 00       		.byte	0
 2392 0787 00       		.byte	0
 2393 0788 00       		.byte	0
 2394 0789 00       		.byte	0
 2395 078a 00       		.byte	0
 2396 078b 00       		.byte	0
 2397 078c 00       		.byte	0
 2398 078d 00       		.byte	0
 2399 078e 00       		.byte	0
 2400 078f 00       		.byte	0
 2401 0790 00       		.byte	0
 2402 0791 00       		.byte	0
 2403 0792 00       		.byte	0
 2404 0793 00       		.byte	0
 2405 0794 00       		.byte	0
 2406 0795 00       		.byte	0
 2407 0796 00       		.byte	0
 2408 0797 00       		.byte	0
 2409 0798 00       		.byte	0
 2410 0799 00       		.byte	0
 2411 079a 00       		.byte	0
 2412 079b 00       		.byte	0
 2413 079c 00       		.byte	0
ARM GAS  C:\Users\Bruger\AppData\Local\Temp\ccj0lDyf.s 			page 69


 2414 079d 00       		.byte	0
 2415 079e 00       		.byte	0
 2416 079f 00       		.byte	0
 2417 07a0 00       		.byte	0
 2418 07a1 00       		.byte	0
 2419 07a2 00       		.byte	0
 2420 07a3 00       		.byte	0
 2421 07a4 00       		.byte	0
 2422 07a5 00       		.byte	0
 2423 07a6 00       		.byte	0
 2424 07a7 00       		.byte	0
 2425 07a8 00       		.byte	0
 2426 07a9 00       		.byte	0
 2427 07aa 00       		.byte	0
 2428 07ab 00       		.byte	0
 2429 07ac 00       		.byte	0
 2430 07ad 00       		.byte	0
 2431 07ae 00       		.byte	0
 2432 07af 00       		.byte	0
 2433 07b0 00       		.byte	0
 2434 07b1 00       		.byte	0
 2435 07b2 00       		.byte	0
 2436 07b3 00       		.byte	0
 2437 07b4 00       		.byte	0
 2438 07b5 00       		.byte	0
 2439 07b6 00       		.byte	0
 2440 07b7 00       		.byte	0
 2441 07b8 00       		.byte	0
 2442 07b9 00       		.byte	0
 2443 07ba 00       		.byte	0
 2444 07bb 00       		.byte	0
 2445 07bc 00       		.byte	0
 2446 07bd 00       		.byte	0
 2447 07be 00       		.byte	0
 2448 07bf 00       		.byte	0
 2449 07c0 00       		.byte	0
 2450 07c1 08       		.byte	8
 2451 07c2 00       		.byte	0
 2452 07c3 00       		.byte	0
 2453 07c4 00       		.byte	0
 2454 07c5 00       		.byte	0
 2455 07c6 00       		.byte	0
 2456 07c7 00       		.byte	0
 2457 07c8 00       		.byte	0
 2458 07c9 00       		.byte	0
 2459 07ca 00       		.byte	0
 2460 07cb 00       		.byte	0
 2461 07cc 00       		.byte	0
 2462 07cd 00       		.byte	0
 2463 07ce 00       		.byte	0
 2464 07cf 20       		.byte	32
 2465 07d0 00       		.byte	0
 2466 07d1 00       		.byte	0
 2467 07d2 00       		.byte	0
 2468 07d3 00       		.byte	0
 2469 07d4 00       		.byte	0
 2470 07d5 00       		.byte	0
ARM GAS  C:\Users\Bruger\AppData\Local\Temp\ccj0lDyf.s 			page 70


 2471 07d6 00       		.byte	0
 2472 07d7 00       		.byte	0
 2473 07d8 00       		.byte	0
 2474 07d9 00       		.byte	0
 2475 07da 00       		.byte	0
 2476 07db 00       		.byte	0
 2477 07dc 00       		.byte	0
 2478 07dd 00       		.byte	0
 2479 07de 00       		.byte	0
 2480 07df 00       		.byte	0
 2481 07e0 40       		.byte	64
 2482 07e1 00       		.byte	0
 2483 07e2 00       		.byte	0
 2484 07e3 00       		.byte	0
 2485 07e4 00       		.byte	0
 2486 07e5 00       		.byte	0
 2487 07e6 00       		.byte	0
 2488 07e7 00       		.byte	0
 2489 07e8 00       		.byte	0
 2490 07e9 00       		.byte	0
 2491 07ea 00       		.byte	0
 2492 07eb 00       		.byte	0
 2493              		.align	2
 2494              		.type	BS_DSI3_1_HV_ROUTING_VAL.4975, %object
 2495              		.size	BS_DSI3_1_HV_ROUTING_VAL.4975, 128
 2496              	BS_DSI3_1_HV_ROUTING_VAL.4975:
 2497 07ec 00       		.byte	0
 2498 07ed 00       		.byte	0
 2499 07ee 00       		.byte	0
 2500 07ef 40       		.byte	64
 2501 07f0 00       		.byte	0
 2502 07f1 00       		.byte	0
 2503 07f2 00       		.byte	0
 2504 07f3 40       		.byte	64
 2505 07f4 00       		.byte	0
 2506 07f5 08       		.byte	8
 2507 07f6 40       		.byte	64
 2508 07f7 00       		.byte	0
 2509 07f8 00       		.byte	0
 2510 07f9 04       		.byte	4
 2511 07fa 08       		.byte	8
 2512 07fb 00       		.byte	0
 2513 07fc 00       		.byte	0
 2514 07fd 00       		.byte	0
 2515 07fe 00       		.byte	0
 2516 07ff 00       		.byte	0
 2517 0800 00       		.byte	0
 2518 0801 00       		.byte	0
 2519 0802 10       		.byte	16
 2520 0803 00       		.byte	0
 2521 0804 00       		.byte	0
 2522 0805 00       		.byte	0
 2523 0806 00       		.byte	0
 2524 0807 00       		.byte	0
 2525 0808 00       		.byte	0
 2526 0809 00       		.byte	0
 2527 080a 00       		.byte	0
ARM GAS  C:\Users\Bruger\AppData\Local\Temp\ccj0lDyf.s 			page 71


 2528 080b 00       		.byte	0
 2529 080c 00       		.byte	0
 2530 080d 00       		.byte	0
 2531 080e 00       		.byte	0
 2532 080f 00       		.byte	0
 2533 0810 00       		.byte	0
 2534 0811 08       		.byte	8
 2535 0812 00       		.byte	0
 2536 0813 00       		.byte	0
 2537 0814 00       		.byte	0
 2538 0815 00       		.byte	0
 2539 0816 00       		.byte	0
 2540 0817 10       		.byte	16
 2541 0818 40       		.byte	64
 2542 0819 00       		.byte	0
 2543 081a 00       		.byte	0
 2544 081b 00       		.byte	0
 2545 081c 00       		.byte	0
 2546 081d 00       		.byte	0
 2547 081e 00       		.byte	0
 2548 081f 00       		.byte	0
 2549 0820 00       		.byte	0
 2550 0821 00       		.byte	0
 2551 0822 00       		.byte	0
 2552 0823 00       		.byte	0
 2553 0824 00       		.byte	0
 2554 0825 00       		.byte	0
 2555 0826 00       		.byte	0
 2556 0827 00       		.byte	0
 2557 0828 00       		.byte	0
 2558 0829 00       		.byte	0
 2559 082a 00       		.byte	0
 2560 082b 00       		.byte	0
 2561 082c 00       		.byte	0
 2562 082d 00       		.byte	0
 2563 082e 00       		.byte	0
 2564 082f 00       		.byte	0
 2565 0830 00       		.byte	0
 2566 0831 00       		.byte	0
 2567 0832 00       		.byte	0
 2568 0833 00       		.byte	0
 2569 0834 00       		.byte	0
 2570 0835 00       		.byte	0
 2571 0836 00       		.byte	0
 2572 0837 00       		.byte	0
 2573 0838 00       		.byte	0
 2574 0839 00       		.byte	0
 2575 083a 00       		.byte	0
 2576 083b 00       		.byte	0
 2577 083c 00       		.byte	0
 2578 083d 00       		.byte	0
 2579 083e 00       		.byte	0
 2580 083f 00       		.byte	0
 2581 0840 40       		.byte	64
 2582 0841 00       		.byte	0
 2583 0842 00       		.byte	0
 2584 0843 00       		.byte	0
ARM GAS  C:\Users\Bruger\AppData\Local\Temp\ccj0lDyf.s 			page 72


 2585 0844 00       		.byte	0
 2586 0845 00       		.byte	0
 2587 0846 00       		.byte	0
 2588 0847 00       		.byte	0
 2589 0848 00       		.byte	0
 2590 0849 00       		.byte	0
 2591 084a 00       		.byte	0
 2592 084b 00       		.byte	0
 2593 084c 30       		.byte	48
 2594 084d 00       		.byte	0
 2595 084e 00       		.byte	0
 2596 084f 00       		.byte	0
 2597 0850 00       		.byte	0
 2598 0851 00       		.byte	0
 2599 0852 00       		.byte	0
 2600 0853 00       		.byte	0
 2601 0854 00       		.byte	0
 2602 0855 00       		.byte	0
 2603 0856 40       		.byte	64
 2604 0857 00       		.byte	0
 2605 0858 00       		.byte	0
 2606 0859 00       		.byte	0
 2607 085a 80       		.byte	-128
 2608 085b 00       		.byte	0
 2609 085c 00       		.byte	0
 2610 085d 00       		.byte	0
 2611 085e 00       		.byte	0
 2612 085f 00       		.byte	0
 2613 0860 00       		.byte	0
 2614 0861 00       		.byte	0
 2615 0862 00       		.byte	0
 2616 0863 00       		.byte	0
 2617 0864 00       		.byte	0
 2618 0865 00       		.byte	0
 2619 0866 00       		.byte	0
 2620 0867 00       		.byte	0
 2621 0868 00       		.byte	0
 2622 0869 00       		.byte	0
 2623 086a 00       		.byte	0
 2624 086b 00       		.byte	0
 2625              		.align	2
 2626              		.type	BS_DSISWITCH_1_1_VAL.4974, %object
 2627              		.size	BS_DSISWITCH_1_1_VAL.4974, 128
 2628              	BS_DSISWITCH_1_1_VAL.4974:
 2629 086c 00       		.byte	0
 2630 086d 00       		.byte	0
 2631 086e 00       		.byte	0
 2632 086f 00       		.byte	0
 2633 0870 00       		.byte	0
 2634 0871 00       		.byte	0
 2635 0872 00       		.byte	0
 2636 0873 00       		.byte	0
 2637 0874 00       		.byte	0
 2638 0875 00       		.byte	0
 2639 0876 00       		.byte	0
 2640 0877 00       		.byte	0
 2641 0878 00       		.byte	0
ARM GAS  C:\Users\Bruger\AppData\Local\Temp\ccj0lDyf.s 			page 73


 2642 0879 00       		.byte	0
 2643 087a 00       		.byte	0
 2644 087b 00       		.byte	0
 2645 087c 00       		.byte	0
 2646 087d 00       		.byte	0
 2647 087e 00       		.byte	0
 2648 087f 00       		.byte	0
 2649 0880 00       		.byte	0
 2650 0881 00       		.byte	0
 2651 0882 00       		.byte	0
 2652 0883 00       		.byte	0
 2653 0884 00       		.byte	0
 2654 0885 00       		.byte	0
 2655 0886 00       		.byte	0
 2656 0887 00       		.byte	0
 2657 0888 00       		.byte	0
 2658 0889 00       		.byte	0
 2659 088a 00       		.byte	0
 2660 088b 00       		.byte	0
 2661 088c 00       		.byte	0
 2662 088d 00       		.byte	0
 2663 088e 00       		.byte	0
 2664 088f 00       		.byte	0
 2665 0890 00       		.byte	0
 2666 0891 00       		.byte	0
 2667 0892 00       		.byte	0
 2668 0893 00       		.byte	0
 2669 0894 00       		.byte	0
 2670 0895 00       		.byte	0
 2671 0896 00       		.byte	0
 2672 0897 00       		.byte	0
 2673 0898 00       		.byte	0
 2674 0899 00       		.byte	0
 2675 089a 00       		.byte	0
 2676 089b 00       		.byte	0
 2677 089c 00       		.byte	0
 2678 089d 00       		.byte	0
 2679 089e 00       		.byte	0
 2680 089f 00       		.byte	0
 2681 08a0 00       		.byte	0
 2682 08a1 00       		.byte	0
 2683 08a2 00       		.byte	0
 2684 08a3 00       		.byte	0
 2685 08a4 00       		.byte	0
 2686 08a5 00       		.byte	0
 2687 08a6 00       		.byte	0
 2688 08a7 00       		.byte	0
 2689 08a8 00       		.byte	0
 2690 08a9 00       		.byte	0
 2691 08aa 00       		.byte	0
 2692 08ab 00       		.byte	0
 2693 08ac 00       		.byte	0
 2694 08ad 00       		.byte	0
 2695 08ae 00       		.byte	0
 2696 08af 00       		.byte	0
 2697 08b0 00       		.byte	0
 2698 08b1 00       		.byte	0
ARM GAS  C:\Users\Bruger\AppData\Local\Temp\ccj0lDyf.s 			page 74


 2699 08b2 00       		.byte	0
 2700 08b3 00       		.byte	0
 2701 08b4 00       		.byte	0
 2702 08b5 00       		.byte	0
 2703 08b6 00       		.byte	0
 2704 08b7 00       		.byte	0
 2705 08b8 00       		.byte	0
 2706 08b9 00       		.byte	0
 2707 08ba 00       		.byte	0
 2708 08bb 00       		.byte	0
 2709 08bc 00       		.byte	0
 2710 08bd 00       		.byte	0
 2711 08be 00       		.byte	0
 2712 08bf 00       		.byte	0
 2713 08c0 00       		.byte	0
 2714 08c1 00       		.byte	0
 2715 08c2 20       		.byte	32
 2716 08c3 00       		.byte	0
 2717 08c4 00       		.byte	0
 2718 08c5 00       		.byte	0
 2719 08c6 00       		.byte	0
 2720 08c7 00       		.byte	0
 2721 08c8 00       		.byte	0
 2722 08c9 00       		.byte	0
 2723 08ca 00       		.byte	0
 2724 08cb 00       		.byte	0
 2725 08cc 00       		.byte	0
 2726 08cd 00       		.byte	0
 2727 08ce 00       		.byte	0
 2728 08cf 00       		.byte	0
 2729 08d0 00       		.byte	0
 2730 08d1 00       		.byte	0
 2731 08d2 00       		.byte	0
 2732 08d3 00       		.byte	0
 2733 08d4 00       		.byte	0
 2734 08d5 00       		.byte	0
 2735 08d6 00       		.byte	0
 2736 08d7 00       		.byte	0
 2737 08d8 00       		.byte	0
 2738 08d9 00       		.byte	0
 2739 08da 00       		.byte	0
 2740 08db 00       		.byte	0
 2741 08dc 00       		.byte	0
 2742 08dd 00       		.byte	0
 2743 08de 00       		.byte	0
 2744 08df 00       		.byte	0
 2745 08e0 00       		.byte	0
 2746 08e1 00       		.byte	0
 2747 08e2 00       		.byte	0
 2748 08e3 00       		.byte	0
 2749 08e4 00       		.byte	0
 2750 08e5 00       		.byte	0
 2751 08e6 00       		.byte	0
 2752 08e7 00       		.byte	0
 2753 08e8 00       		.byte	0
 2754 08e9 00       		.byte	0
 2755 08ea 00       		.byte	0
ARM GAS  C:\Users\Bruger\AppData\Local\Temp\ccj0lDyf.s 			page 75


 2756 08eb 00       		.byte	0
 2757              		.align	2
 2758              		.type	BS_DSI3_0_HV_ROUTING_VAL.4973, %object
 2759              		.size	BS_DSI3_0_HV_ROUTING_VAL.4973, 128
 2760              	BS_DSI3_0_HV_ROUTING_VAL.4973:
 2761 08ec 00       		.byte	0
 2762 08ed 00       		.byte	0
 2763 08ee 00       		.byte	0
 2764 08ef 00       		.byte	0
 2765 08f0 00       		.byte	0
 2766 08f1 00       		.byte	0
 2767 08f2 00       		.byte	0
 2768 08f3 00       		.byte	0
 2769 08f4 00       		.byte	0
 2770 08f5 00       		.byte	0
 2771 08f6 00       		.byte	0
 2772 08f7 00       		.byte	0
 2773 08f8 00       		.byte	0
 2774 08f9 00       		.byte	0
 2775 08fa 00       		.byte	0
 2776 08fb 00       		.byte	0
 2777 08fc 00       		.byte	0
 2778 08fd 00       		.byte	0
 2779 08fe 00       		.byte	0
 2780 08ff 40       		.byte	64
 2781 0900 00       		.byte	0
 2782 0901 00       		.byte	0
 2783 0902 00       		.byte	0
 2784 0903 80       		.byte	-128
 2785 0904 00       		.byte	0
 2786 0905 04       		.byte	4
 2787 0906 00       		.byte	0
 2788 0907 00       		.byte	0
 2789 0908 00       		.byte	0
 2790 0909 00       		.byte	0
 2791 090a 40       		.byte	64
 2792 090b 02       		.byte	2
 2793 090c 00       		.byte	0
 2794 090d 00       		.byte	0
 2795 090e 00       		.byte	0
 2796 090f 00       		.byte	0
 2797 0910 00       		.byte	0
 2798 0911 00       		.byte	0
 2799 0912 08       		.byte	8
 2800 0913 40       		.byte	64
 2801 0914 00       		.byte	0
 2802 0915 00       		.byte	0
 2803 0916 10       		.byte	16
 2804 0917 00       		.byte	0
 2805 0918 00       		.byte	0
 2806 0919 00       		.byte	0
 2807 091a 00       		.byte	0
 2808 091b 40       		.byte	64
 2809 091c 00       		.byte	0
 2810 091d 00       		.byte	0
 2811 091e 00       		.byte	0
 2812 091f 00       		.byte	0
ARM GAS  C:\Users\Bruger\AppData\Local\Temp\ccj0lDyf.s 			page 76


 2813 0920 00       		.byte	0
 2814 0921 00       		.byte	0
 2815 0922 20       		.byte	32
 2816 0923 02       		.byte	2
 2817 0924 00       		.byte	0
 2818 0925 00       		.byte	0
 2819 0926 00       		.byte	0
 2820 0927 00       		.byte	0
 2821 0928 00       		.byte	0
 2822 0929 00       		.byte	0
 2823 092a 00       		.byte	0
 2824 092b 00       		.byte	0
 2825 092c 00       		.byte	0
 2826 092d 00       		.byte	0
 2827 092e 00       		.byte	0
 2828 092f 00       		.byte	0
 2829 0930 30       		.byte	48
 2830 0931 00       		.byte	0
 2831 0932 C0       		.byte	-64
 2832 0933 00       		.byte	0
 2833 0934 40       		.byte	64
 2834 0935 00       		.byte	0
 2835 0936 00       		.byte	0
 2836 0937 00       		.byte	0
 2837 0938 00       		.byte	0
 2838 0939 00       		.byte	0
 2839 093a 00       		.byte	0
 2840 093b 00       		.byte	0
 2841 093c 00       		.byte	0
 2842 093d 00       		.byte	0
 2843 093e 00       		.byte	0
 2844 093f 00       		.byte	0
 2845 0940 00       		.byte	0
 2846 0941 00       		.byte	0
 2847 0942 00       		.byte	0
 2848 0943 00       		.byte	0
 2849 0944 00       		.byte	0
 2850 0945 00       		.byte	0
 2851 0946 00       		.byte	0
 2852 0947 00       		.byte	0
 2853 0948 80       		.byte	-128
 2854 0949 00       		.byte	0
 2855 094a 20       		.byte	32
 2856 094b 00       		.byte	0
 2857 094c 00       		.byte	0
 2858 094d 00       		.byte	0
 2859 094e 00       		.byte	0
 2860 094f 00       		.byte	0
 2861 0950 00       		.byte	0
 2862 0951 00       		.byte	0
 2863 0952 00       		.byte	0
 2864 0953 00       		.byte	0
 2865 0954 00       		.byte	0
 2866 0955 00       		.byte	0
 2867 0956 80       		.byte	-128
 2868 0957 00       		.byte	0
 2869 0958 00       		.byte	0
ARM GAS  C:\Users\Bruger\AppData\Local\Temp\ccj0lDyf.s 			page 77


 2870 0959 00       		.byte	0
 2871 095a 40       		.byte	64
 2872 095b 00       		.byte	0
 2873 095c 00       		.byte	0
 2874 095d 00       		.byte	0
 2875 095e 00       		.byte	0
 2876 095f 00       		.byte	0
 2877 0960 00       		.byte	0
 2878 0961 00       		.byte	0
 2879 0962 00       		.byte	0
 2880 0963 00       		.byte	0
 2881 0964 00       		.byte	0
 2882 0965 00       		.byte	0
 2883 0966 00       		.byte	0
 2884 0967 00       		.byte	0
 2885 0968 00       		.byte	0
 2886 0969 00       		.byte	0
 2887 096a 00       		.byte	0
 2888 096b 00       		.byte	0
 2889              		.align	2
 2890              		.type	BS_DSISWITCH_1_0_VAL.4972, %object
 2891              		.size	BS_DSISWITCH_1_0_VAL.4972, 128
 2892              	BS_DSISWITCH_1_0_VAL.4972:
 2893 096c 00       		.byte	0
 2894 096d 00       		.byte	0
 2895 096e 00       		.byte	0
 2896 096f 00       		.byte	0
 2897 0970 00       		.byte	0
 2898 0971 00       		.byte	0
 2899 0972 00       		.byte	0
 2900 0973 00       		.byte	0
 2901 0974 00       		.byte	0
 2902 0975 00       		.byte	0
 2903 0976 00       		.byte	0
 2904 0977 00       		.byte	0
 2905 0978 00       		.byte	0
 2906 0979 00       		.byte	0
 2907 097a 00       		.byte	0
 2908 097b 00       		.byte	0
 2909 097c 00       		.byte	0
 2910 097d 00       		.byte	0
 2911 097e 40       		.byte	64
 2912 097f 00       		.byte	0
 2913 0980 00       		.byte	0
 2914 0981 00       		.byte	0
 2915 0982 00       		.byte	0
 2916 0983 02       		.byte	2
 2917 0984 00       		.byte	0
 2918 0985 00       		.byte	0
 2919 0986 00       		.byte	0
 2920 0987 40       		.byte	64
 2921 0988 00       		.byte	0
 2922 0989 00       		.byte	0
 2923 098a 00       		.byte	0
 2924 098b 40       		.byte	64
 2925 098c 00       		.byte	0
 2926 098d 00       		.byte	0
ARM GAS  C:\Users\Bruger\AppData\Local\Temp\ccj0lDyf.s 			page 78


 2927 098e 08       		.byte	8
 2928 098f 00       		.byte	0
 2929 0990 00       		.byte	0
 2930 0991 00       		.byte	0
 2931 0992 00       		.byte	0
 2932 0993 00       		.byte	0
 2933 0994 00       		.byte	0
 2934 0995 00       		.byte	0
 2935 0996 00       		.byte	0
 2936 0997 00       		.byte	0
 2937 0998 00       		.byte	0
 2938 0999 00       		.byte	0
 2939 099a 00       		.byte	0
 2940 099b 00       		.byte	0
 2941 099c 00       		.byte	0
 2942 099d 00       		.byte	0
 2943 099e 00       		.byte	0
 2944 099f 00       		.byte	0
 2945 09a0 00       		.byte	0
 2946 09a1 00       		.byte	0
 2947 09a2 00       		.byte	0
 2948 09a3 00       		.byte	0
 2949 09a4 00       		.byte	0
 2950 09a5 00       		.byte	0
 2951 09a6 00       		.byte	0
 2952 09a7 00       		.byte	0
 2953 09a8 00       		.byte	0
 2954 09a9 00       		.byte	0
 2955 09aa 00       		.byte	0
 2956 09ab 00       		.byte	0
 2957 09ac 00       		.byte	0
 2958 09ad 00       		.byte	0
 2959 09ae 00       		.byte	0
 2960 09af 00       		.byte	0
 2961 09b0 00       		.byte	0
 2962 09b1 00       		.byte	0
 2963 09b2 00       		.byte	0
 2964 09b3 00       		.byte	0
 2965 09b4 00       		.byte	0
 2966 09b5 00       		.byte	0
 2967 09b6 00       		.byte	0
 2968 09b7 00       		.byte	0
 2969 09b8 00       		.byte	0
 2970 09b9 00       		.byte	0
 2971 09ba 00       		.byte	0
 2972 09bb 00       		.byte	0
 2973 09bc 00       		.byte	0
 2974 09bd 00       		.byte	0
 2975 09be 00       		.byte	0
 2976 09bf 00       		.byte	0
 2977 09c0 00       		.byte	0
 2978 09c1 00       		.byte	0
 2979 09c2 00       		.byte	0
 2980 09c3 00       		.byte	0
 2981 09c4 00       		.byte	0
 2982 09c5 00       		.byte	0
 2983 09c6 00       		.byte	0
ARM GAS  C:\Users\Bruger\AppData\Local\Temp\ccj0lDyf.s 			page 79


 2984 09c7 00       		.byte	0
 2985 09c8 00       		.byte	0
 2986 09c9 00       		.byte	0
 2987 09ca 00       		.byte	0
 2988 09cb 00       		.byte	0
 2989 09cc 00       		.byte	0
 2990 09cd 00       		.byte	0
 2991 09ce 00       		.byte	0
 2992 09cf 00       		.byte	0
 2993 09d0 00       		.byte	0
 2994 09d1 00       		.byte	0
 2995 09d2 00       		.byte	0
 2996 09d3 00       		.byte	0
 2997 09d4 00       		.byte	0
 2998 09d5 00       		.byte	0
 2999 09d6 00       		.byte	0
 3000 09d7 00       		.byte	0
 3001 09d8 00       		.byte	0
 3002 09d9 00       		.byte	0
 3003 09da 00       		.byte	0
 3004 09db 00       		.byte	0
 3005 09dc 00       		.byte	0
 3006 09dd 00       		.byte	0
 3007 09de 00       		.byte	0
 3008 09df 40       		.byte	64
 3009 09e0 00       		.byte	0
 3010 09e1 04       		.byte	4
 3011 09e2 00       		.byte	0
 3012 09e3 00       		.byte	0
 3013 09e4 00       		.byte	0
 3014 09e5 00       		.byte	0
 3015 09e6 00       		.byte	0
 3016 09e7 00       		.byte	0
 3017 09e8 00       		.byte	0
 3018 09e9 00       		.byte	0
 3019 09ea 00       		.byte	0
 3020 09eb 00       		.byte	0
 3021              		.align	2
 3022              		.type	BS_UDB_2_5_HV_ROUTING_VAL.4971, %object
 3023              		.size	BS_UDB_2_5_HV_ROUTING_VAL.4971, 128
 3024              	BS_UDB_2_5_HV_ROUTING_VAL.4971:
 3025 09ec 08       		.byte	8
 3026 09ed 00       		.byte	0
 3027 09ee 00       		.byte	0
 3028 09ef 00       		.byte	0
 3029 09f0 00       		.byte	0
 3030 09f1 80       		.byte	-128
 3031 09f2 00       		.byte	0
 3032 09f3 00       		.byte	0
 3033 09f4 00       		.byte	0
 3034 09f5 10       		.byte	16
 3035 09f6 00       		.byte	0
 3036 09f7 22       		.byte	34
 3037 09f8 00       		.byte	0
 3038 09f9 00       		.byte	0
 3039 09fa 10       		.byte	16
 3040 09fb 01       		.byte	1
ARM GAS  C:\Users\Bruger\AppData\Local\Temp\ccj0lDyf.s 			page 80


 3041 09fc 00       		.byte	0
 3042 09fd 00       		.byte	0
 3043 09fe 00       		.byte	0
 3044 09ff 00       		.byte	0
 3045 0a00 00       		.byte	0
 3046 0a01 00       		.byte	0
 3047 0a02 00       		.byte	0
 3048 0a03 00       		.byte	0
 3049 0a04 00       		.byte	0
 3050 0a05 00       		.byte	0
 3051 0a06 00       		.byte	0
 3052 0a07 00       		.byte	0
 3053 0a08 00       		.byte	0
 3054 0a09 00       		.byte	0
 3055 0a0a 00       		.byte	0
 3056 0a0b 00       		.byte	0
 3057 0a0c 00       		.byte	0
 3058 0a0d 00       		.byte	0
 3059 0a0e 00       		.byte	0
 3060 0a0f 00       		.byte	0
 3061 0a10 00       		.byte	0
 3062 0a11 00       		.byte	0
 3063 0a12 00       		.byte	0
 3064 0a13 00       		.byte	0
 3065 0a14 00       		.byte	0
 3066 0a15 00       		.byte	0
 3067 0a16 00       		.byte	0
 3068 0a17 00       		.byte	0
 3069 0a18 00       		.byte	0
 3070 0a19 00       		.byte	0
 3071 0a1a 00       		.byte	0
 3072 0a1b 00       		.byte	0
 3073 0a1c 00       		.byte	0
 3074 0a1d 00       		.byte	0
 3075 0a1e 00       		.byte	0
 3076 0a1f 00       		.byte	0
 3077 0a20 00       		.byte	0
 3078 0a21 00       		.byte	0
 3079 0a22 00       		.byte	0
 3080 0a23 00       		.byte	0
 3081 0a24 00       		.byte	0
 3082 0a25 00       		.byte	0
 3083 0a26 00       		.byte	0
 3084 0a27 00       		.byte	0
 3085 0a28 00       		.byte	0
 3086 0a29 00       		.byte	0
 3087 0a2a 00       		.byte	0
 3088 0a2b 00       		.byte	0
 3089 0a2c 47       		.byte	71
 3090 0a2d 00       		.byte	0
 3091 0a2e BF       		.byte	-65
 3092 0a2f 00       		.byte	0
 3093 0a30 7B       		.byte	123
 3094 0a31 00       		.byte	0
 3095 0a32 00       		.byte	0
 3096 0a33 00       		.byte	0
 3097 0a34 00       		.byte	0
ARM GAS  C:\Users\Bruger\AppData\Local\Temp\ccj0lDyf.s 			page 81


 3098 0a35 00       		.byte	0
 3099 0a36 0D       		.byte	13
 3100 0a37 00       		.byte	0
 3101 0a38 0F       		.byte	15
 3102 0a39 00       		.byte	0
 3103 0a3a 0F       		.byte	15
 3104 0a3b 00       		.byte	0
 3105 0a3c 00       		.byte	0
 3106 0a3d 00       		.byte	0
 3107 0a3e 00       		.byte	0
 3108 0a3f 00       		.byte	0
 3109 0a40 00       		.byte	0
 3110 0a41 00       		.byte	0
 3111 0a42 7F       		.byte	127
 3112 0a43 00       		.byte	0
 3113 0a44 E8       		.byte	-24
 3114 0a45 00       		.byte	0
 3115 0a46 00       		.byte	0
 3116 0a47 00       		.byte	0
 3117 0a48 00       		.byte	0
 3118 0a49 00       		.byte	0
 3119 0a4a 00       		.byte	0
 3120 0a4b 00       		.byte	0
 3121 0a4c 00       		.byte	0
 3122 0a4d 00       		.byte	0
 3123 0a4e 00       		.byte	0
 3124 0a4f 00       		.byte	0
 3125 0a50 00       		.byte	0
 3126 0a51 00       		.byte	0
 3127 0a52 06       		.byte	6
 3128 0a53 00       		.byte	0
 3129 0a54 00       		.byte	0
 3130 0a55 00       		.byte	0
 3131 0a56 00       		.byte	0
 3132 0a57 00       		.byte	0
 3133 0a58 00       		.byte	0
 3134 0a59 00       		.byte	0
 3135 0a5a 00       		.byte	0
 3136 0a5b 00       		.byte	0
 3137 0a5c 00       		.byte	0
 3138 0a5d 00       		.byte	0
 3139 0a5e 00       		.byte	0
 3140 0a5f 00       		.byte	0
 3141 0a60 00       		.byte	0
 3142 0a61 00       		.byte	0
 3143 0a62 00       		.byte	0
 3144 0a63 00       		.byte	0
 3145 0a64 00       		.byte	0
 3146 0a65 00       		.byte	0
 3147 0a66 00       		.byte	0
 3148 0a67 00       		.byte	0
 3149 0a68 00       		.byte	0
 3150 0a69 00       		.byte	0
 3151 0a6a 00       		.byte	0
 3152 0a6b 00       		.byte	0
 3153              		.align	2
 3154              		.type	BS_UDBSWITCH_1_5_VAL.4970, %object
ARM GAS  C:\Users\Bruger\AppData\Local\Temp\ccj0lDyf.s 			page 82


 3155              		.size	BS_UDBSWITCH_1_5_VAL.4970, 128
 3156              	BS_UDBSWITCH_1_5_VAL.4970:
 3157 0a6c 00       		.byte	0
 3158 0a6d 80       		.byte	-128
 3159 0a6e 02       		.byte	2
 3160 0a6f 28       		.byte	40
 3161 0a70 00       		.byte	0
 3162 0a71 10       		.byte	16
 3163 0a72 00       		.byte	0
 3164 0a73 00       		.byte	0
 3165 0a74 06       		.byte	6
 3166 0a75 00       		.byte	0
 3167 0a76 28       		.byte	40
 3168 0a77 01       		.byte	1
 3169 0a78 00       		.byte	0
 3170 0a79 00       		.byte	0
 3171 0a7a 92       		.byte	-110
 3172 0a7b 00       		.byte	0
 3173 0a7c 00       		.byte	0
 3174 0a7d 00       		.byte	0
 3175 0a7e 41       		.byte	65
 3176 0a7f 22       		.byte	34
 3177 0a80 00       		.byte	0
 3178 0a81 02       		.byte	2
 3179 0a82 00       		.byte	0
 3180 0a83 14       		.byte	20
 3181 0a84 41       		.byte	65
 3182 0a85 00       		.byte	0
 3183 0a86 02       		.byte	2
 3184 0a87 08       		.byte	8
 3185 0a88 00       		.byte	0
 3186 0a89 00       		.byte	0
 3187 0a8a 19       		.byte	25
 3188 0a8b 00       		.byte	0
 3189 0a8c 00       		.byte	0
 3190 0a8d 02       		.byte	2
 3191 0a8e 60       		.byte	96
 3192 0a8f 10       		.byte	16
 3193 0a90 00       		.byte	0
 3194 0a91 00       		.byte	0
 3195 0a92 00       		.byte	0
 3196 0a93 00       		.byte	0
 3197 0a94 04       		.byte	4
 3198 0a95 80       		.byte	-128
 3199 0a96 01       		.byte	1
 3200 0a97 00       		.byte	0
 3201 0a98 00       		.byte	0
 3202 0a99 00       		.byte	0
 3203 0a9a 00       		.byte	0
 3204 0a9b 00       		.byte	0
 3205 0a9c 00       		.byte	0
 3206 0a9d 02       		.byte	2
 3207 0a9e A4       		.byte	-92
 3208 0a9f 02       		.byte	2
 3209 0aa0 00       		.byte	0
 3210 0aa1 00       		.byte	0
 3211 0aa2 00       		.byte	0
ARM GAS  C:\Users\Bruger\AppData\Local\Temp\ccj0lDyf.s 			page 83


 3212 0aa3 00       		.byte	0
 3213 0aa4 00       		.byte	0
 3214 0aa5 20       		.byte	32
 3215 0aa6 40       		.byte	64
 3216 0aa7 09       		.byte	9
 3217 0aa8 00       		.byte	0
 3218 0aa9 00       		.byte	0
 3219 0aaa 80       		.byte	-128
 3220 0aab 80       		.byte	-128
 3221 0aac 00       		.byte	0
 3222 0aad 00       		.byte	0
 3223 0aae 00       		.byte	0
 3224 0aaf 00       		.byte	0
 3225 0ab0 00       		.byte	0
 3226 0ab1 00       		.byte	0
 3227 0ab2 00       		.byte	0
 3228 0ab3 00       		.byte	0
 3229 0ab4 00       		.byte	0
 3230 0ab5 00       		.byte	0
 3231 0ab6 00       		.byte	0
 3232 0ab7 00       		.byte	0
 3233 0ab8 00       		.byte	0
 3234 0ab9 00       		.byte	0
 3235 0aba 00       		.byte	0
 3236 0abb 00       		.byte	0
 3237 0abc 00       		.byte	0
 3238 0abd 00       		.byte	0
 3239 0abe 00       		.byte	0
 3240 0abf 00       		.byte	0
 3241 0ac0 00       		.byte	0
 3242 0ac1 00       		.byte	0
 3243 0ac2 00       		.byte	0
 3244 0ac3 00       		.byte	0
 3245 0ac4 18       		.byte	24
 3246 0ac5 00       		.byte	0
 3247 0ac6 82       		.byte	-126
 3248 0ac7 00       		.byte	0
 3249 0ac8 00       		.byte	0
 3250 0ac9 00       		.byte	0
 3251 0aca 68       		.byte	104
 3252 0acb 00       		.byte	0
 3253 0acc 00       		.byte	0
 3254 0acd 80       		.byte	-128
 3255 0ace 00       		.byte	0
 3256 0acf 00       		.byte	0
 3257 0ad0 80       		.byte	-128
 3258 0ad1 00       		.byte	0
 3259 0ad2 14       		.byte	20
 3260 0ad3 00       		.byte	0
 3261 0ad4 00       		.byte	0
 3262 0ad5 00       		.byte	0
 3263 0ad6 00       		.byte	0
 3264 0ad7 00       		.byte	0
 3265 0ad8 00       		.byte	0
 3266 0ad9 00       		.byte	0
 3267 0ada 00       		.byte	0
 3268 0adb 00       		.byte	0
ARM GAS  C:\Users\Bruger\AppData\Local\Temp\ccj0lDyf.s 			page 84


 3269 0adc 00       		.byte	0
 3270 0add 00       		.byte	0
 3271 0ade 00       		.byte	0
 3272 0adf 00       		.byte	0
 3273 0ae0 00       		.byte	0
 3274 0ae1 00       		.byte	0
 3275 0ae2 80       		.byte	-128
 3276 0ae3 00       		.byte	0
 3277 0ae4 00       		.byte	0
 3278 0ae5 00       		.byte	0
 3279 0ae6 00       		.byte	0
 3280 0ae7 00       		.byte	0
 3281 0ae8 00       		.byte	0
 3282 0ae9 00       		.byte	0
 3283 0aea 00       		.byte	0
 3284 0aeb 00       		.byte	0
 3285              		.align	2
 3286              		.type	BS_UDB_1_5_HV_ROUTING_VAL.4969, %object
 3287              		.size	BS_UDB_1_5_HV_ROUTING_VAL.4969, 128
 3288              	BS_UDB_1_5_HV_ROUTING_VAL.4969:
 3289 0aec 00       		.byte	0
 3290 0aed 00       		.byte	0
 3291 0aee 00       		.byte	0
 3292 0aef 04       		.byte	4
 3293 0af0 00       		.byte	0
 3294 0af1 00       		.byte	0
 3295 0af2 40       		.byte	64
 3296 0af3 00       		.byte	0
 3297 0af4 02       		.byte	2
 3298 0af5 52       		.byte	82
 3299 0af6 20       		.byte	32
 3300 0af7 00       		.byte	0
 3301 0af8 04       		.byte	4
 3302 0af9 40       		.byte	64
 3303 0afa 06       		.byte	6
 3304 0afb 00       		.byte	0
 3305 0afc 00       		.byte	0
 3306 0afd 00       		.byte	0
 3307 0afe 00       		.byte	0
 3308 0aff 00       		.byte	0
 3309 0b00 00       		.byte	0
 3310 0b01 00       		.byte	0
 3311 0b02 00       		.byte	0
 3312 0b03 00       		.byte	0
 3313 0b04 00       		.byte	0
 3314 0b05 00       		.byte	0
 3315 0b06 00       		.byte	0
 3316 0b07 00       		.byte	0
 3317 0b08 00       		.byte	0
 3318 0b09 00       		.byte	0
 3319 0b0a 00       		.byte	0
 3320 0b0b 00       		.byte	0
 3321 0b0c 00       		.byte	0
 3322 0b0d 00       		.byte	0
 3323 0b0e 00       		.byte	0
 3324 0b0f 00       		.byte	0
 3325 0b10 00       		.byte	0
ARM GAS  C:\Users\Bruger\AppData\Local\Temp\ccj0lDyf.s 			page 85


 3326 0b11 00       		.byte	0
 3327 0b12 00       		.byte	0
 3328 0b13 00       		.byte	0
 3329 0b14 00       		.byte	0
 3330 0b15 00       		.byte	0
 3331 0b16 00       		.byte	0
 3332 0b17 00       		.byte	0
 3333 0b18 00       		.byte	0
 3334 0b19 00       		.byte	0
 3335 0b1a 00       		.byte	0
 3336 0b1b 00       		.byte	0
 3337 0b1c 00       		.byte	0
 3338 0b1d 00       		.byte	0
 3339 0b1e 00       		.byte	0
 3340 0b1f 00       		.byte	0
 3341 0b20 00       		.byte	0
 3342 0b21 00       		.byte	0
 3343 0b22 00       		.byte	0
 3344 0b23 00       		.byte	0
 3345 0b24 00       		.byte	0
 3346 0b25 00       		.byte	0
 3347 0b26 00       		.byte	0
 3348 0b27 00       		.byte	0
 3349 0b28 00       		.byte	0
 3350 0b29 00       		.byte	0
 3351 0b2a 00       		.byte	0
 3352 0b2b 00       		.byte	0
 3353 0b2c F7       		.byte	-9
 3354 0b2d 00       		.byte	0
 3355 0b2e EB       		.byte	-21
 3356 0b2f 00       		.byte	0
 3357 0b30 F5       		.byte	-11
 3358 0b31 00       		.byte	0
 3359 0b32 00       		.byte	0
 3360 0b33 00       		.byte	0
 3361 0b34 00       		.byte	0
 3362 0b35 00       		.byte	0
 3363 0b36 A0       		.byte	-96
 3364 0b37 00       		.byte	0
 3365 0b38 F0       		.byte	-16
 3366 0b39 00       		.byte	0
 3367 0b3a F0       		.byte	-16
 3368 0b3b 00       		.byte	0
 3369 0b3c FF       		.byte	-1
 3370 0b3d 00       		.byte	0
 3371 0b3e 00       		.byte	0
 3372 0b3f 00       		.byte	0
 3373 0b40 00       		.byte	0
 3374 0b41 00       		.byte	0
 3375 0b42 00       		.byte	0
 3376 0b43 00       		.byte	0
 3377 0b44 00       		.byte	0
 3378 0b45 00       		.byte	0
 3379 0b46 00       		.byte	0
 3380 0b47 00       		.byte	0
 3381 0b48 00       		.byte	0
 3382 0b49 00       		.byte	0
ARM GAS  C:\Users\Bruger\AppData\Local\Temp\ccj0lDyf.s 			page 86


 3383 0b4a 00       		.byte	0
 3384 0b4b 00       		.byte	0
 3385 0b4c 60       		.byte	96
 3386 0b4d 00       		.byte	0
 3387 0b4e 00       		.byte	0
 3388 0b4f 00       		.byte	0
 3389 0b50 10       		.byte	16
 3390 0b51 00       		.byte	0
 3391 0b52 20       		.byte	32
 3392 0b53 00       		.byte	0
 3393 0b54 00       		.byte	0
 3394 0b55 00       		.byte	0
 3395 0b56 00       		.byte	0
 3396 0b57 00       		.byte	0
 3397 0b58 00       		.byte	0
 3398 0b59 00       		.byte	0
 3399 0b5a 00       		.byte	0
 3400 0b5b 00       		.byte	0
 3401 0b5c 00       		.byte	0
 3402 0b5d 00       		.byte	0
 3403 0b5e 00       		.byte	0
 3404 0b5f 00       		.byte	0
 3405 0b60 00       		.byte	0
 3406 0b61 00       		.byte	0
 3407 0b62 00       		.byte	0
 3408 0b63 00       		.byte	0
 3409 0b64 00       		.byte	0
 3410 0b65 00       		.byte	0
 3411 0b66 00       		.byte	0
 3412 0b67 00       		.byte	0
 3413 0b68 00       		.byte	0
 3414 0b69 00       		.byte	0
 3415 0b6a 00       		.byte	0
 3416 0b6b 00       		.byte	0
 3417              		.align	2
 3418              		.type	BS_UDBSWITCH_0_5_VAL.4968, %object
 3419              		.size	BS_UDBSWITCH_0_5_VAL.4968, 128
 3420              	BS_UDBSWITCH_0_5_VAL.4968:
 3421 0b6c 90       		.byte	-112
 3422 0b6d 00       		.byte	0
 3423 0b6e 00       		.byte	0
 3424 0b6f 10       		.byte	16
 3425 0b70 20       		.byte	32
 3426 0b71 08       		.byte	8
 3427 0b72 02       		.byte	2
 3428 0b73 40       		.byte	64
 3429 0b74 00       		.byte	0
 3430 0b75 00       		.byte	0
 3431 0b76 8A       		.byte	-118
 3432 0b77 00       		.byte	0
 3433 0b78 04       		.byte	4
 3434 0b79 40       		.byte	64
 3435 0b7a 28       		.byte	40
 3436 0b7b 00       		.byte	0
 3437 0b7c 22       		.byte	34
 3438 0b7d 00       		.byte	0
 3439 0b7e 00       		.byte	0
ARM GAS  C:\Users\Bruger\AppData\Local\Temp\ccj0lDyf.s 			page 87


 3440 0b7f 00       		.byte	0
 3441 0b80 02       		.byte	2
 3442 0b81 00       		.byte	0
 3443 0b82 24       		.byte	36
 3444 0b83 02       		.byte	2
 3445 0b84 14       		.byte	20
 3446 0b85 00       		.byte	0
 3447 0b86 40       		.byte	64
 3448 0b87 00       		.byte	0
 3449 0b88 00       		.byte	0
 3450 0b89 20       		.byte	32
 3451 0b8a A0       		.byte	-96
 3452 0b8b 00       		.byte	0
 3453 0b8c 00       		.byte	0
 3454 0b8d 00       		.byte	0
 3455 0b8e 00       		.byte	0
 3456 0b8f 00       		.byte	0
 3457 0b90 20       		.byte	32
 3458 0b91 44       		.byte	68
 3459 0b92 08       		.byte	8
 3460 0b93 42       		.byte	66
 3461 0b94 00       		.byte	0
 3462 0b95 00       		.byte	0
 3463 0b96 00       		.byte	0
 3464 0b97 00       		.byte	0
 3465 0b98 08       		.byte	8
 3466 0b99 00       		.byte	0
 3467 0b9a 20       		.byte	32
 3468 0b9b 80       		.byte	-128
 3469 0b9c 00       		.byte	0
 3470 0b9d 00       		.byte	0
 3471 0b9e 00       		.byte	0
 3472 0b9f 00       		.byte	0
 3473 0ba0 00       		.byte	0
 3474 0ba1 00       		.byte	0
 3475 0ba2 26       		.byte	38
 3476 0ba3 40       		.byte	64
 3477 0ba4 00       		.byte	0
 3478 0ba5 00       		.byte	0
 3479 0ba6 00       		.byte	0
 3480 0ba7 00       		.byte	0
 3481 0ba8 00       		.byte	0
 3482 0ba9 88       		.byte	-120
 3483 0baa 02       		.byte	2
 3484 0bab 20       		.byte	32
 3485 0bac 08       		.byte	8
 3486 0bad 90       		.byte	-112
 3487 0bae 10       		.byte	16
 3488 0baf 05       		.byte	5
 3489 0bb0 08       		.byte	8
 3490 0bb1 80       		.byte	-128
 3491 0bb2 00       		.byte	0
 3492 0bb3 05       		.byte	5
 3493 0bb4 00       		.byte	0
 3494 0bb5 00       		.byte	0
 3495 0bb6 00       		.byte	0
 3496 0bb7 00       		.byte	0
ARM GAS  C:\Users\Bruger\AppData\Local\Temp\ccj0lDyf.s 			page 88


 3497 0bb8 00       		.byte	0
 3498 0bb9 02       		.byte	2
 3499 0bba 00       		.byte	0
 3500 0bbb 04       		.byte	4
 3501 0bbc 00       		.byte	0
 3502 0bbd 00       		.byte	0
 3503 0bbe 00       		.byte	0
 3504 0bbf 00       		.byte	0
 3505 0bc0 22       		.byte	34
 3506 0bc1 00       		.byte	0
 3507 0bc2 48       		.byte	72
 3508 0bc3 00       		.byte	0
 3509 0bc4 00       		.byte	0
 3510 0bc5 00       		.byte	0
 3511 0bc6 00       		.byte	0
 3512 0bc7 00       		.byte	0
 3513 0bc8 00       		.byte	0
 3514 0bc9 00       		.byte	0
 3515 0bca 00       		.byte	0
 3516 0bcb 00       		.byte	0
 3517 0bcc 00       		.byte	0
 3518 0bcd 00       		.byte	0
 3519 0bce 00       		.byte	0
 3520 0bcf 00       		.byte	0
 3521 0bd0 00       		.byte	0
 3522 0bd1 00       		.byte	0
 3523 0bd2 00       		.byte	0
 3524 0bd3 00       		.byte	0
 3525 0bd4 00       		.byte	0
 3526 0bd5 00       		.byte	0
 3527 0bd6 00       		.byte	0
 3528 0bd7 00       		.byte	0
 3529 0bd8 00       		.byte	0
 3530 0bd9 00       		.byte	0
 3531 0bda 00       		.byte	0
 3532 0bdb 00       		.byte	0
 3533 0bdc 00       		.byte	0
 3534 0bdd 00       		.byte	0
 3535 0bde 00       		.byte	0
 3536 0bdf 00       		.byte	0
 3537 0be0 00       		.byte	0
 3538 0be1 00       		.byte	0
 3539 0be2 00       		.byte	0
 3540 0be3 00       		.byte	0
 3541 0be4 00       		.byte	0
 3542 0be5 00       		.byte	0
 3543 0be6 00       		.byte	0
 3544 0be7 00       		.byte	0
 3545 0be8 00       		.byte	0
 3546 0be9 00       		.byte	0
 3547 0bea 00       		.byte	0
 3548 0beb 00       		.byte	0
 3549              		.align	2
 3550              		.type	BS_UDB_2_4_HV_ROUTING_VAL.4967, %object
 3551              		.size	BS_UDB_2_4_HV_ROUTING_VAL.4967, 128
 3552              	BS_UDB_2_4_HV_ROUTING_VAL.4967:
 3553 0bec 00       		.byte	0
ARM GAS  C:\Users\Bruger\AppData\Local\Temp\ccj0lDyf.s 			page 89


 3554 0bed 11       		.byte	17
 3555 0bee 00       		.byte	0
 3556 0bef 00       		.byte	0
 3557 0bf0 00       		.byte	0
 3558 0bf1 00       		.byte	0
 3559 0bf2 01       		.byte	1
 3560 0bf3 00       		.byte	0
 3561 0bf4 04       		.byte	4
 3562 0bf5 04       		.byte	4
 3563 0bf6 00       		.byte	0
 3564 0bf7 00       		.byte	0
 3565 0bf8 04       		.byte	4
 3566 0bf9 00       		.byte	0
 3567 0bfa 00       		.byte	0
 3568 0bfb 20       		.byte	32
 3569 0bfc 00       		.byte	0
 3570 0bfd 08       		.byte	8
 3571 0bfe 01       		.byte	1
 3572 0bff 10       		.byte	16
 3573 0c00 00       		.byte	0
 3574 0c01 02       		.byte	2
 3575 0c02 68       		.byte	104
 3576 0c03 01       		.byte	1
 3577 0c04 00       		.byte	0
 3578 0c05 40       		.byte	64
 3579 0c06 00       		.byte	0
 3580 0c07 00       		.byte	0
 3581 0c08 02       		.byte	2
 3582 0c09 10       		.byte	16
 3583 0c0a 14       		.byte	20
 3584 0c0b 16       		.byte	22
 3585 0c0c 00       		.byte	0
 3586 0c0d 00       		.byte	0
 3587 0c0e 20       		.byte	32
 3588 0c0f 42       		.byte	66
 3589 0c10 00       		.byte	0
 3590 0c11 00       		.byte	0
 3591 0c12 53       		.byte	83
 3592 0c13 00       		.byte	0
 3593 0c14 00       		.byte	0
 3594 0c15 00       		.byte	0
 3595 0c16 01       		.byte	1
 3596 0c17 00       		.byte	0
 3597 0c18 80       		.byte	-128
 3598 0c19 44       		.byte	68
 3599 0c1a 00       		.byte	0
 3600 0c1b 04       		.byte	4
 3601 0c1c 12       		.byte	18
 3602 0c1d 00       		.byte	0
 3603 0c1e 06       		.byte	6
 3604 0c1f 00       		.byte	0
 3605 0c20 41       		.byte	65
 3606 0c21 00       		.byte	0
 3607 0c22 80       		.byte	-128
 3608 0c23 20       		.byte	32
 3609 0c24 00       		.byte	0
 3610 0c25 00       		.byte	0
ARM GAS  C:\Users\Bruger\AppData\Local\Temp\ccj0lDyf.s 			page 90


 3611 0c26 00       		.byte	0
 3612 0c27 00       		.byte	0
 3613 0c28 00       		.byte	0
 3614 0c29 00       		.byte	0
 3615 0c2a 00       		.byte	0
 3616 0c2b 00       		.byte	0
 3617 0c2c D7       		.byte	-41
 3618 0c2d 00       		.byte	0
 3619 0c2e 6F       		.byte	111
 3620 0c2f 00       		.byte	0
 3621 0c30 4F       		.byte	79
 3622 0c31 00       		.byte	0
 3623 0c32 00       		.byte	0
 3624 0c33 00       		.byte	0
 3625 0c34 00       		.byte	0
 3626 0c35 00       		.byte	0
 3627 0c36 86       		.byte	-122
 3628 0c37 00       		.byte	0
 3629 0c38 23       		.byte	35
 3630 0c39 00       		.byte	0
 3631 0c3a 96       		.byte	-106
 3632 0c3b 00       		.byte	0
 3633 0c3c 00       		.byte	0
 3634 0c3d 00       		.byte	0
 3635 0c3e 00       		.byte	0
 3636 0c3f 00       		.byte	0
 3637 0c40 00       		.byte	0
 3638 0c41 00       		.byte	0
 3639 0c42 00       		.byte	0
 3640 0c43 00       		.byte	0
 3641 0c44 0E       		.byte	14
 3642 0c45 00       		.byte	0
 3643 0c46 00       		.byte	0
 3644 0c47 00       		.byte	0
 3645 0c48 00       		.byte	0
 3646 0c49 00       		.byte	0
 3647 0c4a 00       		.byte	0
 3648 0c4b 00       		.byte	0
 3649 0c4c 08       		.byte	8
 3650 0c4d 00       		.byte	0
 3651 0c4e 01       		.byte	1
 3652 0c4f 00       		.byte	0
 3653 0c50 00       		.byte	0
 3654 0c51 00       		.byte	0
 3655 0c52 03       		.byte	3
 3656 0c53 00       		.byte	0
 3657 0c54 00       		.byte	0
 3658 0c55 00       		.byte	0
 3659 0c56 0C       		.byte	12
 3660 0c57 00       		.byte	0
 3661 0c58 00       		.byte	0
 3662 0c59 00       		.byte	0
 3663 0c5a 08       		.byte	8
 3664 0c5b 00       		.byte	0
 3665 0c5c 00       		.byte	0
 3666 0c5d 00       		.byte	0
 3667 0c5e 00       		.byte	0
ARM GAS  C:\Users\Bruger\AppData\Local\Temp\ccj0lDyf.s 			page 91


 3668 0c5f 00       		.byte	0
 3669 0c60 00       		.byte	0
 3670 0c61 00       		.byte	0
 3671 0c62 00       		.byte	0
 3672 0c63 00       		.byte	0
 3673 0c64 00       		.byte	0
 3674 0c65 00       		.byte	0
 3675 0c66 00       		.byte	0
 3676 0c67 00       		.byte	0
 3677 0c68 00       		.byte	0
 3678 0c69 00       		.byte	0
 3679 0c6a 00       		.byte	0
 3680 0c6b 00       		.byte	0
 3681              		.align	2
 3682              		.type	BS_UDBSWITCH_1_4_VAL.4966, %object
 3683              		.size	BS_UDBSWITCH_1_4_VAL.4966, 128
 3684              	BS_UDBSWITCH_1_4_VAL.4966:
 3685 0c6c 90       		.byte	-112
 3686 0c6d 24       		.byte	36
 3687 0c6e 00       		.byte	0
 3688 0c6f 00       		.byte	0
 3689 0c70 80       		.byte	-128
 3690 0c71 80       		.byte	-128
 3691 0c72 00       		.byte	0
 3692 0c73 48       		.byte	72
 3693 0c74 20       		.byte	32
 3694 0c75 00       		.byte	0
 3695 0c76 82       		.byte	-126
 3696 0c77 20       		.byte	32
 3697 0c78 20       		.byte	32
 3698 0c79 00       		.byte	0
 3699 0c7a 00       		.byte	0
 3700 0c7b 20       		.byte	32
 3701 0c7c 00       		.byte	0
 3702 0c7d 0A       		.byte	10
 3703 0c7e 09       		.byte	9
 3704 0c7f 00       		.byte	0
 3705 0c80 04       		.byte	4
 3706 0c81 00       		.byte	0
 3707 0c82 00       		.byte	0
 3708 0c83 00       		.byte	0
 3709 0c84 14       		.byte	20
 3710 0c85 00       		.byte	0
 3711 0c86 40       		.byte	64
 3712 0c87 00       		.byte	0
 3713 0c88 00       		.byte	0
 3714 0c89 11       		.byte	17
 3715 0c8a 00       		.byte	0
 3716 0c8b 08       		.byte	8
 3717 0c8c 00       		.byte	0
 3718 0c8d 10       		.byte	16
 3719 0c8e 09       		.byte	9
 3720 0c8f 00       		.byte	0
 3721 0c90 00       		.byte	0
 3722 0c91 00       		.byte	0
 3723 0c92 40       		.byte	64
 3724 0c93 04       		.byte	4
ARM GAS  C:\Users\Bruger\AppData\Local\Temp\ccj0lDyf.s 			page 92


 3725 0c94 20       		.byte	32
 3726 0c95 00       		.byte	0
 3727 0c96 20       		.byte	32
 3728 0c97 20       		.byte	32
 3729 0c98 00       		.byte	0
 3730 0c99 00       		.byte	0
 3731 0c9a 00       		.byte	0
 3732 0c9b 80       		.byte	-128
 3733 0c9c 00       		.byte	0
 3734 0c9d 00       		.byte	0
 3735 0c9e 09       		.byte	9
 3736 0c9f 00       		.byte	0
 3737 0ca0 00       		.byte	0
 3738 0ca1 00       		.byte	0
 3739 0ca2 00       		.byte	0
 3740 0ca3 20       		.byte	32
 3741 0ca4 20       		.byte	32
 3742 0ca5 04       		.byte	4
 3743 0ca6 00       		.byte	0
 3744 0ca7 28       		.byte	40
 3745 0ca8 00       		.byte	0
 3746 0ca9 01       		.byte	1
 3747 0caa 80       		.byte	-128
 3748 0cab 00       		.byte	0
 3749 0cac 00       		.byte	0
 3750 0cad 00       		.byte	0
 3751 0cae 00       		.byte	0
 3752 0caf 00       		.byte	0
 3753 0cb0 00       		.byte	0
 3754 0cb1 00       		.byte	0
 3755 0cb2 00       		.byte	0
 3756 0cb3 00       		.byte	0
 3757 0cb4 00       		.byte	0
 3758 0cb5 00       		.byte	0
 3759 0cb6 00       		.byte	0
 3760 0cb7 00       		.byte	0
 3761 0cb8 00       		.byte	0
 3762 0cb9 00       		.byte	0
 3763 0cba 00       		.byte	0
 3764 0cbb 00       		.byte	0
 3765 0cbc 00       		.byte	0
 3766 0cbd 00       		.byte	0
 3767 0cbe 00       		.byte	0
 3768 0cbf 00       		.byte	0
 3769 0cc0 00       		.byte	0
 3770 0cc1 00       		.byte	0
 3771 0cc2 00       		.byte	0
 3772 0cc3 00       		.byte	0
 3773 0cc4 00       		.byte	0
 3774 0cc5 00       		.byte	0
 3775 0cc6 00       		.byte	0
 3776 0cc7 00       		.byte	0
 3777 0cc8 00       		.byte	0
 3778 0cc9 00       		.byte	0
 3779 0cca 00       		.byte	0
 3780 0ccb 00       		.byte	0
 3781 0ccc 08       		.byte	8
ARM GAS  C:\Users\Bruger\AppData\Local\Temp\ccj0lDyf.s 			page 93


 3782 0ccd 40       		.byte	64
 3783 0cce 00       		.byte	0
 3784 0ccf 10       		.byte	16
 3785 0cd0 00       		.byte	0
 3786 0cd1 00       		.byte	0
 3787 0cd2 00       		.byte	0
 3788 0cd3 00       		.byte	0
 3789 0cd4 00       		.byte	0
 3790 0cd5 40       		.byte	64
 3791 0cd6 00       		.byte	0
 3792 0cd7 00       		.byte	0
 3793 0cd8 00       		.byte	0
 3794 0cd9 00       		.byte	0
 3795 0cda 14       		.byte	20
 3796 0cdb 41       		.byte	65
 3797 0cdc 00       		.byte	0
 3798 0cdd 00       		.byte	0
 3799 0cde 00       		.byte	0
 3800 0cdf 00       		.byte	0
 3801 0ce0 00       		.byte	0
 3802 0ce1 80       		.byte	-128
 3803 0ce2 80       		.byte	-128
 3804 0ce3 28       		.byte	40
 3805 0ce4 00       		.byte	0
 3806 0ce5 00       		.byte	0
 3807 0ce6 00       		.byte	0
 3808 0ce7 00       		.byte	0
 3809 0ce8 00       		.byte	0
 3810 0ce9 00       		.byte	0
 3811 0cea 00       		.byte	0
 3812 0ceb 00       		.byte	0
 3813              		.align	2
 3814              		.type	BS_UDB_1_4_HV_ROUTING_VAL.4965, %object
 3815              		.size	BS_UDB_1_4_HV_ROUTING_VAL.4965, 128
 3816              	BS_UDB_1_4_HV_ROUTING_VAL.4965:
 3817 0cec 00       		.byte	0
 3818 0ced 00       		.byte	0
 3819 0cee 20       		.byte	32
 3820 0cef 04       		.byte	4
 3821 0cf0 00       		.byte	0
 3822 0cf1 00       		.byte	0
 3823 0cf2 00       		.byte	0
 3824 0cf3 40       		.byte	64
 3825 0cf4 14       		.byte	20
 3826 0cf5 00       		.byte	0
 3827 0cf6 00       		.byte	0
 3828 0cf7 00       		.byte	0
 3829 0cf8 20       		.byte	32
 3830 0cf9 80       		.byte	-128
 3831 0cfa 00       		.byte	0
 3832 0cfb 00       		.byte	0
 3833 0cfc 02       		.byte	2
 3834 0cfd 10       		.byte	16
 3835 0cfe 40       		.byte	64
 3836 0cff 04       		.byte	4
 3837 0d00 00       		.byte	0
 3838 0d01 20       		.byte	32
ARM GAS  C:\Users\Bruger\AppData\Local\Temp\ccj0lDyf.s 			page 94


 3839 0d02 9A       		.byte	-102
 3840 0d03 00       		.byte	0
 3841 0d04 04       		.byte	4
 3842 0d05 00       		.byte	0
 3843 0d06 4A       		.byte	74
 3844 0d07 00       		.byte	0
 3845 0d08 00       		.byte	0
 3846 0d09 00       		.byte	0
 3847 0d0a 04       		.byte	4
 3848 0d0b 11       		.byte	17
 3849 0d0c 00       		.byte	0
 3850 0d0d 62       		.byte	98
 3851 0d0e 08       		.byte	8
 3852 0d0f 00       		.byte	0
 3853 0d10 40       		.byte	64
 3854 0d11 80       		.byte	-128
 3855 0d12 00       		.byte	0
 3856 0d13 15       		.byte	21
 3857 0d14 00       		.byte	0
 3858 0d15 00       		.byte	0
 3859 0d16 08       		.byte	8
 3860 0d17 00       		.byte	0
 3861 0d18 00       		.byte	0
 3862 0d19 00       		.byte	0
 3863 0d1a 40       		.byte	64
 3864 0d1b 01       		.byte	1
 3865 0d1c 08       		.byte	8
 3866 0d1d 08       		.byte	8
 3867 0d1e 00       		.byte	0
 3868 0d1f 80       		.byte	-128
 3869 0d20 01       		.byte	1
 3870 0d21 02       		.byte	2
 3871 0d22 02       		.byte	2
 3872 0d23 00       		.byte	0
 3873 0d24 00       		.byte	0
 3874 0d25 00       		.byte	0
 3875 0d26 00       		.byte	0
 3876 0d27 00       		.byte	0
 3877 0d28 00       		.byte	0
 3878 0d29 00       		.byte	0
 3879 0d2a 00       		.byte	0
 3880 0d2b 00       		.byte	0
 3881 0d2c C0       		.byte	-64
 3882 0d2d 00       		.byte	0
 3883 0d2e 00       		.byte	0
 3884 0d2f 00       		.byte	0
 3885 0d30 70       		.byte	112
 3886 0d31 00       		.byte	0
 3887 0d32 00       		.byte	0
 3888 0d33 00       		.byte	0
 3889 0d34 00       		.byte	0
 3890 0d35 00       		.byte	0
 3891 0d36 F0       		.byte	-16
 3892 0d37 00       		.byte	0
 3893 0d38 F8       		.byte	-8
 3894 0d39 00       		.byte	0
 3895 0d3a B0       		.byte	-80
ARM GAS  C:\Users\Bruger\AppData\Local\Temp\ccj0lDyf.s 			page 95


 3896 0d3b 00       		.byte	0
 3897 0d3c D2       		.byte	-46
 3898 0d3d 00       		.byte	0
 3899 0d3e 3C       		.byte	60
 3900 0d3f 00       		.byte	0
 3901 0d40 00       		.byte	0
 3902 0d41 00       		.byte	0
 3903 0d42 70       		.byte	112
 3904 0d43 00       		.byte	0
 3905 0d44 F0       		.byte	-16
 3906 0d45 00       		.byte	0
 3907 0d46 00       		.byte	0
 3908 0d47 00       		.byte	0
 3909 0d48 00       		.byte	0
 3910 0d49 00       		.byte	0
 3911 0d4a 00       		.byte	0
 3912 0d4b 00       		.byte	0
 3913 0d4c 68       		.byte	104
 3914 0d4d 00       		.byte	0
 3915 0d4e 00       		.byte	0
 3916 0d4f 00       		.byte	0
 3917 0d50 40       		.byte	64
 3918 0d51 00       		.byte	0
 3919 0d52 80       		.byte	-128
 3920 0d53 00       		.byte	0
 3921 0d54 C0       		.byte	-64
 3922 0d55 00       		.byte	0
 3923 0d56 00       		.byte	0
 3924 0d57 00       		.byte	0
 3925 0d58 30       		.byte	48
 3926 0d59 00       		.byte	0
 3927 0d5a 00       		.byte	0
 3928 0d5b 00       		.byte	0
 3929 0d5c 00       		.byte	0
 3930 0d5d 00       		.byte	0
 3931 0d5e 00       		.byte	0
 3932 0d5f 00       		.byte	0
 3933 0d60 00       		.byte	0
 3934 0d61 00       		.byte	0
 3935 0d62 00       		.byte	0
 3936 0d63 00       		.byte	0
 3937 0d64 00       		.byte	0
 3938 0d65 00       		.byte	0
 3939 0d66 00       		.byte	0
 3940 0d67 00       		.byte	0
 3941 0d68 00       		.byte	0
 3942 0d69 00       		.byte	0
 3943 0d6a 00       		.byte	0
 3944 0d6b 00       		.byte	0
 3945              		.align	2
 3946              		.type	BS_UDBSWITCH_0_4_VAL.4964, %object
 3947              		.size	BS_UDBSWITCH_0_4_VAL.4964, 128
 3948              	BS_UDBSWITCH_0_4_VAL.4964:
 3949 0d6c 00       		.byte	0
 3950 0d6d 00       		.byte	0
 3951 0d6e 00       		.byte	0
 3952 0d6f 00       		.byte	0
ARM GAS  C:\Users\Bruger\AppData\Local\Temp\ccj0lDyf.s 			page 96


 3953 0d70 80       		.byte	-128
 3954 0d71 20       		.byte	32
 3955 0d72 00       		.byte	0
 3956 0d73 00       		.byte	0
 3957 0d74 00       		.byte	0
 3958 0d75 00       		.byte	0
 3959 0d76 00       		.byte	0
 3960 0d77 00       		.byte	0
 3961 0d78 00       		.byte	0
 3962 0d79 00       		.byte	0
 3963 0d7a 00       		.byte	0
 3964 0d7b 00       		.byte	0
 3965 0d7c 00       		.byte	0
 3966 0d7d 00       		.byte	0
 3967 0d7e 00       		.byte	0
 3968 0d7f 00       		.byte	0
 3969 0d80 08       		.byte	8
 3970 0d81 00       		.byte	0
 3971 0d82 40       		.byte	64
 3972 0d83 08       		.byte	8
 3973 0d84 00       		.byte	0
 3974 0d85 00       		.byte	0
 3975 0d86 00       		.byte	0
 3976 0d87 00       		.byte	0
 3977 0d88 00       		.byte	0
 3978 0d89 C0       		.byte	-64
 3979 0d8a 18       		.byte	24
 3980 0d8b 01       		.byte	1
 3981 0d8c 04       		.byte	4
 3982 0d8d 00       		.byte	0
 3983 0d8e 00       		.byte	0
 3984 0d8f 00       		.byte	0
 3985 0d90 00       		.byte	0
 3986 0d91 00       		.byte	0
 3987 0d92 00       		.byte	0
 3988 0d93 15       		.byte	21
 3989 0d94 00       		.byte	0
 3990 0d95 00       		.byte	0
 3991 0d96 00       		.byte	0
 3992 0d97 00       		.byte	0
 3993 0d98 00       		.byte	0
 3994 0d99 28       		.byte	40
 3995 0d9a 01       		.byte	1
 3996 0d9b 01       		.byte	1
 3997 0d9c 00       		.byte	0
 3998 0d9d 00       		.byte	0
 3999 0d9e 80       		.byte	-128
 4000 0d9f 00       		.byte	0
 4001 0da0 02       		.byte	2
 4002 0da1 00       		.byte	0
 4003 0da2 00       		.byte	0
 4004 0da3 64       		.byte	100
 4005 0da4 00       		.byte	0
 4006 0da5 00       		.byte	0
 4007 0da6 00       		.byte	0
 4008 0da7 00       		.byte	0
 4009 0da8 40       		.byte	64
ARM GAS  C:\Users\Bruger\AppData\Local\Temp\ccj0lDyf.s 			page 97


 4010 0da9 00       		.byte	0
 4011 0daa 02       		.byte	2
 4012 0dab 10       		.byte	16
 4013 0dac 20       		.byte	32
 4014 0dad 00       		.byte	0
 4015 0dae 00       		.byte	0
 4016 0daf 00       		.byte	0
 4017 0db0 02       		.byte	2
 4018 0db1 4A       		.byte	74
 4019 0db2 00       		.byte	0
 4020 0db3 00       		.byte	0
 4021 0db4 06       		.byte	6
 4022 0db5 02       		.byte	2
 4023 0db6 90       		.byte	-112
 4024 0db7 00       		.byte	0
 4025 0db8 01       		.byte	1
 4026 0db9 00       		.byte	0
 4027 0dba 08       		.byte	8
 4028 0dbb 1A       		.byte	26
 4029 0dbc 80       		.byte	-128
 4030 0dbd 00       		.byte	0
 4031 0dbe 20       		.byte	32
 4032 0dbf 00       		.byte	0
 4033 0dc0 00       		.byte	0
 4034 0dc1 01       		.byte	1
 4035 0dc2 04       		.byte	4
 4036 0dc3 80       		.byte	-128
 4037 0dc4 00       		.byte	0
 4038 0dc5 00       		.byte	0
 4039 0dc6 00       		.byte	0
 4040 0dc7 00       		.byte	0
 4041 0dc8 00       		.byte	0
 4042 0dc9 10       		.byte	16
 4043 0dca 48       		.byte	72
 4044 0dcb 00       		.byte	0
 4045 0dcc 00       		.byte	0
 4046 0dcd 00       		.byte	0
 4047 0dce 00       		.byte	0
 4048 0dcf 00       		.byte	0
 4049 0dd0 00       		.byte	0
 4050 0dd1 40       		.byte	64
 4051 0dd2 08       		.byte	8
 4052 0dd3 44       		.byte	68
 4053 0dd4 01       		.byte	1
 4054 0dd5 00       		.byte	0
 4055 0dd6 00       		.byte	0
 4056 0dd7 00       		.byte	0
 4057 0dd8 00       		.byte	0
 4058 0dd9 00       		.byte	0
 4059 0dda 00       		.byte	0
 4060 0ddb 00       		.byte	0
 4061 0ddc 00       		.byte	0
 4062 0ddd 00       		.byte	0
 4063 0dde 00       		.byte	0
 4064 0ddf 00       		.byte	0
 4065 0de0 00       		.byte	0
 4066 0de1 00       		.byte	0
ARM GAS  C:\Users\Bruger\AppData\Local\Temp\ccj0lDyf.s 			page 98


 4067 0de2 00       		.byte	0
 4068 0de3 00       		.byte	0
 4069 0de4 00       		.byte	0
 4070 0de5 00       		.byte	0
 4071 0de6 00       		.byte	0
 4072 0de7 00       		.byte	0
 4073 0de8 00       		.byte	0
 4074 0de9 00       		.byte	0
 4075 0dea 00       		.byte	0
 4076 0deb 00       		.byte	0
 4077              		.align	2
 4078              		.type	BS_UDB_2_3_HV_ROUTING_VAL.4963, %object
 4079              		.size	BS_UDB_2_3_HV_ROUTING_VAL.4963, 128
 4080              	BS_UDB_2_3_HV_ROUTING_VAL.4963:
 4081 0dec 00       		.byte	0
 4082 0ded 02       		.byte	2
 4083 0dee 00       		.byte	0
 4084 0def 00       		.byte	0
 4085 0df0 00       		.byte	0
 4086 0df1 01       		.byte	1
 4087 0df2 00       		.byte	0
 4088 0df3 C0       		.byte	-64
 4089 0df4 00       		.byte	0
 4090 0df5 00       		.byte	0
 4091 0df6 00       		.byte	0
 4092 0df7 00       		.byte	0
 4093 0df8 00       		.byte	0
 4094 0df9 00       		.byte	0
 4095 0dfa 00       		.byte	0
 4096 0dfb 80       		.byte	-128
 4097 0dfc 80       		.byte	-128
 4098 0dfd 6C       		.byte	108
 4099 0dfe 16       		.byte	22
 4100 0dff 20       		.byte	32
 4101 0e00 20       		.byte	32
 4102 0e01 03       		.byte	3
 4103 0e02 A8       		.byte	-88
 4104 0e03 09       		.byte	9
 4105 0e04 04       		.byte	4
 4106 0e05 21       		.byte	33
 4107 0e06 00       		.byte	0
 4108 0e07 49       		.byte	73
 4109 0e08 00       		.byte	0
 4110 0e09 00       		.byte	0
 4111 0e0a 15       		.byte	21
 4112 0e0b 12       		.byte	18
 4113 0e0c 00       		.byte	0
 4114 0e0d 10       		.byte	16
 4115 0e0e 28       		.byte	40
 4116 0e0f 4A       		.byte	74
 4117 0e10 40       		.byte	64
 4118 0e11 00       		.byte	0
 4119 0e12 13       		.byte	19
 4120 0e13 A0       		.byte	-96
 4121 0e14 02       		.byte	2
 4122 0e15 00       		.byte	0
 4123 0e16 08       		.byte	8
ARM GAS  C:\Users\Bruger\AppData\Local\Temp\ccj0lDyf.s 			page 99


 4124 0e17 00       		.byte	0
 4125 0e18 28       		.byte	40
 4126 0e19 00       		.byte	0
 4127 0e1a 00       		.byte	0
 4128 0e1b 00       		.byte	0
 4129 0e1c 00       		.byte	0
 4130 0e1d 00       		.byte	0
 4131 0e1e 00       		.byte	0
 4132 0e1f 00       		.byte	0
 4133 0e20 00       		.byte	0
 4134 0e21 04       		.byte	4
 4135 0e22 20       		.byte	32
 4136 0e23 10       		.byte	16
 4137 0e24 00       		.byte	0
 4138 0e25 00       		.byte	0
 4139 0e26 00       		.byte	0
 4140 0e27 00       		.byte	0
 4141 0e28 00       		.byte	0
 4142 0e29 00       		.byte	0
 4143 0e2a 00       		.byte	0
 4144 0e2b 00       		.byte	0
 4145 0e2c 57       		.byte	87
 4146 0e2d 00       		.byte	0
 4147 0e2e A7       		.byte	-89
 4148 0e2f 00       		.byte	0
 4149 0e30 97       		.byte	-105
 4150 0e31 00       		.byte	0
 4151 0e32 00       		.byte	0
 4152 0e33 00       		.byte	0
 4153 0e34 00       		.byte	0
 4154 0e35 00       		.byte	0
 4155 0e36 81       		.byte	-127
 4156 0e37 00       		.byte	0
 4157 0e38 09       		.byte	9
 4158 0e39 00       		.byte	0
 4159 0e3a 13       		.byte	19
 4160 0e3b 00       		.byte	0
 4161 0e3c 53       		.byte	83
 4162 0e3d 00       		.byte	0
 4163 0e3e 00       		.byte	0
 4164 0e3f 00       		.byte	0
 4165 0e40 00       		.byte	0
 4166 0e41 00       		.byte	0
 4167 0e42 78       		.byte	120
 4168 0e43 00       		.byte	0
 4169 0e44 E8       		.byte	-24
 4170 0e45 00       		.byte	0
 4171 0e46 00       		.byte	0
 4172 0e47 00       		.byte	0
 4173 0e48 00       		.byte	0
 4174 0e49 00       		.byte	0
 4175 0e4a 00       		.byte	0
 4176 0e4b 00       		.byte	0
 4177 0e4c 02       		.byte	2
 4178 0e4d 00       		.byte	0
 4179 0e4e 1C       		.byte	28
 4180 0e4f 00       		.byte	0
ARM GAS  C:\Users\Bruger\AppData\Local\Temp\ccj0lDyf.s 			page 100


 4181 0e50 04       		.byte	4
 4182 0e51 00       		.byte	0
 4183 0e52 40       		.byte	64
 4184 0e53 00       		.byte	0
 4185 0e54 04       		.byte	4
 4186 0e55 00       		.byte	0
 4187 0e56 0B       		.byte	11
 4188 0e57 00       		.byte	0
 4189 0e58 00       		.byte	0
 4190 0e59 00       		.byte	0
 4191 0e5a 09       		.byte	9
 4192 0e5b 00       		.byte	0
 4193 0e5c 00       		.byte	0
 4194 0e5d 00       		.byte	0
 4195 0e5e 00       		.byte	0
 4196 0e5f 00       		.byte	0
 4197 0e60 00       		.byte	0
 4198 0e61 00       		.byte	0
 4199 0e62 00       		.byte	0
 4200 0e63 00       		.byte	0
 4201 0e64 00       		.byte	0
 4202 0e65 00       		.byte	0
 4203 0e66 00       		.byte	0
 4204 0e67 00       		.byte	0
 4205 0e68 00       		.byte	0
 4206 0e69 00       		.byte	0
 4207 0e6a 00       		.byte	0
 4208 0e6b 00       		.byte	0
 4209              		.align	2
 4210              		.type	BS_UDBSWITCH_1_3_VAL.4962, %object
 4211              		.size	BS_UDBSWITCH_1_3_VAL.4962, 128
 4212              	BS_UDBSWITCH_1_3_VAL.4962:
 4213 0e6c 00       		.byte	0
 4214 0e6d 00       		.byte	0
 4215 0e6e 09       		.byte	9
 4216 0e6f 20       		.byte	32
 4217 0e70 40       		.byte	64
 4218 0e71 10       		.byte	16
 4219 0e72 82       		.byte	-126
 4220 0e73 00       		.byte	0
 4221 0e74 00       		.byte	0
 4222 0e75 10       		.byte	16
 4223 0e76 02       		.byte	2
 4224 0e77 20       		.byte	32
 4225 0e78 80       		.byte	-128
 4226 0e79 08       		.byte	8
 4227 0e7a 00       		.byte	0
 4228 0e7b 00       		.byte	0
 4229 0e7c 00       		.byte	0
 4230 0e7d 44       		.byte	68
 4231 0e7e 00       		.byte	0
 4232 0e7f 10       		.byte	16
 4233 0e80 00       		.byte	0
 4234 0e81 80       		.byte	-128
 4235 0e82 40       		.byte	64
 4236 0e83 00       		.byte	0
 4237 0e84 20       		.byte	32
ARM GAS  C:\Users\Bruger\AppData\Local\Temp\ccj0lDyf.s 			page 101


 4238 0e85 02       		.byte	2
 4239 0e86 00       		.byte	0
 4240 0e87 20       		.byte	32
 4241 0e88 40       		.byte	64
 4242 0e89 18       		.byte	24
 4243 0e8a 00       		.byte	0
 4244 0e8b 40       		.byte	64
 4245 0e8c 04       		.byte	4
 4246 0e8d 00       		.byte	0
 4247 0e8e 00       		.byte	0
 4248 0e8f 80       		.byte	-128
 4249 0e90 00       		.byte	0
 4250 0e91 00       		.byte	0
 4251 0e92 04       		.byte	4
 4252 0e93 00       		.byte	0
 4253 0e94 00       		.byte	0
 4254 0e95 00       		.byte	0
 4255 0e96 00       		.byte	0
 4256 0e97 80       		.byte	-128
 4257 0e98 00       		.byte	0
 4258 0e99 00       		.byte	0
 4259 0e9a 00       		.byte	0
 4260 0e9b 40       		.byte	64
 4261 0e9c 01       		.byte	1
 4262 0e9d 00       		.byte	0
 4263 0e9e 80       		.byte	-128
 4264 0e9f 00       		.byte	0
 4265 0ea0 00       		.byte	0
 4266 0ea1 00       		.byte	0
 4267 0ea2 00       		.byte	0
 4268 0ea3 00       		.byte	0
 4269 0ea4 00       		.byte	0
 4270 0ea5 89       		.byte	-119
 4271 0ea6 00       		.byte	0
 4272 0ea7 80       		.byte	-128
 4273 0ea8 20       		.byte	32
 4274 0ea9 90       		.byte	-112
 4275 0eaa 00       		.byte	0
 4276 0eab 00       		.byte	0
 4277 0eac 40       		.byte	64
 4278 0ead 00       		.byte	0
 4279 0eae 20       		.byte	32
 4280 0eaf 08       		.byte	8
 4281 0eb0 00       		.byte	0
 4282 0eb1 00       		.byte	0
 4283 0eb2 22       		.byte	34
 4284 0eb3 00       		.byte	0
 4285 0eb4 00       		.byte	0
 4286 0eb5 00       		.byte	0
 4287 0eb6 00       		.byte	0
 4288 0eb7 00       		.byte	0
 4289 0eb8 00       		.byte	0
 4290 0eb9 00       		.byte	0
 4291 0eba 00       		.byte	0
 4292 0ebb 06       		.byte	6
 4293 0ebc 00       		.byte	0
 4294 0ebd 00       		.byte	0
ARM GAS  C:\Users\Bruger\AppData\Local\Temp\ccj0lDyf.s 			page 102


 4295 0ebe 00       		.byte	0
 4296 0ebf 00       		.byte	0
 4297 0ec0 90       		.byte	-112
 4298 0ec1 42       		.byte	66
 4299 0ec2 08       		.byte	8
 4300 0ec3 00       		.byte	0
 4301 0ec4 00       		.byte	0
 4302 0ec5 80       		.byte	-128
 4303 0ec6 00       		.byte	0
 4304 0ec7 00       		.byte	0
 4305 0ec8 00       		.byte	0
 4306 0ec9 10       		.byte	16
 4307 0eca 48       		.byte	72
 4308 0ecb 00       		.byte	0
 4309 0ecc 00       		.byte	0
 4310 0ecd 00       		.byte	0
 4311 0ece 40       		.byte	64
 4312 0ecf 00       		.byte	0
 4313 0ed0 00       		.byte	0
 4314 0ed1 00       		.byte	0
 4315 0ed2 08       		.byte	8
 4316 0ed3 44       		.byte	68
 4317 0ed4 00       		.byte	0
 4318 0ed5 00       		.byte	0
 4319 0ed6 00       		.byte	0
 4320 0ed7 00       		.byte	0
 4321 0ed8 00       		.byte	0
 4322 0ed9 00       		.byte	0
 4323 0eda 00       		.byte	0
 4324 0edb 00       		.byte	0
 4325 0edc 00       		.byte	0
 4326 0edd 00       		.byte	0
 4327 0ede 00       		.byte	0
 4328 0edf 00       		.byte	0
 4329 0ee0 00       		.byte	0
 4330 0ee1 00       		.byte	0
 4331 0ee2 80       		.byte	-128
 4332 0ee3 00       		.byte	0
 4333 0ee4 00       		.byte	0
 4334 0ee5 00       		.byte	0
 4335 0ee6 00       		.byte	0
 4336 0ee7 00       		.byte	0
 4337 0ee8 00       		.byte	0
 4338 0ee9 00       		.byte	0
 4339 0eea 00       		.byte	0
 4340 0eeb 00       		.byte	0
 4341              		.align	2
 4342              		.type	BS_UDB_1_3_HV_ROUTING_VAL.4961, %object
 4343              		.size	BS_UDB_1_3_HV_ROUTING_VAL.4961, 128
 4344              	BS_UDB_1_3_HV_ROUTING_VAL.4961:
 4345 0eec 00       		.byte	0
 4346 0eed 00       		.byte	0
 4347 0eee 01       		.byte	1
 4348 0eef 00       		.byte	0
 4349 0ef0 40       		.byte	64
 4350 0ef1 00       		.byte	0
 4351 0ef2 21       		.byte	33
ARM GAS  C:\Users\Bruger\AppData\Local\Temp\ccj0lDyf.s 			page 103


 4352 0ef3 00       		.byte	0
 4353 0ef4 00       		.byte	0
 4354 0ef5 00       		.byte	0
 4355 0ef6 00       		.byte	0
 4356 0ef7 00       		.byte	0
 4357 0ef8 40       		.byte	64
 4358 0ef9 01       		.byte	1
 4359 0efa 00       		.byte	0
 4360 0efb 00       		.byte	0
 4361 0efc 04       		.byte	4
 4362 0efd 00       		.byte	0
 4363 0efe 00       		.byte	0
 4364 0eff 00       		.byte	0
 4365 0f00 C0       		.byte	-64
 4366 0f01 20       		.byte	32
 4367 0f02 8F       		.byte	-113
 4368 0f03 00       		.byte	0
 4369 0f04 0C       		.byte	12
 4370 0f05 82       		.byte	-126
 4371 0f06 00       		.byte	0
 4372 0f07 00       		.byte	0
 4373 0f08 00       		.byte	0
 4374 0f09 2C       		.byte	44
 4375 0f0a 00       		.byte	0
 4376 0f0b 68       		.byte	104
 4377 0f0c 01       		.byte	1
 4378 0f0d 20       		.byte	32
 4379 0f0e 10       		.byte	16
 4380 0f0f 00       		.byte	0
 4381 0f10 50       		.byte	80
 4382 0f11 08       		.byte	8
 4383 0f12 00       		.byte	0
 4384 0f13 00       		.byte	0
 4385 0f14 02       		.byte	2
 4386 0f15 01       		.byte	1
 4387 0f16 00       		.byte	0
 4388 0f17 10       		.byte	16
 4389 0f18 00       		.byte	0
 4390 0f19 00       		.byte	0
 4391 0f1a 04       		.byte	4
 4392 0f1b 80       		.byte	-128
 4393 0f1c 00       		.byte	0
 4394 0f1d 00       		.byte	0
 4395 0f1e 00       		.byte	0
 4396 0f1f 00       		.byte	0
 4397 0f20 88       		.byte	-120
 4398 0f21 04       		.byte	4
 4399 0f22 00       		.byte	0
 4400 0f23 00       		.byte	0
 4401 0f24 00       		.byte	0
 4402 0f25 00       		.byte	0
 4403 0f26 00       		.byte	0
 4404 0f27 00       		.byte	0
 4405 0f28 00       		.byte	0
 4406 0f29 00       		.byte	0
 4407 0f2a 00       		.byte	0
 4408 0f2b 00       		.byte	0
ARM GAS  C:\Users\Bruger\AppData\Local\Temp\ccj0lDyf.s 			page 104


 4409 0f2c EA       		.byte	-22
 4410 0f2d 00       		.byte	0
 4411 0f2e C0       		.byte	-64
 4412 0f2f 00       		.byte	0
 4413 0f30 30       		.byte	48
 4414 0f31 00       		.byte	0
 4415 0f32 00       		.byte	0
 4416 0f33 00       		.byte	0
 4417 0f34 00       		.byte	0
 4418 0f35 00       		.byte	0
 4419 0f36 08       		.byte	8
 4420 0f37 00       		.byte	0
 4421 0f38 45       		.byte	69
 4422 0f39 00       		.byte	0
 4423 0f3a 07       		.byte	7
 4424 0f3b 00       		.byte	0
 4425 0f3c BD       		.byte	-67
 4426 0f3d 00       		.byte	0
 4427 0f3e 00       		.byte	0
 4428 0f3f 00       		.byte	0
 4429 0f40 00       		.byte	0
 4430 0f41 00       		.byte	0
 4431 0f42 F0       		.byte	-16
 4432 0f43 00       		.byte	0
 4433 0f44 80       		.byte	-128
 4434 0f45 00       		.byte	0
 4435 0f46 00       		.byte	0
 4436 0f47 00       		.byte	0
 4437 0f48 00       		.byte	0
 4438 0f49 00       		.byte	0
 4439 0f4a 00       		.byte	0
 4440 0f4b 00       		.byte	0
 4441 0f4c 00       		.byte	0
 4442 0f4d 00       		.byte	0
 4443 0f4e 50       		.byte	80
 4444 0f4f 00       		.byte	0
 4445 0f50 04       		.byte	4
 4446 0f51 00       		.byte	0
 4447 0f52 40       		.byte	64
 4448 0f53 00       		.byte	0
 4449 0f54 00       		.byte	0
 4450 0f55 00       		.byte	0
 4451 0f56 19       		.byte	25
 4452 0f57 00       		.byte	0
 4453 0f58 00       		.byte	0
 4454 0f59 00       		.byte	0
 4455 0f5a 40       		.byte	64
 4456 0f5b 00       		.byte	0
 4457 0f5c 00       		.byte	0
 4458 0f5d 00       		.byte	0
 4459 0f5e 00       		.byte	0
 4460 0f5f 00       		.byte	0
 4461 0f60 00       		.byte	0
 4462 0f61 00       		.byte	0
 4463 0f62 00       		.byte	0
 4464 0f63 00       		.byte	0
 4465 0f64 00       		.byte	0
ARM GAS  C:\Users\Bruger\AppData\Local\Temp\ccj0lDyf.s 			page 105


 4466 0f65 00       		.byte	0
 4467 0f66 00       		.byte	0
 4468 0f67 00       		.byte	0
 4469 0f68 00       		.byte	0
 4470 0f69 00       		.byte	0
 4471 0f6a 00       		.byte	0
 4472 0f6b 00       		.byte	0
 4473              		.align	2
 4474              		.type	BS_UDBSWITCH_0_3_VAL.4960, %object
 4475              		.size	BS_UDBSWITCH_0_3_VAL.4960, 128
 4476              	BS_UDBSWITCH_0_3_VAL.4960:
 4477 0f6c 10       		.byte	16
 4478 0f6d 00       		.byte	0
 4479 0f6e 80       		.byte	-128
 4480 0f6f 00       		.byte	0
 4481 0f70 40       		.byte	64
 4482 0f71 14       		.byte	20
 4483 0f72 10       		.byte	16
 4484 0f73 00       		.byte	0
 4485 0f74 00       		.byte	0
 4486 0f75 00       		.byte	0
 4487 0f76 00       		.byte	0
 4488 0f77 00       		.byte	0
 4489 0f78 00       		.byte	0
 4490 0f79 00       		.byte	0
 4491 0f7a 08       		.byte	8
 4492 0f7b 06       		.byte	6
 4493 0f7c 00       		.byte	0
 4494 0f7d 00       		.byte	0
 4495 0f7e 00       		.byte	0
 4496 0f7f 00       		.byte	0
 4497 0f80 00       		.byte	0
 4498 0f81 0A       		.byte	10
 4499 0f82 00       		.byte	0
 4500 0f83 00       		.byte	0
 4501 0f84 10       		.byte	16
 4502 0f85 40       		.byte	64
 4503 0f86 00       		.byte	0
 4504 0f87 00       		.byte	0
 4505 0f88 40       		.byte	64
 4506 0f89 04       		.byte	4
 4507 0f8a 0D       		.byte	13
 4508 0f8b 00       		.byte	0
 4509 0f8c 20       		.byte	32
 4510 0f8d 04       		.byte	4
 4511 0f8e 01       		.byte	1
 4512 0f8f 00       		.byte	0
 4513 0f90 80       		.byte	-128
 4514 0f91 00       		.byte	0
 4515 0f92 00       		.byte	0
 4516 0f93 00       		.byte	0
 4517 0f94 00       		.byte	0
 4518 0f95 00       		.byte	0
 4519 0f96 00       		.byte	0
 4520 0f97 01       		.byte	1
 4521 0f98 00       		.byte	0
 4522 0f99 00       		.byte	0
ARM GAS  C:\Users\Bruger\AppData\Local\Temp\ccj0lDyf.s 			page 106


 4523 0f9a 00       		.byte	0
 4524 0f9b 00       		.byte	0
 4525 0f9c 02       		.byte	2
 4526 0f9d 10       		.byte	16
 4527 0f9e 00       		.byte	0
 4528 0f9f 00       		.byte	0
 4529 0fa0 08       		.byte	8
 4530 0fa1 00       		.byte	0
 4531 0fa2 00       		.byte	0
 4532 0fa3 00       		.byte	0
 4533 0fa4 40       		.byte	64
 4534 0fa5 96       		.byte	-106
 4535 0fa6 00       		.byte	0
 4536 0fa7 00       		.byte	0
 4537 0fa8 00       		.byte	0
 4538 0fa9 00       		.byte	0
 4539 0faa 00       		.byte	0
 4540 0fab 00       		.byte	0
 4541 0fac 01       		.byte	1
 4542 0fad 10       		.byte	16
 4543 0fae 88       		.byte	-120
 4544 0faf 00       		.byte	0
 4545 0fb0 00       		.byte	0
 4546 0fb1 40       		.byte	64
 4547 0fb2 88       		.byte	-120
 4548 0fb3 00       		.byte	0
 4549 0fb4 00       		.byte	0
 4550 0fb5 00       		.byte	0
 4551 0fb6 00       		.byte	0
 4552 0fb7 00       		.byte	0
 4553 0fb8 00       		.byte	0
 4554 0fb9 00       		.byte	0
 4555 0fba 90       		.byte	-112
 4556 0fbb 00       		.byte	0
 4557 0fbc 00       		.byte	0
 4558 0fbd 00       		.byte	0
 4559 0fbe 00       		.byte	0
 4560 0fbf 00       		.byte	0
 4561 0fc0 00       		.byte	0
 4562 0fc1 00       		.byte	0
 4563 0fc2 C0       		.byte	-64
 4564 0fc3 14       		.byte	20
 4565 0fc4 00       		.byte	0
 4566 0fc5 00       		.byte	0
 4567 0fc6 00       		.byte	0
 4568 0fc7 00       		.byte	0
 4569 0fc8 04       		.byte	4
 4570 0fc9 82       		.byte	-126
 4571 0fca 20       		.byte	32
 4572 0fcb 00       		.byte	0
 4573 0fcc 00       		.byte	0
 4574 0fcd 00       		.byte	0
 4575 0fce 00       		.byte	0
 4576 0fcf 00       		.byte	0
 4577 0fd0 00       		.byte	0
 4578 0fd1 01       		.byte	1
 4579 0fd2 00       		.byte	0
ARM GAS  C:\Users\Bruger\AppData\Local\Temp\ccj0lDyf.s 			page 107


 4580 0fd3 00       		.byte	0
 4581 0fd4 02       		.byte	2
 4582 0fd5 15       		.byte	21
 4583 0fd6 00       		.byte	0
 4584 0fd7 00       		.byte	0
 4585 0fd8 08       		.byte	8
 4586 0fd9 00       		.byte	0
 4587 0fda 00       		.byte	0
 4588 0fdb 02       		.byte	2
 4589 0fdc B1       		.byte	-79
 4590 0fdd 00       		.byte	0
 4591 0fde 00       		.byte	0
 4592 0fdf 20       		.byte	32
 4593 0fe0 00       		.byte	0
 4594 0fe1 00       		.byte	0
 4595 0fe2 00       		.byte	0
 4596 0fe3 00       		.byte	0
 4597 0fe4 00       		.byte	0
 4598 0fe5 00       		.byte	0
 4599 0fe6 00       		.byte	0
 4600 0fe7 00       		.byte	0
 4601 0fe8 00       		.byte	0
 4602 0fe9 00       		.byte	0
 4603 0fea 00       		.byte	0
 4604 0feb 00       		.byte	0
 4605              		.align	2
 4606              		.type	BS_UDB_2_2_HV_ROUTING_VAL.4959, %object
 4607              		.size	BS_UDB_2_2_HV_ROUTING_VAL.4959, 128
 4608              	BS_UDB_2_2_HV_ROUTING_VAL.4959:
 4609 0fec 00       		.byte	0
 4610 0fed 00       		.byte	0
 4611 0fee 00       		.byte	0
 4612 0fef 00       		.byte	0
 4613 0ff0 00       		.byte	0
 4614 0ff1 00       		.byte	0
 4615 0ff2 80       		.byte	-128
 4616 0ff3 C0       		.byte	-64
 4617 0ff4 00       		.byte	0
 4618 0ff5 00       		.byte	0
 4619 0ff6 00       		.byte	0
 4620 0ff7 00       		.byte	0
 4621 0ff8 00       		.byte	0
 4622 0ff9 00       		.byte	0
 4623 0ffa 00       		.byte	0
 4624 0ffb 20       		.byte	32
 4625 0ffc 80       		.byte	-128
 4626 0ffd 20       		.byte	32
 4627 0ffe 14       		.byte	20
 4628 0fff 00       		.byte	0
 4629 1000 00       		.byte	0
 4630 1001 02       		.byte	2
 4631 1002 E8       		.byte	-24
 4632 1003 19       		.byte	25
 4633 1004 04       		.byte	4
 4634 1005 21       		.byte	33
 4635 1006 00       		.byte	0
 4636 1007 49       		.byte	73
ARM GAS  C:\Users\Bruger\AppData\Local\Temp\ccj0lDyf.s 			page 108


 4637 1008 00       		.byte	0
 4638 1009 80       		.byte	-128
 4639 100a 15       		.byte	21
 4640 100b 12       		.byte	18
 4641 100c 00       		.byte	0
 4642 100d 02       		.byte	2
 4643 100e 20       		.byte	32
 4644 100f 4B       		.byte	75
 4645 1010 40       		.byte	64
 4646 1011 00       		.byte	0
 4647 1012 13       		.byte	19
 4648 1013 00       		.byte	0
 4649 1014 00       		.byte	0
 4650 1015 00       		.byte	0
 4651 1016 00       		.byte	0
 4652 1017 00       		.byte	0
 4653 1018 00       		.byte	0
 4654 1019 00       		.byte	0
 4655 101a 00       		.byte	0
 4656 101b 00       		.byte	0
 4657 101c 01       		.byte	1
 4658 101d 00       		.byte	0
 4659 101e 00       		.byte	0
 4660 101f 00       		.byte	0
 4661 1020 04       		.byte	4
 4662 1021 00       		.byte	0
 4663 1022 80       		.byte	-128
 4664 1023 00       		.byte	0
 4665 1024 00       		.byte	0
 4666 1025 00       		.byte	0
 4667 1026 00       		.byte	0
 4668 1027 00       		.byte	0
 4669 1028 00       		.byte	0
 4670 1029 00       		.byte	0
 4671 102a 00       		.byte	0
 4672 102b 00       		.byte	0
 4673 102c FB       		.byte	-5
 4674 102d 00       		.byte	0
 4675 102e B1       		.byte	-79
 4676 102f 00       		.byte	0
 4677 1030 3E       		.byte	62
 4678 1031 00       		.byte	0
 4679 1032 00       		.byte	0
 4680 1033 00       		.byte	0
 4681 1034 00       		.byte	0
 4682 1035 00       		.byte	0
 4683 1036 C0       		.byte	-64
 4684 1037 00       		.byte	0
 4685 1038 81       		.byte	-127
 4686 1039 00       		.byte	0
 4687 103a 76       		.byte	118
 4688 103b 00       		.byte	0
 4689 103c 1A       		.byte	26
 4690 103d 00       		.byte	0
 4691 103e 10       		.byte	16
 4692 103f 00       		.byte	0
 4693 1040 00       		.byte	0
ARM GAS  C:\Users\Bruger\AppData\Local\Temp\ccj0lDyf.s 			page 109


 4694 1041 00       		.byte	0
 4695 1042 80       		.byte	-128
 4696 1043 00       		.byte	0
 4697 1044 B4       		.byte	-76
 4698 1045 00       		.byte	0
 4699 1046 00       		.byte	0
 4700 1047 00       		.byte	0
 4701 1048 00       		.byte	0
 4702 1049 00       		.byte	0
 4703 104a 00       		.byte	0
 4704 104b 00       		.byte	0
 4705 104c 00       		.byte	0
 4706 104d 00       		.byte	0
 4707 104e 02       		.byte	2
 4708 104f 00       		.byte	0
 4709 1050 00       		.byte	0
 4710 1051 00       		.byte	0
 4711 1052 08       		.byte	8
 4712 1053 00       		.byte	0
 4713 1054 00       		.byte	0
 4714 1055 00       		.byte	0
 4715 1056 00       		.byte	0
 4716 1057 00       		.byte	0
 4717 1058 00       		.byte	0
 4718 1059 00       		.byte	0
 4719 105a 02       		.byte	2
 4720 105b 00       		.byte	0
 4721 105c 00       		.byte	0
 4722 105d 00       		.byte	0
 4723 105e 00       		.byte	0
 4724 105f 00       		.byte	0
 4725 1060 00       		.byte	0
 4726 1061 00       		.byte	0
 4727 1062 00       		.byte	0
 4728 1063 00       		.byte	0
 4729 1064 00       		.byte	0
 4730 1065 00       		.byte	0
 4731 1066 00       		.byte	0
 4732 1067 00       		.byte	0
 4733 1068 00       		.byte	0
 4734 1069 00       		.byte	0
 4735 106a 00       		.byte	0
 4736 106b 00       		.byte	0
 4737              		.align	2
 4738              		.type	BS_UDBSWITCH_1_2_VAL.4958, %object
 4739              		.size	BS_UDBSWITCH_1_2_VAL.4958, 128
 4740              	BS_UDBSWITCH_1_2_VAL.4958:
 4741 106c 80       		.byte	-128
 4742 106d 11       		.byte	17
 4743 106e 00       		.byte	0
 4744 106f 00       		.byte	0
 4745 1070 80       		.byte	-128
 4746 1071 00       		.byte	0
 4747 1072 00       		.byte	0
 4748 1073 64       		.byte	100
 4749 1074 00       		.byte	0
 4750 1075 00       		.byte	0
ARM GAS  C:\Users\Bruger\AppData\Local\Temp\ccj0lDyf.s 			page 110


 4751 1076 01       		.byte	1
 4752 1077 00       		.byte	0
 4753 1078 04       		.byte	4
 4754 1079 02       		.byte	2
 4755 107a 80       		.byte	-128
 4756 107b 02       		.byte	2
 4757 107c 64       		.byte	100
 4758 107d 00       		.byte	0
 4759 107e 00       		.byte	0
 4760 107f 00       		.byte	0
 4761 1080 40       		.byte	64
 4762 1081 00       		.byte	0
 4763 1082 80       		.byte	-128
 4764 1083 08       		.byte	8
 4765 1084 20       		.byte	32
 4766 1085 00       		.byte	0
 4767 1086 80       		.byte	-128
 4768 1087 00       		.byte	0
 4769 1088 00       		.byte	0
 4770 1089 08       		.byte	8
 4771 108a 42       		.byte	66
 4772 108b 00       		.byte	0
 4773 108c 14       		.byte	20
 4774 108d 00       		.byte	0
 4775 108e 00       		.byte	0
 4776 108f 00       		.byte	0
 4777 1090 00       		.byte	0
 4778 1091 00       		.byte	0
 4779 1092 00       		.byte	0
 4780 1093 10       		.byte	16
 4781 1094 00       		.byte	0
 4782 1095 80       		.byte	-128
 4783 1096 40       		.byte	64
 4784 1097 00       		.byte	0
 4785 1098 00       		.byte	0
 4786 1099 08       		.byte	8
 4787 109a 00       		.byte	0
 4788 109b 80       		.byte	-128
 4789 109c 02       		.byte	2
 4790 109d 00       		.byte	0
 4791 109e 00       		.byte	0
 4792 109f 00       		.byte	0
 4793 10a0 00       		.byte	0
 4794 10a1 00       		.byte	0
 4795 10a2 00       		.byte	0
 4796 10a3 01       		.byte	1
 4797 10a4 10       		.byte	16
 4798 10a5 00       		.byte	0
 4799 10a6 00       		.byte	0
 4800 10a7 04       		.byte	4
 4801 10a8 00       		.byte	0
 4802 10a9 00       		.byte	0
 4803 10aa 14       		.byte	20
 4804 10ab 40       		.byte	64
 4805 10ac 22       		.byte	34
 4806 10ad 00       		.byte	0
 4807 10ae 00       		.byte	0
ARM GAS  C:\Users\Bruger\AppData\Local\Temp\ccj0lDyf.s 			page 111


 4808 10af 00       		.byte	0
 4809 10b0 02       		.byte	2
 4810 10b1 00       		.byte	0
 4811 10b2 00       		.byte	0
 4812 10b3 00       		.byte	0
 4813 10b4 00       		.byte	0
 4814 10b5 00       		.byte	0
 4815 10b6 80       		.byte	-128
 4816 10b7 04       		.byte	4
 4817 10b8 00       		.byte	0
 4818 10b9 40       		.byte	64
 4819 10ba 00       		.byte	0
 4820 10bb 00       		.byte	0
 4821 10bc 06       		.byte	6
 4822 10bd 40       		.byte	64
 4823 10be 00       		.byte	0
 4824 10bf 20       		.byte	32
 4825 10c0 00       		.byte	0
 4826 10c1 00       		.byte	0
 4827 10c2 00       		.byte	0
 4828 10c3 00       		.byte	0
 4829 10c4 00       		.byte	0
 4830 10c5 00       		.byte	0
 4831 10c6 00       		.byte	0
 4832 10c7 00       		.byte	0
 4833 10c8 00       		.byte	0
 4834 10c9 12       		.byte	18
 4835 10ca 00       		.byte	0
 4836 10cb 20       		.byte	32
 4837 10cc 00       		.byte	0
 4838 10cd 00       		.byte	0
 4839 10ce 20       		.byte	32
 4840 10cf 00       		.byte	0
 4841 10d0 00       		.byte	0
 4842 10d1 00       		.byte	0
 4843 10d2 20       		.byte	32
 4844 10d3 82       		.byte	-126
 4845 10d4 00       		.byte	0
 4846 10d5 00       		.byte	0
 4847 10d6 2A       		.byte	42
 4848 10d7 02       		.byte	2
 4849 10d8 00       		.byte	0
 4850 10d9 00       		.byte	0
 4851 10da 00       		.byte	0
 4852 10db 00       		.byte	0
 4853 10dc 00       		.byte	0
 4854 10dd 00       		.byte	0
 4855 10de 00       		.byte	0
 4856 10df 01       		.byte	1
 4857 10e0 00       		.byte	0
 4858 10e1 00       		.byte	0
 4859 10e2 00       		.byte	0
 4860 10e3 00       		.byte	0
 4861 10e4 00       		.byte	0
 4862 10e5 00       		.byte	0
 4863 10e6 00       		.byte	0
 4864 10e7 00       		.byte	0
ARM GAS  C:\Users\Bruger\AppData\Local\Temp\ccj0lDyf.s 			page 112


 4865 10e8 00       		.byte	0
 4866 10e9 00       		.byte	0
 4867 10ea 03       		.byte	3
 4868 10eb 00       		.byte	0
 4869              		.align	2
 4870              		.type	BS_UDB_1_2_HV_ROUTING_VAL.4957, %object
 4871              		.size	BS_UDB_1_2_HV_ROUTING_VAL.4957, 128
 4872              	BS_UDB_1_2_HV_ROUTING_VAL.4957:
 4873 10ec 00       		.byte	0
 4874 10ed 00       		.byte	0
 4875 10ee 00       		.byte	0
 4876 10ef 00       		.byte	0
 4877 10f0 00       		.byte	0
 4878 10f1 00       		.byte	0
 4879 10f2 10       		.byte	16
 4880 10f3 01       		.byte	1
 4881 10f4 00       		.byte	0
 4882 10f5 00       		.byte	0
 4883 10f6 00       		.byte	0
 4884 10f7 00       		.byte	0
 4885 10f8 20       		.byte	32
 4886 10f9 00       		.byte	0
 4887 10fa 00       		.byte	0
 4888 10fb 00       		.byte	0
 4889 10fc 20       		.byte	32
 4890 10fd 89       		.byte	-119
 4891 10fe 20       		.byte	32
 4892 10ff 04       		.byte	4
 4893 1100 01       		.byte	1
 4894 1101 02       		.byte	2
 4895 1102 88       		.byte	-120
 4896 1103 00       		.byte	0
 4897 1104 04       		.byte	4
 4898 1105 40       		.byte	64
 4899 1106 70       		.byte	112
 4900 1107 00       		.byte	0
 4901 1108 00       		.byte	0
 4902 1109 30       		.byte	48
 4903 110a 09       		.byte	9
 4904 110b 40       		.byte	64
 4905 110c B9       		.byte	-71
 4906 110d 20       		.byte	32
 4907 110e 00       		.byte	0
 4908 110f 16       		.byte	22
 4909 1110 00       		.byte	0
 4910 1111 48       		.byte	72
 4911 1112 00       		.byte	0
 4912 1113 01       		.byte	1
 4913 1114 00       		.byte	0
 4914 1115 00       		.byte	0
 4915 1116 00       		.byte	0
 4916 1117 00       		.byte	0
 4917 1118 00       		.byte	0
 4918 1119 00       		.byte	0
 4919 111a 00       		.byte	0
 4920 111b 00       		.byte	0
 4921 111c 00       		.byte	0
ARM GAS  C:\Users\Bruger\AppData\Local\Temp\ccj0lDyf.s 			page 113


 4922 111d 00       		.byte	0
 4923 111e 00       		.byte	0
 4924 111f 20       		.byte	32
 4925 1120 01       		.byte	1
 4926 1121 08       		.byte	8
 4927 1122 00       		.byte	0
 4928 1123 08       		.byte	8
 4929 1124 00       		.byte	0
 4930 1125 00       		.byte	0
 4931 1126 00       		.byte	0
 4932 1127 00       		.byte	0
 4933 1128 00       		.byte	0
 4934 1129 00       		.byte	0
 4935 112a 00       		.byte	0
 4936 112b 00       		.byte	0
 4937 112c BE       		.byte	-66
 4938 112d 00       		.byte	0
 4939 112e 62       		.byte	98
 4940 112f 00       		.byte	0
 4941 1130 8C       		.byte	-116
 4942 1131 00       		.byte	0
 4943 1132 00       		.byte	0
 4944 1133 00       		.byte	0
 4945 1134 00       		.byte	0
 4946 1135 00       		.byte	0
 4947 1136 35       		.byte	53
 4948 1137 00       		.byte	0
 4949 1138 BC       		.byte	-68
 4950 1139 00       		.byte	0
 4951 113a 06       		.byte	6
 4952 113b 00       		.byte	0
 4953 113c 9D       		.byte	-99
 4954 113d 00       		.byte	0
 4955 113e 20       		.byte	32
 4956 113f 00       		.byte	0
 4957 1140 00       		.byte	0
 4958 1141 00       		.byte	0
 4959 1142 7E       		.byte	126
 4960 1143 00       		.byte	0
 4961 1144 E6       		.byte	-26
 4962 1145 00       		.byte	0
 4963 1146 00       		.byte	0
 4964 1147 00       		.byte	0
 4965 1148 00       		.byte	0
 4966 1149 00       		.byte	0
 4967 114a 00       		.byte	0
 4968 114b 00       		.byte	0
 4969 114c 40       		.byte	64
 4970 114d 00       		.byte	0
 4971 114e 00       		.byte	0
 4972 114f 00       		.byte	0
 4973 1150 00       		.byte	0
 4974 1151 00       		.byte	0
 4975 1152 00       		.byte	0
 4976 1153 00       		.byte	0
 4977 1154 00       		.byte	0
 4978 1155 00       		.byte	0
ARM GAS  C:\Users\Bruger\AppData\Local\Temp\ccj0lDyf.s 			page 114


 4979 1156 40       		.byte	64
 4980 1157 00       		.byte	0
 4981 1158 40       		.byte	64
 4982 1159 00       		.byte	0
 4983 115a 22       		.byte	34
 4984 115b 00       		.byte	0
 4985 115c 00       		.byte	0
 4986 115d 00       		.byte	0
 4987 115e 00       		.byte	0
 4988 115f 00       		.byte	0
 4989 1160 00       		.byte	0
 4990 1161 00       		.byte	0
 4991 1162 00       		.byte	0
 4992 1163 00       		.byte	0
 4993 1164 00       		.byte	0
 4994 1165 00       		.byte	0
 4995 1166 00       		.byte	0
 4996 1167 00       		.byte	0
 4997 1168 00       		.byte	0
 4998 1169 00       		.byte	0
 4999 116a 00       		.byte	0
 5000 116b 00       		.byte	0
 5001              		.align	2
 5002              		.type	BS_UDBSWITCH_0_2_VAL.4956, %object
 5003              		.size	BS_UDBSWITCH_0_2_VAL.4956, 128
 5004              	BS_UDBSWITCH_0_2_VAL.4956:
 5005 116c 20       		.byte	32
 5006 116d 01       		.byte	1
 5007 116e 90       		.byte	-112
 5008 116f 00       		.byte	0
 5009 1170 42       		.byte	66
 5010 1171 04       		.byte	4
 5011 1172 00       		.byte	0
 5012 1173 00       		.byte	0
 5013 1174 10       		.byte	16
 5014 1175 00       		.byte	0
 5015 1176 00       		.byte	0
 5016 1177 04       		.byte	4
 5017 1178 08       		.byte	8
 5018 1179 00       		.byte	0
 5019 117a 08       		.byte	8
 5020 117b 00       		.byte	0
 5021 117c E0       		.byte	-32
 5022 117d 00       		.byte	0
 5023 117e 00       		.byte	0
 5024 117f 00       		.byte	0
 5025 1180 00       		.byte	0
 5026 1181 40       		.byte	64
 5027 1182 00       		.byte	0
 5028 1183 00       		.byte	0
 5029 1184 00       		.byte	0
 5030 1185 00       		.byte	0
 5031 1186 80       		.byte	-128
 5032 1187 00       		.byte	0
 5033 1188 40       		.byte	64
 5034 1189 08       		.byte	8
 5035 118a 08       		.byte	8
ARM GAS  C:\Users\Bruger\AppData\Local\Temp\ccj0lDyf.s 			page 115


 5036 118b 01       		.byte	1
 5037 118c 00       		.byte	0
 5038 118d 01       		.byte	1
 5039 118e 05       		.byte	5
 5040 118f 00       		.byte	0
 5041 1190 00       		.byte	0
 5042 1191 00       		.byte	0
 5043 1192 00       		.byte	0
 5044 1193 1A       		.byte	26
 5045 1194 40       		.byte	64
 5046 1195 00       		.byte	0
 5047 1196 10       		.byte	16
 5048 1197 00       		.byte	0
 5049 1198 00       		.byte	0
 5050 1199 00       		.byte	0
 5051 119a 00       		.byte	0
 5052 119b 09       		.byte	9
 5053 119c 10       		.byte	16
 5054 119d 00       		.byte	0
 5055 119e 80       		.byte	-128
 5056 119f 00       		.byte	0
 5057 11a0 80       		.byte	-128
 5058 11a1 00       		.byte	0
 5059 11a2 20       		.byte	32
 5060 11a3 01       		.byte	1
 5061 11a4 20       		.byte	32
 5062 11a5 08       		.byte	8
 5063 11a6 00       		.byte	0
 5064 11a7 00       		.byte	0
 5065 11a8 00       		.byte	0
 5066 11a9 00       		.byte	0
 5067 11aa 00       		.byte	0
 5068 11ab 00       		.byte	0
 5069 11ac 81       		.byte	-127
 5070 11ad 00       		.byte	0
 5071 11ae 08       		.byte	8
 5072 11af 00       		.byte	0
 5073 11b0 88       		.byte	-120
 5074 11b1 41       		.byte	65
 5075 11b2 40       		.byte	64
 5076 11b3 10       		.byte	16
 5077 11b4 00       		.byte	0
 5078 11b5 00       		.byte	0
 5079 11b6 00       		.byte	0
 5080 11b7 00       		.byte	0
 5081 11b8 04       		.byte	4
 5082 11b9 00       		.byte	0
 5083 11ba 00       		.byte	0
 5084 11bb 00       		.byte	0
 5085 11bc 00       		.byte	0
 5086 11bd 00       		.byte	0
 5087 11be 00       		.byte	0
 5088 11bf 00       		.byte	0
 5089 11c0 00       		.byte	0
 5090 11c1 00       		.byte	0
 5091 11c2 00       		.byte	0
 5092 11c3 00       		.byte	0
ARM GAS  C:\Users\Bruger\AppData\Local\Temp\ccj0lDyf.s 			page 116


 5093 11c4 08       		.byte	8
 5094 11c5 40       		.byte	64
 5095 11c6 20       		.byte	32
 5096 11c7 00       		.byte	0
 5097 11c8 20       		.byte	32
 5098 11c9 80       		.byte	-128
 5099 11ca 00       		.byte	0
 5100 11cb 08       		.byte	8
 5101 11cc 00       		.byte	0
 5102 11cd 00       		.byte	0
 5103 11ce 00       		.byte	0
 5104 11cf 28       		.byte	40
 5105 11d0 00       		.byte	0
 5106 11d1 00       		.byte	0
 5107 11d2 05       		.byte	5
 5108 11d3 08       		.byte	8
 5109 11d4 00       		.byte	0
 5110 11d5 00       		.byte	0
 5111 11d6 00       		.byte	0
 5112 11d7 00       		.byte	0
 5113 11d8 00       		.byte	0
 5114 11d9 00       		.byte	0
 5115 11da 00       		.byte	0
 5116 11db 00       		.byte	0
 5117 11dc 00       		.byte	0
 5118 11dd 01       		.byte	1
 5119 11de 00       		.byte	0
 5120 11df 00       		.byte	0
 5121 11e0 00       		.byte	0
 5122 11e1 00       		.byte	0
 5123 11e2 00       		.byte	0
 5124 11e3 40       		.byte	64
 5125 11e4 00       		.byte	0
 5126 11e5 00       		.byte	0
 5127 11e6 00       		.byte	0
 5128 11e7 00       		.byte	0
 5129 11e8 00       		.byte	0
 5130 11e9 00       		.byte	0
 5131 11ea 00       		.byte	0
 5132 11eb 00       		.byte	0
 5133              		.align	2
 5134              		.type	BS_UDB_2_1_HV_ROUTING_VAL.4955, %object
 5135              		.size	BS_UDB_2_1_HV_ROUTING_VAL.4955, 128
 5136              	BS_UDB_2_1_HV_ROUTING_VAL.4955:
 5137 11ec 00       		.byte	0
 5138 11ed 14       		.byte	20
 5139 11ee 00       		.byte	0
 5140 11ef 00       		.byte	0
 5141 11f0 00       		.byte	0
 5142 11f1 00       		.byte	0
 5143 11f2 60       		.byte	96
 5144 11f3 80       		.byte	-128
 5145 11f4 04       		.byte	4
 5146 11f5 00       		.byte	0
 5147 11f6 00       		.byte	0
 5148 11f7 01       		.byte	1
 5149 11f8 20       		.byte	32
ARM GAS  C:\Users\Bruger\AppData\Local\Temp\ccj0lDyf.s 			page 117


 5150 11f9 40       		.byte	64
 5151 11fa 00       		.byte	0
 5152 11fb 20       		.byte	32
 5153 11fc 00       		.byte	0
 5154 11fd 30       		.byte	48
 5155 11fe 00       		.byte	0
 5156 11ff 40       		.byte	64
 5157 1200 00       		.byte	0
 5158 1201 43       		.byte	67
 5159 1202 01       		.byte	1
 5160 1203 0A       		.byte	10
 5161 1204 46       		.byte	70
 5162 1205 29       		.byte	41
 5163 1206 00       		.byte	0
 5164 1207 00       		.byte	0
 5165 1208 20       		.byte	32
 5166 1209 00       		.byte	0
 5167 120a 75       		.byte	117
 5168 120b 04       		.byte	4
 5169 120c 10       		.byte	16
 5170 120d 00       		.byte	0
 5171 120e 40       		.byte	64
 5172 120f C3       		.byte	-61
 5173 1210 60       		.byte	96
 5174 1211 00       		.byte	0
 5175 1212 10       		.byte	16
 5176 1213 00       		.byte	0
 5177 1214 06       		.byte	6
 5178 1215 42       		.byte	66
 5179 1216 00       		.byte	0
 5180 1217 08       		.byte	8
 5181 1218 00       		.byte	0
 5182 1219 08       		.byte	8
 5183 121a 80       		.byte	-128
 5184 121b 50       		.byte	80
 5185 121c 10       		.byte	16
 5186 121d 00       		.byte	0
 5187 121e 00       		.byte	0
 5188 121f 20       		.byte	32
 5189 1220 14       		.byte	20
 5190 1221 08       		.byte	8
 5191 1222 00       		.byte	0
 5192 1223 00       		.byte	0
 5193 1224 00       		.byte	0
 5194 1225 00       		.byte	0
 5195 1226 00       		.byte	0
 5196 1227 00       		.byte	0
 5197 1228 00       		.byte	0
 5198 1229 00       		.byte	0
 5199 122a 00       		.byte	0
 5200 122b 00       		.byte	0
 5201 122c 0B       		.byte	11
 5202 122d 00       		.byte	0
 5203 122e D0       		.byte	-48
 5204 122f 00       		.byte	0
 5205 1230 A0       		.byte	-96
 5206 1231 00       		.byte	0
ARM GAS  C:\Users\Bruger\AppData\Local\Temp\ccj0lDyf.s 			page 118


 5207 1232 00       		.byte	0
 5208 1233 00       		.byte	0
 5209 1234 00       		.byte	0
 5210 1235 00       		.byte	0
 5211 1236 E5       		.byte	-27
 5212 1237 00       		.byte	0
 5213 1238 97       		.byte	-105
 5214 1239 00       		.byte	0
 5215 123a DC       		.byte	-36
 5216 123b 00       		.byte	0
 5217 123c DA       		.byte	-38
 5218 123d 00       		.byte	0
 5219 123e 08       		.byte	8
 5220 123f 00       		.byte	0
 5221 1240 00       		.byte	0
 5222 1241 00       		.byte	0
 5223 1242 00       		.byte	0
 5224 1243 00       		.byte	0
 5225 1244 00       		.byte	0
 5226 1245 00       		.byte	0
 5227 1246 00       		.byte	0
 5228 1247 00       		.byte	0
 5229 1248 00       		.byte	0
 5230 1249 00       		.byte	0
 5231 124a 00       		.byte	0
 5232 124b 00       		.byte	0
 5233 124c 0E       		.byte	14
 5234 124d 00       		.byte	0
 5235 124e 10       		.byte	16
 5236 124f 00       		.byte	0
 5237 1250 C5       		.byte	-59
 5238 1251 00       		.byte	0
 5239 1252 22       		.byte	34
 5240 1253 00       		.byte	0
 5241 1254 05       		.byte	5
 5242 1255 00       		.byte	0
 5243 1256 08       		.byte	8
 5244 1257 00       		.byte	0
 5245 1258 09       		.byte	9
 5246 1259 00       		.byte	0
 5247 125a 06       		.byte	6
 5248 125b 00       		.byte	0
 5249 125c 00       		.byte	0
 5250 125d 00       		.byte	0
 5251 125e 00       		.byte	0
 5252 125f 00       		.byte	0
 5253 1260 00       		.byte	0
 5254 1261 00       		.byte	0
 5255 1262 00       		.byte	0
 5256 1263 00       		.byte	0
 5257 1264 00       		.byte	0
 5258 1265 00       		.byte	0
 5259 1266 00       		.byte	0
 5260 1267 00       		.byte	0
 5261 1268 00       		.byte	0
 5262 1269 00       		.byte	0
 5263 126a 00       		.byte	0
ARM GAS  C:\Users\Bruger\AppData\Local\Temp\ccj0lDyf.s 			page 119


 5264 126b 00       		.byte	0
 5265              		.align	2
 5266              		.type	BS_UDBSWITCH_1_1_VAL.4954, %object
 5267              		.size	BS_UDBSWITCH_1_1_VAL.4954, 128
 5268              	BS_UDBSWITCH_1_1_VAL.4954:
 5269 126c 20       		.byte	32
 5270 126d 00       		.byte	0
 5271 126e 80       		.byte	-128
 5272 126f 02       		.byte	2
 5273 1270 00       		.byte	0
 5274 1271 00       		.byte	0
 5275 1272 00       		.byte	0
 5276 1273 00       		.byte	0
 5277 1274 00       		.byte	0
 5278 1275 00       		.byte	0
 5279 1276 00       		.byte	0
 5280 1277 00       		.byte	0
 5281 1278 00       		.byte	0
 5282 1279 00       		.byte	0
 5283 127a 08       		.byte	8
 5284 127b 81       		.byte	-127
 5285 127c 00       		.byte	0
 5286 127d 00       		.byte	0
 5287 127e 00       		.byte	0
 5288 127f 00       		.byte	0
 5289 1280 00       		.byte	0
 5290 1281 84       		.byte	-124
 5291 1282 00       		.byte	0
 5292 1283 00       		.byte	0
 5293 1284 00       		.byte	0
 5294 1285 10       		.byte	16
 5295 1286 40       		.byte	64
 5296 1287 00       		.byte	0
 5297 1288 00       		.byte	0
 5298 1289 08       		.byte	8
 5299 128a 08       		.byte	8
 5300 128b 01       		.byte	1
 5301 128c 08       		.byte	8
 5302 128d 00       		.byte	0
 5303 128e 04       		.byte	4
 5304 128f 00       		.byte	0
 5305 1290 00       		.byte	0
 5306 1291 00       		.byte	0
 5307 1292 00       		.byte	0
 5308 1293 24       		.byte	36
 5309 1294 40       		.byte	64
 5310 1295 20       		.byte	32
 5311 1296 00       		.byte	0
 5312 1297 00       		.byte	0
 5313 1298 08       		.byte	8
 5314 1299 08       		.byte	8
 5315 129a 00       		.byte	0
 5316 129b 80       		.byte	-128
 5317 129c 24       		.byte	36
 5318 129d 00       		.byte	0
 5319 129e 01       		.byte	1
 5320 129f 00       		.byte	0
ARM GAS  C:\Users\Bruger\AppData\Local\Temp\ccj0lDyf.s 			page 120


 5321 12a0 00       		.byte	0
 5322 12a1 00       		.byte	0
 5323 12a2 40       		.byte	64
 5324 12a3 02       		.byte	2
 5325 12a4 80       		.byte	-128
 5326 12a5 10       		.byte	16
 5327 12a6 00       		.byte	0
 5328 12a7 00       		.byte	0
 5329 12a8 00       		.byte	0
 5330 12a9 00       		.byte	0
 5331 12aa 04       		.byte	4
 5332 12ab 42       		.byte	66
 5333 12ac 02       		.byte	2
 5334 12ad 08       		.byte	8
 5335 12ae 00       		.byte	0
 5336 12af 00       		.byte	0
 5337 12b0 02       		.byte	2
 5338 12b1 0A       		.byte	10
 5339 12b2 00       		.byte	0
 5340 12b3 00       		.byte	0
 5341 12b4 40       		.byte	64
 5342 12b5 00       		.byte	0
 5343 12b6 12       		.byte	18
 5344 12b7 00       		.byte	0
 5345 12b8 00       		.byte	0
 5346 12b9 00       		.byte	0
 5347 12ba 00       		.byte	0
 5348 12bb 00       		.byte	0
 5349 12bc 00       		.byte	0
 5350 12bd 03       		.byte	3
 5351 12be 16       		.byte	22
 5352 12bf 00       		.byte	0
 5353 12c0 00       		.byte	0
 5354 12c1 00       		.byte	0
 5355 12c2 00       		.byte	0
 5356 12c3 00       		.byte	0
 5357 12c4 00       		.byte	0
 5358 12c5 00       		.byte	0
 5359 12c6 00       		.byte	0
 5360 12c7 00       		.byte	0
 5361 12c8 00       		.byte	0
 5362 12c9 00       		.byte	0
 5363 12ca 00       		.byte	0
 5364 12cb 00       		.byte	0
 5365 12cc 00       		.byte	0
 5366 12cd 00       		.byte	0
 5367 12ce 00       		.byte	0
 5368 12cf 00       		.byte	0
 5369 12d0 00       		.byte	0
 5370 12d1 00       		.byte	0
 5371 12d2 00       		.byte	0
 5372 12d3 00       		.byte	0
 5373 12d4 08       		.byte	8
 5374 12d5 01       		.byte	1
 5375 12d6 06       		.byte	6
 5376 12d7 02       		.byte	2
 5377 12d8 00       		.byte	0
ARM GAS  C:\Users\Bruger\AppData\Local\Temp\ccj0lDyf.s 			page 121


 5378 12d9 00       		.byte	0
 5379 12da 00       		.byte	0
 5380 12db 00       		.byte	0
 5381 12dc 60       		.byte	96
 5382 12dd 04       		.byte	4
 5383 12de 01       		.byte	1
 5384 12df 80       		.byte	-128
 5385 12e0 00       		.byte	0
 5386 12e1 00       		.byte	0
 5387 12e2 00       		.byte	0
 5388 12e3 00       		.byte	0
 5389 12e4 00       		.byte	0
 5390 12e5 00       		.byte	0
 5391 12e6 00       		.byte	0
 5392 12e7 00       		.byte	0
 5393 12e8 00       		.byte	0
 5394 12e9 00       		.byte	0
 5395 12ea 00       		.byte	0
 5396 12eb 00       		.byte	0
 5397              		.align	2
 5398              		.type	BS_UDB_1_1_HV_ROUTING_VAL.4953, %object
 5399              		.size	BS_UDB_1_1_HV_ROUTING_VAL.4953, 128
 5400              	BS_UDB_1_1_HV_ROUTING_VAL.4953:
 5401 12ec 00       		.byte	0
 5402 12ed 40       		.byte	64
 5403 12ee 08       		.byte	8
 5404 12ef 00       		.byte	0
 5405 12f0 44       		.byte	68
 5406 12f1 10       		.byte	16
 5407 12f2 00       		.byte	0
 5408 12f3 08       		.byte	8
 5409 12f4 00       		.byte	0
 5410 12f5 00       		.byte	0
 5411 12f6 02       		.byte	2
 5412 12f7 08       		.byte	8
 5413 12f8 20       		.byte	32
 5414 12f9 00       		.byte	0
 5415 12fa 40       		.byte	64
 5416 12fb 20       		.byte	32
 5417 12fc 08       		.byte	8
 5418 12fd 80       		.byte	-128
 5419 12fe 02       		.byte	2
 5420 12ff 00       		.byte	0
 5421 1300 03       		.byte	3
 5422 1301 40       		.byte	64
 5423 1302 00       		.byte	0
 5424 1303 00       		.byte	0
 5425 1304 04       		.byte	4
 5426 1305 01       		.byte	1
 5427 1306 20       		.byte	32
 5428 1307 02       		.byte	2
 5429 1308 00       		.byte	0
 5430 1309 30       		.byte	48
 5431 130a 02       		.byte	2
 5432 130b 01       		.byte	1
 5433 130c 09       		.byte	9
 5434 130d 21       		.byte	33
ARM GAS  C:\Users\Bruger\AppData\Local\Temp\ccj0lDyf.s 			page 122


 5435 130e 0C       		.byte	12
 5436 130f 00       		.byte	0
 5437 1310 02       		.byte	2
 5438 1311 40       		.byte	64
 5439 1312 20       		.byte	32
 5440 1313 01       		.byte	1
 5441 1314 04       		.byte	4
 5442 1315 80       		.byte	-128
 5443 1316 0E       		.byte	14
 5444 1317 00       		.byte	0
 5445 1318 02       		.byte	2
 5446 1319 01       		.byte	1
 5447 131a 00       		.byte	0
 5448 131b 04       		.byte	4
 5449 131c 00       		.byte	0
 5450 131d 00       		.byte	0
 5451 131e 00       		.byte	0
 5452 131f 06       		.byte	6
 5453 1320 00       		.byte	0
 5454 1321 14       		.byte	20
 5455 1322 08       		.byte	8
 5456 1323 08       		.byte	8
 5457 1324 00       		.byte	0
 5458 1325 00       		.byte	0
 5459 1326 00       		.byte	0
 5460 1327 00       		.byte	0
 5461 1328 00       		.byte	0
 5462 1329 00       		.byte	0
 5463 132a 00       		.byte	0
 5464 132b 00       		.byte	0
 5465 132c FC       		.byte	-4
 5466 132d 00       		.byte	0
 5467 132e E7       		.byte	-25
 5468 132f 00       		.byte	0
 5469 1330 F2       		.byte	-14
 5470 1331 00       		.byte	0
 5471 1332 00       		.byte	0
 5472 1333 00       		.byte	0
 5473 1334 00       		.byte	0
 5474 1335 00       		.byte	0
 5475 1336 E8       		.byte	-24
 5476 1337 00       		.byte	0
 5477 1338 F0       		.byte	-16
 5478 1339 00       		.byte	0
 5479 133a 90       		.byte	-112
 5480 133b 00       		.byte	0
 5481 133c 81       		.byte	-127
 5482 133d 00       		.byte	0
 5483 133e 24       		.byte	36
 5484 133f 00       		.byte	0
 5485 1340 00       		.byte	0
 5486 1341 00       		.byte	0
 5487 1342 70       		.byte	112
 5488 1343 00       		.byte	0
 5489 1344 70       		.byte	112
 5490 1345 00       		.byte	0
 5491 1346 00       		.byte	0
ARM GAS  C:\Users\Bruger\AppData\Local\Temp\ccj0lDyf.s 			page 123


 5492 1347 00       		.byte	0
 5493 1348 00       		.byte	0
 5494 1349 00       		.byte	0
 5495 134a 00       		.byte	0
 5496 134b 00       		.byte	0
 5497 134c 24       		.byte	36
 5498 134d 00       		.byte	0
 5499 134e 50       		.byte	80
 5500 134f 00       		.byte	0
 5501 1350 D0       		.byte	-48
 5502 1351 00       		.byte	0
 5503 1352 00       		.byte	0
 5504 1353 00       		.byte	0
 5505 1354 10       		.byte	16
 5506 1355 00       		.byte	0
 5507 1356 40       		.byte	64
 5508 1357 00       		.byte	0
 5509 1358 40       		.byte	64
 5510 1359 00       		.byte	0
 5511 135a A0       		.byte	-96
 5512 135b 00       		.byte	0
 5513 135c 00       		.byte	0
 5514 135d 00       		.byte	0
 5515 135e 00       		.byte	0
 5516 135f 00       		.byte	0
 5517 1360 00       		.byte	0
 5518 1361 00       		.byte	0
 5519 1362 00       		.byte	0
 5520 1363 00       		.byte	0
 5521 1364 00       		.byte	0
 5522 1365 00       		.byte	0
 5523 1366 00       		.byte	0
 5524 1367 00       		.byte	0
 5525 1368 00       		.byte	0
 5526 1369 00       		.byte	0
 5527 136a 00       		.byte	0
 5528 136b 00       		.byte	0
 5529              		.align	2
 5530              		.type	BS_UDBSWITCH_0_1_VAL.4952, %object
 5531              		.size	BS_UDBSWITCH_0_1_VAL.4952, 128
 5532              	BS_UDBSWITCH_0_1_VAL.4952:
 5533 136c 06       		.byte	6
 5534 136d 00       		.byte	0
 5535 136e 00       		.byte	0
 5536 136f 00       		.byte	0
 5537 1370 00       		.byte	0
 5538 1371 01       		.byte	1
 5539 1372 28       		.byte	40
 5540 1373 02       		.byte	2
 5541 1374 04       		.byte	4
 5542 1375 20       		.byte	32
 5543 1376 02       		.byte	2
 5544 1377 00       		.byte	0
 5545 1378 00       		.byte	0
 5546 1379 40       		.byte	64
 5547 137a 29       		.byte	41
 5548 137b 00       		.byte	0
ARM GAS  C:\Users\Bruger\AppData\Local\Temp\ccj0lDyf.s 			page 124


 5549 137c 08       		.byte	8
 5550 137d 00       		.byte	0
 5551 137e 00       		.byte	0
 5552 137f 00       		.byte	0
 5553 1380 10       		.byte	16
 5554 1381 20       		.byte	32
 5555 1382 40       		.byte	64
 5556 1383 41       		.byte	65
 5557 1384 24       		.byte	36
 5558 1385 10       		.byte	16
 5559 1386 00       		.byte	0
 5560 1387 01       		.byte	1
 5561 1388 40       		.byte	64
 5562 1389 02       		.byte	2
 5563 138a 20       		.byte	32
 5564 138b A0       		.byte	-96
 5565 138c 08       		.byte	8
 5566 138d 00       		.byte	0
 5567 138e 00       		.byte	0
 5568 138f 00       		.byte	0
 5569 1390 01       		.byte	1
 5570 1391 40       		.byte	64
 5571 1392 22       		.byte	34
 5572 1393 20       		.byte	32
 5573 1394 00       		.byte	0
 5574 1395 80       		.byte	-128
 5575 1396 00       		.byte	0
 5576 1397 00       		.byte	0
 5577 1398 20       		.byte	32
 5578 1399 00       		.byte	0
 5579 139a 00       		.byte	0
 5580 139b 88       		.byte	-120
 5581 139c 00       		.byte	0
 5582 139d 00       		.byte	0
 5583 139e 00       		.byte	0
 5584 139f 00       		.byte	0
 5585 13a0 02       		.byte	2
 5586 13a1 00       		.byte	0
 5587 13a2 88       		.byte	-120
 5588 13a3 20       		.byte	32
 5589 13a4 00       		.byte	0
 5590 13a5 00       		.byte	0
 5591 13a6 00       		.byte	0
 5592 13a7 00       		.byte	0
 5593 13a8 00       		.byte	0
 5594 13a9 02       		.byte	2
 5595 13aa 00       		.byte	0
 5596 13ab 40       		.byte	64
 5597 13ac 00       		.byte	0
 5598 13ad 02       		.byte	2
 5599 13ae 00       		.byte	0
 5600 13af 00       		.byte	0
 5601 13b0 20       		.byte	32
 5602 13b1 02       		.byte	2
 5603 13b2 00       		.byte	0
 5604 13b3 08       		.byte	8
 5605 13b4 00       		.byte	0
ARM GAS  C:\Users\Bruger\AppData\Local\Temp\ccj0lDyf.s 			page 125


 5606 13b5 00       		.byte	0
 5607 13b6 00       		.byte	0
 5608 13b7 10       		.byte	16
 5609 13b8 04       		.byte	4
 5610 13b9 00       		.byte	0
 5611 13ba 00       		.byte	0
 5612 13bb 10       		.byte	16
 5613 13bc 00       		.byte	0
 5614 13bd 00       		.byte	0
 5615 13be 00       		.byte	0
 5616 13bf 00       		.byte	0
 5617 13c0 00       		.byte	0
 5618 13c1 00       		.byte	0
 5619 13c2 00       		.byte	0
 5620 13c3 00       		.byte	0
 5621 13c4 00       		.byte	0
 5622 13c5 00       		.byte	0
 5623 13c6 00       		.byte	0
 5624 13c7 00       		.byte	0
 5625 13c8 20       		.byte	32
 5626 13c9 00       		.byte	0
 5627 13ca 40       		.byte	64
 5628 13cb 08       		.byte	8
 5629 13cc 00       		.byte	0
 5630 13cd 00       		.byte	0
 5631 13ce 00       		.byte	0
 5632 13cf 00       		.byte	0
 5633 13d0 12       		.byte	18
 5634 13d1 20       		.byte	32
 5635 13d2 00       		.byte	0
 5636 13d3 00       		.byte	0
 5637 13d4 00       		.byte	0
 5638 13d5 00       		.byte	0
 5639 13d6 00       		.byte	0
 5640 13d7 00       		.byte	0
 5641 13d8 00       		.byte	0
 5642 13d9 00       		.byte	0
 5643 13da 00       		.byte	0
 5644 13db 00       		.byte	0
 5645 13dc 00       		.byte	0
 5646 13dd 00       		.byte	0
 5647 13de 00       		.byte	0
 5648 13df 40       		.byte	64
 5649 13e0 00       		.byte	0
 5650 13e1 00       		.byte	0
 5651 13e2 00       		.byte	0
 5652 13e3 40       		.byte	64
 5653 13e4 00       		.byte	0
 5654 13e5 00       		.byte	0
 5655 13e6 00       		.byte	0
 5656 13e7 00       		.byte	0
 5657 13e8 00       		.byte	0
 5658 13e9 00       		.byte	0
 5659 13ea 00       		.byte	0
 5660 13eb 00       		.byte	0
 5661              		.align	2
 5662              		.type	BS_UDB_2_0_HV_ROUTING_VAL.4951, %object
ARM GAS  C:\Users\Bruger\AppData\Local\Temp\ccj0lDyf.s 			page 126


 5663              		.size	BS_UDB_2_0_HV_ROUTING_VAL.4951, 128
 5664              	BS_UDB_2_0_HV_ROUTING_VAL.4951:
 5665 13ec 11       		.byte	17
 5666 13ed 40       		.byte	64
 5667 13ee 00       		.byte	0
 5668 13ef 20       		.byte	32
 5669 13f0 08       		.byte	8
 5670 13f1 00       		.byte	0
 5671 13f2 0E       		.byte	14
 5672 13f3 00       		.byte	0
 5673 13f4 24       		.byte	36
 5674 13f5 00       		.byte	0
 5675 13f6 00       		.byte	0
 5676 13f7 61       		.byte	97
 5677 13f8 11       		.byte	17
 5678 13f9 01       		.byte	1
 5679 13fa 00       		.byte	0
 5680 13fb 00       		.byte	0
 5681 13fc 00       		.byte	0
 5682 13fd 20       		.byte	32
 5683 13fe 00       		.byte	0
 5684 13ff 00       		.byte	0
 5685 1400 00       		.byte	0
 5686 1401 84       		.byte	-124
 5687 1402 00       		.byte	0
 5688 1403 09       		.byte	9
 5689 1404 00       		.byte	0
 5690 1405 01       		.byte	1
 5691 1406 40       		.byte	64
 5692 1407 00       		.byte	0
 5693 1408 00       		.byte	0
 5694 1409 00       		.byte	0
 5695 140a 21       		.byte	33
 5696 140b 01       		.byte	1
 5697 140c 00       		.byte	0
 5698 140d 00       		.byte	0
 5699 140e 20       		.byte	32
 5700 140f 00       		.byte	0
 5701 1410 00       		.byte	0
 5702 1411 00       		.byte	0
 5703 1412 00       		.byte	0
 5704 1413 00       		.byte	0
 5705 1414 00       		.byte	0
 5706 1415 00       		.byte	0
 5707 1416 00       		.byte	0
 5708 1417 00       		.byte	0
 5709 1418 00       		.byte	0
 5710 1419 00       		.byte	0
 5711 141a 00       		.byte	0
 5712 141b 00       		.byte	0
 5713 141c 00       		.byte	0
 5714 141d 00       		.byte	0
 5715 141e 04       		.byte	4
 5716 141f 00       		.byte	0
 5717 1420 00       		.byte	0
 5718 1421 00       		.byte	0
 5719 1422 C0       		.byte	-64
ARM GAS  C:\Users\Bruger\AppData\Local\Temp\ccj0lDyf.s 			page 127


 5720 1423 00       		.byte	0
 5721 1424 00       		.byte	0
 5722 1425 00       		.byte	0
 5723 1426 00       		.byte	0
 5724 1427 00       		.byte	0
 5725 1428 00       		.byte	0
 5726 1429 00       		.byte	0
 5727 142a 00       		.byte	0
 5728 142b 00       		.byte	0
 5729 142c 0F       		.byte	15
 5730 142d 00       		.byte	0
 5731 142e 0B       		.byte	11
 5732 142f 00       		.byte	0
 5733 1430 0E       		.byte	14
 5734 1431 00       		.byte	0
 5735 1432 00       		.byte	0
 5736 1433 00       		.byte	0
 5737 1434 00       		.byte	0
 5738 1435 00       		.byte	0
 5739 1436 1F       		.byte	31
 5740 1437 00       		.byte	0
 5741 1438 0D       		.byte	13
 5742 1439 00       		.byte	0
 5743 143a 27       		.byte	39
 5744 143b 00       		.byte	0
 5745 143c B4       		.byte	-76
 5746 143d 00       		.byte	0
 5747 143e 30       		.byte	48
 5748 143f 00       		.byte	0
 5749 1440 00       		.byte	0
 5750 1441 00       		.byte	0
 5751 1442 12       		.byte	18
 5752 1443 00       		.byte	0
 5753 1444 10       		.byte	16
 5754 1445 00       		.byte	0
 5755 1446 00       		.byte	0
 5756 1447 00       		.byte	0
 5757 1448 00       		.byte	0
 5758 1449 00       		.byte	0
 5759 144a 00       		.byte	0
 5760 144b 00       		.byte	0
 5761 144c 07       		.byte	7
 5762 144d 00       		.byte	0
 5763 144e 00       		.byte	0
 5764 144f 00       		.byte	0
 5765 1450 0A       		.byte	10
 5766 1451 00       		.byte	0
 5767 1452 04       		.byte	4
 5768 1453 00       		.byte	0
 5769 1454 10       		.byte	16
 5770 1455 00       		.byte	0
 5771 1456 01       		.byte	1
 5772 1457 00       		.byte	0
 5773 1458 00       		.byte	0
 5774 1459 00       		.byte	0
 5775 145a 42       		.byte	66
 5776 145b 00       		.byte	0
ARM GAS  C:\Users\Bruger\AppData\Local\Temp\ccj0lDyf.s 			page 128


 5777 145c 00       		.byte	0
 5778 145d 00       		.byte	0
 5779 145e 00       		.byte	0
 5780 145f 00       		.byte	0
 5781 1460 00       		.byte	0
 5782 1461 00       		.byte	0
 5783 1462 00       		.byte	0
 5784 1463 00       		.byte	0
 5785 1464 00       		.byte	0
 5786 1465 00       		.byte	0
 5787 1466 00       		.byte	0
 5788 1467 00       		.byte	0
 5789 1468 00       		.byte	0
 5790 1469 00       		.byte	0
 5791 146a 00       		.byte	0
 5792 146b 00       		.byte	0
 5793              		.align	2
 5794              		.type	BS_UDBSWITCH_1_0_VAL.4950, %object
 5795              		.size	BS_UDBSWITCH_1_0_VAL.4950, 128
 5796              	BS_UDBSWITCH_1_0_VAL.4950:
 5797 146c 11       		.byte	17
 5798 146d 40       		.byte	64
 5799 146e 00       		.byte	0
 5800 146f 20       		.byte	32
 5801 1470 00       		.byte	0
 5802 1471 00       		.byte	0
 5803 1472 00       		.byte	0
 5804 1473 00       		.byte	0
 5805 1474 40       		.byte	64
 5806 1475 00       		.byte	0
 5807 1476 04       		.byte	4
 5808 1477 40       		.byte	64
 5809 1478 00       		.byte	0
 5810 1479 00       		.byte	0
 5811 147a 00       		.byte	0
 5812 147b 00       		.byte	0
 5813 147c 24       		.byte	36
 5814 147d 00       		.byte	0
 5815 147e 00       		.byte	0
 5816 147f 02       		.byte	2
 5817 1480 80       		.byte	-128
 5818 1481 00       		.byte	0
 5819 1482 60       		.byte	96
 5820 1483 08       		.byte	8
 5821 1484 00       		.byte	0
 5822 1485 08       		.byte	8
 5823 1486 00       		.byte	0
 5824 1487 12       		.byte	18
 5825 1488 00       		.byte	0
 5826 1489 00       		.byte	0
 5827 148a 00       		.byte	0
 5828 148b 00       		.byte	0
 5829 148c 00       		.byte	0
 5830 148d C0       		.byte	-64
 5831 148e 06       		.byte	6
 5832 148f 40       		.byte	64
 5833 1490 00       		.byte	0
ARM GAS  C:\Users\Bruger\AppData\Local\Temp\ccj0lDyf.s 			page 129


 5834 1491 00       		.byte	0
 5835 1492 00       		.byte	0
 5836 1493 08       		.byte	8
 5837 1494 44       		.byte	68
 5838 1495 09       		.byte	9
 5839 1496 08       		.byte	8
 5840 1497 01       		.byte	1
 5841 1498 00       		.byte	0
 5842 1499 00       		.byte	0
 5843 149a 00       		.byte	0
 5844 149b 02       		.byte	2
 5845 149c 80       		.byte	-128
 5846 149d 00       		.byte	0
 5847 149e 22       		.byte	34
 5848 149f 00       		.byte	0
 5849 14a0 00       		.byte	0
 5850 14a1 00       		.byte	0
 5851 14a2 00       		.byte	0
 5852 14a3 00       		.byte	0
 5853 14a4 2A       		.byte	42
 5854 14a5 00       		.byte	0
 5855 14a6 00       		.byte	0
 5856 14a7 00       		.byte	0
 5857 14a8 20       		.byte	32
 5858 14a9 00       		.byte	0
 5859 14aa 00       		.byte	0
 5860 14ab 00       		.byte	0
 5861 14ac 00       		.byte	0
 5862 14ad 10       		.byte	16
 5863 14ae 00       		.byte	0
 5864 14af 00       		.byte	0
 5865 14b0 40       		.byte	64
 5866 14b1 80       		.byte	-128
 5867 14b2 08       		.byte	8
 5868 14b3 00       		.byte	0
 5869 14b4 00       		.byte	0
 5870 14b5 00       		.byte	0
 5871 14b6 00       		.byte	0
 5872 14b7 08       		.byte	8
 5873 14b8 01       		.byte	1
 5874 14b9 04       		.byte	4
 5875 14ba 00       		.byte	0
 5876 14bb 20       		.byte	32
 5877 14bc 00       		.byte	0
 5878 14bd 00       		.byte	0
 5879 14be 01       		.byte	1
 5880 14bf 00       		.byte	0
 5881 14c0 10       		.byte	16
 5882 14c1 00       		.byte	0
 5883 14c2 00       		.byte	0
 5884 14c3 00       		.byte	0
 5885 14c4 00       		.byte	0
 5886 14c5 00       		.byte	0
 5887 14c6 08       		.byte	8
 5888 14c7 00       		.byte	0
 5889 14c8 80       		.byte	-128
 5890 14c9 00       		.byte	0
ARM GAS  C:\Users\Bruger\AppData\Local\Temp\ccj0lDyf.s 			page 130


 5891 14ca 00       		.byte	0
 5892 14cb 00       		.byte	0
 5893 14cc 00       		.byte	0
 5894 14cd 00       		.byte	0
 5895 14ce 00       		.byte	0
 5896 14cf 00       		.byte	0
 5897 14d0 00       		.byte	0
 5898 14d1 00       		.byte	0
 5899 14d2 00       		.byte	0
 5900 14d3 01       		.byte	1
 5901 14d4 28       		.byte	40
 5902 14d5 00       		.byte	0
 5903 14d6 00       		.byte	0
 5904 14d7 02       		.byte	2
 5905 14d8 00       		.byte	0
 5906 14d9 00       		.byte	0
 5907 14da 00       		.byte	0
 5908 14db 01       		.byte	1
 5909 14dc 94       		.byte	-108
 5910 14dd 00       		.byte	0
 5911 14de 02       		.byte	2
 5912 14df 20       		.byte	32
 5913 14e0 00       		.byte	0
 5914 14e1 00       		.byte	0
 5915 14e2 00       		.byte	0
 5916 14e3 00       		.byte	0
 5917 14e4 00       		.byte	0
 5918 14e5 00       		.byte	0
 5919 14e6 00       		.byte	0
 5920 14e7 00       		.byte	0
 5921 14e8 00       		.byte	0
 5922 14e9 00       		.byte	0
 5923 14ea 00       		.byte	0
 5924 14eb 00       		.byte	0
 5925              		.align	2
 5926              		.type	BS_UDB_1_0_HV_ROUTING_VAL.4949, %object
 5927              		.size	BS_UDB_1_0_HV_ROUTING_VAL.4949, 128
 5928              	BS_UDB_1_0_HV_ROUTING_VAL.4949:
 5929 14ec 01       		.byte	1
 5930 14ed 00       		.byte	0
 5931 14ee 00       		.byte	0
 5932 14ef 30       		.byte	48
 5933 14f0 60       		.byte	96
 5934 14f1 00       		.byte	0
 5935 14f2 00       		.byte	0
 5936 14f3 40       		.byte	64
 5937 14f4 80       		.byte	-128
 5938 14f5 80       		.byte	-128
 5939 14f6 10       		.byte	16
 5940 14f7 01       		.byte	1
 5941 14f8 24       		.byte	36
 5942 14f9 40       		.byte	64
 5943 14fa 00       		.byte	0
 5944 14fb 28       		.byte	40
 5945 14fc 40       		.byte	64
 5946 14fd 00       		.byte	0
 5947 14fe 01       		.byte	1
ARM GAS  C:\Users\Bruger\AppData\Local\Temp\ccj0lDyf.s 			page 131


 5948 14ff 10       		.byte	16
 5949 1500 00       		.byte	0
 5950 1501 00       		.byte	0
 5951 1502 00       		.byte	0
 5952 1503 00       		.byte	0
 5953 1504 20       		.byte	32
 5954 1505 00       		.byte	0
 5955 1506 28       		.byte	40
 5956 1507 00       		.byte	0
 5957 1508 00       		.byte	0
 5958 1509 80       		.byte	-128
 5959 150a 42       		.byte	66
 5960 150b 00       		.byte	0
 5961 150c 40       		.byte	64
 5962 150d 02       		.byte	2
 5963 150e 00       		.byte	0
 5964 150f 00       		.byte	0
 5965 1510 02       		.byte	2
 5966 1511 00       		.byte	0
 5967 1512 80       		.byte	-128
 5968 1513 00       		.byte	0
 5969 1514 00       		.byte	0
 5970 1515 00       		.byte	0
 5971 1516 00       		.byte	0
 5972 1517 00       		.byte	0
 5973 1518 00       		.byte	0
 5974 1519 00       		.byte	0
 5975 151a 00       		.byte	0
 5976 151b 00       		.byte	0
 5977 151c 00       		.byte	0
 5978 151d 00       		.byte	0
 5979 151e 00       		.byte	0
 5980 151f 00       		.byte	0
 5981 1520 11       		.byte	17
 5982 1521 00       		.byte	0
 5983 1522 00       		.byte	0
 5984 1523 00       		.byte	0
 5985 1524 00       		.byte	0
 5986 1525 00       		.byte	0
 5987 1526 00       		.byte	0
 5988 1527 00       		.byte	0
 5989 1528 00       		.byte	0
 5990 1529 00       		.byte	0
 5991 152a 00       		.byte	0
 5992 152b 00       		.byte	0
 5993 152c F0       		.byte	-16
 5994 152d 00       		.byte	0
 5995 152e F1       		.byte	-15
 5996 152f 00       		.byte	0
 5997 1530 78       		.byte	120
 5998 1531 00       		.byte	0
 5999 1532 00       		.byte	0
 6000 1533 00       		.byte	0
 6001 1534 00       		.byte	0
 6002 1535 00       		.byte	0
 6003 1536 78       		.byte	120
 6004 1537 00       		.byte	0
ARM GAS  C:\Users\Bruger\AppData\Local\Temp\ccj0lDyf.s 			page 132


 6005 1538 E9       		.byte	-23
 6006 1539 00       		.byte	0
 6007 153a D0       		.byte	-48
 6008 153b 00       		.byte	0
 6009 153c 81       		.byte	-127
 6010 153d 00       		.byte	0
 6011 153e 24       		.byte	36
 6012 153f 00       		.byte	0
 6013 1540 00       		.byte	0
 6014 1541 00       		.byte	0
 6015 1542 1E       		.byte	30
 6016 1543 00       		.byte	0
 6017 1544 16       		.byte	22
 6018 1545 00       		.byte	0
 6019 1546 00       		.byte	0
 6020 1547 00       		.byte	0
 6021 1548 00       		.byte	0
 6022 1549 00       		.byte	0
 6023 154a 00       		.byte	0
 6024 154b 00       		.byte	0
 6025 154c 20       		.byte	32
 6026 154d 00       		.byte	0
 6027 154e 90       		.byte	-112
 6028 154f 00       		.byte	0
 6029 1550 60       		.byte	96
 6030 1551 00       		.byte	0
 6031 1552 90       		.byte	-112
 6032 1553 00       		.byte	0
 6033 1554 90       		.byte	-112
 6034 1555 00       		.byte	0
 6035 1556 41       		.byte	65
 6036 1557 00       		.byte	0
 6037 1558 00       		.byte	0
 6038 1559 00       		.byte	0
 6039 155a 02       		.byte	2
 6040 155b 00       		.byte	0
 6041 155c 00       		.byte	0
 6042 155d 00       		.byte	0
 6043 155e 00       		.byte	0
 6044 155f 00       		.byte	0
 6045 1560 00       		.byte	0
 6046 1561 00       		.byte	0
 6047 1562 00       		.byte	0
 6048 1563 00       		.byte	0
 6049 1564 00       		.byte	0
 6050 1565 00       		.byte	0
 6051 1566 00       		.byte	0
 6052 1567 00       		.byte	0
 6053 1568 00       		.byte	0
 6054 1569 00       		.byte	0
 6055 156a 00       		.byte	0
 6056 156b 00       		.byte	0
 6057              		.align	2
 6058              		.type	BS_UDBSWITCH_0_0_VAL.4948, %object
 6059              		.size	BS_UDBSWITCH_0_0_VAL.4948, 128
 6060              	BS_UDBSWITCH_0_0_VAL.4948:
 6061 156c 00       		.byte	0
ARM GAS  C:\Users\Bruger\AppData\Local\Temp\ccj0lDyf.s 			page 133


 6062 156d 00       		.byte	0
 6063 156e 00       		.byte	0
 6064 156f 00       		.byte	0
 6065 1570 01       		.byte	1
 6066 1571 80       		.byte	-128
 6067 1572 00       		.byte	0
 6068 1573 28       		.byte	40
 6069 1574 00       		.byte	0
 6070 1575 80       		.byte	-128
 6071 1576 00       		.byte	0
 6072 1577 00       		.byte	0
 6073 1578 40       		.byte	64
 6074 1579 00       		.byte	0
 6075 157a 24       		.byte	36
 6076 157b 40       		.byte	64
 6077 157c 80       		.byte	-128
 6078 157d 00       		.byte	0
 6079 157e 00       		.byte	0
 6080 157f 00       		.byte	0
 6081 1580 80       		.byte	-128
 6082 1581 00       		.byte	0
 6083 1582 00       		.byte	0
 6084 1583 14       		.byte	20
 6085 1584 00       		.byte	0
 6086 1585 40       		.byte	64
 6087 1586 00       		.byte	0
 6088 1587 00       		.byte	0
 6089 1588 00       		.byte	0
 6090 1589 00       		.byte	0
 6091 158a 24       		.byte	36
 6092 158b 21       		.byte	33
 6093 158c 00       		.byte	0
 6094 158d 80       		.byte	-128
 6095 158e 05       		.byte	5
 6096 158f 00       		.byte	0
 6097 1590 08       		.byte	8
 6098 1591 00       		.byte	0
 6099 1592 80       		.byte	-128
 6100 1593 24       		.byte	36
 6101 1594 00       		.byte	0
 6102 1595 00       		.byte	0
 6103 1596 80       		.byte	-128
 6104 1597 00       		.byte	0
 6105 1598 20       		.byte	32
 6106 1599 80       		.byte	-128
 6107 159a 20       		.byte	32
 6108 159b 00       		.byte	0
 6109 159c 80       		.byte	-128
 6110 159d 00       		.byte	0
 6111 159e 01       		.byte	1
 6112 159f 00       		.byte	0
 6113 15a0 00       		.byte	0
 6114 15a1 00       		.byte	0
 6115 15a2 00       		.byte	0
 6116 15a3 25       		.byte	37
 6117 15a4 00       		.byte	0
 6118 15a5 00       		.byte	0
ARM GAS  C:\Users\Bruger\AppData\Local\Temp\ccj0lDyf.s 			page 134


 6119 15a6 02       		.byte	2
 6120 15a7 02       		.byte	2
 6121 15a8 80       		.byte	-128
 6122 15a9 00       		.byte	0
 6123 15aa 09       		.byte	9
 6124 15ab 00       		.byte	0
 6125 15ac 40       		.byte	64
 6126 15ad 00       		.byte	0
 6127 15ae 00       		.byte	0
 6128 15af 00       		.byte	0
 6129 15b0 00       		.byte	0
 6130 15b1 02       		.byte	2
 6131 15b2 00       		.byte	0
 6132 15b3 00       		.byte	0
 6133 15b4 00       		.byte	0
 6134 15b5 00       		.byte	0
 6135 15b6 00       		.byte	0
 6136 15b7 10       		.byte	16
 6137 15b8 80       		.byte	-128
 6138 15b9 00       		.byte	0
 6139 15ba 10       		.byte	16
 6140 15bb 10       		.byte	16
 6141 15bc 00       		.byte	0
 6142 15bd 00       		.byte	0
 6143 15be 00       		.byte	0
 6144 15bf 00       		.byte	0
 6145 15c0 00       		.byte	0
 6146 15c1 00       		.byte	0
 6147 15c2 80       		.byte	-128
 6148 15c3 14       		.byte	20
 6149 15c4 00       		.byte	0
 6150 15c5 40       		.byte	64
 6151 15c6 28       		.byte	40
 6152 15c7 00       		.byte	0
 6153 15c8 00       		.byte	0
 6154 15c9 40       		.byte	64
 6155 15ca 00       		.byte	0
 6156 15cb 00       		.byte	0
 6157 15cc 00       		.byte	0
 6158 15cd 00       		.byte	0
 6159 15ce 00       		.byte	0
 6160 15cf 28       		.byte	40
 6161 15d0 00       		.byte	0
 6162 15d1 00       		.byte	0
 6163 15d2 40       		.byte	64
 6164 15d3 00       		.byte	0
 6165 15d4 00       		.byte	0
 6166 15d5 00       		.byte	0
 6167 15d6 00       		.byte	0
 6168 15d7 00       		.byte	0
 6169 15d8 02       		.byte	2
 6170 15d9 00       		.byte	0
 6171 15da 00       		.byte	0
 6172 15db 00       		.byte	0
 6173 15dc 00       		.byte	0
 6174 15dd 00       		.byte	0
 6175 15de 00       		.byte	0
ARM GAS  C:\Users\Bruger\AppData\Local\Temp\ccj0lDyf.s 			page 135


 6176 15df 00       		.byte	0
 6177 15e0 00       		.byte	0
 6178 15e1 00       		.byte	0
 6179 15e2 00       		.byte	0
 6180 15e3 00       		.byte	0
 6181 15e4 00       		.byte	0
 6182 15e5 00       		.byte	0
 6183 15e6 00       		.byte	0
 6184 15e7 00       		.byte	0
 6185 15e8 00       		.byte	0
 6186 15e9 00       		.byte	0
 6187 15ea 00       		.byte	0
 6188 15eb 00       		.byte	0
 6189              		.align	2
 6190              		.type	BS_DSI0_5_HV_ROUTING_VAL.4947, %object
 6191              		.size	BS_DSI0_5_HV_ROUTING_VAL.4947, 128
 6192              	BS_DSI0_5_HV_ROUTING_VAL.4947:
 6193 15ec 00       		.byte	0
 6194 15ed 00       		.byte	0
 6195 15ee 00       		.byte	0
 6196 15ef 00       		.byte	0
 6197 15f0 00       		.byte	0
 6198 15f1 00       		.byte	0
 6199 15f2 00       		.byte	0
 6200 15f3 00       		.byte	0
 6201 15f4 00       		.byte	0
 6202 15f5 00       		.byte	0
 6203 15f6 00       		.byte	0
 6204 15f7 00       		.byte	0
 6205 15f8 00       		.byte	0
 6206 15f9 00       		.byte	0
 6207 15fa 01       		.byte	1
 6208 15fb 00       		.byte	0
 6209 15fc 00       		.byte	0
 6210 15fd 00       		.byte	0
 6211 15fe 00       		.byte	0
 6212 15ff 00       		.byte	0
 6213 1600 00       		.byte	0
 6214 1601 00       		.byte	0
 6215 1602 00       		.byte	0
 6216 1603 00       		.byte	0
 6217 1604 00       		.byte	0
 6218 1605 00       		.byte	0
 6219 1606 00       		.byte	0
 6220 1607 00       		.byte	0
 6221 1608 00       		.byte	0
 6222 1609 00       		.byte	0
 6223 160a 00       		.byte	0
 6224 160b 00       		.byte	0
 6225 160c 00       		.byte	0
 6226 160d 00       		.byte	0
 6227 160e 00       		.byte	0
 6228 160f 00       		.byte	0
 6229 1610 00       		.byte	0
 6230 1611 00       		.byte	0
 6231 1612 00       		.byte	0
 6232 1613 00       		.byte	0
ARM GAS  C:\Users\Bruger\AppData\Local\Temp\ccj0lDyf.s 			page 136


 6233 1614 00       		.byte	0
 6234 1615 00       		.byte	0
 6235 1616 00       		.byte	0
 6236 1617 00       		.byte	0
 6237 1618 00       		.byte	0
 6238 1619 00       		.byte	0
 6239 161a 00       		.byte	0
 6240 161b 00       		.byte	0
 6241 161c 00       		.byte	0
 6242 161d 00       		.byte	0
 6243 161e 00       		.byte	0
 6244 161f 00       		.byte	0
 6245 1620 00       		.byte	0
 6246 1621 00       		.byte	0
 6247 1622 00       		.byte	0
 6248 1623 00       		.byte	0
 6249 1624 00       		.byte	0
 6250 1625 00       		.byte	0
 6251 1626 00       		.byte	0
 6252 1627 00       		.byte	0
 6253 1628 00       		.byte	0
 6254 1629 00       		.byte	0
 6255 162a 00       		.byte	0
 6256 162b 00       		.byte	0
 6257 162c 00       		.byte	0
 6258 162d 00       		.byte	0
 6259 162e 00       		.byte	0
 6260 162f 00       		.byte	0
 6261 1630 00       		.byte	0
 6262 1631 00       		.byte	0
 6263 1632 00       		.byte	0
 6264 1633 00       		.byte	0
 6265 1634 00       		.byte	0
 6266 1635 00       		.byte	0
 6267 1636 00       		.byte	0
 6268 1637 00       		.byte	0
 6269 1638 00       		.byte	0
 6270 1639 00       		.byte	0
 6271 163a 00       		.byte	0
 6272 163b 00       		.byte	0
 6273 163c 00       		.byte	0
 6274 163d 00       		.byte	0
 6275 163e 00       		.byte	0
 6276 163f 00       		.byte	0
 6277 1640 00       		.byte	0
 6278 1641 00       		.byte	0
 6279 1642 00       		.byte	0
 6280 1643 00       		.byte	0
 6281 1644 00       		.byte	0
 6282 1645 00       		.byte	0
 6283 1646 00       		.byte	0
 6284 1647 00       		.byte	0
 6285 1648 00       		.byte	0
 6286 1649 00       		.byte	0
 6287 164a 00       		.byte	0
 6288 164b 00       		.byte	0
 6289 164c 00       		.byte	0
ARM GAS  C:\Users\Bruger\AppData\Local\Temp\ccj0lDyf.s 			page 137


 6290 164d 00       		.byte	0
 6291 164e 00       		.byte	0
 6292 164f 00       		.byte	0
 6293 1650 02       		.byte	2
 6294 1651 00       		.byte	0
 6295 1652 00       		.byte	0
 6296 1653 00       		.byte	0
 6297 1654 00       		.byte	0
 6298 1655 00       		.byte	0
 6299 1656 00       		.byte	0
 6300 1657 00       		.byte	0
 6301 1658 00       		.byte	0
 6302 1659 00       		.byte	0
 6303 165a 00       		.byte	0
 6304 165b 00       		.byte	0
 6305 165c 00       		.byte	0
 6306 165d 00       		.byte	0
 6307 165e 00       		.byte	0
 6308 165f 00       		.byte	0
 6309 1660 00       		.byte	0
 6310 1661 00       		.byte	0
 6311 1662 00       		.byte	0
 6312 1663 00       		.byte	0
 6313 1664 00       		.byte	0
 6314 1665 00       		.byte	0
 6315 1666 00       		.byte	0
 6316 1667 00       		.byte	0
 6317 1668 00       		.byte	0
 6318 1669 00       		.byte	0
 6319 166a 00       		.byte	0
 6320 166b 00       		.byte	0
 6321              		.align	2
 6322              		.type	BS_DSI0_4_HV_ROUTING_VAL.4946, %object
 6323              		.size	BS_DSI0_4_HV_ROUTING_VAL.4946, 128
 6324              	BS_DSI0_4_HV_ROUTING_VAL.4946:
 6325 166c 00       		.byte	0
 6326 166d 00       		.byte	0
 6327 166e 00       		.byte	0
 6328 166f 00       		.byte	0
 6329 1670 00       		.byte	0
 6330 1671 00       		.byte	0
 6331 1672 01       		.byte	1
 6332 1673 00       		.byte	0
 6333 1674 00       		.byte	0
 6334 1675 00       		.byte	0
 6335 1676 00       		.byte	0
 6336 1677 00       		.byte	0
 6337 1678 00       		.byte	0
 6338 1679 00       		.byte	0
 6339 167a 00       		.byte	0
 6340 167b 00       		.byte	0
 6341 167c 00       		.byte	0
 6342 167d 00       		.byte	0
 6343 167e 00       		.byte	0
 6344 167f 00       		.byte	0
 6345 1680 00       		.byte	0
 6346 1681 00       		.byte	0
ARM GAS  C:\Users\Bruger\AppData\Local\Temp\ccj0lDyf.s 			page 138


 6347 1682 00       		.byte	0
 6348 1683 00       		.byte	0
 6349 1684 00       		.byte	0
 6350 1685 00       		.byte	0
 6351 1686 01       		.byte	1
 6352 1687 00       		.byte	0
 6353 1688 00       		.byte	0
 6354 1689 00       		.byte	0
 6355 168a 00       		.byte	0
 6356 168b 00       		.byte	0
 6357 168c 00       		.byte	0
 6358 168d 00       		.byte	0
 6359 168e 00       		.byte	0
 6360 168f 00       		.byte	0
 6361 1690 00       		.byte	0
 6362 1691 00       		.byte	0
 6363 1692 00       		.byte	0
 6364 1693 00       		.byte	0
 6365 1694 00       		.byte	0
 6366 1695 00       		.byte	0
 6367 1696 00       		.byte	0
 6368 1697 00       		.byte	0
 6369 1698 00       		.byte	0
 6370 1699 00       		.byte	0
 6371 169a 00       		.byte	0
 6372 169b 00       		.byte	0
 6373 169c 00       		.byte	0
 6374 169d 00       		.byte	0
 6375 169e 00       		.byte	0
 6376 169f 00       		.byte	0
 6377 16a0 00       		.byte	0
 6378 16a1 00       		.byte	0
 6379 16a2 00       		.byte	0
 6380 16a3 00       		.byte	0
 6381 16a4 00       		.byte	0
 6382 16a5 00       		.byte	0
 6383 16a6 00       		.byte	0
 6384 16a7 00       		.byte	0
 6385 16a8 00       		.byte	0
 6386 16a9 00       		.byte	0
 6387 16aa 00       		.byte	0
 6388 16ab 00       		.byte	0
 6389 16ac 08       		.byte	8
 6390 16ad 00       		.byte	0
 6391 16ae 00       		.byte	0
 6392 16af 00       		.byte	0
 6393 16b0 00       		.byte	0
 6394 16b1 00       		.byte	0
 6395 16b2 00       		.byte	0
 6396 16b3 00       		.byte	0
 6397 16b4 00       		.byte	0
 6398 16b5 00       		.byte	0
 6399 16b6 00       		.byte	0
 6400 16b7 00       		.byte	0
 6401 16b8 00       		.byte	0
 6402 16b9 00       		.byte	0
 6403 16ba 00       		.byte	0
ARM GAS  C:\Users\Bruger\AppData\Local\Temp\ccj0lDyf.s 			page 139


 6404 16bb 00       		.byte	0
 6405 16bc 00       		.byte	0
 6406 16bd 00       		.byte	0
 6407 16be 00       		.byte	0
 6408 16bf 00       		.byte	0
 6409 16c0 02       		.byte	2
 6410 16c1 00       		.byte	0
 6411 16c2 02       		.byte	2
 6412 16c3 00       		.byte	0
 6413 16c4 01       		.byte	1
 6414 16c5 00       		.byte	0
 6415 16c6 00       		.byte	0
 6416 16c7 00       		.byte	0
 6417 16c8 00       		.byte	0
 6418 16c9 00       		.byte	0
 6419 16ca 00       		.byte	0
 6420 16cb 00       		.byte	0
 6421 16cc 00       		.byte	0
 6422 16cd 00       		.byte	0
 6423 16ce 00       		.byte	0
 6424 16cf 00       		.byte	0
 6425 16d0 00       		.byte	0
 6426 16d1 00       		.byte	0
 6427 16d2 00       		.byte	0
 6428 16d3 00       		.byte	0
 6429 16d4 00       		.byte	0
 6430 16d5 00       		.byte	0
 6431 16d6 00       		.byte	0
 6432 16d7 00       		.byte	0
 6433 16d8 00       		.byte	0
 6434 16d9 00       		.byte	0
 6435 16da 00       		.byte	0
 6436 16db 00       		.byte	0
 6437 16dc 00       		.byte	0
 6438 16dd 00       		.byte	0
 6439 16de 00       		.byte	0
 6440 16df 00       		.byte	0
 6441 16e0 00       		.byte	0
 6442 16e1 00       		.byte	0
 6443 16e2 00       		.byte	0
 6444 16e3 00       		.byte	0
 6445 16e4 00       		.byte	0
 6446 16e5 00       		.byte	0
 6447 16e6 00       		.byte	0
 6448 16e7 00       		.byte	0
 6449 16e8 00       		.byte	0
 6450 16e9 00       		.byte	0
 6451 16ea 00       		.byte	0
 6452 16eb 00       		.byte	0
 6453              		.align	2
 6454              		.type	BS_DSISWITCH_0_4_VAL.4945, %object
 6455              		.size	BS_DSISWITCH_0_4_VAL.4945, 128
 6456              	BS_DSISWITCH_0_4_VAL.4945:
 6457 16ec 00       		.byte	0
 6458 16ed 08       		.byte	8
 6459 16ee 00       		.byte	0
 6460 16ef 00       		.byte	0
ARM GAS  C:\Users\Bruger\AppData\Local\Temp\ccj0lDyf.s 			page 140


 6461 16f0 00       		.byte	0
 6462 16f1 00       		.byte	0
 6463 16f2 00       		.byte	0
 6464 16f3 00       		.byte	0
 6465 16f4 00       		.byte	0
 6466 16f5 00       		.byte	0
 6467 16f6 00       		.byte	0
 6468 16f7 00       		.byte	0
 6469 16f8 00       		.byte	0
 6470 16f9 00       		.byte	0
 6471 16fa 00       		.byte	0
 6472 16fb 00       		.byte	0
 6473 16fc 00       		.byte	0
 6474 16fd 00       		.byte	0
 6475 16fe 00       		.byte	0
 6476 16ff 00       		.byte	0
 6477 1700 00       		.byte	0
 6478 1701 00       		.byte	0
 6479 1702 00       		.byte	0
 6480 1703 00       		.byte	0
 6481 1704 00       		.byte	0
 6482 1705 00       		.byte	0
 6483 1706 00       		.byte	0
 6484 1707 00       		.byte	0
 6485 1708 00       		.byte	0
 6486 1709 00       		.byte	0
 6487 170a 00       		.byte	0
 6488 170b 00       		.byte	0
 6489 170c 00       		.byte	0
 6490 170d 00       		.byte	0
 6491 170e 00       		.byte	0
 6492 170f 00       		.byte	0
 6493 1710 00       		.byte	0
 6494 1711 00       		.byte	0
 6495 1712 00       		.byte	0
 6496 1713 00       		.byte	0
 6497 1714 00       		.byte	0
 6498 1715 00       		.byte	0
 6499 1716 00       		.byte	0
 6500 1717 00       		.byte	0
 6501 1718 00       		.byte	0
 6502 1719 00       		.byte	0
 6503 171a 00       		.byte	0
 6504 171b 00       		.byte	0
 6505 171c 00       		.byte	0
 6506 171d 00       		.byte	0
 6507 171e 00       		.byte	0
 6508 171f 00       		.byte	0
 6509 1720 00       		.byte	0
 6510 1721 00       		.byte	0
 6511 1722 00       		.byte	0
 6512 1723 00       		.byte	0
 6513 1724 00       		.byte	0
 6514 1725 00       		.byte	0
 6515 1726 00       		.byte	0
 6516 1727 00       		.byte	0
 6517 1728 00       		.byte	0
ARM GAS  C:\Users\Bruger\AppData\Local\Temp\ccj0lDyf.s 			page 141


 6518 1729 00       		.byte	0
 6519 172a 00       		.byte	0
 6520 172b 00       		.byte	0
 6521 172c 00       		.byte	0
 6522 172d 00       		.byte	0
 6523 172e 00       		.byte	0
 6524 172f 00       		.byte	0
 6525 1730 00       		.byte	0
 6526 1731 00       		.byte	0
 6527 1732 00       		.byte	0
 6528 1733 00       		.byte	0
 6529 1734 00       		.byte	0
 6530 1735 00       		.byte	0
 6531 1736 00       		.byte	0
 6532 1737 00       		.byte	0
 6533 1738 00       		.byte	0
 6534 1739 00       		.byte	0
 6535 173a 00       		.byte	0
 6536 173b 00       		.byte	0
 6537 173c 00       		.byte	0
 6538 173d 00       		.byte	0
 6539 173e 00       		.byte	0
 6540 173f 00       		.byte	0
 6541 1740 40       		.byte	64
 6542 1741 00       		.byte	0
 6543 1742 00       		.byte	0
 6544 1743 00       		.byte	0
 6545 1744 00       		.byte	0
 6546 1745 00       		.byte	0
 6547 1746 01       		.byte	1
 6548 1747 00       		.byte	0
 6549 1748 00       		.byte	0
 6550 1749 00       		.byte	0
 6551 174a 00       		.byte	0
 6552 174b 00       		.byte	0
 6553 174c 00       		.byte	0
 6554 174d 00       		.byte	0
 6555 174e 00       		.byte	0
 6556 174f 00       		.byte	0
 6557 1750 00       		.byte	0
 6558 1751 00       		.byte	0
 6559 1752 01       		.byte	1
 6560 1753 00       		.byte	0
 6561 1754 00       		.byte	0
 6562 1755 00       		.byte	0
 6563 1756 00       		.byte	0
 6564 1757 00       		.byte	0
 6565 1758 00       		.byte	0
 6566 1759 00       		.byte	0
 6567 175a 00       		.byte	0
 6568 175b 00       		.byte	0
 6569 175c 00       		.byte	0
 6570 175d 00       		.byte	0
 6571 175e 00       		.byte	0
 6572 175f 00       		.byte	0
 6573 1760 00       		.byte	0
 6574 1761 00       		.byte	0
ARM GAS  C:\Users\Bruger\AppData\Local\Temp\ccj0lDyf.s 			page 142


 6575 1762 00       		.byte	0
 6576 1763 00       		.byte	0
 6577 1764 00       		.byte	0
 6578 1765 00       		.byte	0
 6579 1766 00       		.byte	0
 6580 1767 00       		.byte	0
 6581 1768 00       		.byte	0
 6582 1769 00       		.byte	0
 6583 176a 00       		.byte	0
 6584 176b 00       		.byte	0
 6585              		.align	2
 6586              		.type	BS_DSI0_3_HV_ROUTING_VAL.4944, %object
 6587              		.size	BS_DSI0_3_HV_ROUTING_VAL.4944, 128
 6588              	BS_DSI0_3_HV_ROUTING_VAL.4944:
 6589 176c 40       		.byte	64
 6590 176d 00       		.byte	0
 6591 176e 00       		.byte	0
 6592 176f 00       		.byte	0
 6593 1770 00       		.byte	0
 6594 1771 00       		.byte	0
 6595 1772 00       		.byte	0
 6596 1773 00       		.byte	0
 6597 1774 00       		.byte	0
 6598 1775 00       		.byte	0
 6599 1776 00       		.byte	0
 6600 1777 00       		.byte	0
 6601 1778 00       		.byte	0
 6602 1779 00       		.byte	0
 6603 177a 40       		.byte	64
 6604 177b 00       		.byte	0
 6605 177c 00       		.byte	0
 6606 177d 00       		.byte	0
 6607 177e 00       		.byte	0
 6608 177f 00       		.byte	0
 6609 1780 00       		.byte	0
 6610 1781 00       		.byte	0
 6611 1782 10       		.byte	16
 6612 1783 10       		.byte	16
 6613 1784 00       		.byte	0
 6614 1785 00       		.byte	0
 6615 1786 00       		.byte	0
 6616 1787 00       		.byte	0
 6617 1788 00       		.byte	0
 6618 1789 00       		.byte	0
 6619 178a 00       		.byte	0
 6620 178b 00       		.byte	0
 6621 178c 00       		.byte	0
 6622 178d 00       		.byte	0
 6623 178e 00       		.byte	0
 6624 178f 00       		.byte	0
 6625 1790 40       		.byte	64
 6626 1791 00       		.byte	0
 6627 1792 00       		.byte	0
 6628 1793 00       		.byte	0
 6629 1794 00       		.byte	0
 6630 1795 00       		.byte	0
 6631 1796 10       		.byte	16
ARM GAS  C:\Users\Bruger\AppData\Local\Temp\ccj0lDyf.s 			page 143


 6632 1797 00       		.byte	0
 6633 1798 00       		.byte	0
 6634 1799 00       		.byte	0
 6635 179a 00       		.byte	0
 6636 179b 10       		.byte	16
 6637 179c 00       		.byte	0
 6638 179d 00       		.byte	0
 6639 179e 00       		.byte	0
 6640 179f 00       		.byte	0
 6641 17a0 00       		.byte	0
 6642 17a1 08       		.byte	8
 6643 17a2 00       		.byte	0
 6644 17a3 00       		.byte	0
 6645 17a4 00       		.byte	0
 6646 17a5 00       		.byte	0
 6647 17a6 00       		.byte	0
 6648 17a7 00       		.byte	0
 6649 17a8 00       		.byte	0
 6650 17a9 00       		.byte	0
 6651 17aa 00       		.byte	0
 6652 17ab 00       		.byte	0
 6653 17ac 00       		.byte	0
 6654 17ad 00       		.byte	0
 6655 17ae 00       		.byte	0
 6656 17af 00       		.byte	0
 6657 17b0 00       		.byte	0
 6658 17b1 00       		.byte	0
 6659 17b2 08       		.byte	8
 6660 17b3 00       		.byte	0
 6661 17b4 00       		.byte	0
 6662 17b5 00       		.byte	0
 6663 17b6 00       		.byte	0
 6664 17b7 00       		.byte	0
 6665 17b8 00       		.byte	0
 6666 17b9 00       		.byte	0
 6667 17ba 00       		.byte	0
 6668 17bb 00       		.byte	0
 6669 17bc 00       		.byte	0
 6670 17bd 00       		.byte	0
 6671 17be 00       		.byte	0
 6672 17bf 00       		.byte	0
 6673 17c0 00       		.byte	0
 6674 17c1 00       		.byte	0
 6675 17c2 00       		.byte	0
 6676 17c3 00       		.byte	0
 6677 17c4 00       		.byte	0
 6678 17c5 00       		.byte	0
 6679 17c6 00       		.byte	0
 6680 17c7 00       		.byte	0
 6681 17c8 00       		.byte	0
 6682 17c9 00       		.byte	0
 6683 17ca 00       		.byte	0
 6684 17cb 00       		.byte	0
 6685 17cc 00       		.byte	0
 6686 17cd 00       		.byte	0
 6687 17ce 08       		.byte	8
 6688 17cf 00       		.byte	0
ARM GAS  C:\Users\Bruger\AppData\Local\Temp\ccj0lDyf.s 			page 144


 6689 17d0 00       		.byte	0
 6690 17d1 00       		.byte	0
 6691 17d2 00       		.byte	0
 6692 17d3 00       		.byte	0
 6693 17d4 00       		.byte	0
 6694 17d5 00       		.byte	0
 6695 17d6 02       		.byte	2
 6696 17d7 00       		.byte	0
 6697 17d8 00       		.byte	0
 6698 17d9 00       		.byte	0
 6699 17da 00       		.byte	0
 6700 17db 00       		.byte	0
 6701 17dc 00       		.byte	0
 6702 17dd 00       		.byte	0
 6703 17de 00       		.byte	0
 6704 17df 00       		.byte	0
 6705 17e0 00       		.byte	0
 6706 17e1 00       		.byte	0
 6707 17e2 00       		.byte	0
 6708 17e3 00       		.byte	0
 6709 17e4 00       		.byte	0
 6710 17e5 00       		.byte	0
 6711 17e6 00       		.byte	0
 6712 17e7 00       		.byte	0
 6713 17e8 00       		.byte	0
 6714 17e9 00       		.byte	0
 6715 17ea 00       		.byte	0
 6716 17eb 00       		.byte	0
 6717              		.align	2
 6718              		.type	BS_DSISWITCH_0_3_VAL.4943, %object
 6719              		.size	BS_DSISWITCH_0_3_VAL.4943, 128
 6720              	BS_DSISWITCH_0_3_VAL.4943:
 6721 17ec 00       		.byte	0
 6722 17ed 00       		.byte	0
 6723 17ee 00       		.byte	0
 6724 17ef 00       		.byte	0
 6725 17f0 00       		.byte	0
 6726 17f1 00       		.byte	0
 6727 17f2 00       		.byte	0
 6728 17f3 00       		.byte	0
 6729 17f4 00       		.byte	0
 6730 17f5 00       		.byte	0
 6731 17f6 00       		.byte	0
 6732 17f7 00       		.byte	0
 6733 17f8 00       		.byte	0
 6734 17f9 00       		.byte	0
 6735 17fa 00       		.byte	0
 6736 17fb 00       		.byte	0
 6737 17fc 00       		.byte	0
 6738 17fd 00       		.byte	0
 6739 17fe 00       		.byte	0
 6740 17ff 00       		.byte	0
 6741 1800 00       		.byte	0
 6742 1801 00       		.byte	0
 6743 1802 00       		.byte	0
 6744 1803 00       		.byte	0
 6745 1804 00       		.byte	0
ARM GAS  C:\Users\Bruger\AppData\Local\Temp\ccj0lDyf.s 			page 145


 6746 1805 00       		.byte	0
 6747 1806 80       		.byte	-128
 6748 1807 00       		.byte	0
 6749 1808 00       		.byte	0
 6750 1809 00       		.byte	0
 6751 180a 00       		.byte	0
 6752 180b 00       		.byte	0
 6753 180c 00       		.byte	0
 6754 180d 00       		.byte	0
 6755 180e 00       		.byte	0
 6756 180f 00       		.byte	0
 6757 1810 00       		.byte	0
 6758 1811 00       		.byte	0
 6759 1812 00       		.byte	0
 6760 1813 00       		.byte	0
 6761 1814 00       		.byte	0
 6762 1815 00       		.byte	0
 6763 1816 00       		.byte	0
 6764 1817 00       		.byte	0
 6765 1818 00       		.byte	0
 6766 1819 00       		.byte	0
 6767 181a 00       		.byte	0
 6768 181b 00       		.byte	0
 6769 181c 00       		.byte	0
 6770 181d 00       		.byte	0
 6771 181e 00       		.byte	0
 6772 181f 00       		.byte	0
 6773 1820 00       		.byte	0
 6774 1821 00       		.byte	0
 6775 1822 00       		.byte	0
 6776 1823 00       		.byte	0
 6777 1824 00       		.byte	0
 6778 1825 00       		.byte	0
 6779 1826 00       		.byte	0
 6780 1827 00       		.byte	0
 6781 1828 00       		.byte	0
 6782 1829 00       		.byte	0
 6783 182a 00       		.byte	0
 6784 182b 00       		.byte	0
 6785 182c 00       		.byte	0
 6786 182d 00       		.byte	0
 6787 182e 00       		.byte	0
 6788 182f 00       		.byte	0
 6789 1830 00       		.byte	0
 6790 1831 00       		.byte	0
 6791 1832 00       		.byte	0
 6792 1833 00       		.byte	0
 6793 1834 00       		.byte	0
 6794 1835 00       		.byte	0
 6795 1836 00       		.byte	0
 6796 1837 00       		.byte	0
 6797 1838 00       		.byte	0
 6798 1839 00       		.byte	0
 6799 183a 00       		.byte	0
 6800 183b 00       		.byte	0
 6801 183c 00       		.byte	0
 6802 183d 00       		.byte	0
ARM GAS  C:\Users\Bruger\AppData\Local\Temp\ccj0lDyf.s 			page 146


 6803 183e 00       		.byte	0
 6804 183f 00       		.byte	0
 6805 1840 00       		.byte	0
 6806 1841 00       		.byte	0
 6807 1842 00       		.byte	0
 6808 1843 00       		.byte	0
 6809 1844 00       		.byte	0
 6810 1845 00       		.byte	0
 6811 1846 00       		.byte	0
 6812 1847 00       		.byte	0
 6813 1848 00       		.byte	0
 6814 1849 00       		.byte	0
 6815 184a 00       		.byte	0
 6816 184b 00       		.byte	0
 6817 184c 00       		.byte	0
 6818 184d 00       		.byte	0
 6819 184e 00       		.byte	0
 6820 184f 00       		.byte	0
 6821 1850 00       		.byte	0
 6822 1851 00       		.byte	0
 6823 1852 00       		.byte	0
 6824 1853 00       		.byte	0
 6825 1854 00       		.byte	0
 6826 1855 00       		.byte	0
 6827 1856 00       		.byte	0
 6828 1857 00       		.byte	0
 6829 1858 00       		.byte	0
 6830 1859 00       		.byte	0
 6831 185a 00       		.byte	0
 6832 185b 00       		.byte	0
 6833 185c 00       		.byte	0
 6834 185d 00       		.byte	0
 6835 185e 00       		.byte	0
 6836 185f 00       		.byte	0
 6837 1860 00       		.byte	0
 6838 1861 00       		.byte	0
 6839 1862 00       		.byte	0
 6840 1863 00       		.byte	0
 6841 1864 00       		.byte	0
 6842 1865 00       		.byte	0
 6843 1866 00       		.byte	0
 6844 1867 00       		.byte	0
 6845 1868 00       		.byte	0
 6846 1869 00       		.byte	0
 6847 186a 00       		.byte	0
 6848 186b 00       		.byte	0
 6849              		.align	2
 6850              		.type	BS_DSI0_2_HV_ROUTING_VAL.4942, %object
 6851              		.size	BS_DSI0_2_HV_ROUTING_VAL.4942, 128
 6852              	BS_DSI0_2_HV_ROUTING_VAL.4942:
 6853 186c 00       		.byte	0
 6854 186d 00       		.byte	0
 6855 186e 00       		.byte	0
 6856 186f 00       		.byte	0
 6857 1870 00       		.byte	0
 6858 1871 00       		.byte	0
 6859 1872 00       		.byte	0
ARM GAS  C:\Users\Bruger\AppData\Local\Temp\ccj0lDyf.s 			page 147


 6860 1873 00       		.byte	0
 6861 1874 00       		.byte	0
 6862 1875 00       		.byte	0
 6863 1876 00       		.byte	0
 6864 1877 00       		.byte	0
 6865 1878 00       		.byte	0
 6866 1879 00       		.byte	0
 6867 187a 00       		.byte	0
 6868 187b 00       		.byte	0
 6869 187c 40       		.byte	64
 6870 187d 00       		.byte	0
 6871 187e 00       		.byte	0
 6872 187f 00       		.byte	0
 6873 1880 00       		.byte	0
 6874 1881 00       		.byte	0
 6875 1882 10       		.byte	16
 6876 1883 10       		.byte	16
 6877 1884 00       		.byte	0
 6878 1885 00       		.byte	0
 6879 1886 00       		.byte	0
 6880 1887 00       		.byte	0
 6881 1888 80       		.byte	-128
 6882 1889 00       		.byte	0
 6883 188a 00       		.byte	0
 6884 188b 00       		.byte	0
 6885 188c 00       		.byte	0
 6886 188d 00       		.byte	0
 6887 188e 00       		.byte	0
 6888 188f 00       		.byte	0
 6889 1890 40       		.byte	64
 6890 1891 00       		.byte	0
 6891 1892 00       		.byte	0
 6892 1893 00       		.byte	0
 6893 1894 00       		.byte	0
 6894 1895 00       		.byte	0
 6895 1896 00       		.byte	0
 6896 1897 00       		.byte	0
 6897 1898 80       		.byte	-128
 6898 1899 00       		.byte	0
 6899 189a 00       		.byte	0
 6900 189b 00       		.byte	0
 6901 189c 00       		.byte	0
 6902 189d 00       		.byte	0
 6903 189e 00       		.byte	0
 6904 189f 00       		.byte	0
 6905 18a0 00       		.byte	0
 6906 18a1 00       		.byte	0
 6907 18a2 00       		.byte	0
 6908 18a3 00       		.byte	0
 6909 18a4 00       		.byte	0
 6910 18a5 00       		.byte	0
 6911 18a6 00       		.byte	0
 6912 18a7 00       		.byte	0
 6913 18a8 00       		.byte	0
 6914 18a9 00       		.byte	0
 6915 18aa 00       		.byte	0
 6916 18ab 00       		.byte	0
ARM GAS  C:\Users\Bruger\AppData\Local\Temp\ccj0lDyf.s 			page 148


 6917 18ac 00       		.byte	0
 6918 18ad 00       		.byte	0
 6919 18ae 0E       		.byte	14
 6920 18af 00       		.byte	0
 6921 18b0 00       		.byte	0
 6922 18b1 00       		.byte	0
 6923 18b2 00       		.byte	0
 6924 18b3 00       		.byte	0
 6925 18b4 00       		.byte	0
 6926 18b5 00       		.byte	0
 6927 18b6 00       		.byte	0
 6928 18b7 00       		.byte	0
 6929 18b8 00       		.byte	0
 6930 18b9 00       		.byte	0
 6931 18ba 00       		.byte	0
 6932 18bb 00       		.byte	0
 6933 18bc 04       		.byte	4
 6934 18bd 00       		.byte	0
 6935 18be 00       		.byte	0
 6936 18bf 00       		.byte	0
 6937 18c0 00       		.byte	0
 6938 18c1 00       		.byte	0
 6939 18c2 00       		.byte	0
 6940 18c3 00       		.byte	0
 6941 18c4 00       		.byte	0
 6942 18c5 00       		.byte	0
 6943 18c6 00       		.byte	0
 6944 18c7 00       		.byte	0
 6945 18c8 00       		.byte	0
 6946 18c9 00       		.byte	0
 6947 18ca 00       		.byte	0
 6948 18cb 00       		.byte	0
 6949 18cc 00       		.byte	0
 6950 18cd 00       		.byte	0
 6951 18ce 00       		.byte	0
 6952 18cf 00       		.byte	0
 6953 18d0 00       		.byte	0
 6954 18d1 00       		.byte	0
 6955 18d2 00       		.byte	0
 6956 18d3 00       		.byte	0
 6957 18d4 00       		.byte	0
 6958 18d5 00       		.byte	0
 6959 18d6 00       		.byte	0
 6960 18d7 00       		.byte	0
 6961 18d8 00       		.byte	0
 6962 18d9 00       		.byte	0
 6963 18da 00       		.byte	0
 6964 18db 00       		.byte	0
 6965 18dc 00       		.byte	0
 6966 18dd 00       		.byte	0
 6967 18de 00       		.byte	0
 6968 18df 00       		.byte	0
 6969 18e0 00       		.byte	0
 6970 18e1 00       		.byte	0
 6971 18e2 00       		.byte	0
 6972 18e3 00       		.byte	0
 6973 18e4 00       		.byte	0
ARM GAS  C:\Users\Bruger\AppData\Local\Temp\ccj0lDyf.s 			page 149


 6974 18e5 00       		.byte	0
 6975 18e6 00       		.byte	0
 6976 18e7 00       		.byte	0
 6977 18e8 00       		.byte	0
 6978 18e9 00       		.byte	0
 6979 18ea 00       		.byte	0
 6980 18eb 00       		.byte	0
 6981              		.align	2
 6982              		.type	BS_DSISWITCH_0_2_VAL.4941, %object
 6983              		.size	BS_DSISWITCH_0_2_VAL.4941, 128
 6984              	BS_DSISWITCH_0_2_VAL.4941:
 6985 18ec 00       		.byte	0
 6986 18ed 00       		.byte	0
 6987 18ee 00       		.byte	0
 6988 18ef 00       		.byte	0
 6989 18f0 00       		.byte	0
 6990 18f1 00       		.byte	0
 6991 18f2 00       		.byte	0
 6992 18f3 00       		.byte	0
 6993 18f4 80       		.byte	-128
 6994 18f5 00       		.byte	0
 6995 18f6 10       		.byte	16
 6996 18f7 00       		.byte	0
 6997 18f8 00       		.byte	0
 6998 18f9 00       		.byte	0
 6999 18fa 00       		.byte	0
 7000 18fb 10       		.byte	16
 7001 18fc 00       		.byte	0
 7002 18fd 00       		.byte	0
 7003 18fe 00       		.byte	0
 7004 18ff 00       		.byte	0
 7005 1900 00       		.byte	0
 7006 1901 00       		.byte	0
 7007 1902 00       		.byte	0
 7008 1903 00       		.byte	0
 7009 1904 00       		.byte	0
 7010 1905 00       		.byte	0
 7011 1906 00       		.byte	0
 7012 1907 00       		.byte	0
 7013 1908 00       		.byte	0
 7014 1909 00       		.byte	0
 7015 190a 00       		.byte	0
 7016 190b 00       		.byte	0
 7017 190c 00       		.byte	0
 7018 190d 00       		.byte	0
 7019 190e 00       		.byte	0
 7020 190f 00       		.byte	0
 7021 1910 00       		.byte	0
 7022 1911 00       		.byte	0
 7023 1912 00       		.byte	0
 7024 1913 00       		.byte	0
 7025 1914 00       		.byte	0
 7026 1915 00       		.byte	0
 7027 1916 00       		.byte	0
 7028 1917 00       		.byte	0
 7029 1918 00       		.byte	0
 7030 1919 00       		.byte	0
ARM GAS  C:\Users\Bruger\AppData\Local\Temp\ccj0lDyf.s 			page 150


 7031 191a 00       		.byte	0
 7032 191b 00       		.byte	0
 7033 191c 00       		.byte	0
 7034 191d 00       		.byte	0
 7035 191e 00       		.byte	0
 7036 191f 00       		.byte	0
 7037 1920 00       		.byte	0
 7038 1921 00       		.byte	0
 7039 1922 00       		.byte	0
 7040 1923 00       		.byte	0
 7041 1924 00       		.byte	0
 7042 1925 00       		.byte	0
 7043 1926 00       		.byte	0
 7044 1927 00       		.byte	0
 7045 1928 00       		.byte	0
 7046 1929 00       		.byte	0
 7047 192a 00       		.byte	0
 7048 192b 00       		.byte	0
 7049 192c 00       		.byte	0
 7050 192d 00       		.byte	0
 7051 192e 00       		.byte	0
 7052 192f 00       		.byte	0
 7053 1930 00       		.byte	0
 7054 1931 20       		.byte	32
 7055 1932 00       		.byte	0
 7056 1933 00       		.byte	0
 7057 1934 00       		.byte	0
 7058 1935 00       		.byte	0
 7059 1936 00       		.byte	0
 7060 1937 00       		.byte	0
 7061 1938 00       		.byte	0
 7062 1939 00       		.byte	0
 7063 193a 00       		.byte	0
 7064 193b 00       		.byte	0
 7065 193c 00       		.byte	0
 7066 193d 00       		.byte	0
 7067 193e 00       		.byte	0
 7068 193f 00       		.byte	0
 7069 1940 00       		.byte	0
 7070 1941 00       		.byte	0
 7071 1942 00       		.byte	0
 7072 1943 00       		.byte	0
 7073 1944 00       		.byte	0
 7074 1945 00       		.byte	0
 7075 1946 00       		.byte	0
 7076 1947 00       		.byte	0
 7077 1948 00       		.byte	0
 7078 1949 00       		.byte	0
 7079 194a 00       		.byte	0
 7080 194b 00       		.byte	0
 7081 194c 00       		.byte	0
 7082 194d 00       		.byte	0
 7083 194e 00       		.byte	0
 7084 194f 00       		.byte	0
 7085 1950 00       		.byte	0
 7086 1951 00       		.byte	0
 7087 1952 00       		.byte	0
ARM GAS  C:\Users\Bruger\AppData\Local\Temp\ccj0lDyf.s 			page 151


 7088 1953 00       		.byte	0
 7089 1954 00       		.byte	0
 7090 1955 00       		.byte	0
 7091 1956 00       		.byte	0
 7092 1957 00       		.byte	0
 7093 1958 00       		.byte	0
 7094 1959 00       		.byte	0
 7095 195a 00       		.byte	0
 7096 195b 00       		.byte	0
 7097 195c 00       		.byte	0
 7098 195d 00       		.byte	0
 7099 195e 00       		.byte	0
 7100 195f 00       		.byte	0
 7101 1960 00       		.byte	0
 7102 1961 00       		.byte	0
 7103 1962 00       		.byte	0
 7104 1963 00       		.byte	0
 7105 1964 00       		.byte	0
 7106 1965 00       		.byte	0
 7107 1966 00       		.byte	0
 7108 1967 00       		.byte	0
 7109 1968 00       		.byte	0
 7110 1969 00       		.byte	0
 7111 196a 00       		.byte	0
 7112 196b 00       		.byte	0
 7113              		.align	2
 7114              		.type	BS_DSI0_1_HV_ROUTING_VAL.4940, %object
 7115              		.size	BS_DSI0_1_HV_ROUTING_VAL.4940, 128
 7116              	BS_DSI0_1_HV_ROUTING_VAL.4940:
 7117 196c 00       		.byte	0
 7118 196d 20       		.byte	32
 7119 196e 00       		.byte	0
 7120 196f 00       		.byte	0
 7121 1970 00       		.byte	0
 7122 1971 00       		.byte	0
 7123 1972 00       		.byte	0
 7124 1973 00       		.byte	0
 7125 1974 40       		.byte	64
 7126 1975 04       		.byte	4
 7127 1976 00       		.byte	0
 7128 1977 00       		.byte	0
 7129 1978 00       		.byte	0
 7130 1979 01       		.byte	1
 7131 197a 00       		.byte	0
 7132 197b 00       		.byte	0
 7133 197c 40       		.byte	64
 7134 197d 00       		.byte	0
 7135 197e 00       		.byte	0
 7136 197f 00       		.byte	0
 7137 1980 00       		.byte	0
 7138 1981 00       		.byte	0
 7139 1982 00       		.byte	0
 7140 1983 00       		.byte	0
 7141 1984 00       		.byte	0
 7142 1985 00       		.byte	0
 7143 1986 00       		.byte	0
 7144 1987 00       		.byte	0
ARM GAS  C:\Users\Bruger\AppData\Local\Temp\ccj0lDyf.s 			page 152


 7145 1988 00       		.byte	0
 7146 1989 00       		.byte	0
 7147 198a 00       		.byte	0
 7148 198b 00       		.byte	0
 7149 198c 00       		.byte	0
 7150 198d 00       		.byte	0
 7151 198e 00       		.byte	0
 7152 198f 00       		.byte	0
 7153 1990 40       		.byte	64
 7154 1991 20       		.byte	32
 7155 1992 00       		.byte	0
 7156 1993 00       		.byte	0
 7157 1994 00       		.byte	0
 7158 1995 00       		.byte	0
 7159 1996 00       		.byte	0
 7160 1997 00       		.byte	0
 7161 1998 00       		.byte	0
 7162 1999 00       		.byte	0
 7163 199a 00       		.byte	0
 7164 199b 00       		.byte	0
 7165 199c 00       		.byte	0
 7166 199d 00       		.byte	0
 7167 199e 00       		.byte	0
 7168 199f 00       		.byte	0
 7169 19a0 00       		.byte	0
 7170 19a1 00       		.byte	0
 7171 19a2 00       		.byte	0
 7172 19a3 00       		.byte	0
 7173 19a4 00       		.byte	0
 7174 19a5 00       		.byte	0
 7175 19a6 00       		.byte	0
 7176 19a7 00       		.byte	0
 7177 19a8 00       		.byte	0
 7178 19a9 00       		.byte	0
 7179 19aa 00       		.byte	0
 7180 19ab 00       		.byte	0
 7181 19ac 00       		.byte	0
 7182 19ad 00       		.byte	0
 7183 19ae 01       		.byte	1
 7184 19af 00       		.byte	0
 7185 19b0 0E       		.byte	14
 7186 19b1 00       		.byte	0
 7187 19b2 00       		.byte	0
 7188 19b3 00       		.byte	0
 7189 19b4 00       		.byte	0
 7190 19b5 00       		.byte	0
 7191 19b6 00       		.byte	0
 7192 19b7 00       		.byte	0
 7193 19b8 00       		.byte	0
 7194 19b9 00       		.byte	0
 7195 19ba 00       		.byte	0
 7196 19bb 00       		.byte	0
 7197 19bc 00       		.byte	0
 7198 19bd 00       		.byte	0
 7199 19be 00       		.byte	0
 7200 19bf 00       		.byte	0
 7201 19c0 00       		.byte	0
ARM GAS  C:\Users\Bruger\AppData\Local\Temp\ccj0lDyf.s 			page 153


 7202 19c1 00       		.byte	0
 7203 19c2 00       		.byte	0
 7204 19c3 00       		.byte	0
 7205 19c4 03       		.byte	3
 7206 19c5 00       		.byte	0
 7207 19c6 00       		.byte	0
 7208 19c7 00       		.byte	0
 7209 19c8 00       		.byte	0
 7210 19c9 00       		.byte	0
 7211 19ca 03       		.byte	3
 7212 19cb 00       		.byte	0
 7213 19cc 00       		.byte	0
 7214 19cd 00       		.byte	0
 7215 19ce 08       		.byte	8
 7216 19cf 00       		.byte	0
 7217 19d0 05       		.byte	5
 7218 19d1 00       		.byte	0
 7219 19d2 00       		.byte	0
 7220 19d3 00       		.byte	0
 7221 19d4 00       		.byte	0
 7222 19d5 00       		.byte	0
 7223 19d6 00       		.byte	0
 7224 19d7 00       		.byte	0
 7225 19d8 00       		.byte	0
 7226 19d9 00       		.byte	0
 7227 19da 00       		.byte	0
 7228 19db 00       		.byte	0
 7229 19dc 00       		.byte	0
 7230 19dd 00       		.byte	0
 7231 19de 00       		.byte	0
 7232 19df 00       		.byte	0
 7233 19e0 00       		.byte	0
 7234 19e1 00       		.byte	0
 7235 19e2 00       		.byte	0
 7236 19e3 00       		.byte	0
 7237 19e4 00       		.byte	0
 7238 19e5 00       		.byte	0
 7239 19e6 00       		.byte	0
 7240 19e7 00       		.byte	0
 7241 19e8 00       		.byte	0
 7242 19e9 00       		.byte	0
 7243 19ea 00       		.byte	0
 7244 19eb 00       		.byte	0
 7245              		.align	2
 7246              		.type	BS_DSISWITCH_0_1_VAL.4939, %object
 7247              		.size	BS_DSISWITCH_0_1_VAL.4939, 128
 7248              	BS_DSISWITCH_0_1_VAL.4939:
 7249 19ec 00       		.byte	0
 7250 19ed 00       		.byte	0
 7251 19ee 00       		.byte	0
 7252 19ef 00       		.byte	0
 7253 19f0 00       		.byte	0
 7254 19f1 00       		.byte	0
 7255 19f2 00       		.byte	0
 7256 19f3 00       		.byte	0
 7257 19f4 00       		.byte	0
 7258 19f5 00       		.byte	0
ARM GAS  C:\Users\Bruger\AppData\Local\Temp\ccj0lDyf.s 			page 154


 7259 19f6 00       		.byte	0
 7260 19f7 00       		.byte	0
 7261 19f8 00       		.byte	0
 7262 19f9 00       		.byte	0
 7263 19fa 08       		.byte	8
 7264 19fb 00       		.byte	0
 7265 19fc 00       		.byte	0
 7266 19fd 02       		.byte	2
 7267 19fe 00       		.byte	0
 7268 19ff 20       		.byte	32
 7269 1a00 80       		.byte	-128
 7270 1a01 00       		.byte	0
 7271 1a02 00       		.byte	0
 7272 1a03 00       		.byte	0
 7273 1a04 00       		.byte	0
 7274 1a05 00       		.byte	0
 7275 1a06 00       		.byte	0
 7276 1a07 00       		.byte	0
 7277 1a08 00       		.byte	0
 7278 1a09 00       		.byte	0
 7279 1a0a 00       		.byte	0
 7280 1a0b 00       		.byte	0
 7281 1a0c 00       		.byte	0
 7282 1a0d 00       		.byte	0
 7283 1a0e 00       		.byte	0
 7284 1a0f 00       		.byte	0
 7285 1a10 00       		.byte	0
 7286 1a11 00       		.byte	0
 7287 1a12 00       		.byte	0
 7288 1a13 00       		.byte	0
 7289 1a14 00       		.byte	0
 7290 1a15 00       		.byte	0
 7291 1a16 00       		.byte	0
 7292 1a17 00       		.byte	0
 7293 1a18 00       		.byte	0
 7294 1a19 00       		.byte	0
 7295 1a1a 00       		.byte	0
 7296 1a1b 00       		.byte	0
 7297 1a1c 00       		.byte	0
 7298 1a1d 00       		.byte	0
 7299 1a1e 00       		.byte	0
 7300 1a1f 00       		.byte	0
 7301 1a20 00       		.byte	0
 7302 1a21 00       		.byte	0
 7303 1a22 00       		.byte	0
 7304 1a23 00       		.byte	0
 7305 1a24 00       		.byte	0
 7306 1a25 00       		.byte	0
 7307 1a26 00       		.byte	0
 7308 1a27 00       		.byte	0
 7309 1a28 00       		.byte	0
 7310 1a29 00       		.byte	0
 7311 1a2a 00       		.byte	0
 7312 1a2b 00       		.byte	0
 7313 1a2c 00       		.byte	0
 7314 1a2d 00       		.byte	0
 7315 1a2e 00       		.byte	0
ARM GAS  C:\Users\Bruger\AppData\Local\Temp\ccj0lDyf.s 			page 155


 7316 1a2f 00       		.byte	0
 7317 1a30 00       		.byte	0
 7318 1a31 00       		.byte	0
 7319 1a32 00       		.byte	0
 7320 1a33 00       		.byte	0
 7321 1a34 00       		.byte	0
 7322 1a35 00       		.byte	0
 7323 1a36 00       		.byte	0
 7324 1a37 00       		.byte	0
 7325 1a38 00       		.byte	0
 7326 1a39 00       		.byte	0
 7327 1a3a 00       		.byte	0
 7328 1a3b 00       		.byte	0
 7329 1a3c 00       		.byte	0
 7330 1a3d 00       		.byte	0
 7331 1a3e 00       		.byte	0
 7332 1a3f 00       		.byte	0
 7333 1a40 00       		.byte	0
 7334 1a41 00       		.byte	0
 7335 1a42 00       		.byte	0
 7336 1a43 00       		.byte	0
 7337 1a44 00       		.byte	0
 7338 1a45 00       		.byte	0
 7339 1a46 00       		.byte	0
 7340 1a47 00       		.byte	0
 7341 1a48 00       		.byte	0
 7342 1a49 00       		.byte	0
 7343 1a4a 00       		.byte	0
 7344 1a4b 00       		.byte	0
 7345 1a4c 40       		.byte	64
 7346 1a4d 00       		.byte	0
 7347 1a4e 00       		.byte	0
 7348 1a4f 00       		.byte	0
 7349 1a50 00       		.byte	0
 7350 1a51 01       		.byte	1
 7351 1a52 00       		.byte	0
 7352 1a53 00       		.byte	0
 7353 1a54 00       		.byte	0
 7354 1a55 00       		.byte	0
 7355 1a56 00       		.byte	0
 7356 1a57 00       		.byte	0
 7357 1a58 00       		.byte	0
 7358 1a59 00       		.byte	0
 7359 1a5a 00       		.byte	0
 7360 1a5b 00       		.byte	0
 7361 1a5c 00       		.byte	0
 7362 1a5d 00       		.byte	0
 7363 1a5e 00       		.byte	0
 7364 1a5f 00       		.byte	0
 7365 1a60 00       		.byte	0
 7366 1a61 00       		.byte	0
 7367 1a62 00       		.byte	0
 7368 1a63 00       		.byte	0
 7369 1a64 00       		.byte	0
 7370 1a65 08       		.byte	8
 7371 1a66 00       		.byte	0
 7372 1a67 00       		.byte	0
ARM GAS  C:\Users\Bruger\AppData\Local\Temp\ccj0lDyf.s 			page 156


 7373 1a68 10       		.byte	16
 7374 1a69 00       		.byte	0
 7375 1a6a 00       		.byte	0
 7376 1a6b 00       		.byte	0
 7377              		.align	2
 7378              		.type	BS_DSI0_0_HV_ROUTING_VAL.4938, %object
 7379              		.size	BS_DSI0_0_HV_ROUTING_VAL.4938, 128
 7380              	BS_DSI0_0_HV_ROUTING_VAL.4938:
 7381 1a6c 00       		.byte	0
 7382 1a6d 00       		.byte	0
 7383 1a6e 00       		.byte	0
 7384 1a6f 00       		.byte	0
 7385 1a70 00       		.byte	0
 7386 1a71 00       		.byte	0
 7387 1a72 00       		.byte	0
 7388 1a73 00       		.byte	0
 7389 1a74 80       		.byte	-128
 7390 1a75 00       		.byte	0
 7391 1a76 00       		.byte	0
 7392 1a77 00       		.byte	0
 7393 1a78 00       		.byte	0
 7394 1a79 00       		.byte	0
 7395 1a7a 00       		.byte	0
 7396 1a7b 00       		.byte	0
 7397 1a7c 00       		.byte	0
 7398 1a7d 00       		.byte	0
 7399 1a7e 00       		.byte	0
 7400 1a7f 00       		.byte	0
 7401 1a80 00       		.byte	0
 7402 1a81 00       		.byte	0
 7403 1a82 00       		.byte	0
 7404 1a83 00       		.byte	0
 7405 1a84 00       		.byte	0
 7406 1a85 02       		.byte	2
 7407 1a86 00       		.byte	0
 7408 1a87 00       		.byte	0
 7409 1a88 00       		.byte	0
 7410 1a89 00       		.byte	0
 7411 1a8a 00       		.byte	0
 7412 1a8b 00       		.byte	0
 7413 1a8c 00       		.byte	0
 7414 1a8d 00       		.byte	0
 7415 1a8e 00       		.byte	0
 7416 1a8f 00       		.byte	0
 7417 1a90 00       		.byte	0
 7418 1a91 00       		.byte	0
 7419 1a92 00       		.byte	0
 7420 1a93 00       		.byte	0
 7421 1a94 00       		.byte	0
 7422 1a95 00       		.byte	0
 7423 1a96 00       		.byte	0
 7424 1a97 20       		.byte	32
 7425 1a98 80       		.byte	-128
 7426 1a99 00       		.byte	0
 7427 1a9a 00       		.byte	0
 7428 1a9b 00       		.byte	0
 7429 1a9c 00       		.byte	0
ARM GAS  C:\Users\Bruger\AppData\Local\Temp\ccj0lDyf.s 			page 157


 7430 1a9d 02       		.byte	2
 7431 1a9e 00       		.byte	0
 7432 1a9f 00       		.byte	0
 7433 1aa0 10       		.byte	16
 7434 1aa1 01       		.byte	1
 7435 1aa2 04       		.byte	4
 7436 1aa3 00       		.byte	0
 7437 1aa4 00       		.byte	0
 7438 1aa5 00       		.byte	0
 7439 1aa6 00       		.byte	0
 7440 1aa7 00       		.byte	0
 7441 1aa8 00       		.byte	0
 7442 1aa9 00       		.byte	0
 7443 1aaa 00       		.byte	0
 7444 1aab 00       		.byte	0
 7445 1aac 00       		.byte	0
 7446 1aad 00       		.byte	0
 7447 1aae 00       		.byte	0
 7448 1aaf 00       		.byte	0
 7449 1ab0 08       		.byte	8
 7450 1ab1 00       		.byte	0
 7451 1ab2 00       		.byte	0
 7452 1ab3 00       		.byte	0
 7453 1ab4 00       		.byte	0
 7454 1ab5 00       		.byte	0
 7455 1ab6 00       		.byte	0
 7456 1ab7 00       		.byte	0
 7457 1ab8 00       		.byte	0
 7458 1ab9 00       		.byte	0
 7459 1aba 00       		.byte	0
 7460 1abb 00       		.byte	0
 7461 1abc 00       		.byte	0
 7462 1abd 00       		.byte	0
 7463 1abe 00       		.byte	0
 7464 1abf 00       		.byte	0
 7465 1ac0 00       		.byte	0
 7466 1ac1 00       		.byte	0
 7467 1ac2 00       		.byte	0
 7468 1ac3 00       		.byte	0
 7469 1ac4 00       		.byte	0
 7470 1ac5 00       		.byte	0
 7471 1ac6 00       		.byte	0
 7472 1ac7 00       		.byte	0
 7473 1ac8 00       		.byte	0
 7474 1ac9 00       		.byte	0
 7475 1aca 04       		.byte	4
 7476 1acb 00       		.byte	0
 7477 1acc 00       		.byte	0
 7478 1acd 00       		.byte	0
 7479 1ace 00       		.byte	0
 7480 1acf 00       		.byte	0
 7481 1ad0 00       		.byte	0
 7482 1ad1 00       		.byte	0
 7483 1ad2 01       		.byte	1
 7484 1ad3 00       		.byte	0
 7485 1ad4 09       		.byte	9
 7486 1ad5 00       		.byte	0
ARM GAS  C:\Users\Bruger\AppData\Local\Temp\ccj0lDyf.s 			page 158


 7487 1ad6 02       		.byte	2
 7488 1ad7 00       		.byte	0
 7489 1ad8 02       		.byte	2
 7490 1ad9 00       		.byte	0
 7491 1ada 00       		.byte	0
 7492 1adb 00       		.byte	0
 7493 1adc 00       		.byte	0
 7494 1add 00       		.byte	0
 7495 1ade 00       		.byte	0
 7496 1adf 00       		.byte	0
 7497 1ae0 00       		.byte	0
 7498 1ae1 00       		.byte	0
 7499 1ae2 00       		.byte	0
 7500 1ae3 00       		.byte	0
 7501 1ae4 00       		.byte	0
 7502 1ae5 00       		.byte	0
 7503 1ae6 00       		.byte	0
 7504 1ae7 00       		.byte	0
 7505 1ae8 00       		.byte	0
 7506 1ae9 00       		.byte	0
 7507 1aea 00       		.byte	0
 7508 1aeb 00       		.byte	0
 7509              		.align	2
 7510              		.type	BS_DSISWITCH_0_0_VAL.4937, %object
 7511              		.size	BS_DSISWITCH_0_0_VAL.4937, 128
 7512              	BS_DSISWITCH_0_0_VAL.4937:
 7513 1aec 00       		.byte	0
 7514 1aed 00       		.byte	0
 7515 1aee 00       		.byte	0
 7516 1aef 00       		.byte	0
 7517 1af0 00       		.byte	0
 7518 1af1 00       		.byte	0
 7519 1af2 00       		.byte	0
 7520 1af3 00       		.byte	0
 7521 1af4 00       		.byte	0
 7522 1af5 00       		.byte	0
 7523 1af6 00       		.byte	0
 7524 1af7 00       		.byte	0
 7525 1af8 00       		.byte	0
 7526 1af9 00       		.byte	0
 7527 1afa 00       		.byte	0
 7528 1afb 00       		.byte	0
 7529 1afc 80       		.byte	-128
 7530 1afd 00       		.byte	0
 7531 1afe 00       		.byte	0
 7532 1aff 00       		.byte	0
 7533 1b00 00       		.byte	0
 7534 1b01 00       		.byte	0
 7535 1b02 00       		.byte	0
 7536 1b03 00       		.byte	0
 7537 1b04 00       		.byte	0
 7538 1b05 00       		.byte	0
 7539 1b06 00       		.byte	0
 7540 1b07 00       		.byte	0
 7541 1b08 00       		.byte	0
 7542 1b09 00       		.byte	0
 7543 1b0a 00       		.byte	0
ARM GAS  C:\Users\Bruger\AppData\Local\Temp\ccj0lDyf.s 			page 159


 7544 1b0b 00       		.byte	0
 7545 1b0c 00       		.byte	0
 7546 1b0d 00       		.byte	0
 7547 1b0e 00       		.byte	0
 7548 1b0f 00       		.byte	0
 7549 1b10 00       		.byte	0
 7550 1b11 00       		.byte	0
 7551 1b12 00       		.byte	0
 7552 1b13 00       		.byte	0
 7553 1b14 00       		.byte	0
 7554 1b15 00       		.byte	0
 7555 1b16 00       		.byte	0
 7556 1b17 00       		.byte	0
 7557 1b18 00       		.byte	0
 7558 1b19 00       		.byte	0
 7559 1b1a 00       		.byte	0
 7560 1b1b 00       		.byte	0
 7561 1b1c 00       		.byte	0
 7562 1b1d 00       		.byte	0
 7563 1b1e 00       		.byte	0
 7564 1b1f 00       		.byte	0
 7565 1b20 00       		.byte	0
 7566 1b21 00       		.byte	0
 7567 1b22 00       		.byte	0
 7568 1b23 00       		.byte	0
 7569 1b24 00       		.byte	0
 7570 1b25 00       		.byte	0
 7571 1b26 00       		.byte	0
 7572 1b27 00       		.byte	0
 7573 1b28 00       		.byte	0
 7574 1b29 00       		.byte	0
 7575 1b2a 00       		.byte	0
 7576 1b2b 00       		.byte	0
 7577 1b2c 00       		.byte	0
 7578 1b2d 00       		.byte	0
 7579 1b2e 00       		.byte	0
 7580 1b2f 00       		.byte	0
 7581 1b30 00       		.byte	0
 7582 1b31 00       		.byte	0
 7583 1b32 00       		.byte	0
 7584 1b33 00       		.byte	0
 7585 1b34 00       		.byte	0
 7586 1b35 00       		.byte	0
 7587 1b36 00       		.byte	0
 7588 1b37 00       		.byte	0
 7589 1b38 00       		.byte	0
 7590 1b39 00       		.byte	0
 7591 1b3a 00       		.byte	0
 7592 1b3b 00       		.byte	0
 7593 1b3c 00       		.byte	0
 7594 1b3d 00       		.byte	0
 7595 1b3e 00       		.byte	0
 7596 1b3f 00       		.byte	0
 7597 1b40 00       		.byte	0
 7598 1b41 00       		.byte	0
 7599 1b42 00       		.byte	0
 7600 1b43 00       		.byte	0
ARM GAS  C:\Users\Bruger\AppData\Local\Temp\ccj0lDyf.s 			page 160


 7601 1b44 00       		.byte	0
 7602 1b45 00       		.byte	0
 7603 1b46 00       		.byte	0
 7604 1b47 00       		.byte	0
 7605 1b48 00       		.byte	0
 7606 1b49 00       		.byte	0
 7607 1b4a 00       		.byte	0
 7608 1b4b 00       		.byte	0
 7609 1b4c 00       		.byte	0
 7610 1b4d 00       		.byte	0
 7611 1b4e 00       		.byte	0
 7612 1b4f 00       		.byte	0
 7613 1b50 00       		.byte	0
 7614 1b51 00       		.byte	0
 7615 1b52 00       		.byte	0
 7616 1b53 00       		.byte	0
 7617 1b54 00       		.byte	0
 7618 1b55 00       		.byte	0
 7619 1b56 00       		.byte	0
 7620 1b57 00       		.byte	0
 7621 1b58 00       		.byte	0
 7622 1b59 00       		.byte	0
 7623 1b5a 00       		.byte	0
 7624 1b5b 00       		.byte	0
 7625 1b5c 00       		.byte	0
 7626 1b5d 00       		.byte	0
 7627 1b5e 00       		.byte	0
 7628 1b5f 00       		.byte	0
 7629 1b60 00       		.byte	0
 7630 1b61 02       		.byte	2
 7631 1b62 00       		.byte	0
 7632 1b63 00       		.byte	0
 7633 1b64 00       		.byte	0
 7634 1b65 00       		.byte	0
 7635 1b66 00       		.byte	0
 7636 1b67 00       		.byte	0
 7637 1b68 00       		.byte	0
 7638 1b69 00       		.byte	0
 7639 1b6a 00       		.byte	0
 7640 1b6b 00       		.byte	0
 7641              		.align	2
 7642              		.type	BS_UCFG_BCTL0_VAL.4936, %object
 7643              		.size	BS_UCFG_BCTL0_VAL.4936, 16
 7644              	BS_UCFG_BCTL0_VAL.4936:
 7645 1b6c 27       		.byte	39
 7646 1b6d 01       		.byte	1
 7647 1b6e 00       		.byte	0
 7648 1b6f 00       		.byte	0
 7649 1b70 00       		.byte	0
 7650 1b71 00       		.byte	0
 7651 1b72 00       		.byte	0
 7652 1b73 00       		.byte	0
 7653 1b74 27       		.byte	39
 7654 1b75 00       		.byte	0
 7655 1b76 07       		.byte	7
 7656 1b77 01       		.byte	1
 7657 1b78 21       		.byte	33
ARM GAS  C:\Users\Bruger\AppData\Local\Temp\ccj0lDyf.s 			page 161


 7658 1b79 01       		.byte	1
 7659 1b7a 03       		.byte	3
 7660 1b7b 01       		.byte	1
 7661              		.align	2
 7662              		.type	BS_UCFG_BCTL1_VAL.4935, %object
 7663              		.size	BS_UCFG_BCTL1_VAL.4935, 16
 7664              	BS_UCFG_BCTL1_VAL.4935:
 7665 1b7c 27       		.byte	39
 7666 1b7d 01       		.byte	1
 7667 1b7e 00       		.byte	0
 7668 1b7f 00       		.byte	0
 7669 1b80 00       		.byte	0
 7670 1b81 00       		.byte	0
 7671 1b82 00       		.byte	0
 7672 1b83 00       		.byte	0
 7673 1b84 00       		.byte	0
 7674 1b85 00       		.byte	0
 7675 1b86 27       		.byte	39
 7676 1b87 01       		.byte	1
 7677 1b88 21       		.byte	33
 7678 1b89 01       		.byte	1
 7679 1b8a 00       		.byte	0
 7680 1b8b 00       		.byte	0
 7681              		.align	2
 7682              		.type	BS_UWRK_B1_WRK_STATCTL_BITS_VAL.4934, %object
 7683              		.size	BS_UWRK_B1_WRK_STATCTL_BITS_VAL.4934, 32
 7684              	BS_UWRK_B1_WRK_STATCTL_BITS_VAL.4934:
 7685 1b8c 00       		.byte	0
 7686 1b8d 00       		.byte	0
 7687 1b8e 00       		.byte	0
 7688 1b8f 00       		.byte	0
 7689 1b90 00       		.byte	0
 7690 1b91 00       		.byte	0
 7691 1b92 00       		.byte	0
 7692 1b93 00       		.byte	0
 7693 1b94 00       		.byte	0
 7694 1b95 00       		.byte	0
 7695 1b96 00       		.byte	0
 7696 1b97 01       		.byte	1
 7697 1b98 00       		.byte	0
 7698 1b99 00       		.byte	0
 7699 1b9a 00       		.byte	0
 7700 1b9b 00       		.byte	0
 7701 1b9c 00       		.byte	0
 7702 1b9d 00       		.byte	0
 7703 1b9e 00       		.byte	0
 7704 1b9f 00       		.byte	0
 7705 1ba0 72       		.byte	114
 7706 1ba1 00       		.byte	0
 7707 1ba2 00       		.byte	0
 7708 1ba3 00       		.byte	0
 7709 1ba4 00       		.byte	0
 7710 1ba5 00       		.byte	0
 7711 1ba6 67       		.byte	103
 7712 1ba7 00       		.byte	0
 7713 1ba8 00       		.byte	0
 7714 1ba9 00       		.byte	0
ARM GAS  C:\Users\Bruger\AppData\Local\Temp\ccj0lDyf.s 			page 162


 7715 1baa 00       		.byte	0
 7716 1bab 00       		.byte	0
 7717              		.align	2
 7718              		.type	BS_UWRK_B0_WRK_STATCTL_BITS_VAL.4933, %object
 7719              		.size	BS_UWRK_B0_WRK_STATCTL_BITS_VAL.4933, 32
 7720              	BS_UWRK_B0_WRK_STATCTL_BITS_VAL.4933:
 7721 1bac 00       		.byte	0
 7722 1bad 00       		.byte	0
 7723 1bae 00       		.byte	0
 7724 1baf 00       		.byte	0
 7725 1bb0 00       		.byte	0
 7726 1bb1 00       		.byte	0
 7727 1bb2 00       		.byte	0
 7728 1bb3 00       		.byte	0
 7729 1bb4 00       		.byte	0
 7730 1bb5 00       		.byte	0
 7731 1bb6 00       		.byte	0
 7732 1bb7 00       		.byte	0
 7733 1bb8 00       		.byte	0
 7734 1bb9 00       		.byte	0
 7735 1bba 00       		.byte	0
 7736 1bbb 00       		.byte	0
 7737 1bbc 00       		.byte	0
 7738 1bbd 67       		.byte	103
 7739 1bbe 00       		.byte	0
 7740 1bbf 00       		.byte	0
 7741 1bc0 00       		.byte	0
 7742 1bc1 67       		.byte	103
 7743 1bc2 38       		.byte	56
 7744 1bc3 0F       		.byte	15
 7745 1bc4 67       		.byte	103
 7746 1bc5 67       		.byte	103
 7747 1bc6 00       		.byte	0
 7748 1bc7 0F       		.byte	15
 7749 1bc8 77       		.byte	119
 7750 1bc9 00       		.byte	0
 7751 1bca 00       		.byte	0
 7752 1bcb 00       		.byte	0
 7753              		.align	2
 7754              		.type	BS_UDB_0_0_1_CONFIG_VAL.4932, %object
 7755              		.size	BS_UDB_0_0_1_CONFIG_VAL.4932, 128
 7756              	BS_UDB_0_0_1_CONFIG_VAL.4932:
 7757 1bcc 0C       		.byte	12
 7758 1bcd 05       		.byte	5
 7759 1bce 00       		.byte	0
 7760 1bcf 00       		.byte	0
 7761 1bd0 42       		.byte	66
 7762 1bd1 00       		.byte	0
 7763 1bd2 00       		.byte	0
 7764 1bd3 05       		.byte	5
 7765 1bd4 7F       		.byte	127
 7766 1bd5 00       		.byte	0
 7767 1bd6 00       		.byte	0
 7768 1bd7 00       		.byte	0
 7769 1bd8 21       		.byte	33
 7770 1bd9 00       		.byte	0
 7771 1bda 00       		.byte	0
ARM GAS  C:\Users\Bruger\AppData\Local\Temp\ccj0lDyf.s 			page 163


 7772 1bdb 03       		.byte	3
 7773 1bdc 00       		.byte	0
 7774 1bdd F8       		.byte	-8
 7775 1bde 73       		.byte	115
 7776 1bdf 00       		.byte	0
 7777 1be0 0F       		.byte	15
 7778 1be1 08       		.byte	8
 7779 1be2 70       		.byte	112
 7780 1be3 30       		.byte	48
 7781 1be4 73       		.byte	115
 7782 1be5 A0       		.byte	-96
 7783 1be6 0C       		.byte	12
 7784 1be7 48       		.byte	72
 7785 1be8 08       		.byte	8
 7786 1be9 00       		.byte	0
 7787 1bea 00       		.byte	0
 7788 1beb 00       		.byte	0
 7789 1bec 0C       		.byte	12
 7790 1bed 00       		.byte	0
 7791 1bee 73       		.byte	115
 7792 1bef 00       		.byte	0
 7793 1bf0 63       		.byte	99
 7794 1bf1 F8       		.byte	-8
 7795 1bf2 00       		.byte	0
 7796 1bf3 00       		.byte	0
 7797 1bf4 04       		.byte	4
 7798 1bf5 06       		.byte	6
 7799 1bf6 00       		.byte	0
 7800 1bf7 00       		.byte	0
 7801 1bf8 00       		.byte	0
 7802 1bf9 50       		.byte	80
 7803 1bfa 00       		.byte	0
 7804 1bfb 88       		.byte	-120
 7805 1bfc 60       		.byte	96
 7806 1bfd 00       		.byte	0
 7807 1bfe 1C       		.byte	28
 7808 1bff C0       		.byte	-64
 7809 1c00 0F       		.byte	15
 7810 1c01 38       		.byte	56
 7811 1c02 00       		.byte	0
 7812 1c03 07       		.byte	7
 7813 1c04 00       		.byte	0
 7814 1c05 00       		.byte	0
 7815 1c06 28       		.byte	40
 7816 1c07 00       		.byte	0
 7817 1c08 00       		.byte	0
 7818 1c09 00       		.byte	0
 7819 1c0a 00       		.byte	0
 7820 1c0b 40       		.byte	64
 7821 1c0c 40       		.byte	64
 7822 1c0d 06       		.byte	6
 7823 1c0e 00       		.byte	0
 7824 1c0f 00       		.byte	0
 7825 1c10 00       		.byte	0
 7826 1c11 42       		.byte	66
 7827 1c12 E0       		.byte	-32
 7828 1c13 0C       		.byte	12
ARM GAS  C:\Users\Bruger\AppData\Local\Temp\ccj0lDyf.s 			page 164


 7829 1c14 1F       		.byte	31
 7830 1c15 FF       		.byte	-1
 7831 1c16 FF       		.byte	-1
 7832 1c17 FF       		.byte	-1
 7833 1c18 00       		.byte	0
 7834 1c19 AF       		.byte	-81
 7835 1c1a 07       		.byte	7
 7836 1c1b 01       		.byte	1
 7837 1c1c 18       		.byte	24
 7838 1c1d 00       		.byte	0
 7839 1c1e 00       		.byte	0
 7840 1c1f 00       		.byte	0
 7841 1c20 00       		.byte	0
 7842 1c21 00       		.byte	0
 7843 1c22 08       		.byte	8
 7844 1c23 00       		.byte	0
 7845 1c24 04       		.byte	4
 7846 1c25 04       		.byte	4
 7847 1c26 04       		.byte	4
 7848 1c27 04       		.byte	4
 7849 1c28 00       		.byte	0
 7850 1c29 99       		.byte	-103
 7851 1c2a 00       		.byte	0
 7852 1c2b 01       		.byte	1
 7853 1c2c 40       		.byte	64
 7854 1c2d 00       		.byte	0
 7855 1c2e 80       		.byte	-128
 7856 1c2f 00       		.byte	0
 7857 1c30 40       		.byte	64
 7858 1c31 40       		.byte	64
 7859 1c32 80       		.byte	-128
 7860 1c33 00       		.byte	0
 7861 1c34 40       		.byte	64
 7862 1c35 00       		.byte	0
 7863 1c36 50       		.byte	80
 7864 1c37 A8       		.byte	-88
 7865 1c38 40       		.byte	64
 7866 1c39 20       		.byte	32
 7867 1c3a 50       		.byte	80
 7868 1c3b A8       		.byte	-88
 7869 1c3c 00       		.byte	0
 7870 1c3d 00       		.byte	0
 7871 1c3e 00       		.byte	0
 7872 1c3f 00       		.byte	0
 7873 1c40 00       		.byte	0
 7874 1c41 00       		.byte	0
 7875 1c42 00       		.byte	0
 7876 1c43 00       		.byte	0
 7877 1c44 00       		.byte	0
 7878 1c45 00       		.byte	0
 7879 1c46 00       		.byte	0
 7880 1c47 00       		.byte	0
 7881 1c48 00       		.byte	0
 7882 1c49 00       		.byte	0
 7883 1c4a 00       		.byte	0
 7884 1c4b 00       		.byte	0
 7885              		.align	2
ARM GAS  C:\Users\Bruger\AppData\Local\Temp\ccj0lDyf.s 			page 165


 7886              		.type	BS_UDB_0_0_0_CONFIG_VAL.4931, %object
 7887              		.size	BS_UDB_0_0_0_CONFIG_VAL.4931, 128
 7888              	BS_UDB_0_0_0_CONFIG_VAL.4931:
 7889 1c4c 00       		.byte	0
 7890 1c4d 00       		.byte	0
 7891 1c4e 00       		.byte	0
 7892 1c4f 00       		.byte	0
 7893 1c50 00       		.byte	0
 7894 1c51 00       		.byte	0
 7895 1c52 00       		.byte	0
 7896 1c53 00       		.byte	0
 7897 1c54 00       		.byte	0
 7898 1c55 00       		.byte	0
 7899 1c56 00       		.byte	0
 7900 1c57 00       		.byte	0
 7901 1c58 00       		.byte	0
 7902 1c59 00       		.byte	0
 7903 1c5a 00       		.byte	0
 7904 1c5b 00       		.byte	0
 7905 1c5c 00       		.byte	0
 7906 1c5d 01       		.byte	1
 7907 1c5e 00       		.byte	0
 7908 1c5f 00       		.byte	0
 7909 1c60 00       		.byte	0
 7910 1c61 00       		.byte	0
 7911 1c62 00       		.byte	0
 7912 1c63 00       		.byte	0
 7913 1c64 00       		.byte	0
 7914 1c65 00       		.byte	0
 7915 1c66 00       		.byte	0
 7916 1c67 00       		.byte	0
 7917 1c68 01       		.byte	1
 7918 1c69 00       		.byte	0
 7919 1c6a 00       		.byte	0
 7920 1c6b 02       		.byte	2
 7921 1c6c 00       		.byte	0
 7922 1c6d 00       		.byte	0
 7923 1c6e 01       		.byte	1
 7924 1c6f 00       		.byte	0
 7925 1c70 00       		.byte	0
 7926 1c71 00       		.byte	0
 7927 1c72 00       		.byte	0
 7928 1c73 00       		.byte	0
 7929 1c74 00       		.byte	0
 7930 1c75 00       		.byte	0
 7931 1c76 00       		.byte	0
 7932 1c77 00       		.byte	0
 7933 1c78 00       		.byte	0
 7934 1c79 00       		.byte	0
 7935 1c7a 00       		.byte	0
 7936 1c7b 05       		.byte	5
 7937 1c7c 00       		.byte	0
 7938 1c7d 04       		.byte	4
 7939 1c7e 00       		.byte	0
 7940 1c7f 01       		.byte	1
 7941 1c80 00       		.byte	0
 7942 1c81 00       		.byte	0
ARM GAS  C:\Users\Bruger\AppData\Local\Temp\ccj0lDyf.s 			page 166


 7943 1c82 01       		.byte	1
 7944 1c83 02       		.byte	2
 7945 1c84 00       		.byte	0
 7946 1c85 00       		.byte	0
 7947 1c86 00       		.byte	0
 7948 1c87 00       		.byte	0
 7949 1c88 00       		.byte	0
 7950 1c89 00       		.byte	0
 7951 1c8a 40       		.byte	64
 7952 1c8b 04       		.byte	4
 7953 1c8c 40       		.byte	64
 7954 1c8d 06       		.byte	6
 7955 1c8e 00       		.byte	0
 7956 1c8f 00       		.byte	0
 7957 1c90 00       		.byte	0
 7958 1c91 00       		.byte	0
 7959 1c92 00       		.byte	0
 7960 1c93 00       		.byte	0
 7961 1c94 00       		.byte	0
 7962 1c95 FF       		.byte	-1
 7963 1c96 FF       		.byte	-1
 7964 1c97 FF       		.byte	-1
 7965 1c98 00       		.byte	0
 7966 1c99 AF       		.byte	-81
 7967 1c9a 07       		.byte	7
 7968 1c9b 01       		.byte	1
 7969 1c9c 18       		.byte	24
 7970 1c9d 00       		.byte	0
 7971 1c9e 00       		.byte	0
 7972 1c9f 00       		.byte	0
 7973 1ca0 07       		.byte	7
 7974 1ca1 00       		.byte	0
 7975 1ca2 00       		.byte	0
 7976 1ca3 00       		.byte	0
 7977 1ca4 04       		.byte	4
 7978 1ca5 04       		.byte	4
 7979 1ca6 04       		.byte	4
 7980 1ca7 04       		.byte	4
 7981 1ca8 90       		.byte	-112
 7982 1ca9 99       		.byte	-103
 7983 1caa 00       		.byte	0
 7984 1cab 01       		.byte	1
 7985 1cac 40       		.byte	64
 7986 1cad 00       		.byte	0
 7987 1cae 80       		.byte	-128
 7988 1caf 00       		.byte	0
 7989 1cb0 40       		.byte	64
 7990 1cb1 40       		.byte	64
 7991 1cb2 80       		.byte	-128
 7992 1cb3 00       		.byte	0
 7993 1cb4 40       		.byte	64
 7994 1cb5 00       		.byte	0
 7995 1cb6 50       		.byte	80
 7996 1cb7 A8       		.byte	-88
 7997 1cb8 40       		.byte	64
 7998 1cb9 20       		.byte	32
 7999 1cba 50       		.byte	80
ARM GAS  C:\Users\Bruger\AppData\Local\Temp\ccj0lDyf.s 			page 167


 8000 1cbb A8       		.byte	-88
 8001 1cbc 00       		.byte	0
 8002 1cbd 00       		.byte	0
 8003 1cbe 00       		.byte	0
 8004 1cbf 00       		.byte	0
 8005 1cc0 00       		.byte	0
 8006 1cc1 00       		.byte	0
 8007 1cc2 00       		.byte	0
 8008 1cc3 00       		.byte	0
 8009 1cc4 00       		.byte	0
 8010 1cc5 00       		.byte	0
 8011 1cc6 00       		.byte	0
 8012 1cc7 00       		.byte	0
 8013 1cc8 00       		.byte	0
 8014 1cc9 00       		.byte	0
 8015 1cca 00       		.byte	0
 8016 1ccb 00       		.byte	0
 8017              		.align	2
 8018              		.type	BS_UDB_0_1_0_CONFIG_VAL.4930, %object
 8019              		.size	BS_UDB_0_1_0_CONFIG_VAL.4930, 128
 8020              	BS_UDB_0_1_0_CONFIG_VAL.4930:
 8021 1ccc 00       		.byte	0
 8022 1ccd 00       		.byte	0
 8023 1cce 0C       		.byte	12
 8024 1ccf 00       		.byte	0
 8025 1cd0 00       		.byte	0
 8026 1cd1 00       		.byte	0
 8027 1cd2 02       		.byte	2
 8028 1cd3 00       		.byte	0
 8029 1cd4 00       		.byte	0
 8030 1cd5 00       		.byte	0
 8031 1cd6 00       		.byte	0
 8032 1cd7 00       		.byte	0
 8033 1cd8 00       		.byte	0
 8034 1cd9 00       		.byte	0
 8035 1cda 00       		.byte	0
 8036 1cdb 00       		.byte	0
 8037 1cdc 00       		.byte	0
 8038 1cdd 00       		.byte	0
 8039 1cde 00       		.byte	0
 8040 1cdf 00       		.byte	0
 8041 1ce0 00       		.byte	0
 8042 1ce1 00       		.byte	0
 8043 1ce2 04       		.byte	4
 8044 1ce3 00       		.byte	0
 8045 1ce4 00       		.byte	0
 8046 1ce5 00       		.byte	0
 8047 1ce6 08       		.byte	8
 8048 1ce7 00       		.byte	0
 8049 1ce8 00       		.byte	0
 8050 1ce9 00       		.byte	0
 8051 1cea 03       		.byte	3
 8052 1ceb 00       		.byte	0
 8053 1cec 00       		.byte	0
 8054 1ced 00       		.byte	0
 8055 1cee 00       		.byte	0
 8056 1cef 00       		.byte	0
ARM GAS  C:\Users\Bruger\AppData\Local\Temp\ccj0lDyf.s 			page 168


 8057 1cf0 00       		.byte	0
 8058 1cf1 00       		.byte	0
 8059 1cf2 00       		.byte	0
 8060 1cf3 00       		.byte	0
 8061 1cf4 04       		.byte	4
 8062 1cf5 00       		.byte	0
 8063 1cf6 08       		.byte	8
 8064 1cf7 00       		.byte	0
 8065 1cf8 00       		.byte	0
 8066 1cf9 00       		.byte	0
 8067 1cfa 00       		.byte	0
 8068 1cfb 01       		.byte	1
 8069 1cfc 02       		.byte	2
 8070 1cfd 00       		.byte	0
 8071 1cfe 0C       		.byte	12
 8072 1cff 00       		.byte	0
 8073 1d00 01       		.byte	1
 8074 1d01 01       		.byte	1
 8075 1d02 00       		.byte	0
 8076 1d03 00       		.byte	0
 8077 1d04 00       		.byte	0
 8078 1d05 00       		.byte	0
 8079 1d06 22       		.byte	34
 8080 1d07 00       		.byte	0
 8081 1d08 00       		.byte	0
 8082 1d09 00       		.byte	0
 8083 1d0a 04       		.byte	4
 8084 1d0b 00       		.byte	0
 8085 1d0c 40       		.byte	64
 8086 1d0d 06       		.byte	6
 8087 1d0e 00       		.byte	0
 8088 1d0f 00       		.byte	0
 8089 1d10 00       		.byte	0
 8090 1d11 00       		.byte	0
 8091 1d12 00       		.byte	0
 8092 1d13 00       		.byte	0
 8093 1d14 00       		.byte	0
 8094 1d15 FF       		.byte	-1
 8095 1d16 FF       		.byte	-1
 8096 1d17 FF       		.byte	-1
 8097 1d18 00       		.byte	0
 8098 1d19 AF       		.byte	-81
 8099 1d1a 07       		.byte	7
 8100 1d1b 01       		.byte	1
 8101 1d1c 18       		.byte	24
 8102 1d1d 00       		.byte	0
 8103 1d1e 80       		.byte	-128
 8104 1d1f 00       		.byte	0
 8105 1d20 00       		.byte	0
 8106 1d21 00       		.byte	0
 8107 1d22 00       		.byte	0
 8108 1d23 00       		.byte	0
 8109 1d24 04       		.byte	4
 8110 1d25 04       		.byte	4
 8111 1d26 04       		.byte	4
 8112 1d27 04       		.byte	4
 8113 1d28 05       		.byte	5
ARM GAS  C:\Users\Bruger\AppData\Local\Temp\ccj0lDyf.s 			page 169


 8114 1d29 99       		.byte	-103
 8115 1d2a 00       		.byte	0
 8116 1d2b 01       		.byte	1
 8117 1d2c 40       		.byte	64
 8118 1d2d 00       		.byte	0
 8119 1d2e 80       		.byte	-128
 8120 1d2f 00       		.byte	0
 8121 1d30 40       		.byte	64
 8122 1d31 40       		.byte	64
 8123 1d32 80       		.byte	-128
 8124 1d33 00       		.byte	0
 8125 1d34 40       		.byte	64
 8126 1d35 00       		.byte	0
 8127 1d36 50       		.byte	80
 8128 1d37 A8       		.byte	-88
 8129 1d38 40       		.byte	64
 8130 1d39 20       		.byte	32
 8131 1d3a 50       		.byte	80
 8132 1d3b A8       		.byte	-88
 8133 1d3c 00       		.byte	0
 8134 1d3d 00       		.byte	0
 8135 1d3e 00       		.byte	0
 8136 1d3f 00       		.byte	0
 8137 1d40 00       		.byte	0
 8138 1d41 00       		.byte	0
 8139 1d42 00       		.byte	0
 8140 1d43 00       		.byte	0
 8141 1d44 00       		.byte	0
 8142 1d45 00       		.byte	0
 8143 1d46 00       		.byte	0
 8144 1d47 00       		.byte	0
 8145 1d48 00       		.byte	0
 8146 1d49 00       		.byte	0
 8147 1d4a 00       		.byte	0
 8148 1d4b 00       		.byte	0
 8149              		.align	2
 8150              		.type	BS_UDB_0_1_1_CONFIG_VAL.4929, %object
 8151              		.size	BS_UDB_0_1_1_CONFIG_VAL.4929, 128
 8152              	BS_UDB_0_1_1_CONFIG_VAL.4929:
 8153 1d4c 00       		.byte	0
 8154 1d4d 00       		.byte	0
 8155 1d4e 04       		.byte	4
 8156 1d4f 20       		.byte	32
 8157 1d50 00       		.byte	0
 8158 1d51 00       		.byte	0
 8159 1d52 30       		.byte	48
 8160 1d53 00       		.byte	0
 8161 1d54 28       		.byte	40
 8162 1d55 00       		.byte	0
 8163 1d56 00       		.byte	0
 8164 1d57 00       		.byte	0
 8165 1d58 04       		.byte	4
 8166 1d59 00       		.byte	0
 8167 1d5a 00       		.byte	0
 8168 1d5b 10       		.byte	16
 8169 1d5c 00       		.byte	0
 8170 1d5d 00       		.byte	0
ARM GAS  C:\Users\Bruger\AppData\Local\Temp\ccj0lDyf.s 			page 170


 8171 1d5e 00       		.byte	0
 8172 1d5f 18       		.byte	24
 8173 1d60 01       		.byte	1
 8174 1d61 00       		.byte	0
 8175 1d62 00       		.byte	0
 8176 1d63 02       		.byte	2
 8177 1d64 04       		.byte	4
 8178 1d65 10       		.byte	16
 8179 1d66 00       		.byte	0
 8180 1d67 00       		.byte	0
 8181 1d68 00       		.byte	0
 8182 1d69 06       		.byte	6
 8183 1d6a 28       		.byte	40
 8184 1d6b 00       		.byte	0
 8185 1d6c 00       		.byte	0
 8186 1d6d 00       		.byte	0
 8187 1d6e 04       		.byte	4
 8188 1d6f 01       		.byte	1
 8189 1d70 00       		.byte	0
 8190 1d71 00       		.byte	0
 8191 1d72 03       		.byte	3
 8192 1d73 04       		.byte	4
 8193 1d74 18       		.byte	24
 8194 1d75 04       		.byte	4
 8195 1d76 00       		.byte	0
 8196 1d77 00       		.byte	0
 8197 1d78 00       		.byte	0
 8198 1d79 00       		.byte	0
 8199 1d7a 01       		.byte	1
 8200 1d7b 00       		.byte	0
 8201 1d7c 01       		.byte	1
 8202 1d7d 07       		.byte	7
 8203 1d7e 02       		.byte	2
 8204 1d7f 08       		.byte	8
 8205 1d80 04       		.byte	4
 8206 1d81 20       		.byte	32
 8207 1d82 38       		.byte	56
 8208 1d83 10       		.byte	16
 8209 1d84 00       		.byte	0
 8210 1d85 00       		.byte	0
 8211 1d86 00       		.byte	0
 8212 1d87 00       		.byte	0
 8213 1d88 00       		.byte	0
 8214 1d89 00       		.byte	0
 8215 1d8a 51       		.byte	81
 8216 1d8b 41       		.byte	65
 8217 1d8c 40       		.byte	64
 8218 1d8d 06       		.byte	6
 8219 1d8e 00       		.byte	0
 8220 1d8f 00       		.byte	0
 8221 1d90 00       		.byte	0
 8222 1d91 00       		.byte	0
 8223 1d92 00       		.byte	0
 8224 1d93 00       		.byte	0
 8225 1d94 00       		.byte	0
 8226 1d95 FF       		.byte	-1
 8227 1d96 FF       		.byte	-1
ARM GAS  C:\Users\Bruger\AppData\Local\Temp\ccj0lDyf.s 			page 171


 8228 1d97 FF       		.byte	-1
 8229 1d98 00       		.byte	0
 8230 1d99 A0       		.byte	-96
 8231 1d9a 00       		.byte	0
 8232 1d9b 01       		.byte	1
 8233 1d9c 18       		.byte	24
 8234 1d9d 00       		.byte	0
 8235 1d9e 80       		.byte	-128
 8236 1d9f 00       		.byte	0
 8237 1da0 00       		.byte	0
 8238 1da1 00       		.byte	0
 8239 1da2 08       		.byte	8
 8240 1da3 00       		.byte	0
 8241 1da4 04       		.byte	4
 8242 1da5 04       		.byte	4
 8243 1da6 04       		.byte	4
 8244 1da7 04       		.byte	4
 8245 1da8 99       		.byte	-103
 8246 1da9 99       		.byte	-103
 8247 1daa 00       		.byte	0
 8248 1dab 01       		.byte	1
 8249 1dac 40       		.byte	64
 8250 1dad 00       		.byte	0
 8251 1dae 80       		.byte	-128
 8252 1daf 00       		.byte	0
 8253 1db0 40       		.byte	64
 8254 1db1 40       		.byte	64
 8255 1db2 80       		.byte	-128
 8256 1db3 00       		.byte	0
 8257 1db4 40       		.byte	64
 8258 1db5 00       		.byte	0
 8259 1db6 50       		.byte	80
 8260 1db7 A8       		.byte	-88
 8261 1db8 40       		.byte	64
 8262 1db9 20       		.byte	32
 8263 1dba 50       		.byte	80
 8264 1dbb A8       		.byte	-88
 8265 1dbc 00       		.byte	0
 8266 1dbd 00       		.byte	0
 8267 1dbe 00       		.byte	0
 8268 1dbf 00       		.byte	0
 8269 1dc0 00       		.byte	0
 8270 1dc1 00       		.byte	0
 8271 1dc2 00       		.byte	0
 8272 1dc3 00       		.byte	0
 8273 1dc4 00       		.byte	0
 8274 1dc5 00       		.byte	0
 8275 1dc6 00       		.byte	0
 8276 1dc7 00       		.byte	0
 8277 1dc8 00       		.byte	0
 8278 1dc9 00       		.byte	0
 8279 1dca 00       		.byte	0
 8280 1dcb 00       		.byte	0
 8281              		.align	2
 8282              		.type	BS_UDB_1_1_0_CONFIG_VAL.4928, %object
 8283              		.size	BS_UDB_1_1_0_CONFIG_VAL.4928, 128
 8284              	BS_UDB_1_1_0_CONFIG_VAL.4928:
ARM GAS  C:\Users\Bruger\AppData\Local\Temp\ccj0lDyf.s 			page 172


 8285 1dcc 00       		.byte	0
 8286 1dcd 00       		.byte	0
 8287 1dce 04       		.byte	4
 8288 1dcf 00       		.byte	0
 8289 1dd0 00       		.byte	0
 8290 1dd1 00       		.byte	0
 8291 1dd2 00       		.byte	0
 8292 1dd3 00       		.byte	0
 8293 1dd4 02       		.byte	2
 8294 1dd5 78       		.byte	120
 8295 1dd6 01       		.byte	1
 8296 1dd7 00       		.byte	0
 8297 1dd8 01       		.byte	1
 8298 1dd9 00       		.byte	0
 8299 1dda 02       		.byte	2
 8300 1ddb 33       		.byte	51
 8301 1ddc 00       		.byte	0
 8302 1ddd 00       		.byte	0
 8303 1dde 00       		.byte	0
 8304 1ddf 55       		.byte	85
 8305 1de0 00       		.byte	0
 8306 1de1 55       		.byte	85
 8307 1de2 00       		.byte	0
 8308 1de3 00       		.byte	0
 8309 1de4 00       		.byte	0
 8310 1de5 00       		.byte	0
 8311 1de6 00       		.byte	0
 8312 1de7 0F       		.byte	15
 8313 1de8 00       		.byte	0
 8314 1de9 00       		.byte	0
 8315 1dea 00       		.byte	0
 8316 1deb 00       		.byte	0
 8317 1dec 00       		.byte	0
 8318 1ded 66       		.byte	102
 8319 1dee 00       		.byte	0
 8320 1def 00       		.byte	0
 8321 1df0 00       		.byte	0
 8322 1df1 00       		.byte	0
 8323 1df2 00       		.byte	0
 8324 1df3 00       		.byte	0
 8325 1df4 00       		.byte	0
 8326 1df5 80       		.byte	-128
 8327 1df6 00       		.byte	0
 8328 1df7 00       		.byte	0
 8329 1df8 00       		.byte	0
 8330 1df9 00       		.byte	0
 8331 1dfa 00       		.byte	0
 8332 1dfb 00       		.byte	0
 8333 1dfc 03       		.byte	3
 8334 1dfd 00       		.byte	0
 8335 1dfe 00       		.byte	0
 8336 1dff 80       		.byte	-128
 8337 1e00 04       		.byte	4
 8338 1e01 7F       		.byte	127
 8339 1e02 00       		.byte	0
 8340 1e03 00       		.byte	0
 8341 1e04 00       		.byte	0
ARM GAS  C:\Users\Bruger\AppData\Local\Temp\ccj0lDyf.s 			page 173


 8342 1e05 00       		.byte	0
 8343 1e06 00       		.byte	0
 8344 1e07 00       		.byte	0
 8345 1e08 00       		.byte	0
 8346 1e09 00       		.byte	0
 8347 1e0a 01       		.byte	1
 8348 1e0b 14       		.byte	20
 8349 1e0c 35       		.byte	53
 8350 1e0d 01       		.byte	1
 8351 1e0e 00       		.byte	0
 8352 1e0f 00       		.byte	0
 8353 1e10 00       		.byte	0
 8354 1e11 42       		.byte	66
 8355 1e12 C0       		.byte	-64
 8356 1e13 0E       		.byte	14
 8357 1e14 3B       		.byte	59
 8358 1e15 FF       		.byte	-1
 8359 1e16 FF       		.byte	-1
 8360 1e17 FF       		.byte	-1
 8361 1e18 00       		.byte	0
 8362 1e19 AF       		.byte	-81
 8363 1e1a 07       		.byte	7
 8364 1e1b 01       		.byte	1
 8365 1e1c 18       		.byte	24
 8366 1e1d 00       		.byte	0
 8367 1e1e FF       		.byte	-1
 8368 1e1f 00       		.byte	0
 8369 1e20 00       		.byte	0
 8370 1e21 00       		.byte	0
 8371 1e22 10       		.byte	16
 8372 1e23 00       		.byte	0
 8373 1e24 04       		.byte	4
 8374 1e25 04       		.byte	4
 8375 1e26 04       		.byte	4
 8376 1e27 04       		.byte	4
 8377 1e28 01       		.byte	1
 8378 1e29 52       		.byte	82
 8379 1e2a 00       		.byte	0
 8380 1e2b 01       		.byte	1
 8381 1e2c 40       		.byte	64
 8382 1e2d 00       		.byte	0
 8383 1e2e 80       		.byte	-128
 8384 1e2f 00       		.byte	0
 8385 1e30 40       		.byte	64
 8386 1e31 40       		.byte	64
 8387 1e32 80       		.byte	-128
 8388 1e33 00       		.byte	0
 8389 1e34 40       		.byte	64
 8390 1e35 00       		.byte	0
 8391 1e36 50       		.byte	80
 8392 1e37 A8       		.byte	-88
 8393 1e38 40       		.byte	64
 8394 1e39 20       		.byte	32
 8395 1e3a 50       		.byte	80
 8396 1e3b A8       		.byte	-88
 8397 1e3c 00       		.byte	0
 8398 1e3d 00       		.byte	0
ARM GAS  C:\Users\Bruger\AppData\Local\Temp\ccj0lDyf.s 			page 174


 8399 1e3e 00       		.byte	0
 8400 1e3f 00       		.byte	0
 8401 1e40 00       		.byte	0
 8402 1e41 00       		.byte	0
 8403 1e42 00       		.byte	0
 8404 1e43 00       		.byte	0
 8405 1e44 00       		.byte	0
 8406 1e45 00       		.byte	0
 8407 1e46 00       		.byte	0
 8408 1e47 00       		.byte	0
 8409 1e48 00       		.byte	0
 8410 1e49 00       		.byte	0
 8411 1e4a 00       		.byte	0
 8412 1e4b 00       		.byte	0
 8413              		.align	2
 8414              		.type	BS_UDB_1_1_1_CONFIG_VAL.4927, %object
 8415              		.size	BS_UDB_1_1_1_CONFIG_VAL.4927, 128
 8416              	BS_UDB_1_1_1_CONFIG_VAL.4927:
 8417 1e4c 00       		.byte	0
 8418 1e4d 01       		.byte	1
 8419 1e4e 00       		.byte	0
 8420 1e4f 00       		.byte	0
 8421 1e50 00       		.byte	0
 8422 1e51 1E       		.byte	30
 8423 1e52 00       		.byte	0
 8424 1e53 00       		.byte	0
 8425 1e54 00       		.byte	0
 8426 1e55 00       		.byte	0
 8427 1e56 00       		.byte	0
 8428 1e57 00       		.byte	0
 8429 1e58 00       		.byte	0
 8430 1e59 00       		.byte	0
 8431 1e5a 00       		.byte	0
 8432 1e5b AA       		.byte	-86
 8433 1e5c 00       		.byte	0
 8434 1e5d AA       		.byte	-86
 8435 1e5e 02       		.byte	2
 8436 1e5f 00       		.byte	0
 8437 1e60 00       		.byte	0
 8438 1e61 00       		.byte	0
 8439 1e62 00       		.byte	0
 8440 1e63 00       		.byte	0
 8441 1e64 02       		.byte	2
 8442 1e65 00       		.byte	0
 8443 1e66 00       		.byte	0
 8444 1e67 00       		.byte	0
 8445 1e68 00       		.byte	0
 8446 1e69 01       		.byte	1
 8447 1e6a 03       		.byte	3
 8448 1e6b 00       		.byte	0
 8449 1e6c 00       		.byte	0
 8450 1e6d 00       		.byte	0
 8451 1e6e 00       		.byte	0
 8452 1e6f F0       		.byte	-16
 8453 1e70 00       		.byte	0
 8454 1e71 00       		.byte	0
 8455 1e72 04       		.byte	4
ARM GAS  C:\Users\Bruger\AppData\Local\Temp\ccj0lDyf.s 			page 175


 8456 1e73 CC       		.byte	-52
 8457 1e74 00       		.byte	0
 8458 1e75 66       		.byte	102
 8459 1e76 00       		.byte	0
 8460 1e77 00       		.byte	0
 8461 1e78 00       		.byte	0
 8462 1e79 00       		.byte	0
 8463 1e7a 04       		.byte	4
 8464 1e7b 00       		.byte	0
 8465 1e7c 04       		.byte	4
 8466 1e7d 00       		.byte	0
 8467 1e7e 02       		.byte	2
 8468 1e7f FE       		.byte	-2
 8469 1e80 01       		.byte	1
 8470 1e81 01       		.byte	1
 8471 1e82 00       		.byte	0
 8472 1e83 00       		.byte	0
 8473 1e84 00       		.byte	0
 8474 1e85 00       		.byte	0
 8475 1e86 00       		.byte	0
 8476 1e87 00       		.byte	0
 8477 1e88 00       		.byte	0
 8478 1e89 00       		.byte	0
 8479 1e8a 05       		.byte	5
 8480 1e8b 04       		.byte	4
 8481 1e8c 34       		.byte	52
 8482 1e8d 01       		.byte	1
 8483 1e8e 00       		.byte	0
 8484 1e8f 00       		.byte	0
 8485 1e90 00       		.byte	0
 8486 1e91 00       		.byte	0
 8487 1e92 00       		.byte	0
 8488 1e93 00       		.byte	0
 8489 1e94 00       		.byte	0
 8490 1e95 FF       		.byte	-1
 8491 1e96 FF       		.byte	-1
 8492 1e97 FF       		.byte	-1
 8493 1e98 00       		.byte	0
 8494 1e99 A0       		.byte	-96
 8495 1e9a 00       		.byte	0
 8496 1e9b 01       		.byte	1
 8497 1e9c 18       		.byte	24
 8498 1e9d 00       		.byte	0
 8499 1e9e 00       		.byte	0
 8500 1e9f 00       		.byte	0
 8501 1ea0 00       		.byte	0
 8502 1ea1 00       		.byte	0
 8503 1ea2 00       		.byte	0
 8504 1ea3 00       		.byte	0
 8505 1ea4 04       		.byte	4
 8506 1ea5 04       		.byte	4
 8507 1ea6 04       		.byte	4
 8508 1ea7 00       		.byte	0
 8509 1ea8 92       		.byte	-110
 8510 1ea9 02       		.byte	2
 8511 1eaa 00       		.byte	0
 8512 1eab 01       		.byte	1
ARM GAS  C:\Users\Bruger\AppData\Local\Temp\ccj0lDyf.s 			page 176


 8513 1eac 40       		.byte	64
 8514 1ead 00       		.byte	0
 8515 1eae 80       		.byte	-128
 8516 1eaf 00       		.byte	0
 8517 1eb0 40       		.byte	64
 8518 1eb1 40       		.byte	64
 8519 1eb2 80       		.byte	-128
 8520 1eb3 00       		.byte	0
 8521 1eb4 40       		.byte	64
 8522 1eb5 00       		.byte	0
 8523 1eb6 50       		.byte	80
 8524 1eb7 A8       		.byte	-88
 8525 1eb8 40       		.byte	64
 8526 1eb9 20       		.byte	32
 8527 1eba 50       		.byte	80
 8528 1ebb A8       		.byte	-88
 8529 1ebc 00       		.byte	0
 8530 1ebd 00       		.byte	0
 8531 1ebe 00       		.byte	0
 8532 1ebf 00       		.byte	0
 8533 1ec0 00       		.byte	0
 8534 1ec1 00       		.byte	0
 8535 1ec2 00       		.byte	0
 8536 1ec3 00       		.byte	0
 8537 1ec4 00       		.byte	0
 8538 1ec5 00       		.byte	0
 8539 1ec6 00       		.byte	0
 8540 1ec7 00       		.byte	0
 8541 1ec8 00       		.byte	0
 8542 1ec9 00       		.byte	0
 8543 1eca 00       		.byte	0
 8544 1ecb 00       		.byte	0
 8545              		.align	2
 8546              		.type	BS_UDB_1_0_1_CONFIG_VAL.4926, %object
 8547              		.size	BS_UDB_1_0_1_CONFIG_VAL.4926, 128
 8548              	BS_UDB_1_0_1_CONFIG_VAL.4926:
 8549 1ecc 00       		.byte	0
 8550 1ecd 00       		.byte	0
 8551 1ece 00       		.byte	0
 8552 1ecf 00       		.byte	0
 8553 1ed0 00       		.byte	0
 8554 1ed1 00       		.byte	0
 8555 1ed2 00       		.byte	0
 8556 1ed3 00       		.byte	0
 8557 1ed4 00       		.byte	0
 8558 1ed5 00       		.byte	0
 8559 1ed6 00       		.byte	0
 8560 1ed7 01       		.byte	1
 8561 1ed8 00       		.byte	0
 8562 1ed9 00       		.byte	0
 8563 1eda 00       		.byte	0
 8564 1edb 00       		.byte	0
 8565 1edc 00       		.byte	0
 8566 1edd 00       		.byte	0
 8567 1ede 00       		.byte	0
 8568 1edf 00       		.byte	0
 8569 1ee0 00       		.byte	0
ARM GAS  C:\Users\Bruger\AppData\Local\Temp\ccj0lDyf.s 			page 177


 8570 1ee1 00       		.byte	0
 8571 1ee2 00       		.byte	0
 8572 1ee3 00       		.byte	0
 8573 1ee4 00       		.byte	0
 8574 1ee5 00       		.byte	0
 8575 1ee6 00       		.byte	0
 8576 1ee7 00       		.byte	0
 8577 1ee8 00       		.byte	0
 8578 1ee9 00       		.byte	0
 8579 1eea 00       		.byte	0
 8580 1eeb 00       		.byte	0
 8581 1eec 00       		.byte	0
 8582 1eed 00       		.byte	0
 8583 1eee 00       		.byte	0
 8584 1eef 00       		.byte	0
 8585 1ef0 00       		.byte	0
 8586 1ef1 00       		.byte	0
 8587 1ef2 00       		.byte	0
 8588 1ef3 00       		.byte	0
 8589 1ef4 00       		.byte	0
 8590 1ef5 00       		.byte	0
 8591 1ef6 00       		.byte	0
 8592 1ef7 00       		.byte	0
 8593 1ef8 00       		.byte	0
 8594 1ef9 00       		.byte	0
 8595 1efa 00       		.byte	0
 8596 1efb 01       		.byte	1
 8597 1efc 00       		.byte	0
 8598 1efd 00       		.byte	0
 8599 1efe 00       		.byte	0
 8600 1eff 00       		.byte	0
 8601 1f00 00       		.byte	0
 8602 1f01 01       		.byte	1
 8603 1f02 00       		.byte	0
 8604 1f03 00       		.byte	0
 8605 1f04 00       		.byte	0
 8606 1f05 00       		.byte	0
 8607 1f06 00       		.byte	0
 8608 1f07 00       		.byte	0
 8609 1f08 00       		.byte	0
 8610 1f09 00       		.byte	0
 8611 1f0a 00       		.byte	0
 8612 1f0b 10       		.byte	16
 8613 1f0c 52       		.byte	82
 8614 1f0d 04       		.byte	4
 8615 1f0e 01       		.byte	1
 8616 1f0f 00       		.byte	0
 8617 1f10 06       		.byte	6
 8618 1f11 0C       		.byte	12
 8619 1f12 E0       		.byte	-32
 8620 1f13 00       		.byte	0
 8621 1f14 09       		.byte	9
 8622 1f15 FF       		.byte	-1
 8623 1f16 FF       		.byte	-1
 8624 1f17 FF       		.byte	-1
 8625 1f18 62       		.byte	98
 8626 1f19 A0       		.byte	-96
ARM GAS  C:\Users\Bruger\AppData\Local\Temp\ccj0lDyf.s 			page 178


 8627 1f1a F0       		.byte	-16
 8628 1f1b 41       		.byte	65
 8629 1f1c 0C       		.byte	12
 8630 1f1d 00       		.byte	0
 8631 1f1e 00       		.byte	0
 8632 1f1f 00       		.byte	0
 8633 1f20 00       		.byte	0
 8634 1f21 00       		.byte	0
 8635 1f22 08       		.byte	8
 8636 1f23 00       		.byte	0
 8637 1f24 00       		.byte	0
 8638 1f25 04       		.byte	4
 8639 1f26 04       		.byte	4
 8640 1f27 04       		.byte	4
 8641 1f28 00       		.byte	0
 8642 1f29 20       		.byte	32
 8643 1f2a 00       		.byte	0
 8644 1f2b 01       		.byte	1
 8645 1f2c 00       		.byte	0
 8646 1f2d 00       		.byte	0
 8647 1f2e 00       		.byte	0
 8648 1f2f 00       		.byte	0
 8649 1f30 00       		.byte	0
 8650 1f31 00       		.byte	0
 8651 1f32 40       		.byte	64
 8652 1f33 02       		.byte	2
 8653 1f34 00       		.byte	0
 8654 1f35 10       		.byte	16
 8655 1f36 30       		.byte	48
 8656 1f37 10       		.byte	16
 8657 1f38 00       		.byte	0
 8658 1f39 10       		.byte	16
 8659 1f3a 10       		.byte	16
 8660 1f3b 12       		.byte	18
 8661 1f3c 00       		.byte	0
 8662 1f3d 00       		.byte	0
 8663 1f3e 00       		.byte	0
 8664 1f3f 00       		.byte	0
 8665 1f40 00       		.byte	0
 8666 1f41 00       		.byte	0
 8667 1f42 00       		.byte	0
 8668 1f43 00       		.byte	0
 8669 1f44 00       		.byte	0
 8670 1f45 00       		.byte	0
 8671 1f46 00       		.byte	0
 8672 1f47 00       		.byte	0
 8673 1f48 00       		.byte	0
 8674 1f49 00       		.byte	0
 8675 1f4a 00       		.byte	0
 8676 1f4b 00       		.byte	0
 8677              		.align	2
 8678              		.type	BS_UDB_1_0_0_CONFIG_VAL.4925, %object
 8679              		.size	BS_UDB_1_0_0_CONFIG_VAL.4925, 128
 8680              	BS_UDB_1_0_0_CONFIG_VAL.4925:
 8681 1f4c 00       		.byte	0
 8682 1f4d 4F       		.byte	79
 8683 1f4e 02       		.byte	2
ARM GAS  C:\Users\Bruger\AppData\Local\Temp\ccj0lDyf.s 			page 179


 8684 1f4f 30       		.byte	48
 8685 1f50 00       		.byte	0
 8686 1f51 30       		.byte	48
 8687 1f52 08       		.byte	8
 8688 1f53 00       		.byte	0
 8689 1f54 00       		.byte	0
 8690 1f55 10       		.byte	16
 8691 1f56 01       		.byte	1
 8692 1f57 00       		.byte	0
 8693 1f58 08       		.byte	8
 8694 1f59 00       		.byte	0
 8695 1f5a 00       		.byte	0
 8696 1f5b 00       		.byte	0
 8697 1f5c 00       		.byte	0
 8698 1f5d 79       		.byte	121
 8699 1f5e 08       		.byte	8
 8700 1f5f 04       		.byte	4
 8701 1f60 00       		.byte	0
 8702 1f61 00       		.byte	0
 8703 1f62 00       		.byte	0
 8704 1f63 00       		.byte	0
 8705 1f64 04       		.byte	4
 8706 1f65 00       		.byte	0
 8707 1f66 00       		.byte	0
 8708 1f67 08       		.byte	8
 8709 1f68 08       		.byte	8
 8710 1f69 20       		.byte	32
 8711 1f6a 00       		.byte	0
 8712 1f6b 00       		.byte	0
 8713 1f6c 04       		.byte	4
 8714 1f6d 7F       		.byte	127
 8715 1f6e 00       		.byte	0
 8716 1f6f 00       		.byte	0
 8717 1f70 04       		.byte	4
 8718 1f71 00       		.byte	0
 8719 1f72 00       		.byte	0
 8720 1f73 46       		.byte	70
 8721 1f74 00       		.byte	0
 8722 1f75 08       		.byte	8
 8723 1f76 02       		.byte	2
 8724 1f77 00       		.byte	0
 8725 1f78 00       		.byte	0
 8726 1f79 39       		.byte	57
 8727 1f7a 00       		.byte	0
 8728 1f7b 42       		.byte	66
 8729 1f7c 08       		.byte	8
 8730 1f7d 3E       		.byte	62
 8731 1f7e 04       		.byte	4
 8732 1f7f 01       		.byte	1
 8733 1f80 03       		.byte	3
 8734 1f81 00       		.byte	0
 8735 1f82 00       		.byte	0
 8736 1f83 70       		.byte	112
 8737 1f84 02       		.byte	2
 8738 1f85 00       		.byte	0
 8739 1f86 00       		.byte	0
 8740 1f87 02       		.byte	2
ARM GAS  C:\Users\Bruger\AppData\Local\Temp\ccj0lDyf.s 			page 180


 8741 1f88 00       		.byte	0
 8742 1f89 00       		.byte	0
 8743 1f8a 10       		.byte	16
 8744 1f8b 04       		.byte	4
 8745 1f8c 02       		.byte	2
 8746 1f8d 00       		.byte	0
 8747 1f8e 00       		.byte	0
 8748 1f8f 00       		.byte	0
 8749 1f90 00       		.byte	0
 8750 1f91 00       		.byte	0
 8751 1f92 00       		.byte	0
 8752 1f93 40       		.byte	64
 8753 1f94 00       		.byte	0
 8754 1f95 FF       		.byte	-1
 8755 1f96 07       		.byte	7
 8756 1f97 FF       		.byte	-1
 8757 1f98 40       		.byte	64
 8758 1f99 20       		.byte	32
 8759 1f9a F0       		.byte	-16
 8760 1f9b 05       		.byte	5
 8761 1f9c 08       		.byte	8
 8762 1f9d 00       		.byte	0
 8763 1f9e 00       		.byte	0
 8764 1f9f 00       		.byte	0
 8765 1fa0 00       		.byte	0
 8766 1fa1 00       		.byte	0
 8767 1fa2 02       		.byte	2
 8768 1fa3 12       		.byte	18
 8769 1fa4 04       		.byte	4
 8770 1fa5 04       		.byte	4
 8771 1fa6 04       		.byte	4
 8772 1fa7 04       		.byte	4
 8773 1fa8 00       		.byte	0
 8774 1fa9 00       		.byte	0
 8775 1faa 00       		.byte	0
 8776 1fab 01       		.byte	1
 8777 1fac 40       		.byte	64
 8778 1fad A8       		.byte	-88
 8779 1fae 40       		.byte	64
 8780 1faf 20       		.byte	32
 8781 1fb0 00       		.byte	0
 8782 1fb1 00       		.byte	0
 8783 1fb2 00       		.byte	0
 8784 1fb3 00       		.byte	0
 8785 1fb4 00       		.byte	0
 8786 1fb5 00       		.byte	0
 8787 1fb6 00       		.byte	0
 8788 1fb7 00       		.byte	0
 8789 1fb8 00       		.byte	0
 8790 1fb9 00       		.byte	0
 8791 1fba 00       		.byte	0
 8792 1fbb 00       		.byte	0
 8793 1fbc 00       		.byte	0
 8794 1fbd 00       		.byte	0
 8795 1fbe 00       		.byte	0
 8796 1fbf 00       		.byte	0
 8797 1fc0 00       		.byte	0
ARM GAS  C:\Users\Bruger\AppData\Local\Temp\ccj0lDyf.s 			page 181


 8798 1fc1 00       		.byte	0
 8799 1fc2 00       		.byte	0
 8800 1fc3 00       		.byte	0
 8801 1fc4 00       		.byte	0
 8802 1fc5 00       		.byte	0
 8803 1fc6 00       		.byte	0
 8804 1fc7 00       		.byte	0
 8805 1fc8 00       		.byte	0
 8806 1fc9 00       		.byte	0
 8807 1fca 00       		.byte	0
 8808 1fcb 00       		.byte	0
 8809              		.align	2
 8810              		.type	BS_UDB_0_5_1_CONFIG_VAL.4924, %object
 8811              		.size	BS_UDB_0_5_1_CONFIG_VAL.4924, 128
 8812              	BS_UDB_0_5_1_CONFIG_VAL.4924:
 8813 1fcc 04       		.byte	4
 8814 1fcd FC       		.byte	-4
 8815 1fce 00       		.byte	0
 8816 1fcf 03       		.byte	3
 8817 1fd0 04       		.byte	4
 8818 1fd1 21       		.byte	33
 8819 1fd2 00       		.byte	0
 8820 1fd3 D8       		.byte	-40
 8821 1fd4 0A       		.byte	10
 8822 1fd5 02       		.byte	2
 8823 1fd6 10       		.byte	16
 8824 1fd7 00       		.byte	0
 8825 1fd8 56       		.byte	86
 8826 1fd9 13       		.byte	19
 8827 1fda 09       		.byte	9
 8828 1fdb 64       		.byte	100
 8829 1fdc 00       		.byte	0
 8830 1fdd 9A       		.byte	-102
 8831 1fde 00       		.byte	0
 8832 1fdf 00       		.byte	0
 8833 1fe0 01       		.byte	1
 8834 1fe1 02       		.byte	2
 8835 1fe2 80       		.byte	-128
 8836 1fe3 98       		.byte	-104
 8837 1fe4 00       		.byte	0
 8838 1fe5 98       		.byte	-104
 8839 1fe6 04       		.byte	4
 8840 1fe7 02       		.byte	2
 8841 1fe8 04       		.byte	4
 8842 1fe9 38       		.byte	56
 8843 1fea 00       		.byte	0
 8844 1feb C0       		.byte	-64
 8845 1fec 07       		.byte	7
 8846 1fed 98       		.byte	-104
 8847 1fee 38       		.byte	56
 8848 1fef 02       		.byte	2
 8849 1ff0 04       		.byte	4
 8850 1ff1 00       		.byte	0
 8851 1ff2 00       		.byte	0
 8852 1ff3 00       		.byte	0
 8853 1ff4 60       		.byte	96
 8854 1ff5 9A       		.byte	-102
ARM GAS  C:\Users\Bruger\AppData\Local\Temp\ccj0lDyf.s 			page 182


 8855 1ff6 00       		.byte	0
 8856 1ff7 00       		.byte	0
 8857 1ff8 04       		.byte	4
 8858 1ff9 00       		.byte	0
 8859 1ffa 00       		.byte	0
 8860 1ffb 00       		.byte	0
 8861 1ffc 02       		.byte	2
 8862 1ffd E0       		.byte	-32
 8863 1ffe 7F       		.byte	127
 8864 1fff 0F       		.byte	15
 8865 2000 80       		.byte	-128
 8866 2001 00       		.byte	0
 8867 2002 00       		.byte	0
 8868 2003 13       		.byte	19
 8869 2004 08       		.byte	8
 8870 2005 00       		.byte	0
 8871 2006 00       		.byte	0
 8872 2007 0A       		.byte	10
 8873 2008 00       		.byte	0
 8874 2009 00       		.byte	0
 8875 200a 01       		.byte	1
 8876 200b 00       		.byte	0
 8877 200c 43       		.byte	67
 8878 200d 02       		.byte	2
 8879 200e 01       		.byte	1
 8880 200f 00       		.byte	0
 8881 2010 00       		.byte	0
 8882 2011 2C       		.byte	44
 8883 2012 50       		.byte	80
 8884 2013 4E       		.byte	78
 8885 2014 3F       		.byte	63
 8886 2015 FF       		.byte	-1
 8887 2016 FF       		.byte	-1
 8888 2017 FF       		.byte	-1
 8889 2018 00       		.byte	0
 8890 2019 AF       		.byte	-81
 8891 201a 07       		.byte	7
 8892 201b 01       		.byte	1
 8893 201c 18       		.byte	24
 8894 201d 00       		.byte	0
 8895 201e 00       		.byte	0
 8896 201f 00       		.byte	0
 8897 2020 00       		.byte	0
 8898 2021 00       		.byte	0
 8899 2022 00       		.byte	0
 8900 2023 00       		.byte	0
 8901 2024 04       		.byte	4
 8902 2025 04       		.byte	4
 8903 2026 04       		.byte	4
 8904 2027 00       		.byte	0
 8905 2028 11       		.byte	17
 8906 2029 09       		.byte	9
 8907 202a 00       		.byte	0
 8908 202b 01       		.byte	1
 8909 202c 40       		.byte	64
 8910 202d 00       		.byte	0
 8911 202e 80       		.byte	-128
ARM GAS  C:\Users\Bruger\AppData\Local\Temp\ccj0lDyf.s 			page 183


 8912 202f 00       		.byte	0
 8913 2030 40       		.byte	64
 8914 2031 40       		.byte	64
 8915 2032 80       		.byte	-128
 8916 2033 00       		.byte	0
 8917 2034 40       		.byte	64
 8918 2035 00       		.byte	0
 8919 2036 50       		.byte	80
 8920 2037 A8       		.byte	-88
 8921 2038 40       		.byte	64
 8922 2039 20       		.byte	32
 8923 203a 50       		.byte	80
 8924 203b A8       		.byte	-88
 8925 203c 00       		.byte	0
 8926 203d 00       		.byte	0
 8927 203e 00       		.byte	0
 8928 203f 00       		.byte	0
 8929 2040 00       		.byte	0
 8930 2041 00       		.byte	0
 8931 2042 00       		.byte	0
 8932 2043 00       		.byte	0
 8933 2044 00       		.byte	0
 8934 2045 00       		.byte	0
 8935 2046 00       		.byte	0
 8936 2047 00       		.byte	0
 8937 2048 00       		.byte	0
 8938 2049 00       		.byte	0
 8939 204a 00       		.byte	0
 8940 204b 00       		.byte	0
 8941              		.align	2
 8942              		.type	BS_UDB_0_5_0_CONFIG_VAL.4923, %object
 8943              		.size	BS_UDB_0_5_0_CONFIG_VAL.4923, 128
 8944              	BS_UDB_0_5_0_CONFIG_VAL.4923:
 8945 204c 00       		.byte	0
 8946 204d 00       		.byte	0
 8947 204e 00       		.byte	0
 8948 204f 00       		.byte	0
 8949 2050 18       		.byte	24
 8950 2051 00       		.byte	0
 8951 2052 00       		.byte	0
 8952 2053 00       		.byte	0
 8953 2054 02       		.byte	2
 8954 2055 00       		.byte	0
 8955 2056 00       		.byte	0
 8956 2057 00       		.byte	0
 8957 2058 00       		.byte	0
 8958 2059 00       		.byte	0
 8959 205a 04       		.byte	4
 8960 205b 00       		.byte	0
 8961 205c 00       		.byte	0
 8962 205d 00       		.byte	0
 8963 205e 08       		.byte	8
 8964 205f 00       		.byte	0
 8965 2060 00       		.byte	0
 8966 2061 00       		.byte	0
 8967 2062 00       		.byte	0
 8968 2063 00       		.byte	0
ARM GAS  C:\Users\Bruger\AppData\Local\Temp\ccj0lDyf.s 			page 184


 8969 2064 10       		.byte	16
 8970 2065 00       		.byte	0
 8971 2066 00       		.byte	0
 8972 2067 00       		.byte	0
 8973 2068 00       		.byte	0
 8974 2069 00       		.byte	0
 8975 206a 10       		.byte	16
 8976 206b 00       		.byte	0
 8977 206c 00       		.byte	0
 8978 206d 00       		.byte	0
 8979 206e 00       		.byte	0
 8980 206f 00       		.byte	0
 8981 2070 03       		.byte	3
 8982 2071 00       		.byte	0
 8983 2072 00       		.byte	0
 8984 2073 00       		.byte	0
 8985 2074 00       		.byte	0
 8986 2075 00       		.byte	0
 8987 2076 00       		.byte	0
 8988 2077 00       		.byte	0
 8989 2078 03       		.byte	3
 8990 2079 00       		.byte	0
 8991 207a 00       		.byte	0
 8992 207b 00       		.byte	0
 8993 207c 02       		.byte	2
 8994 207d 00       		.byte	0
 8995 207e 01       		.byte	1
 8996 207f 00       		.byte	0
 8997 2080 1C       		.byte	28
 8998 2081 00       		.byte	0
 8999 2082 00       		.byte	0
 9000 2083 00       		.byte	0
 9001 2084 00       		.byte	0
 9002 2085 00       		.byte	0
 9003 2086 00       		.byte	0
 9004 2087 00       		.byte	0
 9005 2088 00       		.byte	0
 9006 2089 00       		.byte	0
 9007 208a 11       		.byte	17
 9008 208b 00       		.byte	0
 9009 208c 43       		.byte	67
 9010 208d 02       		.byte	2
 9011 208e 01       		.byte	1
 9012 208f 00       		.byte	0
 9013 2090 00       		.byte	0
 9014 2091 00       		.byte	0
 9015 2092 00       		.byte	0
 9016 2093 00       		.byte	0
 9017 2094 00       		.byte	0
 9018 2095 FF       		.byte	-1
 9019 2096 FF       		.byte	-1
 9020 2097 FF       		.byte	-1
 9021 2098 00       		.byte	0
 9022 2099 A0       		.byte	-96
 9023 209a 00       		.byte	0
 9024 209b 01       		.byte	1
 9025 209c 18       		.byte	24
ARM GAS  C:\Users\Bruger\AppData\Local\Temp\ccj0lDyf.s 			page 185


 9026 209d 00       		.byte	0
 9027 209e 00       		.byte	0
 9028 209f 00       		.byte	0
 9029 20a0 00       		.byte	0
 9030 20a1 00       		.byte	0
 9031 20a2 00       		.byte	0
 9032 20a3 00       		.byte	0
 9033 20a4 04       		.byte	4
 9034 20a5 00       		.byte	0
 9035 20a6 04       		.byte	4
 9036 20a7 00       		.byte	0
 9037 20a8 09       		.byte	9
 9038 20a9 09       		.byte	9
 9039 20aa 00       		.byte	0
 9040 20ab 01       		.byte	1
 9041 20ac 40       		.byte	64
 9042 20ad 00       		.byte	0
 9043 20ae 80       		.byte	-128
 9044 20af 00       		.byte	0
 9045 20b0 40       		.byte	64
 9046 20b1 40       		.byte	64
 9047 20b2 80       		.byte	-128
 9048 20b3 00       		.byte	0
 9049 20b4 40       		.byte	64
 9050 20b5 00       		.byte	0
 9051 20b6 50       		.byte	80
 9052 20b7 A8       		.byte	-88
 9053 20b8 40       		.byte	64
 9054 20b9 20       		.byte	32
 9055 20ba 50       		.byte	80
 9056 20bb A8       		.byte	-88
 9057 20bc 00       		.byte	0
 9058 20bd 00       		.byte	0
 9059 20be 00       		.byte	0
 9060 20bf 00       		.byte	0
 9061 20c0 00       		.byte	0
 9062 20c1 00       		.byte	0
 9063 20c2 00       		.byte	0
 9064 20c3 00       		.byte	0
 9065 20c4 00       		.byte	0
 9066 20c5 00       		.byte	0
 9067 20c6 00       		.byte	0
 9068 20c7 00       		.byte	0
 9069 20c8 00       		.byte	0
 9070 20c9 00       		.byte	0
 9071 20ca 00       		.byte	0
 9072 20cb 00       		.byte	0
 9073              		.align	2
 9074              		.type	BS_UDB_0_4_0_CONFIG_VAL.4922, %object
 9075              		.size	BS_UDB_0_4_0_CONFIG_VAL.4922, 128
 9076              	BS_UDB_0_4_0_CONFIG_VAL.4922:
 9077 20cc 00       		.byte	0
 9078 20cd 00       		.byte	0
 9079 20ce 00       		.byte	0
 9080 20cf 00       		.byte	0
 9081 20d0 00       		.byte	0
 9082 20d1 00       		.byte	0
ARM GAS  C:\Users\Bruger\AppData\Local\Temp\ccj0lDyf.s 			page 186


 9083 20d2 00       		.byte	0
 9084 20d3 00       		.byte	0
 9085 20d4 00       		.byte	0
 9086 20d5 00       		.byte	0
 9087 20d6 00       		.byte	0
 9088 20d7 00       		.byte	0
 9089 20d8 00       		.byte	0
 9090 20d9 00       		.byte	0
 9091 20da 00       		.byte	0
 9092 20db 00       		.byte	0
 9093 20dc 00       		.byte	0
 9094 20dd 00       		.byte	0
 9095 20de 00       		.byte	0
 9096 20df 00       		.byte	0
 9097 20e0 00       		.byte	0
 9098 20e1 00       		.byte	0
 9099 20e2 00       		.byte	0
 9100 20e3 00       		.byte	0
 9101 20e4 00       		.byte	0
 9102 20e5 00       		.byte	0
 9103 20e6 00       		.byte	0
 9104 20e7 00       		.byte	0
 9105 20e8 00       		.byte	0
 9106 20e9 01       		.byte	1
 9107 20ea 00       		.byte	0
 9108 20eb 00       		.byte	0
 9109 20ec 00       		.byte	0
 9110 20ed 00       		.byte	0
 9111 20ee 00       		.byte	0
 9112 20ef 00       		.byte	0
 9113 20f0 00       		.byte	0
 9114 20f1 00       		.byte	0
 9115 20f2 00       		.byte	0
 9116 20f3 00       		.byte	0
 9117 20f4 00       		.byte	0
 9118 20f5 00       		.byte	0
 9119 20f6 00       		.byte	0
 9120 20f7 00       		.byte	0
 9121 20f8 00       		.byte	0
 9122 20f9 00       		.byte	0
 9123 20fa 00       		.byte	0
 9124 20fb 00       		.byte	0
 9125 20fc 00       		.byte	0
 9126 20fd 00       		.byte	0
 9127 20fe 00       		.byte	0
 9128 20ff 00       		.byte	0
 9129 2100 00       		.byte	0
 9130 2101 01       		.byte	1
 9131 2102 00       		.byte	0
 9132 2103 00       		.byte	0
 9133 2104 00       		.byte	0
 9134 2105 00       		.byte	0
 9135 2106 00       		.byte	0
 9136 2107 00       		.byte	0
 9137 2108 00       		.byte	0
 9138 2109 00       		.byte	0
 9139 210a 00       		.byte	0
ARM GAS  C:\Users\Bruger\AppData\Local\Temp\ccj0lDyf.s 			page 187


 9140 210b 10       		.byte	16
 9141 210c 56       		.byte	86
 9142 210d 03       		.byte	3
 9143 210e 00       		.byte	0
 9144 210f 00       		.byte	0
 9145 2110 00       		.byte	0
 9146 2111 EC       		.byte	-20
 9147 2112 BC       		.byte	-68
 9148 2113 00       		.byte	0
 9149 2114 0F       		.byte	15
 9150 2115 FF       		.byte	-1
 9151 2116 FF       		.byte	-1
 9152 2117 FF       		.byte	-1
 9153 2118 00       		.byte	0
 9154 2119 00       		.byte	0
 9155 211a F0       		.byte	-16
 9156 211b 44       		.byte	68
 9157 211c 0C       		.byte	12
 9158 211d 00       		.byte	0
 9159 211e 00       		.byte	0
 9160 211f 00       		.byte	0
 9161 2120 00       		.byte	0
 9162 2121 00       		.byte	0
 9163 2122 00       		.byte	0
 9164 2123 00       		.byte	0
 9165 2124 00       		.byte	0
 9166 2125 04       		.byte	4
 9167 2126 04       		.byte	4
 9168 2127 04       		.byte	4
 9169 2128 00       		.byte	0
 9170 2129 00       		.byte	0
 9171 212a 00       		.byte	0
 9172 212b 01       		.byte	1
 9173 212c 00       		.byte	0
 9174 212d 00       		.byte	0
 9175 212e 00       		.byte	0
 9176 212f 00       		.byte	0
 9177 2130 00       		.byte	0
 9178 2131 00       		.byte	0
 9179 2132 C0       		.byte	-64
 9180 2133 00       		.byte	0
 9181 2134 00       		.byte	0
 9182 2135 00       		.byte	0
 9183 2136 40       		.byte	64
 9184 2137 02       		.byte	2
 9185 2138 00       		.byte	0
 9186 2139 00       		.byte	0
 9187 213a 00       		.byte	0
 9188 213b 00       		.byte	0
 9189 213c 00       		.byte	0
 9190 213d 00       		.byte	0
 9191 213e 00       		.byte	0
 9192 213f 00       		.byte	0
 9193 2140 00       		.byte	0
 9194 2141 00       		.byte	0
 9195 2142 00       		.byte	0
 9196 2143 00       		.byte	0
ARM GAS  C:\Users\Bruger\AppData\Local\Temp\ccj0lDyf.s 			page 188


 9197 2144 00       		.byte	0
 9198 2145 00       		.byte	0
 9199 2146 00       		.byte	0
 9200 2147 00       		.byte	0
 9201 2148 00       		.byte	0
 9202 2149 00       		.byte	0
 9203 214a 00       		.byte	0
 9204 214b 00       		.byte	0
 9205              		.align	2
 9206              		.type	BS_UDB_0_4_1_CONFIG_VAL.4921, %object
 9207              		.size	BS_UDB_0_4_1_CONFIG_VAL.4921, 128
 9208              	BS_UDB_0_4_1_CONFIG_VAL.4921:
 9209 214c 00       		.byte	0
 9210 214d 04       		.byte	4
 9211 214e 00       		.byte	0
 9212 214f 09       		.byte	9
 9213 2150 00       		.byte	0
 9214 2151 00       		.byte	0
 9215 2152 00       		.byte	0
 9216 2153 00       		.byte	0
 9217 2154 00       		.byte	0
 9218 2155 05       		.byte	5
 9219 2156 04       		.byte	4
 9220 2157 0A       		.byte	10
 9221 2158 01       		.byte	1
 9222 2159 A0       		.byte	-96
 9223 215a 00       		.byte	0
 9224 215b 00       		.byte	0
 9225 215c 00       		.byte	0
 9226 215d 03       		.byte	3
 9227 215e 00       		.byte	0
 9228 215f 04       		.byte	4
 9229 2160 00       		.byte	0
 9230 2161 0E       		.byte	14
 9231 2162 00       		.byte	0
 9232 2163 00       		.byte	0
 9233 2164 00       		.byte	0
 9234 2165 00       		.byte	0
 9235 2166 00       		.byte	0
 9236 2167 A0       		.byte	-96
 9237 2168 00       		.byte	0
 9238 2169 00       		.byte	0
 9239 216a 00       		.byte	0
 9240 216b 10       		.byte	16
 9241 216c 00       		.byte	0
 9242 216d C0       		.byte	-64
 9243 216e 0A       		.byte	10
 9244 216f 00       		.byte	0
 9245 2170 08       		.byte	8
 9246 2171 00       		.byte	0
 9247 2172 00       		.byte	0
 9248 2173 60       		.byte	96
 9249 2174 00       		.byte	0
 9250 2175 00       		.byte	0
 9251 2176 01       		.byte	1
 9252 2177 10       		.byte	16
 9253 2178 00       		.byte	0
ARM GAS  C:\Users\Bruger\AppData\Local\Temp\ccj0lDyf.s 			page 189


 9254 2179 10       		.byte	16
 9255 217a 00       		.byte	0
 9256 217b 00       		.byte	0
 9257 217c 04       		.byte	4
 9258 217d 00       		.byte	0
 9259 217e 03       		.byte	3
 9260 217f E0       		.byte	-32
 9261 2180 08       		.byte	8
 9262 2181 0F       		.byte	15
 9263 2182 01       		.byte	1
 9264 2183 10       		.byte	16
 9265 2184 00       		.byte	0
 9266 2185 20       		.byte	32
 9267 2186 00       		.byte	0
 9268 2187 00       		.byte	0
 9269 2188 00       		.byte	0
 9270 2189 00       		.byte	0
 9271 218a 54       		.byte	84
 9272 218b 44       		.byte	68
 9273 218c 65       		.byte	101
 9274 218d 01       		.byte	1
 9275 218e 40       		.byte	64
 9276 218f 00       		.byte	0
 9277 2190 03       		.byte	3
 9278 2191 DE       		.byte	-34
 9279 2192 0F       		.byte	15
 9280 2193 CB       		.byte	-53
 9281 2194 37       		.byte	55
 9282 2195 FF       		.byte	-1
 9283 2196 FF       		.byte	-1
 9284 2197 FF       		.byte	-1
 9285 2198 22       		.byte	34
 9286 2199 00       		.byte	0
 9287 219a F0       		.byte	-16
 9288 219b 08       		.byte	8
 9289 219c 04       		.byte	4
 9290 219d 00       		.byte	0
 9291 219e 00       		.byte	0
 9292 219f 00       		.byte	0
 9293 21a0 17       		.byte	23
 9294 21a1 00       		.byte	0
 9295 21a2 04       		.byte	4
 9296 21a3 00       		.byte	0
 9297 21a4 04       		.byte	4
 9298 21a5 04       		.byte	4
 9299 21a6 04       		.byte	4
 9300 21a7 04       		.byte	4
 9301 21a8 19       		.byte	25
 9302 21a9 91       		.byte	-111
 9303 21aa 00       		.byte	0
 9304 21ab 01       		.byte	1
 9305 21ac 00       		.byte	0
 9306 21ad 00       		.byte	0
 9307 21ae C0       		.byte	-64
 9308 21af 00       		.byte	0
 9309 21b0 40       		.byte	64
 9310 21b1 01       		.byte	1
ARM GAS  C:\Users\Bruger\AppData\Local\Temp\ccj0lDyf.s 			page 190


 9311 21b2 10       		.byte	16
 9312 21b3 11       		.byte	17
 9313 21b4 C0       		.byte	-64
 9314 21b5 01       		.byte	1
 9315 21b6 00       		.byte	0
 9316 21b7 11       		.byte	17
 9317 21b8 40       		.byte	64
 9318 21b9 01       		.byte	1
 9319 21ba 40       		.byte	64
 9320 21bb 01       		.byte	1
 9321 21bc 00       		.byte	0
 9322 21bd 00       		.byte	0
 9323 21be 00       		.byte	0
 9324 21bf 00       		.byte	0
 9325 21c0 00       		.byte	0
 9326 21c1 00       		.byte	0
 9327 21c2 00       		.byte	0
 9328 21c3 00       		.byte	0
 9329 21c4 00       		.byte	0
 9330 21c5 00       		.byte	0
 9331 21c6 00       		.byte	0
 9332 21c7 00       		.byte	0
 9333 21c8 00       		.byte	0
 9334 21c9 00       		.byte	0
 9335 21ca 00       		.byte	0
 9336 21cb 00       		.byte	0
 9337              		.align	2
 9338              		.type	BS_UDB_0_3_1_CONFIG_VAL.4920, %object
 9339              		.size	BS_UDB_0_3_1_CONFIG_VAL.4920, 128
 9340              	BS_UDB_0_3_1_CONFIG_VAL.4920:
 9341 21cc 00       		.byte	0
 9342 21cd 00       		.byte	0
 9343 21ce 00       		.byte	0
 9344 21cf 00       		.byte	0
 9345 21d0 00       		.byte	0
 9346 21d1 00       		.byte	0
 9347 21d2 07       		.byte	7
 9348 21d3 00       		.byte	0
 9349 21d4 00       		.byte	0
 9350 21d5 00       		.byte	0
 9351 21d6 0F       		.byte	15
 9352 21d7 00       		.byte	0
 9353 21d8 00       		.byte	0
 9354 21d9 00       		.byte	0
 9355 21da 01       		.byte	1
 9356 21db 00       		.byte	0
 9357 21dc 00       		.byte	0
 9358 21dd 00       		.byte	0
 9359 21de 00       		.byte	0
 9360 21df 00       		.byte	0
 9361 21e0 00       		.byte	0
 9362 21e1 00       		.byte	0
 9363 21e2 00       		.byte	0
 9364 21e3 01       		.byte	1
 9365 21e4 00       		.byte	0
 9366 21e5 00       		.byte	0
 9367 21e6 03       		.byte	3
ARM GAS  C:\Users\Bruger\AppData\Local\Temp\ccj0lDyf.s 			page 191


 9368 21e7 00       		.byte	0
 9369 21e8 00       		.byte	0
 9370 21e9 00       		.byte	0
 9371 21ea 0F       		.byte	15
 9372 21eb 00       		.byte	0
 9373 21ec 00       		.byte	0
 9374 21ed 00       		.byte	0
 9375 21ee 0F       		.byte	15
 9376 21ef 00       		.byte	0
 9377 21f0 00       		.byte	0
 9378 21f1 00       		.byte	0
 9379 21f2 0F       		.byte	15
 9380 21f3 00       		.byte	0
 9381 21f4 00       		.byte	0
 9382 21f5 00       		.byte	0
 9383 21f6 00       		.byte	0
 9384 21f7 00       		.byte	0
 9385 21f8 00       		.byte	0
 9386 21f9 00       		.byte	0
 9387 21fa 00       		.byte	0
 9388 21fb 00       		.byte	0
 9389 21fc 02       		.byte	2
 9390 21fd 01       		.byte	1
 9391 21fe 08       		.byte	8
 9392 21ff 00       		.byte	0
 9393 2200 04       		.byte	4
 9394 2201 00       		.byte	0
 9395 2202 01       		.byte	1
 9396 2203 00       		.byte	0
 9397 2204 00       		.byte	0
 9398 2205 00       		.byte	0
 9399 2206 AA       		.byte	-86
 9400 2207 00       		.byte	0
 9401 2208 00       		.byte	0
 9402 2209 00       		.byte	0
 9403 220a 00       		.byte	0
 9404 220b 00       		.byte	0
 9405 220c 14       		.byte	20
 9406 220d 02       		.byte	2
 9407 220e 00       		.byte	0
 9408 220f 00       		.byte	0
 9409 2210 00       		.byte	0
 9410 2211 52       		.byte	82
 9411 2212 E0       		.byte	-32
 9412 2213 0C       		.byte	12
 9413 2214 1F       		.byte	31
 9414 2215 FF       		.byte	-1
 9415 2216 FF       		.byte	-1
 9416 2217 FF       		.byte	-1
 9417 2218 00       		.byte	0
 9418 2219 AF       		.byte	-81
 9419 221a 07       		.byte	7
 9420 221b 01       		.byte	1
 9421 221c 18       		.byte	24
 9422 221d 00       		.byte	0
 9423 221e 00       		.byte	0
 9424 221f 00       		.byte	0
ARM GAS  C:\Users\Bruger\AppData\Local\Temp\ccj0lDyf.s 			page 192


 9425 2220 01       		.byte	1
 9426 2221 00       		.byte	0
 9427 2222 04       		.byte	4
 9428 2223 00       		.byte	0
 9429 2224 04       		.byte	4
 9430 2225 04       		.byte	4
 9431 2226 04       		.byte	4
 9432 2227 04       		.byte	4
 9433 2228 95       		.byte	-107
 9434 2229 09       		.byte	9
 9435 222a 00       		.byte	0
 9436 222b 01       		.byte	1
 9437 222c 40       		.byte	64
 9438 222d 00       		.byte	0
 9439 222e 80       		.byte	-128
 9440 222f 00       		.byte	0
 9441 2230 40       		.byte	64
 9442 2231 40       		.byte	64
 9443 2232 80       		.byte	-128
 9444 2233 00       		.byte	0
 9445 2234 40       		.byte	64
 9446 2235 00       		.byte	0
 9447 2236 50       		.byte	80
 9448 2237 A8       		.byte	-88
 9449 2238 40       		.byte	64
 9450 2239 20       		.byte	32
 9451 223a 50       		.byte	80
 9452 223b A8       		.byte	-88
 9453 223c 00       		.byte	0
 9454 223d 00       		.byte	0
 9455 223e 00       		.byte	0
 9456 223f 00       		.byte	0
 9457 2240 00       		.byte	0
 9458 2241 00       		.byte	0
 9459 2242 00       		.byte	0
 9460 2243 00       		.byte	0
 9461 2244 00       		.byte	0
 9462 2245 00       		.byte	0
 9463 2246 00       		.byte	0
 9464 2247 00       		.byte	0
 9465 2248 00       		.byte	0
 9466 2249 00       		.byte	0
 9467 224a 00       		.byte	0
 9468 224b 00       		.byte	0
 9469              		.align	2
 9470              		.type	BS_UDB_0_3_0_CONFIG_VAL.4919, %object
 9471              		.size	BS_UDB_0_3_0_CONFIG_VAL.4919, 128
 9472              	BS_UDB_0_3_0_CONFIG_VAL.4919:
 9473 224c 00       		.byte	0
 9474 224d 00       		.byte	0
 9475 224e 03       		.byte	3
 9476 224f D5       		.byte	-43
 9477 2250 00       		.byte	0
 9478 2251 0F       		.byte	15
 9479 2252 00       		.byte	0
 9480 2253 00       		.byte	0
 9481 2254 01       		.byte	1
ARM GAS  C:\Users\Bruger\AppData\Local\Temp\ccj0lDyf.s 			page 193


 9482 2255 33       		.byte	51
 9483 2256 00       		.byte	0
 9484 2257 00       		.byte	0
 9485 2258 00       		.byte	0
 9486 2259 00       		.byte	0
 9487 225a 00       		.byte	0
 9488 225b 00       		.byte	0
 9489 225c 00       		.byte	0
 9490 225d 55       		.byte	85
 9491 225e 00       		.byte	0
 9492 225f 00       		.byte	0
 9493 2260 00       		.byte	0
 9494 2261 00       		.byte	0
 9495 2262 00       		.byte	0
 9496 2263 00       		.byte	0
 9497 2264 00       		.byte	0
 9498 2265 00       		.byte	0
 9499 2266 00       		.byte	0
 9500 2267 E6       		.byte	-26
 9501 2268 00       		.byte	0
 9502 2269 00       		.byte	0
 9503 226a 00       		.byte	0
 9504 226b 00       		.byte	0
 9505 226c 00       		.byte	0
 9506 226d 00       		.byte	0
 9507 226e 00       		.byte	0
 9508 226f 00       		.byte	0
 9509 2270 00       		.byte	0
 9510 2271 00       		.byte	0
 9511 2272 00       		.byte	0
 9512 2273 00       		.byte	0
 9513 2274 00       		.byte	0
 9514 2275 00       		.byte	0
 9515 2276 00       		.byte	0
 9516 2277 00       		.byte	0
 9517 2278 00       		.byte	0
 9518 2279 00       		.byte	0
 9519 227a 00       		.byte	0
 9520 227b F8       		.byte	-8
 9521 227c 00       		.byte	0
 9522 227d 7F       		.byte	127
 9523 227e 02       		.byte	2
 9524 227f 80       		.byte	-128
 9525 2280 00       		.byte	0
 9526 2281 00       		.byte	0
 9527 2282 01       		.byte	1
 9528 2283 00       		.byte	0
 9529 2284 00       		.byte	0
 9530 2285 00       		.byte	0
 9531 2286 00       		.byte	0
 9532 2287 08       		.byte	8
 9533 2288 00       		.byte	0
 9534 2289 00       		.byte	0
 9535 228a 40       		.byte	64
 9536 228b 01       		.byte	1
 9537 228c 14       		.byte	20
 9538 228d 02       		.byte	2
ARM GAS  C:\Users\Bruger\AppData\Local\Temp\ccj0lDyf.s 			page 194


 9539 228e 00       		.byte	0
 9540 228f 00       		.byte	0
 9541 2290 00       		.byte	0
 9542 2291 00       		.byte	0
 9543 2292 00       		.byte	0
 9544 2293 00       		.byte	0
 9545 2294 00       		.byte	0
 9546 2295 FF       		.byte	-1
 9547 2296 FF       		.byte	-1
 9548 2297 FF       		.byte	-1
 9549 2298 00       		.byte	0
 9550 2299 AF       		.byte	-81
 9551 229a 07       		.byte	7
 9552 229b 01       		.byte	1
 9553 229c 18       		.byte	24
 9554 229d 00       		.byte	0
 9555 229e FF       		.byte	-1
 9556 229f 00       		.byte	0
 9557 22a0 00       		.byte	0
 9558 22a1 00       		.byte	0
 9559 22a2 10       		.byte	16
 9560 22a3 00       		.byte	0
 9561 22a4 04       		.byte	4
 9562 22a5 04       		.byte	4
 9563 22a6 04       		.byte	4
 9564 22a7 04       		.byte	4
 9565 22a8 59       		.byte	89
 9566 22a9 59       		.byte	89
 9567 22aa 00       		.byte	0
 9568 22ab 01       		.byte	1
 9569 22ac 40       		.byte	64
 9570 22ad 00       		.byte	0
 9571 22ae 80       		.byte	-128
 9572 22af 00       		.byte	0
 9573 22b0 40       		.byte	64
 9574 22b1 40       		.byte	64
 9575 22b2 80       		.byte	-128
 9576 22b3 00       		.byte	0
 9577 22b4 40       		.byte	64
 9578 22b5 00       		.byte	0
 9579 22b6 50       		.byte	80
 9580 22b7 A8       		.byte	-88
 9581 22b8 40       		.byte	64
 9582 22b9 20       		.byte	32
 9583 22ba 50       		.byte	80
 9584 22bb A8       		.byte	-88
 9585 22bc 00       		.byte	0
 9586 22bd 00       		.byte	0
 9587 22be 00       		.byte	0
 9588 22bf 00       		.byte	0
 9589 22c0 00       		.byte	0
 9590 22c1 00       		.byte	0
 9591 22c2 00       		.byte	0
 9592 22c3 00       		.byte	0
 9593 22c4 00       		.byte	0
 9594 22c5 00       		.byte	0
 9595 22c6 00       		.byte	0
ARM GAS  C:\Users\Bruger\AppData\Local\Temp\ccj0lDyf.s 			page 195


 9596 22c7 00       		.byte	0
 9597 22c8 00       		.byte	0
 9598 22c9 00       		.byte	0
 9599 22ca 00       		.byte	0
 9600 22cb 00       		.byte	0
 9601              		.align	2
 9602              		.type	BS_UDB_0_2_0_CONFIG_VAL.4918, %object
 9603              		.size	BS_UDB_0_2_0_CONFIG_VAL.4918, 128
 9604              	BS_UDB_0_2_0_CONFIG_VAL.4918:
 9605 22cc 55       		.byte	85
 9606 22cd 00       		.byte	0
 9607 22ce 00       		.byte	0
 9608 22cf 00       		.byte	0
 9609 22d0 00       		.byte	0
 9610 22d1 55       		.byte	85
 9611 22d2 66       		.byte	102
 9612 22d3 00       		.byte	0
 9613 22d4 00       		.byte	0
 9614 22d5 00       		.byte	0
 9615 22d6 55       		.byte	85
 9616 22d7 0F       		.byte	15
 9617 22d8 00       		.byte	0
 9618 22d9 00       		.byte	0
 9619 22da 00       		.byte	0
 9620 22db 00       		.byte	0
 9621 22dc 00       		.byte	0
 9622 22dd 00       		.byte	0
 9623 22de 00       		.byte	0
 9624 22df 00       		.byte	0
 9625 22e0 00       		.byte	0
 9626 22e1 00       		.byte	0
 9627 22e2 00       		.byte	0
 9628 22e3 00       		.byte	0
 9629 22e4 00       		.byte	0
 9630 22e5 78       		.byte	120
 9631 22e6 78       		.byte	120
 9632 22e7 00       		.byte	0
 9633 22e8 00       		.byte	0
 9634 22e9 00       		.byte	0
 9635 22ea 00       		.byte	0
 9636 22eb 55       		.byte	85
 9637 22ec 33       		.byte	51
 9638 22ed 00       		.byte	0
 9639 22ee 00       		.byte	0
 9640 22ef 33       		.byte	51
 9641 22f0 0F       		.byte	15
 9642 22f1 00       		.byte	0
 9643 22f2 00       		.byte	0
 9644 22f3 00       		.byte	0
 9645 22f4 00       		.byte	0
 9646 22f5 66       		.byte	102
 9647 22f6 00       		.byte	0
 9648 22f7 00       		.byte	0
 9649 22f8 00       		.byte	0
 9650 22f9 00       		.byte	0
 9651 22fa 00       		.byte	0
 9652 22fb 00       		.byte	0
ARM GAS  C:\Users\Bruger\AppData\Local\Temp\ccj0lDyf.s 			page 196


 9653 22fc 7F       		.byte	127
 9654 22fd 00       		.byte	0
 9655 22fe 00       		.byte	0
 9656 22ff 7F       		.byte	127
 9657 2300 00       		.byte	0
 9658 2301 00       		.byte	0
 9659 2302 00       		.byte	0
 9660 2303 00       		.byte	0
 9661 2304 00       		.byte	0
 9662 2305 00       		.byte	0
 9663 2306 00       		.byte	0
 9664 2307 03       		.byte	3
 9665 2308 00       		.byte	0
 9666 2309 00       		.byte	0
 9667 230a 01       		.byte	1
 9668 230b 04       		.byte	4
 9669 230c 14       		.byte	20
 9670 230d 02       		.byte	2
 9671 230e 00       		.byte	0
 9672 230f 00       		.byte	0
 9673 2310 00       		.byte	0
 9674 2311 00       		.byte	0
 9675 2312 00       		.byte	0
 9676 2313 00       		.byte	0
 9677 2314 00       		.byte	0
 9678 2315 FF       		.byte	-1
 9679 2316 FF       		.byte	-1
 9680 2317 FF       		.byte	-1
 9681 2318 00       		.byte	0
 9682 2319 AF       		.byte	-81
 9683 231a 07       		.byte	7
 9684 231b 01       		.byte	1
 9685 231c 18       		.byte	24
 9686 231d 00       		.byte	0
 9687 231e 80       		.byte	-128
 9688 231f 00       		.byte	0
 9689 2320 07       		.byte	7
 9690 2321 00       		.byte	0
 9691 2322 00       		.byte	0
 9692 2323 00       		.byte	0
 9693 2324 04       		.byte	4
 9694 2325 04       		.byte	4
 9695 2326 04       		.byte	4
 9696 2327 04       		.byte	4
 9697 2328 50       		.byte	80
 9698 2329 99       		.byte	-103
 9699 232a 00       		.byte	0
 9700 232b 01       		.byte	1
 9701 232c 40       		.byte	64
 9702 232d 00       		.byte	0
 9703 232e 80       		.byte	-128
 9704 232f 00       		.byte	0
 9705 2330 40       		.byte	64
 9706 2331 40       		.byte	64
 9707 2332 80       		.byte	-128
 9708 2333 00       		.byte	0
 9709 2334 40       		.byte	64
ARM GAS  C:\Users\Bruger\AppData\Local\Temp\ccj0lDyf.s 			page 197


 9710 2335 00       		.byte	0
 9711 2336 50       		.byte	80
 9712 2337 A8       		.byte	-88
 9713 2338 40       		.byte	64
 9714 2339 20       		.byte	32
 9715 233a 50       		.byte	80
 9716 233b A8       		.byte	-88
 9717 233c 00       		.byte	0
 9718 233d 00       		.byte	0
 9719 233e 00       		.byte	0
 9720 233f 00       		.byte	0
 9721 2340 00       		.byte	0
 9722 2341 00       		.byte	0
 9723 2342 00       		.byte	0
 9724 2343 00       		.byte	0
 9725 2344 00       		.byte	0
 9726 2345 00       		.byte	0
 9727 2346 00       		.byte	0
 9728 2347 00       		.byte	0
 9729 2348 00       		.byte	0
 9730 2349 00       		.byte	0
 9731 234a 00       		.byte	0
 9732 234b 00       		.byte	0
 9733              		.align	2
 9734              		.type	BS_UDB_0_2_1_CONFIG_VAL.4917, %object
 9735              		.size	BS_UDB_0_2_1_CONFIG_VAL.4917, 128
 9736              	BS_UDB_0_2_1_CONFIG_VAL.4917:
 9737 234c 00       		.byte	0
 9738 234d 00       		.byte	0
 9739 234e 01       		.byte	1
 9740 234f 00       		.byte	0
 9741 2350 00       		.byte	0
 9742 2351 00       		.byte	0
 9743 2352 0C       		.byte	12
 9744 2353 00       		.byte	0
 9745 2354 00       		.byte	0
 9746 2355 00       		.byte	0
 9747 2356 00       		.byte	0
 9748 2357 00       		.byte	0
 9749 2358 04       		.byte	4
 9750 2359 00       		.byte	0
 9751 235a 00       		.byte	0
 9752 235b 00       		.byte	0
 9753 235c 00       		.byte	0
 9754 235d 00       		.byte	0
 9755 235e 00       		.byte	0
 9756 235f 01       		.byte	1
 9757 2360 01       		.byte	1
 9758 2361 00       		.byte	0
 9759 2362 02       		.byte	2
 9760 2363 00       		.byte	0
 9761 2364 04       		.byte	4
 9762 2365 04       		.byte	4
 9763 2366 00       		.byte	0
 9764 2367 00       		.byte	0
 9765 2368 00       		.byte	0
 9766 2369 00       		.byte	0
ARM GAS  C:\Users\Bruger\AppData\Local\Temp\ccj0lDyf.s 			page 198


 9767 236a 00       		.byte	0
 9768 236b 04       		.byte	4
 9769 236c 00       		.byte	0
 9770 236d 00       		.byte	0
 9771 236e 00       		.byte	0
 9772 236f 00       		.byte	0
 9773 2370 00       		.byte	0
 9774 2371 00       		.byte	0
 9775 2372 00       		.byte	0
 9776 2373 00       		.byte	0
 9777 2374 00       		.byte	0
 9778 2375 00       		.byte	0
 9779 2376 00       		.byte	0
 9780 2377 02       		.byte	2
 9781 2378 00       		.byte	0
 9782 2379 02       		.byte	2
 9783 237a 02       		.byte	2
 9784 237b 00       		.byte	0
 9785 237c 08       		.byte	8
 9786 237d 00       		.byte	0
 9787 237e 03       		.byte	3
 9788 237f 04       		.byte	4
 9789 2380 04       		.byte	4
 9790 2381 02       		.byte	2
 9791 2382 00       		.byte	0
 9792 2383 01       		.byte	1
 9793 2384 00       		.byte	0
 9794 2385 00       		.byte	0
 9795 2386 20       		.byte	32
 9796 2387 00       		.byte	0
 9797 2388 00       		.byte	0
 9798 2389 00       		.byte	0
 9799 238a 04       		.byte	4
 9800 238b 14       		.byte	20
 9801 238c 14       		.byte	20
 9802 238d 06       		.byte	6
 9803 238e 00       		.byte	0
 9804 238f 00       		.byte	0
 9805 2390 00       		.byte	0
 9806 2391 00       		.byte	0
 9807 2392 00       		.byte	0
 9808 2393 00       		.byte	0
 9809 2394 00       		.byte	0
 9810 2395 FF       		.byte	-1
 9811 2396 FF       		.byte	-1
 9812 2397 FF       		.byte	-1
 9813 2398 00       		.byte	0
 9814 2399 A0       		.byte	-96
 9815 239a 00       		.byte	0
 9816 239b 01       		.byte	1
 9817 239c 18       		.byte	24
 9818 239d 00       		.byte	0
 9819 239e 80       		.byte	-128
 9820 239f 00       		.byte	0
 9821 23a0 07       		.byte	7
 9822 23a1 00       		.byte	0
 9823 23a2 04       		.byte	4
ARM GAS  C:\Users\Bruger\AppData\Local\Temp\ccj0lDyf.s 			page 199


 9824 23a3 00       		.byte	0
 9825 23a4 04       		.byte	4
 9826 23a5 04       		.byte	4
 9827 23a6 04       		.byte	4
 9828 23a7 04       		.byte	4
 9829 23a8 99       		.byte	-103
 9830 23a9 99       		.byte	-103
 9831 23aa 00       		.byte	0
 9832 23ab 01       		.byte	1
 9833 23ac 40       		.byte	64
 9834 23ad 00       		.byte	0
 9835 23ae 80       		.byte	-128
 9836 23af 00       		.byte	0
 9837 23b0 40       		.byte	64
 9838 23b1 40       		.byte	64
 9839 23b2 80       		.byte	-128
 9840 23b3 00       		.byte	0
 9841 23b4 40       		.byte	64
 9842 23b5 00       		.byte	0
 9843 23b6 50       		.byte	80
 9844 23b7 A8       		.byte	-88
 9845 23b8 40       		.byte	64
 9846 23b9 20       		.byte	32
 9847 23ba 50       		.byte	80
 9848 23bb A8       		.byte	-88
 9849 23bc 00       		.byte	0
 9850 23bd 00       		.byte	0
 9851 23be 00       		.byte	0
 9852 23bf 00       		.byte	0
 9853 23c0 00       		.byte	0
 9854 23c1 00       		.byte	0
 9855 23c2 00       		.byte	0
 9856 23c3 00       		.byte	0
 9857 23c4 00       		.byte	0
 9858 23c5 00       		.byte	0
 9859 23c6 00       		.byte	0
 9860 23c7 00       		.byte	0
 9861 23c8 00       		.byte	0
 9862 23c9 00       		.byte	0
 9863 23ca 00       		.byte	0
 9864 23cb 00       		.byte	0
 9865              		.align	2
 9866              		.type	BS_UDB_1_2_0_CONFIG_VAL.4916, %object
 9867              		.size	BS_UDB_1_2_0_CONFIG_VAL.4916, 128
 9868              	BS_UDB_1_2_0_CONFIG_VAL.4916:
 9869 23cc 55       		.byte	85
 9870 23cd 00       		.byte	0
 9871 23ce 00       		.byte	0
 9872 23cf 00       		.byte	0
 9873 23d0 00       		.byte	0
 9874 23d1 03       		.byte	3
 9875 23d2 00       		.byte	0
 9876 23d3 00       		.byte	0
 9877 23d4 00       		.byte	0
 9878 23d5 02       		.byte	2
 9879 23d6 78       		.byte	120
 9880 23d7 00       		.byte	0
ARM GAS  C:\Users\Bruger\AppData\Local\Temp\ccj0lDyf.s 			page 200


 9881 23d8 00       		.byte	0
 9882 23d9 00       		.byte	0
 9883 23da 80       		.byte	-128
 9884 23db 00       		.byte	0
 9885 23dc 00       		.byte	0
 9886 23dd 03       		.byte	3
 9887 23de 00       		.byte	0
 9888 23df 00       		.byte	0
 9889 23e0 00       		.byte	0
 9890 23e1 00       		.byte	0
 9891 23e2 00       		.byte	0
 9892 23e3 00       		.byte	0
 9893 23e4 00       		.byte	0
 9894 23e5 00       		.byte	0
 9895 23e6 00       		.byte	0
 9896 23e7 00       		.byte	0
 9897 23e8 33       		.byte	51
 9898 23e9 00       		.byte	0
 9899 23ea 00       		.byte	0
 9900 23eb 00       		.byte	0
 9901 23ec 00       		.byte	0
 9902 23ed 00       		.byte	0
 9903 23ee 66       		.byte	102
 9904 23ef 00       		.byte	0
 9905 23f0 0F       		.byte	15
 9906 23f1 00       		.byte	0
 9907 23f2 00       		.byte	0
 9908 23f3 00       		.byte	0
 9909 23f4 00       		.byte	0
 9910 23f5 00       		.byte	0
 9911 23f6 55       		.byte	85
 9912 23f7 00       		.byte	0
 9913 23f8 00       		.byte	0
 9914 23f9 00       		.byte	0
 9915 23fa 00       		.byte	0
 9916 23fb 00       		.byte	0
 9917 23fc 80       		.byte	-128
 9918 23fd 00       		.byte	0
 9919 23fe 7F       		.byte	127
 9920 23ff 01       		.byte	1
 9921 2400 00       		.byte	0
 9922 2401 02       		.byte	2
 9923 2402 00       		.byte	0
 9924 2403 00       		.byte	0
 9925 2404 00       		.byte	0
 9926 2405 00       		.byte	0
 9927 2406 00       		.byte	0
 9928 2407 00       		.byte	0
 9929 2408 00       		.byte	0
 9930 2409 00       		.byte	0
 9931 240a 04       		.byte	4
 9932 240b 10       		.byte	16
 9933 240c 30       		.byte	48
 9934 240d 01       		.byte	1
 9935 240e 00       		.byte	0
 9936 240f 00       		.byte	0
 9937 2410 00       		.byte	0
ARM GAS  C:\Users\Bruger\AppData\Local\Temp\ccj0lDyf.s 			page 201


 9938 2411 C5       		.byte	-59
 9939 2412 2E       		.byte	46
 9940 2413 40       		.byte	64
 9941 2414 3F       		.byte	63
 9942 2415 FF       		.byte	-1
 9943 2416 FF       		.byte	-1
 9944 2417 FF       		.byte	-1
 9945 2418 00       		.byte	0
 9946 2419 AF       		.byte	-81
 9947 241a 07       		.byte	7
 9948 241b 01       		.byte	1
 9949 241c 18       		.byte	24
 9950 241d 00       		.byte	0
 9951 241e 00       		.byte	0
 9952 241f 00       		.byte	0
 9953 2420 00       		.byte	0
 9954 2421 00       		.byte	0
 9955 2422 02       		.byte	2
 9956 2423 24       		.byte	36
 9957 2424 04       		.byte	4
 9958 2425 04       		.byte	4
 9959 2426 04       		.byte	4
 9960 2427 04       		.byte	4
 9961 2428 92       		.byte	-110
 9962 2429 19       		.byte	25
 9963 242a 00       		.byte	0
 9964 242b 01       		.byte	1
 9965 242c 40       		.byte	64
 9966 242d 00       		.byte	0
 9967 242e 80       		.byte	-128
 9968 242f 00       		.byte	0
 9969 2430 40       		.byte	64
 9970 2431 40       		.byte	64
 9971 2432 80       		.byte	-128
 9972 2433 00       		.byte	0
 9973 2434 40       		.byte	64
 9974 2435 00       		.byte	0
 9975 2436 50       		.byte	80
 9976 2437 A8       		.byte	-88
 9977 2438 40       		.byte	64
 9978 2439 20       		.byte	32
 9979 243a 50       		.byte	80
 9980 243b A8       		.byte	-88
 9981 243c 00       		.byte	0
 9982 243d 00       		.byte	0
 9983 243e 00       		.byte	0
 9984 243f 00       		.byte	0
 9985 2440 00       		.byte	0
 9986 2441 00       		.byte	0
 9987 2442 00       		.byte	0
 9988 2443 00       		.byte	0
 9989 2444 00       		.byte	0
 9990 2445 00       		.byte	0
 9991 2446 00       		.byte	0
 9992 2447 00       		.byte	0
 9993 2448 00       		.byte	0
 9994 2449 00       		.byte	0
ARM GAS  C:\Users\Bruger\AppData\Local\Temp\ccj0lDyf.s 			page 202


 9995 244a 00       		.byte	0
 9996 244b 00       		.byte	0
 9997              		.align	2
 9998              		.type	BS_UDB_1_2_1_CONFIG_VAL.4915, %object
 9999              		.size	BS_UDB_1_2_1_CONFIG_VAL.4915, 128
 10000              	BS_UDB_1_2_1_CONFIG_VAL.4915:
 10001 244c 00       		.byte	0
 10002 244d 00       		.byte	0
 10003 244e 55       		.byte	85
 10004 244f 00       		.byte	0
 10005 2450 78       		.byte	120
 10006 2451 0F       		.byte	15
 10007 2452 00       		.byte	0
 10008 2453 00       		.byte	0
 10009 2454 80       		.byte	-128
 10010 2455 33       		.byte	51
 10011 2456 00       		.byte	0
 10012 2457 00       		.byte	0
 10013 2458 00       		.byte	0
 10014 2459 00       		.byte	0
 10015 245a 33       		.byte	51
 10016 245b 55       		.byte	85
 10017 245c 80       		.byte	-128
 10018 245d 55       		.byte	85
 10019 245e 00       		.byte	0
 10020 245f 00       		.byte	0
 10021 2460 55       		.byte	85
 10022 2461 00       		.byte	0
 10023 2462 00       		.byte	0
 10024 2463 00       		.byte	0
 10025 2464 00       		.byte	0
 10026 2465 00       		.byte	0
 10027 2466 00       		.byte	0
 10028 2467 00       		.byte	0
 10029 2468 80       		.byte	-128
 10030 2469 00       		.byte	0
 10031 246a 00       		.byte	0
 10032 246b 00       		.byte	0
 10033 246c 66       		.byte	102
 10034 246d 00       		.byte	0
 10035 246e 00       		.byte	0
 10036 246f 78       		.byte	120
 10037 2470 00       		.byte	0
 10038 2471 00       		.byte	0
 10039 2472 0F       		.byte	15
 10040 2473 66       		.byte	102
 10041 2474 00       		.byte	0
 10042 2475 00       		.byte	0
 10043 2476 00       		.byte	0
 10044 2477 00       		.byte	0
 10045 2478 00       		.byte	0
 10046 2479 00       		.byte	0
 10047 247a 00       		.byte	0
 10048 247b 00       		.byte	0
 10049 247c 80       		.byte	-128
 10050 247d 00       		.byte	0
 10051 247e 00       		.byte	0
ARM GAS  C:\Users\Bruger\AppData\Local\Temp\ccj0lDyf.s 			page 203


 10052 247f 7F       		.byte	127
 10053 2480 00       		.byte	0
 10054 2481 00       		.byte	0
 10055 2482 7F       		.byte	127
 10056 2483 00       		.byte	0
 10057 2484 00       		.byte	0
 10058 2485 00       		.byte	0
 10059 2486 00       		.byte	0
 10060 2487 00       		.byte	0
 10061 2488 00       		.byte	0
 10062 2489 00       		.byte	0
 10063 248a 45       		.byte	69
 10064 248b 04       		.byte	4
 10065 248c 50       		.byte	80
 10066 248d 01       		.byte	1
 10067 248e 00       		.byte	0
 10068 248f 00       		.byte	0
 10069 2490 00       		.byte	0
 10070 2491 00       		.byte	0
 10071 2492 00       		.byte	0
 10072 2493 00       		.byte	0
 10073 2494 00       		.byte	0
 10074 2495 FF       		.byte	-1
 10075 2496 FF       		.byte	-1
 10076 2497 FF       		.byte	-1
 10077 2498 00       		.byte	0
 10078 2499 A0       		.byte	-96
 10079 249a 00       		.byte	0
 10080 249b 01       		.byte	1
 10081 249c 18       		.byte	24
 10082 249d 00       		.byte	0
 10083 249e 00       		.byte	0
 10084 249f 00       		.byte	0
 10085 24a0 18       		.byte	24
 10086 24a1 00       		.byte	0
 10087 24a2 04       		.byte	4
 10088 24a3 00       		.byte	0
 10089 24a4 04       		.byte	4
 10090 24a5 04       		.byte	4
 10091 24a6 04       		.byte	4
 10092 24a7 04       		.byte	4
 10093 24a8 00       		.byte	0
 10094 24a9 09       		.byte	9
 10095 24aa 00       		.byte	0
 10096 24ab 01       		.byte	1
 10097 24ac 40       		.byte	64
 10098 24ad 00       		.byte	0
 10099 24ae 80       		.byte	-128
 10100 24af 00       		.byte	0
 10101 24b0 40       		.byte	64
 10102 24b1 40       		.byte	64
 10103 24b2 80       		.byte	-128
 10104 24b3 00       		.byte	0
 10105 24b4 40       		.byte	64
 10106 24b5 00       		.byte	0
 10107 24b6 50       		.byte	80
 10108 24b7 A8       		.byte	-88
ARM GAS  C:\Users\Bruger\AppData\Local\Temp\ccj0lDyf.s 			page 204


 10109 24b8 40       		.byte	64
 10110 24b9 20       		.byte	32
 10111 24ba 50       		.byte	80
 10112 24bb A8       		.byte	-88
 10113 24bc 00       		.byte	0
 10114 24bd 00       		.byte	0
 10115 24be 00       		.byte	0
 10116 24bf 00       		.byte	0
 10117 24c0 00       		.byte	0
 10118 24c1 00       		.byte	0
 10119 24c2 00       		.byte	0
 10120 24c3 00       		.byte	0
 10121 24c4 00       		.byte	0
 10122 24c5 00       		.byte	0
 10123 24c6 00       		.byte	0
 10124 24c7 00       		.byte	0
 10125 24c8 00       		.byte	0
 10126 24c9 00       		.byte	0
 10127 24ca 00       		.byte	0
 10128 24cb 00       		.byte	0
 10129              		.align	2
 10130              		.type	BS_UDB_1_3_1_CONFIG_VAL.4914, %object
 10131              		.size	BS_UDB_1_3_1_CONFIG_VAL.4914, 128
 10132              	BS_UDB_1_3_1_CONFIG_VAL.4914:
 10133 24cc 00       		.byte	0
 10134 24cd 00       		.byte	0
 10135 24ce 01       		.byte	1
 10136 24cf 00       		.byte	0
 10137 24d0 00       		.byte	0
 10138 24d1 00       		.byte	0
 10139 24d2 00       		.byte	0
 10140 24d3 00       		.byte	0
 10141 24d4 05       		.byte	5
 10142 24d5 00       		.byte	0
 10143 24d6 00       		.byte	0
 10144 24d7 00       		.byte	0
 10145 24d8 00       		.byte	0
 10146 24d9 00       		.byte	0
 10147 24da 00       		.byte	0
 10148 24db 01       		.byte	1
 10149 24dc 00       		.byte	0
 10150 24dd 00       		.byte	0
 10151 24de 00       		.byte	0
 10152 24df 00       		.byte	0
 10153 24e0 01       		.byte	1
 10154 24e1 00       		.byte	0
 10155 24e2 00       		.byte	0
 10156 24e3 00       		.byte	0
 10157 24e4 00       		.byte	0
 10158 24e5 00       		.byte	0
 10159 24e6 00       		.byte	0
 10160 24e7 00       		.byte	0
 10161 24e8 00       		.byte	0
 10162 24e9 00       		.byte	0
 10163 24ea 0C       		.byte	12
 10164 24eb 00       		.byte	0
 10165 24ec 00       		.byte	0
ARM GAS  C:\Users\Bruger\AppData\Local\Temp\ccj0lDyf.s 			page 205


 10166 24ed 01       		.byte	1
 10167 24ee 03       		.byte	3
 10168 24ef 00       		.byte	0
 10169 24f0 00       		.byte	0
 10170 24f1 00       		.byte	0
 10171 24f2 00       		.byte	0
 10172 24f3 00       		.byte	0
 10173 24f4 00       		.byte	0
 10174 24f5 00       		.byte	0
 10175 24f6 00       		.byte	0
 10176 24f7 00       		.byte	0
 10177 24f8 04       		.byte	4
 10178 24f9 00       		.byte	0
 10179 24fa 00       		.byte	0
 10180 24fb 00       		.byte	0
 10181 24fc 01       		.byte	1
 10182 24fd 00       		.byte	0
 10183 24fe 02       		.byte	2
 10184 24ff 01       		.byte	1
 10185 2500 04       		.byte	4
 10186 2501 00       		.byte	0
 10187 2502 08       		.byte	8
 10188 2503 00       		.byte	0
 10189 2504 00       		.byte	0
 10190 2505 00       		.byte	0
 10191 2506 20       		.byte	32
 10192 2507 00       		.byte	0
 10193 2508 00       		.byte	0
 10194 2509 00       		.byte	0
 10195 250a 01       		.byte	1
 10196 250b 04       		.byte	4
 10197 250c 10       		.byte	16
 10198 250d 03       		.byte	3
 10199 250e 00       		.byte	0
 10200 250f 00       		.byte	0
 10201 2510 00       		.byte	0
 10202 2511 5C       		.byte	92
 10203 2512 20       		.byte	32
 10204 2513 4E       		.byte	78
 10205 2514 3F       		.byte	63
 10206 2515 FF       		.byte	-1
 10207 2516 FF       		.byte	-1
 10208 2517 FF       		.byte	-1
 10209 2518 00       		.byte	0
 10210 2519 AF       		.byte	-81
 10211 251a 07       		.byte	7
 10212 251b 01       		.byte	1
 10213 251c 18       		.byte	24
 10214 251d 00       		.byte	0
 10215 251e 80       		.byte	-128
 10216 251f 00       		.byte	0
 10217 2520 07       		.byte	7
 10218 2521 00       		.byte	0
 10219 2522 04       		.byte	4
 10220 2523 00       		.byte	0
 10221 2524 04       		.byte	4
 10222 2525 04       		.byte	4
ARM GAS  C:\Users\Bruger\AppData\Local\Temp\ccj0lDyf.s 			page 206


 10223 2526 04       		.byte	4
 10224 2527 04       		.byte	4
 10225 2528 09       		.byte	9
 10226 2529 99       		.byte	-103
 10227 252a 00       		.byte	0
 10228 252b 01       		.byte	1
 10229 252c 40       		.byte	64
 10230 252d 00       		.byte	0
 10231 252e 80       		.byte	-128
 10232 252f 00       		.byte	0
 10233 2530 40       		.byte	64
 10234 2531 40       		.byte	64
 10235 2532 80       		.byte	-128
 10236 2533 00       		.byte	0
 10237 2534 40       		.byte	64
 10238 2535 00       		.byte	0
 10239 2536 50       		.byte	80
 10240 2537 A8       		.byte	-88
 10241 2538 40       		.byte	64
 10242 2539 20       		.byte	32
 10243 253a 50       		.byte	80
 10244 253b A8       		.byte	-88
 10245 253c 00       		.byte	0
 10246 253d 00       		.byte	0
 10247 253e 00       		.byte	0
 10248 253f 00       		.byte	0
 10249 2540 00       		.byte	0
 10250 2541 00       		.byte	0
 10251 2542 00       		.byte	0
 10252 2543 00       		.byte	0
 10253 2544 00       		.byte	0
 10254 2545 00       		.byte	0
 10255 2546 00       		.byte	0
 10256 2547 00       		.byte	0
 10257 2548 00       		.byte	0
 10258 2549 00       		.byte	0
 10259 254a 00       		.byte	0
 10260 254b 00       		.byte	0
 10261              		.align	2
 10262              		.type	BS_UDB_1_3_0_CONFIG_VAL.4913, %object
 10263              		.size	BS_UDB_1_3_0_CONFIG_VAL.4913, 128
 10264              	BS_UDB_1_3_0_CONFIG_VAL.4913:
 10265 254c 00       		.byte	0
 10266 254d 00       		.byte	0
 10267 254e 00       		.byte	0
 10268 254f 06       		.byte	6
 10269 2550 01       		.byte	1
 10270 2551 00       		.byte	0
 10271 2552 0E       		.byte	14
 10272 2553 08       		.byte	8
 10273 2554 01       		.byte	1
 10274 2555 00       		.byte	0
 10275 2556 16       		.byte	22
 10276 2557 00       		.byte	0
 10277 2558 00       		.byte	0
 10278 2559 00       		.byte	0
 10279 255a 08       		.byte	8
ARM GAS  C:\Users\Bruger\AppData\Local\Temp\ccj0lDyf.s 			page 207


 10280 255b 00       		.byte	0
 10281 255c 00       		.byte	0
 10282 255d 05       		.byte	5
 10283 255e 00       		.byte	0
 10284 255f 00       		.byte	0
 10285 2560 1C       		.byte	28
 10286 2561 00       		.byte	0
 10287 2562 03       		.byte	3
 10288 2563 00       		.byte	0
 10289 2564 00       		.byte	0
 10290 2565 00       		.byte	0
 10291 2566 20       		.byte	32
 10292 2567 00       		.byte	0
 10293 2568 00       		.byte	0
 10294 2569 03       		.byte	3
 10295 256a 1C       		.byte	28
 10296 256b 00       		.byte	0
 10297 256c 00       		.byte	0
 10298 256d 00       		.byte	0
 10299 256e 00       		.byte	0
 10300 256f 05       		.byte	5
 10301 2570 00       		.byte	0
 10302 2571 00       		.byte	0
 10303 2572 03       		.byte	3
 10304 2573 00       		.byte	0
 10305 2574 00       		.byte	0
 10306 2575 00       		.byte	0
 10307 2576 20       		.byte	32
 10308 2577 00       		.byte	0
 10309 2578 00       		.byte	0
 10310 2579 00       		.byte	0
 10311 257a 20       		.byte	32
 10312 257b 00       		.byte	0
 10313 257c 20       		.byte	32
 10314 257d 07       		.byte	7
 10315 257e 0F       		.byte	15
 10316 257f 00       		.byte	0
 10317 2580 1A       		.byte	26
 10318 2581 08       		.byte	8
 10319 2582 00       		.byte	0
 10320 2583 00       		.byte	0
 10321 2584 00       		.byte	0
 10322 2585 00       		.byte	0
 10323 2586 28       		.byte	40
 10324 2587 00       		.byte	0
 10325 2588 00       		.byte	0
 10326 2589 00       		.byte	0
 10327 258a 01       		.byte	1
 10328 258b 01       		.byte	1
 10329 258c 40       		.byte	64
 10330 258d 03       		.byte	3
 10331 258e 00       		.byte	0
 10332 258f 00       		.byte	0
 10333 2590 00       		.byte	0
 10334 2591 00       		.byte	0
 10335 2592 00       		.byte	0
 10336 2593 00       		.byte	0
ARM GAS  C:\Users\Bruger\AppData\Local\Temp\ccj0lDyf.s 			page 208


 10337 2594 00       		.byte	0
 10338 2595 FF       		.byte	-1
 10339 2596 FF       		.byte	-1
 10340 2597 FF       		.byte	-1
 10341 2598 00       		.byte	0
 10342 2599 A0       		.byte	-96
 10343 259a 00       		.byte	0
 10344 259b 01       		.byte	1
 10345 259c 18       		.byte	24
 10346 259d 00       		.byte	0
 10347 259e 00       		.byte	0
 10348 259f 00       		.byte	0
 10349 25a0 00       		.byte	0
 10350 25a1 00       		.byte	0
 10351 25a2 08       		.byte	8
 10352 25a3 00       		.byte	0
 10353 25a4 04       		.byte	4
 10354 25a5 04       		.byte	4
 10355 25a6 04       		.byte	4
 10356 25a7 04       		.byte	4
 10357 25a8 90       		.byte	-112
 10358 25a9 99       		.byte	-103
 10359 25aa 00       		.byte	0
 10360 25ab 01       		.byte	1
 10361 25ac 40       		.byte	64
 10362 25ad 00       		.byte	0
 10363 25ae 80       		.byte	-128
 10364 25af 00       		.byte	0
 10365 25b0 40       		.byte	64
 10366 25b1 40       		.byte	64
 10367 25b2 80       		.byte	-128
 10368 25b3 00       		.byte	0
 10369 25b4 40       		.byte	64
 10370 25b5 00       		.byte	0
 10371 25b6 50       		.byte	80
 10372 25b7 A8       		.byte	-88
 10373 25b8 40       		.byte	64
 10374 25b9 20       		.byte	32
 10375 25ba 50       		.byte	80
 10376 25bb A8       		.byte	-88
 10377 25bc 00       		.byte	0
 10378 25bd 00       		.byte	0
 10379 25be 00       		.byte	0
 10380 25bf 00       		.byte	0
 10381 25c0 00       		.byte	0
 10382 25c1 00       		.byte	0
 10383 25c2 00       		.byte	0
 10384 25c3 00       		.byte	0
 10385 25c4 00       		.byte	0
 10386 25c5 00       		.byte	0
 10387 25c6 00       		.byte	0
 10388 25c7 00       		.byte	0
 10389 25c8 00       		.byte	0
 10390 25c9 00       		.byte	0
 10391 25ca 00       		.byte	0
 10392 25cb 00       		.byte	0
 10393              		.align	2
ARM GAS  C:\Users\Bruger\AppData\Local\Temp\ccj0lDyf.s 			page 209


 10394              		.type	BS_UDB_1_4_0_CONFIG_VAL.4912, %object
 10395              		.size	BS_UDB_1_4_0_CONFIG_VAL.4912, 128
 10396              	BS_UDB_1_4_0_CONFIG_VAL.4912:
 10397 25cc 00       		.byte	0
 10398 25cd 00       		.byte	0
 10399 25ce 00       		.byte	0
 10400 25cf 00       		.byte	0
 10401 25d0 00       		.byte	0
 10402 25d1 80       		.byte	-128
 10403 25d2 20       		.byte	32
 10404 25d3 15       		.byte	21
 10405 25d4 00       		.byte	0
 10406 25d5 2A       		.byte	42
 10407 25d6 03       		.byte	3
 10408 25d7 44       		.byte	68
 10409 25d8 00       		.byte	0
 10410 25d9 00       		.byte	0
 10411 25da 40       		.byte	64
 10412 25db 00       		.byte	0
 10413 25dc 40       		.byte	64
 10414 25dd 00       		.byte	0
 10415 25de 00       		.byte	0
 10416 25df 08       		.byte	8
 10417 25e0 1C       		.byte	28
 10418 25e1 73       		.byte	115
 10419 25e2 22       		.byte	34
 10420 25e3 0C       		.byte	12
 10421 25e4 2C       		.byte	44
 10422 25e5 00       		.byte	0
 10423 25e6 11       		.byte	17
 10424 25e7 00       		.byte	0
 10425 25e8 09       		.byte	9
 10426 25e9 00       		.byte	0
 10427 25ea 10       		.byte	16
 10428 25eb 00       		.byte	0
 10429 25ec 14       		.byte	20
 10430 25ed 00       		.byte	0
 10431 25ee 00       		.byte	0
 10432 25ef 00       		.byte	0
 10433 25f0 00       		.byte	0
 10434 25f1 73       		.byte	115
 10435 25f2 20       		.byte	32
 10436 25f3 04       		.byte	4
 10437 25f4 30       		.byte	48
 10438 25f5 03       		.byte	3
 10439 25f6 0C       		.byte	12
 10440 25f7 04       		.byte	4
 10441 25f8 10       		.byte	16
 10442 25f9 00       		.byte	0
 10443 25fa 00       		.byte	0
 10444 25fb 00       		.byte	0
 10445 25fc 40       		.byte	64
 10446 25fd C0       		.byte	-64
 10447 25fe 1F       		.byte	31
 10448 25ff 0F       		.byte	15
 10449 2600 20       		.byte	32
 10450 2601 30       		.byte	48
ARM GAS  C:\Users\Bruger\AppData\Local\Temp\ccj0lDyf.s 			page 210


 10451 2602 00       		.byte	0
 10452 2603 00       		.byte	0
 10453 2604 00       		.byte	0
 10454 2605 22       		.byte	34
 10455 2606 00       		.byte	0
 10456 2607 08       		.byte	8
 10457 2608 00       		.byte	0
 10458 2609 00       		.byte	0
 10459 260a 11       		.byte	17
 10460 260b 10       		.byte	16
 10461 260c 00       		.byte	0
 10462 260d 00       		.byte	0
 10463 260e 00       		.byte	0
 10464 260f 00       		.byte	0
 10465 2610 00       		.byte	0
 10466 2611 00       		.byte	0
 10467 2612 00       		.byte	0
 10468 2613 00       		.byte	0
 10469 2614 00       		.byte	0
 10470 2615 00       		.byte	0
 10471 2616 00       		.byte	0
 10472 2617 00       		.byte	0
 10473 2618 00       		.byte	0
 10474 2619 00       		.byte	0
 10475 261a 00       		.byte	0
 10476 261b 00       		.byte	0
 10477 261c 00       		.byte	0
 10478 261d 00       		.byte	0
 10479 261e 00       		.byte	0
 10480 261f 00       		.byte	0
 10481 2620 40       		.byte	64
 10482 2621 00       		.byte	0
 10483 2622 00       		.byte	0
 10484 2623 00       		.byte	0
 10485 2624 04       		.byte	4
 10486 2625 04       		.byte	4
 10487 2626 00       		.byte	0
 10488 2627 04       		.byte	4
 10489 2628 00       		.byte	0
 10490 2629 10       		.byte	16
 10491 262a 00       		.byte	0
 10492 262b 01       		.byte	1
 10493 262c 00       		.byte	0
 10494 262d 00       		.byte	0
 10495 262e 00       		.byte	0
 10496 262f 00       		.byte	0
 10497 2630 00       		.byte	0
 10498 2631 00       		.byte	0
 10499 2632 00       		.byte	0
 10500 2633 00       		.byte	0
 10501 2634 00       		.byte	0
 10502 2635 00       		.byte	0
 10503 2636 00       		.byte	0
 10504 2637 00       		.byte	0
 10505 2638 00       		.byte	0
 10506 2639 00       		.byte	0
 10507 263a 00       		.byte	0
ARM GAS  C:\Users\Bruger\AppData\Local\Temp\ccj0lDyf.s 			page 211


 10508 263b 00       		.byte	0
 10509 263c 00       		.byte	0
 10510 263d 00       		.byte	0
 10511 263e 00       		.byte	0
 10512 263f 00       		.byte	0
 10513 2640 00       		.byte	0
 10514 2641 00       		.byte	0
 10515 2642 00       		.byte	0
 10516 2643 00       		.byte	0
 10517 2644 00       		.byte	0
 10518 2645 00       		.byte	0
 10519 2646 00       		.byte	0
 10520 2647 00       		.byte	0
 10521 2648 00       		.byte	0
 10522 2649 00       		.byte	0
 10523 264a 00       		.byte	0
 10524 264b 00       		.byte	0
 10525              		.align	2
 10526              		.type	BS_UDB_1_4_1_CONFIG_VAL.4911, %object
 10527              		.size	BS_UDB_1_4_1_CONFIG_VAL.4911, 128
 10528              	BS_UDB_1_4_1_CONFIG_VAL.4911:
 10529 264c 55       		.byte	85
 10530 264d 06       		.byte	6
 10531 264e 00       		.byte	0
 10532 264f 30       		.byte	48
 10533 2650 00       		.byte	0
 10534 2651 00       		.byte	0
 10535 2652 00       		.byte	0
 10536 2653 00       		.byte	0
 10537 2654 0F       		.byte	15
 10538 2655 00       		.byte	0
 10539 2656 00       		.byte	0
 10540 2657 00       		.byte	0
 10541 2658 33       		.byte	51
 10542 2659 18       		.byte	24
 10543 265a 00       		.byte	0
 10544 265b 03       		.byte	3
 10545 265c 00       		.byte	0
 10546 265d 00       		.byte	0
 10547 265e 00       		.byte	0
 10548 265f 00       		.byte	0
 10549 2660 00       		.byte	0
 10550 2661 00       		.byte	0
 10551 2662 66       		.byte	102
 10552 2663 00       		.byte	0
 10553 2664 00       		.byte	0
 10554 2665 28       		.byte	40
 10555 2666 78       		.byte	120
 10556 2667 05       		.byte	5
 10557 2668 00       		.byte	0
 10558 2669 00       		.byte	0
 10559 266a 00       		.byte	0
 10560 266b 00       		.byte	0
 10561 266c 00       		.byte	0
 10562 266d 05       		.byte	5
 10563 266e 00       		.byte	0
 10564 266f 28       		.byte	40
ARM GAS  C:\Users\Bruger\AppData\Local\Temp\ccj0lDyf.s 			page 212


 10565 2670 00       		.byte	0
 10566 2671 00       		.byte	0
 10567 2672 00       		.byte	0
 10568 2673 00       		.byte	0
 10569 2674 00       		.byte	0
 10570 2675 00       		.byte	0
 10571 2676 55       		.byte	85
 10572 2677 00       		.byte	0
 10573 2678 00       		.byte	0
 10574 2679 00       		.byte	0
 10575 267a 00       		.byte	0
 10576 267b 00       		.byte	0
 10577 267c 00       		.byte	0
 10578 267d 00       		.byte	0
 10579 267e 00       		.byte	0
 10580 267f 00       		.byte	0
 10581 2680 7F       		.byte	127
 10582 2681 07       		.byte	7
 10583 2682 00       		.byte	0
 10584 2683 38       		.byte	56
 10585 2684 08       		.byte	8
 10586 2685 00       		.byte	0
 10587 2686 02       		.byte	2
 10588 2687 00       		.byte	0
 10589 2688 00       		.byte	0
 10590 2689 00       		.byte	0
 10591 268a 14       		.byte	20
 10592 268b 50       		.byte	80
 10593 268c 00       		.byte	0
 10594 268d 00       		.byte	0
 10595 268e 00       		.byte	0
 10596 268f 00       		.byte	0
 10597 2690 00       		.byte	0
 10598 2691 00       		.byte	0
 10599 2692 00       		.byte	0
 10600 2693 00       		.byte	0
 10601 2694 00       		.byte	0
 10602 2695 00       		.byte	0
 10603 2696 00       		.byte	0
 10604 2697 00       		.byte	0
 10605 2698 00       		.byte	0
 10606 2699 00       		.byte	0
 10607 269a 00       		.byte	0
 10608 269b 00       		.byte	0
 10609 269c 00       		.byte	0
 10610 269d 00       		.byte	0
 10611 269e FF       		.byte	-1
 10612 269f 00       		.byte	0
 10613 26a0 00       		.byte	0
 10614 26a1 00       		.byte	0
 10615 26a2 10       		.byte	16
 10616 26a3 00       		.byte	0
 10617 26a4 04       		.byte	4
 10618 26a5 04       		.byte	4
 10619 26a6 00       		.byte	0
 10620 26a7 04       		.byte	4
 10621 26a8 00       		.byte	0
ARM GAS  C:\Users\Bruger\AppData\Local\Temp\ccj0lDyf.s 			page 213


 10622 26a9 50       		.byte	80
 10623 26aa 00       		.byte	0
 10624 26ab 01       		.byte	1
 10625 26ac 00       		.byte	0
 10626 26ad 00       		.byte	0
 10627 26ae 00       		.byte	0
 10628 26af 00       		.byte	0
 10629 26b0 00       		.byte	0
 10630 26b1 00       		.byte	0
 10631 26b2 00       		.byte	0
 10632 26b3 00       		.byte	0
 10633 26b4 00       		.byte	0
 10634 26b5 00       		.byte	0
 10635 26b6 00       		.byte	0
 10636 26b7 00       		.byte	0
 10637 26b8 00       		.byte	0
 10638 26b9 00       		.byte	0
 10639 26ba 00       		.byte	0
 10640 26bb 00       		.byte	0
 10641 26bc 00       		.byte	0
 10642 26bd 00       		.byte	0
 10643 26be 00       		.byte	0
 10644 26bf 00       		.byte	0
 10645 26c0 00       		.byte	0
 10646 26c1 00       		.byte	0
 10647 26c2 00       		.byte	0
 10648 26c3 00       		.byte	0
 10649 26c4 00       		.byte	0
 10650 26c5 00       		.byte	0
 10651 26c6 00       		.byte	0
 10652 26c7 00       		.byte	0
 10653 26c8 00       		.byte	0
 10654 26c9 00       		.byte	0
 10655 26ca 00       		.byte	0
 10656 26cb 00       		.byte	0
 10657              		.align	2
 10658              		.type	BS_UDB_1_5_1_CONFIG_VAL.4910, %object
 10659              		.size	BS_UDB_1_5_1_CONFIG_VAL.4910, 128
 10660              	BS_UDB_1_5_1_CONFIG_VAL.4910:
 10661 26cc 00       		.byte	0
 10662 26cd 00       		.byte	0
 10663 26ce 00       		.byte	0
 10664 26cf 00       		.byte	0
 10665 26d0 00       		.byte	0
 10666 26d1 00       		.byte	0
 10667 26d2 00       		.byte	0
 10668 26d3 00       		.byte	0
 10669 26d4 00       		.byte	0
 10670 26d5 00       		.byte	0
 10671 26d6 08       		.byte	8
 10672 26d7 00       		.byte	0
 10673 26d8 00       		.byte	0
 10674 26d9 00       		.byte	0
 10675 26da 00       		.byte	0
 10676 26db 00       		.byte	0
 10677 26dc 00       		.byte	0
 10678 26dd 00       		.byte	0
ARM GAS  C:\Users\Bruger\AppData\Local\Temp\ccj0lDyf.s 			page 214


 10679 26de 04       		.byte	4
 10680 26df 00       		.byte	0
 10681 26e0 02       		.byte	2
 10682 26e1 00       		.byte	0
 10683 26e2 00       		.byte	0
 10684 26e3 00       		.byte	0
 10685 26e4 00       		.byte	0
 10686 26e5 00       		.byte	0
 10687 26e6 00       		.byte	0
 10688 26e7 00       		.byte	0
 10689 26e8 10       		.byte	16
 10690 26e9 00       		.byte	0
 10691 26ea 00       		.byte	0
 10692 26eb 00       		.byte	0
 10693 26ec 00       		.byte	0
 10694 26ed 00       		.byte	0
 10695 26ee 03       		.byte	3
 10696 26ef 00       		.byte	0
 10697 26f0 18       		.byte	24
 10698 26f1 00       		.byte	0
 10699 26f2 00       		.byte	0
 10700 26f3 00       		.byte	0
 10701 26f4 00       		.byte	0
 10702 26f5 00       		.byte	0
 10703 26f6 10       		.byte	16
 10704 26f7 00       		.byte	0
 10705 26f8 00       		.byte	0
 10706 26f9 00       		.byte	0
 10707 26fa 00       		.byte	0
 10708 26fb 00       		.byte	0
 10709 26fc 00       		.byte	0
 10710 26fd 00       		.byte	0
 10711 26fe 01       		.byte	1
 10712 26ff 00       		.byte	0
 10713 2700 02       		.byte	2
 10714 2701 00       		.byte	0
 10715 2702 1C       		.byte	28
 10716 2703 00       		.byte	0
 10717 2704 00       		.byte	0
 10718 2705 00       		.byte	0
 10719 2706 00       		.byte	0
 10720 2707 00       		.byte	0
 10721 2708 00       		.byte	0
 10722 2709 00       		.byte	0
 10723 270a 50       		.byte	80
 10724 270b 00       		.byte	0
 10725 270c 00       		.byte	0
 10726 270d 00       		.byte	0
 10727 270e 00       		.byte	0
 10728 270f 00       		.byte	0
 10729 2710 00       		.byte	0
 10730 2711 00       		.byte	0
 10731 2712 00       		.byte	0
 10732 2713 00       		.byte	0
 10733 2714 00       		.byte	0
 10734 2715 00       		.byte	0
 10735 2716 00       		.byte	0
ARM GAS  C:\Users\Bruger\AppData\Local\Temp\ccj0lDyf.s 			page 215


 10736 2717 00       		.byte	0
 10737 2718 00       		.byte	0
 10738 2719 00       		.byte	0
 10739 271a 00       		.byte	0
 10740 271b 00       		.byte	0
 10741 271c 00       		.byte	0
 10742 271d 00       		.byte	0
 10743 271e 80       		.byte	-128
 10744 271f 00       		.byte	0
 10745 2720 07       		.byte	7
 10746 2721 00       		.byte	0
 10747 2722 04       		.byte	4
 10748 2723 00       		.byte	0
 10749 2724 04       		.byte	4
 10750 2725 00       		.byte	0
 10751 2726 00       		.byte	0
 10752 2727 04       		.byte	4
 10753 2728 02       		.byte	2
 10754 2729 20       		.byte	32
 10755 272a 00       		.byte	0
 10756 272b 01       		.byte	1
 10757 272c 00       		.byte	0
 10758 272d 00       		.byte	0
 10759 272e 00       		.byte	0
 10760 272f 00       		.byte	0
 10761 2730 00       		.byte	0
 10762 2731 00       		.byte	0
 10763 2732 00       		.byte	0
 10764 2733 00       		.byte	0
 10765 2734 00       		.byte	0
 10766 2735 00       		.byte	0
 10767 2736 00       		.byte	0
 10768 2737 00       		.byte	0
 10769 2738 00       		.byte	0
 10770 2739 00       		.byte	0
 10771 273a 00       		.byte	0
 10772 273b 00       		.byte	0
 10773 273c 00       		.byte	0
 10774 273d 00       		.byte	0
 10775 273e 00       		.byte	0
 10776 273f 00       		.byte	0
 10777 2740 00       		.byte	0
 10778 2741 00       		.byte	0
 10779 2742 00       		.byte	0
 10780 2743 00       		.byte	0
 10781 2744 00       		.byte	0
 10782 2745 00       		.byte	0
 10783 2746 00       		.byte	0
 10784 2747 00       		.byte	0
 10785 2748 00       		.byte	0
 10786 2749 00       		.byte	0
 10787 274a 00       		.byte	0
 10788 274b 00       		.byte	0
 10789              		.align	2
 10790              		.type	BS_UDB_1_5_0_CONFIG_VAL.4909, %object
 10791              		.size	BS_UDB_1_5_0_CONFIG_VAL.4909, 128
 10792              	BS_UDB_1_5_0_CONFIG_VAL.4909:
ARM GAS  C:\Users\Bruger\AppData\Local\Temp\ccj0lDyf.s 			page 216


 10793 274c 00       		.byte	0
 10794 274d 40       		.byte	64
 10795 274e 00       		.byte	0
 10796 274f 00       		.byte	0
 10797 2750 42       		.byte	66
 10798 2751 00       		.byte	0
 10799 2752 08       		.byte	8
 10800 2753 40       		.byte	64
 10801 2754 02       		.byte	2
 10802 2755 0D       		.byte	13
 10803 2756 0D       		.byte	13
 10804 2757 B0       		.byte	-80
 10805 2758 8D       		.byte	-115
 10806 2759 00       		.byte	0
 10807 275a 00       		.byte	0
 10808 275b 40       		.byte	64
 10809 275c 40       		.byte	64
 10810 275d 00       		.byte	0
 10811 275e 00       		.byte	0
 10812 275f 02       		.byte	2
 10813 2760 8D       		.byte	-115
 10814 2761 40       		.byte	64
 10815 2762 00       		.byte	0
 10816 2763 00       		.byte	0
 10817 2764 8D       		.byte	-115
 10818 2765 08       		.byte	8
 10819 2766 00       		.byte	0
 10820 2767 34       		.byte	52
 10821 2768 8D       		.byte	-115
 10822 2769 24       		.byte	36
 10823 276a 00       		.byte	0
 10824 276b 9B       		.byte	-101
 10825 276c 0D       		.byte	13
 10826 276d 94       		.byte	-108
 10827 276e 80       		.byte	-128
 10828 276f 2B       		.byte	43
 10829 2770 00       		.byte	0
 10830 2771 00       		.byte	0
 10831 2772 00       		.byte	0
 10832 2773 00       		.byte	0
 10833 2774 11       		.byte	17
 10834 2775 40       		.byte	64
 10835 2776 22       		.byte	34
 10836 2777 00       		.byte	0
 10837 2778 62       		.byte	98
 10838 2779 40       		.byte	64
 10839 277a 14       		.byte	20
 10840 277b 00       		.byte	0
 10841 277c 70       		.byte	112
 10842 277d 03       		.byte	3
 10843 277e 0F       		.byte	15
 10844 277f 40       		.byte	64
 10845 2780 00       		.byte	0
 10846 2781 3C       		.byte	60
 10847 2782 80       		.byte	-128
 10848 2783 80       		.byte	-128
 10849 2784 00       		.byte	0
ARM GAS  C:\Users\Bruger\AppData\Local\Temp\ccj0lDyf.s 			page 217


 10850 2785 00       		.byte	0
 10851 2786 0A       		.byte	10
 10852 2787 20       		.byte	32
 10853 2788 00       		.byte	0
 10854 2789 00       		.byte	0
 10855 278a 40       		.byte	64
 10856 278b 44       		.byte	68
 10857 278c 00       		.byte	0
 10858 278d 00       		.byte	0
 10859 278e 00       		.byte	0
 10860 278f 00       		.byte	0
 10861 2790 00       		.byte	0
 10862 2791 00       		.byte	0
 10863 2792 00       		.byte	0
 10864 2793 00       		.byte	0
 10865 2794 00       		.byte	0
 10866 2795 00       		.byte	0
 10867 2796 00       		.byte	0
 10868 2797 00       		.byte	0
 10869 2798 00       		.byte	0
 10870 2799 00       		.byte	0
 10871 279a 00       		.byte	0
 10872 279b 00       		.byte	0
 10873 279c 00       		.byte	0
 10874 279d 00       		.byte	0
 10875 279e 00       		.byte	0
 10876 279f 00       		.byte	0
 10877 27a0 09       		.byte	9
 10878 27a1 00       		.byte	0
 10879 27a2 00       		.byte	0
 10880 27a3 00       		.byte	0
 10881 27a4 04       		.byte	4
 10882 27a5 04       		.byte	4
 10883 27a6 00       		.byte	0
 10884 27a7 04       		.byte	4
 10885 27a8 11       		.byte	17
 10886 27a9 10       		.byte	16
 10887 27aa 00       		.byte	0
 10888 27ab 01       		.byte	1
 10889 27ac 00       		.byte	0
 10890 27ad 00       		.byte	0
 10891 27ae 00       		.byte	0
 10892 27af 00       		.byte	0
 10893 27b0 00       		.byte	0
 10894 27b1 00       		.byte	0
 10895 27b2 00       		.byte	0
 10896 27b3 00       		.byte	0
 10897 27b4 00       		.byte	0
 10898 27b5 00       		.byte	0
 10899 27b6 00       		.byte	0
 10900 27b7 00       		.byte	0
 10901 27b8 00       		.byte	0
 10902 27b9 00       		.byte	0
 10903 27ba 00       		.byte	0
 10904 27bb 00       		.byte	0
 10905 27bc 00       		.byte	0
 10906 27bd 00       		.byte	0
ARM GAS  C:\Users\Bruger\AppData\Local\Temp\ccj0lDyf.s 			page 218


 10907 27be 00       		.byte	0
 10908 27bf 00       		.byte	0
 10909 27c0 00       		.byte	0
 10910 27c1 00       		.byte	0
 10911 27c2 00       		.byte	0
 10912 27c3 00       		.byte	0
 10913 27c4 00       		.byte	0
 10914 27c5 00       		.byte	0
 10915 27c6 00       		.byte	0
 10916 27c7 00       		.byte	0
 10917 27c8 00       		.byte	0
 10918 27c9 00       		.byte	0
 10919 27ca 00       		.byte	0
 10920 27cb 00       		.byte	0
 10921              		.align	2
 10922              		.type	BS_SAR0_VAL.4908, %object
 10923              		.size	BS_SAR0_VAL.4908, 8
 10924              	BS_SAR0_VAL.4908:
 10925 27cc 00       		.byte	0
 10926 27cd 00       		.byte	0
 10927 27ce 00       		.byte	0
 10928 27cf 00       		.byte	0
 10929 27d0 00       		.byte	0
 10930 27d1 00       		.byte	0
 10931 27d2 00       		.byte	0
 10932 27d3 84       		.byte	-124
 10933              		.align	2
 10934              		.type	BS_TMR1_VAL.4907, %object
 10935              		.size	BS_TMR1_VAL.4907, 12
 10936              	BS_TMR1_VAL.4907:
 10937 27d4 00       		.byte	0
 10938 27d5 40       		.byte	64
 10939 27d6 00       		.byte	0
 10940 27d7 00       		.byte	0
 10941 27d8 00       		.byte	0
 10942 27d9 00       		.byte	0
 10943 27da 00       		.byte	0
 10944 27db 00       		.byte	0
 10945 27dc 00       		.byte	0
 10946 27dd 00       		.byte	0
 10947 27de 27       		.byte	39
 10948 27df 00       		.byte	0
 10949              		.align	2
 10950              		.type	BS_TMR0_VAL.4906, %object
 10951              		.size	BS_TMR0_VAL.4906, 12
 10952              	BS_TMR0_VAL.4906:
 10953 27e0 00       		.byte	0
 10954 27e1 60       		.byte	96
 10955 27e2 00       		.byte	0
 10956 27e3 00       		.byte	0
 10957 27e4 00       		.byte	0
 10958 27e5 00       		.byte	0
 10959 27e6 00       		.byte	0
 10960 27e7 00       		.byte	0
 10961 27e8 00       		.byte	0
 10962 27e9 00       		.byte	0
 10963 27ea 1B       		.byte	27
ARM GAS  C:\Users\Bruger\AppData\Local\Temp\ccj0lDyf.s 			page 219


 10964 27eb 00       		.byte	0
 10965              		.align	2
 10966              		.type	BS_IDMUX_IRQ_VAL.4905, %object
 10967              		.size	BS_IDMUX_IRQ_VAL.4905, 8
 10968              	BS_IDMUX_IRQ_VAL.4905:
 10969 27ec FA       		.byte	-6
 10970 27ed 8F       		.byte	-113
 10971 27ee FA       		.byte	-6
 10972 27ef CC       		.byte	-52
 10973 27f0 00       		.byte	0
 10974 27f1 00       		.byte	0
 10975 27f2 00       		.byte	0
 10976 27f3 00       		.byte	0
 10977              		.align	2
 10978              		.type	BS_PICU_8_VAL.4904, %object
 10979              		.size	BS_PICU_8_VAL.4904, 8
 10980              	BS_PICU_8_VAL.4904:
 10981 27f4 00       		.byte	0
 10982 27f5 00       		.byte	0
 10983 27f6 00       		.byte	0
 10984 27f7 00       		.byte	0
 10985 27f8 00       		.byte	0
 10986 27f9 00       		.byte	0
 10987 27fa 02       		.byte	2
 10988 27fb 00       		.byte	0
 10989              		.align	2
 10990              		.type	BS_IOPORT_8_VAL.4903, %object
 10991              		.size	BS_IOPORT_8_VAL.4903, 7
 10992              	BS_IOPORT_8_VAL.4903:
 10993 27fc 01       		.byte	1
 10994 27fd 00       		.byte	0
 10995 27fe 00       		.byte	0
 10996 27ff 00       		.byte	0
 10997 2800 40       		.byte	64
 10998 2801 00       		.byte	0
 10999 2802 00       		.byte	0
 11000 2803 00       		.align	2
 11001              		.type	BS_IOPORT_7_VAL.4902, %object
 11002              		.size	BS_IOPORT_7_VAL.4902, 6
 11003              	BS_IOPORT_7_VAL.4902:
 11004 2804 81       		.byte	-127
 11005 2805 8C       		.byte	-116
 11006 2806 03       		.byte	3
 11007 2807 03       		.byte	3
 11008 2808 7F       		.byte	127
 11009 2809 00       		.byte	0
 11010 280a 0000     		.align	2
 11011              		.type	BS_IOPORT_3_VAL.4901, %object
 11012              		.size	BS_IOPORT_3_VAL.4901, 7
 11013              	BS_IOPORT_3_VAL.4901:
 11014 280c 00       		.byte	0
 11015 280d 00       		.byte	0
 11016 280e 00       		.byte	0
 11017 280f 00       		.byte	0
 11018 2810 FF       		.byte	-1
 11019 2811 00       		.byte	0
 11020 2812 00       		.byte	0
ARM GAS  C:\Users\Bruger\AppData\Local\Temp\ccj0lDyf.s 			page 220


 11021 2813 00       		.align	2
 11022              		.type	BS_PICU_2_VAL.4900, %object
 11023              		.size	BS_PICU_2_VAL.4900, 8
 11024              	BS_PICU_2_VAL.4900:
 11025 2814 01       		.byte	1
 11026 2815 00       		.byte	0
 11027 2816 00       		.byte	0
 11028 2817 00       		.byte	0
 11029 2818 01       		.byte	1
 11030 2819 00       		.byte	0
 11031 281a 00       		.byte	0
 11032 281b 00       		.byte	0
 11033              		.align	2
 11034              		.type	BS_IOPORT_2_VAL.4899, %object
 11035              		.size	BS_IOPORT_2_VAL.4899, 7
 11036              	BS_IOPORT_2_VAL.4899:
 11037 281c D8       		.byte	-40
 11038 281d 40       		.byte	64
 11039 281e 00       		.byte	0
 11040 281f 00       		.byte	0
 11041 2820 97       		.byte	-105
 11042 2821 00       		.byte	0
 11043 2822 00       		.byte	0
 11044 2823 00       		.align	2
 11045              		.type	BS_IOPORT_1_VAL.4898, %object
 11046              		.size	BS_IOPORT_1_VAL.4898, 7
 11047              	BS_IOPORT_1_VAL.4898:
 11048 2824 40       		.byte	64
 11049 2825 60       		.byte	96
 11050 2826 00       		.byte	0
 11051 2827 00       		.byte	0
 11052 2828 94       		.byte	-108
 11053 2829 00       		.byte	0
 11054 282a 00       		.byte	0
 11055 282b 00       		.text
 11056              	.Letext0:
 11057              		.file 2 "c:\\program files (x86)\\cypress\\psoc creator\\4.0\\psoc creator\\import\\gnu\\arm\\4.9.
 11058              		.file 3 "Generated_Source\\PSoC5\\cytypes.h"
 11059              		.section	.debug_info,"",%progbits
 11060              	.Ldebug_info0:
 11061 0000 C80D0000 		.4byte	0xdc8
 11062 0004 0400     		.2byte	0x4
 11063 0006 00000000 		.4byte	.Ldebug_abbrev0
 11064 000a 04       		.byte	0x4
 11065 000b 01       		.uleb128 0x1
 11066 000c D2050000 		.4byte	.LASF146
 11067 0010 01       		.byte	0x1
 11068 0011 350A0000 		.4byte	.LASF147
 11069 0015 A5070000 		.4byte	.LASF148
 11070 0019 00000000 		.4byte	.Ldebug_ranges0+0
 11071 001d 00000000 		.4byte	0
 11072 0021 00000000 		.4byte	.Ldebug_line0
 11073 0025 02       		.uleb128 0x2
 11074 0026 04       		.byte	0x4
 11075 0027 05       		.byte	0x5
 11076 0028 696E7400 		.ascii	"int\000"
 11077 002c 03       		.uleb128 0x3
ARM GAS  C:\Users\Bruger\AppData\Local\Temp\ccj0lDyf.s 			page 221


 11078 002d 15000000 		.4byte	.LASF11
 11079 0031 02       		.byte	0x2
 11080 0032 D4       		.byte	0xd4
 11081 0033 37000000 		.4byte	0x37
 11082 0037 04       		.uleb128 0x4
 11083 0038 04       		.byte	0x4
 11084 0039 07       		.byte	0x7
 11085 003a 70030000 		.4byte	.LASF0
 11086 003e 04       		.uleb128 0x4
 11087 003f 01       		.byte	0x1
 11088 0040 06       		.byte	0x6
 11089 0041 93010000 		.4byte	.LASF1
 11090 0045 04       		.uleb128 0x4
 11091 0046 01       		.byte	0x1
 11092 0047 08       		.byte	0x8
 11093 0048 24070000 		.4byte	.LASF2
 11094 004c 04       		.uleb128 0x4
 11095 004d 02       		.byte	0x2
 11096 004e 05       		.byte	0x5
 11097 004f 75070000 		.4byte	.LASF3
 11098 0053 04       		.uleb128 0x4
 11099 0054 02       		.byte	0x2
 11100 0055 07       		.byte	0x7
 11101 0056 50040000 		.4byte	.LASF4
 11102 005a 04       		.uleb128 0x4
 11103 005b 04       		.byte	0x4
 11104 005c 05       		.byte	0x5
 11105 005d 04020000 		.4byte	.LASF5
 11106 0061 04       		.uleb128 0x4
 11107 0062 04       		.byte	0x4
 11108 0063 07       		.byte	0x7
 11109 0064 B9030000 		.4byte	.LASF6
 11110 0068 04       		.uleb128 0x4
 11111 0069 08       		.byte	0x8
 11112 006a 05       		.byte	0x5
 11113 006b 85010000 		.4byte	.LASF7
 11114 006f 04       		.uleb128 0x4
 11115 0070 08       		.byte	0x8
 11116 0071 07       		.byte	0x7
 11117 0072 BE000000 		.4byte	.LASF8
 11118 0076 04       		.uleb128 0x4
 11119 0077 04       		.byte	0x4
 11120 0078 07       		.byte	0x7
 11121 0079 25050000 		.4byte	.LASF9
 11122 007d 05       		.uleb128 0x5
 11123 007e 04       		.byte	0x4
 11124 007f 04       		.uleb128 0x4
 11125 0080 01       		.byte	0x1
 11126 0081 08       		.byte	0x8
 11127 0082 A2080000 		.4byte	.LASF10
 11128 0086 06       		.uleb128 0x6
 11129 0087 52020000 		.4byte	.LASF12
 11130 008b 03       		.byte	0x3
 11131 008c 3801     		.2byte	0x138
 11132 008e 45000000 		.4byte	0x45
 11133 0092 06       		.uleb128 0x6
 11134 0093 00000000 		.4byte	.LASF13
ARM GAS  C:\Users\Bruger\AppData\Local\Temp\ccj0lDyf.s 			page 222


 11135 0097 03       		.byte	0x3
 11136 0098 3901     		.2byte	0x139
 11137 009a 53000000 		.4byte	0x53
 11138 009e 06       		.uleb128 0x6
 11139 009f B4020000 		.4byte	.LASF14
 11140 00a3 03       		.byte	0x3
 11141 00a4 3A01     		.2byte	0x13a
 11142 00a6 61000000 		.4byte	0x61
 11143 00aa 04       		.uleb128 0x4
 11144 00ab 04       		.byte	0x4
 11145 00ac 04       		.byte	0x4
 11146 00ad A0060000 		.4byte	.LASF15
 11147 00b1 04       		.uleb128 0x4
 11148 00b2 08       		.byte	0x8
 11149 00b3 04       		.byte	0x4
 11150 00b4 85020000 		.4byte	.LASF16
 11151 00b8 06       		.uleb128 0x6
 11152 00b9 1F070000 		.4byte	.LASF17
 11153 00bd 03       		.byte	0x3
 11154 00be E201     		.2byte	0x1e2
 11155 00c0 C4000000 		.4byte	0xc4
 11156 00c4 07       		.uleb128 0x7
 11157 00c5 86000000 		.4byte	0x86
 11158 00c9 06       		.uleb128 0x6
 11159 00ca 4C020000 		.4byte	.LASF18
 11160 00ce 03       		.byte	0x3
 11161 00cf E301     		.2byte	0x1e3
 11162 00d1 D5000000 		.4byte	0xd5
 11163 00d5 07       		.uleb128 0x7
 11164 00d6 92000000 		.4byte	0x92
 11165 00da 08       		.uleb128 0x8
 11166 00db 9F010000 		.4byte	.LASF19
 11167 00df 01       		.byte	0x1
 11168 00e0 3E       		.byte	0x3e
 11169 00e1 00000000 		.4byte	.LFB0
 11170 00e5 1A000000 		.4byte	.LFE0-.LFB0
 11171 00e9 01       		.uleb128 0x1
 11172 00ea 9C       		.byte	0x9c
 11173 00eb 08010000 		.4byte	0x108
 11174 00ef 09       		.uleb128 0x9
 11175 00f0 7300     		.ascii	"s\000"
 11176 00f2 01       		.byte	0x1
 11177 00f3 3E       		.byte	0x3e
 11178 00f4 7D000000 		.4byte	0x7d
 11179 00f8 02       		.uleb128 0x2
 11180 00f9 91       		.byte	0x91
 11181 00fa 74       		.sleb128 -12
 11182 00fb 09       		.uleb128 0x9
 11183 00fc 6E00     		.ascii	"n\000"
 11184 00fe 01       		.byte	0x1
 11185 00ff 3E       		.byte	0x3e
 11186 0100 2C000000 		.4byte	0x2c
 11187 0104 02       		.uleb128 0x2
 11188 0105 91       		.byte	0x91
 11189 0106 70       		.sleb128 -16
 11190 0107 00       		.byte	0
 11191 0108 08       		.uleb128 0x8
ARM GAS  C:\Users\Bruger\AppData\Local\Temp\ccj0lDyf.s 			page 223


 11192 0109 FB090000 		.4byte	.LASF20
 11193 010d 01       		.byte	0x1
 11194 010e 45       		.byte	0x45
 11195 010f 00000000 		.4byte	.LFB1
 11196 0113 1C000000 		.4byte	.LFE1-.LFB1
 11197 0117 01       		.uleb128 0x1
 11198 0118 9C       		.byte	0x9c
 11199 0119 46010000 		.4byte	0x146
 11200 011d 0A       		.uleb128 0xa
 11201 011e 81060000 		.4byte	.LASF21
 11202 0122 01       		.byte	0x1
 11203 0123 45       		.byte	0x45
 11204 0124 7D000000 		.4byte	0x7d
 11205 0128 02       		.uleb128 0x2
 11206 0129 91       		.byte	0x91
 11207 012a 74       		.sleb128 -12
 11208 012b 09       		.uleb128 0x9
 11209 012c 73726300 		.ascii	"src\000"
 11210 0130 01       		.byte	0x1
 11211 0131 45       		.byte	0x45
 11212 0132 46010000 		.4byte	0x146
 11213 0136 02       		.uleb128 0x2
 11214 0137 91       		.byte	0x91
 11215 0138 70       		.sleb128 -16
 11216 0139 09       		.uleb128 0x9
 11217 013a 6E00     		.ascii	"n\000"
 11218 013c 01       		.byte	0x1
 11219 013d 45       		.byte	0x45
 11220 013e 2C000000 		.4byte	0x2c
 11221 0142 02       		.uleb128 0x2
 11222 0143 91       		.byte	0x91
 11223 0144 6C       		.sleb128 -20
 11224 0145 00       		.byte	0
 11225 0146 0B       		.uleb128 0xb
 11226 0147 04       		.byte	0x4
 11227 0148 4C010000 		.4byte	0x14c
 11228 014c 0C       		.uleb128 0xc
 11229 014d 08       		.uleb128 0x8
 11230 014e 09050000 		.4byte	.LASF22
 11231 0152 01       		.byte	0x1
 11232 0153 4C       		.byte	0x4c
 11233 0154 00000000 		.4byte	.LFB2
 11234 0158 1C000000 		.4byte	.LFE2-.LFB2
 11235 015c 01       		.uleb128 0x1
 11236 015d 9C       		.byte	0x9c
 11237 015e 8B010000 		.4byte	0x18b
 11238 0162 0A       		.uleb128 0xa
 11239 0163 81060000 		.4byte	.LASF21
 11240 0167 01       		.byte	0x1
 11241 0168 4C       		.byte	0x4c
 11242 0169 7D000000 		.4byte	0x7d
 11243 016d 02       		.uleb128 0x2
 11244 016e 91       		.byte	0x91
 11245 016f 74       		.sleb128 -12
 11246 0170 09       		.uleb128 0x9
 11247 0171 73726300 		.ascii	"src\000"
 11248 0175 01       		.byte	0x1
ARM GAS  C:\Users\Bruger\AppData\Local\Temp\ccj0lDyf.s 			page 224


 11249 0176 4C       		.byte	0x4c
 11250 0177 46010000 		.4byte	0x146
 11251 017b 02       		.uleb128 0x2
 11252 017c 91       		.byte	0x91
 11253 017d 70       		.sleb128 -16
 11254 017e 09       		.uleb128 0x9
 11255 017f 6E00     		.ascii	"n\000"
 11256 0181 01       		.byte	0x1
 11257 0182 4C       		.byte	0x4c
 11258 0183 2C000000 		.4byte	0x2c
 11259 0187 02       		.uleb128 0x2
 11260 0188 91       		.byte	0x91
 11261 0189 6C       		.sleb128 -20
 11262 018a 00       		.byte	0
 11263 018b 0D       		.uleb128 0xd
 11264 018c 1C000000 		.4byte	.LASF23
 11265 0190 01       		.byte	0x1
 11266 0191 6E       		.byte	0x6e
 11267 0192 00000000 		.4byte	.LFB3
 11268 0196 0C000000 		.4byte	.LFE3-.LFB3
 11269 019a 01       		.uleb128 0x1
 11270 019b 9C       		.byte	0x9c
 11271 019c AF010000 		.4byte	0x1af
 11272 01a0 0A       		.uleb128 0xa
 11273 01a1 E5010000 		.4byte	.LASF24
 11274 01a5 01       		.byte	0x1
 11275 01a6 6E       		.byte	0x6e
 11276 01a7 86000000 		.4byte	0x86
 11277 01ab 02       		.uleb128 0x2
 11278 01ac 91       		.byte	0x91
 11279 01ad 77       		.sleb128 -9
 11280 01ae 00       		.byte	0
 11281 01af 08       		.uleb128 0x8
 11282 01b0 DA010000 		.4byte	.LASF25
 11283 01b4 01       		.byte	0x1
 11284 01b5 9A       		.byte	0x9a
 11285 01b6 00000000 		.4byte	.LFB4
 11286 01ba 8C010000 		.4byte	.LFE4-.LFB4
 11287 01be 01       		.uleb128 0x1
 11288 01bf 9C       		.byte	0x9c
 11289 01c0 E1010000 		.4byte	0x1e1
 11290 01c4 0E       		.uleb128 0xe
 11291 01c5 FA030000 		.4byte	.LASF26
 11292 01c9 01       		.byte	0x1
 11293 01ca 9C       		.byte	0x9c
 11294 01cb 9E000000 		.4byte	0x9e
 11295 01cf 02       		.uleb128 0x2
 11296 01d0 91       		.byte	0x91
 11297 01d1 74       		.sleb128 -12
 11298 01d2 0E       		.uleb128 0xe
 11299 01d3 17080000 		.4byte	.LASF27
 11300 01d7 01       		.byte	0x1
 11301 01d8 9D       		.byte	0x9d
 11302 01d9 86000000 		.4byte	0x86
 11303 01dd 02       		.uleb128 0x2
 11304 01de 91       		.byte	0x91
 11305 01df 73       		.sleb128 -13
ARM GAS  C:\Users\Bruger\AppData\Local\Temp\ccj0lDyf.s 			page 225


 11306 01e0 00       		.byte	0
 11307 01e1 08       		.uleb128 0x8
 11308 01e2 42010000 		.4byte	.LASF28
 11309 01e6 01       		.byte	0x1
 11310 01e7 EB       		.byte	0xeb
 11311 01e8 00000000 		.4byte	.LFB5
 11312 01ec 9C000000 		.4byte	.LFE5-.LFB5
 11313 01f0 01       		.uleb128 0x1
 11314 01f1 9C       		.byte	0x9c
 11315 01f2 21020000 		.4byte	0x221
 11316 01f6 0E       		.uleb128 0xe
 11317 01f7 46050000 		.4byte	.LASF29
 11318 01fb 01       		.byte	0x1
 11319 01fc ED       		.byte	0xed
 11320 01fd 86000000 		.4byte	0x86
 11321 0201 02       		.uleb128 0x2
 11322 0202 91       		.byte	0x91
 11323 0203 77       		.sleb128 -9
 11324 0204 0F       		.uleb128 0xf
 11325 0205 63723400 		.ascii	"cr4\000"
 11326 0209 01       		.byte	0x1
 11327 020a EE       		.byte	0xee
 11328 020b 86000000 		.4byte	0x86
 11329 020f 02       		.uleb128 0x2
 11330 0210 91       		.byte	0x91
 11331 0211 76       		.sleb128 -10
 11332 0212 0F       		.uleb128 0xf
 11333 0213 63723500 		.ascii	"cr5\000"
 11334 0217 01       		.byte	0x1
 11335 0218 EF       		.byte	0xef
 11336 0219 86000000 		.4byte	0x86
 11337 021d 02       		.uleb128 0x2
 11338 021e 91       		.byte	0x91
 11339 021f 75       		.sleb128 -11
 11340 0220 00       		.byte	0
 11341 0221 10       		.uleb128 0x10
 11342 0222 2A090000 		.4byte	.LASF32
 11343 0226 01       		.byte	0x1
 11344 0227 1001     		.2byte	0x110
 11345 0229 00000000 		.4byte	.LFB6
 11346 022d 3C000000 		.4byte	.LFE6-.LFB6
 11347 0231 01       		.uleb128 0x1
 11348 0232 9C       		.byte	0x9c
 11349 0233 56020000 		.4byte	0x256
 11350 0237 11       		.uleb128 0x11
 11351 0238 6F090000 		.4byte	.LASF30
 11352 023c 01       		.byte	0x1
 11353 023d 1001     		.2byte	0x110
 11354 023f 86000000 		.4byte	0x86
 11355 0243 02       		.uleb128 0x2
 11356 0244 91       		.byte	0x91
 11357 0245 6F       		.sleb128 -17
 11358 0246 12       		.uleb128 0x12
 11359 0247 E5020000 		.4byte	.LASF31
 11360 024b 01       		.byte	0x1
 11361 024c 1201     		.2byte	0x112
 11362 024e 86000000 		.4byte	0x86
ARM GAS  C:\Users\Bruger\AppData\Local\Temp\ccj0lDyf.s 			page 226


 11363 0252 02       		.uleb128 0x2
 11364 0253 91       		.byte	0x91
 11365 0254 77       		.sleb128 -9
 11366 0255 00       		.byte	0
 11367 0256 10       		.uleb128 0x10
 11368 0257 C6050000 		.4byte	.LASF33
 11369 025b 01       		.byte	0x1
 11370 025c 5E01     		.2byte	0x15e
 11371 025e 00000000 		.4byte	.LFB7
 11372 0262 B8000000 		.4byte	.LFE7-.LFB7
 11373 0266 01       		.uleb128 0x1
 11374 0267 9C       		.byte	0x9c
 11375 0268 98020000 		.4byte	0x298
 11376 026c 11       		.uleb128 0x11
 11377 026d 30080000 		.4byte	.LASF34
 11378 0271 01       		.byte	0x1
 11379 0272 5E01     		.2byte	0x15e
 11380 0274 86000000 		.4byte	0x86
 11381 0278 02       		.uleb128 0x2
 11382 0279 91       		.byte	0x91
 11383 027a 6F       		.sleb128 -17
 11384 027b 13       		.uleb128 0x13
 11385 027c 6900     		.ascii	"i\000"
 11386 027e 01       		.byte	0x1
 11387 027f 6001     		.2byte	0x160
 11388 0281 86000000 		.4byte	0x86
 11389 0285 02       		.uleb128 0x2
 11390 0286 91       		.byte	0x91
 11391 0287 76       		.sleb128 -10
 11392 0288 12       		.uleb128 0x12
 11393 0289 88080000 		.4byte	.LASF35
 11394 028d 01       		.byte	0x1
 11395 028e 6101     		.2byte	0x161
 11396 0290 86000000 		.4byte	0x86
 11397 0294 02       		.uleb128 0x2
 11398 0295 91       		.byte	0x91
 11399 0296 77       		.sleb128 -9
 11400 0297 00       		.byte	0
 11401 0298 10       		.uleb128 0x10
 11402 0299 94080000 		.4byte	.LASF36
 11403 029d 01       		.byte	0x1
 11404 029e 7D01     		.2byte	0x17d
 11405 02a0 00000000 		.4byte	.LFB8
 11406 02a4 C4000000 		.4byte	.LFE8-.LFB8
 11407 02a8 01       		.uleb128 0x1
 11408 02a9 9C       		.byte	0x9c
 11409 02aa DA020000 		.4byte	0x2da
 11410 02ae 11       		.uleb128 0x11
 11411 02af 30080000 		.4byte	.LASF34
 11412 02b3 01       		.byte	0x1
 11413 02b4 7D01     		.2byte	0x17d
 11414 02b6 86000000 		.4byte	0x86
 11415 02ba 02       		.uleb128 0x2
 11416 02bb 91       		.byte	0x91
 11417 02bc 6F       		.sleb128 -17
 11418 02bd 13       		.uleb128 0x13
 11419 02be 6900     		.ascii	"i\000"
ARM GAS  C:\Users\Bruger\AppData\Local\Temp\ccj0lDyf.s 			page 227


 11420 02c0 01       		.byte	0x1
 11421 02c1 7F01     		.2byte	0x17f
 11422 02c3 86000000 		.4byte	0x86
 11423 02c7 02       		.uleb128 0x2
 11424 02c8 91       		.byte	0x91
 11425 02c9 76       		.sleb128 -10
 11426 02ca 12       		.uleb128 0x12
 11427 02cb 88080000 		.4byte	.LASF35
 11428 02cf 01       		.byte	0x1
 11429 02d0 8001     		.2byte	0x180
 11430 02d2 86000000 		.4byte	0x86
 11431 02d6 02       		.uleb128 0x2
 11432 02d7 91       		.byte	0x91
 11433 02d8 77       		.sleb128 -9
 11434 02d9 00       		.byte	0
 11435 02da 14       		.uleb128 0x14
 11436 02db 500B0000 		.4byte	.LASF37
 11437 02df 01       		.byte	0x1
 11438 02e0 A101     		.2byte	0x1a1
 11439 02e2 00000000 		.4byte	.LFB9
 11440 02e6 9C010000 		.4byte	.LFE9-.LFB9
 11441 02ea 01       		.uleb128 0x1
 11442 02eb 9C       		.byte	0x9c
 11443 02ec B20A0000 		.4byte	0xab2
 11444 02f0 12       		.uleb128 0x12
 11445 02f1 94070000 		.4byte	.LASF38
 11446 02f5 01       		.byte	0x1
 11447 02f6 A401     		.2byte	0x1a4
 11448 02f8 C20A0000 		.4byte	0xac2
 11449 02fc 05       		.uleb128 0x5
 11450 02fd 03       		.byte	0x3
 11451 02fe B4030000 		.4byte	BS_IOPINS0_0_VAL.4882
 11452 0302 12       		.uleb128 0x12
 11453 0303 98000000 		.4byte	.LASF39
 11454 0307 01       		.byte	0x1
 11455 0308 A801     		.2byte	0x1a8
 11456 030a C70A0000 		.4byte	0xac7
 11457 030e 05       		.uleb128 0x5
 11458 030f 03       		.byte	0x3
 11459 0310 BC030000 		.4byte	BS_IOPINS0_7_VAL.4883
 11460 0314 12       		.uleb128 0x12
 11461 0315 1F080000 		.4byte	.LASF40
 11462 0319 01       		.byte	0x1
 11463 031a AC01     		.2byte	0x1ac
 11464 031c DC0A0000 		.4byte	0xadc
 11465 0320 05       		.uleb128 0x5
 11466 0321 03       		.byte	0x3
 11467 0322 C4030000 		.4byte	BS_IOPINS0_8_VAL.4884
 11468 0326 12       		.uleb128 0x12
 11469 0327 34030000 		.4byte	.LASF41
 11470 032b 01       		.byte	0x1
 11471 032c B001     		.2byte	0x1b0
 11472 032e E10A0000 		.4byte	0xae1
 11473 0332 05       		.uleb128 0x5
 11474 0333 03       		.byte	0x3
 11475 0334 D0030000 		.4byte	BS_IOPINS0_1_VAL.4885
 11476 0338 12       		.uleb128 0x12
ARM GAS  C:\Users\Bruger\AppData\Local\Temp\ccj0lDyf.s 			page 228


 11477 0339 F10A0000 		.4byte	.LASF42
 11478 033d 01       		.byte	0x1
 11479 033e B401     		.2byte	0x1b4
 11480 0340 E60A0000 		.4byte	0xae6
 11481 0344 05       		.uleb128 0x5
 11482 0345 03       		.byte	0x3
 11483 0346 D8030000 		.4byte	BS_IOPINS0_2_VAL.4886
 11484 034a 12       		.uleb128 0x12
 11485 034b 70060000 		.4byte	.LASF43
 11486 034f 01       		.byte	0x1
 11487 0350 B801     		.2byte	0x1b8
 11488 0352 EB0A0000 		.4byte	0xaeb
 11489 0356 05       		.uleb128 0x5
 11490 0357 03       		.byte	0x3
 11491 0358 E4030000 		.4byte	BS_IOPINS0_3_VAL.4887
 11492 035c 15       		.uleb128 0x15
 11493 035d 18000000 		.4byte	.LBB2
 11494 0361 BA000000 		.4byte	.LBE2-.LBB2
 11495 0365 16       		.uleb128 0x16
 11496 0366 06       		.byte	0x6
 11497 0367 01       		.byte	0x1
 11498 0368 C501     		.2byte	0x1c5
 11499 036a 89030000 		.4byte	0x389
 11500 036e 17       		.uleb128 0x17
 11501 036f 6E0A0000 		.4byte	.LASF44
 11502 0373 01       		.byte	0x1
 11503 0374 C601     		.2byte	0x1c6
 11504 0376 7D000000 		.4byte	0x7d
 11505 037a 00       		.byte	0
 11506 037b 17       		.uleb128 0x17
 11507 037c 4B040000 		.4byte	.LASF45
 11508 0380 01       		.byte	0x1
 11509 0381 C701     		.2byte	0x1c7
 11510 0383 92000000 		.4byte	0x92
 11511 0387 04       		.byte	0x4
 11512 0388 00       		.byte	0
 11513 0389 06       		.uleb128 0x6
 11514 038a B9050000 		.4byte	.LASF46
 11515 038e 01       		.byte	0x1
 11516 038f C801     		.2byte	0x1c8
 11517 0391 65030000 		.4byte	0x365
 11518 0395 16       		.uleb128 0x16
 11519 0396 0A       		.byte	0xa
 11520 0397 01       		.byte	0x1
 11521 0398 CB01     		.2byte	0x1cb
 11522 039a C6030000 		.4byte	0x3c6
 11523 039e 17       		.uleb128 0x17
 11524 039f 81060000 		.4byte	.LASF21
 11525 03a3 01       		.byte	0x1
 11526 03a4 CC01     		.2byte	0x1cc
 11527 03a6 7D000000 		.4byte	0x7d
 11528 03aa 00       		.byte	0
 11529 03ab 18       		.uleb128 0x18
 11530 03ac 73726300 		.ascii	"src\000"
 11531 03b0 01       		.byte	0x1
 11532 03b1 CD01     		.2byte	0x1cd
 11533 03b3 46010000 		.4byte	0x146
ARM GAS  C:\Users\Bruger\AppData\Local\Temp\ccj0lDyf.s 			page 229


 11534 03b7 04       		.byte	0x4
 11535 03b8 17       		.uleb128 0x17
 11536 03b9 4B040000 		.4byte	.LASF45
 11537 03bd 01       		.byte	0x1
 11538 03be CE01     		.2byte	0x1ce
 11539 03c0 92000000 		.4byte	0x92
 11540 03c4 08       		.byte	0x8
 11541 03c5 00       		.byte	0
 11542 03c6 06       		.uleb128 0x6
 11543 03c7 1A040000 		.4byte	.LASF47
 11544 03cb 01       		.byte	0x1
 11545 03cc CF01     		.2byte	0x1cf
 11546 03ce 95030000 		.4byte	0x395
 11547 03d2 19       		.uleb128 0x19
 11548 03d3 89030000 		.4byte	0x389
 11549 03d7 E2030000 		.4byte	0x3e2
 11550 03db 1A       		.uleb128 0x1a
 11551 03dc 76000000 		.4byte	0x76
 11552 03e0 02       		.byte	0x2
 11553 03e1 00       		.byte	0
 11554 03e2 12       		.uleb128 0x12
 11555 03e3 60060000 		.4byte	.LASF48
 11556 03e7 01       		.byte	0x1
 11557 03e8 D101     		.2byte	0x1d1
 11558 03ea F4030000 		.4byte	0x3f4
 11559 03ee 05       		.uleb128 0x5
 11560 03ef 03       		.byte	0x3
 11561 03f0 44000000 		.4byte	cfg_memset_list.4897
 11562 03f4 1B       		.uleb128 0x1b
 11563 03f5 D2030000 		.4byte	0x3d2
 11564 03f9 12       		.uleb128 0x12
 11565 03fa 77090000 		.4byte	.LASF49
 11566 03fe 01       		.byte	0x1
 11567 03ff D901     		.2byte	0x1d9
 11568 0401 000B0000 		.4byte	0xb00
 11569 0405 05       		.uleb128 0x5
 11570 0406 03       		.byte	0x3
 11571 0407 24280000 		.4byte	BS_IOPORT_1_VAL.4898
 11572 040b 12       		.uleb128 0x12
 11573 040c F9040000 		.4byte	.LASF50
 11574 0410 01       		.byte	0x1
 11575 0411 DD01     		.2byte	0x1dd
 11576 0413 050B0000 		.4byte	0xb05
 11577 0417 05       		.uleb128 0x5
 11578 0418 03       		.byte	0x3
 11579 0419 1C280000 		.4byte	BS_IOPORT_2_VAL.4899
 11580 041d 12       		.uleb128 0x12
 11581 041e 8C020000 		.4byte	.LASF51
 11582 0422 01       		.byte	0x1
 11583 0423 E101     		.2byte	0x1e1
 11584 0425 0A0B0000 		.4byte	0xb0a
 11585 0429 05       		.uleb128 0x5
 11586 042a 03       		.byte	0x3
 11587 042b 14280000 		.4byte	BS_PICU_2_VAL.4900
 11588 042f 12       		.uleb128 0x12
 11589 0430 01010000 		.4byte	.LASF52
 11590 0434 01       		.byte	0x1
ARM GAS  C:\Users\Bruger\AppData\Local\Temp\ccj0lDyf.s 			page 230


 11591 0435 E501     		.2byte	0x1e5
 11592 0437 0F0B0000 		.4byte	0xb0f
 11593 043b 05       		.uleb128 0x5
 11594 043c 03       		.byte	0x3
 11595 043d 0C280000 		.4byte	BS_IOPORT_3_VAL.4901
 11596 0441 12       		.uleb128 0x12
 11597 0442 D6060000 		.4byte	.LASF53
 11598 0446 01       		.byte	0x1
 11599 0447 E901     		.2byte	0x1e9
 11600 0449 240B0000 		.4byte	0xb24
 11601 044d 05       		.uleb128 0x5
 11602 044e 03       		.byte	0x3
 11603 044f 04280000 		.4byte	BS_IOPORT_7_VAL.4902
 11604 0453 12       		.uleb128 0x12
 11605 0454 EB090000 		.4byte	.LASF54
 11606 0458 01       		.byte	0x1
 11607 0459 ED01     		.2byte	0x1ed
 11608 045b 290B0000 		.4byte	0xb29
 11609 045f 05       		.uleb128 0x5
 11610 0460 03       		.byte	0x3
 11611 0461 FC270000 		.4byte	BS_IOPORT_8_VAL.4903
 11612 0465 12       		.uleb128 0x12
 11613 0466 07000000 		.4byte	.LASF55
 11614 046a 01       		.byte	0x1
 11615 046b F101     		.2byte	0x1f1
 11616 046d 2E0B0000 		.4byte	0xb2e
 11617 0471 05       		.uleb128 0x5
 11618 0472 03       		.byte	0x3
 11619 0473 F4270000 		.4byte	BS_PICU_8_VAL.4904
 11620 0477 12       		.uleb128 0x12
 11621 0478 170B0000 		.4byte	.LASF56
 11622 047c 01       		.byte	0x1
 11623 047d F501     		.2byte	0x1f5
 11624 047f 330B0000 		.4byte	0xb33
 11625 0483 05       		.uleb128 0x5
 11626 0484 03       		.byte	0x3
 11627 0485 EC270000 		.4byte	BS_IDMUX_IRQ_VAL.4905
 11628 0489 12       		.uleb128 0x12
 11629 048a 45000000 		.4byte	.LASF57
 11630 048e 01       		.byte	0x1
 11631 048f F901     		.2byte	0x1f9
 11632 0491 480B0000 		.4byte	0xb48
 11633 0495 05       		.uleb128 0x5
 11634 0496 03       		.byte	0x3
 11635 0497 E0270000 		.4byte	BS_TMR0_VAL.4906
 11636 049b 12       		.uleb128 0x12
 11637 049c 27040000 		.4byte	.LASF58
 11638 04a0 01       		.byte	0x1
 11639 04a1 FD01     		.2byte	0x1fd
 11640 04a3 4D0B0000 		.4byte	0xb4d
 11641 04a7 05       		.uleb128 0x5
 11642 04a8 03       		.byte	0x3
 11643 04a9 D4270000 		.4byte	BS_TMR1_VAL.4907
 11644 04ad 12       		.uleb128 0x12
 11645 04ae 19050000 		.4byte	.LASF59
 11646 04b2 01       		.byte	0x1
 11647 04b3 0102     		.2byte	0x201
ARM GAS  C:\Users\Bruger\AppData\Local\Temp\ccj0lDyf.s 			page 231


 11648 04b5 520B0000 		.4byte	0xb52
 11649 04b9 05       		.uleb128 0x5
 11650 04ba 03       		.byte	0x3
 11651 04bb CC270000 		.4byte	BS_SAR0_VAL.4908
 11652 04bf 12       		.uleb128 0x12
 11653 04c0 A9010000 		.4byte	.LASF60
 11654 04c4 01       		.byte	0x1
 11655 04c5 0502     		.2byte	0x205
 11656 04c7 670B0000 		.4byte	0xb67
 11657 04cb 05       		.uleb128 0x5
 11658 04cc 03       		.byte	0x3
 11659 04cd 4C270000 		.4byte	BS_UDB_1_5_0_CONFIG_VAL.4909
 11660 04d1 12       		.uleb128 0x12
 11661 04d2 6D050000 		.4byte	.LASF61
 11662 04d6 01       		.byte	0x1
 11663 04d7 1002     		.2byte	0x210
 11664 04d9 6C0B0000 		.4byte	0xb6c
 11665 04dd 05       		.uleb128 0x5
 11666 04de 03       		.byte	0x3
 11667 04df CC260000 		.4byte	BS_UDB_1_5_1_CONFIG_VAL.4910
 11668 04e3 12       		.uleb128 0x12
 11669 04e4 38080000 		.4byte	.LASF62
 11670 04e8 01       		.byte	0x1
 11671 04e9 1B02     		.2byte	0x21b
 11672 04eb 710B0000 		.4byte	0xb71
 11673 04ef 05       		.uleb128 0x5
 11674 04f0 03       		.byte	0x3
 11675 04f1 4C260000 		.4byte	BS_UDB_1_4_1_CONFIG_VAL.4911
 11676 04f5 12       		.uleb128 0x12
 11677 04f6 E6060000 		.4byte	.LASF63
 11678 04fa 01       		.byte	0x1
 11679 04fb 2602     		.2byte	0x226
 11680 04fd 760B0000 		.4byte	0xb76
 11681 0501 05       		.uleb128 0x5
 11682 0502 03       		.byte	0x3
 11683 0503 CC250000 		.4byte	BS_UDB_1_4_0_CONFIG_VAL.4912
 11684 0507 12       		.uleb128 0x12
 11685 0508 BA080000 		.4byte	.LASF64
 11686 050c 01       		.byte	0x1
 11687 050d 3102     		.2byte	0x231
 11688 050f 7B0B0000 		.4byte	0xb7b
 11689 0513 05       		.uleb128 0x5
 11690 0514 03       		.byte	0x3
 11691 0515 4C250000 		.4byte	BS_UDB_1_3_0_CONFIG_VAL.4913
 11692 0519 12       		.uleb128 0x12
 11693 051a 53010000 		.4byte	.LASF65
 11694 051e 01       		.byte	0x1
 11695 051f 3C02     		.2byte	0x23c
 11696 0521 800B0000 		.4byte	0xb80
 11697 0525 05       		.uleb128 0x5
 11698 0526 03       		.byte	0x3
 11699 0527 CC240000 		.4byte	BS_UDB_1_3_1_CONFIG_VAL.4914
 11700 052b 12       		.uleb128 0x12
 11701 052c EE020000 		.4byte	.LASF66
 11702 0530 01       		.byte	0x1
 11703 0531 4702     		.2byte	0x247
 11704 0533 850B0000 		.4byte	0xb85
ARM GAS  C:\Users\Bruger\AppData\Local\Temp\ccj0lDyf.s 			page 232


 11705 0537 05       		.uleb128 0x5
 11706 0538 03       		.byte	0x3
 11707 0539 4C240000 		.4byte	BS_UDB_1_2_1_CONFIG_VAL.4915
 11708 053d 12       		.uleb128 0x12
 11709 053e 960A0000 		.4byte	.LASF67
 11710 0542 01       		.byte	0x1
 11711 0543 5202     		.2byte	0x252
 11712 0545 8A0B0000 		.4byte	0xb8a
 11713 0549 05       		.uleb128 0x5
 11714 054a 03       		.byte	0x3
 11715 054b CC230000 		.4byte	BS_UDB_1_2_0_CONFIG_VAL.4916
 11716 054f 12       		.uleb128 0x12
 11717 0550 2E050000 		.4byte	.LASF68
 11718 0554 01       		.byte	0x1
 11719 0555 5D02     		.2byte	0x25d
 11720 0557 8F0B0000 		.4byte	0xb8f
 11721 055b 05       		.uleb128 0x5
 11722 055c 03       		.byte	0x3
 11723 055d 4C230000 		.4byte	BS_UDB_0_2_1_CONFIG_VAL.4917
 11724 0561 12       		.uleb128 0x12
 11725 0562 C7040000 		.4byte	.LASF69
 11726 0566 01       		.byte	0x1
 11727 0567 6802     		.2byte	0x268
 11728 0569 940B0000 		.4byte	0xb94
 11729 056d 05       		.uleb128 0x5
 11730 056e 03       		.byte	0x3
 11731 056f CC220000 		.4byte	BS_UDB_0_2_0_CONFIG_VAL.4918
 11732 0573 12       		.uleb128 0x12
 11733 0574 770B0000 		.4byte	.LASF70
 11734 0578 01       		.byte	0x1
 11735 0579 7302     		.2byte	0x273
 11736 057b 990B0000 		.4byte	0xb99
 11737 057f 05       		.uleb128 0x5
 11738 0580 03       		.byte	0x3
 11739 0581 4C220000 		.4byte	BS_UDB_0_3_0_CONFIG_VAL.4919
 11740 0585 12       		.uleb128 0x12
 11741 0586 02040000 		.4byte	.LASF71
 11742 058a 01       		.byte	0x1
 11743 058b 7E02     		.2byte	0x27e
 11744 058d 9E0B0000 		.4byte	0xb9e
 11745 0591 05       		.uleb128 0x5
 11746 0592 03       		.byte	0x3
 11747 0593 CC210000 		.4byte	BS_UDB_0_3_1_CONFIG_VAL.4920
 11748 0597 12       		.uleb128 0x12
 11749 0598 34020000 		.4byte	.LASF72
 11750 059c 01       		.byte	0x1
 11751 059d 8902     		.2byte	0x289
 11752 059f A30B0000 		.4byte	0xba3
 11753 05a3 05       		.uleb128 0x5
 11754 05a4 03       		.byte	0x3
 11755 05a5 4C210000 		.4byte	BS_UDB_0_4_1_CONFIG_VAL.4921
 11756 05a9 12       		.uleb128 0x12
 11757 05aa 87090000 		.4byte	.LASF73
 11758 05ae 01       		.byte	0x1
 11759 05af 9402     		.2byte	0x294
 11760 05b1 A80B0000 		.4byte	0xba8
 11761 05b5 05       		.uleb128 0x5
ARM GAS  C:\Users\Bruger\AppData\Local\Temp\ccj0lDyf.s 			page 233


 11762 05b6 03       		.byte	0x3
 11763 05b7 CC200000 		.4byte	BS_UDB_0_4_0_CONFIG_VAL.4922
 11764 05bb 12       		.uleb128 0x12
 11765 05bc 50080000 		.4byte	.LASF74
 11766 05c0 01       		.byte	0x1
 11767 05c1 9F02     		.2byte	0x29f
 11768 05c3 AD0B0000 		.4byte	0xbad
 11769 05c7 05       		.uleb128 0x5
 11770 05c8 03       		.byte	0x3
 11771 05c9 4C200000 		.4byte	BS_UDB_0_5_0_CONFIG_VAL.4923
 11772 05cd 12       		.uleb128 0x12
 11773 05ce 66000000 		.4byte	.LASF75
 11774 05d2 01       		.byte	0x1
 11775 05d3 AA02     		.2byte	0x2aa
 11776 05d5 B20B0000 		.4byte	0xbb2
 11777 05d9 05       		.uleb128 0x5
 11778 05da 03       		.byte	0x3
 11779 05db CC1F0000 		.4byte	BS_UDB_0_5_1_CONFIG_VAL.4924
 11780 05df 12       		.uleb128 0x12
 11781 05e0 6D020000 		.4byte	.LASF76
 11782 05e4 01       		.byte	0x1
 11783 05e5 B502     		.2byte	0x2b5
 11784 05e7 B70B0000 		.4byte	0xbb7
 11785 05eb 05       		.uleb128 0x5
 11786 05ec 03       		.byte	0x3
 11787 05ed 4C1F0000 		.4byte	BS_UDB_1_0_0_CONFIG_VAL.4925
 11788 05f1 12       		.uleb128 0x12
 11789 05f2 A6060000 		.4byte	.LASF77
 11790 05f6 01       		.byte	0x1
 11791 05f7 C002     		.2byte	0x2c0
 11792 05f9 BC0B0000 		.4byte	0xbbc
 11793 05fd 05       		.uleb128 0x5
 11794 05fe 03       		.byte	0x3
 11795 05ff CC1E0000 		.4byte	BS_UDB_1_0_1_CONFIG_VAL.4926
 11796 0603 12       		.uleb128 0x12
 11797 0604 AF040000 		.4byte	.LASF78
 11798 0608 01       		.byte	0x1
 11799 0609 CB02     		.2byte	0x2cb
 11800 060b C10B0000 		.4byte	0xbc1
 11801 060f 05       		.uleb128 0x5
 11802 0610 03       		.byte	0x3
 11803 0611 4C1E0000 		.4byte	BS_UDB_1_1_1_CONFIG_VAL.4927
 11804 0615 12       		.uleb128 0x12
 11805 0616 33040000 		.4byte	.LASF79
 11806 061a 01       		.byte	0x1
 11807 061b D602     		.2byte	0x2d6
 11808 061d C60B0000 		.4byte	0xbc6
 11809 0621 05       		.uleb128 0x5
 11810 0622 03       		.byte	0x3
 11811 0623 CC1D0000 		.4byte	BS_UDB_1_1_0_CONFIG_VAL.4928
 11812 0627 12       		.uleb128 0x12
 11813 0628 280B0000 		.4byte	.LASF80
 11814 062c 01       		.byte	0x1
 11815 062d E102     		.2byte	0x2e1
 11816 062f CB0B0000 		.4byte	0xbcb
 11817 0633 05       		.uleb128 0x5
 11818 0634 03       		.byte	0x3
ARM GAS  C:\Users\Bruger\AppData\Local\Temp\ccj0lDyf.s 			page 234


 11819 0635 4C1D0000 		.4byte	BS_UDB_0_1_1_CONFIG_VAL.4929
 11820 0639 12       		.uleb128 0x12
 11821 063a BE060000 		.4byte	.LASF81
 11822 063e 01       		.byte	0x1
 11823 063f EC02     		.2byte	0x2ec
 11824 0641 D00B0000 		.4byte	0xbd0
 11825 0645 05       		.uleb128 0x5
 11826 0646 03       		.byte	0x3
 11827 0647 CC1C0000 		.4byte	BS_UDB_0_1_0_CONFIG_VAL.4930
 11828 064b 12       		.uleb128 0x12
 11829 064c 58030000 		.4byte	.LASF82
 11830 0650 01       		.byte	0x1
 11831 0651 F702     		.2byte	0x2f7
 11832 0653 D50B0000 		.4byte	0xbd5
 11833 0657 05       		.uleb128 0x5
 11834 0658 03       		.byte	0x3
 11835 0659 4C1C0000 		.4byte	BS_UDB_0_0_0_CONFIG_VAL.4931
 11836 065d 12       		.uleb128 0x12
 11837 065e 2A010000 		.4byte	.LASF83
 11838 0662 01       		.byte	0x1
 11839 0663 0203     		.2byte	0x302
 11840 0665 DA0B0000 		.4byte	0xbda
 11841 0669 05       		.uleb128 0x5
 11842 066a 03       		.byte	0x3
 11843 066b CC1B0000 		.4byte	BS_UDB_0_0_1_CONFIG_VAL.4932
 11844 066f 12       		.uleb128 0x12
 11845 0670 68080000 		.4byte	.LASF84
 11846 0674 01       		.byte	0x1
 11847 0675 0D03     		.2byte	0x30d
 11848 0677 EF0B0000 		.4byte	0xbef
 11849 067b 05       		.uleb128 0x5
 11850 067c 03       		.byte	0x3
 11851 067d AC1B0000 		.4byte	BS_UWRK_B0_WRK_STATCTL_BITS_VAL.4933
 11852 0681 12       		.uleb128 0x12
 11853 0682 760A0000 		.4byte	.LASF85
 11854 0686 01       		.byte	0x1
 11855 0687 1203     		.2byte	0x312
 11856 0689 F40B0000 		.4byte	0xbf4
 11857 068d 05       		.uleb128 0x5
 11858 068e 03       		.byte	0x3
 11859 068f 8C1B0000 		.4byte	BS_UWRK_B1_WRK_STATCTL_BITS_VAL.4934
 11860 0693 12       		.uleb128 0x12
 11861 0694 73040000 		.4byte	.LASF86
 11862 0698 01       		.byte	0x1
 11863 0699 1703     		.2byte	0x317
 11864 069b 090C0000 		.4byte	0xc09
 11865 069f 05       		.uleb128 0x5
 11866 06a0 03       		.byte	0x3
 11867 06a1 7C1B0000 		.4byte	BS_UCFG_BCTL1_VAL.4935
 11868 06a5 12       		.uleb128 0x12
 11869 06a6 D9080000 		.4byte	.LASF87
 11870 06aa 01       		.byte	0x1
 11871 06ab 1B03     		.2byte	0x31b
 11872 06ad 0E0C0000 		.4byte	0xc0e
 11873 06b1 05       		.uleb128 0x5
 11874 06b2 03       		.byte	0x3
 11875 06b3 6C1B0000 		.4byte	BS_UCFG_BCTL0_VAL.4936
ARM GAS  C:\Users\Bruger\AppData\Local\Temp\ccj0lDyf.s 			page 235


 11876 06b7 12       		.uleb128 0x12
 11877 06b8 D0020000 		.4byte	.LASF88
 11878 06bc 01       		.byte	0x1
 11879 06bd 1F03     		.2byte	0x31f
 11880 06bf 130C0000 		.4byte	0xc13
 11881 06c3 05       		.uleb128 0x5
 11882 06c4 03       		.byte	0x3
 11883 06c5 EC1A0000 		.4byte	BS_DSISWITCH_0_0_VAL.4937
 11884 06c9 12       		.uleb128 0x12
 11885 06ca 9F090000 		.4byte	.LASF89
 11886 06ce 01       		.byte	0x1
 11887 06cf 2A03     		.2byte	0x32a
 11888 06d1 180C0000 		.4byte	0xc18
 11889 06d5 05       		.uleb128 0x5
 11890 06d6 03       		.byte	0x3
 11891 06d7 6C1A0000 		.4byte	BS_DSI0_0_HV_ROUTING_VAL.4938
 11892 06db 12       		.uleb128 0x12
 11893 06dc 00090000 		.4byte	.LASF90
 11894 06e0 01       		.byte	0x1
 11895 06e1 3503     		.2byte	0x335
 11896 06e3 1D0C0000 		.4byte	0xc1d
 11897 06e7 05       		.uleb128 0x5
 11898 06e8 03       		.byte	0x3
 11899 06e9 EC190000 		.4byte	BS_DSISWITCH_0_1_VAL.4939
 11900 06ed 12       		.uleb128 0x12
 11901 06ee FE060000 		.4byte	.LASF91
 11902 06f2 01       		.byte	0x1
 11903 06f3 4003     		.2byte	0x340
 11904 06f5 220C0000 		.4byte	0xc22
 11905 06f9 05       		.uleb128 0x5
 11906 06fa 03       		.byte	0x3
 11907 06fb 6C190000 		.4byte	BS_DSI0_1_HV_ROUTING_VAL.4940
 11908 06ff 12       		.uleb128 0x12
 11909 0700 9A040000 		.4byte	.LASF92
 11910 0704 01       		.byte	0x1
 11911 0705 4B03     		.2byte	0x34b
 11912 0707 270C0000 		.4byte	0xc27
 11913 070b 05       		.uleb128 0x5
 11914 070c 03       		.byte	0x3
 11915 070d EC180000 		.4byte	BS_DSISWITCH_0_2_VAL.4941
 11916 0711 12       		.uleb128 0x12
 11917 0712 D5000000 		.4byte	.LASF93
 11918 0716 01       		.byte	0x1
 11919 0717 5603     		.2byte	0x356
 11920 0719 2C0C0000 		.4byte	0xc2c
 11921 071d 05       		.uleb128 0x5
 11922 071e 03       		.byte	0x3
 11923 071f 6C180000 		.4byte	BS_DSI0_2_HV_ROUTING_VAL.4942
 11924 0723 12       		.uleb128 0x12
 11925 0724 51000000 		.4byte	.LASF94
 11926 0728 01       		.byte	0x1
 11927 0729 6103     		.2byte	0x361
 11928 072b 310C0000 		.4byte	0xc31
 11929 072f 05       		.uleb128 0x5
 11930 0730 03       		.byte	0x3
 11931 0731 EC170000 		.4byte	BS_DSISWITCH_0_3_VAL.4943
 11932 0735 12       		.uleb128 0x12
ARM GAS  C:\Users\Bruger\AppData\Local\Temp\ccj0lDyf.s 			page 236


 11933 0736 D2090000 		.4byte	.LASF95
 11934 073a 01       		.byte	0x1
 11935 073b 6C03     		.2byte	0x36c
 11936 073d 360C0000 		.4byte	0xc36
 11937 0741 05       		.uleb128 0x5
 11938 0742 03       		.byte	0x3
 11939 0743 6C170000 		.4byte	BS_DSI0_3_HV_ROUTING_VAL.4944
 11940 0747 12       		.uleb128 0x12
 11941 0748 020B0000 		.4byte	.LASF96
 11942 074c 01       		.byte	0x1
 11943 074d 7703     		.2byte	0x377
 11944 074f 3B0C0000 		.4byte	0xc3b
 11945 0753 05       		.uleb128 0x5
 11946 0754 03       		.byte	0x3
 11947 0755 EC160000 		.4byte	BS_DSISWITCH_0_4_VAL.4945
 11948 0759 12       		.uleb128 0x12
 11949 075a 86030000 		.4byte	.LASF97
 11950 075e 01       		.byte	0x1
 11951 075f 8203     		.2byte	0x382
 11952 0761 400C0000 		.4byte	0xc40
 11953 0765 05       		.uleb128 0x5
 11954 0766 03       		.byte	0x3
 11955 0767 6C160000 		.4byte	BS_DSI0_4_HV_ROUTING_VAL.4946
 11956 076b 12       		.uleb128 0x12
 11957 076c 11010000 		.4byte	.LASF98
 11958 0770 01       		.byte	0x1
 11959 0771 8D03     		.2byte	0x38d
 11960 0773 450C0000 		.4byte	0xc45
 11961 0777 05       		.uleb128 0x5
 11962 0778 03       		.byte	0x3
 11963 0779 EC150000 		.4byte	BS_DSI0_5_HV_ROUTING_VAL.4947
 11964 077d 12       		.uleb128 0x12
 11965 077e BB020000 		.4byte	.LASF99
 11966 0782 01       		.byte	0x1
 11967 0783 9803     		.2byte	0x398
 11968 0785 4A0C0000 		.4byte	0xc4a
 11969 0789 05       		.uleb128 0x5
 11970 078a 03       		.byte	0x3
 11971 078b 6C150000 		.4byte	BS_UDBSWITCH_0_0_VAL.4948
 11972 078f 12       		.uleb128 0x12
 11973 0790 9F030000 		.4byte	.LASF100
 11974 0794 01       		.byte	0x1
 11975 0795 A303     		.2byte	0x3a3
 11976 0797 4F0C0000 		.4byte	0xc4f
 11977 079b 05       		.uleb128 0x5
 11978 079c 03       		.byte	0x3
 11979 079d EC140000 		.4byte	BS_UDB_1_0_HV_ROUTING_VAL.4949
 11980 07a1 12       		.uleb128 0x12
 11981 07a2 EB080000 		.4byte	.LASF101
 11982 07a6 01       		.byte	0x1
 11983 07a7 AE03     		.2byte	0x3ae
 11984 07a9 540C0000 		.4byte	0xc54
 11985 07ad 05       		.uleb128 0x5
 11986 07ae 03       		.byte	0x3
 11987 07af 6C140000 		.4byte	BS_UDBSWITCH_1_0_VAL.4950
 11988 07b3 12       		.uleb128 0x12
 11989 07b4 B8090000 		.4byte	.LASF102
ARM GAS  C:\Users\Bruger\AppData\Local\Temp\ccj0lDyf.s 			page 237


 11990 07b8 01       		.byte	0x1
 11991 07b9 B903     		.2byte	0x3b9
 11992 07bb 590C0000 		.4byte	0xc59
 11993 07bf 05       		.uleb128 0x5
 11994 07c0 03       		.byte	0x3
 11995 07c1 EC130000 		.4byte	BS_UDB_2_0_HV_ROUTING_VAL.4951
 11996 07c5 12       		.uleb128 0x12
 11997 07c6 200A0000 		.4byte	.LASF103
 11998 07ca 01       		.byte	0x1
 11999 07cb C403     		.2byte	0x3c4
 12000 07cd 5E0C0000 		.4byte	0xc5e
 12001 07d1 05       		.uleb128 0x5
 12002 07d2 03       		.byte	0x3
 12003 07d3 6C130000 		.4byte	BS_UDBSWITCH_0_1_VAL.4952
 12004 07d7 12       		.uleb128 0x12
 12005 07d8 40090000 		.4byte	.LASF104
 12006 07dc 01       		.byte	0x1
 12007 07dd CF03     		.2byte	0x3cf
 12008 07df 630C0000 		.4byte	0xc63
 12009 07e3 05       		.uleb128 0x5
 12010 07e4 03       		.byte	0x3
 12011 07e5 EC120000 		.4byte	BS_UDB_1_1_HV_ROUTING_VAL.4953
 12012 07e9 12       		.uleb128 0x12
 12013 07ea 85040000 		.4byte	.LASF105
 12014 07ee 01       		.byte	0x1
 12015 07ef DA03     		.2byte	0x3da
 12016 07f1 680C0000 		.4byte	0xc68
 12017 07f5 05       		.uleb128 0x5
 12018 07f6 03       		.byte	0x3
 12019 07f7 6C120000 		.4byte	BS_UDBSWITCH_1_1_VAL.4954
 12020 07fb 12       		.uleb128 0x12
 12021 07fc CB030000 		.4byte	.LASF106
 12022 0800 01       		.byte	0x1
 12023 0801 E503     		.2byte	0x3e5
 12024 0803 6D0C0000 		.4byte	0xc6d
 12025 0807 05       		.uleb128 0x5
 12026 0808 03       		.byte	0x3
 12027 0809 EC110000 		.4byte	BS_UDB_2_1_HV_ROUTING_VAL.4955
 12028 080d 12       		.uleb128 0x12
 12029 080e 58050000 		.4byte	.LASF107
 12030 0812 01       		.byte	0x1
 12031 0813 F003     		.2byte	0x3f0
 12032 0815 720C0000 		.4byte	0xc72
 12033 0819 05       		.uleb128 0x5
 12034 081a 03       		.byte	0x3
 12035 081b 6C110000 		.4byte	BS_UDBSWITCH_0_2_VAL.4956
 12036 081f 12       		.uleb128 0x12
 12037 0820 86060000 		.4byte	.LASF108
 12038 0824 01       		.byte	0x1
 12039 0825 FB03     		.2byte	0x3fb
 12040 0827 770C0000 		.4byte	0xc77
 12041 082b 05       		.uleb128 0x5
 12042 082c 03       		.byte	0x3
 12043 082d EC100000 		.4byte	BS_UDB_1_2_HV_ROUTING_VAL.4957
 12044 0831 12       		.uleb128 0x12
 12045 0832 4B070000 		.4byte	.LASF109
 12046 0836 01       		.byte	0x1
ARM GAS  C:\Users\Bruger\AppData\Local\Temp\ccj0lDyf.s 			page 238


 12047 0837 0604     		.2byte	0x406
 12048 0839 7C0C0000 		.4byte	0xc7c
 12049 083d 05       		.uleb128 0x5
 12050 083e 03       		.byte	0x3
 12051 083f 6C100000 		.4byte	BS_UDBSWITCH_1_2_VAL.4958
 12052 0843 12       		.uleb128 0x12
 12053 0844 6B010000 		.4byte	.LASF110
 12054 0848 01       		.byte	0x1
 12055 0849 1104     		.2byte	0x411
 12056 084b 810C0000 		.4byte	0xc81
 12057 084f 05       		.uleb128 0x5
 12058 0850 03       		.byte	0x3
 12059 0851 EC0F0000 		.4byte	BS_UDB_2_2_HV_ROUTING_VAL.4959
 12060 0855 12       		.uleb128 0x12
 12061 0856 1F020000 		.4byte	.LASF111
 12062 085a 01       		.byte	0x1
 12063 085b 1C04     		.2byte	0x41c
 12064 085d 860C0000 		.4byte	0xc86
 12065 0861 05       		.uleb128 0x5
 12066 0862 03       		.byte	0x3
 12067 0863 6C0F0000 		.4byte	BS_UDBSWITCH_0_3_VAL.4960
 12068 0867 12       		.uleb128 0x12
 12069 0868 7E000000 		.4byte	.LASF112
 12070 086c 01       		.byte	0x1
 12071 086d 2704     		.2byte	0x427
 12072 086f 8B0C0000 		.4byte	0xc8b
 12073 0873 05       		.uleb128 0x5
 12074 0874 03       		.byte	0x3
 12075 0875 EC0E0000 		.4byte	BS_UDB_1_3_HV_ROUTING_VAL.4961
 12076 0879 12       		.uleb128 0x12
 12077 087a 7F070000 		.4byte	.LASF113
 12078 087e 01       		.byte	0x1
 12079 087f 3204     		.2byte	0x432
 12080 0881 900C0000 		.4byte	0xc90
 12081 0885 05       		.uleb128 0x5
 12082 0886 03       		.byte	0x3
 12083 0887 6C0E0000 		.4byte	BS_UDBSWITCH_1_3_VAL.4962
 12084 088b 12       		.uleb128 0x12
 12085 088c 9F050000 		.4byte	.LASF114
 12086 0890 01       		.byte	0x1
 12087 0891 3D04     		.2byte	0x43d
 12088 0893 950C0000 		.4byte	0xc95
 12089 0897 05       		.uleb128 0x5
 12090 0898 03       		.byte	0x3
 12091 0899 EC0D0000 		.4byte	BS_UDB_2_3_HV_ROUTING_VAL.4963
 12092 089d 12       		.uleb128 0x12
 12093 089e DC0A0000 		.4byte	.LASF115
 12094 08a2 01       		.byte	0x1
 12095 08a3 4804     		.2byte	0x448
 12096 08a5 9A0C0000 		.4byte	0xc9a
 12097 08a9 05       		.uleb128 0x5
 12098 08aa 03       		.byte	0x3
 12099 08ab 6C0D0000 		.4byte	BS_UDBSWITCH_0_4_VAL.4964
 12100 08af 12       		.uleb128 0x12
 12101 08b0 85050000 		.4byte	.LASF116
 12102 08b4 01       		.byte	0x1
 12103 08b5 5304     		.2byte	0x453
ARM GAS  C:\Users\Bruger\AppData\Local\Temp\ccj0lDyf.s 			page 239


 12104 08b7 9F0C0000 		.4byte	0xc9f
 12105 08bb 05       		.uleb128 0x5
 12106 08bc 03       		.byte	0x3
 12107 08bd EC0C0000 		.4byte	BS_UDB_1_4_HV_ROUTING_VAL.4965
 12108 08c1 12       		.uleb128 0x12
 12109 08c2 1F030000 		.4byte	.LASF117
 12110 08c6 01       		.byte	0x1
 12111 08c7 5E04     		.2byte	0x45e
 12112 08c9 A40C0000 		.4byte	0xca4
 12113 08cd 05       		.uleb128 0x5
 12114 08ce 03       		.byte	0x3
 12115 08cf 6C0C0000 		.4byte	BS_UDBSWITCH_1_4_VAL.4966
 12116 08d3 12       		.uleb128 0x12
 12117 08d4 5D0B0000 		.4byte	.LASF118
 12118 08d8 01       		.byte	0x1
 12119 08d9 6904     		.2byte	0x469
 12120 08db A90C0000 		.4byte	0xca9
 12121 08df 05       		.uleb128 0x5
 12122 08e0 03       		.byte	0x3
 12123 08e1 EC0B0000 		.4byte	BS_UDB_2_4_HV_ROUTING_VAL.4967
 12124 08e5 12       		.uleb128 0x12
 12125 08e6 E5030000 		.4byte	.LASF119
 12126 08ea 01       		.byte	0x1
 12127 08eb 7404     		.2byte	0x474
 12128 08ed AE0C0000 		.4byte	0xcae
 12129 08f1 05       		.uleb128 0x5
 12130 08f2 03       		.byte	0x3
 12131 08f3 6C0B0000 		.4byte	BS_UDBSWITCH_0_5_VAL.4968
 12132 08f7 12       		.uleb128 0x12
 12133 08f8 9A020000 		.4byte	.LASF120
 12134 08fc 01       		.byte	0x1
 12135 08fd 7F04     		.2byte	0x47f
 12136 08ff B30C0000 		.4byte	0xcb3
 12137 0903 05       		.uleb128 0x5
 12138 0904 03       		.byte	0x3
 12139 0905 EC0A0000 		.4byte	BS_UDB_1_5_HV_ROUTING_VAL.4969
 12140 0909 12       		.uleb128 0x12
 12141 090a AE0A0000 		.4byte	.LASF121
 12142 090e 01       		.byte	0x1
 12143 090f 8A04     		.2byte	0x48a
 12144 0911 B80C0000 		.4byte	0xcb8
 12145 0915 05       		.uleb128 0x5
 12146 0916 03       		.byte	0x3
 12147 0917 6C0A0000 		.4byte	BS_UDBSWITCH_1_5_VAL.4970
 12148 091b 12       		.uleb128 0x12
 12149 091c DF040000 		.4byte	.LASF122
 12150 0920 01       		.byte	0x1
 12151 0921 9504     		.2byte	0x495
 12152 0923 BD0C0000 		.4byte	0xcbd
 12153 0927 05       		.uleb128 0x5
 12154 0928 03       		.byte	0x3
 12155 0929 EC090000 		.4byte	BS_UDB_2_5_HV_ROUTING_VAL.4971
 12156 092d 12       		.uleb128 0x12
 12157 092e 15090000 		.4byte	.LASF123
 12158 0932 01       		.byte	0x1
 12159 0933 A004     		.2byte	0x4a0
 12160 0935 C20C0000 		.4byte	0xcc2
ARM GAS  C:\Users\Bruger\AppData\Local\Temp\ccj0lDyf.s 			page 240


 12161 0939 05       		.uleb128 0x5
 12162 093a 03       		.byte	0x3
 12163 093b 6C090000 		.4byte	BS_DSISWITCH_1_0_VAL.4972
 12164 093f 12       		.uleb128 0x12
 12165 0940 C30A0000 		.4byte	.LASF124
 12166 0944 01       		.byte	0x1
 12167 0945 AB04     		.2byte	0x4ab
 12168 0947 C70C0000 		.4byte	0xcc7
 12169 094b 05       		.uleb128 0x5
 12170 094c 03       		.byte	0x3
 12171 094d EC080000 		.4byte	BS_DSI3_0_HV_ROUTING_VAL.4973
 12172 0951 12       		.uleb128 0x12
 12173 0952 58020000 		.4byte	.LASF125
 12174 0956 01       		.byte	0x1
 12175 0957 B604     		.2byte	0x4b6
 12176 0959 CC0C0000 		.4byte	0xccc
 12177 095d 05       		.uleb128 0x5
 12178 095e 03       		.byte	0x3
 12179 095f 6C080000 		.4byte	BS_DSISWITCH_1_1_VAL.4974
 12180 0963 12       		.uleb128 0x12
 12181 0964 FE070000 		.4byte	.LASF126
 12182 0968 01       		.byte	0x1
 12183 0969 C104     		.2byte	0x4c1
 12184 096b D10C0000 		.4byte	0xcd1
 12185 096f 05       		.uleb128 0x5
 12186 0970 03       		.byte	0x3
 12187 0971 EC070000 		.4byte	BS_DSI3_1_HV_ROUTING_VAL.4975
 12188 0975 12       		.uleb128 0x12
 12189 0976 60070000 		.4byte	.LASF127
 12190 097a 01       		.byte	0x1
 12191 097b CC04     		.2byte	0x4cc
 12192 097d D60C0000 		.4byte	0xcd6
 12193 0981 05       		.uleb128 0x5
 12194 0982 03       		.byte	0x3
 12195 0983 6C070000 		.4byte	BS_DSISWITCH_1_2_VAL.4976
 12196 0987 12       		.uleb128 0x12
 12197 0988 C1010000 		.4byte	.LASF128
 12198 098c 01       		.byte	0x1
 12199 098d D704     		.2byte	0x4d7
 12200 098f DB0C0000 		.4byte	0xcdb
 12201 0993 05       		.uleb128 0x5
 12202 0994 03       		.byte	0x3
 12203 0995 EC060000 		.4byte	BS_DSI3_2_HV_ROUTING_VAL.4977
 12204 0999 12       		.uleb128 0x12
 12205 099a A9000000 		.4byte	.LASF129
 12206 099e 01       		.byte	0x1
 12207 099f E204     		.2byte	0x4e2
 12208 09a1 E00C0000 		.4byte	0xce0
 12209 09a5 05       		.uleb128 0x5
 12210 09a6 03       		.byte	0x3
 12211 09a7 6C060000 		.4byte	BS_DSISWITCH_1_3_VAL.4978
 12212 09ab 12       		.uleb128 0x12
 12213 09ac 32070000 		.4byte	.LASF130
 12214 09b0 01       		.byte	0x1
 12215 09b1 ED04     		.2byte	0x4ed
 12216 09b3 E50C0000 		.4byte	0xce5
 12217 09b7 05       		.uleb128 0x5
ARM GAS  C:\Users\Bruger\AppData\Local\Temp\ccj0lDyf.s 			page 241


 12218 09b8 03       		.byte	0x3
 12219 09b9 EC050000 		.4byte	BS_DSI3_3_HV_ROUTING_VAL.4979
 12220 09bd 12       		.uleb128 0x12
 12221 09be EF010000 		.4byte	.LASF131
 12222 09c2 01       		.byte	0x1
 12223 09c3 F804     		.2byte	0x4f8
 12224 09c5 EA0C0000 		.4byte	0xcea
 12225 09c9 05       		.uleb128 0x5
 12226 09ca 03       		.byte	0x3
 12227 09cb 6C050000 		.4byte	BS_DSISWITCH_1_4_VAL.4980
 12228 09cf 12       		.uleb128 0x12
 12229 09d0 06030000 		.4byte	.LASF132
 12230 09d4 01       		.byte	0x1
 12231 09d5 0305     		.2byte	0x503
 12232 09d7 EF0C0000 		.4byte	0xcef
 12233 09db 05       		.uleb128 0x5
 12234 09dc 03       		.byte	0x3
 12235 09dd EC040000 		.4byte	BS_DSI3_4_HV_ROUTING_VAL.4981
 12236 09e1 12       		.uleb128 0x12
 12237 09e2 5A090000 		.4byte	.LASF133
 12238 09e6 01       		.byte	0x1
 12239 09e7 0E05     		.2byte	0x50e
 12240 09e9 F40C0000 		.4byte	0xcf4
 12241 09ed 05       		.uleb128 0x5
 12242 09ee 03       		.byte	0x3
 12243 09ef 6C040000 		.4byte	BS_DSISWITCH_1_5_VAL.4982
 12244 09f3 12       		.uleb128 0x12
 12245 09f4 070A0000 		.4byte	.LASF134
 12246 09f8 01       		.byte	0x1
 12247 09f9 1905     		.2byte	0x519
 12248 09fb F90C0000 		.4byte	0xcf9
 12249 09ff 05       		.uleb128 0x5
 12250 0a00 03       		.byte	0x3
 12251 0a01 EC030000 		.4byte	BS_DSI3_5_HV_ROUTING_VAL.4983
 12252 0a05 19       		.uleb128 0x19
 12253 0a06 C6030000 		.4byte	0x3c6
 12254 0a0a 150A0000 		.4byte	0xa15
 12255 0a0e 1A       		.uleb128 0x1a
 12256 0a0f 76000000 		.4byte	0x76
 12257 0a13 55       		.byte	0x55
 12258 0a14 00       		.byte	0
 12259 0a15 12       		.uleb128 0x12
 12260 0a16 400B0000 		.4byte	.LASF135
 12261 0a1a 01       		.byte	0x1
 12262 0a1b 2305     		.2byte	0x523
 12263 0a1d 270A0000 		.4byte	0xa27
 12264 0a21 05       		.uleb128 0x5
 12265 0a22 03       		.byte	0x3
 12266 0a23 58000000 		.4byte	cfg_memcpy_list.4984
 12267 0a27 1B       		.uleb128 0x1b
 12268 0a28 050A0000 		.4byte	0xa05
 12269 0a2c 13       		.uleb128 0x13
 12270 0a2d 6900     		.ascii	"i\000"
 12271 0a2f 01       		.byte	0x1
 12272 0a30 7D05     		.2byte	0x57d
 12273 0a32 86000000 		.4byte	0x86
 12274 0a36 02       		.uleb128 0x2
ARM GAS  C:\Users\Bruger\AppData\Local\Temp\ccj0lDyf.s 			page 242


 12275 0a37 91       		.byte	0x91
 12276 0a38 77       		.sleb128 -9
 12277 0a39 1C       		.uleb128 0x1c
 12278 0a3a 1E000000 		.4byte	.LBB3
 12279 0a3e 22000000 		.4byte	.LBE3-.LBB3
 12280 0a42 600A0000 		.4byte	0xa60
 12281 0a46 13       		.uleb128 0x13
 12282 0a47 6D7300   		.ascii	"ms\000"
 12283 0a4a 01       		.byte	0x1
 12284 0a4b 8205     		.2byte	0x582
 12285 0a4d 540A0000 		.4byte	0xa54
 12286 0a51 02       		.uleb128 0x2
 12287 0a52 91       		.byte	0x91
 12288 0a53 70       		.sleb128 -16
 12289 0a54 0B       		.uleb128 0xb
 12290 0a55 04       		.byte	0x4
 12291 0a56 5A0A0000 		.4byte	0xa5a
 12292 0a5a 1B       		.uleb128 0x1b
 12293 0a5b 89030000 		.4byte	0x389
 12294 0a5f 00       		.byte	0
 12295 0a60 15       		.uleb128 0x15
 12296 0a61 52000000 		.4byte	.LBB4
 12297 0a65 34000000 		.4byte	.LBE4-.LBB4
 12298 0a69 13       		.uleb128 0x13
 12299 0a6a 6D6300   		.ascii	"mc\000"
 12300 0a6d 01       		.byte	0x1
 12301 0a6e 8905     		.2byte	0x589
 12302 0a70 770A0000 		.4byte	0xa77
 12303 0a74 02       		.uleb128 0x2
 12304 0a75 91       		.byte	0x91
 12305 0a76 6C       		.sleb128 -20
 12306 0a77 0B       		.uleb128 0xb
 12307 0a78 04       		.byte	0x4
 12308 0a79 7D0A0000 		.4byte	0xa7d
 12309 0a7d 1B       		.uleb128 0x1b
 12310 0a7e C6030000 		.4byte	0x3c6
 12311 0a82 12       		.uleb128 0x12
 12312 0a83 17070000 		.4byte	.LASF136
 12313 0a87 01       		.byte	0x1
 12314 0a88 8A05     		.2byte	0x58a
 12315 0a8a 7D000000 		.4byte	0x7d
 12316 0a8e 02       		.uleb128 0x2
 12317 0a8f 91       		.byte	0x91
 12318 0a90 68       		.sleb128 -24
 12319 0a91 12       		.uleb128 0x12
 12320 0a92 D2080000 		.4byte	.LASF137
 12321 0a96 01       		.byte	0x1
 12322 0a97 8B05     		.2byte	0x58b
 12323 0a99 46010000 		.4byte	0x146
 12324 0a9d 02       		.uleb128 0x2
 12325 0a9e 91       		.byte	0x91
 12326 0a9f 64       		.sleb128 -28
 12327 0aa0 12       		.uleb128 0x12
 12328 0aa1 7D030000 		.4byte	.LASF138
 12329 0aa5 01       		.byte	0x1
 12330 0aa6 8C05     		.2byte	0x58c
 12331 0aa8 92000000 		.4byte	0x92
ARM GAS  C:\Users\Bruger\AppData\Local\Temp\ccj0lDyf.s 			page 243


 12332 0aac 02       		.uleb128 0x2
 12333 0aad 91       		.byte	0x91
 12334 0aae 62       		.sleb128 -30
 12335 0aaf 00       		.byte	0
 12336 0ab0 00       		.byte	0
 12337 0ab1 00       		.byte	0
 12338 0ab2 19       		.uleb128 0x19
 12339 0ab3 86000000 		.4byte	0x86
 12340 0ab7 C20A0000 		.4byte	0xac2
 12341 0abb 1A       		.uleb128 0x1a
 12342 0abc 76000000 		.4byte	0x76
 12343 0ac0 07       		.byte	0x7
 12344 0ac1 00       		.byte	0
 12345 0ac2 1B       		.uleb128 0x1b
 12346 0ac3 B20A0000 		.4byte	0xab2
 12347 0ac7 1B       		.uleb128 0x1b
 12348 0ac8 B20A0000 		.4byte	0xab2
 12349 0acc 19       		.uleb128 0x19
 12350 0acd 86000000 		.4byte	0x86
 12351 0ad1 DC0A0000 		.4byte	0xadc
 12352 0ad5 1A       		.uleb128 0x1a
 12353 0ad6 76000000 		.4byte	0x76
 12354 0ada 09       		.byte	0x9
 12355 0adb 00       		.byte	0
 12356 0adc 1B       		.uleb128 0x1b
 12357 0add CC0A0000 		.4byte	0xacc
 12358 0ae1 1B       		.uleb128 0x1b
 12359 0ae2 B20A0000 		.4byte	0xab2
 12360 0ae6 1B       		.uleb128 0x1b
 12361 0ae7 CC0A0000 		.4byte	0xacc
 12362 0aeb 1B       		.uleb128 0x1b
 12363 0aec B20A0000 		.4byte	0xab2
 12364 0af0 19       		.uleb128 0x19
 12365 0af1 86000000 		.4byte	0x86
 12366 0af5 000B0000 		.4byte	0xb00
 12367 0af9 1A       		.uleb128 0x1a
 12368 0afa 76000000 		.4byte	0x76
 12369 0afe 06       		.byte	0x6
 12370 0aff 00       		.byte	0
 12371 0b00 1B       		.uleb128 0x1b
 12372 0b01 F00A0000 		.4byte	0xaf0
 12373 0b05 1B       		.uleb128 0x1b
 12374 0b06 F00A0000 		.4byte	0xaf0
 12375 0b0a 1B       		.uleb128 0x1b
 12376 0b0b B20A0000 		.4byte	0xab2
 12377 0b0f 1B       		.uleb128 0x1b
 12378 0b10 F00A0000 		.4byte	0xaf0
 12379 0b14 19       		.uleb128 0x19
 12380 0b15 86000000 		.4byte	0x86
 12381 0b19 240B0000 		.4byte	0xb24
 12382 0b1d 1A       		.uleb128 0x1a
 12383 0b1e 76000000 		.4byte	0x76
 12384 0b22 05       		.byte	0x5
 12385 0b23 00       		.byte	0
 12386 0b24 1B       		.uleb128 0x1b
 12387 0b25 140B0000 		.4byte	0xb14
 12388 0b29 1B       		.uleb128 0x1b
ARM GAS  C:\Users\Bruger\AppData\Local\Temp\ccj0lDyf.s 			page 244


 12389 0b2a F00A0000 		.4byte	0xaf0
 12390 0b2e 1B       		.uleb128 0x1b
 12391 0b2f B20A0000 		.4byte	0xab2
 12392 0b33 1B       		.uleb128 0x1b
 12393 0b34 B20A0000 		.4byte	0xab2
 12394 0b38 19       		.uleb128 0x19
 12395 0b39 86000000 		.4byte	0x86
 12396 0b3d 480B0000 		.4byte	0xb48
 12397 0b41 1A       		.uleb128 0x1a
 12398 0b42 76000000 		.4byte	0x76
 12399 0b46 0B       		.byte	0xb
 12400 0b47 00       		.byte	0
 12401 0b48 1B       		.uleb128 0x1b
 12402 0b49 380B0000 		.4byte	0xb38
 12403 0b4d 1B       		.uleb128 0x1b
 12404 0b4e 380B0000 		.4byte	0xb38
 12405 0b52 1B       		.uleb128 0x1b
 12406 0b53 B20A0000 		.4byte	0xab2
 12407 0b57 19       		.uleb128 0x19
 12408 0b58 86000000 		.4byte	0x86
 12409 0b5c 670B0000 		.4byte	0xb67
 12410 0b60 1A       		.uleb128 0x1a
 12411 0b61 76000000 		.4byte	0x76
 12412 0b65 7F       		.byte	0x7f
 12413 0b66 00       		.byte	0
 12414 0b67 1B       		.uleb128 0x1b
 12415 0b68 570B0000 		.4byte	0xb57
 12416 0b6c 1B       		.uleb128 0x1b
 12417 0b6d 570B0000 		.4byte	0xb57
 12418 0b71 1B       		.uleb128 0x1b
 12419 0b72 570B0000 		.4byte	0xb57
 12420 0b76 1B       		.uleb128 0x1b
 12421 0b77 570B0000 		.4byte	0xb57
 12422 0b7b 1B       		.uleb128 0x1b
 12423 0b7c 570B0000 		.4byte	0xb57
 12424 0b80 1B       		.uleb128 0x1b
 12425 0b81 570B0000 		.4byte	0xb57
 12426 0b85 1B       		.uleb128 0x1b
 12427 0b86 570B0000 		.4byte	0xb57
 12428 0b8a 1B       		.uleb128 0x1b
 12429 0b8b 570B0000 		.4byte	0xb57
 12430 0b8f 1B       		.uleb128 0x1b
 12431 0b90 570B0000 		.4byte	0xb57
 12432 0b94 1B       		.uleb128 0x1b
 12433 0b95 570B0000 		.4byte	0xb57
 12434 0b99 1B       		.uleb128 0x1b
 12435 0b9a 570B0000 		.4byte	0xb57
 12436 0b9e 1B       		.uleb128 0x1b
 12437 0b9f 570B0000 		.4byte	0xb57
 12438 0ba3 1B       		.uleb128 0x1b
 12439 0ba4 570B0000 		.4byte	0xb57
 12440 0ba8 1B       		.uleb128 0x1b
 12441 0ba9 570B0000 		.4byte	0xb57
 12442 0bad 1B       		.uleb128 0x1b
 12443 0bae 570B0000 		.4byte	0xb57
 12444 0bb2 1B       		.uleb128 0x1b
 12445 0bb3 570B0000 		.4byte	0xb57
ARM GAS  C:\Users\Bruger\AppData\Local\Temp\ccj0lDyf.s 			page 245


 12446 0bb7 1B       		.uleb128 0x1b
 12447 0bb8 570B0000 		.4byte	0xb57
 12448 0bbc 1B       		.uleb128 0x1b
 12449 0bbd 570B0000 		.4byte	0xb57
 12450 0bc1 1B       		.uleb128 0x1b
 12451 0bc2 570B0000 		.4byte	0xb57
 12452 0bc6 1B       		.uleb128 0x1b
 12453 0bc7 570B0000 		.4byte	0xb57
 12454 0bcb 1B       		.uleb128 0x1b
 12455 0bcc 570B0000 		.4byte	0xb57
 12456 0bd0 1B       		.uleb128 0x1b
 12457 0bd1 570B0000 		.4byte	0xb57
 12458 0bd5 1B       		.uleb128 0x1b
 12459 0bd6 570B0000 		.4byte	0xb57
 12460 0bda 1B       		.uleb128 0x1b
 12461 0bdb 570B0000 		.4byte	0xb57
 12462 0bdf 19       		.uleb128 0x19
 12463 0be0 86000000 		.4byte	0x86
 12464 0be4 EF0B0000 		.4byte	0xbef
 12465 0be8 1A       		.uleb128 0x1a
 12466 0be9 76000000 		.4byte	0x76
 12467 0bed 1F       		.byte	0x1f
 12468 0bee 00       		.byte	0
 12469 0bef 1B       		.uleb128 0x1b
 12470 0bf0 DF0B0000 		.4byte	0xbdf
 12471 0bf4 1B       		.uleb128 0x1b
 12472 0bf5 DF0B0000 		.4byte	0xbdf
 12473 0bf9 19       		.uleb128 0x19
 12474 0bfa 86000000 		.4byte	0x86
 12475 0bfe 090C0000 		.4byte	0xc09
 12476 0c02 1A       		.uleb128 0x1a
 12477 0c03 76000000 		.4byte	0x76
 12478 0c07 0F       		.byte	0xf
 12479 0c08 00       		.byte	0
 12480 0c09 1B       		.uleb128 0x1b
 12481 0c0a F90B0000 		.4byte	0xbf9
 12482 0c0e 1B       		.uleb128 0x1b
 12483 0c0f F90B0000 		.4byte	0xbf9
 12484 0c13 1B       		.uleb128 0x1b
 12485 0c14 570B0000 		.4byte	0xb57
 12486 0c18 1B       		.uleb128 0x1b
 12487 0c19 570B0000 		.4byte	0xb57
 12488 0c1d 1B       		.uleb128 0x1b
 12489 0c1e 570B0000 		.4byte	0xb57
 12490 0c22 1B       		.uleb128 0x1b
 12491 0c23 570B0000 		.4byte	0xb57
 12492 0c27 1B       		.uleb128 0x1b
 12493 0c28 570B0000 		.4byte	0xb57
 12494 0c2c 1B       		.uleb128 0x1b
 12495 0c2d 570B0000 		.4byte	0xb57
 12496 0c31 1B       		.uleb128 0x1b
 12497 0c32 570B0000 		.4byte	0xb57
 12498 0c36 1B       		.uleb128 0x1b
 12499 0c37 570B0000 		.4byte	0xb57
 12500 0c3b 1B       		.uleb128 0x1b
 12501 0c3c 570B0000 		.4byte	0xb57
 12502 0c40 1B       		.uleb128 0x1b
ARM GAS  C:\Users\Bruger\AppData\Local\Temp\ccj0lDyf.s 			page 246


 12503 0c41 570B0000 		.4byte	0xb57
 12504 0c45 1B       		.uleb128 0x1b
 12505 0c46 570B0000 		.4byte	0xb57
 12506 0c4a 1B       		.uleb128 0x1b
 12507 0c4b 570B0000 		.4byte	0xb57
 12508 0c4f 1B       		.uleb128 0x1b
 12509 0c50 570B0000 		.4byte	0xb57
 12510 0c54 1B       		.uleb128 0x1b
 12511 0c55 570B0000 		.4byte	0xb57
 12512 0c59 1B       		.uleb128 0x1b
 12513 0c5a 570B0000 		.4byte	0xb57
 12514 0c5e 1B       		.uleb128 0x1b
 12515 0c5f 570B0000 		.4byte	0xb57
 12516 0c63 1B       		.uleb128 0x1b
 12517 0c64 570B0000 		.4byte	0xb57
 12518 0c68 1B       		.uleb128 0x1b
 12519 0c69 570B0000 		.4byte	0xb57
 12520 0c6d 1B       		.uleb128 0x1b
 12521 0c6e 570B0000 		.4byte	0xb57
 12522 0c72 1B       		.uleb128 0x1b
 12523 0c73 570B0000 		.4byte	0xb57
 12524 0c77 1B       		.uleb128 0x1b
 12525 0c78 570B0000 		.4byte	0xb57
 12526 0c7c 1B       		.uleb128 0x1b
 12527 0c7d 570B0000 		.4byte	0xb57
 12528 0c81 1B       		.uleb128 0x1b
 12529 0c82 570B0000 		.4byte	0xb57
 12530 0c86 1B       		.uleb128 0x1b
 12531 0c87 570B0000 		.4byte	0xb57
 12532 0c8b 1B       		.uleb128 0x1b
 12533 0c8c 570B0000 		.4byte	0xb57
 12534 0c90 1B       		.uleb128 0x1b
 12535 0c91 570B0000 		.4byte	0xb57
 12536 0c95 1B       		.uleb128 0x1b
 12537 0c96 570B0000 		.4byte	0xb57
 12538 0c9a 1B       		.uleb128 0x1b
 12539 0c9b 570B0000 		.4byte	0xb57
 12540 0c9f 1B       		.uleb128 0x1b
 12541 0ca0 570B0000 		.4byte	0xb57
 12542 0ca4 1B       		.uleb128 0x1b
 12543 0ca5 570B0000 		.4byte	0xb57
 12544 0ca9 1B       		.uleb128 0x1b
 12545 0caa 570B0000 		.4byte	0xb57
 12546 0cae 1B       		.uleb128 0x1b
 12547 0caf 570B0000 		.4byte	0xb57
 12548 0cb3 1B       		.uleb128 0x1b
 12549 0cb4 570B0000 		.4byte	0xb57
 12550 0cb8 1B       		.uleb128 0x1b
 12551 0cb9 570B0000 		.4byte	0xb57
 12552 0cbd 1B       		.uleb128 0x1b
 12553 0cbe 570B0000 		.4byte	0xb57
 12554 0cc2 1B       		.uleb128 0x1b
 12555 0cc3 570B0000 		.4byte	0xb57
 12556 0cc7 1B       		.uleb128 0x1b
 12557 0cc8 570B0000 		.4byte	0xb57
 12558 0ccc 1B       		.uleb128 0x1b
 12559 0ccd 570B0000 		.4byte	0xb57
ARM GAS  C:\Users\Bruger\AppData\Local\Temp\ccj0lDyf.s 			page 247


 12560 0cd1 1B       		.uleb128 0x1b
 12561 0cd2 570B0000 		.4byte	0xb57
 12562 0cd6 1B       		.uleb128 0x1b
 12563 0cd7 570B0000 		.4byte	0xb57
 12564 0cdb 1B       		.uleb128 0x1b
 12565 0cdc 570B0000 		.4byte	0xb57
 12566 0ce0 1B       		.uleb128 0x1b
 12567 0ce1 570B0000 		.4byte	0xb57
 12568 0ce5 1B       		.uleb128 0x1b
 12569 0ce6 570B0000 		.4byte	0xb57
 12570 0cea 1B       		.uleb128 0x1b
 12571 0ceb 570B0000 		.4byte	0xb57
 12572 0cef 1B       		.uleb128 0x1b
 12573 0cf0 570B0000 		.4byte	0xb57
 12574 0cf4 1B       		.uleb128 0x1b
 12575 0cf5 570B0000 		.4byte	0xb57
 12576 0cf9 1B       		.uleb128 0x1b
 12577 0cfa 570B0000 		.4byte	0xb57
 12578 0cfe 19       		.uleb128 0x19
 12579 0cff 0E0D0000 		.4byte	0xd0e
 12580 0d03 0E0D0000 		.4byte	0xd0e
 12581 0d07 1A       		.uleb128 0x1a
 12582 0d08 76000000 		.4byte	0x76
 12583 0d0c 07       		.byte	0x7
 12584 0d0d 00       		.byte	0
 12585 0d0e 0B       		.uleb128 0xb
 12586 0d0f 04       		.byte	0x4
 12587 0d10 86000000 		.4byte	0x86
 12588 0d14 12       		.uleb128 0x12
 12589 0d15 5B0A0000 		.4byte	.LASF139
 12590 0d19 01       		.byte	0x1
 12591 0d1a 1F01     		.2byte	0x11f
 12592 0d1c 260D0000 		.4byte	0xd26
 12593 0d20 05       		.uleb128 0x5
 12594 0d21 03       		.byte	0x3
 12595 0d22 00000000 		.4byte	ADC_Mux__outerAddr
 12596 0d26 1B       		.uleb128 0x1b
 12597 0d27 FE0C0000 		.4byte	0xcfe
 12598 0d2b 12       		.uleb128 0x12
 12599 0d2c EE000000 		.4byte	.LASF140
 12600 0d30 01       		.byte	0x1
 12601 0d31 2A01     		.2byte	0x12a
 12602 0d33 3D0D0000 		.4byte	0xd3d
 12603 0d37 05       		.uleb128 0x5
 12604 0d38 03       		.byte	0x3
 12605 0d39 20000000 		.4byte	ADC_Mux__outerMask
 12606 0d3d 1B       		.uleb128 0x1b
 12607 0d3e B20A0000 		.4byte	0xab2
 12608 0d42 19       		.uleb128 0x19
 12609 0d43 0E0D0000 		.4byte	0xd0e
 12610 0d47 520D0000 		.4byte	0xd52
 12611 0d4b 1A       		.uleb128 0x1a
 12612 0d4c 76000000 		.4byte	0x76
 12613 0d50 03       		.byte	0x3
 12614 0d51 00       		.byte	0
 12615 0d52 12       		.uleb128 0x12
 12616 0d53 45030000 		.4byte	.LASF141
ARM GAS  C:\Users\Bruger\AppData\Local\Temp\ccj0lDyf.s 			page 248


 12617 0d57 01       		.byte	0x1
 12618 0d58 3501     		.2byte	0x135
 12619 0d5a 640D0000 		.4byte	0xd64
 12620 0d5e 05       		.uleb128 0x5
 12621 0d5f 03       		.byte	0x3
 12622 0d60 28000000 		.4byte	ADC_Mux__innerAddr
 12623 0d64 1B       		.uleb128 0x1b
 12624 0d65 420D0000 		.4byte	0xd42
 12625 0d69 19       		.uleb128 0x19
 12626 0d6a 86000000 		.4byte	0x86
 12627 0d6e 790D0000 		.4byte	0xd79
 12628 0d72 1A       		.uleb128 0x1a
 12629 0d73 76000000 		.4byte	0x76
 12630 0d77 03       		.byte	0x3
 12631 0d78 00       		.byte	0
 12632 0d79 12       		.uleb128 0x12
 12633 0d7a A7080000 		.4byte	.LASF142
 12634 0d7e 01       		.byte	0x1
 12635 0d7f 3C01     		.2byte	0x13c
 12636 0d81 8B0D0000 		.4byte	0xd8b
 12637 0d85 05       		.uleb128 0x5
 12638 0d86 03       		.byte	0x3
 12639 0d87 38000000 		.4byte	ADC_Mux__innerMask
 12640 0d8b 1B       		.uleb128 0x1b
 12641 0d8c 690D0000 		.4byte	0xd69
 12642 0d90 12       		.uleb128 0x12
 12643 0d91 0D020000 		.4byte	.LASF143
 12644 0d95 01       		.byte	0x1
 12645 0d96 4301     		.2byte	0x143
 12646 0d98 A20D0000 		.4byte	0xda2
 12647 0d9c 05       		.uleb128 0x5
 12648 0d9d 03       		.byte	0x3
 12649 0d9e 3C000000 		.4byte	ADC_Mux__innerMap
 12650 0da2 1B       		.uleb128 0x1b
 12651 0da3 B20A0000 		.4byte	0xab2
 12652 0da7 12       		.uleb128 0x12
 12653 0da8 30000000 		.4byte	.LASF144
 12654 0dac 01       		.byte	0x1
 12655 0dad 4E01     		.2byte	0x14e
 12656 0daf 86000000 		.4byte	0x86
 12657 0db3 05       		.uleb128 0x5
 12658 0db4 03       		.byte	0x3
 12659 0db5 00000000 		.4byte	ADC_Mux__armsEnabled
 12660 0db9 12       		.uleb128 0x12
 12661 0dba 63040000 		.4byte	.LASF145
 12662 0dbe 01       		.byte	0x1
 12663 0dbf 4F01     		.2byte	0x14f
 12664 0dc1 690D0000 		.4byte	0xd69
 12665 0dc5 05       		.uleb128 0x5
 12666 0dc6 03       		.byte	0x3
 12667 0dc7 04000000 		.4byte	ADC_Mux__refCnt
 12668 0dcb 00       		.byte	0
 12669              		.section	.debug_abbrev,"",%progbits
 12670              	.Ldebug_abbrev0:
 12671 0000 01       		.uleb128 0x1
 12672 0001 11       		.uleb128 0x11
 12673 0002 01       		.byte	0x1
ARM GAS  C:\Users\Bruger\AppData\Local\Temp\ccj0lDyf.s 			page 249


 12674 0003 25       		.uleb128 0x25
 12675 0004 0E       		.uleb128 0xe
 12676 0005 13       		.uleb128 0x13
 12677 0006 0B       		.uleb128 0xb
 12678 0007 03       		.uleb128 0x3
 12679 0008 0E       		.uleb128 0xe
 12680 0009 1B       		.uleb128 0x1b
 12681 000a 0E       		.uleb128 0xe
 12682 000b 55       		.uleb128 0x55
 12683 000c 17       		.uleb128 0x17
 12684 000d 11       		.uleb128 0x11
 12685 000e 01       		.uleb128 0x1
 12686 000f 10       		.uleb128 0x10
 12687 0010 17       		.uleb128 0x17
 12688 0011 00       		.byte	0
 12689 0012 00       		.byte	0
 12690 0013 02       		.uleb128 0x2
 12691 0014 24       		.uleb128 0x24
 12692 0015 00       		.byte	0
 12693 0016 0B       		.uleb128 0xb
 12694 0017 0B       		.uleb128 0xb
 12695 0018 3E       		.uleb128 0x3e
 12696 0019 0B       		.uleb128 0xb
 12697 001a 03       		.uleb128 0x3
 12698 001b 08       		.uleb128 0x8
 12699 001c 00       		.byte	0
 12700 001d 00       		.byte	0
 12701 001e 03       		.uleb128 0x3
 12702 001f 16       		.uleb128 0x16
 12703 0020 00       		.byte	0
 12704 0021 03       		.uleb128 0x3
 12705 0022 0E       		.uleb128 0xe
 12706 0023 3A       		.uleb128 0x3a
 12707 0024 0B       		.uleb128 0xb
 12708 0025 3B       		.uleb128 0x3b
 12709 0026 0B       		.uleb128 0xb
 12710 0027 49       		.uleb128 0x49
 12711 0028 13       		.uleb128 0x13
 12712 0029 00       		.byte	0
 12713 002a 00       		.byte	0
 12714 002b 04       		.uleb128 0x4
 12715 002c 24       		.uleb128 0x24
 12716 002d 00       		.byte	0
 12717 002e 0B       		.uleb128 0xb
 12718 002f 0B       		.uleb128 0xb
 12719 0030 3E       		.uleb128 0x3e
 12720 0031 0B       		.uleb128 0xb
 12721 0032 03       		.uleb128 0x3
 12722 0033 0E       		.uleb128 0xe
 12723 0034 00       		.byte	0
 12724 0035 00       		.byte	0
 12725 0036 05       		.uleb128 0x5
 12726 0037 0F       		.uleb128 0xf
 12727 0038 00       		.byte	0
 12728 0039 0B       		.uleb128 0xb
 12729 003a 0B       		.uleb128 0xb
 12730 003b 00       		.byte	0
ARM GAS  C:\Users\Bruger\AppData\Local\Temp\ccj0lDyf.s 			page 250


 12731 003c 00       		.byte	0
 12732 003d 06       		.uleb128 0x6
 12733 003e 16       		.uleb128 0x16
 12734 003f 00       		.byte	0
 12735 0040 03       		.uleb128 0x3
 12736 0041 0E       		.uleb128 0xe
 12737 0042 3A       		.uleb128 0x3a
 12738 0043 0B       		.uleb128 0xb
 12739 0044 3B       		.uleb128 0x3b
 12740 0045 05       		.uleb128 0x5
 12741 0046 49       		.uleb128 0x49
 12742 0047 13       		.uleb128 0x13
 12743 0048 00       		.byte	0
 12744 0049 00       		.byte	0
 12745 004a 07       		.uleb128 0x7
 12746 004b 35       		.uleb128 0x35
 12747 004c 00       		.byte	0
 12748 004d 49       		.uleb128 0x49
 12749 004e 13       		.uleb128 0x13
 12750 004f 00       		.byte	0
 12751 0050 00       		.byte	0
 12752 0051 08       		.uleb128 0x8
 12753 0052 2E       		.uleb128 0x2e
 12754 0053 01       		.byte	0x1
 12755 0054 03       		.uleb128 0x3
 12756 0055 0E       		.uleb128 0xe
 12757 0056 3A       		.uleb128 0x3a
 12758 0057 0B       		.uleb128 0xb
 12759 0058 3B       		.uleb128 0x3b
 12760 0059 0B       		.uleb128 0xb
 12761 005a 27       		.uleb128 0x27
 12762 005b 19       		.uleb128 0x19
 12763 005c 11       		.uleb128 0x11
 12764 005d 01       		.uleb128 0x1
 12765 005e 12       		.uleb128 0x12
 12766 005f 06       		.uleb128 0x6
 12767 0060 40       		.uleb128 0x40
 12768 0061 18       		.uleb128 0x18
 12769 0062 9642     		.uleb128 0x2116
 12770 0064 19       		.uleb128 0x19
 12771 0065 01       		.uleb128 0x1
 12772 0066 13       		.uleb128 0x13
 12773 0067 00       		.byte	0
 12774 0068 00       		.byte	0
 12775 0069 09       		.uleb128 0x9
 12776 006a 05       		.uleb128 0x5
 12777 006b 00       		.byte	0
 12778 006c 03       		.uleb128 0x3
 12779 006d 08       		.uleb128 0x8
 12780 006e 3A       		.uleb128 0x3a
 12781 006f 0B       		.uleb128 0xb
 12782 0070 3B       		.uleb128 0x3b
 12783 0071 0B       		.uleb128 0xb
 12784 0072 49       		.uleb128 0x49
 12785 0073 13       		.uleb128 0x13
 12786 0074 02       		.uleb128 0x2
 12787 0075 18       		.uleb128 0x18
ARM GAS  C:\Users\Bruger\AppData\Local\Temp\ccj0lDyf.s 			page 251


 12788 0076 00       		.byte	0
 12789 0077 00       		.byte	0
 12790 0078 0A       		.uleb128 0xa
 12791 0079 05       		.uleb128 0x5
 12792 007a 00       		.byte	0
 12793 007b 03       		.uleb128 0x3
 12794 007c 0E       		.uleb128 0xe
 12795 007d 3A       		.uleb128 0x3a
 12796 007e 0B       		.uleb128 0xb
 12797 007f 3B       		.uleb128 0x3b
 12798 0080 0B       		.uleb128 0xb
 12799 0081 49       		.uleb128 0x49
 12800 0082 13       		.uleb128 0x13
 12801 0083 02       		.uleb128 0x2
 12802 0084 18       		.uleb128 0x18
 12803 0085 00       		.byte	0
 12804 0086 00       		.byte	0
 12805 0087 0B       		.uleb128 0xb
 12806 0088 0F       		.uleb128 0xf
 12807 0089 00       		.byte	0
 12808 008a 0B       		.uleb128 0xb
 12809 008b 0B       		.uleb128 0xb
 12810 008c 49       		.uleb128 0x49
 12811 008d 13       		.uleb128 0x13
 12812 008e 00       		.byte	0
 12813 008f 00       		.byte	0
 12814 0090 0C       		.uleb128 0xc
 12815 0091 26       		.uleb128 0x26
 12816 0092 00       		.byte	0
 12817 0093 00       		.byte	0
 12818 0094 00       		.byte	0
 12819 0095 0D       		.uleb128 0xd
 12820 0096 2E       		.uleb128 0x2e
 12821 0097 01       		.byte	0x1
 12822 0098 03       		.uleb128 0x3
 12823 0099 0E       		.uleb128 0xe
 12824 009a 3A       		.uleb128 0x3a
 12825 009b 0B       		.uleb128 0xb
 12826 009c 3B       		.uleb128 0x3b
 12827 009d 0B       		.uleb128 0xb
 12828 009e 27       		.uleb128 0x27
 12829 009f 19       		.uleb128 0x19
 12830 00a0 11       		.uleb128 0x11
 12831 00a1 01       		.uleb128 0x1
 12832 00a2 12       		.uleb128 0x12
 12833 00a3 06       		.uleb128 0x6
 12834 00a4 40       		.uleb128 0x40
 12835 00a5 18       		.uleb128 0x18
 12836 00a6 9742     		.uleb128 0x2117
 12837 00a8 19       		.uleb128 0x19
 12838 00a9 01       		.uleb128 0x1
 12839 00aa 13       		.uleb128 0x13
 12840 00ab 00       		.byte	0
 12841 00ac 00       		.byte	0
 12842 00ad 0E       		.uleb128 0xe
 12843 00ae 34       		.uleb128 0x34
 12844 00af 00       		.byte	0
ARM GAS  C:\Users\Bruger\AppData\Local\Temp\ccj0lDyf.s 			page 252


 12845 00b0 03       		.uleb128 0x3
 12846 00b1 0E       		.uleb128 0xe
 12847 00b2 3A       		.uleb128 0x3a
 12848 00b3 0B       		.uleb128 0xb
 12849 00b4 3B       		.uleb128 0x3b
 12850 00b5 0B       		.uleb128 0xb
 12851 00b6 49       		.uleb128 0x49
 12852 00b7 13       		.uleb128 0x13
 12853 00b8 02       		.uleb128 0x2
 12854 00b9 18       		.uleb128 0x18
 12855 00ba 00       		.byte	0
 12856 00bb 00       		.byte	0
 12857 00bc 0F       		.uleb128 0xf
 12858 00bd 34       		.uleb128 0x34
 12859 00be 00       		.byte	0
 12860 00bf 03       		.uleb128 0x3
 12861 00c0 08       		.uleb128 0x8
 12862 00c1 3A       		.uleb128 0x3a
 12863 00c2 0B       		.uleb128 0xb
 12864 00c3 3B       		.uleb128 0x3b
 12865 00c4 0B       		.uleb128 0xb
 12866 00c5 49       		.uleb128 0x49
 12867 00c6 13       		.uleb128 0x13
 12868 00c7 02       		.uleb128 0x2
 12869 00c8 18       		.uleb128 0x18
 12870 00c9 00       		.byte	0
 12871 00ca 00       		.byte	0
 12872 00cb 10       		.uleb128 0x10
 12873 00cc 2E       		.uleb128 0x2e
 12874 00cd 01       		.byte	0x1
 12875 00ce 3F       		.uleb128 0x3f
 12876 00cf 19       		.uleb128 0x19
 12877 00d0 03       		.uleb128 0x3
 12878 00d1 0E       		.uleb128 0xe
 12879 00d2 3A       		.uleb128 0x3a
 12880 00d3 0B       		.uleb128 0xb
 12881 00d4 3B       		.uleb128 0x3b
 12882 00d5 05       		.uleb128 0x5
 12883 00d6 27       		.uleb128 0x27
 12884 00d7 19       		.uleb128 0x19
 12885 00d8 11       		.uleb128 0x11
 12886 00d9 01       		.uleb128 0x1
 12887 00da 12       		.uleb128 0x12
 12888 00db 06       		.uleb128 0x6
 12889 00dc 40       		.uleb128 0x40
 12890 00dd 18       		.uleb128 0x18
 12891 00de 9742     		.uleb128 0x2117
 12892 00e0 19       		.uleb128 0x19
 12893 00e1 01       		.uleb128 0x1
 12894 00e2 13       		.uleb128 0x13
 12895 00e3 00       		.byte	0
 12896 00e4 00       		.byte	0
 12897 00e5 11       		.uleb128 0x11
 12898 00e6 05       		.uleb128 0x5
 12899 00e7 00       		.byte	0
 12900 00e8 03       		.uleb128 0x3
 12901 00e9 0E       		.uleb128 0xe
ARM GAS  C:\Users\Bruger\AppData\Local\Temp\ccj0lDyf.s 			page 253


 12902 00ea 3A       		.uleb128 0x3a
 12903 00eb 0B       		.uleb128 0xb
 12904 00ec 3B       		.uleb128 0x3b
 12905 00ed 05       		.uleb128 0x5
 12906 00ee 49       		.uleb128 0x49
 12907 00ef 13       		.uleb128 0x13
 12908 00f0 02       		.uleb128 0x2
 12909 00f1 18       		.uleb128 0x18
 12910 00f2 00       		.byte	0
 12911 00f3 00       		.byte	0
 12912 00f4 12       		.uleb128 0x12
 12913 00f5 34       		.uleb128 0x34
 12914 00f6 00       		.byte	0
 12915 00f7 03       		.uleb128 0x3
 12916 00f8 0E       		.uleb128 0xe
 12917 00f9 3A       		.uleb128 0x3a
 12918 00fa 0B       		.uleb128 0xb
 12919 00fb 3B       		.uleb128 0x3b
 12920 00fc 05       		.uleb128 0x5
 12921 00fd 49       		.uleb128 0x49
 12922 00fe 13       		.uleb128 0x13
 12923 00ff 02       		.uleb128 0x2
 12924 0100 18       		.uleb128 0x18
 12925 0101 00       		.byte	0
 12926 0102 00       		.byte	0
 12927 0103 13       		.uleb128 0x13
 12928 0104 34       		.uleb128 0x34
 12929 0105 00       		.byte	0
 12930 0106 03       		.uleb128 0x3
 12931 0107 08       		.uleb128 0x8
 12932 0108 3A       		.uleb128 0x3a
 12933 0109 0B       		.uleb128 0xb
 12934 010a 3B       		.uleb128 0x3b
 12935 010b 05       		.uleb128 0x5
 12936 010c 49       		.uleb128 0x49
 12937 010d 13       		.uleb128 0x13
 12938 010e 02       		.uleb128 0x2
 12939 010f 18       		.uleb128 0x18
 12940 0110 00       		.byte	0
 12941 0111 00       		.byte	0
 12942 0112 14       		.uleb128 0x14
 12943 0113 2E       		.uleb128 0x2e
 12944 0114 01       		.byte	0x1
 12945 0115 3F       		.uleb128 0x3f
 12946 0116 19       		.uleb128 0x19
 12947 0117 03       		.uleb128 0x3
 12948 0118 0E       		.uleb128 0xe
 12949 0119 3A       		.uleb128 0x3a
 12950 011a 0B       		.uleb128 0xb
 12951 011b 3B       		.uleb128 0x3b
 12952 011c 05       		.uleb128 0x5
 12953 011d 27       		.uleb128 0x27
 12954 011e 19       		.uleb128 0x19
 12955 011f 11       		.uleb128 0x11
 12956 0120 01       		.uleb128 0x1
 12957 0121 12       		.uleb128 0x12
 12958 0122 06       		.uleb128 0x6
ARM GAS  C:\Users\Bruger\AppData\Local\Temp\ccj0lDyf.s 			page 254


 12959 0123 40       		.uleb128 0x40
 12960 0124 18       		.uleb128 0x18
 12961 0125 9642     		.uleb128 0x2116
 12962 0127 19       		.uleb128 0x19
 12963 0128 01       		.uleb128 0x1
 12964 0129 13       		.uleb128 0x13
 12965 012a 00       		.byte	0
 12966 012b 00       		.byte	0
 12967 012c 15       		.uleb128 0x15
 12968 012d 0B       		.uleb128 0xb
 12969 012e 01       		.byte	0x1
 12970 012f 11       		.uleb128 0x11
 12971 0130 01       		.uleb128 0x1
 12972 0131 12       		.uleb128 0x12
 12973 0132 06       		.uleb128 0x6
 12974 0133 00       		.byte	0
 12975 0134 00       		.byte	0
 12976 0135 16       		.uleb128 0x16
 12977 0136 13       		.uleb128 0x13
 12978 0137 01       		.byte	0x1
 12979 0138 0B       		.uleb128 0xb
 12980 0139 0B       		.uleb128 0xb
 12981 013a 3A       		.uleb128 0x3a
 12982 013b 0B       		.uleb128 0xb
 12983 013c 3B       		.uleb128 0x3b
 12984 013d 05       		.uleb128 0x5
 12985 013e 01       		.uleb128 0x1
 12986 013f 13       		.uleb128 0x13
 12987 0140 00       		.byte	0
 12988 0141 00       		.byte	0
 12989 0142 17       		.uleb128 0x17
 12990 0143 0D       		.uleb128 0xd
 12991 0144 00       		.byte	0
 12992 0145 03       		.uleb128 0x3
 12993 0146 0E       		.uleb128 0xe
 12994 0147 3A       		.uleb128 0x3a
 12995 0148 0B       		.uleb128 0xb
 12996 0149 3B       		.uleb128 0x3b
 12997 014a 05       		.uleb128 0x5
 12998 014b 49       		.uleb128 0x49
 12999 014c 13       		.uleb128 0x13
 13000 014d 38       		.uleb128 0x38
 13001 014e 0B       		.uleb128 0xb
 13002 014f 00       		.byte	0
 13003 0150 00       		.byte	0
 13004 0151 18       		.uleb128 0x18
 13005 0152 0D       		.uleb128 0xd
 13006 0153 00       		.byte	0
 13007 0154 03       		.uleb128 0x3
 13008 0155 08       		.uleb128 0x8
 13009 0156 3A       		.uleb128 0x3a
 13010 0157 0B       		.uleb128 0xb
 13011 0158 3B       		.uleb128 0x3b
 13012 0159 05       		.uleb128 0x5
 13013 015a 49       		.uleb128 0x49
 13014 015b 13       		.uleb128 0x13
 13015 015c 38       		.uleb128 0x38
ARM GAS  C:\Users\Bruger\AppData\Local\Temp\ccj0lDyf.s 			page 255


 13016 015d 0B       		.uleb128 0xb
 13017 015e 00       		.byte	0
 13018 015f 00       		.byte	0
 13019 0160 19       		.uleb128 0x19
 13020 0161 01       		.uleb128 0x1
 13021 0162 01       		.byte	0x1
 13022 0163 49       		.uleb128 0x49
 13023 0164 13       		.uleb128 0x13
 13024 0165 01       		.uleb128 0x1
 13025 0166 13       		.uleb128 0x13
 13026 0167 00       		.byte	0
 13027 0168 00       		.byte	0
 13028 0169 1A       		.uleb128 0x1a
 13029 016a 21       		.uleb128 0x21
 13030 016b 00       		.byte	0
 13031 016c 49       		.uleb128 0x49
 13032 016d 13       		.uleb128 0x13
 13033 016e 2F       		.uleb128 0x2f
 13034 016f 0B       		.uleb128 0xb
 13035 0170 00       		.byte	0
 13036 0171 00       		.byte	0
 13037 0172 1B       		.uleb128 0x1b
 13038 0173 26       		.uleb128 0x26
 13039 0174 00       		.byte	0
 13040 0175 49       		.uleb128 0x49
 13041 0176 13       		.uleb128 0x13
 13042 0177 00       		.byte	0
 13043 0178 00       		.byte	0
 13044 0179 1C       		.uleb128 0x1c
 13045 017a 0B       		.uleb128 0xb
 13046 017b 01       		.byte	0x1
 13047 017c 11       		.uleb128 0x11
 13048 017d 01       		.uleb128 0x1
 13049 017e 12       		.uleb128 0x12
 13050 017f 06       		.uleb128 0x6
 13051 0180 01       		.uleb128 0x1
 13052 0181 13       		.uleb128 0x13
 13053 0182 00       		.byte	0
 13054 0183 00       		.byte	0
 13055 0184 00       		.byte	0
 13056              		.section	.debug_aranges,"",%progbits
 13057 0000 64000000 		.4byte	0x64
 13058 0004 0200     		.2byte	0x2
 13059 0006 00000000 		.4byte	.Ldebug_info0
 13060 000a 04       		.byte	0x4
 13061 000b 00       		.byte	0
 13062 000c 0000     		.2byte	0
 13063 000e 0000     		.2byte	0
 13064 0010 00000000 		.4byte	.LFB0
 13065 0014 1A000000 		.4byte	.LFE0-.LFB0
 13066 0018 00000000 		.4byte	.LFB1
 13067 001c 1C000000 		.4byte	.LFE1-.LFB1
 13068 0020 00000000 		.4byte	.LFB2
 13069 0024 1C000000 		.4byte	.LFE2-.LFB2
 13070 0028 00000000 		.4byte	.LFB3
 13071 002c 0C000000 		.4byte	.LFE3-.LFB3
 13072 0030 00000000 		.4byte	.LFB4
ARM GAS  C:\Users\Bruger\AppData\Local\Temp\ccj0lDyf.s 			page 256


 13073 0034 8C010000 		.4byte	.LFE4-.LFB4
 13074 0038 00000000 		.4byte	.LFB5
 13075 003c 9C000000 		.4byte	.LFE5-.LFB5
 13076 0040 00000000 		.4byte	.LFB6
 13077 0044 3C000000 		.4byte	.LFE6-.LFB6
 13078 0048 00000000 		.4byte	.LFB7
 13079 004c B8000000 		.4byte	.LFE7-.LFB7
 13080 0050 00000000 		.4byte	.LFB8
 13081 0054 C4000000 		.4byte	.LFE8-.LFB8
 13082 0058 00000000 		.4byte	.LFB9
 13083 005c 9C010000 		.4byte	.LFE9-.LFB9
 13084 0060 00000000 		.4byte	0
 13085 0064 00000000 		.4byte	0
 13086              		.section	.debug_ranges,"",%progbits
 13087              	.Ldebug_ranges0:
 13088 0000 00000000 		.4byte	.LFB0
 13089 0004 1A000000 		.4byte	.LFE0
 13090 0008 00000000 		.4byte	.LFB1
 13091 000c 1C000000 		.4byte	.LFE1
 13092 0010 00000000 		.4byte	.LFB2
 13093 0014 1C000000 		.4byte	.LFE2
 13094 0018 00000000 		.4byte	.LFB3
 13095 001c 0C000000 		.4byte	.LFE3
 13096 0020 00000000 		.4byte	.LFB4
 13097 0024 8C010000 		.4byte	.LFE4
 13098 0028 00000000 		.4byte	.LFB5
 13099 002c 9C000000 		.4byte	.LFE5
 13100 0030 00000000 		.4byte	.LFB6
 13101 0034 3C000000 		.4byte	.LFE6
 13102 0038 00000000 		.4byte	.LFB7
 13103 003c B8000000 		.4byte	.LFE7
 13104 0040 00000000 		.4byte	.LFB8
 13105 0044 C4000000 		.4byte	.LFE8
 13106 0048 00000000 		.4byte	.LFB9
 13107 004c 9C010000 		.4byte	.LFE9
 13108 0050 00000000 		.4byte	0
 13109 0054 00000000 		.4byte	0
 13110              		.section	.debug_line,"",%progbits
 13111              	.Ldebug_line0:
 13112 0000 4A020000 		.section	.debug_str,"MS",%progbits,1
 13112      0200CB00 
 13112      00000201 
 13112      FB0E0D00 
 13112      01010101 
 13113              	.LASF13:
 13114 0000 75696E74 		.ascii	"uint16\000"
 13114      313600
 13115              	.LASF55:
 13116 0007 42535F50 		.ascii	"BS_PICU_8_VAL\000"
 13116      4943555F 
 13116      385F5641 
 13116      4C00
 13117              	.LASF11:
 13118 0015 73697A65 		.ascii	"size_t\000"
 13118      5F7400
 13119              	.LASF23:
 13120 001c 4379436C 		.ascii	"CyClockStartupError\000"
ARM GAS  C:\Users\Bruger\AppData\Local\Temp\ccj0lDyf.s 			page 257


 13120      6F636B53 
 13120      74617274 
 13120      75704572 
 13120      726F7200 
 13121              	.LASF144:
 13122 0030 4144435F 		.ascii	"ADC_Mux__armsEnabled\000"
 13122      4D75785F 
 13122      5F61726D 
 13122      73456E61 
 13122      626C6564 
 13123              	.LASF57:
 13124 0045 42535F54 		.ascii	"BS_TMR0_VAL\000"
 13124      4D52305F 
 13124      56414C00 
 13125              	.LASF94:
 13126 0051 42535F44 		.ascii	"BS_DSISWITCH_0_3_VAL\000"
 13126      53495357 
 13126      49544348 
 13126      5F305F33 
 13126      5F56414C 
 13127              	.LASF75:
 13128 0066 42535F55 		.ascii	"BS_UDB_0_5_1_CONFIG_VAL\000"
 13128      44425F30 
 13128      5F355F31 
 13128      5F434F4E 
 13128      4649475F 
 13129              	.LASF112:
 13130 007e 42535F55 		.ascii	"BS_UDB_1_3_HV_ROUTING_VAL\000"
 13130      44425F31 
 13130      5F335F48 
 13130      565F524F 
 13130      5554494E 
 13131              	.LASF39:
 13132 0098 42535F49 		.ascii	"BS_IOPINS0_7_VAL\000"
 13132      4F50494E 
 13132      53305F37 
 13132      5F56414C 
 13132      00
 13133              	.LASF129:
 13134 00a9 42535F44 		.ascii	"BS_DSISWITCH_1_3_VAL\000"
 13134      53495357 
 13134      49544348 
 13134      5F315F33 
 13134      5F56414C 
 13135              	.LASF8:
 13136 00be 6C6F6E67 		.ascii	"long long unsigned int\000"
 13136      206C6F6E 
 13136      6720756E 
 13136      7369676E 
 13136      65642069 
 13137              	.LASF93:
 13138 00d5 42535F44 		.ascii	"BS_DSI0_2_HV_ROUTING_VAL\000"
 13138      5349305F 
 13138      325F4856 
 13138      5F524F55 
 13138      54494E47 
 13139              	.LASF140:
ARM GAS  C:\Users\Bruger\AppData\Local\Temp\ccj0lDyf.s 			page 258


 13140 00ee 4144435F 		.ascii	"ADC_Mux__outerMask\000"
 13140      4D75785F 
 13140      5F6F7574 
 13140      65724D61 
 13140      736B00
 13141              	.LASF52:
 13142 0101 42535F49 		.ascii	"BS_IOPORT_3_VAL\000"
 13142      4F504F52 
 13142      545F335F 
 13142      56414C00 
 13143              	.LASF98:
 13144 0111 42535F44 		.ascii	"BS_DSI0_5_HV_ROUTING_VAL\000"
 13144      5349305F 
 13144      355F4856 
 13144      5F524F55 
 13144      54494E47 
 13145              	.LASF83:
 13146 012a 42535F55 		.ascii	"BS_UDB_0_0_1_CONFIG_VAL\000"
 13146      44425F30 
 13146      5F305F31 
 13146      5F434F4E 
 13146      4649475F 
 13147              	.LASF28:
 13148 0142 416E616C 		.ascii	"AnalogSetDefault\000"
 13148      6F675365 
 13148      74446566 
 13148      61756C74 
 13148      00
 13149              	.LASF65:
 13150 0153 42535F55 		.ascii	"BS_UDB_1_3_1_CONFIG_VAL\000"
 13150      44425F31 
 13150      5F335F31 
 13150      5F434F4E 
 13150      4649475F 
 13151              	.LASF110:
 13152 016b 42535F55 		.ascii	"BS_UDB_2_2_HV_ROUTING_VAL\000"
 13152      44425F32 
 13152      5F325F48 
 13152      565F524F 
 13152      5554494E 
 13153              	.LASF7:
 13154 0185 6C6F6E67 		.ascii	"long long int\000"
 13154      206C6F6E 
 13154      6720696E 
 13154      7400
 13155              	.LASF1:
 13156 0193 7369676E 		.ascii	"signed char\000"
 13156      65642063 
 13156      68617200 
 13157              	.LASF19:
 13158 019f 43594D45 		.ascii	"CYMEMZERO\000"
 13158      4D5A4552 
 13158      4F00
 13159              	.LASF60:
 13160 01a9 42535F55 		.ascii	"BS_UDB_1_5_0_CONFIG_VAL\000"
 13160      44425F31 
 13160      5F355F30 
ARM GAS  C:\Users\Bruger\AppData\Local\Temp\ccj0lDyf.s 			page 259


 13160      5F434F4E 
 13160      4649475F 
 13161              	.LASF128:
 13162 01c1 42535F44 		.ascii	"BS_DSI3_2_HV_ROUTING_VAL\000"
 13162      5349335F 
 13162      325F4856 
 13162      5F524F55 
 13162      54494E47 
 13163              	.LASF25:
 13164 01da 436C6F63 		.ascii	"ClockSetup\000"
 13164      6B536574 
 13164      757000
 13165              	.LASF24:
 13166 01e5 6572726F 		.ascii	"errorCode\000"
 13166      72436F64 
 13166      6500
 13167              	.LASF131:
 13168 01ef 42535F44 		.ascii	"BS_DSISWITCH_1_4_VAL\000"
 13168      53495357 
 13168      49544348 
 13168      5F315F34 
 13168      5F56414C 
 13169              	.LASF5:
 13170 0204 6C6F6E67 		.ascii	"long int\000"
 13170      20696E74 
 13170      00
 13171              	.LASF143:
 13172 020d 4144435F 		.ascii	"ADC_Mux__innerMap\000"
 13172      4D75785F 
 13172      5F696E6E 
 13172      65724D61 
 13172      7000
 13173              	.LASF111:
 13174 021f 42535F55 		.ascii	"BS_UDBSWITCH_0_3_VAL\000"
 13174      44425357 
 13174      49544348 
 13174      5F305F33 
 13174      5F56414C 
 13175              	.LASF72:
 13176 0234 42535F55 		.ascii	"BS_UDB_0_4_1_CONFIG_VAL\000"
 13176      44425F30 
 13176      5F345F31 
 13176      5F434F4E 
 13176      4649475F 
 13177              	.LASF18:
 13178 024c 72656731 		.ascii	"reg16\000"
 13178      3600
 13179              	.LASF12:
 13180 0252 75696E74 		.ascii	"uint8\000"
 13180      3800
 13181              	.LASF125:
 13182 0258 42535F44 		.ascii	"BS_DSISWITCH_1_1_VAL\000"
 13182      53495357 
 13182      49544348 
 13182      5F315F31 
 13182      5F56414C 
 13183              	.LASF76:
ARM GAS  C:\Users\Bruger\AppData\Local\Temp\ccj0lDyf.s 			page 260


 13184 026d 42535F55 		.ascii	"BS_UDB_1_0_0_CONFIG_VAL\000"
 13184      44425F31 
 13184      5F305F30 
 13184      5F434F4E 
 13184      4649475F 
 13185              	.LASF16:
 13186 0285 646F7562 		.ascii	"double\000"
 13186      6C6500
 13187              	.LASF51:
 13188 028c 42535F50 		.ascii	"BS_PICU_2_VAL\000"
 13188      4943555F 
 13188      325F5641 
 13188      4C00
 13189              	.LASF120:
 13190 029a 42535F55 		.ascii	"BS_UDB_1_5_HV_ROUTING_VAL\000"
 13190      44425F31 
 13190      5F355F48 
 13190      565F524F 
 13190      5554494E 
 13191              	.LASF14:
 13192 02b4 75696E74 		.ascii	"uint32\000"
 13192      333200
 13193              	.LASF99:
 13194 02bb 42535F55 		.ascii	"BS_UDBSWITCH_0_0_VAL\000"
 13194      44425357 
 13194      49544348 
 13194      5F305F30 
 13194      5F56414C 
 13195              	.LASF88:
 13196 02d0 42535F44 		.ascii	"BS_DSISWITCH_0_0_VAL\000"
 13196      53495357 
 13196      49544348 
 13196      5F305F30 
 13196      5F56414C 
 13197              	.LASF31:
 13198 02e5 72656756 		.ascii	"regValue\000"
 13198      616C7565 
 13198      00
 13199              	.LASF66:
 13200 02ee 42535F55 		.ascii	"BS_UDB_1_2_1_CONFIG_VAL\000"
 13200      44425F31 
 13200      5F325F31 
 13200      5F434F4E 
 13200      4649475F 
 13201              	.LASF132:
 13202 0306 42535F44 		.ascii	"BS_DSI3_4_HV_ROUTING_VAL\000"
 13202      5349335F 
 13202      345F4856 
 13202      5F524F55 
 13202      54494E47 
 13203              	.LASF117:
 13204 031f 42535F55 		.ascii	"BS_UDBSWITCH_1_4_VAL\000"
 13204      44425357 
 13204      49544348 
 13204      5F315F34 
 13204      5F56414C 
 13205              	.LASF41:
ARM GAS  C:\Users\Bruger\AppData\Local\Temp\ccj0lDyf.s 			page 261


 13206 0334 42535F49 		.ascii	"BS_IOPINS0_1_VAL\000"
 13206      4F50494E 
 13206      53305F31 
 13206      5F56414C 
 13206      00
 13207              	.LASF141:
 13208 0345 4144435F 		.ascii	"ADC_Mux__innerAddr\000"
 13208      4D75785F 
 13208      5F696E6E 
 13208      65724164 
 13208      647200
 13209              	.LASF82:
 13210 0358 42535F55 		.ascii	"BS_UDB_0_0_0_CONFIG_VAL\000"
 13210      44425F30 
 13210      5F305F30 
 13210      5F434F4E 
 13210      4649475F 
 13211              	.LASF0:
 13212 0370 756E7369 		.ascii	"unsigned int\000"
 13212      676E6564 
 13212      20696E74 
 13212      00
 13213              	.LASF138:
 13214 037d 6E756D42 		.ascii	"numBytes\000"
 13214      79746573 
 13214      00
 13215              	.LASF97:
 13216 0386 42535F44 		.ascii	"BS_DSI0_4_HV_ROUTING_VAL\000"
 13216      5349305F 
 13216      345F4856 
 13216      5F524F55 
 13216      54494E47 
 13217              	.LASF100:
 13218 039f 42535F55 		.ascii	"BS_UDB_1_0_HV_ROUTING_VAL\000"
 13218      44425F31 
 13218      5F305F48 
 13218      565F524F 
 13218      5554494E 
 13219              	.LASF6:
 13220 03b9 6C6F6E67 		.ascii	"long unsigned int\000"
 13220      20756E73 
 13220      69676E65 
 13220      6420696E 
 13220      7400
 13221              	.LASF106:
 13222 03cb 42535F55 		.ascii	"BS_UDB_2_1_HV_ROUTING_VAL\000"
 13222      44425F32 
 13222      5F315F48 
 13222      565F524F 
 13222      5554494E 
 13223              	.LASF119:
 13224 03e5 42535F55 		.ascii	"BS_UDBSWITCH_0_5_VAL\000"
 13224      44425357 
 13224      49544348 
 13224      5F305F35 
 13224      5F56414C 
 13225              	.LASF26:
ARM GAS  C:\Users\Bruger\AppData\Local\Temp\ccj0lDyf.s 			page 262


 13226 03fa 74696D65 		.ascii	"timeout\000"
 13226      6F757400 
 13227              	.LASF71:
 13228 0402 42535F55 		.ascii	"BS_UDB_0_3_1_CONFIG_VAL\000"
 13228      44425F30 
 13228      5F335F31 
 13228      5F434F4E 
 13228      4649475F 
 13229              	.LASF47:
 13230 041a 6366675F 		.ascii	"cfg_memcpy_t\000"
 13230      6D656D63 
 13230      70795F74 
 13230      00
 13231              	.LASF58:
 13232 0427 42535F54 		.ascii	"BS_TMR1_VAL\000"
 13232      4D52315F 
 13232      56414C00 
 13233              	.LASF79:
 13234 0433 42535F55 		.ascii	"BS_UDB_1_1_0_CONFIG_VAL\000"
 13234      44425F31 
 13234      5F315F30 
 13234      5F434F4E 
 13234      4649475F 
 13235              	.LASF45:
 13236 044b 73697A65 		.ascii	"size\000"
 13236      00
 13237              	.LASF4:
 13238 0450 73686F72 		.ascii	"short unsigned int\000"
 13238      7420756E 
 13238      7369676E 
 13238      65642069 
 13238      6E7400
 13239              	.LASF145:
 13240 0463 4144435F 		.ascii	"ADC_Mux__refCnt\000"
 13240      4D75785F 
 13240      5F726566 
 13240      436E7400 
 13241              	.LASF86:
 13242 0473 42535F55 		.ascii	"BS_UCFG_BCTL1_VAL\000"
 13242      4346475F 
 13242      4243544C 
 13242      315F5641 
 13242      4C00
 13243              	.LASF105:
 13244 0485 42535F55 		.ascii	"BS_UDBSWITCH_1_1_VAL\000"
 13244      44425357 
 13244      49544348 
 13244      5F315F31 
 13244      5F56414C 
 13245              	.LASF92:
 13246 049a 42535F44 		.ascii	"BS_DSISWITCH_0_2_VAL\000"
 13246      53495357 
 13246      49544348 
 13246      5F305F32 
 13246      5F56414C 
 13247              	.LASF78:
 13248 04af 42535F55 		.ascii	"BS_UDB_1_1_1_CONFIG_VAL\000"
ARM GAS  C:\Users\Bruger\AppData\Local\Temp\ccj0lDyf.s 			page 263


 13248      44425F31 
 13248      5F315F31 
 13248      5F434F4E 
 13248      4649475F 
 13249              	.LASF69:
 13250 04c7 42535F55 		.ascii	"BS_UDB_0_2_0_CONFIG_VAL\000"
 13250      44425F30 
 13250      5F325F30 
 13250      5F434F4E 
 13250      4649475F 
 13251              	.LASF122:
 13252 04df 42535F55 		.ascii	"BS_UDB_2_5_HV_ROUTING_VAL\000"
 13252      44425F32 
 13252      5F355F48 
 13252      565F524F 
 13252      5554494E 
 13253              	.LASF50:
 13254 04f9 42535F49 		.ascii	"BS_IOPORT_2_VAL\000"
 13254      4F504F52 
 13254      545F325F 
 13254      56414C00 
 13255              	.LASF22:
 13256 0509 4359434F 		.ascii	"CYCONFIGCPYCODE\000"
 13256      4E464947 
 13256      43505943 
 13256      4F444500 
 13257              	.LASF59:
 13258 0519 42535F53 		.ascii	"BS_SAR0_VAL\000"
 13258      4152305F 
 13258      56414C00 
 13259              	.LASF9:
 13260 0525 73697A65 		.ascii	"sizetype\000"
 13260      74797065 
 13260      00
 13261              	.LASF68:
 13262 052e 42535F55 		.ascii	"BS_UDB_0_2_1_CONFIG_VAL\000"
 13262      44425F30 
 13262      5F325F31 
 13262      5F434F4E 
 13262      4649475F 
 13263              	.LASF29:
 13264 0546 62675F78 		.ascii	"bg_xover_inl_trim\000"
 13264      6F766572 
 13264      5F696E6C 
 13264      5F747269 
 13264      6D00
 13265              	.LASF107:
 13266 0558 42535F55 		.ascii	"BS_UDBSWITCH_0_2_VAL\000"
 13266      44425357 
 13266      49544348 
 13266      5F305F32 
 13266      5F56414C 
 13267              	.LASF61:
 13268 056d 42535F55 		.ascii	"BS_UDB_1_5_1_CONFIG_VAL\000"
 13268      44425F31 
 13268      5F355F31 
 13268      5F434F4E 
ARM GAS  C:\Users\Bruger\AppData\Local\Temp\ccj0lDyf.s 			page 264


 13268      4649475F 
 13269              	.LASF116:
 13270 0585 42535F55 		.ascii	"BS_UDB_1_4_HV_ROUTING_VAL\000"
 13270      44425F31 
 13270      5F345F48 
 13270      565F524F 
 13270      5554494E 
 13271              	.LASF114:
 13272 059f 42535F55 		.ascii	"BS_UDB_2_3_HV_ROUTING_VAL\000"
 13272      44425F32 
 13272      5F335F48 
 13272      565F524F 
 13272      5554494E 
 13273              	.LASF46:
 13274 05b9 6366675F 		.ascii	"cfg_memset_t\000"
 13274      6D656D73 
 13274      65745F74 
 13274      00
 13275              	.LASF33:
 13276 05c6 4144435F 		.ascii	"ADC_Mux_Set\000"
 13276      4D75785F 
 13276      53657400 
 13277              	.LASF146:
 13278 05d2 474E5520 		.ascii	"GNU C 4.9.3 20150303 (release) [ARM/embedded-4_9-br"
 13278      4320342E 
 13278      392E3320 
 13278      32303135 
 13278      30333033 
 13279 0605 616E6368 		.ascii	"anch revision 221220] -mcpu=cortex-m3 -mthumb -g -O"
 13279      20726576 
 13279      6973696F 
 13279      6E203232 
 13279      31323230 
 13280 0638 30202D66 		.ascii	"0 -ffunction-sections -ffat-lto-objects\000"
 13280      66756E63 
 13280      74696F6E 
 13280      2D736563 
 13280      74696F6E 
 13281              	.LASF48:
 13282 0660 6366675F 		.ascii	"cfg_memset_list\000"
 13282      6D656D73 
 13282      65745F6C 
 13282      69737400 
 13283              	.LASF43:
 13284 0670 42535F49 		.ascii	"BS_IOPINS0_3_VAL\000"
 13284      4F50494E 
 13284      53305F33 
 13284      5F56414C 
 13284      00
 13285              	.LASF21:
 13286 0681 64657374 		.ascii	"dest\000"
 13286      00
 13287              	.LASF108:
 13288 0686 42535F55 		.ascii	"BS_UDB_1_2_HV_ROUTING_VAL\000"
 13288      44425F31 
 13288      5F325F48 
 13288      565F524F 
ARM GAS  C:\Users\Bruger\AppData\Local\Temp\ccj0lDyf.s 			page 265


 13288      5554494E 
 13289              	.LASF15:
 13290 06a0 666C6F61 		.ascii	"float\000"
 13290      7400
 13291              	.LASF77:
 13292 06a6 42535F55 		.ascii	"BS_UDB_1_0_1_CONFIG_VAL\000"
 13292      44425F31 
 13292      5F305F31 
 13292      5F434F4E 
 13292      4649475F 
 13293              	.LASF81:
 13294 06be 42535F55 		.ascii	"BS_UDB_0_1_0_CONFIG_VAL\000"
 13294      44425F30 
 13294      5F315F30 
 13294      5F434F4E 
 13294      4649475F 
 13295              	.LASF53:
 13296 06d6 42535F49 		.ascii	"BS_IOPORT_7_VAL\000"
 13296      4F504F52 
 13296      545F375F 
 13296      56414C00 
 13297              	.LASF63:
 13298 06e6 42535F55 		.ascii	"BS_UDB_1_4_0_CONFIG_VAL\000"
 13298      44425F31 
 13298      5F345F30 
 13298      5F434F4E 
 13298      4649475F 
 13299              	.LASF91:
 13300 06fe 42535F44 		.ascii	"BS_DSI0_1_HV_ROUTING_VAL\000"
 13300      5349305F 
 13300      315F4856 
 13300      5F524F55 
 13300      54494E47 
 13301              	.LASF136:
 13302 0717 64657374 		.ascii	"destPtr\000"
 13302      50747200 
 13303              	.LASF17:
 13304 071f 72656738 		.ascii	"reg8\000"
 13304      00
 13305              	.LASF2:
 13306 0724 756E7369 		.ascii	"unsigned char\000"
 13306      676E6564 
 13306      20636861 
 13306      7200
 13307              	.LASF130:
 13308 0732 42535F44 		.ascii	"BS_DSI3_3_HV_ROUTING_VAL\000"
 13308      5349335F 
 13308      335F4856 
 13308      5F524F55 
 13308      54494E47 
 13309              	.LASF109:
 13310 074b 42535F55 		.ascii	"BS_UDBSWITCH_1_2_VAL\000"
 13310      44425357 
 13310      49544348 
 13310      5F315F32 
 13310      5F56414C 
 13311              	.LASF127:
ARM GAS  C:\Users\Bruger\AppData\Local\Temp\ccj0lDyf.s 			page 266


 13312 0760 42535F44 		.ascii	"BS_DSISWITCH_1_2_VAL\000"
 13312      53495357 
 13312      49544348 
 13312      5F315F32 
 13312      5F56414C 
 13313              	.LASF3:
 13314 0775 73686F72 		.ascii	"short int\000"
 13314      7420696E 
 13314      7400
 13315              	.LASF113:
 13316 077f 42535F55 		.ascii	"BS_UDBSWITCH_1_3_VAL\000"
 13316      44425357 
 13316      49544348 
 13316      5F315F33 
 13316      5F56414C 
 13317              	.LASF38:
 13318 0794 42535F49 		.ascii	"BS_IOPINS0_0_VAL\000"
 13318      4F50494E 
 13318      53305F30 
 13318      5F56414C 
 13318      00
 13319              	.LASF148:
 13320 07a5 433A5C55 		.ascii	"C:\\Users\\Bruger\\Desktop\\CODE\\PSOC5\\CY8CKIT-59"
 13320      73657273 
 13320      5C427275 
 13320      6765725C 
 13320      4465736B 
 13321 07d2 2D417264 		.ascii	"-Arduino\\CY8CKIT59_Ardudino-Speeduino.cydsn\000"
 13321      75696E6F 
 13321      5C435938 
 13321      434B4954 
 13321      35395F41 
 13322              	.LASF126:
 13323 07fe 42535F44 		.ascii	"BS_DSI3_1_HV_ROUTING_VAL\000"
 13323      5349335F 
 13323      315F4856 
 13323      5F524F55 
 13323      54494E47 
 13324              	.LASF27:
 13325 0817 706C6C4C 		.ascii	"pllLock\000"
 13325      6F636B00 
 13326              	.LASF40:
 13327 081f 42535F49 		.ascii	"BS_IOPINS0_8_VAL\000"
 13327      4F50494E 
 13327      53305F38 
 13327      5F56414C 
 13327      00
 13328              	.LASF34:
 13329 0830 6368616E 		.ascii	"channel\000"
 13329      6E656C00 
 13330              	.LASF62:
 13331 0838 42535F55 		.ascii	"BS_UDB_1_4_1_CONFIG_VAL\000"
 13331      44425F31 
 13331      5F345F31 
 13331      5F434F4E 
 13331      4649475F 
 13332              	.LASF74:
ARM GAS  C:\Users\Bruger\AppData\Local\Temp\ccj0lDyf.s 			page 267


 13333 0850 42535F55 		.ascii	"BS_UDB_0_5_0_CONFIG_VAL\000"
 13333      44425F30 
 13333      5F355F30 
 13333      5F434F4E 
 13333      4649475F 
 13334              	.LASF84:
 13335 0868 42535F55 		.ascii	"BS_UWRK_B0_WRK_STATCTL_BITS_VAL\000"
 13335      57524B5F 
 13335      42305F57 
 13335      524B5F53 
 13335      54415443 
 13336              	.LASF35:
 13337 0888 6368616E 		.ascii	"channelMask\000"
 13337      6E656C4D 
 13337      61736B00 
 13338              	.LASF36:
 13339 0894 4144435F 		.ascii	"ADC_Mux_Unset\000"
 13339      4D75785F 
 13339      556E7365 
 13339      7400
 13340              	.LASF10:
 13341 08a2 63686172 		.ascii	"char\000"
 13341      00
 13342              	.LASF142:
 13343 08a7 4144435F 		.ascii	"ADC_Mux__innerMask\000"
 13343      4D75785F 
 13343      5F696E6E 
 13343      65724D61 
 13343      736B00
 13344              	.LASF64:
 13345 08ba 42535F55 		.ascii	"BS_UDB_1_3_0_CONFIG_VAL\000"
 13345      44425F31 
 13345      5F335F30 
 13345      5F434F4E 
 13345      4649475F 
 13346              	.LASF137:
 13347 08d2 73726350 		.ascii	"srcPtr\000"
 13347      747200
 13348              	.LASF87:
 13349 08d9 42535F55 		.ascii	"BS_UCFG_BCTL0_VAL\000"
 13349      4346475F 
 13349      4243544C 
 13349      305F5641 
 13349      4C00
 13350              	.LASF101:
 13351 08eb 42535F55 		.ascii	"BS_UDBSWITCH_1_0_VAL\000"
 13351      44425357 
 13351      49544348 
 13351      5F315F30 
 13351      5F56414C 
 13352              	.LASF90:
 13353 0900 42535F44 		.ascii	"BS_DSISWITCH_0_1_VAL\000"
 13353      53495357 
 13353      49544348 
 13353      5F305F31 
 13353      5F56414C 
 13354              	.LASF123:
ARM GAS  C:\Users\Bruger\AppData\Local\Temp\ccj0lDyf.s 			page 268


 13355 0915 42535F44 		.ascii	"BS_DSISWITCH_1_0_VAL\000"
 13355      53495357 
 13355      49544348 
 13355      5F315F30 
 13355      5F56414C 
 13356              	.LASF32:
 13357 092a 53657441 		.ascii	"SetAnalogRoutingPumps\000"
 13357      6E616C6F 
 13357      67526F75 
 13357      74696E67 
 13357      50756D70 
 13358              	.LASF104:
 13359 0940 42535F55 		.ascii	"BS_UDB_1_1_HV_ROUTING_VAL\000"
 13359      44425F31 
 13359      5F315F48 
 13359      565F524F 
 13359      5554494E 
 13360              	.LASF133:
 13361 095a 42535F44 		.ascii	"BS_DSISWITCH_1_5_VAL\000"
 13361      53495357 
 13361      49544348 
 13361      5F315F35 
 13361      5F56414C 
 13362              	.LASF30:
 13363 096f 656E6162 		.ascii	"enabled\000"
 13363      6C656400 
 13364              	.LASF49:
 13365 0977 42535F49 		.ascii	"BS_IOPORT_1_VAL\000"
 13365      4F504F52 
 13365      545F315F 
 13365      56414C00 
 13366              	.LASF73:
 13367 0987 42535F55 		.ascii	"BS_UDB_0_4_0_CONFIG_VAL\000"
 13367      44425F30 
 13367      5F345F30 
 13367      5F434F4E 
 13367      4649475F 
 13368              	.LASF89:
 13369 099f 42535F44 		.ascii	"BS_DSI0_0_HV_ROUTING_VAL\000"
 13369      5349305F 
 13369      305F4856 
 13369      5F524F55 
 13369      54494E47 
 13370              	.LASF102:
 13371 09b8 42535F55 		.ascii	"BS_UDB_2_0_HV_ROUTING_VAL\000"
 13371      44425F32 
 13371      5F305F48 
 13371      565F524F 
 13371      5554494E 
 13372              	.LASF95:
 13373 09d2 42535F44 		.ascii	"BS_DSI0_3_HV_ROUTING_VAL\000"
 13373      5349305F 
 13373      335F4856 
 13373      5F524F55 
 13373      54494E47 
 13374              	.LASF54:
 13375 09eb 42535F49 		.ascii	"BS_IOPORT_8_VAL\000"
ARM GAS  C:\Users\Bruger\AppData\Local\Temp\ccj0lDyf.s 			page 269


 13375      4F504F52 
 13375      545F385F 
 13375      56414C00 
 13376              	.LASF20:
 13377 09fb 4359434F 		.ascii	"CYCONFIGCPY\000"
 13377      4E464947 
 13377      43505900 
 13378              	.LASF134:
 13379 0a07 42535F44 		.ascii	"BS_DSI3_5_HV_ROUTING_VAL\000"
 13379      5349335F 
 13379      355F4856 
 13379      5F524F55 
 13379      54494E47 
 13380              	.LASF103:
 13381 0a20 42535F55 		.ascii	"BS_UDBSWITCH_0_1_VAL\000"
 13381      44425357 
 13381      49544348 
 13381      5F305F31 
 13381      5F56414C 
 13382              	.LASF147:
 13383 0a35 47656E65 		.ascii	"Generated_Source\\PSoC5\\cyfitter_cfg.c\000"
 13383      72617465 
 13383      645F536F 
 13383      75726365 
 13383      5C50536F 
 13384              	.LASF139:
 13385 0a5b 4144435F 		.ascii	"ADC_Mux__outerAddr\000"
 13385      4D75785F 
 13385      5F6F7574 
 13385      65724164 
 13385      647200
 13386              	.LASF44:
 13387 0a6e 61646472 		.ascii	"address\000"
 13387      65737300 
 13388              	.LASF85:
 13389 0a76 42535F55 		.ascii	"BS_UWRK_B1_WRK_STATCTL_BITS_VAL\000"
 13389      57524B5F 
 13389      42315F57 
 13389      524B5F53 
 13389      54415443 
 13390              	.LASF67:
 13391 0a96 42535F55 		.ascii	"BS_UDB_1_2_0_CONFIG_VAL\000"
 13391      44425F31 
 13391      5F325F30 
 13391      5F434F4E 
 13391      4649475F 
 13392              	.LASF121:
 13393 0aae 42535F55 		.ascii	"BS_UDBSWITCH_1_5_VAL\000"
 13393      44425357 
 13393      49544348 
 13393      5F315F35 
 13393      5F56414C 
 13394              	.LASF124:
 13395 0ac3 42535F44 		.ascii	"BS_DSI3_0_HV_ROUTING_VAL\000"
 13395      5349335F 
 13395      305F4856 
 13395      5F524F55 
ARM GAS  C:\Users\Bruger\AppData\Local\Temp\ccj0lDyf.s 			page 270


 13395      54494E47 
 13396              	.LASF115:
 13397 0adc 42535F55 		.ascii	"BS_UDBSWITCH_0_4_VAL\000"
 13397      44425357 
 13397      49544348 
 13397      5F305F34 
 13397      5F56414C 
 13398              	.LASF42:
 13399 0af1 42535F49 		.ascii	"BS_IOPINS0_2_VAL\000"
 13399      4F50494E 
 13399      53305F32 
 13399      5F56414C 
 13399      00
 13400              	.LASF96:
 13401 0b02 42535F44 		.ascii	"BS_DSISWITCH_0_4_VAL\000"
 13401      53495357 
 13401      49544348 
 13401      5F305F34 
 13401      5F56414C 
 13402              	.LASF56:
 13403 0b17 42535F49 		.ascii	"BS_IDMUX_IRQ_VAL\000"
 13403      444D5558 
 13403      5F495251 
 13403      5F56414C 
 13403      00
 13404              	.LASF80:
 13405 0b28 42535F55 		.ascii	"BS_UDB_0_1_1_CONFIG_VAL\000"
 13405      44425F30 
 13405      5F315F31 
 13405      5F434F4E 
 13405      4649475F 
 13406              	.LASF135:
 13407 0b40 6366675F 		.ascii	"cfg_memcpy_list\000"
 13407      6D656D63 
 13407      70795F6C 
 13407      69737400 
 13408              	.LASF37:
 13409 0b50 63796669 		.ascii	"cyfitter_cfg\000"
 13409      74746572 
 13409      5F636667 
 13409      00
 13410              	.LASF118:
 13411 0b5d 42535F55 		.ascii	"BS_UDB_2_4_HV_ROUTING_VAL\000"
 13411      44425F32 
 13411      5F345F48 
 13411      565F524F 
 13411      5554494E 
 13412              	.LASF70:
 13413 0b77 42535F55 		.ascii	"BS_UDB_0_3_0_CONFIG_VAL\000"
 13413      44425F30 
 13413      5F335F30 
 13413      5F434F4E 
 13413      4649475F 
 13414              		.ident	"GCC: (GNU Tools for ARM Embedded Processors) 4.9.3 20150303 (release) [ARM/embedded-4_9-br
