ARM GAS  C:\Users\Bruger\AppData\Local\Temp\cc19fk76.s 			page 1


   1              		.syntax unified
   2              		.cpu cortex-m3
   3              		.fpu softvfp
   4              		.eabi_attribute 20, 1
   5              		.eabi_attribute 21, 1
   6              		.eabi_attribute 23, 3
   7              		.eabi_attribute 24, 1
   8              		.eabi_attribute 25, 1
   9              		.eabi_attribute 26, 1
  10              		.eabi_attribute 30, 6
  11              		.eabi_attribute 34, 1
  12              		.eabi_attribute 18, 4
  13              		.thumb
  14              		.file	"dtostrf.cpp"
  15              		.text
  16              	.Ltext0:
  17              		.cfi_sections	.debug_frame
  18              		.section	.rodata
  19              		.align	2
  20              	.LC0:
  21 0000 25252564 		.ascii	"%%%d.%df\000"
  21      2E256466 
  21      00
  22 0009 000000   		.section	.text._Z7dtostrfdahPc,"ax",%progbits
  23              		.align	2
  24              		.global	_Z7dtostrfdahPc
  25              		.thumb
  26              		.thumb_func
  27              		.type	_Z7dtostrfdahPc, %function
  28              	_Z7dtostrfdahPc:
  29              		.fnstart
  30              	.LFB0:
  31              		.file 1 "core\\avr\\dtostrf.cpp"
   1:core\avr/dtostrf.cpp **** /*
   2:core\avr/dtostrf.cpp ****   dtostrf - Emulation for dtostrf function from avr-libc
   3:core\avr/dtostrf.cpp ****   Copyright (c) 2013 Arduino.  All rights reserved.
   4:core\avr/dtostrf.cpp ****   Written by Cristian Maglie <c.maglie@arduino.cc>
   5:core\avr/dtostrf.cpp **** 
   6:core\avr/dtostrf.cpp ****   This library is free software; you can redistribute it and/or
   7:core\avr/dtostrf.cpp ****   modify it under the terms of the GNU Lesser General Public
   8:core\avr/dtostrf.cpp ****   License as published by the Free Software Foundation; either
   9:core\avr/dtostrf.cpp ****   version 2.1 of the License, or (at your option) any later version.
  10:core\avr/dtostrf.cpp **** 
  11:core\avr/dtostrf.cpp ****   This library is distributed in the hope that it will be useful,
  12:core\avr/dtostrf.cpp ****   but WITHOUT ANY WARRANTY; without even the implied warranty of
  13:core\avr/dtostrf.cpp ****   MERCHANTABILITY or FITNESS FOR A PARTICULAR PURPOSE.  See the GNU
  14:core\avr/dtostrf.cpp ****   Lesser General Public License for more details.
  15:core\avr/dtostrf.cpp **** 
  16:core\avr/dtostrf.cpp ****   You should have received a copy of the GNU Lesser General Public
  17:core\avr/dtostrf.cpp ****   License along with this library; if not, write to the Free Software
  18:core\avr/dtostrf.cpp ****   Foundation, Inc., 51 Franklin St, Fifth Floor, Boston, MA  02110-1301  USA
  19:core\avr/dtostrf.cpp **** */
  20:core\avr/dtostrf.cpp **** 
  21:core\avr/dtostrf.cpp **** #include <stdio.h>
  22:core\avr/dtostrf.cpp **** 
  23:core\avr/dtostrf.cpp **** char *dtostrf (double val, signed char width, unsigned char prec, char *sout) {
  32              		.loc 1 23 0
ARM GAS  C:\Users\Bruger\AppData\Local\Temp\cc19fk76.s 			page 2


  33              		.cfi_startproc
  34              		@ args = 4, pretend = 0, frame = 40
  35              		@ frame_needed = 1, uses_anonymous_args = 0
  36 0000 80B5     		push	{r7, lr}
  37              		.cfi_def_cfa_offset 8
  38              		.cfi_offset 7, -8
  39              		.cfi_offset 14, -4
  40 0002 8AB0     		sub	sp, sp, #40
  41              		.cfi_def_cfa_offset 48
  42 0004 00AF     		add	r7, sp, #0
  43              		.cfi_def_cfa_register 7
  44 0006 C7E90201 		strd	r0, [r7, #8]
  45 000a 1146     		mov	r1, r2
  46 000c 1A46     		mov	r2, r3
  47 000e 0B46     		mov	r3, r1
  48 0010 FB71     		strb	r3, [r7, #7]
  49 0012 1346     		mov	r3, r2
  50 0014 BB71     		strb	r3, [r7, #6]
  51              	.LBB2:
  24:core\avr/dtostrf.cpp ****   char fmt[20];
  25:core\avr/dtostrf.cpp ****   sprintf(fmt, "%%%d.%df", width, prec);
  52              		.loc 1 25 0
  53 0016 97F90720 		ldrsb	r2, [r7, #7]
  54 001a BB79     		ldrb	r3, [r7, #6]	@ zero_extendqisi2
  55 001c 07F11401 		add	r1, r7, #20
  56 0020 0846     		mov	r0, r1
  57 0022 0849     		ldr	r1, .L3
  58 0024 FFF7FEFF 		bl	sprintf
  26:core\avr/dtostrf.cpp ****   sprintf(sout, fmt, val);
  59              		.loc 1 26 0
  60 0028 07F11403 		add	r3, r7, #20
  61 002c 386B     		ldr	r0, [r7, #48]
  62 002e 1946     		mov	r1, r3
  63 0030 D7E90223 		ldrd	r2, [r7, #8]
  64 0034 FFF7FEFF 		bl	sprintf
  27:core\avr/dtostrf.cpp ****   return sout;
  65              		.loc 1 27 0
  66 0038 3B6B     		ldr	r3, [r7, #48]
  67              	.LBE2:
  28:core\avr/dtostrf.cpp **** }
  68              		.loc 1 28 0
  69 003a 1846     		mov	r0, r3
  70 003c 2837     		adds	r7, r7, #40
  71              		.cfi_def_cfa_offset 8
  72 003e BD46     		mov	sp, r7
  73              		.cfi_def_cfa_register 13
  74              		@ sp needed
  75 0040 80BD     		pop	{r7, pc}
  76              	.L4:
  77 0042 00BF     		.align	2
  78              	.L3:
  79 0044 00000000 		.word	.LC0
  80              		.cfi_endproc
  81              	.LFE0:
  82              		.cantunwind
  83              		.fnend
  84              		.size	_Z7dtostrfdahPc, .-_Z7dtostrfdahPc
ARM GAS  C:\Users\Bruger\AppData\Local\Temp\cc19fk76.s 			page 3


  85              		.text
  86              	.Letext0: