ARM GAS  C:\Users\Bruger\AppData\Local\Temp\cc25hkCm.s 			page 1


   1              		.syntax unified
   2              		.cpu cortex-m3
   3              		.fpu softvfp
   4              		.eabi_attribute 20, 1
   5              		.eabi_attribute 21, 1
   6              		.eabi_attribute 23, 3
   7              		.eabi_attribute 24, 1
   8              		.eabi_attribute 25, 1
   9              		.eabi_attribute 26, 1
  10              		.eabi_attribute 30, 6
  11              		.eabi_attribute 34, 1
  12              		.eabi_attribute 18, 4
  13              		.thumb
  14              		.file	"em_eeprom.cpp"
  15              		.text
  16              	.Ltext0:
  17              		.cfi_sections	.debug_frame
  18              		.global	status
  19              		.bss
  20              		.align	2
  21              		.type	status, %object
  22              		.size	status, 4
  23              	status:
  24 0000 00000000 		.space	4
  25              		.section	.text._Z20em_eeprom_initializev,"ax",%progbits
  26              		.align	2
  27              		.global	_Z20em_eeprom_initializev
  28              		.thumb
  29              		.thumb_func
  30              		.type	_Z20em_eeprom_initializev, %function
  31              	_Z20em_eeprom_initializev:
  32              		.fnstart
  33              	.LFB63:
  34              		.file 1 "core\\em_eeprom.cpp"
   1:core/em_eeprom.cpp **** /*
   2:core/em_eeprom.cpp **** * Emulated EEPROM for PSOC5
   3:core/em_eeprom.cpp **** * Created under the beer license rules :-)
   4:core/em_eeprom.cpp **** * Simpel mapper to the EM_EEPROM_1 functions created by PSOC Creator
   5:core/em_eeprom.cpp **** */
   6:core/em_eeprom.cpp **** 
   7:core/em_eeprom.cpp **** #include <em_eeprom.h>
   8:core/em_eeprom.cpp **** 
   9:core/em_eeprom.cpp **** cystatus status;
  10:core/em_eeprom.cpp **** 
  11:core/em_eeprom.cpp **** void em_eeprom_initialize(void)
  12:core/em_eeprom.cpp **** {
  35              		.loc 1 12 0
  36              		.cfi_startproc
  37              		@ args = 0, pretend = 0, frame = 0
  38              		@ frame_needed = 1, uses_anonymous_args = 0
  39              		@ link register save eliminated.
  40 0000 80B4     		push	{r7}
  41              		.cfi_def_cfa_offset 4
  42              		.cfi_offset 7, -4
  43 0002 00AF     		add	r7, sp, #0
  44              		.cfi_def_cfa_register 7
  13:core/em_eeprom.cpp ****     //Don't do any thing
ARM GAS  C:\Users\Bruger\AppData\Local\Temp\cc25hkCm.s 			page 2


  14:core/em_eeprom.cpp **** }
  45              		.loc 1 14 0
  46 0004 BD46     		mov	sp, r7
  47              		.cfi_def_cfa_register 13
  48              		@ sp needed
  49 0006 5DF8047B 		ldr	r7, [sp], #4
  50              		.cfi_restore 7
  51              		.cfi_def_cfa_offset 0
  52 000a 7047     		bx	lr
  53              		.cfi_endproc
  54              	.LFE63:
  55              		.cantunwind
  56              		.fnend
  57              		.size	_Z20em_eeprom_initializev, .-_Z20em_eeprom_initializev
  58              		.section	.text._Z15em_eeprom_writePKhS0_m,"ax",%progbits
  59              		.align	2
  60              		.global	_Z15em_eeprom_writePKhS0_m
  61              		.thumb
  62              		.thumb_func
  63              		.type	_Z15em_eeprom_writePKhS0_m, %function
  64              	_Z15em_eeprom_writePKhS0_m:
  65              		.fnstart
  66              	.LFB64:
  15:core/em_eeprom.cpp **** 
  16:core/em_eeprom.cpp **** 
  17:core/em_eeprom.cpp **** void em_eeprom_write(const uint8 srcBuf[], const uint8 eepromPtr[], uint32 byteCount)
  18:core/em_eeprom.cpp **** {
  67              		.loc 1 18 0
  68              		.cfi_startproc
  69              		@ args = 0, pretend = 0, frame = 16
  70              		@ frame_needed = 1, uses_anonymous_args = 0
  71 0000 80B5     		push	{r7, lr}
  72              		.save {r7, lr}
  73              		.cfi_def_cfa_offset 8
  74              		.cfi_offset 7, -8
  75              		.cfi_offset 14, -4
  76              		.pad #16
  77 0002 84B0     		sub	sp, sp, #16
  78              		.cfi_def_cfa_offset 24
  79              		.setfp r7, sp, #0
  80 0004 00AF     		add	r7, sp, #0
  81              		.cfi_def_cfa_register 7
  82 0006 F860     		str	r0, [r7, #12]
  83 0008 B960     		str	r1, [r7, #8]
  84 000a 7A60     		str	r2, [r7, #4]
  19:core/em_eeprom.cpp ****     // Write byte to flash (Emulated EEPROM), status is current not used
  20:core/em_eeprom.cpp ****     status = Em_EEPROM_1_Write(srcBuf, eepromPtr, byteCount);
  85              		.loc 1 20 0
  86 000c F868     		ldr	r0, [r7, #12]
  87 000e B968     		ldr	r1, [r7, #8]
  88 0010 7A68     		ldr	r2, [r7, #4]
  89 0012 FFF7FEFF 		bl	Em_EEPROM_1_Write
  90 0016 0246     		mov	r2, r0
  91 0018 024B     		ldr	r3, .L3
  92 001a 1A60     		str	r2, [r3]
  21:core/em_eeprom.cpp **** }
  93              		.loc 1 21 0
ARM GAS  C:\Users\Bruger\AppData\Local\Temp\cc25hkCm.s 			page 3


  94 001c 1037     		adds	r7, r7, #16
  95              		.cfi_def_cfa_offset 8
  96 001e BD46     		mov	sp, r7
  97              		.cfi_def_cfa_register 13
  98              		@ sp needed
  99 0020 80BD     		pop	{r7, pc}
 100              	.L4:
 101 0022 00BF     		.align	2
 102              	.L3:
 103 0024 00000000 		.word	status
 104              		.cfi_endproc
 105              	.LFE64:
 106              		.fnend
 107              		.size	_Z15em_eeprom_writePKhS0_m, .-_Z15em_eeprom_writePKhS0_m
 108              		.text
 109              	.Letext0:
 110              		.file 2 "c:\\program files (x86)\\cypress\\psoc creator\\4.0\\psoc creator\\import\\gnu\\arm\\4.9.
 111              		.file 3 "c:\\program files (x86)\\cypress\\psoc creator\\4.0\\psoc creator\\import\\gnu\\arm\\4.9.
 112              		.file 4 "Generated_Source\\PSoC5/cytypes.h"
 113              		.file 5 "Generated_Source\\PSoC5/core_cm3.h"