ARM GAS  C:\Users\Bruger\AppData\Local\Temp\ccJ3gHL2.s 			page 1


   1              		.syntax unified
   2              		.cpu cortex-m3
   3              		.fpu softvfp
   4              		.eabi_attribute 20, 1
   5              		.eabi_attribute 21, 1
   6              		.eabi_attribute 23, 3
   7              		.eabi_attribute 24, 1
   8              		.eabi_attribute 25, 1
   9              		.eabi_attribute 26, 1
  10              		.eabi_attribute 30, 6
  11              		.eabi_attribute 34, 1
  12              		.eabi_attribute 18, 4
  13              		.thumb
  14              		.file	"Em_EEPROM_1.c"
  15              		.text
  16              	.Ltext0:
  17              		.cfi_sections	.debug_frame
  18              		.section	.text.Em_EEPROM_1_Start,"ax",%progbits
  19              		.align	2
  20              		.global	Em_EEPROM_1_Start
  21              		.thumb
  22              		.thumb_func
  23              		.type	Em_EEPROM_1_Start, %function
  24              	Em_EEPROM_1_Start:
  25              	.LFB0:
  26              		.file 1 "Generated_Source\\PSoC5\\Em_EEPROM_1.c"
   1:Generated_Source\PSoC5/Em_EEPROM_1.c **** /*******************************************************************************
   2:Generated_Source\PSoC5/Em_EEPROM_1.c **** * File Name: Em_EEPROM_1.c
   3:Generated_Source\PSoC5/Em_EEPROM_1.c **** * Version 1.10
   4:Generated_Source\PSoC5/Em_EEPROM_1.c **** *
   5:Generated_Source\PSoC5/Em_EEPROM_1.c **** * Description:
   6:Generated_Source\PSoC5/Em_EEPROM_1.c **** *  This file provides the source code to API for the Emulated EEPROM Component.
   7:Generated_Source\PSoC5/Em_EEPROM_1.c **** *
   8:Generated_Source\PSoC5/Em_EEPROM_1.c **** ********************************************************************************
   9:Generated_Source\PSoC5/Em_EEPROM_1.c **** * Copyright 2013, Cypress Semiconductor Corporation.  All rights reserved.
  10:Generated_Source\PSoC5/Em_EEPROM_1.c **** * You may use this file only in accordance with the license, terms, conditions,
  11:Generated_Source\PSoC5/Em_EEPROM_1.c **** * disclaimers, and limitations in the end user license agreement accompanying
  12:Generated_Source\PSoC5/Em_EEPROM_1.c **** * the software package with which this file was provided.
  13:Generated_Source\PSoC5/Em_EEPROM_1.c **** *******************************************************************************/
  14:Generated_Source\PSoC5/Em_EEPROM_1.c **** 
  15:Generated_Source\PSoC5/Em_EEPROM_1.c **** #include "Em_EEPROM_1.h"
  16:Generated_Source\PSoC5/Em_EEPROM_1.c **** 
  17:Generated_Source\PSoC5/Em_EEPROM_1.c **** 
  18:Generated_Source\PSoC5/Em_EEPROM_1.c **** /*******************************************************************************
  19:Generated_Source\PSoC5/Em_EEPROM_1.c **** * Function Name: Em_EEPROM_1_Start
  20:Generated_Source\PSoC5/Em_EEPROM_1.c **** ********************************************************************************
  21:Generated_Source\PSoC5/Em_EEPROM_1.c **** *
  22:Generated_Source\PSoC5/Em_EEPROM_1.c **** * Summary:
  23:Generated_Source\PSoC5/Em_EEPROM_1.c **** *  Empty function. Included for consistency with other
  24:Generated_Source\PSoC5/Em_EEPROM_1.c **** *  components.
  25:Generated_Source\PSoC5/Em_EEPROM_1.c **** *
  26:Generated_Source\PSoC5/Em_EEPROM_1.c **** * Parameters:
  27:Generated_Source\PSoC5/Em_EEPROM_1.c **** *  None
  28:Generated_Source\PSoC5/Em_EEPROM_1.c **** *
  29:Generated_Source\PSoC5/Em_EEPROM_1.c **** * Return:
  30:Generated_Source\PSoC5/Em_EEPROM_1.c **** *  None
  31:Generated_Source\PSoC5/Em_EEPROM_1.c **** *
ARM GAS  C:\Users\Bruger\AppData\Local\Temp\ccJ3gHL2.s 			page 2


  32:Generated_Source\PSoC5/Em_EEPROM_1.c **** *******************************************************************************/
  33:Generated_Source\PSoC5/Em_EEPROM_1.c **** void Em_EEPROM_1_Start(void) 
  34:Generated_Source\PSoC5/Em_EEPROM_1.c **** {
  27              		.loc 1 34 0
  28              		.cfi_startproc
  29              		@ args = 0, pretend = 0, frame = 0
  30              		@ frame_needed = 1, uses_anonymous_args = 0
  31              		@ link register save eliminated.
  32 0000 80B4     		push	{r7}
  33              		.cfi_def_cfa_offset 4
  34              		.cfi_offset 7, -4
  35 0002 00AF     		add	r7, sp, #0
  36              		.cfi_def_cfa_register 7
  35:Generated_Source\PSoC5/Em_EEPROM_1.c **** 
  36:Generated_Source\PSoC5/Em_EEPROM_1.c **** }
  37              		.loc 1 36 0
  38 0004 BD46     		mov	sp, r7
  39              		.cfi_def_cfa_register 13
  40              		@ sp needed
  41 0006 5DF8047B 		ldr	r7, [sp], #4
  42              		.cfi_restore 7
  43              		.cfi_def_cfa_offset 0
  44 000a 7047     		bx	lr
  45              		.cfi_endproc
  46              	.LFE0:
  47              		.size	Em_EEPROM_1_Start, .-Em_EEPROM_1_Start
  48              		.section	.text.Em_EEPROM_1_Stop,"ax",%progbits
  49              		.align	2
  50              		.global	Em_EEPROM_1_Stop
  51              		.thumb
  52              		.thumb_func
  53              		.type	Em_EEPROM_1_Stop, %function
  54              	Em_EEPROM_1_Stop:
  55              	.LFB1:
  37:Generated_Source\PSoC5/Em_EEPROM_1.c **** 
  38:Generated_Source\PSoC5/Em_EEPROM_1.c **** 
  39:Generated_Source\PSoC5/Em_EEPROM_1.c **** /*******************************************************************************
  40:Generated_Source\PSoC5/Em_EEPROM_1.c **** * Function Name: Em_EEPROM_1_Stop
  41:Generated_Source\PSoC5/Em_EEPROM_1.c **** ********************************************************************************
  42:Generated_Source\PSoC5/Em_EEPROM_1.c **** *
  43:Generated_Source\PSoC5/Em_EEPROM_1.c **** * Summary:
  44:Generated_Source\PSoC5/Em_EEPROM_1.c **** *  Empty function. Included for consistency with other
  45:Generated_Source\PSoC5/Em_EEPROM_1.c **** *  components.
  46:Generated_Source\PSoC5/Em_EEPROM_1.c **** *
  47:Generated_Source\PSoC5/Em_EEPROM_1.c **** * Parameters:
  48:Generated_Source\PSoC5/Em_EEPROM_1.c **** *  None
  49:Generated_Source\PSoC5/Em_EEPROM_1.c **** *
  50:Generated_Source\PSoC5/Em_EEPROM_1.c **** * Return:
  51:Generated_Source\PSoC5/Em_EEPROM_1.c **** *  None
  52:Generated_Source\PSoC5/Em_EEPROM_1.c **** *
  53:Generated_Source\PSoC5/Em_EEPROM_1.c **** *******************************************************************************/
  54:Generated_Source\PSoC5/Em_EEPROM_1.c **** void Em_EEPROM_1_Stop(void) 
  55:Generated_Source\PSoC5/Em_EEPROM_1.c **** {
  56              		.loc 1 55 0
  57              		.cfi_startproc
  58              		@ args = 0, pretend = 0, frame = 0
  59              		@ frame_needed = 1, uses_anonymous_args = 0
ARM GAS  C:\Users\Bruger\AppData\Local\Temp\ccJ3gHL2.s 			page 3


  60              		@ link register save eliminated.
  61 0000 80B4     		push	{r7}
  62              		.cfi_def_cfa_offset 4
  63              		.cfi_offset 7, -4
  64 0002 00AF     		add	r7, sp, #0
  65              		.cfi_def_cfa_register 7
  56:Generated_Source\PSoC5/Em_EEPROM_1.c **** 
  57:Generated_Source\PSoC5/Em_EEPROM_1.c **** }
  66              		.loc 1 57 0
  67 0004 BD46     		mov	sp, r7
  68              		.cfi_def_cfa_register 13
  69              		@ sp needed
  70 0006 5DF8047B 		ldr	r7, [sp], #4
  71              		.cfi_restore 7
  72              		.cfi_def_cfa_offset 0
  73 000a 7047     		bx	lr
  74              		.cfi_endproc
  75              	.LFE1:
  76              		.size	Em_EEPROM_1_Stop, .-Em_EEPROM_1_Stop
  77              		.section	.text.Em_EEPROM_1_Write,"ax",%progbits
  78              		.align	2
  79              		.global	Em_EEPROM_1_Write
  80              		.thumb
  81              		.thumb_func
  82              		.type	Em_EEPROM_1_Write, %function
  83              	Em_EEPROM_1_Write:
  84              	.LFB2:
  58:Generated_Source\PSoC5/Em_EEPROM_1.c **** 
  59:Generated_Source\PSoC5/Em_EEPROM_1.c **** 
  60:Generated_Source\PSoC5/Em_EEPROM_1.c **** /*******************************************************************************
  61:Generated_Source\PSoC5/Em_EEPROM_1.c **** * Function Name: Em_EEPROM_1_Write
  62:Generated_Source\PSoC5/Em_EEPROM_1.c **** ********************************************************************************
  63:Generated_Source\PSoC5/Em_EEPROM_1.c **** *
  64:Generated_Source\PSoC5/Em_EEPROM_1.c **** * Summary:
  65:Generated_Source\PSoC5/Em_EEPROM_1.c **** *  Writes the specified number of bytes from the source buffer in SRAM to the
  66:Generated_Source\PSoC5/Em_EEPROM_1.c **** *  emulated EEPROM array in flash, without modifying other data in flash.
  67:Generated_Source\PSoC5/Em_EEPROM_1.c **** *
  68:Generated_Source\PSoC5/Em_EEPROM_1.c **** * Parameters:
  69:Generated_Source\PSoC5/Em_EEPROM_1.c **** *  srcBuf:    Pointer to the SRAM buffer holding the data to write.
  70:Generated_Source\PSoC5/Em_EEPROM_1.c **** *  eepromPtr: Pointer to the array or variable in flash representing
  71:Generated_Source\PSoC5/Em_EEPROM_1.c **** *             the emulated EEPROM.
  72:Generated_Source\PSoC5/Em_EEPROM_1.c **** *  byteCount: Number of bytes to write from srcBuf to eepromPtr.
  73:Generated_Source\PSoC5/Em_EEPROM_1.c **** *
  74:Generated_Source\PSoC5/Em_EEPROM_1.c **** * Return:
  75:Generated_Source\PSoC5/Em_EEPROM_1.c **** *    CYRET_SUCCESS     Successful write.
  76:Generated_Source\PSoC5/Em_EEPROM_1.c **** *    CYRET_BAD_PARAM   eepromPtr is out of range of flash memory.
  77:Generated_Source\PSoC5/Em_EEPROM_1.c **** *    CYRET_UNKNOWN     Other error in writing flash.
  78:Generated_Source\PSoC5/Em_EEPROM_1.c **** *
  79:Generated_Source\PSoC5/Em_EEPROM_1.c **** *******************************************************************************/
  80:Generated_Source\PSoC5/Em_EEPROM_1.c **** #if (CY_PSOC3)
  81:Generated_Source\PSoC5/Em_EEPROM_1.c ****     cystatus Em_EEPROM_1_Write(const uint8 srcBuf[], const uint8 eepromPtr[], uint16 byteCount)
  82:Generated_Source\PSoC5/Em_EEPROM_1.c ****                                                                             
  83:Generated_Source\PSoC5/Em_EEPROM_1.c **** #else
  84:Generated_Source\PSoC5/Em_EEPROM_1.c ****     cystatus Em_EEPROM_1_Write(const uint8 srcBuf[], const uint8 eepromPtr[], uint32 byteCount)
  85:Generated_Source\PSoC5/Em_EEPROM_1.c **** #endif /* (!CY_PSOC3) */
  86:Generated_Source\PSoC5/Em_EEPROM_1.c **** {
  85              		.loc 1 86 0
ARM GAS  C:\Users\Bruger\AppData\Local\Temp\ccJ3gHL2.s 			page 4


  86              		.cfi_startproc
  87              		@ args = 0, pretend = 0, frame = 592
  88              		@ frame_needed = 1, uses_anonymous_args = 0
  89 0000 80B5     		push	{r7, lr}
  90              		.cfi_def_cfa_offset 8
  91              		.cfi_offset 7, -8
  92              		.cfi_offset 14, -4
  93 0002 ADF5147D 		sub	sp, sp, #592
  94              		.cfi_def_cfa_offset 600
  95 0006 00AF     		add	r7, sp, #0
  96              		.cfi_def_cfa_register 7
  97 0008 07F10C03 		add	r3, r7, #12
  98 000c 1860     		str	r0, [r3]
  99 000e 07F10803 		add	r3, r7, #8
 100 0012 1960     		str	r1, [r3]
 101 0014 3B1D     		adds	r3, r7, #4
 102 0016 1A60     		str	r2, [r3]
  87:Generated_Source\PSoC5/Em_EEPROM_1.c ****     uint8 writeBuffer[CY_FLASH_SIZEOF_ROW];
  88:Generated_Source\PSoC5/Em_EEPROM_1.c ****     uint32 arrayId;
  89:Generated_Source\PSoC5/Em_EEPROM_1.c ****     uint32 rowId;
  90:Generated_Source\PSoC5/Em_EEPROM_1.c ****     uint32 dstIndex;
  91:Generated_Source\PSoC5/Em_EEPROM_1.c ****     uint32 srcIndex;
  92:Generated_Source\PSoC5/Em_EEPROM_1.c ****     cystatus rc;
  93:Generated_Source\PSoC5/Em_EEPROM_1.c ****     uint32 eeOffset;
  94:Generated_Source\PSoC5/Em_EEPROM_1.c ****     uint32 byteOffset;
  95:Generated_Source\PSoC5/Em_EEPROM_1.c ****     
  96:Generated_Source\PSoC5/Em_EEPROM_1.c ****     #if (!CY_PSOC4)
  97:Generated_Source\PSoC5/Em_EEPROM_1.c ****         #if (CYDEV_ECC_ENABLE == 0)
  98:Generated_Source\PSoC5/Em_EEPROM_1.c ****             uint8 rowBuffer[CY_FLASH_SIZEOF_ROW + CY_FLASH_SIZEOF_ECC_ROW];
  99:Generated_Source\PSoC5/Em_EEPROM_1.c ****         #endif /* CYDEV_ECC_ENABLE == 0) */
 100:Generated_Source\PSoC5/Em_EEPROM_1.c ****     #endif /* (!CY_PSOC4) */
 101:Generated_Source\PSoC5/Em_EEPROM_1.c **** 
 102:Generated_Source\PSoC5/Em_EEPROM_1.c ****     eeOffset = (uint32)eepromPtr;
 103              		.loc 1 102 0
 104 0018 07F10803 		add	r3, r7, #8
 105 001c 1B68     		ldr	r3, [r3]
 106 001e C7F83432 		str	r3, [r7, #564]
 103:Generated_Source\PSoC5/Em_EEPROM_1.c ****     #if (CY_PSOC3)
 104:Generated_Source\PSoC5/Em_EEPROM_1.c ****         eeOffset &= Em_EEPROM_1_CODE_ADDR_MASK;
 105:Generated_Source\PSoC5/Em_EEPROM_1.c ****     #endif /* (CY_PSOC3) */
 106:Generated_Source\PSoC5/Em_EEPROM_1.c **** 
 107:Generated_Source\PSoC5/Em_EEPROM_1.c ****     /* Make sure, that eepromPtr[] points to ROM */
 108:Generated_Source\PSoC5/Em_EEPROM_1.c ****     #if (CY_PSOC3)
 109:Generated_Source\PSoC5/Em_EEPROM_1.c ****         if (((uint32)eepromPtr >= Em_EEPROM_1_CODE_ADDR_OFFSET) &&
 110:Generated_Source\PSoC5/Em_EEPROM_1.c ****             (((uint32)eepromPtr + byteCount) <= Em_EEPROM_1_CODE_ADDR_END))
 111:Generated_Source\PSoC5/Em_EEPROM_1.c ****     #else
 112:Generated_Source\PSoC5/Em_EEPROM_1.c ****         if (((uint32)eepromPtr + byteCount) < Em_EEPROM_1_FLASH_END_ADDR)
 107              		.loc 1 112 0
 108 0022 07F10803 		add	r3, r7, #8
 109 0026 1A68     		ldr	r2, [r3]
 110 0028 3B1D     		adds	r3, r7, #4
 111 002a 1B68     		ldr	r3, [r3]
 112 002c 1344     		add	r3, r3, r2
 113 002e B3F5802F 		cmp	r3, #262144
 114 0032 80F08C80 		bcs	.L4
 113:Generated_Source\PSoC5/Em_EEPROM_1.c ****     #endif /* (CY_PSOC3) */
 114:Generated_Source\PSoC5/Em_EEPROM_1.c ****     {
ARM GAS  C:\Users\Bruger\AppData\Local\Temp\ccJ3gHL2.s 			page 5


 115:Generated_Source\PSoC5/Em_EEPROM_1.c ****         #if (!CY_PSOC4)
 116:Generated_Source\PSoC5/Em_EEPROM_1.c ****             (void)CySetTemp();
 115              		.loc 1 116 0
 116 0036 FFF7FEFF 		bl	CySetTemp
 117:Generated_Source\PSoC5/Em_EEPROM_1.c **** 
 118:Generated_Source\PSoC5/Em_EEPROM_1.c ****             #if(CYDEV_ECC_ENABLE == 0)
 119:Generated_Source\PSoC5/Em_EEPROM_1.c ****                 (void)CySetFlashEEBuffer(rowBuffer);
 117              		.loc 1 119 0
 118 003a 07F11403 		add	r3, r7, #20
 119 003e 1846     		mov	r0, r3
 120 0040 FFF7FEFF 		bl	CySetFlashEEBuffer
 120:Generated_Source\PSoC5/Em_EEPROM_1.c ****             #endif
 121:Generated_Source\PSoC5/Em_EEPROM_1.c ****         #endif /* (!CY_PSOC4) */
 122:Generated_Source\PSoC5/Em_EEPROM_1.c **** 
 123:Generated_Source\PSoC5/Em_EEPROM_1.c ****         arrayId = eeOffset / CY_FLASH_SIZEOF_ARRAY;
 121              		.loc 1 123 0
 122 0044 D7F83432 		ldr	r3, [r7, #564]
 123 0048 1B0C     		lsrs	r3, r3, #16
 124 004a C7F84C32 		str	r3, [r7, #588]
 124:Generated_Source\PSoC5/Em_EEPROM_1.c ****         rowId = (eeOffset / CY_FLASH_SIZEOF_ROW) % Em_EEPROM_1_ROWS_IN_ARRAY;
 125              		.loc 1 124 0
 126 004e D7F83432 		ldr	r3, [r7, #564]
 127 0052 1B0A     		lsrs	r3, r3, #8
 128 0054 DBB2     		uxtb	r3, r3
 129 0056 C7F84832 		str	r3, [r7, #584]
 125:Generated_Source\PSoC5/Em_EEPROM_1.c ****         byteOffset = (CY_FLASH_SIZEOF_ARRAY * arrayId) + (CY_FLASH_SIZEOF_ROW * rowId);
 130              		.loc 1 125 0
 131 005a D7F84C32 		ldr	r3, [r7, #588]
 132 005e 1A02     		lsls	r2, r3, #8
 133 0060 D7F84832 		ldr	r3, [r7, #584]
 134 0064 1344     		add	r3, r3, r2
 135 0066 1B02     		lsls	r3, r3, #8
 136 0068 C7F83832 		str	r3, [r7, #568]
 126:Generated_Source\PSoC5/Em_EEPROM_1.c ****         srcIndex = 0u;
 137              		.loc 1 126 0
 138 006c 0023     		movs	r3, #0
 139 006e C7F84032 		str	r3, [r7, #576]
 127:Generated_Source\PSoC5/Em_EEPROM_1.c **** 
 128:Generated_Source\PSoC5/Em_EEPROM_1.c ****         rc = CYRET_SUCCESS;
 140              		.loc 1 128 0
 141 0072 0023     		movs	r3, #0
 142 0074 C7F83C32 		str	r3, [r7, #572]
 129:Generated_Source\PSoC5/Em_EEPROM_1.c **** 
 130:Generated_Source\PSoC5/Em_EEPROM_1.c ****         while ((srcIndex < byteCount) && (CYRET_SUCCESS == rc))
 143              		.loc 1 130 0
 144 0078 5CE0     		b	.L5
 145              	.L11:
 131:Generated_Source\PSoC5/Em_EEPROM_1.c ****         {
 132:Generated_Source\PSoC5/Em_EEPROM_1.c ****             /* Copy data to the write buffer either from the source buffer or from the flash */
 133:Generated_Source\PSoC5/Em_EEPROM_1.c ****             for (dstIndex = 0u; dstIndex < CY_FLASH_SIZEOF_ROW; dstIndex++)
 146              		.loc 1 133 0
 147 007a 0023     		movs	r3, #0
 148 007c C7F84432 		str	r3, [r7, #580]
 149 0080 34E0     		b	.L6
 150              	.L9:
 134:Generated_Source\PSoC5/Em_EEPROM_1.c ****             {
 135:Generated_Source\PSoC5/Em_EEPROM_1.c ****                 if ((byteOffset >= eeOffset) && (srcIndex < byteCount))
ARM GAS  C:\Users\Bruger\AppData\Local\Temp\ccJ3gHL2.s 			page 6


 151              		.loc 1 135 0
 152 0082 D7F83822 		ldr	r2, [r7, #568]
 153 0086 D7F83432 		ldr	r3, [r7, #564]
 154 008a 9A42     		cmp	r2, r3
 155 008c 19D3     		bcc	.L7
 156              		.loc 1 135 0 is_stmt 0 discriminator 1
 157 008e 3B1D     		adds	r3, r7, #4
 158 0090 D7F84022 		ldr	r2, [r7, #576]
 159 0094 1B68     		ldr	r3, [r3]
 160 0096 9A42     		cmp	r2, r3
 161 0098 13D2     		bcs	.L7
 136:Generated_Source\PSoC5/Em_EEPROM_1.c ****                 {
 137:Generated_Source\PSoC5/Em_EEPROM_1.c ****                     writeBuffer[dstIndex] = srcBuf[srcIndex];
 162              		.loc 1 137 0 is_stmt 1
 163 009a 07F10C03 		add	r3, r7, #12
 164 009e 1A68     		ldr	r2, [r3]
 165 00a0 D7F84032 		ldr	r3, [r7, #576]
 166 00a4 1344     		add	r3, r3, r2
 167 00a6 1978     		ldrb	r1, [r3]	@ zero_extendqisi2
 168 00a8 07F59A72 		add	r2, r7, #308
 169 00ac D7F84432 		ldr	r3, [r7, #580]
 170 00b0 1344     		add	r3, r3, r2
 171 00b2 0A46     		mov	r2, r1
 172 00b4 1A70     		strb	r2, [r3]
 138:Generated_Source\PSoC5/Em_EEPROM_1.c ****                     srcIndex++;
 173              		.loc 1 138 0
 174 00b6 D7F84032 		ldr	r3, [r7, #576]
 175 00ba 0133     		adds	r3, r3, #1
 176 00bc C7F84032 		str	r3, [r7, #576]
 177 00c0 0AE0     		b	.L8
 178              	.L7:
 139:Generated_Source\PSoC5/Em_EEPROM_1.c ****                 }
 140:Generated_Source\PSoC5/Em_EEPROM_1.c ****                 else
 141:Generated_Source\PSoC5/Em_EEPROM_1.c ****                 {
 142:Generated_Source\PSoC5/Em_EEPROM_1.c ****                     writeBuffer[dstIndex] = CY_GET_XTND_REG8(CYDEV_FLASH_BASE + byteOffset);
 179              		.loc 1 142 0
 180 00c2 D7F83832 		ldr	r3, [r7, #568]
 181 00c6 1B78     		ldrb	r3, [r3]
 182 00c8 D9B2     		uxtb	r1, r3
 183 00ca 07F59A72 		add	r2, r7, #308
 184 00ce D7F84432 		ldr	r3, [r7, #580]
 185 00d2 1344     		add	r3, r3, r2
 186 00d4 0A46     		mov	r2, r1
 187 00d6 1A70     		strb	r2, [r3]
 188              	.L8:
 143:Generated_Source\PSoC5/Em_EEPROM_1.c ****                 }
 144:Generated_Source\PSoC5/Em_EEPROM_1.c ****                 byteOffset++;
 189              		.loc 1 144 0 discriminator 2
 190 00d8 D7F83832 		ldr	r3, [r7, #568]
 191 00dc 0133     		adds	r3, r3, #1
 192 00de C7F83832 		str	r3, [r7, #568]
 133:Generated_Source\PSoC5/Em_EEPROM_1.c ****             {
 193              		.loc 1 133 0 discriminator 2
 194 00e2 D7F84432 		ldr	r3, [r7, #580]
 195 00e6 0133     		adds	r3, r3, #1
 196 00e8 C7F84432 		str	r3, [r7, #580]
 197              	.L6:
ARM GAS  C:\Users\Bruger\AppData\Local\Temp\ccJ3gHL2.s 			page 7


 133:Generated_Source\PSoC5/Em_EEPROM_1.c ****             {
 198              		.loc 1 133 0 is_stmt 0 discriminator 1
 199 00ec D7F84432 		ldr	r3, [r7, #580]
 200 00f0 FF2B     		cmp	r3, #255
 201 00f2 C6D9     		bls	.L9
 145:Generated_Source\PSoC5/Em_EEPROM_1.c ****             }
 146:Generated_Source\PSoC5/Em_EEPROM_1.c **** 
 147:Generated_Source\PSoC5/Em_EEPROM_1.c ****             /* Write flash row */
 148:Generated_Source\PSoC5/Em_EEPROM_1.c ****             #if (CY_PSOC4)
 149:Generated_Source\PSoC5/Em_EEPROM_1.c ****                 rc = CySysFlashWriteRow(rowId, writeBuffer);
 150:Generated_Source\PSoC5/Em_EEPROM_1.c ****             #else
 151:Generated_Source\PSoC5/Em_EEPROM_1.c ****                 rc = CyWriteRowData((uint8)arrayId, (uint16)rowId, writeBuffer);
 202              		.loc 1 151 0 is_stmt 1
 203 00f4 D7F84C32 		ldr	r3, [r7, #588]
 204 00f8 D9B2     		uxtb	r1, r3
 205 00fa D7F84832 		ldr	r3, [r7, #584]
 206 00fe 9AB2     		uxth	r2, r3
 207 0100 07F59A73 		add	r3, r7, #308
 208 0104 0846     		mov	r0, r1
 209 0106 1146     		mov	r1, r2
 210 0108 1A46     		mov	r2, r3
 211 010a FFF7FEFF 		bl	CyWriteRowData
 212 010e C7F83C02 		str	r0, [r7, #572]
 152:Generated_Source\PSoC5/Em_EEPROM_1.c ****             #endif /* (CY_PSOC4) */
 153:Generated_Source\PSoC5/Em_EEPROM_1.c **** 
 154:Generated_Source\PSoC5/Em_EEPROM_1.c ****             /* Go to the next row */
 155:Generated_Source\PSoC5/Em_EEPROM_1.c ****             rowId++;
 213              		.loc 1 155 0
 214 0112 D7F84832 		ldr	r3, [r7, #584]
 215 0116 0133     		adds	r3, r3, #1
 216 0118 C7F84832 		str	r3, [r7, #584]
 156:Generated_Source\PSoC5/Em_EEPROM_1.c ****             #if (CY_FLASH_NUMBER_ARRAYS > 1)
 157:Generated_Source\PSoC5/Em_EEPROM_1.c ****                 if (rowId >= Em_EEPROM_1_ROWS_IN_ARRAY)
 217              		.loc 1 157 0
 218 011c D7F84832 		ldr	r3, [r7, #584]
 219 0120 FF2B     		cmp	r3, #255
 220 0122 07D9     		bls	.L5
 158:Generated_Source\PSoC5/Em_EEPROM_1.c ****                 {
 159:Generated_Source\PSoC5/Em_EEPROM_1.c ****                     arrayId++;
 221              		.loc 1 159 0
 222 0124 D7F84C32 		ldr	r3, [r7, #588]
 223 0128 0133     		adds	r3, r3, #1
 224 012a C7F84C32 		str	r3, [r7, #588]
 160:Generated_Source\PSoC5/Em_EEPROM_1.c ****                     rowId = 0u;
 225              		.loc 1 160 0
 226 012e 0023     		movs	r3, #0
 227 0130 C7F84832 		str	r3, [r7, #584]
 228              	.L5:
 130:Generated_Source\PSoC5/Em_EEPROM_1.c ****         {
 229              		.loc 1 130 0
 230 0134 3B1D     		adds	r3, r7, #4
 231 0136 D7F84022 		ldr	r2, [r7, #576]
 232 013a 1B68     		ldr	r3, [r3]
 233 013c 9A42     		cmp	r2, r3
 234 013e 03D2     		bcs	.L10
 130:Generated_Source\PSoC5/Em_EEPROM_1.c ****         {
 235              		.loc 1 130 0 is_stmt 0 discriminator 1
ARM GAS  C:\Users\Bruger\AppData\Local\Temp\ccJ3gHL2.s 			page 8


 236 0140 D7F83C32 		ldr	r3, [r7, #572]
 237 0144 002B     		cmp	r3, #0
 238 0146 98D0     		beq	.L11
 239              	.L10:
 161:Generated_Source\PSoC5/Em_EEPROM_1.c ****                 }
 162:Generated_Source\PSoC5/Em_EEPROM_1.c ****             #endif /* (CY_FLASH_NUMBER_ARRAYS > 1) */
 163:Generated_Source\PSoC5/Em_EEPROM_1.c ****         }
 164:Generated_Source\PSoC5/Em_EEPROM_1.c **** 
 165:Generated_Source\PSoC5/Em_EEPROM_1.c ****         /* Flush both Cache and PHUB prefetch buffer */
 166:Generated_Source\PSoC5/Em_EEPROM_1.c ****         #if (CY_PSOC5)
 167:Generated_Source\PSoC5/Em_EEPROM_1.c ****             CyFlushCache();
 240              		.loc 1 167 0 is_stmt 1
 241 0148 FFF7FEFF 		bl	CyFlushCache
 242 014c 02E0     		b	.L12
 243              	.L4:
 168:Generated_Source\PSoC5/Em_EEPROM_1.c ****         #elif (CY_PSOC3)
 169:Generated_Source\PSoC5/Em_EEPROM_1.c ****             CY_FLASH_CONTROL_REG |= 6u;
 170:Generated_Source\PSoC5/Em_EEPROM_1.c ****         #endif /* (CY_PSOC5) */
 171:Generated_Source\PSoC5/Em_EEPROM_1.c ****     }
 172:Generated_Source\PSoC5/Em_EEPROM_1.c ****     else
 173:Generated_Source\PSoC5/Em_EEPROM_1.c ****     {
 174:Generated_Source\PSoC5/Em_EEPROM_1.c ****         rc = CYRET_BAD_PARAM;
 244              		.loc 1 174 0
 245 014e 0123     		movs	r3, #1
 246 0150 C7F83C32 		str	r3, [r7, #572]
 247              	.L12:
 175:Generated_Source\PSoC5/Em_EEPROM_1.c ****     }
 176:Generated_Source\PSoC5/Em_EEPROM_1.c **** 
 177:Generated_Source\PSoC5/Em_EEPROM_1.c ****     /* Mask return codes from flash, if they are not supported */
 178:Generated_Source\PSoC5/Em_EEPROM_1.c ****     if ((CYRET_SUCCESS != rc) && (CYRET_BAD_PARAM != rc))
 248              		.loc 1 178 0
 249 0154 D7F83C32 		ldr	r3, [r7, #572]
 250 0158 002B     		cmp	r3, #0
 251 015a 07D0     		beq	.L13
 252              		.loc 1 178 0 is_stmt 0 discriminator 1
 253 015c D7F83C32 		ldr	r3, [r7, #572]
 254 0160 012B     		cmp	r3, #1
 255 0162 03D0     		beq	.L13
 179:Generated_Source\PSoC5/Em_EEPROM_1.c ****     {
 180:Generated_Source\PSoC5/Em_EEPROM_1.c ****         rc = CYRET_UNKNOWN;
 256              		.loc 1 180 0 is_stmt 1
 257 0164 4FF0FF33 		mov	r3, #-1
 258 0168 C7F83C32 		str	r3, [r7, #572]
 259              	.L13:
 181:Generated_Source\PSoC5/Em_EEPROM_1.c ****     }
 182:Generated_Source\PSoC5/Em_EEPROM_1.c ****     
 183:Generated_Source\PSoC5/Em_EEPROM_1.c ****     return (rc);
 260              		.loc 1 183 0
 261 016c D7F83C32 		ldr	r3, [r7, #572]
 184:Generated_Source\PSoC5/Em_EEPROM_1.c **** }
 262              		.loc 1 184 0
 263 0170 1846     		mov	r0, r3
 264 0172 07F51477 		add	r7, r7, #592
 265              		.cfi_def_cfa_offset 8
 266 0176 BD46     		mov	sp, r7
 267              		.cfi_def_cfa_register 13
 268              		@ sp needed
ARM GAS  C:\Users\Bruger\AppData\Local\Temp\ccJ3gHL2.s 			page 9


 269 0178 80BD     		pop	{r7, pc}
 270              		.cfi_endproc
 271              	.LFE2:
 272              		.size	Em_EEPROM_1_Write, .-Em_EEPROM_1_Write
 273 017a 00BF     		.text
 274              	.Letext0:
 275              		.file 2 "Generated_Source\\PSoC5\\cytypes.h"