ARM GAS  C:\Users\Bruger\AppData\Local\Temp\cc060v0d.s 			page 1


   1              		.syntax unified
   2              		.cpu cortex-m3
   3              		.fpu softvfp
   4              		.eabi_attribute 20, 1
   5              		.eabi_attribute 21, 1
   6              		.eabi_attribute 23, 3
   7              		.eabi_attribute 24, 1
   8              		.eabi_attribute 25, 1
   9              		.eabi_attribute 26, 1
  10              		.eabi_attribute 30, 6
  11              		.eabi_attribute 34, 1
  12              		.eabi_attribute 18, 4
  13              		.thumb
  14              		.file	"itoa.cpp"
  15              		.text
  16              	.Ltext0:
  17              		.cfi_sections	.debug_frame
  18              		.section	.text._Z4itoaiPci,"ax",%progbits
  19              		.align	2
  20              		.global	_Z4itoaiPci
  21              		.thumb
  22              		.thumb_func
  23              		.type	_Z4itoaiPci, %function
  24              	_Z4itoaiPci:
  25              		.fnstart
  26              	.LFB0:
  27              		.file 1 "core\\itoa.cpp"
   1:core/itoa.cpp **** /*
   2:core/itoa.cpp ****   Copyright (c) 2011 Arduino.  All right reserved.
   3:core/itoa.cpp **** 
   4:core/itoa.cpp ****   This library is free software; you can redistribute it and/or
   5:core/itoa.cpp ****   modify it under the terms of the GNU Lesser General Public
   6:core/itoa.cpp ****   License as published by the Free Software Foundation; either
   7:core/itoa.cpp ****   version 2.1 of the License, or (at your option) any later version.
   8:core/itoa.cpp **** 
   9:core/itoa.cpp ****   This library is distributed in the hope that it will be useful,
  10:core/itoa.cpp ****   but WITHOUT ANY WARRANTY; without even the implied warranty of
  11:core/itoa.cpp ****   MERCHANTABILITY or FITNESS FOR A PARTICULAR PURPOSE. 
  12:core/itoa.cpp ****   See the GNU Lesser General Public License for more details.
  13:core/itoa.cpp **** 
  14:core/itoa.cpp ****   You should have received a copy of the GNU Lesser General Public
  15:core/itoa.cpp ****   License along with this library; if not, write to the Free Software
  16:core/itoa.cpp ****   Foundation, Inc., 51 Franklin St, Fifth Floor, Boston, MA  02110-1301  USA
  17:core/itoa.cpp **** */
  18:core/itoa.cpp **** 
  19:core/itoa.cpp **** #include "itoa.h"
  20:core/itoa.cpp **** #include <string.h>
  21:core/itoa.cpp **** 
  22:core/itoa.cpp **** 
  23:core/itoa.cpp **** extern char* itoa( int value, char *string, int radix )
  24:core/itoa.cpp **** {
  28              		.loc 1 24 0
  29              		.cfi_startproc
  30              		@ args = 0, pretend = 0, frame = 16
  31              		@ frame_needed = 1, uses_anonymous_args = 0
  32 0000 80B5     		push	{r7, lr}
  33              		.cfi_def_cfa_offset 8
ARM GAS  C:\Users\Bruger\AppData\Local\Temp\cc060v0d.s 			page 2


  34              		.cfi_offset 7, -8
  35              		.cfi_offset 14, -4
  36 0002 84B0     		sub	sp, sp, #16
  37              		.cfi_def_cfa_offset 24
  38 0004 00AF     		add	r7, sp, #0
  39              		.cfi_def_cfa_register 7
  40 0006 F860     		str	r0, [r7, #12]
  41 0008 B960     		str	r1, [r7, #8]
  42 000a 7A60     		str	r2, [r7, #4]
  25:core/itoa.cpp ****   return ltoa( value, string, radix ) ;
  43              		.loc 1 25 0
  44 000c F868     		ldr	r0, [r7, #12]
  45 000e B968     		ldr	r1, [r7, #8]
  46 0010 7A68     		ldr	r2, [r7, #4]
  47 0012 FFF7FEFF 		bl	_Z4ltoalPci
  48 0016 0346     		mov	r3, r0
  26:core/itoa.cpp **** }
  49              		.loc 1 26 0
  50 0018 1846     		mov	r0, r3
  51 001a 1037     		adds	r7, r7, #16
  52              		.cfi_def_cfa_offset 8
  53 001c BD46     		mov	sp, r7
  54              		.cfi_def_cfa_register 13
  55              		@ sp needed
  56 001e 80BD     		pop	{r7, pc}
  57              		.cfi_endproc
  58              	.LFE0:
  59              		.cantunwind
  60              		.fnend
  61              		.size	_Z4itoaiPci, .-_Z4itoaiPci
  62              		.section	.text._Z4ltoalPci,"ax",%progbits
  63              		.align	2
  64              		.global	_Z4ltoalPci
  65              		.thumb
  66              		.thumb_func
  67              		.type	_Z4ltoalPci, %function
  68              	_Z4ltoalPci:
  69              		.fnstart
  70              	.LFB1:
  27:core/itoa.cpp **** 
  28:core/itoa.cpp **** extern char* ltoa( long value, char *string, int radix )
  29:core/itoa.cpp **** {
  71              		.loc 1 29 0
  72              		.cfi_startproc
  73              		@ args = 0, pretend = 0, frame = 72
  74              		@ frame_needed = 1, uses_anonymous_args = 0
  75              		@ link register save eliminated.
  76 0000 80B4     		push	{r7}
  77              		.cfi_def_cfa_offset 4
  78              		.cfi_offset 7, -4
  79 0002 93B0     		sub	sp, sp, #76
  80              		.cfi_def_cfa_offset 80
  81 0004 00AF     		add	r7, sp, #0
  82              		.cfi_def_cfa_register 7
  83 0006 F860     		str	r0, [r7, #12]
  84 0008 B960     		str	r1, [r7, #8]
  85 000a 7A60     		str	r2, [r7, #4]
ARM GAS  C:\Users\Bruger\AppData\Local\Temp\cc060v0d.s 			page 3


  86              	.LBB2:
  30:core/itoa.cpp ****   char tmp[33];
  31:core/itoa.cpp ****   char *tp = tmp;
  87              		.loc 1 31 0
  88 000c 07F11003 		add	r3, r7, #16
  89 0010 7B64     		str	r3, [r7, #68]
  32:core/itoa.cpp ****   long i;
  33:core/itoa.cpp ****   unsigned long v;
  34:core/itoa.cpp ****   int sign;
  35:core/itoa.cpp ****   char *sp;
  36:core/itoa.cpp **** 
  37:core/itoa.cpp ****   if ( string == NULL )
  90              		.loc 1 37 0
  91 0012 BB68     		ldr	r3, [r7, #8]
  92 0014 002B     		cmp	r3, #0
  93 0016 01D1     		bne	.L4
  38:core/itoa.cpp ****   {
  39:core/itoa.cpp ****     return 0 ;
  94              		.loc 1 39 0
  95 0018 0023     		movs	r3, #0
  96 001a 61E0     		b	.L18
  97              	.L4:
  40:core/itoa.cpp ****   }
  41:core/itoa.cpp **** 
  42:core/itoa.cpp ****   if (radix > 36 || radix <= 1)
  98              		.loc 1 42 0
  99 001c 7B68     		ldr	r3, [r7, #4]
 100 001e 242B     		cmp	r3, #36
 101 0020 02DC     		bgt	.L6
 102              		.loc 1 42 0 is_stmt 0 discriminator 1
 103 0022 7B68     		ldr	r3, [r7, #4]
 104 0024 012B     		cmp	r3, #1
 105 0026 01DC     		bgt	.L7
 106              	.L6:
  43:core/itoa.cpp ****   {
  44:core/itoa.cpp ****     return 0 ;
 107              		.loc 1 44 0 is_stmt 1
 108 0028 0023     		movs	r3, #0
 109 002a 59E0     		b	.L18
 110              	.L7:
  45:core/itoa.cpp ****   }
  46:core/itoa.cpp **** 
  47:core/itoa.cpp ****   sign = (radix == 10 && value < 0);
 111              		.loc 1 47 0
 112 002c 7B68     		ldr	r3, [r7, #4]
 113 002e 0A2B     		cmp	r3, #10
 114 0030 04D1     		bne	.L8
 115              		.loc 1 47 0 is_stmt 0 discriminator 1
 116 0032 FB68     		ldr	r3, [r7, #12]
 117 0034 002B     		cmp	r3, #0
 118 0036 01DA     		bge	.L8
 119              		.loc 1 47 0 discriminator 3
 120 0038 0123     		movs	r3, #1
 121 003a 00E0     		b	.L9
 122              	.L8:
 123              		.loc 1 47 0 discriminator 4
 124 003c 0023     		movs	r3, #0
ARM GAS  C:\Users\Bruger\AppData\Local\Temp\cc060v0d.s 			page 4


 125              	.L9:
 126              		.loc 1 47 0 discriminator 6
 127 003e BB63     		str	r3, [r7, #56]
  48:core/itoa.cpp ****   if (sign)
 128              		.loc 1 48 0 is_stmt 1 discriminator 6
 129 0040 BB6B     		ldr	r3, [r7, #56]
 130 0042 002B     		cmp	r3, #0
 131 0044 03D0     		beq	.L10
  49:core/itoa.cpp ****   {
  50:core/itoa.cpp ****     v = -value;
 132              		.loc 1 50 0
 133 0046 FB68     		ldr	r3, [r7, #12]
 134 0048 5B42     		negs	r3, r3
 135 004a 3B64     		str	r3, [r7, #64]
 136 004c 01E0     		b	.L11
 137              	.L10:
  51:core/itoa.cpp ****   }
  52:core/itoa.cpp ****   else
  53:core/itoa.cpp ****   {
  54:core/itoa.cpp ****     v = (unsigned long)value;
 138              		.loc 1 54 0
 139 004e FB68     		ldr	r3, [r7, #12]
 140 0050 3B64     		str	r3, [r7, #64]
 141              	.L11:
  55:core/itoa.cpp ****   }
  56:core/itoa.cpp **** 
  57:core/itoa.cpp ****   while (v || tp == tmp)
 142              		.loc 1 57 0
 143 0052 20E0     		b	.L12
 144              	.L14:
  58:core/itoa.cpp ****   {
  59:core/itoa.cpp ****     i = v % radix;
 145              		.loc 1 59 0
 146 0054 7A68     		ldr	r2, [r7, #4]
 147 0056 3B6C     		ldr	r3, [r7, #64]
 148 0058 B3FBF2F1 		udiv	r1, r3, r2
 149 005c 02FB01F2 		mul	r2, r2, r1
 150 0060 9B1A     		subs	r3, r3, r2
 151 0062 7B63     		str	r3, [r7, #52]
  60:core/itoa.cpp ****     v = v / radix;
 152              		.loc 1 60 0
 153 0064 7B68     		ldr	r3, [r7, #4]
 154 0066 3A6C     		ldr	r2, [r7, #64]
 155 0068 B2FBF3F3 		udiv	r3, r2, r3
 156 006c 3B64     		str	r3, [r7, #64]
  61:core/itoa.cpp ****     if (i < 10)
 157              		.loc 1 61 0
 158 006e 7B6B     		ldr	r3, [r7, #52]
 159 0070 092B     		cmp	r3, #9
 160 0072 08DC     		bgt	.L13
  62:core/itoa.cpp ****       *tp++ = i+'0';
 161              		.loc 1 62 0
 162 0074 7B6C     		ldr	r3, [r7, #68]
 163 0076 5A1C     		adds	r2, r3, #1
 164 0078 7A64     		str	r2, [r7, #68]
 165 007a 7A6B     		ldr	r2, [r7, #52]
 166 007c D2B2     		uxtb	r2, r2
ARM GAS  C:\Users\Bruger\AppData\Local\Temp\cc060v0d.s 			page 5


 167 007e 3032     		adds	r2, r2, #48
 168 0080 D2B2     		uxtb	r2, r2
 169 0082 1A70     		strb	r2, [r3]
 170 0084 07E0     		b	.L12
 171              	.L13:
  63:core/itoa.cpp ****     else
  64:core/itoa.cpp ****       *tp++ = i + 'a' - 10;
 172              		.loc 1 64 0
 173 0086 7B6C     		ldr	r3, [r7, #68]
 174 0088 5A1C     		adds	r2, r3, #1
 175 008a 7A64     		str	r2, [r7, #68]
 176 008c 7A6B     		ldr	r2, [r7, #52]
 177 008e D2B2     		uxtb	r2, r2
 178 0090 5732     		adds	r2, r2, #87
 179 0092 D2B2     		uxtb	r2, r2
 180 0094 1A70     		strb	r2, [r3]
 181              	.L12:
  57:core/itoa.cpp ****   {
 182              		.loc 1 57 0
 183 0096 3B6C     		ldr	r3, [r7, #64]
 184 0098 002B     		cmp	r3, #0
 185 009a DBD1     		bne	.L14
  57:core/itoa.cpp ****   {
 186              		.loc 1 57 0 is_stmt 0 discriminator 1
 187 009c 07F11003 		add	r3, r7, #16
 188 00a0 7A6C     		ldr	r2, [r7, #68]
 189 00a2 9A42     		cmp	r2, r3
 190 00a4 D6D0     		beq	.L14
  65:core/itoa.cpp ****   }
  66:core/itoa.cpp **** 
  67:core/itoa.cpp ****   sp = string;
 191              		.loc 1 67 0 is_stmt 1
 192 00a6 BB68     		ldr	r3, [r7, #8]
 193 00a8 FB63     		str	r3, [r7, #60]
  68:core/itoa.cpp **** 
  69:core/itoa.cpp ****   if (sign)
 194              		.loc 1 69 0
 195 00aa BB6B     		ldr	r3, [r7, #56]
 196 00ac 002B     		cmp	r3, #0
 197 00ae 04D0     		beq	.L15
  70:core/itoa.cpp ****     *sp++ = '-';
 198              		.loc 1 70 0
 199 00b0 FB6B     		ldr	r3, [r7, #60]
 200 00b2 5A1C     		adds	r2, r3, #1
 201 00b4 FA63     		str	r2, [r7, #60]
 202 00b6 2D22     		movs	r2, #45
 203 00b8 1A70     		strb	r2, [r3]
 204              	.L15:
  71:core/itoa.cpp ****   while (tp > tmp)
 205              		.loc 1 71 0
 206 00ba 08E0     		b	.L16
 207              	.L17:
  72:core/itoa.cpp ****     *sp++ = *--tp;
 208              		.loc 1 72 0
 209 00bc FB6B     		ldr	r3, [r7, #60]
 210 00be 5A1C     		adds	r2, r3, #1
 211 00c0 FA63     		str	r2, [r7, #60]
ARM GAS  C:\Users\Bruger\AppData\Local\Temp\cc060v0d.s 			page 6


 212 00c2 7A6C     		ldr	r2, [r7, #68]
 213 00c4 013A     		subs	r2, r2, #1
 214 00c6 7A64     		str	r2, [r7, #68]
 215 00c8 7A6C     		ldr	r2, [r7, #68]
 216 00ca 1278     		ldrb	r2, [r2]	@ zero_extendqisi2
 217 00cc 1A70     		strb	r2, [r3]
 218              	.L16:
  71:core/itoa.cpp ****   while (tp > tmp)
 219              		.loc 1 71 0
 220 00ce 07F11003 		add	r3, r7, #16
 221 00d2 7A6C     		ldr	r2, [r7, #68]
 222 00d4 9A42     		cmp	r2, r3
 223 00d6 F1D8     		bhi	.L17
  73:core/itoa.cpp ****   *sp = 0;
 224              		.loc 1 73 0
 225 00d8 FB6B     		ldr	r3, [r7, #60]
 226 00da 0022     		movs	r2, #0
 227 00dc 1A70     		strb	r2, [r3]
  74:core/itoa.cpp **** 
  75:core/itoa.cpp ****   return string;
 228              		.loc 1 75 0
 229 00de BB68     		ldr	r3, [r7, #8]
 230              	.L18:
 231              	.LBE2:
  76:core/itoa.cpp **** }
 232              		.loc 1 76 0 discriminator 1
 233 00e0 1846     		mov	r0, r3
 234 00e2 4C37     		adds	r7, r7, #76
 235              		.cfi_def_cfa_offset 4
 236 00e4 BD46     		mov	sp, r7
 237              		.cfi_def_cfa_register 13
 238              		@ sp needed
 239 00e6 5DF8047B 		ldr	r7, [sp], #4
 240              		.cfi_restore 7
 241              		.cfi_def_cfa_offset 0
 242 00ea 7047     		bx	lr
 243              		.cfi_endproc
 244              	.LFE1:
 245              		.cantunwind
 246              		.fnend
 247              		.size	_Z4ltoalPci, .-_Z4ltoalPci
 248              		.section	.text._Z4utoamPci,"ax",%progbits
 249              		.align	2
 250              		.global	_Z4utoamPci
 251              		.thumb
 252              		.thumb_func
 253              		.type	_Z4utoamPci, %function
 254              	_Z4utoamPci:
 255              		.fnstart
 256              	.LFB2:
  77:core/itoa.cpp **** 
  78:core/itoa.cpp **** extern char* utoa( unsigned long value, char *string, int radix )
  79:core/itoa.cpp **** {
 257              		.loc 1 79 0
 258              		.cfi_startproc
 259              		@ args = 0, pretend = 0, frame = 16
 260              		@ frame_needed = 1, uses_anonymous_args = 0
ARM GAS  C:\Users\Bruger\AppData\Local\Temp\cc060v0d.s 			page 7


 261 0000 80B5     		push	{r7, lr}
 262              		.cfi_def_cfa_offset 8
 263              		.cfi_offset 7, -8
 264              		.cfi_offset 14, -4
 265 0002 84B0     		sub	sp, sp, #16
 266              		.cfi_def_cfa_offset 24
 267 0004 00AF     		add	r7, sp, #0
 268              		.cfi_def_cfa_register 7
 269 0006 F860     		str	r0, [r7, #12]
 270 0008 B960     		str	r1, [r7, #8]
 271 000a 7A60     		str	r2, [r7, #4]
  80:core/itoa.cpp ****   return ultoa( (unsigned long)value, string, (int)radix ) ;
 272              		.loc 1 80 0
 273 000c F868     		ldr	r0, [r7, #12]
 274 000e B968     		ldr	r1, [r7, #8]
 275 0010 7A68     		ldr	r2, [r7, #4]
 276 0012 FFF7FEFF 		bl	_Z5ultoamPci
 277 0016 0346     		mov	r3, r0
  81:core/itoa.cpp **** }
 278              		.loc 1 81 0
 279 0018 1846     		mov	r0, r3
 280 001a 1037     		adds	r7, r7, #16
 281              		.cfi_def_cfa_offset 8
 282 001c BD46     		mov	sp, r7
 283              		.cfi_def_cfa_register 13
 284              		@ sp needed
 285 001e 80BD     		pop	{r7, pc}
 286              		.cfi_endproc
 287              	.LFE2:
 288              		.cantunwind
 289              		.fnend
 290              		.size	_Z4utoamPci, .-_Z4utoamPci
 291              		.section	.text._Z5ultoamPci,"ax",%progbits
 292              		.align	2
 293              		.global	_Z5ultoamPci
 294              		.thumb
 295              		.thumb_func
 296              		.type	_Z5ultoamPci, %function
 297              	_Z5ultoamPci:
 298              		.fnstart
 299              	.LFB3:
  82:core/itoa.cpp **** 
  83:core/itoa.cpp **** extern char* ultoa( unsigned long value, char *string, int radix )
  84:core/itoa.cpp **** {
 300              		.loc 1 84 0
 301              		.cfi_startproc
 302              		@ args = 0, pretend = 0, frame = 72
 303              		@ frame_needed = 1, uses_anonymous_args = 0
 304              		@ link register save eliminated.
 305 0000 80B4     		push	{r7}
 306              		.cfi_def_cfa_offset 4
 307              		.cfi_offset 7, -4
 308 0002 93B0     		sub	sp, sp, #76
 309              		.cfi_def_cfa_offset 80
 310 0004 00AF     		add	r7, sp, #0
 311              		.cfi_def_cfa_register 7
 312 0006 F860     		str	r0, [r7, #12]
ARM GAS  C:\Users\Bruger\AppData\Local\Temp\cc060v0d.s 			page 8


 313 0008 B960     		str	r1, [r7, #8]
 314 000a 7A60     		str	r2, [r7, #4]
 315              	.LBB3:
  85:core/itoa.cpp ****   char tmp[33];
  86:core/itoa.cpp ****   char *tp = tmp;
 316              		.loc 1 86 0
 317 000c 07F11403 		add	r3, r7, #20
 318 0010 7B64     		str	r3, [r7, #68]
  87:core/itoa.cpp ****   long i;
  88:core/itoa.cpp ****   unsigned long v = value;
 319              		.loc 1 88 0
 320 0012 FB68     		ldr	r3, [r7, #12]
 321 0014 3B64     		str	r3, [r7, #64]
  89:core/itoa.cpp ****   char *sp;
  90:core/itoa.cpp **** 
  91:core/itoa.cpp ****   if ( string == NULL )
 322              		.loc 1 91 0
 323 0016 BB68     		ldr	r3, [r7, #8]
 324 0018 002B     		cmp	r3, #0
 325 001a 01D1     		bne	.L22
  92:core/itoa.cpp ****   {
  93:core/itoa.cpp ****     return 0;
 326              		.loc 1 93 0
 327 001c 0023     		movs	r3, #0
 328 001e 46E0     		b	.L31
 329              	.L22:
  94:core/itoa.cpp ****   }
  95:core/itoa.cpp **** 
  96:core/itoa.cpp ****   if (radix > 36 || radix <= 1)
 330              		.loc 1 96 0
 331 0020 7B68     		ldr	r3, [r7, #4]
 332 0022 242B     		cmp	r3, #36
 333 0024 02DC     		bgt	.L24
 334              		.loc 1 96 0 is_stmt 0 discriminator 1
 335 0026 7B68     		ldr	r3, [r7, #4]
 336 0028 012B     		cmp	r3, #1
 337 002a 01DC     		bgt	.L25
 338              	.L24:
  97:core/itoa.cpp ****   {
  98:core/itoa.cpp ****     return 0;
 339              		.loc 1 98 0 is_stmt 1
 340 002c 0023     		movs	r3, #0
 341 002e 3EE0     		b	.L31
 342              	.L25:
  99:core/itoa.cpp ****   }
 100:core/itoa.cpp ****  
 101:core/itoa.cpp ****   while (v || tp == tmp)
 343              		.loc 1 101 0
 344 0030 20E0     		b	.L26
 345              	.L28:
 102:core/itoa.cpp ****   {
 103:core/itoa.cpp ****     i = v % radix;
 346              		.loc 1 103 0
 347 0032 7A68     		ldr	r2, [r7, #4]
 348 0034 3B6C     		ldr	r3, [r7, #64]
 349 0036 B3FBF2F1 		udiv	r1, r3, r2
 350 003a 02FB01F2 		mul	r2, r2, r1
ARM GAS  C:\Users\Bruger\AppData\Local\Temp\cc060v0d.s 			page 9


 351 003e 9B1A     		subs	r3, r3, r2
 352 0040 BB63     		str	r3, [r7, #56]
 104:core/itoa.cpp ****     v = v / radix;
 353              		.loc 1 104 0
 354 0042 7B68     		ldr	r3, [r7, #4]
 355 0044 3A6C     		ldr	r2, [r7, #64]
 356 0046 B2FBF3F3 		udiv	r3, r2, r3
 357 004a 3B64     		str	r3, [r7, #64]
 105:core/itoa.cpp ****     if (i < 10)
 358              		.loc 1 105 0
 359 004c BB6B     		ldr	r3, [r7, #56]
 360 004e 092B     		cmp	r3, #9
 361 0050 08DC     		bgt	.L27
 106:core/itoa.cpp ****       *tp++ = i+'0';
 362              		.loc 1 106 0
 363 0052 7B6C     		ldr	r3, [r7, #68]
 364 0054 5A1C     		adds	r2, r3, #1
 365 0056 7A64     		str	r2, [r7, #68]
 366 0058 BA6B     		ldr	r2, [r7, #56]
 367 005a D2B2     		uxtb	r2, r2
 368 005c 3032     		adds	r2, r2, #48
 369 005e D2B2     		uxtb	r2, r2
 370 0060 1A70     		strb	r2, [r3]
 371 0062 07E0     		b	.L26
 372              	.L27:
 107:core/itoa.cpp ****     else
 108:core/itoa.cpp ****       *tp++ = i + 'a' - 10;
 373              		.loc 1 108 0
 374 0064 7B6C     		ldr	r3, [r7, #68]
 375 0066 5A1C     		adds	r2, r3, #1
 376 0068 7A64     		str	r2, [r7, #68]
 377 006a BA6B     		ldr	r2, [r7, #56]
 378 006c D2B2     		uxtb	r2, r2
 379 006e 5732     		adds	r2, r2, #87
 380 0070 D2B2     		uxtb	r2, r2
 381 0072 1A70     		strb	r2, [r3]
 382              	.L26:
 101:core/itoa.cpp ****   {
 383              		.loc 1 101 0
 384 0074 3B6C     		ldr	r3, [r7, #64]
 385 0076 002B     		cmp	r3, #0
 386 0078 DBD1     		bne	.L28
 101:core/itoa.cpp ****   {
 387              		.loc 1 101 0 is_stmt 0 discriminator 1
 388 007a 07F11403 		add	r3, r7, #20
 389 007e 7A6C     		ldr	r2, [r7, #68]
 390 0080 9A42     		cmp	r2, r3
 391 0082 D6D0     		beq	.L28
 109:core/itoa.cpp ****   }
 110:core/itoa.cpp **** 
 111:core/itoa.cpp ****   sp = string;
 392              		.loc 1 111 0 is_stmt 1
 393 0084 BB68     		ldr	r3, [r7, #8]
 394 0086 FB63     		str	r3, [r7, #60]
 112:core/itoa.cpp **** 
 113:core/itoa.cpp ****  
 114:core/itoa.cpp ****   while (tp > tmp)
ARM GAS  C:\Users\Bruger\AppData\Local\Temp\cc060v0d.s 			page 10


 395              		.loc 1 114 0
 396 0088 08E0     		b	.L29
 397              	.L30:
 115:core/itoa.cpp ****     *sp++ = *--tp;
 398              		.loc 1 115 0
 399 008a FB6B     		ldr	r3, [r7, #60]
 400 008c 5A1C     		adds	r2, r3, #1
 401 008e FA63     		str	r2, [r7, #60]
 402 0090 7A6C     		ldr	r2, [r7, #68]
 403 0092 013A     		subs	r2, r2, #1
 404 0094 7A64     		str	r2, [r7, #68]
 405 0096 7A6C     		ldr	r2, [r7, #68]
 406 0098 1278     		ldrb	r2, [r2]	@ zero_extendqisi2
 407 009a 1A70     		strb	r2, [r3]
 408              	.L29:
 114:core/itoa.cpp ****     *sp++ = *--tp;
 409              		.loc 1 114 0
 410 009c 07F11403 		add	r3, r7, #20
 411 00a0 7A6C     		ldr	r2, [r7, #68]
 412 00a2 9A42     		cmp	r2, r3
 413 00a4 F1D8     		bhi	.L30
 116:core/itoa.cpp ****   *sp = 0;
 414              		.loc 1 116 0
 415 00a6 FB6B     		ldr	r3, [r7, #60]
 416 00a8 0022     		movs	r2, #0
 417 00aa 1A70     		strb	r2, [r3]
 117:core/itoa.cpp **** 
 118:core/itoa.cpp ****   return string;
 418              		.loc 1 118 0
 419 00ac BB68     		ldr	r3, [r7, #8]
 420              	.L31:
 421              	.LBE3:
 119:core/itoa.cpp **** }
 422              		.loc 1 119 0 discriminator 1
 423 00ae 1846     		mov	r0, r3
 424 00b0 4C37     		adds	r7, r7, #76
 425              		.cfi_def_cfa_offset 4
 426 00b2 BD46     		mov	sp, r7
 427              		.cfi_def_cfa_register 13
 428              		@ sp needed
 429 00b4 5DF8047B 		ldr	r7, [sp], #4
 430              		.cfi_restore 7
 431              		.cfi_def_cfa_offset 0
 432 00b8 7047     		bx	lr
 433              		.cfi_endproc
 434              	.LFE3:
 435              		.cantunwind
 436              		.fnend
 437              		.size	_Z5ultoamPci, .-_Z5ultoamPci
 438 00ba 00BF     		.text
 439              	.Letext0: