ARM GAS  C:\Users\Bruger\AppData\Local\Temp\ccTYSziv.s 			page 1


   1              		.syntax unified
   2              		.cpu cortex-m3
   3              		.fpu softvfp
   4              		.eabi_attribute 20, 1
   5              		.eabi_attribute 21, 1
   6              		.eabi_attribute 23, 3
   7              		.eabi_attribute 24, 1
   8              		.eabi_attribute 25, 1
   9              		.eabi_attribute 26, 1
  10              		.eabi_attribute 30, 6
  11              		.eabi_attribute 34, 1
  12              		.eabi_attribute 18, 4
  13              		.thumb
  14              		.file	"main.cpp"
  15              		.text
  16              	.Ltext0:
  17              		.cfi_sections	.debug_frame
  18              		.section	.text._ZN5PrintD2Ev,"axG",%progbits,_ZN5PrintD5Ev,comdat
  19              		.align	2
  20              		.weak	_ZN5PrintD2Ev
  21              		.thumb
  22              		.thumb_func
  23              		.type	_ZN5PrintD2Ev, %function
  24              	_ZN5PrintD2Ev:
  25              		.fnstart
  26              	.LFB119:
  27              		.file 1 "core\\Print.h"
   1:core/Print.h  **** /*
   2:core/Print.h  ****   Print.h - Base class that provides print() and println()
   3:core/Print.h  ****   Copyright (c) 2008 David A. Mellis.  All right reserved.
   4:core/Print.h  **** 
   5:core/Print.h  ****   This library is free software; you can redistribute it and/or
   6:core/Print.h  ****   modify it under the terms of the GNU Lesser General Public
   7:core/Print.h  ****   License as published by the Free Software Foundation; either
   8:core/Print.h  ****   version 2.1 of the License, or (at your option) any later version.
   9:core/Print.h  **** 
  10:core/Print.h  ****   This library is distributed in the hope that it will be useful,
  11:core/Print.h  ****   but WITHOUT ANY WARRANTY; without even the implied warranty of
  12:core/Print.h  ****   MERCHANTABILITY or FITNESS FOR A PARTICULAR PURPOSE.  See the GNU
  13:core/Print.h  ****   Lesser General Public License for more details.
  14:core/Print.h  **** 
  15:core/Print.h  ****   You should have received a copy of the GNU Lesser General Public
  16:core/Print.h  ****   License along with this library; if not, write to the Free Software
  17:core/Print.h  ****   Foundation, Inc., 51 Franklin St, Fifth Floor, Boston, MA  02110-1301  USA
  18:core/Print.h  **** */
  19:core/Print.h  **** 
  20:core/Print.h  **** #ifndef Print_h
  21:core/Print.h  **** #define Print_h
  22:core/Print.h  **** 
  23:core/Print.h  **** #include <inttypes.h>
  24:core/Print.h  **** #include <stdio.h> // for size_t
  25:core/Print.h  **** 
  26:core/Print.h  **** #include "WString.h"
  27:core/Print.h  **** #include "Printable.h"
  28:core/Print.h  **** 
  29:core/Print.h  **** #define DEC 10
  30:core/Print.h  **** #define HEX 16
ARM GAS  C:\Users\Bruger\AppData\Local\Temp\ccTYSziv.s 			page 2


  31:core/Print.h  **** #define OCT 8
  32:core/Print.h  **** #define BIN 2
  33:core/Print.h  **** 
  34:core/Print.h  **** class Print
  35:core/Print.h  **** {
  36:core/Print.h  ****   private:
  37:core/Print.h  ****     int write_error;
  38:core/Print.h  ****     size_t printNumber(unsigned long, uint8_t);
  39:core/Print.h  ****     size_t printFloat(double, uint8_t);
  40:core/Print.h  ****   protected:
  41:core/Print.h  ****     void setWriteError(int err = 1) { write_error = err; }
  42:core/Print.h  ****   public:
  43:core/Print.h  ****     Print() : write_error(0) {}
  44:core/Print.h  ****     ~Print(){}
  28              		.loc 1 44 0
  29              		.cfi_startproc
  30              		@ args = 0, pretend = 0, frame = 8
  31              		@ frame_needed = 1, uses_anonymous_args = 0
  32              		@ link register save eliminated.
  33 0000 80B4     		push	{r7}
  34              		.cfi_def_cfa_offset 4
  35              		.cfi_offset 7, -4
  36 0002 83B0     		sub	sp, sp, #12
  37              		.cfi_def_cfa_offset 16
  38 0004 00AF     		add	r7, sp, #0
  39              		.cfi_def_cfa_register 7
  40 0006 7860     		str	r0, [r7, #4]
  41              	.LBB2:
  42              		.loc 1 44 0
  43 0008 7B68     		ldr	r3, [r7, #4]
  44 000a 044A     		ldr	r2, .L4
  45 000c 1A60     		str	r2, [r3]
  46              	.LBE2:
  47 000e 7B68     		ldr	r3, [r7, #4]
  48 0010 1846     		mov	r0, r3
  49 0012 0C37     		adds	r7, r7, #12
  50              		.cfi_def_cfa_offset 4
  51 0014 BD46     		mov	sp, r7
  52              		.cfi_def_cfa_register 13
  53              		@ sp needed
  54 0016 5DF8047B 		ldr	r7, [sp], #4
  55              		.cfi_restore 7
  56              		.cfi_def_cfa_offset 0
  57 001a 7047     		bx	lr
  58              	.L5:
  59              		.align	2
  60              	.L4:
  61 001c 08000000 		.word	_ZTV5Print+8
  62              		.cfi_endproc
  63              	.LFE119:
  64              		.cantunwind
  65              		.fnend
  66              		.size	_ZN5PrintD2Ev, .-_ZN5PrintD2Ev
  67              		.weak	_ZN5PrintD1Ev
  68              		.thumb_set _ZN5PrintD1Ev,_ZN5PrintD2Ev
  69              		.section	.text._ZN6StreamD2Ev,"axG",%progbits,_ZN6StreamD5Ev,comdat
  70              		.align	2
ARM GAS  C:\Users\Bruger\AppData\Local\Temp\ccTYSziv.s 			page 3


  71              		.weak	_ZN6StreamD2Ev
  72              		.thumb
  73              		.thumb_func
  74              		.type	_ZN6StreamD2Ev, %function
  75              	_ZN6StreamD2Ev:
  76              		.fnstart
  77              	.LFB126:
  78              		.file 2 "core\\Stream.h"
   1:core/Stream.h **** /*
   2:core/Stream.h ****   Stream.h - base class for character-based streams.
   3:core/Stream.h ****   Copyright (c) 2010 David A. Mellis.  All right reserved.
   4:core/Stream.h **** 
   5:core/Stream.h ****   This library is free software; you can redistribute it and/or
   6:core/Stream.h ****   modify it under the terms of the GNU Lesser General Public
   7:core/Stream.h ****   License as published by the Free Software Foundation; either
   8:core/Stream.h ****   version 2.1 of the License, or (at your option) any later version.
   9:core/Stream.h **** 
  10:core/Stream.h ****   This library is distributed in the hope that it will be useful,
  11:core/Stream.h ****   but WITHOUT ANY WARRANTY; without even the implied warranty of
  12:core/Stream.h ****   MERCHANTABILITY or FITNESS FOR A PARTICULAR PURPOSE.  See the GNU
  13:core/Stream.h ****   Lesser General Public License for more details.
  14:core/Stream.h **** 
  15:core/Stream.h ****   You should have received a copy of the GNU Lesser General Public
  16:core/Stream.h ****   License along with this library; if not, write to the Free Software
  17:core/Stream.h ****   Foundation, Inc., 51 Franklin St, Fifth Floor, Boston, MA  02110-1301  USA
  18:core/Stream.h **** 
  19:core/Stream.h ****   parsing functions based on TextFinder library by Michael Margolis
  20:core/Stream.h **** */
  21:core/Stream.h **** 
  22:core/Stream.h **** #ifndef Stream_h
  23:core/Stream.h **** #define Stream_h
  24:core/Stream.h **** 
  25:core/Stream.h **** #include <inttypes.h>
  26:core/Stream.h **** #include "Print.h"
  27:core/Stream.h **** 
  28:core/Stream.h **** // compatability macros for testing
  29:core/Stream.h **** /*
  30:core/Stream.h **** #define   getInt()            parseInt()
  31:core/Stream.h **** #define   getInt(skipChar)    parseInt(skipchar)
  32:core/Stream.h **** #define   getFloat()          parseFloat()
  33:core/Stream.h **** #define   getFloat(skipChar)  parseFloat(skipChar)
  34:core/Stream.h **** #define   getString( pre_string, post_string, buffer, length)
  35:core/Stream.h **** readBytesBetween( pre_string, terminator, buffer, length)
  36:core/Stream.h **** */
  37:core/Stream.h **** 
  38:core/Stream.h **** class Stream : public Print
  39:core/Stream.h **** {
  40:core/Stream.h ****   protected:
  41:core/Stream.h ****     unsigned long _timeout;      // number of milliseconds to wait for the next char before abortin
  42:core/Stream.h ****     unsigned long _startMillis;  // used for timeout measurement
  43:core/Stream.h ****     int timedRead();    // private method to read stream with timeout
  44:core/Stream.h ****     int timedPeek();    // private method to peek stream with timeout
  45:core/Stream.h ****     int peekNextDigit(); // returns the next numeric digit in the stream or -1 if timeout
  46:core/Stream.h **** 
  47:core/Stream.h ****   public:
  48:core/Stream.h ****     ~Stream(){}
  79              		.loc 2 48 0
ARM GAS  C:\Users\Bruger\AppData\Local\Temp\ccTYSziv.s 			page 4


  80              		.cfi_startproc
  81              		@ args = 0, pretend = 0, frame = 8
  82              		@ frame_needed = 1, uses_anonymous_args = 0
  83 0000 80B5     		push	{r7, lr}
  84              		.cfi_def_cfa_offset 8
  85              		.cfi_offset 7, -8
  86              		.cfi_offset 14, -4
  87 0002 82B0     		sub	sp, sp, #8
  88              		.cfi_def_cfa_offset 16
  89 0004 00AF     		add	r7, sp, #0
  90              		.cfi_def_cfa_register 7
  91 0006 7860     		str	r0, [r7, #4]
  92              	.LBB3:
  93              		.loc 2 48 0
  94 0008 7B68     		ldr	r3, [r7, #4]
  95 000a 054A     		ldr	r2, .L9
  96 000c 1A60     		str	r2, [r3]
  97 000e 7B68     		ldr	r3, [r7, #4]
  98 0010 1846     		mov	r0, r3
  99 0012 FFF7FEFF 		bl	_ZN5PrintD2Ev
 100              	.LBE3:
 101 0016 7B68     		ldr	r3, [r7, #4]
 102 0018 1846     		mov	r0, r3
 103 001a 0837     		adds	r7, r7, #8
 104              		.cfi_def_cfa_offset 8
 105 001c BD46     		mov	sp, r7
 106              		.cfi_def_cfa_register 13
 107              		@ sp needed
 108 001e 80BD     		pop	{r7, pc}
 109              	.L10:
 110              		.align	2
 111              	.L9:
 112 0020 08000000 		.word	_ZTV6Stream+8
 113              		.cfi_endproc
 114              	.LFE126:
 115              		.cantunwind
 116              		.fnend
 117              		.size	_ZN6StreamD2Ev, .-_ZN6StreamD2Ev
 118              		.weak	_ZN6StreamD1Ev
 119              		.thumb_set _ZN6StreamD1Ev,_ZN6StreamD2Ev
 120              		.section	.text._ZN14HardwareSerialD2Ev,"axG",%progbits,_ZN14HardwareSerialD5Ev,comdat
 121              		.align	2
 122              		.weak	_ZN14HardwareSerialD2Ev
 123              		.thumb
 124              		.thumb_func
 125              		.type	_ZN14HardwareSerialD2Ev, %function
 126              	_ZN14HardwareSerialD2Ev:
 127              		.fnstart
 128              	.LFB141:
 129              		.file 3 "core\\HardwareSerial.h"
   1:core/HardwareSerial.h **** /*
   2:core/HardwareSerial.h ****   Copyright (c) 2011 Arduino.  All right reserved.
   3:core/HardwareSerial.h **** 
   4:core/HardwareSerial.h ****   This library is free software; you can redistribute it and/or
   5:core/HardwareSerial.h ****   modify it under the terms of the GNU Lesser General Public
   6:core/HardwareSerial.h ****   License as published by the Free Software Foundation; either
   7:core/HardwareSerial.h ****   version 2.1 of the License, or (at your option) any later version.
ARM GAS  C:\Users\Bruger\AppData\Local\Temp\ccTYSziv.s 			page 5


   8:core/HardwareSerial.h **** 
   9:core/HardwareSerial.h ****   This library is distributed in the hope that it will be useful,
  10:core/HardwareSerial.h ****   but WITHOUT ANY WARRANTY; without even the implied warranty of
  11:core/HardwareSerial.h ****   MERCHANTABILITY or FITNESS FOR A PARTICULAR PURPOSE. 
  12:core/HardwareSerial.h ****   See the GNU Lesser General Public License for more details.
  13:core/HardwareSerial.h **** 
  14:core/HardwareSerial.h ****   You should have received a copy of the GNU Lesser General Public
  15:core/HardwareSerial.h ****   License along with this library; if not, write to the Free Software
  16:core/HardwareSerial.h ****   Foundation, Inc., 51 Franklin St, Fifth Floor, Boston, MA  02110-1301  USA
  17:core/HardwareSerial.h **** */
  18:core/HardwareSerial.h **** 
  19:core/HardwareSerial.h **** #ifndef HardwareSerial_h
  20:core/HardwareSerial.h **** #define HardwareSerial_h
  21:core/HardwareSerial.h **** 
  22:core/HardwareSerial.h **** #include <inttypes.h>
  23:core/HardwareSerial.h **** 
  24:core/HardwareSerial.h **** #include "Stream.h"
  25:core/HardwareSerial.h **** 
  26:core/HardwareSerial.h **** class HardwareSerial : public Stream
  27:core/HardwareSerial.h **** {
  28:core/HardwareSerial.h ****   public:
  29:core/HardwareSerial.h ****     HardwareSerial(){}
  30:core/HardwareSerial.h ****     ~HardwareSerial(){}
 130              		.loc 3 30 0
 131              		.cfi_startproc
 132              		@ args = 0, pretend = 0, frame = 8
 133              		@ frame_needed = 1, uses_anonymous_args = 0
 134 0000 80B5     		push	{r7, lr}
 135              		.cfi_def_cfa_offset 8
 136              		.cfi_offset 7, -8
 137              		.cfi_offset 14, -4
 138 0002 82B0     		sub	sp, sp, #8
 139              		.cfi_def_cfa_offset 16
 140 0004 00AF     		add	r7, sp, #0
 141              		.cfi_def_cfa_register 7
 142 0006 7860     		str	r0, [r7, #4]
 143              	.LBB4:
 144              		.loc 3 30 0
 145 0008 7B68     		ldr	r3, [r7, #4]
 146 000a 054A     		ldr	r2, .L14
 147 000c 1A60     		str	r2, [r3]
 148 000e 7B68     		ldr	r3, [r7, #4]
 149 0010 1846     		mov	r0, r3
 150 0012 FFF7FEFF 		bl	_ZN6StreamD2Ev
 151              	.LBE4:
 152 0016 7B68     		ldr	r3, [r7, #4]
 153 0018 1846     		mov	r0, r3
 154 001a 0837     		adds	r7, r7, #8
 155              		.cfi_def_cfa_offset 8
 156 001c BD46     		mov	sp, r7
 157              		.cfi_def_cfa_register 13
 158              		@ sp needed
 159 001e 80BD     		pop	{r7, pc}
 160              	.L15:
 161              		.align	2
 162              	.L14:
 163 0020 08000000 		.word	_ZTV14HardwareSerial+8
ARM GAS  C:\Users\Bruger\AppData\Local\Temp\ccTYSziv.s 			page 6


 164              		.cfi_endproc
 165              	.LFE141:
 166              		.cantunwind
 167              		.fnend
 168              		.size	_ZN14HardwareSerialD2Ev, .-_ZN14HardwareSerialD2Ev
 169              		.weak	_ZN14HardwareSerialD1Ev
 170              		.thumb_set _ZN14HardwareSerialD1Ev,_ZN14HardwareSerialD2Ev
 171              		.section	.text._ZN9UARTClassD2Ev,"axG",%progbits,_ZN9UARTClassD5Ev,comdat
 172              		.align	2
 173              		.weak	_ZN9UARTClassD2Ev
 174              		.thumb
 175              		.thumb_func
 176              		.type	_ZN9UARTClassD2Ev, %function
 177              	_ZN9UARTClassD2Ev:
 178              		.fnstart
 179              	.LFB144:
 180              		.file 4 "core\\UARTClass.h"
   1:core/UARTClass.h **** /*
   2:core/UARTClass.h ****   Copyright (c) 2011 Arduino.  All right reserved.
   3:core/UARTClass.h **** 
   4:core/UARTClass.h ****   This library is free software; you can redistribute it and/or
   5:core/UARTClass.h ****   modify it under the terms of the GNU Lesser General Public
   6:core/UARTClass.h ****   License as published by the Free Software Foundation; either
   7:core/UARTClass.h ****   version 2.1 of the License, or (at your option) any later version.
   8:core/UARTClass.h **** 
   9:core/UARTClass.h ****   This library is distributed in the hope that it will be useful,
  10:core/UARTClass.h ****   but WITHOUT ANY WARRANTY; without even the implied warranty of
  11:core/UARTClass.h ****   MERCHANTABILITY or FITNESS FOR A PARTICULAR PURPOSE. 
  12:core/UARTClass.h ****   See the GNU Lesser General Public License for more details.
  13:core/UARTClass.h **** 
  14:core/UARTClass.h ****   You should have received a copy of the GNU Lesser General Public
  15:core/UARTClass.h ****   License along with this library; if not, write to the Free Software
  16:core/UARTClass.h ****   Foundation, Inc., 51 Franklin St, Fifth Floor, Boston, MA  02110-1301  USA
  17:core/UARTClass.h **** */
  18:core/UARTClass.h **** 
  19:core/UARTClass.h **** #ifndef _UART_CLASS_
  20:core/UARTClass.h **** #define _UART_CLASS_
  21:core/UARTClass.h **** 
  22:core/UARTClass.h **** #include "HardwareSerial.h"
  23:core/UARTClass.h **** #include <stdbool.h>
  24:core/UARTClass.h **** #include <Project.h>
  25:core/UARTClass.h **** 
  26:core/UARTClass.h **** struct SerialHelperFuncs
  27:core/UARTClass.h **** {
  28:core/UARTClass.h ****   int16_t (*bufferSize)(void);
  29:core/UARTClass.h ****   bool (*portEnable)(void);
  30:core/UARTClass.h ****   void (*portDisable)(void);
  31:core/UARTClass.h ****   void (*clockAdjust)(uint16_t newDivider);
  32:core/UARTClass.h ****   void (*sendData)(const uint8_t* buffer, uint16_t size);
  33:core/UARTClass.h ****   uint16_t (*getData)(uint8_t* buffer, uint16_t size);
  34:core/UARTClass.h ****   char (*peekData)(void);
  35:core/UARTClass.h ****   void (*blockForWriteComplete)(void);
  36:core/UARTClass.h ****   uint8_t (*blockForReadyToWrite)(void);
  37:core/UARTClass.h **** };
  38:core/UARTClass.h ****   
  39:core/UARTClass.h **** 
  40:core/UARTClass.h **** class UARTClass : public HardwareSerial
ARM GAS  C:\Users\Bruger\AppData\Local\Temp\ccTYSziv.s 			page 7


  41:core/UARTClass.h **** {
  42:core/UARTClass.h ****   public:
  43:core/UARTClass.h ****     UARTClass(bool isUSB, SerialHelperFuncs *helpers);
  44:core/UARTClass.h ****     ~UARTClass(){}
 181              		.loc 4 44 0
 182              		.cfi_startproc
 183              		@ args = 0, pretend = 0, frame = 8
 184              		@ frame_needed = 1, uses_anonymous_args = 0
 185 0000 80B5     		push	{r7, lr}
 186              		.cfi_def_cfa_offset 8
 187              		.cfi_offset 7, -8
 188              		.cfi_offset 14, -4
 189 0002 82B0     		sub	sp, sp, #8
 190              		.cfi_def_cfa_offset 16
 191 0004 00AF     		add	r7, sp, #0
 192              		.cfi_def_cfa_register 7
 193 0006 7860     		str	r0, [r7, #4]
 194              	.LBB5:
 195              		.loc 4 44 0
 196 0008 7B68     		ldr	r3, [r7, #4]
 197 000a 054A     		ldr	r2, .L19
 198 000c 1A60     		str	r2, [r3]
 199 000e 7B68     		ldr	r3, [r7, #4]
 200 0010 1846     		mov	r0, r3
 201 0012 FFF7FEFF 		bl	_ZN14HardwareSerialD2Ev
 202              	.LBE5:
 203 0016 7B68     		ldr	r3, [r7, #4]
 204 0018 1846     		mov	r0, r3
 205 001a 0837     		adds	r7, r7, #8
 206              		.cfi_def_cfa_offset 8
 207 001c BD46     		mov	sp, r7
 208              		.cfi_def_cfa_register 13
 209              		@ sp needed
 210 001e 80BD     		pop	{r7, pc}
 211              	.L20:
 212              		.align	2
 213              	.L19:
 214 0020 08000000 		.word	_ZTV9UARTClass+8
 215              		.cfi_endproc
 216              	.LFE144:
 217              		.cantunwind
 218              		.fnend
 219              		.size	_ZN9UARTClassD2Ev, .-_ZN9UARTClassD2Ev
 220              		.weak	_ZN9UARTClassD1Ev
 221              		.thumb_set _ZN9UARTClassD1Ev,_ZN9UARTClassD2Ev
 222              		.global	USBUART_Helpers
 223              		.bss
 224              		.align	2
 225              		.type	USBUART_Helpers, %object
 226              		.size	USBUART_Helpers, 36
 227              	USBUART_Helpers:
 228 0000 00000000 		.space	36
 228      00000000 
 228      00000000 
 228      00000000 
 228      00000000 
 229              		.global	UART_Helpers
ARM GAS  C:\Users\Bruger\AppData\Local\Temp\ccTYSziv.s 			page 8


 230              		.align	2
 231              		.type	UART_Helpers, %object
 232              		.size	UART_Helpers, 36
 233              	UART_Helpers:
 234 0024 00000000 		.space	36
 234      00000000 
 234      00000000 
 234      00000000 
 234      00000000 
 235              		.global	Serial
 236              		.align	2
 237              		.type	Serial, %object
 238              		.size	Serial, 100
 239              	Serial:
 240 0048 00000000 		.space	100
 240      00000000 
 240      00000000 
 240      00000000 
 240      00000000 
 241              		.global	Serial1
 242              		.align	2
 243              		.type	Serial1, %object
 244              		.size	Serial1, 100
 245              	Serial1:
 246 00ac 00000000 		.space	100
 246      00000000 
 246      00000000 
 246      00000000 
 246      00000000 
 247              		.section	.text.main,"ax",%progbits
 248              		.align	2
 249              		.global	main
 250              		.thumb
 251              		.thumb_func
 252              		.type	main, %function
 253              	main:
 254              		.fnstart
 255              	.LFB147:
 256              		.file 5 "core\\main.cpp"
   1:core/main.cpp **** extern "C" {
   2:core/main.cpp **** #include <project.h>
   3:core/main.cpp **** }
   4:core/main.cpp **** 
   5:core/main.cpp **** #include "Arduino.h"
   6:core/main.cpp **** 
   7:core/main.cpp **** //#define I2C      0
   8:core/main.cpp **** //#define ANALOG   1
   9:core/main.cpp **** //#define DIGITAL  2
  10:core/main.cpp **** 
  11:core/main.cpp **** struct SerialHelperFuncs USBUART_Helpers;
  12:core/main.cpp **** struct SerialHelperFuncs UART_Helpers;
  13:core/main.cpp **** UARTClass Serial(true, &USBUART_Helpers);
  14:core/main.cpp **** UARTClass Serial1(false, &UART_Helpers);
  15:core/main.cpp **** 
  16:core/main.cpp **** int main()
  17:core/main.cpp **** {
 257              		.loc 5 17 0
ARM GAS  C:\Users\Bruger\AppData\Local\Temp\ccTYSziv.s 			page 9


 258              		.cfi_startproc
 259              		@ args = 0, pretend = 0, frame = 0
 260              		@ frame_needed = 1, uses_anonymous_args = 0
 261 0000 80B5     		push	{r7, lr}
 262              		.save {r7, lr}
 263              		.cfi_def_cfa_offset 8
 264              		.cfi_offset 7, -8
 265              		.cfi_offset 14, -4
 266              		.setfp r7, sp, #0
 267 0002 00AF     		add	r7, sp, #0
 268              		.cfi_def_cfa_register 7
  18:core/main.cpp ****     
  19:core/main.cpp ****   CyGlobalIntEnable;  
 269              		.loc 5 19 0
 270              	@ 19 "core\main.cpp" 1
 271 0004 62B6     		CPSIE   i
 272              	@ 0 "" 2
  20:core/main.cpp ****   Bootloader_SET_RUN_TYPE(Bootloader_SCHEDULE_BTLDB);
 273              		.loc 5 20 0
 274              		.thumb
 275 0006 084B     		ldr	r3, .L23
 276 0008 8022     		movs	r2, #128
 277 000a 1A70     		strb	r2, [r3]
  21:core/main.cpp ****   USBUART_FunctionAttach();
 278              		.loc 5 21 0
 279 000c FFF7FEFF 		bl	_Z22USBUART_FunctionAttachv
  22:core/main.cpp ****   enableUSBCDC();
 280              		.loc 5 22 0
 281 0010 FFF7FEFF 		bl	_Z12enableUSBCDCv
  23:core/main.cpp ****   UART_FunctionAttach();
 282              		.loc 5 23 0
 283 0014 FFF7FEFF 		bl	_Z19UART_FunctionAttachv
  24:core/main.cpp ****   initTimebase();
 284              		.loc 5 24 0
 285 0018 FFF7FEFF 		bl	_Z12initTimebasev
  25:core/main.cpp ****   
  26:core/main.cpp ****   setup();
 286              		.loc 5 26 0
 287 001c FFF7FEFF 		bl	_Z5setupv
 288              	.L22:
  27:core/main.cpp ****     
  28:core/main.cpp ****   for(;;)
  29:core/main.cpp ****   {
  30:core/main.cpp ****     loop();    
 289              		.loc 5 30 0 discriminator 1
 290 0020 FFF7FEFF 		bl	_Z4loopv
  16:core/main.cpp **** {
 291              		.loc 5 16 0 discriminator 1
 292 0024 FCE7     		b	.L22
 293              	.L24:
 294 0026 00BF     		.align	2
 295              	.L23:
 296 0028 FA460040 		.word	1073759994
 297              		.cfi_endproc
 298              	.LFE147:
 299              		.fnend
 300              		.size	main, .-main
ARM GAS  C:\Users\Bruger\AppData\Local\Temp\ccTYSziv.s 			page 10


 301              		.weak	_ZTV14HardwareSerial
 302              		.section	.rodata._ZTV14HardwareSerial,"aG",%progbits,_ZTV14HardwareSerial,comdat
 303              		.align	3
 304              		.type	_ZTV14HardwareSerial, %object
 305              		.size	_ZTV14HardwareSerial, 44
 306              	_ZTV14HardwareSerial:
 307 0000 00000000 		.word	0
 308 0004 00000000 		.word	_ZTI14HardwareSerial
 309 0008 00000000 		.word	__cxa_pure_virtual
 310 000c 00000000 		.word	_ZN5Print5writeEPKhj
 311 0010 00000000 		.word	__cxa_pure_virtual
 312 0014 00000000 		.word	__cxa_pure_virtual
 313 0018 00000000 		.word	__cxa_pure_virtual
 314 001c 00000000 		.word	__cxa_pure_virtual
 315 0020 00000000 		.word	__cxa_pure_virtual
 316 0024 00000000 		.word	__cxa_pure_virtual
 317 0028 00000000 		.word	__cxa_pure_virtual
 318              		.weak	_ZTV6Stream
 319 002c 00000000 		.section	.rodata._ZTV6Stream,"aG",%progbits,_ZTV6Stream,comdat
 320              		.align	3
 321              		.type	_ZTV6Stream, %object
 322              		.size	_ZTV6Stream, 32
 323              	_ZTV6Stream:
 324 0000 00000000 		.word	0
 325 0004 00000000 		.word	_ZTI6Stream
 326 0008 00000000 		.word	__cxa_pure_virtual
 327 000c 00000000 		.word	_ZN5Print5writeEPKhj
 328 0010 00000000 		.word	__cxa_pure_virtual
 329 0014 00000000 		.word	__cxa_pure_virtual
 330 0018 00000000 		.word	__cxa_pure_virtual
 331 001c 00000000 		.word	__cxa_pure_virtual
 332              		.weak	_ZTS14HardwareSerial
 333              		.section	.rodata._ZTS14HardwareSerial,"aG",%progbits,_ZTS14HardwareSerial,comdat
 334              		.align	2
 335              		.type	_ZTS14HardwareSerial, %object
 336              		.size	_ZTS14HardwareSerial, 17
 337              	_ZTS14HardwareSerial:
 338 0000 31344861 		.ascii	"14HardwareSerial\000"
 338      72647761 
 338      72655365 
 338      7269616C 
 338      00
 339              		.weak	_ZTI14HardwareSerial
 340 0011 000000   		.section	.rodata._ZTI14HardwareSerial,"aG",%progbits,_ZTI14HardwareSerial,comdat
 341              		.align	2
 342              		.type	_ZTI14HardwareSerial, %object
 343              		.size	_ZTI14HardwareSerial, 12
 344              	_ZTI14HardwareSerial:
 345 0000 08000000 		.word	_ZTVN10__cxxabiv120__si_class_type_infoE+8
 346 0004 00000000 		.word	_ZTS14HardwareSerial
 347 0008 00000000 		.word	_ZTI6Stream
 348              		.weak	_ZTS6Stream
 349              		.section	.rodata._ZTS6Stream,"aG",%progbits,_ZTS6Stream,comdat
 350              		.align	2
 351              		.type	_ZTS6Stream, %object
 352              		.size	_ZTS6Stream, 8
 353              	_ZTS6Stream:
ARM GAS  C:\Users\Bruger\AppData\Local\Temp\ccTYSziv.s 			page 11


 354 0000 36537472 		.ascii	"6Stream\000"
 354      65616D00 
 355              		.weak	_ZTI6Stream
 356              		.section	.rodata._ZTI6Stream,"aG",%progbits,_ZTI6Stream,comdat
 357              		.align	2
 358              		.type	_ZTI6Stream, %object
 359              		.size	_ZTI6Stream, 12
 360              	_ZTI6Stream:
 361 0000 08000000 		.word	_ZTVN10__cxxabiv120__si_class_type_infoE+8
 362 0004 00000000 		.word	_ZTS6Stream
 363 0008 00000000 		.word	_ZTI5Print
 364              		.section	.text._Z41__static_initialization_and_destruction_0ii,"ax",%progbits
 365              		.align	2
 366              		.thumb
 367              		.thumb_func
 368              		.type	_Z41__static_initialization_and_destruction_0ii, %function
 369              	_Z41__static_initialization_and_destruction_0ii:
 370              		.fnstart
 371              	.LFB148:
  31:core/main.cpp ****   }
  32:core/main.cpp **** }
 372              		.loc 5 32 0
 373              		.cfi_startproc
 374              		@ args = 0, pretend = 0, frame = 8
 375              		@ frame_needed = 1, uses_anonymous_args = 0
 376 0000 80B5     		push	{r7, lr}
 377              		.cfi_def_cfa_offset 8
 378              		.cfi_offset 7, -8
 379              		.cfi_offset 14, -4
 380 0002 82B0     		sub	sp, sp, #8
 381              		.cfi_def_cfa_offset 16
 382 0004 00AF     		add	r7, sp, #0
 383              		.cfi_def_cfa_register 7
 384 0006 7860     		str	r0, [r7, #4]
 385 0008 3960     		str	r1, [r7]
 386              		.loc 5 32 0
 387 000a 7B68     		ldr	r3, [r7, #4]
 388 000c 012B     		cmp	r3, #1
 389 000e 18D1     		bne	.L25
 390              		.loc 5 32 0 is_stmt 0 discriminator 1
 391 0010 3B68     		ldr	r3, [r7]
 392 0012 4FF6FF72 		movw	r2, #65535
 393 0016 9342     		cmp	r3, r2
 394 0018 13D1     		bne	.L25
  13:core/main.cpp **** UARTClass Serial1(false, &UART_Helpers);
 395              		.loc 5 13 0 is_stmt 1
 396 001a 0B48     		ldr	r0, .L27
 397 001c 0121     		movs	r1, #1
 398 001e 0B4A     		ldr	r2, .L27+4
 399 0020 FFF7FEFF 		bl	_ZN9UARTClassC1EbP17SerialHelperFuncs
 400 0024 0848     		ldr	r0, .L27
 401 0026 0A49     		ldr	r1, .L27+8
 402 0028 0A4A     		ldr	r2, .L27+12
 403 002a FFF7FEFF 		bl	__aeabi_atexit
  14:core/main.cpp **** 
 404              		.loc 5 14 0
 405 002e 0A48     		ldr	r0, .L27+16
ARM GAS  C:\Users\Bruger\AppData\Local\Temp\ccTYSziv.s 			page 12


 406 0030 0021     		movs	r1, #0
 407 0032 0A4A     		ldr	r2, .L27+20
 408 0034 FFF7FEFF 		bl	_ZN9UARTClassC1EbP17SerialHelperFuncs
 409 0038 0748     		ldr	r0, .L27+16
 410 003a 0549     		ldr	r1, .L27+8
 411 003c 054A     		ldr	r2, .L27+12
 412 003e FFF7FEFF 		bl	__aeabi_atexit
 413              	.L25:
 414              		.loc 5 32 0
 415 0042 0837     		adds	r7, r7, #8
 416              		.cfi_def_cfa_offset 8
 417 0044 BD46     		mov	sp, r7
 418              		.cfi_def_cfa_register 13
 419              		@ sp needed
 420 0046 80BD     		pop	{r7, pc}
 421              	.L28:
 422              		.align	2
 423              	.L27:
 424 0048 00000000 		.word	Serial
 425 004c 00000000 		.word	USBUART_Helpers
 426 0050 00000000 		.word	_ZN9UARTClassD1Ev
 427 0054 00000000 		.word	__dso_handle
 428 0058 00000000 		.word	Serial1
 429 005c 00000000 		.word	UART_Helpers
 430              		.cfi_endproc
 431              	.LFE148:
 432              		.cantunwind
 433              		.fnend
 434              		.size	_Z41__static_initialization_and_destruction_0ii, .-_Z41__static_initialization_and_destructi
 435              		.section	.rodata
 436              		.type	_ZL2SS, %object
 437              		.size	_ZL2SS, 1
 438              	_ZL2SS:
 439 0000 0A       		.byte	10
 440              		.type	_ZL4MOSI, %object
 441              		.size	_ZL4MOSI, 1
 442              	_ZL4MOSI:
 443 0001 0B       		.byte	11
 444              		.type	_ZL4MISO, %object
 445              		.size	_ZL4MISO, 1
 446              	_ZL4MISO:
 447 0002 0C       		.byte	12
 448              		.type	_ZL3SCK, %object
 449              		.size	_ZL3SCK, 1
 450              	_ZL3SCK:
 451 0003 0D       		.byte	13
 452              		.type	_ZL3SDA, %object
 453              		.size	_ZL3SDA, 1
 454              	_ZL3SDA:
 455 0004 15       		.byte	21
 456              		.type	_ZL3SCL, %object
 457              		.size	_ZL3SCL, 1
 458              	_ZL3SCL:
 459 0005 14       		.byte	20
 460              		.section	.text._GLOBAL__sub_I_USBUART_Helpers,"ax",%progbits
 461              		.align	2
 462              		.thumb
ARM GAS  C:\Users\Bruger\AppData\Local\Temp\ccTYSziv.s 			page 13


 463              		.thumb_func
 464              		.type	_GLOBAL__sub_I_USBUART_Helpers, %function
 465              	_GLOBAL__sub_I_USBUART_Helpers:
 466              		.fnstart
 467              	.LFB149:
 468              		.loc 5 32 0
 469              		.cfi_startproc
 470              		@ args = 0, pretend = 0, frame = 0
 471              		@ frame_needed = 1, uses_anonymous_args = 0
 472 0000 80B5     		push	{r7, lr}
 473              		.cfi_def_cfa_offset 8
 474              		.cfi_offset 7, -8
 475              		.cfi_offset 14, -4
 476 0002 00AF     		add	r7, sp, #0
 477              		.cfi_def_cfa_register 7
 478              		.loc 5 32 0
 479 0004 0120     		movs	r0, #1
 480 0006 4FF6FF71 		movw	r1, #65535
 481 000a FFF7FEFF 		bl	_Z41__static_initialization_and_destruction_0ii
 482 000e 80BD     		pop	{r7, pc}
 483              		.cfi_endproc
 484              	.LFE149:
 485              		.cantunwind
 486              		.fnend
 487              		.size	_GLOBAL__sub_I_USBUART_Helpers, .-_GLOBAL__sub_I_USBUART_Helpers
 488              		.section	.init_array,"aw",%init_array
 489              		.align	2
 490 0000 00000000 		.word	_GLOBAL__sub_I_USBUART_Helpers(target1)
 491              		.text
 492              	.Letext0:
 493              		.file 6 "c:\\program files (x86)\\cypress\\psoc creator\\4.0\\psoc creator\\import\\gnu\\arm\\4.9.
 494              		.file 7 "c:\\program files (x86)\\cypress\\psoc creator\\4.0\\psoc creator\\import\\gnu\\arm\\4.9.
 495              		.file 8 "Generated_Source\\PSoC5/cytypes.h"
 496              		.file 9 "c:\\program files (x86)\\cypress\\psoc creator\\4.0\\psoc creator\\import\\gnu\\arm\\4.9.
 497              		.file 10 "core\\WString.h"
 498              		.file 11 ".\\core/pins_arduino.h"
 499              		.file 12 "Generated_Source\\PSoC5/core_cm3.h"
 500              		.file 13 "<built-in>"