ARM GAS  C:\Users\Bruger\AppData\Local\Temp\ccf0vUSk.s 			page 1


   1              		.syntax unified
   2              		.cpu cortex-m3
   3              		.fpu softvfp
   4              		.eabi_attribute 20, 1
   5              		.eabi_attribute 21, 1
   6              		.eabi_attribute 23, 3
   7              		.eabi_attribute 24, 1
   8              		.eabi_attribute 25, 1
   9              		.eabi_attribute 26, 1
  10              		.eabi_attribute 30, 6
  11              		.eabi_attribute 34, 1
  12              		.eabi_attribute 18, 4
  13              		.thumb
  14              		.file	"Micros_Counter.c"
  15              		.text
  16              	.Ltext0:
  17              		.cfi_sections	.debug_frame
  18              		.global	Micros_Counter_initVar
  19              		.bss
  20              		.type	Micros_Counter_initVar, %object
  21              		.size	Micros_Counter_initVar, 1
  22              	Micros_Counter_initVar:
  23 0000 00       		.space	1
  24              		.section	.text.Micros_Counter_Init,"ax",%progbits
  25              		.align	2
  26              		.global	Micros_Counter_Init
  27              		.thumb
  28              		.thumb_func
  29              		.type	Micros_Counter_Init, %function
  30              	Micros_Counter_Init:
  31              	.LFB0:
  32              		.file 1 "Generated_Source\\PSoC5\\Micros_Counter.c"
   1:Generated_Source\PSoC5/Micros_Counter.c **** /*******************************************************************************
   2:Generated_Source\PSoC5/Micros_Counter.c **** * File Name: Micros_Counter.c  
   3:Generated_Source\PSoC5/Micros_Counter.c **** * Version 3.0
   4:Generated_Source\PSoC5/Micros_Counter.c **** *
   5:Generated_Source\PSoC5/Micros_Counter.c **** *  Description:
   6:Generated_Source\PSoC5/Micros_Counter.c **** *     The Counter component consists of a 8, 16, 24 or 32-bit counter with
   7:Generated_Source\PSoC5/Micros_Counter.c **** *     a selectable period between 2 and 2^Width - 1.  
   8:Generated_Source\PSoC5/Micros_Counter.c **** *
   9:Generated_Source\PSoC5/Micros_Counter.c **** *   Note:
  10:Generated_Source\PSoC5/Micros_Counter.c **** *     None
  11:Generated_Source\PSoC5/Micros_Counter.c **** *
  12:Generated_Source\PSoC5/Micros_Counter.c **** ********************************************************************************
  13:Generated_Source\PSoC5/Micros_Counter.c **** * Copyright 2008-2012, Cypress Semiconductor Corporation.  All rights reserved.
  14:Generated_Source\PSoC5/Micros_Counter.c **** * You may use this file only in accordance with the license, terms, conditions, 
  15:Generated_Source\PSoC5/Micros_Counter.c **** * disclaimers, and limitations in the end user license agreement accompanying 
  16:Generated_Source\PSoC5/Micros_Counter.c **** * the software package with which this file was provided.
  17:Generated_Source\PSoC5/Micros_Counter.c **** *******************************************************************************/
  18:Generated_Source\PSoC5/Micros_Counter.c **** 
  19:Generated_Source\PSoC5/Micros_Counter.c **** #include "Micros_Counter.h"
  20:Generated_Source\PSoC5/Micros_Counter.c **** 
  21:Generated_Source\PSoC5/Micros_Counter.c **** uint8 Micros_Counter_initVar = 0u;
  22:Generated_Source\PSoC5/Micros_Counter.c **** 
  23:Generated_Source\PSoC5/Micros_Counter.c **** 
  24:Generated_Source\PSoC5/Micros_Counter.c **** /*******************************************************************************
  25:Generated_Source\PSoC5/Micros_Counter.c **** * Function Name: Micros_Counter_Init
ARM GAS  C:\Users\Bruger\AppData\Local\Temp\ccf0vUSk.s 			page 2


  26:Generated_Source\PSoC5/Micros_Counter.c **** ********************************************************************************
  27:Generated_Source\PSoC5/Micros_Counter.c **** * Summary:
  28:Generated_Source\PSoC5/Micros_Counter.c **** *     Initialize to the schematic state
  29:Generated_Source\PSoC5/Micros_Counter.c **** * 
  30:Generated_Source\PSoC5/Micros_Counter.c **** * Parameters:  
  31:Generated_Source\PSoC5/Micros_Counter.c **** *  void  
  32:Generated_Source\PSoC5/Micros_Counter.c **** *
  33:Generated_Source\PSoC5/Micros_Counter.c **** * Return: 
  34:Generated_Source\PSoC5/Micros_Counter.c **** *  void
  35:Generated_Source\PSoC5/Micros_Counter.c **** *
  36:Generated_Source\PSoC5/Micros_Counter.c **** *******************************************************************************/
  37:Generated_Source\PSoC5/Micros_Counter.c **** void Micros_Counter_Init(void) 
  38:Generated_Source\PSoC5/Micros_Counter.c **** {
  33              		.loc 1 38 0
  34              		.cfi_startproc
  35              		@ args = 0, pretend = 0, frame = 8
  36              		@ frame_needed = 1, uses_anonymous_args = 0
  37 0000 80B5     		push	{r7, lr}
  38              		.cfi_def_cfa_offset 8
  39              		.cfi_offset 7, -8
  40              		.cfi_offset 14, -4
  41 0002 82B0     		sub	sp, sp, #8
  42              		.cfi_def_cfa_offset 16
  43 0004 00AF     		add	r7, sp, #0
  44              		.cfi_def_cfa_register 7
  39:Generated_Source\PSoC5/Micros_Counter.c ****         #if (!Micros_Counter_UsingFixedFunction && !Micros_Counter_ControlRegRemoved)
  40:Generated_Source\PSoC5/Micros_Counter.c ****             uint8 ctrl;
  41:Generated_Source\PSoC5/Micros_Counter.c ****         #endif /* (!Micros_Counter_UsingFixedFunction && !Micros_Counter_ControlRegRemoved) */
  42:Generated_Source\PSoC5/Micros_Counter.c ****         
  43:Generated_Source\PSoC5/Micros_Counter.c ****         #if(!Micros_Counter_UsingFixedFunction) 
  44:Generated_Source\PSoC5/Micros_Counter.c ****             /* Interrupt State Backup for Critical Region*/
  45:Generated_Source\PSoC5/Micros_Counter.c ****             uint8 Micros_Counter_interruptState;
  46:Generated_Source\PSoC5/Micros_Counter.c ****         #endif /* (!Micros_Counter_UsingFixedFunction) */
  47:Generated_Source\PSoC5/Micros_Counter.c ****         
  48:Generated_Source\PSoC5/Micros_Counter.c ****         #if (Micros_Counter_UsingFixedFunction)
  49:Generated_Source\PSoC5/Micros_Counter.c ****             /* Clear all bits but the enable bit (if it's already set for Timer operation */
  50:Generated_Source\PSoC5/Micros_Counter.c ****             Micros_Counter_CONTROL &= Micros_Counter_CTRL_ENABLE;
  51:Generated_Source\PSoC5/Micros_Counter.c ****             
  52:Generated_Source\PSoC5/Micros_Counter.c ****             /* Clear the mode bits for continuous run mode */
  53:Generated_Source\PSoC5/Micros_Counter.c ****             #if (CY_PSOC5A)
  54:Generated_Source\PSoC5/Micros_Counter.c ****                 Micros_Counter_CONTROL2 &= ((uint8)(~Micros_Counter_CTRL_MODE_MASK));
  55:Generated_Source\PSoC5/Micros_Counter.c ****             #endif /* (CY_PSOC5A) */
  56:Generated_Source\PSoC5/Micros_Counter.c ****             #if (CY_PSOC3 || CY_PSOC5LP)
  57:Generated_Source\PSoC5/Micros_Counter.c ****                 Micros_Counter_CONTROL3 &= ((uint8)(~Micros_Counter_CTRL_MODE_MASK));              
  58:Generated_Source\PSoC5/Micros_Counter.c ****             #endif /* (CY_PSOC3 || CY_PSOC5LP) */
  59:Generated_Source\PSoC5/Micros_Counter.c ****             /* Check if One Shot mode is enabled i.e. RunMode !=0*/
  60:Generated_Source\PSoC5/Micros_Counter.c ****             #if (Micros_Counter_RunModeUsed != 0x0u)
  61:Generated_Source\PSoC5/Micros_Counter.c ****                 /* Set 3rd bit of Control register to enable one shot mode */
  62:Generated_Source\PSoC5/Micros_Counter.c ****                 Micros_Counter_CONTROL |= Micros_Counter_ONESHOT;
  63:Generated_Source\PSoC5/Micros_Counter.c ****             #endif /* (Micros_Counter_RunModeUsed != 0x0u) */
  64:Generated_Source\PSoC5/Micros_Counter.c ****             
  65:Generated_Source\PSoC5/Micros_Counter.c ****             /* Set the IRQ to use the status register interrupts */
  66:Generated_Source\PSoC5/Micros_Counter.c ****             Micros_Counter_CONTROL2 |= Micros_Counter_CTRL2_IRQ_SEL;
  67:Generated_Source\PSoC5/Micros_Counter.c ****             
  68:Generated_Source\PSoC5/Micros_Counter.c ****             /* Clear and Set SYNCTC and SYNCCMP bits of RT1 register */
  69:Generated_Source\PSoC5/Micros_Counter.c ****             Micros_Counter_RT1 &= ((uint8)(~Micros_Counter_RT1_MASK));
  70:Generated_Source\PSoC5/Micros_Counter.c ****             Micros_Counter_RT1 |= Micros_Counter_SYNC;     
ARM GAS  C:\Users\Bruger\AppData\Local\Temp\ccf0vUSk.s 			page 3


  71:Generated_Source\PSoC5/Micros_Counter.c ****                     
  72:Generated_Source\PSoC5/Micros_Counter.c ****             /*Enable DSI Sync all all inputs of the Timer*/
  73:Generated_Source\PSoC5/Micros_Counter.c ****             Micros_Counter_RT1 &= ((uint8)(~Micros_Counter_SYNCDSI_MASK));
  74:Generated_Source\PSoC5/Micros_Counter.c ****             Micros_Counter_RT1 |= Micros_Counter_SYNCDSI_EN;
  75:Generated_Source\PSoC5/Micros_Counter.c **** 
  76:Generated_Source\PSoC5/Micros_Counter.c ****         #else
  77:Generated_Source\PSoC5/Micros_Counter.c ****             #if(!Micros_Counter_ControlRegRemoved)
  78:Generated_Source\PSoC5/Micros_Counter.c ****             /* Set the default compare mode defined in the parameter */
  79:Generated_Source\PSoC5/Micros_Counter.c ****             ctrl = Micros_Counter_CONTROL & ((uint8)(~Micros_Counter_CTRL_CMPMODE_MASK));
  45              		.loc 1 79 0
  46 0006 1B4B     		ldr	r3, .L2
  47 0008 1B78     		ldrb	r3, [r3]
  48 000a DBB2     		uxtb	r3, r3
  49 000c 23F00703 		bic	r3, r3, #7
  50 0010 FB71     		strb	r3, [r7, #7]
  80:Generated_Source\PSoC5/Micros_Counter.c ****             Micros_Counter_CONTROL = ctrl | Micros_Counter_DEFAULT_COMPARE_MODE;
  51              		.loc 1 80 0
  52 0012 184A     		ldr	r2, .L2
  53 0014 FB79     		ldrb	r3, [r7, #7]
  54 0016 1370     		strb	r3, [r2]
  81:Generated_Source\PSoC5/Micros_Counter.c ****             
  82:Generated_Source\PSoC5/Micros_Counter.c ****             /* Set the default capture mode defined in the parameter */
  83:Generated_Source\PSoC5/Micros_Counter.c ****             ctrl = Micros_Counter_CONTROL & ((uint8)(~Micros_Counter_CTRL_CAPMODE_MASK));
  55              		.loc 1 83 0
  56 0018 164B     		ldr	r3, .L2
  57 001a 1B78     		ldrb	r3, [r3]
  58 001c DBB2     		uxtb	r3, r3
  59 001e 23F00303 		bic	r3, r3, #3
  60 0022 FB71     		strb	r3, [r7, #7]
  84:Generated_Source\PSoC5/Micros_Counter.c ****             
  85:Generated_Source\PSoC5/Micros_Counter.c ****             #if( 0 != Micros_Counter_CAPTURE_MODE_CONF)
  86:Generated_Source\PSoC5/Micros_Counter.c ****                 Micros_Counter_CONTROL = ctrl | Micros_Counter_DEFAULT_CAPTURE_MODE;
  87:Generated_Source\PSoC5/Micros_Counter.c ****             #else
  88:Generated_Source\PSoC5/Micros_Counter.c ****                 Micros_Counter_CONTROL = ctrl;
  61              		.loc 1 88 0
  62 0024 134A     		ldr	r2, .L2
  63 0026 FB79     		ldrb	r3, [r7, #7]
  64 0028 1370     		strb	r3, [r2]
  89:Generated_Source\PSoC5/Micros_Counter.c ****             #endif /* 0 != Micros_Counter_CAPTURE_MODE */ 
  90:Generated_Source\PSoC5/Micros_Counter.c ****             
  91:Generated_Source\PSoC5/Micros_Counter.c ****             #endif /* (!Micros_Counter_ControlRegRemoved) */
  92:Generated_Source\PSoC5/Micros_Counter.c ****         #endif /* (Micros_Counter_UsingFixedFunction) */
  93:Generated_Source\PSoC5/Micros_Counter.c ****         
  94:Generated_Source\PSoC5/Micros_Counter.c ****         /* Clear all data in the FIFO's */
  95:Generated_Source\PSoC5/Micros_Counter.c ****         #if (!Micros_Counter_UsingFixedFunction)
  96:Generated_Source\PSoC5/Micros_Counter.c ****             Micros_Counter_ClearFIFO();
  65              		.loc 1 96 0
  66 002a FFF7FEFF 		bl	Micros_Counter_ClearFIFO
  97:Generated_Source\PSoC5/Micros_Counter.c ****         #endif /* (!Micros_Counter_UsingFixedFunction) */
  98:Generated_Source\PSoC5/Micros_Counter.c ****         
  99:Generated_Source\PSoC5/Micros_Counter.c ****         /* Set Initial values from Configuration */
 100:Generated_Source\PSoC5/Micros_Counter.c ****         Micros_Counter_WritePeriod(Micros_Counter_INIT_PERIOD_VALUE);
  67              		.loc 1 100 0
  68 002e 4FF0FF30 		mov	r0, #-1
  69 0032 FFF7FEFF 		bl	Micros_Counter_WritePeriod
 101:Generated_Source\PSoC5/Micros_Counter.c ****         #if (!(Micros_Counter_UsingFixedFunction && (CY_PSOC5A)))
 102:Generated_Source\PSoC5/Micros_Counter.c ****             Micros_Counter_WriteCounter(Micros_Counter_INIT_COUNTER_VALUE);
ARM GAS  C:\Users\Bruger\AppData\Local\Temp\ccf0vUSk.s 			page 4


  70              		.loc 1 102 0
  71 0036 0020     		movs	r0, #0
  72 0038 FFF7FEFF 		bl	Micros_Counter_WriteCounter
 103:Generated_Source\PSoC5/Micros_Counter.c ****         #endif /* (!(Micros_Counter_UsingFixedFunction && (CY_PSOC5A))) */
 104:Generated_Source\PSoC5/Micros_Counter.c ****         Micros_Counter_SetInterruptMode(Micros_Counter_INIT_INTERRUPTS_MASK);
  73              		.loc 1 104 0
  74 003c 0020     		movs	r0, #0
  75 003e FFF7FEFF 		bl	Micros_Counter_SetInterruptMode
 105:Generated_Source\PSoC5/Micros_Counter.c ****         
 106:Generated_Source\PSoC5/Micros_Counter.c ****         #if (!Micros_Counter_UsingFixedFunction)
 107:Generated_Source\PSoC5/Micros_Counter.c ****             /* Read the status register to clear the unwanted interrupts */
 108:Generated_Source\PSoC5/Micros_Counter.c ****             (void)Micros_Counter_ReadStatusRegister();
  76              		.loc 1 108 0
  77 0042 FFF7FEFF 		bl	Micros_Counter_ReadStatusRegister
 109:Generated_Source\PSoC5/Micros_Counter.c ****             /* Set the compare value (only available to non-fixed function implementation */
 110:Generated_Source\PSoC5/Micros_Counter.c ****             Micros_Counter_WriteCompare(Micros_Counter_INIT_COMPARE_VALUE);
  78              		.loc 1 110 0
  79 0046 4FF0FF30 		mov	r0, #-1
  80 004a FFF7FEFF 		bl	Micros_Counter_WriteCompare
 111:Generated_Source\PSoC5/Micros_Counter.c ****             /* Use the interrupt output of the status register for IRQ output */
 112:Generated_Source\PSoC5/Micros_Counter.c ****             
 113:Generated_Source\PSoC5/Micros_Counter.c ****             /* CyEnterCriticalRegion and CyExitCriticalRegion are used to mark following region cri
 114:Generated_Source\PSoC5/Micros_Counter.c ****             /* Enter Critical Region*/
 115:Generated_Source\PSoC5/Micros_Counter.c ****             Micros_Counter_interruptState = CyEnterCriticalSection();
  81              		.loc 1 115 0
  82 004e FFF7FEFF 		bl	CyEnterCriticalSection
  83 0052 0346     		mov	r3, r0
  84 0054 BB71     		strb	r3, [r7, #6]
 116:Generated_Source\PSoC5/Micros_Counter.c ****             
 117:Generated_Source\PSoC5/Micros_Counter.c ****             Micros_Counter_STATUS_AUX_CTRL |= Micros_Counter_STATUS_ACTL_INT_EN_MASK;
  85              		.loc 1 117 0
  86 0056 084A     		ldr	r2, .L2+4
  87 0058 074B     		ldr	r3, .L2+4
  88 005a 1B78     		ldrb	r3, [r3]
  89 005c DBB2     		uxtb	r3, r3
  90 005e 43F01003 		orr	r3, r3, #16
  91 0062 DBB2     		uxtb	r3, r3
  92 0064 1370     		strb	r3, [r2]
 118:Generated_Source\PSoC5/Micros_Counter.c ****             
 119:Generated_Source\PSoC5/Micros_Counter.c ****             /* Exit Critical Region*/
 120:Generated_Source\PSoC5/Micros_Counter.c ****             CyExitCriticalSection(Micros_Counter_interruptState);
  93              		.loc 1 120 0
  94 0066 BB79     		ldrb	r3, [r7, #6]	@ zero_extendqisi2
  95 0068 1846     		mov	r0, r3
  96 006a FFF7FEFF 		bl	CyExitCriticalSection
 121:Generated_Source\PSoC5/Micros_Counter.c ****             
 122:Generated_Source\PSoC5/Micros_Counter.c ****         #endif /* (!Micros_Counter_UsingFixedFunction) */
 123:Generated_Source\PSoC5/Micros_Counter.c **** }
  97              		.loc 1 123 0
  98 006e 0837     		adds	r7, r7, #8
  99              		.cfi_def_cfa_offset 8
 100 0070 BD46     		mov	sp, r7
 101              		.cfi_def_cfa_register 13
 102              		@ sp needed
 103 0072 80BD     		pop	{r7, pc}
 104              	.L3:
 105              		.align	2
ARM GAS  C:\Users\Bruger\AppData\Local\Temp\ccf0vUSk.s 			page 5


 106              	.L2:
 107 0074 78650040 		.word	1073767800
 108 0078 9A650040 		.word	1073767834
 109              		.cfi_endproc
 110              	.LFE0:
 111              		.size	Micros_Counter_Init, .-Micros_Counter_Init
 112              		.section	.text.Micros_Counter_Enable,"ax",%progbits
 113              		.align	2
 114              		.global	Micros_Counter_Enable
 115              		.thumb
 116              		.thumb_func
 117              		.type	Micros_Counter_Enable, %function
 118              	Micros_Counter_Enable:
 119              	.LFB1:
 124:Generated_Source\PSoC5/Micros_Counter.c **** 
 125:Generated_Source\PSoC5/Micros_Counter.c **** 
 126:Generated_Source\PSoC5/Micros_Counter.c **** /*******************************************************************************
 127:Generated_Source\PSoC5/Micros_Counter.c **** * Function Name: Micros_Counter_Enable
 128:Generated_Source\PSoC5/Micros_Counter.c **** ********************************************************************************
 129:Generated_Source\PSoC5/Micros_Counter.c **** * Summary:
 130:Generated_Source\PSoC5/Micros_Counter.c **** *     Enable the Counter
 131:Generated_Source\PSoC5/Micros_Counter.c **** * 
 132:Generated_Source\PSoC5/Micros_Counter.c **** * Parameters:  
 133:Generated_Source\PSoC5/Micros_Counter.c **** *  void  
 134:Generated_Source\PSoC5/Micros_Counter.c **** *
 135:Generated_Source\PSoC5/Micros_Counter.c **** * Return: 
 136:Generated_Source\PSoC5/Micros_Counter.c **** *  void
 137:Generated_Source\PSoC5/Micros_Counter.c **** *
 138:Generated_Source\PSoC5/Micros_Counter.c **** * Side Effects: 
 139:Generated_Source\PSoC5/Micros_Counter.c **** *   If the Enable mode is set to Hardware only then this function has no effect 
 140:Generated_Source\PSoC5/Micros_Counter.c **** *   on the operation of the counter.
 141:Generated_Source\PSoC5/Micros_Counter.c **** *
 142:Generated_Source\PSoC5/Micros_Counter.c **** *******************************************************************************/
 143:Generated_Source\PSoC5/Micros_Counter.c **** void Micros_Counter_Enable(void) 
 144:Generated_Source\PSoC5/Micros_Counter.c **** {
 120              		.loc 1 144 0
 121              		.cfi_startproc
 122              		@ args = 0, pretend = 0, frame = 0
 123              		@ frame_needed = 1, uses_anonymous_args = 0
 124              		@ link register save eliminated.
 125 0000 80B4     		push	{r7}
 126              		.cfi_def_cfa_offset 4
 127              		.cfi_offset 7, -4
 128 0002 00AF     		add	r7, sp, #0
 129              		.cfi_def_cfa_register 7
 145:Generated_Source\PSoC5/Micros_Counter.c ****     /* Globally Enable the Fixed Function Block chosen */
 146:Generated_Source\PSoC5/Micros_Counter.c ****     #if (Micros_Counter_UsingFixedFunction)
 147:Generated_Source\PSoC5/Micros_Counter.c ****         Micros_Counter_GLOBAL_ENABLE |= Micros_Counter_BLOCK_EN_MASK;
 148:Generated_Source\PSoC5/Micros_Counter.c ****         Micros_Counter_GLOBAL_STBY_ENABLE |= Micros_Counter_BLOCK_STBY_EN_MASK;
 149:Generated_Source\PSoC5/Micros_Counter.c ****     #endif /* (Micros_Counter_UsingFixedFunction) */  
 150:Generated_Source\PSoC5/Micros_Counter.c ****         
 151:Generated_Source\PSoC5/Micros_Counter.c ****     /* Enable the counter from the control register  */
 152:Generated_Source\PSoC5/Micros_Counter.c ****     /* If Fixed Function then make sure Mode is set correctly */
 153:Generated_Source\PSoC5/Micros_Counter.c ****     /* else make sure reset is clear */
 154:Generated_Source\PSoC5/Micros_Counter.c ****     #if(!Micros_Counter_ControlRegRemoved || Micros_Counter_UsingFixedFunction)
 155:Generated_Source\PSoC5/Micros_Counter.c ****         Micros_Counter_CONTROL |= Micros_Counter_CTRL_ENABLE;                
 130              		.loc 1 155 0
ARM GAS  C:\Users\Bruger\AppData\Local\Temp\ccf0vUSk.s 			page 6


 131 0004 054A     		ldr	r2, .L5
 132 0006 054B     		ldr	r3, .L5
 133 0008 1B78     		ldrb	r3, [r3]
 134 000a DBB2     		uxtb	r3, r3
 135 000c 63F07F03 		orn	r3, r3, #127
 136 0010 DBB2     		uxtb	r3, r3
 137 0012 1370     		strb	r3, [r2]
 156:Generated_Source\PSoC5/Micros_Counter.c ****     #endif /* (!Micros_Counter_ControlRegRemoved || Micros_Counter_UsingFixedFunction) */
 157:Generated_Source\PSoC5/Micros_Counter.c ****     
 158:Generated_Source\PSoC5/Micros_Counter.c **** }
 138              		.loc 1 158 0
 139 0014 BD46     		mov	sp, r7
 140              		.cfi_def_cfa_register 13
 141              		@ sp needed
 142 0016 5DF8047B 		ldr	r7, [sp], #4
 143              		.cfi_restore 7
 144              		.cfi_def_cfa_offset 0
 145 001a 7047     		bx	lr
 146              	.L6:
 147              		.align	2
 148              	.L5:
 149 001c 78650040 		.word	1073767800
 150              		.cfi_endproc
 151              	.LFE1:
 152              		.size	Micros_Counter_Enable, .-Micros_Counter_Enable
 153              		.section	.text.Micros_Counter_Start,"ax",%progbits
 154              		.align	2
 155              		.global	Micros_Counter_Start
 156              		.thumb
 157              		.thumb_func
 158              		.type	Micros_Counter_Start, %function
 159              	Micros_Counter_Start:
 160              	.LFB2:
 159:Generated_Source\PSoC5/Micros_Counter.c **** 
 160:Generated_Source\PSoC5/Micros_Counter.c **** 
 161:Generated_Source\PSoC5/Micros_Counter.c **** /*******************************************************************************
 162:Generated_Source\PSoC5/Micros_Counter.c **** * Function Name: Micros_Counter_Start
 163:Generated_Source\PSoC5/Micros_Counter.c **** ********************************************************************************
 164:Generated_Source\PSoC5/Micros_Counter.c **** * Summary:
 165:Generated_Source\PSoC5/Micros_Counter.c **** *  Enables the counter for operation 
 166:Generated_Source\PSoC5/Micros_Counter.c **** *
 167:Generated_Source\PSoC5/Micros_Counter.c **** * Parameters:  
 168:Generated_Source\PSoC5/Micros_Counter.c **** *  void  
 169:Generated_Source\PSoC5/Micros_Counter.c **** *
 170:Generated_Source\PSoC5/Micros_Counter.c **** * Return: 
 171:Generated_Source\PSoC5/Micros_Counter.c **** *  void
 172:Generated_Source\PSoC5/Micros_Counter.c **** *
 173:Generated_Source\PSoC5/Micros_Counter.c **** * Global variables:
 174:Generated_Source\PSoC5/Micros_Counter.c **** *  Micros_Counter_initVar: Is modified when this function is called for the  
 175:Generated_Source\PSoC5/Micros_Counter.c **** *   first time. Is used to ensure that initialization happens only once.
 176:Generated_Source\PSoC5/Micros_Counter.c **** *
 177:Generated_Source\PSoC5/Micros_Counter.c **** *******************************************************************************/
 178:Generated_Source\PSoC5/Micros_Counter.c **** void Micros_Counter_Start(void) 
 179:Generated_Source\PSoC5/Micros_Counter.c **** {
 161              		.loc 1 179 0
 162              		.cfi_startproc
 163              		@ args = 0, pretend = 0, frame = 0
ARM GAS  C:\Users\Bruger\AppData\Local\Temp\ccf0vUSk.s 			page 7


 164              		@ frame_needed = 1, uses_anonymous_args = 0
 165 0000 80B5     		push	{r7, lr}
 166              		.cfi_def_cfa_offset 8
 167              		.cfi_offset 7, -8
 168              		.cfi_offset 14, -4
 169 0002 00AF     		add	r7, sp, #0
 170              		.cfi_def_cfa_register 7
 180:Generated_Source\PSoC5/Micros_Counter.c ****     if(Micros_Counter_initVar == 0u)
 171              		.loc 1 180 0
 172 0004 054B     		ldr	r3, .L9
 173 0006 1B78     		ldrb	r3, [r3]	@ zero_extendqisi2
 174 0008 002B     		cmp	r3, #0
 175 000a 04D1     		bne	.L8
 181:Generated_Source\PSoC5/Micros_Counter.c ****     {
 182:Generated_Source\PSoC5/Micros_Counter.c ****         Micros_Counter_Init();
 176              		.loc 1 182 0
 177 000c FFF7FEFF 		bl	Micros_Counter_Init
 183:Generated_Source\PSoC5/Micros_Counter.c ****         
 184:Generated_Source\PSoC5/Micros_Counter.c ****         Micros_Counter_initVar = 1u; /* Clear this bit for Initialization */        
 178              		.loc 1 184 0
 179 0010 024B     		ldr	r3, .L9
 180 0012 0122     		movs	r2, #1
 181 0014 1A70     		strb	r2, [r3]
 182              	.L8:
 185:Generated_Source\PSoC5/Micros_Counter.c ****     }
 186:Generated_Source\PSoC5/Micros_Counter.c ****     
 187:Generated_Source\PSoC5/Micros_Counter.c ****     /* Enable the Counter */
 188:Generated_Source\PSoC5/Micros_Counter.c ****     Micros_Counter_Enable();        
 183              		.loc 1 188 0
 184 0016 FFF7FEFF 		bl	Micros_Counter_Enable
 189:Generated_Source\PSoC5/Micros_Counter.c **** }
 185              		.loc 1 189 0
 186 001a 80BD     		pop	{r7, pc}
 187              	.L10:
 188              		.align	2
 189              	.L9:
 190 001c 00000000 		.word	Micros_Counter_initVar
 191              		.cfi_endproc
 192              	.LFE2:
 193              		.size	Micros_Counter_Start, .-Micros_Counter_Start
 194              		.section	.text.Micros_Counter_Stop,"ax",%progbits
 195              		.align	2
 196              		.global	Micros_Counter_Stop
 197              		.thumb
 198              		.thumb_func
 199              		.type	Micros_Counter_Stop, %function
 200              	Micros_Counter_Stop:
 201              	.LFB3:
 190:Generated_Source\PSoC5/Micros_Counter.c **** 
 191:Generated_Source\PSoC5/Micros_Counter.c **** 
 192:Generated_Source\PSoC5/Micros_Counter.c **** /*******************************************************************************
 193:Generated_Source\PSoC5/Micros_Counter.c **** * Function Name: Micros_Counter_Stop
 194:Generated_Source\PSoC5/Micros_Counter.c **** ********************************************************************************
 195:Generated_Source\PSoC5/Micros_Counter.c **** * Summary:
 196:Generated_Source\PSoC5/Micros_Counter.c **** * Halts the counter, but does not change any modes or disable interrupts.
 197:Generated_Source\PSoC5/Micros_Counter.c **** *
 198:Generated_Source\PSoC5/Micros_Counter.c **** * Parameters:  
ARM GAS  C:\Users\Bruger\AppData\Local\Temp\ccf0vUSk.s 			page 8


 199:Generated_Source\PSoC5/Micros_Counter.c **** *  void  
 200:Generated_Source\PSoC5/Micros_Counter.c **** *
 201:Generated_Source\PSoC5/Micros_Counter.c **** * Return: 
 202:Generated_Source\PSoC5/Micros_Counter.c **** *  void
 203:Generated_Source\PSoC5/Micros_Counter.c **** *
 204:Generated_Source\PSoC5/Micros_Counter.c **** * Side Effects: If the Enable mode is set to Hardware only then this function
 205:Generated_Source\PSoC5/Micros_Counter.c **** *               has no effect on the operation of the counter.
 206:Generated_Source\PSoC5/Micros_Counter.c **** *
 207:Generated_Source\PSoC5/Micros_Counter.c **** *******************************************************************************/
 208:Generated_Source\PSoC5/Micros_Counter.c **** void Micros_Counter_Stop(void) 
 209:Generated_Source\PSoC5/Micros_Counter.c **** {
 202              		.loc 1 209 0
 203              		.cfi_startproc
 204              		@ args = 0, pretend = 0, frame = 0
 205              		@ frame_needed = 1, uses_anonymous_args = 0
 206              		@ link register save eliminated.
 207 0000 80B4     		push	{r7}
 208              		.cfi_def_cfa_offset 4
 209              		.cfi_offset 7, -4
 210 0002 00AF     		add	r7, sp, #0
 211              		.cfi_def_cfa_register 7
 210:Generated_Source\PSoC5/Micros_Counter.c ****     /* Disable Counter */
 211:Generated_Source\PSoC5/Micros_Counter.c ****     #if(!Micros_Counter_ControlRegRemoved || Micros_Counter_UsingFixedFunction)
 212:Generated_Source\PSoC5/Micros_Counter.c ****         Micros_Counter_CONTROL &= ((uint8)(~Micros_Counter_CTRL_ENABLE));        
 212              		.loc 1 212 0
 213 0004 054A     		ldr	r2, .L12
 214 0006 054B     		ldr	r3, .L12
 215 0008 1B78     		ldrb	r3, [r3]
 216 000a DBB2     		uxtb	r3, r3
 217 000c 03F07F03 		and	r3, r3, #127
 218 0010 DBB2     		uxtb	r3, r3
 219 0012 1370     		strb	r3, [r2]
 213:Generated_Source\PSoC5/Micros_Counter.c ****     #endif /* (!Micros_Counter_ControlRegRemoved || Micros_Counter_UsingFixedFunction) */
 214:Generated_Source\PSoC5/Micros_Counter.c ****     
 215:Generated_Source\PSoC5/Micros_Counter.c ****     /* Globally disable the Fixed Function Block chosen */
 216:Generated_Source\PSoC5/Micros_Counter.c ****     #if (Micros_Counter_UsingFixedFunction)
 217:Generated_Source\PSoC5/Micros_Counter.c ****         Micros_Counter_GLOBAL_ENABLE &= ((uint8)(~Micros_Counter_BLOCK_EN_MASK));
 218:Generated_Source\PSoC5/Micros_Counter.c ****         Micros_Counter_GLOBAL_STBY_ENABLE &= ((uint8)(~Micros_Counter_BLOCK_STBY_EN_MASK));
 219:Generated_Source\PSoC5/Micros_Counter.c ****     #endif /* (Micros_Counter_UsingFixedFunction) */
 220:Generated_Source\PSoC5/Micros_Counter.c **** }
 220              		.loc 1 220 0
 221 0014 BD46     		mov	sp, r7
 222              		.cfi_def_cfa_register 13
 223              		@ sp needed
 224 0016 5DF8047B 		ldr	r7, [sp], #4
 225              		.cfi_restore 7
 226              		.cfi_def_cfa_offset 0
 227 001a 7047     		bx	lr
 228              	.L13:
 229              		.align	2
 230              	.L12:
 231 001c 78650040 		.word	1073767800
 232              		.cfi_endproc
 233              	.LFE3:
 234              		.size	Micros_Counter_Stop, .-Micros_Counter_Stop
 235              		.section	.text.Micros_Counter_SetInterruptMode,"ax",%progbits
 236              		.align	2
ARM GAS  C:\Users\Bruger\AppData\Local\Temp\ccf0vUSk.s 			page 9


 237              		.global	Micros_Counter_SetInterruptMode
 238              		.thumb
 239              		.thumb_func
 240              		.type	Micros_Counter_SetInterruptMode, %function
 241              	Micros_Counter_SetInterruptMode:
 242              	.LFB4:
 221:Generated_Source\PSoC5/Micros_Counter.c **** 
 222:Generated_Source\PSoC5/Micros_Counter.c **** 
 223:Generated_Source\PSoC5/Micros_Counter.c **** /*******************************************************************************
 224:Generated_Source\PSoC5/Micros_Counter.c **** * Function Name: Micros_Counter_SetInterruptMode
 225:Generated_Source\PSoC5/Micros_Counter.c **** ********************************************************************************
 226:Generated_Source\PSoC5/Micros_Counter.c **** * Summary:
 227:Generated_Source\PSoC5/Micros_Counter.c **** * Configures which interrupt sources are enabled to generate the final interrupt
 228:Generated_Source\PSoC5/Micros_Counter.c **** *
 229:Generated_Source\PSoC5/Micros_Counter.c **** * Parameters:  
 230:Generated_Source\PSoC5/Micros_Counter.c **** *  InterruptsMask: This parameter is an or'd collection of the status bits
 231:Generated_Source\PSoC5/Micros_Counter.c **** *                   which will be allowed to generate the counters interrupt.   
 232:Generated_Source\PSoC5/Micros_Counter.c **** *
 233:Generated_Source\PSoC5/Micros_Counter.c **** * Return: 
 234:Generated_Source\PSoC5/Micros_Counter.c **** *  void
 235:Generated_Source\PSoC5/Micros_Counter.c **** *
 236:Generated_Source\PSoC5/Micros_Counter.c **** *******************************************************************************/
 237:Generated_Source\PSoC5/Micros_Counter.c **** void Micros_Counter_SetInterruptMode(uint8 interruptsMask) 
 238:Generated_Source\PSoC5/Micros_Counter.c **** {
 243              		.loc 1 238 0
 244              		.cfi_startproc
 245              		@ args = 0, pretend = 0, frame = 8
 246              		@ frame_needed = 1, uses_anonymous_args = 0
 247              		@ link register save eliminated.
 248 0000 80B4     		push	{r7}
 249              		.cfi_def_cfa_offset 4
 250              		.cfi_offset 7, -4
 251 0002 83B0     		sub	sp, sp, #12
 252              		.cfi_def_cfa_offset 16
 253 0004 00AF     		add	r7, sp, #0
 254              		.cfi_def_cfa_register 7
 255 0006 0346     		mov	r3, r0
 256 0008 FB71     		strb	r3, [r7, #7]
 239:Generated_Source\PSoC5/Micros_Counter.c ****     Micros_Counter_STATUS_MASK = interruptsMask;
 257              		.loc 1 239 0
 258 000a 044A     		ldr	r2, .L15
 259 000c FB79     		ldrb	r3, [r7, #7]
 260 000e 1370     		strb	r3, [r2]
 240:Generated_Source\PSoC5/Micros_Counter.c **** }
 261              		.loc 1 240 0
 262 0010 0C37     		adds	r7, r7, #12
 263              		.cfi_def_cfa_offset 4
 264 0012 BD46     		mov	sp, r7
 265              		.cfi_def_cfa_register 13
 266              		@ sp needed
 267 0014 5DF8047B 		ldr	r7, [sp], #4
 268              		.cfi_restore 7
 269              		.cfi_def_cfa_offset 0
 270 0018 7047     		bx	lr
 271              	.L16:
 272 001a 00BF     		.align	2
 273              	.L15:
ARM GAS  C:\Users\Bruger\AppData\Local\Temp\ccf0vUSk.s 			page 10


 274 001c 8A650040 		.word	1073767818
 275              		.cfi_endproc
 276              	.LFE4:
 277              		.size	Micros_Counter_SetInterruptMode, .-Micros_Counter_SetInterruptMode
 278              		.section	.text.Micros_Counter_ReadStatusRegister,"ax",%progbits
 279              		.align	2
 280              		.global	Micros_Counter_ReadStatusRegister
 281              		.thumb
 282              		.thumb_func
 283              		.type	Micros_Counter_ReadStatusRegister, %function
 284              	Micros_Counter_ReadStatusRegister:
 285              	.LFB5:
 241:Generated_Source\PSoC5/Micros_Counter.c **** 
 242:Generated_Source\PSoC5/Micros_Counter.c **** 
 243:Generated_Source\PSoC5/Micros_Counter.c **** /*******************************************************************************
 244:Generated_Source\PSoC5/Micros_Counter.c **** * Function Name: Micros_Counter_ReadStatusRegister
 245:Generated_Source\PSoC5/Micros_Counter.c **** ********************************************************************************
 246:Generated_Source\PSoC5/Micros_Counter.c **** * Summary:
 247:Generated_Source\PSoC5/Micros_Counter.c **** *   Reads the status register and returns it's state. This function should use
 248:Generated_Source\PSoC5/Micros_Counter.c **** *       defined types for the bit-field information as the bits in this
 249:Generated_Source\PSoC5/Micros_Counter.c **** *       register may be permuteable.
 250:Generated_Source\PSoC5/Micros_Counter.c **** *
 251:Generated_Source\PSoC5/Micros_Counter.c **** * Parameters:  
 252:Generated_Source\PSoC5/Micros_Counter.c **** *  void
 253:Generated_Source\PSoC5/Micros_Counter.c **** *
 254:Generated_Source\PSoC5/Micros_Counter.c **** * Return: 
 255:Generated_Source\PSoC5/Micros_Counter.c **** *  (uint8) The contents of the status register
 256:Generated_Source\PSoC5/Micros_Counter.c **** *
 257:Generated_Source\PSoC5/Micros_Counter.c **** * Side Effects:
 258:Generated_Source\PSoC5/Micros_Counter.c **** *   Status register bits may be clear on read. 
 259:Generated_Source\PSoC5/Micros_Counter.c **** *
 260:Generated_Source\PSoC5/Micros_Counter.c **** *******************************************************************************/
 261:Generated_Source\PSoC5/Micros_Counter.c **** uint8   Micros_Counter_ReadStatusRegister(void) 
 262:Generated_Source\PSoC5/Micros_Counter.c **** {
 286              		.loc 1 262 0
 287              		.cfi_startproc
 288              		@ args = 0, pretend = 0, frame = 0
 289              		@ frame_needed = 1, uses_anonymous_args = 0
 290              		@ link register save eliminated.
 291 0000 80B4     		push	{r7}
 292              		.cfi_def_cfa_offset 4
 293              		.cfi_offset 7, -4
 294 0002 00AF     		add	r7, sp, #0
 295              		.cfi_def_cfa_register 7
 263:Generated_Source\PSoC5/Micros_Counter.c ****     return Micros_Counter_STATUS;
 296              		.loc 1 263 0
 297 0004 034B     		ldr	r3, .L19
 298 0006 1B78     		ldrb	r3, [r3]
 299 0008 DBB2     		uxtb	r3, r3
 264:Generated_Source\PSoC5/Micros_Counter.c **** }
 300              		.loc 1 264 0
 301 000a 1846     		mov	r0, r3
 302 000c BD46     		mov	sp, r7
 303              		.cfi_def_cfa_register 13
 304              		@ sp needed
 305 000e 5DF8047B 		ldr	r7, [sp], #4
 306              		.cfi_restore 7
ARM GAS  C:\Users\Bruger\AppData\Local\Temp\ccf0vUSk.s 			page 11


 307              		.cfi_def_cfa_offset 0
 308 0012 7047     		bx	lr
 309              	.L20:
 310              		.align	2
 311              	.L19:
 312 0014 6A650040 		.word	1073767786
 313              		.cfi_endproc
 314              	.LFE5:
 315              		.size	Micros_Counter_ReadStatusRegister, .-Micros_Counter_ReadStatusRegister
 316              		.section	.text.Micros_Counter_ReadControlRegister,"ax",%progbits
 317              		.align	2
 318              		.global	Micros_Counter_ReadControlRegister
 319              		.thumb
 320              		.thumb_func
 321              		.type	Micros_Counter_ReadControlRegister, %function
 322              	Micros_Counter_ReadControlRegister:
 323              	.LFB6:
 265:Generated_Source\PSoC5/Micros_Counter.c **** 
 266:Generated_Source\PSoC5/Micros_Counter.c **** 
 267:Generated_Source\PSoC5/Micros_Counter.c **** #if(!Micros_Counter_ControlRegRemoved)
 268:Generated_Source\PSoC5/Micros_Counter.c **** /*******************************************************************************
 269:Generated_Source\PSoC5/Micros_Counter.c **** * Function Name: Micros_Counter_ReadControlRegister
 270:Generated_Source\PSoC5/Micros_Counter.c **** ********************************************************************************
 271:Generated_Source\PSoC5/Micros_Counter.c **** * Summary:
 272:Generated_Source\PSoC5/Micros_Counter.c **** *   Reads the control register and returns it's state. This function should use
 273:Generated_Source\PSoC5/Micros_Counter.c **** *       defined types for the bit-field information as the bits in this
 274:Generated_Source\PSoC5/Micros_Counter.c **** *       register may be permuteable.
 275:Generated_Source\PSoC5/Micros_Counter.c **** *
 276:Generated_Source\PSoC5/Micros_Counter.c **** * Parameters:  
 277:Generated_Source\PSoC5/Micros_Counter.c **** *  void
 278:Generated_Source\PSoC5/Micros_Counter.c **** *
 279:Generated_Source\PSoC5/Micros_Counter.c **** * Return: 
 280:Generated_Source\PSoC5/Micros_Counter.c **** *  (uint8) The contents of the control register
 281:Generated_Source\PSoC5/Micros_Counter.c **** *
 282:Generated_Source\PSoC5/Micros_Counter.c **** *******************************************************************************/
 283:Generated_Source\PSoC5/Micros_Counter.c **** uint8   Micros_Counter_ReadControlRegister(void) 
 284:Generated_Source\PSoC5/Micros_Counter.c **** {
 324              		.loc 1 284 0
 325              		.cfi_startproc
 326              		@ args = 0, pretend = 0, frame = 0
 327              		@ frame_needed = 1, uses_anonymous_args = 0
 328              		@ link register save eliminated.
 329 0000 80B4     		push	{r7}
 330              		.cfi_def_cfa_offset 4
 331              		.cfi_offset 7, -4
 332 0002 00AF     		add	r7, sp, #0
 333              		.cfi_def_cfa_register 7
 285:Generated_Source\PSoC5/Micros_Counter.c ****     return Micros_Counter_CONTROL;
 334              		.loc 1 285 0
 335 0004 034B     		ldr	r3, .L23
 336 0006 1B78     		ldrb	r3, [r3]
 337 0008 DBB2     		uxtb	r3, r3
 286:Generated_Source\PSoC5/Micros_Counter.c **** }
 338              		.loc 1 286 0
 339 000a 1846     		mov	r0, r3
 340 000c BD46     		mov	sp, r7
 341              		.cfi_def_cfa_register 13
ARM GAS  C:\Users\Bruger\AppData\Local\Temp\ccf0vUSk.s 			page 12


 342              		@ sp needed
 343 000e 5DF8047B 		ldr	r7, [sp], #4
 344              		.cfi_restore 7
 345              		.cfi_def_cfa_offset 0
 346 0012 7047     		bx	lr
 347              	.L24:
 348              		.align	2
 349              	.L23:
 350 0014 78650040 		.word	1073767800
 351              		.cfi_endproc
 352              	.LFE6:
 353              		.size	Micros_Counter_ReadControlRegister, .-Micros_Counter_ReadControlRegister
 354              		.section	.text.Micros_Counter_WriteControlRegister,"ax",%progbits
 355              		.align	2
 356              		.global	Micros_Counter_WriteControlRegister
 357              		.thumb
 358              		.thumb_func
 359              		.type	Micros_Counter_WriteControlRegister, %function
 360              	Micros_Counter_WriteControlRegister:
 361              	.LFB7:
 287:Generated_Source\PSoC5/Micros_Counter.c **** 
 288:Generated_Source\PSoC5/Micros_Counter.c **** 
 289:Generated_Source\PSoC5/Micros_Counter.c **** /*******************************************************************************
 290:Generated_Source\PSoC5/Micros_Counter.c **** * Function Name: Micros_Counter_WriteControlRegister
 291:Generated_Source\PSoC5/Micros_Counter.c **** ********************************************************************************
 292:Generated_Source\PSoC5/Micros_Counter.c **** * Summary:
 293:Generated_Source\PSoC5/Micros_Counter.c **** *   Sets the bit-field of the control register.  This function should use
 294:Generated_Source\PSoC5/Micros_Counter.c **** *       defined types for the bit-field information as the bits in this
 295:Generated_Source\PSoC5/Micros_Counter.c **** *       register may be permuteable.
 296:Generated_Source\PSoC5/Micros_Counter.c **** *
 297:Generated_Source\PSoC5/Micros_Counter.c **** * Parameters:  
 298:Generated_Source\PSoC5/Micros_Counter.c **** *  void
 299:Generated_Source\PSoC5/Micros_Counter.c **** *
 300:Generated_Source\PSoC5/Micros_Counter.c **** * Return: 
 301:Generated_Source\PSoC5/Micros_Counter.c **** *  (uint8) The contents of the control register
 302:Generated_Source\PSoC5/Micros_Counter.c **** *
 303:Generated_Source\PSoC5/Micros_Counter.c **** *******************************************************************************/
 304:Generated_Source\PSoC5/Micros_Counter.c **** void    Micros_Counter_WriteControlRegister(uint8 control) 
 305:Generated_Source\PSoC5/Micros_Counter.c **** {
 362              		.loc 1 305 0
 363              		.cfi_startproc
 364              		@ args = 0, pretend = 0, frame = 8
 365              		@ frame_needed = 1, uses_anonymous_args = 0
 366              		@ link register save eliminated.
 367 0000 80B4     		push	{r7}
 368              		.cfi_def_cfa_offset 4
 369              		.cfi_offset 7, -4
 370 0002 83B0     		sub	sp, sp, #12
 371              		.cfi_def_cfa_offset 16
 372 0004 00AF     		add	r7, sp, #0
 373              		.cfi_def_cfa_register 7
 374 0006 0346     		mov	r3, r0
 375 0008 FB71     		strb	r3, [r7, #7]
 306:Generated_Source\PSoC5/Micros_Counter.c ****     Micros_Counter_CONTROL = control;
 376              		.loc 1 306 0
 377 000a 044A     		ldr	r2, .L26
 378 000c FB79     		ldrb	r3, [r7, #7]
ARM GAS  C:\Users\Bruger\AppData\Local\Temp\ccf0vUSk.s 			page 13


 379 000e 1370     		strb	r3, [r2]
 307:Generated_Source\PSoC5/Micros_Counter.c **** }
 380              		.loc 1 307 0
 381 0010 0C37     		adds	r7, r7, #12
 382              		.cfi_def_cfa_offset 4
 383 0012 BD46     		mov	sp, r7
 384              		.cfi_def_cfa_register 13
 385              		@ sp needed
 386 0014 5DF8047B 		ldr	r7, [sp], #4
 387              		.cfi_restore 7
 388              		.cfi_def_cfa_offset 0
 389 0018 7047     		bx	lr
 390              	.L27:
 391 001a 00BF     		.align	2
 392              	.L26:
 393 001c 78650040 		.word	1073767800
 394              		.cfi_endproc
 395              	.LFE7:
 396              		.size	Micros_Counter_WriteControlRegister, .-Micros_Counter_WriteControlRegister
 397              		.section	.text.Micros_Counter_WriteCounter,"ax",%progbits
 398              		.align	2
 399              		.global	Micros_Counter_WriteCounter
 400              		.thumb
 401              		.thumb_func
 402              		.type	Micros_Counter_WriteCounter, %function
 403              	Micros_Counter_WriteCounter:
 404              	.LFB8:
 308:Generated_Source\PSoC5/Micros_Counter.c **** 
 309:Generated_Source\PSoC5/Micros_Counter.c **** #endif  /* (!Micros_Counter_ControlRegRemoved) */
 310:Generated_Source\PSoC5/Micros_Counter.c **** 
 311:Generated_Source\PSoC5/Micros_Counter.c **** 
 312:Generated_Source\PSoC5/Micros_Counter.c **** #if (!(Micros_Counter_UsingFixedFunction && (CY_PSOC5A)))
 313:Generated_Source\PSoC5/Micros_Counter.c **** /*******************************************************************************
 314:Generated_Source\PSoC5/Micros_Counter.c **** * Function Name: Micros_Counter_WriteCounter
 315:Generated_Source\PSoC5/Micros_Counter.c **** ********************************************************************************
 316:Generated_Source\PSoC5/Micros_Counter.c **** * Summary:
 317:Generated_Source\PSoC5/Micros_Counter.c **** *   This funtion is used to set the counter to a specific value
 318:Generated_Source\PSoC5/Micros_Counter.c **** *
 319:Generated_Source\PSoC5/Micros_Counter.c **** * Parameters:  
 320:Generated_Source\PSoC5/Micros_Counter.c **** *  counter:  New counter value. 
 321:Generated_Source\PSoC5/Micros_Counter.c **** *
 322:Generated_Source\PSoC5/Micros_Counter.c **** * Return: 
 323:Generated_Source\PSoC5/Micros_Counter.c **** *  void 
 324:Generated_Source\PSoC5/Micros_Counter.c **** *
 325:Generated_Source\PSoC5/Micros_Counter.c **** *******************************************************************************/
 326:Generated_Source\PSoC5/Micros_Counter.c **** void Micros_Counter_WriteCounter(uint32 counter) \
 327:Generated_Source\PSoC5/Micros_Counter.c ****                                    
 328:Generated_Source\PSoC5/Micros_Counter.c **** {
 405              		.loc 1 328 0
 406              		.cfi_startproc
 407              		@ args = 0, pretend = 0, frame = 8
 408              		@ frame_needed = 1, uses_anonymous_args = 0
 409              		@ link register save eliminated.
 410 0000 80B4     		push	{r7}
 411              		.cfi_def_cfa_offset 4
 412              		.cfi_offset 7, -4
 413 0002 83B0     		sub	sp, sp, #12
ARM GAS  C:\Users\Bruger\AppData\Local\Temp\ccf0vUSk.s 			page 14


 414              		.cfi_def_cfa_offset 16
 415 0004 00AF     		add	r7, sp, #0
 416              		.cfi_def_cfa_register 7
 417 0006 7860     		str	r0, [r7, #4]
 329:Generated_Source\PSoC5/Micros_Counter.c ****     #if(Micros_Counter_UsingFixedFunction)
 330:Generated_Source\PSoC5/Micros_Counter.c ****         /* assert if block is already enabled */
 331:Generated_Source\PSoC5/Micros_Counter.c ****         CYASSERT (0u == (Micros_Counter_GLOBAL_ENABLE & Micros_Counter_BLOCK_EN_MASK));
 332:Generated_Source\PSoC5/Micros_Counter.c ****         /* If block is disabled, enable it and then write the counter */
 333:Generated_Source\PSoC5/Micros_Counter.c ****         Micros_Counter_GLOBAL_ENABLE |= Micros_Counter_BLOCK_EN_MASK;
 334:Generated_Source\PSoC5/Micros_Counter.c ****         CY_SET_REG16(Micros_Counter_COUNTER_LSB_PTR, (uint16)counter);
 335:Generated_Source\PSoC5/Micros_Counter.c ****         Micros_Counter_GLOBAL_ENABLE &= ((uint8)(~Micros_Counter_BLOCK_EN_MASK));
 336:Generated_Source\PSoC5/Micros_Counter.c ****     #else
 337:Generated_Source\PSoC5/Micros_Counter.c ****         CY_SET_REG32(Micros_Counter_COUNTER_LSB_PTR, counter);
 418              		.loc 1 337 0
 419 0008 034A     		ldr	r2, .L29
 420 000a 7B68     		ldr	r3, [r7, #4]
 421 000c 1360     		str	r3, [r2]
 338:Generated_Source\PSoC5/Micros_Counter.c ****     #endif /* (Micros_Counter_UsingFixedFunction) */
 339:Generated_Source\PSoC5/Micros_Counter.c **** }
 422              		.loc 1 339 0
 423 000e 0C37     		adds	r7, r7, #12
 424              		.cfi_def_cfa_offset 4
 425 0010 BD46     		mov	sp, r7
 426              		.cfi_def_cfa_register 13
 427              		@ sp needed
 428 0012 5DF8047B 		ldr	r7, [sp], #4
 429              		.cfi_restore 7
 430              		.cfi_def_cfa_offset 0
 431 0016 7047     		bx	lr
 432              	.L30:
 433              		.align	2
 434              	.L29:
 435 0018 08650040 		.word	1073767688
 436              		.cfi_endproc
 437              	.LFE8:
 438              		.size	Micros_Counter_WriteCounter, .-Micros_Counter_WriteCounter
 439              		.section	.text.Micros_Counter_ReadCounter,"ax",%progbits
 440              		.align	2
 441              		.global	Micros_Counter_ReadCounter
 442              		.thumb
 443              		.thumb_func
 444              		.type	Micros_Counter_ReadCounter, %function
 445              	Micros_Counter_ReadCounter:
 446              	.LFB9:
 340:Generated_Source\PSoC5/Micros_Counter.c **** #endif /* (!(Micros_Counter_UsingFixedFunction && (CY_PSOC5A))) */
 341:Generated_Source\PSoC5/Micros_Counter.c **** 
 342:Generated_Source\PSoC5/Micros_Counter.c **** 
 343:Generated_Source\PSoC5/Micros_Counter.c **** /*******************************************************************************
 344:Generated_Source\PSoC5/Micros_Counter.c **** * Function Name: Micros_Counter_ReadCounter
 345:Generated_Source\PSoC5/Micros_Counter.c **** ********************************************************************************
 346:Generated_Source\PSoC5/Micros_Counter.c **** * Summary:
 347:Generated_Source\PSoC5/Micros_Counter.c **** * Returns the current value of the counter.  It doesn't matter
 348:Generated_Source\PSoC5/Micros_Counter.c **** * if the counter is enabled or running.
 349:Generated_Source\PSoC5/Micros_Counter.c **** *
 350:Generated_Source\PSoC5/Micros_Counter.c **** * Parameters:  
 351:Generated_Source\PSoC5/Micros_Counter.c **** *  void:  
 352:Generated_Source\PSoC5/Micros_Counter.c **** *
ARM GAS  C:\Users\Bruger\AppData\Local\Temp\ccf0vUSk.s 			page 15


 353:Generated_Source\PSoC5/Micros_Counter.c **** * Return: 
 354:Generated_Source\PSoC5/Micros_Counter.c **** *  (uint32) The present value of the counter.
 355:Generated_Source\PSoC5/Micros_Counter.c **** *
 356:Generated_Source\PSoC5/Micros_Counter.c **** *******************************************************************************/
 357:Generated_Source\PSoC5/Micros_Counter.c **** uint32 Micros_Counter_ReadCounter(void) 
 358:Generated_Source\PSoC5/Micros_Counter.c **** {
 447              		.loc 1 358 0
 448              		.cfi_startproc
 449              		@ args = 0, pretend = 0, frame = 0
 450              		@ frame_needed = 1, uses_anonymous_args = 0
 451              		@ link register save eliminated.
 452 0000 80B4     		push	{r7}
 453              		.cfi_def_cfa_offset 4
 454              		.cfi_offset 7, -4
 455 0002 00AF     		add	r7, sp, #0
 456              		.cfi_def_cfa_register 7
 359:Generated_Source\PSoC5/Micros_Counter.c ****     /* Force capture by reading Accumulator */
 360:Generated_Source\PSoC5/Micros_Counter.c ****     /* Must first do a software capture to be able to read the counter */
 361:Generated_Source\PSoC5/Micros_Counter.c ****     /* It is up to the user code to make sure there isn't already captured data in the FIFO */
 362:Generated_Source\PSoC5/Micros_Counter.c ****     #if(Micros_Counter_UsingFixedFunction)
 363:Generated_Source\PSoC5/Micros_Counter.c **** 		(void)CY_GET_REG16(Micros_Counter_COUNTER_LSB_PTR);
 364:Generated_Source\PSoC5/Micros_Counter.c **** 	#else
 365:Generated_Source\PSoC5/Micros_Counter.c **** 		(void)CY_GET_REG8(Micros_Counter_COUNTER_LSB_PTR_8BIT);
 457              		.loc 1 365 0
 458 0004 044B     		ldr	r3, .L33
 459 0006 1B78     		ldrb	r3, [r3]
 366:Generated_Source\PSoC5/Micros_Counter.c **** 	#endif/* (Micros_Counter_UsingFixedFunction) */
 367:Generated_Source\PSoC5/Micros_Counter.c ****     
 368:Generated_Source\PSoC5/Micros_Counter.c ****     /* Read the data from the FIFO (or capture register for Fixed Function)*/
 369:Generated_Source\PSoC5/Micros_Counter.c ****     #if(Micros_Counter_UsingFixedFunction)
 370:Generated_Source\PSoC5/Micros_Counter.c ****         return ((uint32)CY_GET_REG16(Micros_Counter_STATICCOUNT_LSB_PTR));
 371:Generated_Source\PSoC5/Micros_Counter.c ****     #else
 372:Generated_Source\PSoC5/Micros_Counter.c ****         return (CY_GET_REG32(Micros_Counter_STATICCOUNT_LSB_PTR));
 460              		.loc 1 372 0
 461 0008 044B     		ldr	r3, .L33+4
 462 000a 1B68     		ldr	r3, [r3]
 373:Generated_Source\PSoC5/Micros_Counter.c ****     #endif /* (Micros_Counter_UsingFixedFunction) */
 374:Generated_Source\PSoC5/Micros_Counter.c **** }
 463              		.loc 1 374 0
 464 000c 1846     		mov	r0, r3
 465 000e BD46     		mov	sp, r7
 466              		.cfi_def_cfa_register 13
 467              		@ sp needed
 468 0010 5DF8047B 		ldr	r7, [sp], #4
 469              		.cfi_restore 7
 470              		.cfi_def_cfa_offset 0
 471 0014 7047     		bx	lr
 472              	.L34:
 473 0016 00BF     		.align	2
 474              	.L33:
 475 0018 08650040 		.word	1073767688
 476 001c 48650040 		.word	1073767752
 477              		.cfi_endproc
 478              	.LFE9:
 479              		.size	Micros_Counter_ReadCounter, .-Micros_Counter_ReadCounter
 480              		.section	.text.Micros_Counter_ReadCapture,"ax",%progbits
 481              		.align	2
ARM GAS  C:\Users\Bruger\AppData\Local\Temp\ccf0vUSk.s 			page 16


 482              		.global	Micros_Counter_ReadCapture
 483              		.thumb
 484              		.thumb_func
 485              		.type	Micros_Counter_ReadCapture, %function
 486              	Micros_Counter_ReadCapture:
 487              	.LFB10:
 375:Generated_Source\PSoC5/Micros_Counter.c **** 
 376:Generated_Source\PSoC5/Micros_Counter.c **** 
 377:Generated_Source\PSoC5/Micros_Counter.c **** /*******************************************************************************
 378:Generated_Source\PSoC5/Micros_Counter.c **** * Function Name: Micros_Counter_ReadCapture
 379:Generated_Source\PSoC5/Micros_Counter.c **** ********************************************************************************
 380:Generated_Source\PSoC5/Micros_Counter.c **** * Summary:
 381:Generated_Source\PSoC5/Micros_Counter.c **** *   This function returns the last value captured.
 382:Generated_Source\PSoC5/Micros_Counter.c **** *
 383:Generated_Source\PSoC5/Micros_Counter.c **** * Parameters:  
 384:Generated_Source\PSoC5/Micros_Counter.c **** *  void
 385:Generated_Source\PSoC5/Micros_Counter.c **** *
 386:Generated_Source\PSoC5/Micros_Counter.c **** * Return: 
 387:Generated_Source\PSoC5/Micros_Counter.c **** *  (uint32) Present Capture value.
 388:Generated_Source\PSoC5/Micros_Counter.c **** *
 389:Generated_Source\PSoC5/Micros_Counter.c **** *******************************************************************************/
 390:Generated_Source\PSoC5/Micros_Counter.c **** uint32 Micros_Counter_ReadCapture(void) 
 391:Generated_Source\PSoC5/Micros_Counter.c **** {
 488              		.loc 1 391 0
 489              		.cfi_startproc
 490              		@ args = 0, pretend = 0, frame = 0
 491              		@ frame_needed = 1, uses_anonymous_args = 0
 492              		@ link register save eliminated.
 493 0000 80B4     		push	{r7}
 494              		.cfi_def_cfa_offset 4
 495              		.cfi_offset 7, -4
 496 0002 00AF     		add	r7, sp, #0
 497              		.cfi_def_cfa_register 7
 392:Generated_Source\PSoC5/Micros_Counter.c ****     #if(Micros_Counter_UsingFixedFunction)
 393:Generated_Source\PSoC5/Micros_Counter.c ****         return ((uint32)CY_GET_REG16(Micros_Counter_STATICCOUNT_LSB_PTR));
 394:Generated_Source\PSoC5/Micros_Counter.c ****     #else
 395:Generated_Source\PSoC5/Micros_Counter.c ****         return (CY_GET_REG32(Micros_Counter_STATICCOUNT_LSB_PTR));
 498              		.loc 1 395 0
 499 0004 034B     		ldr	r3, .L37
 500 0006 1B68     		ldr	r3, [r3]
 396:Generated_Source\PSoC5/Micros_Counter.c ****     #endif /* (Micros_Counter_UsingFixedFunction) */
 397:Generated_Source\PSoC5/Micros_Counter.c **** }
 501              		.loc 1 397 0
 502 0008 1846     		mov	r0, r3
 503 000a BD46     		mov	sp, r7
 504              		.cfi_def_cfa_register 13
 505              		@ sp needed
 506 000c 5DF8047B 		ldr	r7, [sp], #4
 507              		.cfi_restore 7
 508              		.cfi_def_cfa_offset 0
 509 0010 7047     		bx	lr
 510              	.L38:
 511 0012 00BF     		.align	2
 512              	.L37:
 513 0014 48650040 		.word	1073767752
 514              		.cfi_endproc
 515              	.LFE10:
ARM GAS  C:\Users\Bruger\AppData\Local\Temp\ccf0vUSk.s 			page 17


 516              		.size	Micros_Counter_ReadCapture, .-Micros_Counter_ReadCapture
 517              		.section	.text.Micros_Counter_WritePeriod,"ax",%progbits
 518              		.align	2
 519              		.global	Micros_Counter_WritePeriod
 520              		.thumb
 521              		.thumb_func
 522              		.type	Micros_Counter_WritePeriod, %function
 523              	Micros_Counter_WritePeriod:
 524              	.LFB11:
 398:Generated_Source\PSoC5/Micros_Counter.c **** 
 399:Generated_Source\PSoC5/Micros_Counter.c **** 
 400:Generated_Source\PSoC5/Micros_Counter.c **** /*******************************************************************************
 401:Generated_Source\PSoC5/Micros_Counter.c **** * Function Name: Micros_Counter_WritePeriod
 402:Generated_Source\PSoC5/Micros_Counter.c **** ********************************************************************************
 403:Generated_Source\PSoC5/Micros_Counter.c **** * Summary:
 404:Generated_Source\PSoC5/Micros_Counter.c **** * Changes the period of the counter.  The new period 
 405:Generated_Source\PSoC5/Micros_Counter.c **** * will be loaded the next time terminal count is detected.
 406:Generated_Source\PSoC5/Micros_Counter.c **** *
 407:Generated_Source\PSoC5/Micros_Counter.c **** * Parameters:  
 408:Generated_Source\PSoC5/Micros_Counter.c **** *  period: (uint32) A value of 0 will result in
 409:Generated_Source\PSoC5/Micros_Counter.c **** *         the counter remaining at zero.  
 410:Generated_Source\PSoC5/Micros_Counter.c **** *
 411:Generated_Source\PSoC5/Micros_Counter.c **** * Return: 
 412:Generated_Source\PSoC5/Micros_Counter.c **** *  void
 413:Generated_Source\PSoC5/Micros_Counter.c **** *
 414:Generated_Source\PSoC5/Micros_Counter.c **** *******************************************************************************/
 415:Generated_Source\PSoC5/Micros_Counter.c **** void Micros_Counter_WritePeriod(uint32 period) 
 416:Generated_Source\PSoC5/Micros_Counter.c **** {
 525              		.loc 1 416 0
 526              		.cfi_startproc
 527              		@ args = 0, pretend = 0, frame = 8
 528              		@ frame_needed = 1, uses_anonymous_args = 0
 529              		@ link register save eliminated.
 530 0000 80B4     		push	{r7}
 531              		.cfi_def_cfa_offset 4
 532              		.cfi_offset 7, -4
 533 0002 83B0     		sub	sp, sp, #12
 534              		.cfi_def_cfa_offset 16
 535 0004 00AF     		add	r7, sp, #0
 536              		.cfi_def_cfa_register 7
 537 0006 7860     		str	r0, [r7, #4]
 417:Generated_Source\PSoC5/Micros_Counter.c ****     #if(Micros_Counter_UsingFixedFunction)
 418:Generated_Source\PSoC5/Micros_Counter.c ****         CY_SET_REG16(Micros_Counter_PERIOD_LSB_PTR,(uint16)period);
 419:Generated_Source\PSoC5/Micros_Counter.c ****     #else
 420:Generated_Source\PSoC5/Micros_Counter.c ****         CY_SET_REG32(Micros_Counter_PERIOD_LSB_PTR, period);
 538              		.loc 1 420 0
 539 0008 034A     		ldr	r2, .L40
 540 000a 7B68     		ldr	r3, [r7, #4]
 541 000c 1360     		str	r3, [r2]
 421:Generated_Source\PSoC5/Micros_Counter.c ****     #endif /* (Micros_Counter_UsingFixedFunction) */
 422:Generated_Source\PSoC5/Micros_Counter.c **** }
 542              		.loc 1 422 0
 543 000e 0C37     		adds	r7, r7, #12
 544              		.cfi_def_cfa_offset 4
 545 0010 BD46     		mov	sp, r7
 546              		.cfi_def_cfa_register 13
 547              		@ sp needed
ARM GAS  C:\Users\Bruger\AppData\Local\Temp\ccf0vUSk.s 			page 18


 548 0012 5DF8047B 		ldr	r7, [sp], #4
 549              		.cfi_restore 7
 550              		.cfi_def_cfa_offset 0
 551 0016 7047     		bx	lr
 552              	.L41:
 553              		.align	2
 554              	.L40:
 555 0018 28650040 		.word	1073767720
 556              		.cfi_endproc
 557              	.LFE11:
 558              		.size	Micros_Counter_WritePeriod, .-Micros_Counter_WritePeriod
 559              		.section	.text.Micros_Counter_ReadPeriod,"ax",%progbits
 560              		.align	2
 561              		.global	Micros_Counter_ReadPeriod
 562              		.thumb
 563              		.thumb_func
 564              		.type	Micros_Counter_ReadPeriod, %function
 565              	Micros_Counter_ReadPeriod:
 566              	.LFB12:
 423:Generated_Source\PSoC5/Micros_Counter.c **** 
 424:Generated_Source\PSoC5/Micros_Counter.c **** 
 425:Generated_Source\PSoC5/Micros_Counter.c **** /*******************************************************************************
 426:Generated_Source\PSoC5/Micros_Counter.c **** * Function Name: Micros_Counter_ReadPeriod
 427:Generated_Source\PSoC5/Micros_Counter.c **** ********************************************************************************
 428:Generated_Source\PSoC5/Micros_Counter.c **** * Summary:
 429:Generated_Source\PSoC5/Micros_Counter.c **** * Reads the current period value without affecting counter operation.
 430:Generated_Source\PSoC5/Micros_Counter.c **** *
 431:Generated_Source\PSoC5/Micros_Counter.c **** * Parameters:  
 432:Generated_Source\PSoC5/Micros_Counter.c **** *  void:  
 433:Generated_Source\PSoC5/Micros_Counter.c **** *
 434:Generated_Source\PSoC5/Micros_Counter.c **** * Return: 
 435:Generated_Source\PSoC5/Micros_Counter.c **** *  (uint32) Present period value.
 436:Generated_Source\PSoC5/Micros_Counter.c **** *
 437:Generated_Source\PSoC5/Micros_Counter.c **** *******************************************************************************/
 438:Generated_Source\PSoC5/Micros_Counter.c **** uint32 Micros_Counter_ReadPeriod(void) 
 439:Generated_Source\PSoC5/Micros_Counter.c **** {
 567              		.loc 1 439 0
 568              		.cfi_startproc
 569              		@ args = 0, pretend = 0, frame = 0
 570              		@ frame_needed = 1, uses_anonymous_args = 0
 571              		@ link register save eliminated.
 572 0000 80B4     		push	{r7}
 573              		.cfi_def_cfa_offset 4
 574              		.cfi_offset 7, -4
 575 0002 00AF     		add	r7, sp, #0
 576              		.cfi_def_cfa_register 7
 440:Generated_Source\PSoC5/Micros_Counter.c ****     #if(Micros_Counter_UsingFixedFunction)
 441:Generated_Source\PSoC5/Micros_Counter.c ****         return ((uint32)CY_GET_REG16(Micros_Counter_PERIOD_LSB_PTR));
 442:Generated_Source\PSoC5/Micros_Counter.c ****     #else
 443:Generated_Source\PSoC5/Micros_Counter.c ****         return (CY_GET_REG32(Micros_Counter_PERIOD_LSB_PTR));
 577              		.loc 1 443 0
 578 0004 034B     		ldr	r3, .L44
 579 0006 1B68     		ldr	r3, [r3]
 444:Generated_Source\PSoC5/Micros_Counter.c ****     #endif /* (Micros_Counter_UsingFixedFunction) */
 445:Generated_Source\PSoC5/Micros_Counter.c **** }
 580              		.loc 1 445 0
 581 0008 1846     		mov	r0, r3
ARM GAS  C:\Users\Bruger\AppData\Local\Temp\ccf0vUSk.s 			page 19


 582 000a BD46     		mov	sp, r7
 583              		.cfi_def_cfa_register 13
 584              		@ sp needed
 585 000c 5DF8047B 		ldr	r7, [sp], #4
 586              		.cfi_restore 7
 587              		.cfi_def_cfa_offset 0
 588 0010 7047     		bx	lr
 589              	.L45:
 590 0012 00BF     		.align	2
 591              	.L44:
 592 0014 28650040 		.word	1073767720
 593              		.cfi_endproc
 594              	.LFE12:
 595              		.size	Micros_Counter_ReadPeriod, .-Micros_Counter_ReadPeriod
 596              		.section	.text.Micros_Counter_WriteCompare,"ax",%progbits
 597              		.align	2
 598              		.global	Micros_Counter_WriteCompare
 599              		.thumb
 600              		.thumb_func
 601              		.type	Micros_Counter_WriteCompare, %function
 602              	Micros_Counter_WriteCompare:
 603              	.LFB13:
 446:Generated_Source\PSoC5/Micros_Counter.c **** 
 447:Generated_Source\PSoC5/Micros_Counter.c **** 
 448:Generated_Source\PSoC5/Micros_Counter.c **** #if (!Micros_Counter_UsingFixedFunction)
 449:Generated_Source\PSoC5/Micros_Counter.c **** /*******************************************************************************
 450:Generated_Source\PSoC5/Micros_Counter.c **** * Function Name: Micros_Counter_WriteCompare
 451:Generated_Source\PSoC5/Micros_Counter.c **** ********************************************************************************
 452:Generated_Source\PSoC5/Micros_Counter.c **** * Summary:
 453:Generated_Source\PSoC5/Micros_Counter.c **** * Changes the compare value.  The compare output will 
 454:Generated_Source\PSoC5/Micros_Counter.c **** * reflect the new value on the next UDB clock.  The compare output will be 
 455:Generated_Source\PSoC5/Micros_Counter.c **** * driven high when the present counter value compares true based on the 
 456:Generated_Source\PSoC5/Micros_Counter.c **** * configured compare mode setting. 
 457:Generated_Source\PSoC5/Micros_Counter.c **** *
 458:Generated_Source\PSoC5/Micros_Counter.c **** * Parameters:  
 459:Generated_Source\PSoC5/Micros_Counter.c **** *  Compare:  New compare value. 
 460:Generated_Source\PSoC5/Micros_Counter.c **** *
 461:Generated_Source\PSoC5/Micros_Counter.c **** * Return: 
 462:Generated_Source\PSoC5/Micros_Counter.c **** *  void
 463:Generated_Source\PSoC5/Micros_Counter.c **** *
 464:Generated_Source\PSoC5/Micros_Counter.c **** *******************************************************************************/
 465:Generated_Source\PSoC5/Micros_Counter.c **** void Micros_Counter_WriteCompare(uint32 compare) \
 466:Generated_Source\PSoC5/Micros_Counter.c ****                                    
 467:Generated_Source\PSoC5/Micros_Counter.c **** {
 604              		.loc 1 467 0
 605              		.cfi_startproc
 606              		@ args = 0, pretend = 0, frame = 8
 607              		@ frame_needed = 1, uses_anonymous_args = 0
 608              		@ link register save eliminated.
 609 0000 80B4     		push	{r7}
 610              		.cfi_def_cfa_offset 4
 611              		.cfi_offset 7, -4
 612 0002 83B0     		sub	sp, sp, #12
 613              		.cfi_def_cfa_offset 16
 614 0004 00AF     		add	r7, sp, #0
 615              		.cfi_def_cfa_register 7
 616 0006 7860     		str	r0, [r7, #4]
ARM GAS  C:\Users\Bruger\AppData\Local\Temp\ccf0vUSk.s 			page 20


 468:Generated_Source\PSoC5/Micros_Counter.c ****     #if(Micros_Counter_UsingFixedFunction)
 469:Generated_Source\PSoC5/Micros_Counter.c ****         CY_SET_REG16(Micros_Counter_COMPARE_LSB_PTR, (uint16)compare);
 470:Generated_Source\PSoC5/Micros_Counter.c ****     #else
 471:Generated_Source\PSoC5/Micros_Counter.c ****         CY_SET_REG32(Micros_Counter_COMPARE_LSB_PTR, compare);
 617              		.loc 1 471 0
 618 0008 034A     		ldr	r2, .L47
 619 000a 7B68     		ldr	r3, [r7, #4]
 620 000c 1360     		str	r3, [r2]
 472:Generated_Source\PSoC5/Micros_Counter.c ****     #endif /* (Micros_Counter_UsingFixedFunction) */
 473:Generated_Source\PSoC5/Micros_Counter.c **** }
 621              		.loc 1 473 0
 622 000e 0C37     		adds	r7, r7, #12
 623              		.cfi_def_cfa_offset 4
 624 0010 BD46     		mov	sp, r7
 625              		.cfi_def_cfa_register 13
 626              		@ sp needed
 627 0012 5DF8047B 		ldr	r7, [sp], #4
 628              		.cfi_restore 7
 629              		.cfi_def_cfa_offset 0
 630 0016 7047     		bx	lr
 631              	.L48:
 632              		.align	2
 633              	.L47:
 634 0018 38650040 		.word	1073767736
 635              		.cfi_endproc
 636              	.LFE13:
 637              		.size	Micros_Counter_WriteCompare, .-Micros_Counter_WriteCompare
 638              		.section	.text.Micros_Counter_ReadCompare,"ax",%progbits
 639              		.align	2
 640              		.global	Micros_Counter_ReadCompare
 641              		.thumb
 642              		.thumb_func
 643              		.type	Micros_Counter_ReadCompare, %function
 644              	Micros_Counter_ReadCompare:
 645              	.LFB14:
 474:Generated_Source\PSoC5/Micros_Counter.c **** 
 475:Generated_Source\PSoC5/Micros_Counter.c **** 
 476:Generated_Source\PSoC5/Micros_Counter.c **** /*******************************************************************************
 477:Generated_Source\PSoC5/Micros_Counter.c **** * Function Name: Micros_Counter_ReadCompare
 478:Generated_Source\PSoC5/Micros_Counter.c **** ********************************************************************************
 479:Generated_Source\PSoC5/Micros_Counter.c **** * Summary:
 480:Generated_Source\PSoC5/Micros_Counter.c **** * Returns the compare value.
 481:Generated_Source\PSoC5/Micros_Counter.c **** *
 482:Generated_Source\PSoC5/Micros_Counter.c **** * Parameters:  
 483:Generated_Source\PSoC5/Micros_Counter.c **** *  void:
 484:Generated_Source\PSoC5/Micros_Counter.c **** *
 485:Generated_Source\PSoC5/Micros_Counter.c **** * Return: 
 486:Generated_Source\PSoC5/Micros_Counter.c **** *  (uint32) Present compare value.
 487:Generated_Source\PSoC5/Micros_Counter.c **** *
 488:Generated_Source\PSoC5/Micros_Counter.c **** *******************************************************************************/
 489:Generated_Source\PSoC5/Micros_Counter.c **** uint32 Micros_Counter_ReadCompare(void) 
 490:Generated_Source\PSoC5/Micros_Counter.c **** {
 646              		.loc 1 490 0
 647              		.cfi_startproc
 648              		@ args = 0, pretend = 0, frame = 0
 649              		@ frame_needed = 1, uses_anonymous_args = 0
 650              		@ link register save eliminated.
ARM GAS  C:\Users\Bruger\AppData\Local\Temp\ccf0vUSk.s 			page 21


 651 0000 80B4     		push	{r7}
 652              		.cfi_def_cfa_offset 4
 653              		.cfi_offset 7, -4
 654 0002 00AF     		add	r7, sp, #0
 655              		.cfi_def_cfa_register 7
 491:Generated_Source\PSoC5/Micros_Counter.c ****     return (CY_GET_REG32(Micros_Counter_COMPARE_LSB_PTR));
 656              		.loc 1 491 0
 657 0004 034B     		ldr	r3, .L51
 658 0006 1B68     		ldr	r3, [r3]
 492:Generated_Source\PSoC5/Micros_Counter.c **** }
 659              		.loc 1 492 0
 660 0008 1846     		mov	r0, r3
 661 000a BD46     		mov	sp, r7
 662              		.cfi_def_cfa_register 13
 663              		@ sp needed
 664 000c 5DF8047B 		ldr	r7, [sp], #4
 665              		.cfi_restore 7
 666              		.cfi_def_cfa_offset 0
 667 0010 7047     		bx	lr
 668              	.L52:
 669 0012 00BF     		.align	2
 670              	.L51:
 671 0014 38650040 		.word	1073767736
 672              		.cfi_endproc
 673              	.LFE14:
 674              		.size	Micros_Counter_ReadCompare, .-Micros_Counter_ReadCompare
 675              		.section	.text.Micros_Counter_ClearFIFO,"ax",%progbits
 676              		.align	2
 677              		.global	Micros_Counter_ClearFIFO
 678              		.thumb
 679              		.thumb_func
 680              		.type	Micros_Counter_ClearFIFO, %function
 681              	Micros_Counter_ClearFIFO:
 682              	.LFB15:
 493:Generated_Source\PSoC5/Micros_Counter.c **** 
 494:Generated_Source\PSoC5/Micros_Counter.c **** 
 495:Generated_Source\PSoC5/Micros_Counter.c **** #if (Micros_Counter_COMPARE_MODE_SOFTWARE)
 496:Generated_Source\PSoC5/Micros_Counter.c **** /*******************************************************************************
 497:Generated_Source\PSoC5/Micros_Counter.c **** * Function Name: Micros_Counter_SetCompareMode
 498:Generated_Source\PSoC5/Micros_Counter.c **** ********************************************************************************
 499:Generated_Source\PSoC5/Micros_Counter.c **** * Summary:
 500:Generated_Source\PSoC5/Micros_Counter.c **** *  Sets the software controlled Compare Mode.
 501:Generated_Source\PSoC5/Micros_Counter.c **** *
 502:Generated_Source\PSoC5/Micros_Counter.c **** * Parameters:
 503:Generated_Source\PSoC5/Micros_Counter.c **** *  compareMode:  Compare Mode Enumerated Type.
 504:Generated_Source\PSoC5/Micros_Counter.c **** *
 505:Generated_Source\PSoC5/Micros_Counter.c **** * Return:
 506:Generated_Source\PSoC5/Micros_Counter.c **** *  void
 507:Generated_Source\PSoC5/Micros_Counter.c **** *
 508:Generated_Source\PSoC5/Micros_Counter.c **** *******************************************************************************/
 509:Generated_Source\PSoC5/Micros_Counter.c **** void Micros_Counter_SetCompareMode(uint8 compareMode) 
 510:Generated_Source\PSoC5/Micros_Counter.c **** {
 511:Generated_Source\PSoC5/Micros_Counter.c ****     /* Clear the compare mode bits in the control register */
 512:Generated_Source\PSoC5/Micros_Counter.c ****     Micros_Counter_CONTROL &= ((uint8)(~Micros_Counter_CTRL_CMPMODE_MASK));
 513:Generated_Source\PSoC5/Micros_Counter.c ****     
 514:Generated_Source\PSoC5/Micros_Counter.c ****     /* Write the new setting */
 515:Generated_Source\PSoC5/Micros_Counter.c ****     Micros_Counter_CONTROL |= compareMode;
ARM GAS  C:\Users\Bruger\AppData\Local\Temp\ccf0vUSk.s 			page 22


 516:Generated_Source\PSoC5/Micros_Counter.c **** }
 517:Generated_Source\PSoC5/Micros_Counter.c **** #endif  /* (Micros_Counter_COMPARE_MODE_SOFTWARE) */
 518:Generated_Source\PSoC5/Micros_Counter.c **** 
 519:Generated_Source\PSoC5/Micros_Counter.c **** 
 520:Generated_Source\PSoC5/Micros_Counter.c **** #if (Micros_Counter_CAPTURE_MODE_SOFTWARE)
 521:Generated_Source\PSoC5/Micros_Counter.c **** /*******************************************************************************
 522:Generated_Source\PSoC5/Micros_Counter.c **** * Function Name: Micros_Counter_SetCaptureMode
 523:Generated_Source\PSoC5/Micros_Counter.c **** ********************************************************************************
 524:Generated_Source\PSoC5/Micros_Counter.c **** * Summary:
 525:Generated_Source\PSoC5/Micros_Counter.c **** *  Sets the software controlled Capture Mode.
 526:Generated_Source\PSoC5/Micros_Counter.c **** *
 527:Generated_Source\PSoC5/Micros_Counter.c **** * Parameters:
 528:Generated_Source\PSoC5/Micros_Counter.c **** *  captureMode:  Capture Mode Enumerated Type.
 529:Generated_Source\PSoC5/Micros_Counter.c **** *
 530:Generated_Source\PSoC5/Micros_Counter.c **** * Return:
 531:Generated_Source\PSoC5/Micros_Counter.c **** *  void
 532:Generated_Source\PSoC5/Micros_Counter.c **** *
 533:Generated_Source\PSoC5/Micros_Counter.c **** *******************************************************************************/
 534:Generated_Source\PSoC5/Micros_Counter.c **** void Micros_Counter_SetCaptureMode(uint8 captureMode) 
 535:Generated_Source\PSoC5/Micros_Counter.c **** {
 536:Generated_Source\PSoC5/Micros_Counter.c ****     /* Clear the capture mode bits in the control register */
 537:Generated_Source\PSoC5/Micros_Counter.c ****     Micros_Counter_CONTROL &= ((uint8)(~Micros_Counter_CTRL_CAPMODE_MASK));
 538:Generated_Source\PSoC5/Micros_Counter.c ****     
 539:Generated_Source\PSoC5/Micros_Counter.c ****     /* Write the new setting */
 540:Generated_Source\PSoC5/Micros_Counter.c ****     Micros_Counter_CONTROL |= ((uint8)((uint8)captureMode << Micros_Counter_CTRL_CAPMODE0_SHIFT));
 541:Generated_Source\PSoC5/Micros_Counter.c **** }
 542:Generated_Source\PSoC5/Micros_Counter.c **** #endif  /* (Micros_Counter_CAPTURE_MODE_SOFTWARE) */
 543:Generated_Source\PSoC5/Micros_Counter.c **** 
 544:Generated_Source\PSoC5/Micros_Counter.c **** 
 545:Generated_Source\PSoC5/Micros_Counter.c **** /*******************************************************************************
 546:Generated_Source\PSoC5/Micros_Counter.c **** * Function Name: Micros_Counter_ClearFIFO
 547:Generated_Source\PSoC5/Micros_Counter.c **** ********************************************************************************
 548:Generated_Source\PSoC5/Micros_Counter.c **** * Summary:
 549:Generated_Source\PSoC5/Micros_Counter.c **** *   This function clears all capture data from the capture FIFO
 550:Generated_Source\PSoC5/Micros_Counter.c **** *
 551:Generated_Source\PSoC5/Micros_Counter.c **** * Parameters:  
 552:Generated_Source\PSoC5/Micros_Counter.c **** *  void:
 553:Generated_Source\PSoC5/Micros_Counter.c **** *
 554:Generated_Source\PSoC5/Micros_Counter.c **** * Return: 
 555:Generated_Source\PSoC5/Micros_Counter.c **** *  None
 556:Generated_Source\PSoC5/Micros_Counter.c **** *
 557:Generated_Source\PSoC5/Micros_Counter.c **** *******************************************************************************/
 558:Generated_Source\PSoC5/Micros_Counter.c **** void Micros_Counter_ClearFIFO(void) 
 559:Generated_Source\PSoC5/Micros_Counter.c **** {
 683              		.loc 1 559 0
 684              		.cfi_startproc
 685              		@ args = 0, pretend = 0, frame = 0
 686              		@ frame_needed = 1, uses_anonymous_args = 0
 687 0000 80B5     		push	{r7, lr}
 688              		.cfi_def_cfa_offset 8
 689              		.cfi_offset 7, -8
 690              		.cfi_offset 14, -4
 691 0002 00AF     		add	r7, sp, #0
 692              		.cfi_def_cfa_register 7
 560:Generated_Source\PSoC5/Micros_Counter.c **** 
 561:Generated_Source\PSoC5/Micros_Counter.c ****     while(0u != (Micros_Counter_ReadStatusRegister() & Micros_Counter_STATUS_FIFONEMP))
 693              		.loc 1 561 0
ARM GAS  C:\Users\Bruger\AppData\Local\Temp\ccf0vUSk.s 			page 23


 694 0004 01E0     		b	.L54
 695              	.L55:
 562:Generated_Source\PSoC5/Micros_Counter.c ****     {
 563:Generated_Source\PSoC5/Micros_Counter.c ****         (void)Micros_Counter_ReadCapture();
 696              		.loc 1 563 0
 697 0006 FFF7FEFF 		bl	Micros_Counter_ReadCapture
 698              	.L54:
 561:Generated_Source\PSoC5/Micros_Counter.c ****     {
 699              		.loc 1 561 0
 700 000a FFF7FEFF 		bl	Micros_Counter_ReadStatusRegister
 701 000e 0346     		mov	r3, r0
 702 0010 03F04003 		and	r3, r3, #64
 703 0014 002B     		cmp	r3, #0
 704 0016 F6D1     		bne	.L55
 564:Generated_Source\PSoC5/Micros_Counter.c ****     }
 565:Generated_Source\PSoC5/Micros_Counter.c **** 
 566:Generated_Source\PSoC5/Micros_Counter.c **** }
 705              		.loc 1 566 0
 706 0018 80BD     		pop	{r7, pc}
 707              		.cfi_endproc
 708              	.LFE15:
 709              		.size	Micros_Counter_ClearFIFO, .-Micros_Counter_ClearFIFO
 710 001a 00BF     		.text
 711              	.Letext0:
 712              		.file 2 "Generated_Source\\PSoC5\\cytypes.h"