ARM GAS  C:\Users\Bruger\AppData\Local\Temp\ccTshBWy.s 			page 1


   1              		.syntax unified
   2              		.cpu cortex-m3
   3              		.fpu softvfp
   4              		.eabi_attribute 20, 1
   5              		.eabi_attribute 21, 1
   6              		.eabi_attribute 23, 3
   7              		.eabi_attribute 24, 1
   8              		.eabi_attribute 25, 1
   9              		.eabi_attribute 26, 1
  10              		.eabi_attribute 30, 6
  11              		.eabi_attribute 34, 1
  12              		.eabi_attribute 18, 4
  13              		.thumb
  14              		.file	"P3.c"
  15              		.text
  16              	.Ltext0:
  17              		.cfi_sections	.debug_frame
  18              		.section	.text.P3_Write,"ax",%progbits
  19              		.align	2
  20              		.global	P3_Write
  21              		.thumb
  22              		.thumb_func
  23              		.type	P3_Write, %function
  24              	P3_Write:
  25              	.LFB0:
  26              		.file 1 "Generated_Source\\PSoC5\\P3.c"
   1:Generated_Source\PSoC5/P3.c **** /*******************************************************************************
   2:Generated_Source\PSoC5/P3.c **** * File Name: P3.c  
   3:Generated_Source\PSoC5/P3.c **** * Version 2.20
   4:Generated_Source\PSoC5/P3.c **** *
   5:Generated_Source\PSoC5/P3.c **** * Description:
   6:Generated_Source\PSoC5/P3.c **** *  This file contains API to enable firmware control of a Pins component.
   7:Generated_Source\PSoC5/P3.c **** *
   8:Generated_Source\PSoC5/P3.c **** * Note:
   9:Generated_Source\PSoC5/P3.c **** *
  10:Generated_Source\PSoC5/P3.c **** ********************************************************************************
  11:Generated_Source\PSoC5/P3.c **** * Copyright 2008-2015, Cypress Semiconductor Corporation.  All rights reserved.
  12:Generated_Source\PSoC5/P3.c **** * You may use this file only in accordance with the license, terms, conditions, 
  13:Generated_Source\PSoC5/P3.c **** * disclaimers, and limitations in the end user license agreement accompanying 
  14:Generated_Source\PSoC5/P3.c **** * the software package with which this file was provided.
  15:Generated_Source\PSoC5/P3.c **** *******************************************************************************/
  16:Generated_Source\PSoC5/P3.c **** 
  17:Generated_Source\PSoC5/P3.c **** #include "cytypes.h"
  18:Generated_Source\PSoC5/P3.c **** #include "P3.h"
  19:Generated_Source\PSoC5/P3.c **** 
  20:Generated_Source\PSoC5/P3.c **** /* APIs are not generated for P15[7:6] on PSoC 5 */
  21:Generated_Source\PSoC5/P3.c **** #if !(CY_PSOC5A &&\
  22:Generated_Source\PSoC5/P3.c **** 	 P3__PORT == 15 && ((P3__MASK & 0xC0) != 0))
  23:Generated_Source\PSoC5/P3.c **** 
  24:Generated_Source\PSoC5/P3.c **** 
  25:Generated_Source\PSoC5/P3.c **** /*******************************************************************************
  26:Generated_Source\PSoC5/P3.c **** * Function Name: P3_Write
  27:Generated_Source\PSoC5/P3.c **** ****************************************************************************//**
  28:Generated_Source\PSoC5/P3.c **** *
  29:Generated_Source\PSoC5/P3.c **** * \brief Writes the value to the physical port (data output register), masking
  30:Generated_Source\PSoC5/P3.c **** *  and shifting the bits appropriately. 
  31:Generated_Source\PSoC5/P3.c **** *
ARM GAS  C:\Users\Bruger\AppData\Local\Temp\ccTshBWy.s 			page 2


  32:Generated_Source\PSoC5/P3.c **** * The data output register controls the signal applied to the physical pin in 
  33:Generated_Source\PSoC5/P3.c **** * conjunction with the drive mode parameter. This function avoids changing 
  34:Generated_Source\PSoC5/P3.c **** * other bits in the port by using the appropriate method (read-modify-write or
  35:Generated_Source\PSoC5/P3.c **** * bit banding).
  36:Generated_Source\PSoC5/P3.c **** *
  37:Generated_Source\PSoC5/P3.c **** * <b>Note</b> This function should not be used on a hardware digital output pin 
  38:Generated_Source\PSoC5/P3.c **** * as it is driven by the hardware signal attached to it.
  39:Generated_Source\PSoC5/P3.c **** *
  40:Generated_Source\PSoC5/P3.c **** * \param value
  41:Generated_Source\PSoC5/P3.c **** *  Value to write to the component instance.
  42:Generated_Source\PSoC5/P3.c **** *
  43:Generated_Source\PSoC5/P3.c **** * \return 
  44:Generated_Source\PSoC5/P3.c **** *  None 
  45:Generated_Source\PSoC5/P3.c **** *
  46:Generated_Source\PSoC5/P3.c **** * \sideeffect
  47:Generated_Source\PSoC5/P3.c **** *  If you use read-modify-write operations that are not atomic; the Interrupt 
  48:Generated_Source\PSoC5/P3.c **** *  Service Routines (ISR) can cause corruption of this function. An ISR that 
  49:Generated_Source\PSoC5/P3.c **** *  interrupts this function and performs writes to the Pins component data 
  50:Generated_Source\PSoC5/P3.c **** *  register can cause corrupted port data. To avoid this issue, you should 
  51:Generated_Source\PSoC5/P3.c **** *  either use the Per-Pin APIs (primary method) or disable interrupts around 
  52:Generated_Source\PSoC5/P3.c **** *  this function.
  53:Generated_Source\PSoC5/P3.c **** *
  54:Generated_Source\PSoC5/P3.c **** * \funcusage
  55:Generated_Source\PSoC5/P3.c **** *  \snippet P3_SUT.c usage_P3_Write
  56:Generated_Source\PSoC5/P3.c **** *******************************************************************************/
  57:Generated_Source\PSoC5/P3.c **** void P3_Write(uint8 value)
  58:Generated_Source\PSoC5/P3.c **** {
  27              		.loc 1 58 0
  28              		.cfi_startproc
  29              		@ args = 0, pretend = 0, frame = 16
  30              		@ frame_needed = 1, uses_anonymous_args = 0
  31              		@ link register save eliminated.
  32 0000 80B4     		push	{r7}
  33              		.cfi_def_cfa_offset 4
  34              		.cfi_offset 7, -4
  35 0002 85B0     		sub	sp, sp, #20
  36              		.cfi_def_cfa_offset 24
  37 0004 00AF     		add	r7, sp, #0
  38              		.cfi_def_cfa_register 7
  39 0006 0346     		mov	r3, r0
  40 0008 FB71     		strb	r3, [r7, #7]
  59:Generated_Source\PSoC5/P3.c ****     uint8 staticBits = (P3_DR & (uint8)(~P3_MASK));
  41              		.loc 1 59 0
  42 000a 074B     		ldr	r3, .L2
  43 000c 1B78     		ldrb	r3, [r3]
  44 000e 0023     		movs	r3, #0
  45 0010 FB73     		strb	r3, [r7, #15]
  60:Generated_Source\PSoC5/P3.c ****     P3_DR = staticBits | ((uint8)(value << P3_SHIFT) & P3_MASK);
  46              		.loc 1 60 0
  47 0012 0549     		ldr	r1, .L2
  48 0014 FA7B     		ldrb	r2, [r7, #15]
  49 0016 FB79     		ldrb	r3, [r7, #7]
  50 0018 1343     		orrs	r3, r3, r2
  51 001a DBB2     		uxtb	r3, r3
  52 001c 0B70     		strb	r3, [r1]
  61:Generated_Source\PSoC5/P3.c **** }
  53              		.loc 1 61 0
ARM GAS  C:\Users\Bruger\AppData\Local\Temp\ccTshBWy.s 			page 3


  54 001e 1437     		adds	r7, r7, #20
  55              		.cfi_def_cfa_offset 4
  56 0020 BD46     		mov	sp, r7
  57              		.cfi_def_cfa_register 13
  58              		@ sp needed
  59 0022 5DF8047B 		ldr	r7, [sp], #4
  60              		.cfi_restore 7
  61              		.cfi_def_cfa_offset 0
  62 0026 7047     		bx	lr
  63              	.L3:
  64              		.align	2
  65              	.L2:
  66 0028 30510040 		.word	1073762608
  67              		.cfi_endproc
  68              	.LFE0:
  69              		.size	P3_Write, .-P3_Write
  70              		.section	.text.P3_SetDriveMode,"ax",%progbits
  71              		.align	2
  72              		.global	P3_SetDriveMode
  73              		.thumb
  74              		.thumb_func
  75              		.type	P3_SetDriveMode, %function
  76              	P3_SetDriveMode:
  77              	.LFB1:
  62:Generated_Source\PSoC5/P3.c **** 
  63:Generated_Source\PSoC5/P3.c **** 
  64:Generated_Source\PSoC5/P3.c **** /*******************************************************************************
  65:Generated_Source\PSoC5/P3.c **** * Function Name: P3_SetDriveMode
  66:Generated_Source\PSoC5/P3.c **** ****************************************************************************//**
  67:Generated_Source\PSoC5/P3.c **** *
  68:Generated_Source\PSoC5/P3.c **** * \brief Sets the drive mode for each of the Pins component's pins.
  69:Generated_Source\PSoC5/P3.c **** * 
  70:Generated_Source\PSoC5/P3.c **** * <b>Note</b> This affects all pins in the Pins component instance. Use the
  71:Generated_Source\PSoC5/P3.c **** * Per-Pin APIs if you wish to control individual pin's drive modes.
  72:Generated_Source\PSoC5/P3.c **** *
  73:Generated_Source\PSoC5/P3.c **** * \param mode
  74:Generated_Source\PSoC5/P3.c **** *  Mode for the selected signals. Valid options are documented in 
  75:Generated_Source\PSoC5/P3.c **** *  \ref driveMode.
  76:Generated_Source\PSoC5/P3.c **** *
  77:Generated_Source\PSoC5/P3.c **** * \return
  78:Generated_Source\PSoC5/P3.c **** *  None
  79:Generated_Source\PSoC5/P3.c **** *
  80:Generated_Source\PSoC5/P3.c **** * \sideeffect
  81:Generated_Source\PSoC5/P3.c **** *  If you use read-modify-write operations that are not atomic, the ISR can
  82:Generated_Source\PSoC5/P3.c **** *  cause corruption of this function. An ISR that interrupts this function 
  83:Generated_Source\PSoC5/P3.c **** *  and performs writes to the Pins component Drive Mode registers can cause 
  84:Generated_Source\PSoC5/P3.c **** *  corrupted port data. To avoid this issue, you should either use the Per-Pin
  85:Generated_Source\PSoC5/P3.c **** *  APIs (primary method) or disable interrupts around this function.
  86:Generated_Source\PSoC5/P3.c **** *
  87:Generated_Source\PSoC5/P3.c **** * \funcusage
  88:Generated_Source\PSoC5/P3.c **** *  \snippet P3_SUT.c usage_P3_SetDriveMode
  89:Generated_Source\PSoC5/P3.c **** *******************************************************************************/
  90:Generated_Source\PSoC5/P3.c **** void P3_SetDriveMode(uint8 mode)
  91:Generated_Source\PSoC5/P3.c **** {
  78              		.loc 1 91 0
  79              		.cfi_startproc
  80              		@ args = 0, pretend = 0, frame = 8
ARM GAS  C:\Users\Bruger\AppData\Local\Temp\ccTshBWy.s 			page 4


  81              		@ frame_needed = 1, uses_anonymous_args = 0
  82              		@ link register save eliminated.
  83 0000 80B4     		push	{r7}
  84              		.cfi_def_cfa_offset 4
  85              		.cfi_offset 7, -4
  86 0002 83B0     		sub	sp, sp, #12
  87              		.cfi_def_cfa_offset 16
  88 0004 00AF     		add	r7, sp, #0
  89              		.cfi_def_cfa_register 7
  90 0006 0346     		mov	r3, r0
  91 0008 FB71     		strb	r3, [r7, #7]
  92:Generated_Source\PSoC5/P3.c **** 	CyPins_SetPinDriveMode(P3_0, mode);
  92              		.loc 1 92 0
  93 000a 424B     		ldr	r3, .L5
  94 000c 414A     		ldr	r2, .L5
  95 000e 1278     		ldrb	r2, [r2]
  96 0010 D2B2     		uxtb	r2, r2
  97 0012 D2B2     		uxtb	r2, r2
  98 0014 22F00E02 		bic	r2, r2, #14
  99 0018 D1B2     		uxtb	r1, r2
 100 001a FA79     		ldrb	r2, [r7, #7]	@ zero_extendqisi2
 101 001c 02F00E02 		and	r2, r2, #14
 102 0020 D2B2     		uxtb	r2, r2
 103 0022 0A43     		orrs	r2, r2, r1
 104 0024 D2B2     		uxtb	r2, r2
 105 0026 D2B2     		uxtb	r2, r2
 106 0028 1A70     		strb	r2, [r3]
  93:Generated_Source\PSoC5/P3.c **** 	CyPins_SetPinDriveMode(P3_1, mode);
 107              		.loc 1 93 0
 108 002a 3B4B     		ldr	r3, .L5+4
 109 002c 3A4A     		ldr	r2, .L5+4
 110 002e 1278     		ldrb	r2, [r2]
 111 0030 D2B2     		uxtb	r2, r2
 112 0032 D2B2     		uxtb	r2, r2
 113 0034 22F00E02 		bic	r2, r2, #14
 114 0038 D1B2     		uxtb	r1, r2
 115 003a FA79     		ldrb	r2, [r7, #7]	@ zero_extendqisi2
 116 003c 02F00E02 		and	r2, r2, #14
 117 0040 D2B2     		uxtb	r2, r2
 118 0042 0A43     		orrs	r2, r2, r1
 119 0044 D2B2     		uxtb	r2, r2
 120 0046 D2B2     		uxtb	r2, r2
 121 0048 1A70     		strb	r2, [r3]
  94:Generated_Source\PSoC5/P3.c **** 	CyPins_SetPinDriveMode(P3_2, mode);
 122              		.loc 1 94 0
 123 004a 344B     		ldr	r3, .L5+8
 124 004c 334A     		ldr	r2, .L5+8
 125 004e 1278     		ldrb	r2, [r2]
 126 0050 D2B2     		uxtb	r2, r2
 127 0052 D2B2     		uxtb	r2, r2
 128 0054 22F00E02 		bic	r2, r2, #14
 129 0058 D1B2     		uxtb	r1, r2
 130 005a FA79     		ldrb	r2, [r7, #7]	@ zero_extendqisi2
 131 005c 02F00E02 		and	r2, r2, #14
 132 0060 D2B2     		uxtb	r2, r2
 133 0062 0A43     		orrs	r2, r2, r1
 134 0064 D2B2     		uxtb	r2, r2
ARM GAS  C:\Users\Bruger\AppData\Local\Temp\ccTshBWy.s 			page 5


 135 0066 D2B2     		uxtb	r2, r2
 136 0068 1A70     		strb	r2, [r3]
  95:Generated_Source\PSoC5/P3.c **** 	CyPins_SetPinDriveMode(P3_3, mode);
 137              		.loc 1 95 0
 138 006a 2D4B     		ldr	r3, .L5+12
 139 006c 2C4A     		ldr	r2, .L5+12
 140 006e 1278     		ldrb	r2, [r2]
 141 0070 D2B2     		uxtb	r2, r2
 142 0072 D2B2     		uxtb	r2, r2
 143 0074 22F00E02 		bic	r2, r2, #14
 144 0078 D1B2     		uxtb	r1, r2
 145 007a FA79     		ldrb	r2, [r7, #7]	@ zero_extendqisi2
 146 007c 02F00E02 		and	r2, r2, #14
 147 0080 D2B2     		uxtb	r2, r2
 148 0082 0A43     		orrs	r2, r2, r1
 149 0084 D2B2     		uxtb	r2, r2
 150 0086 D2B2     		uxtb	r2, r2
 151 0088 1A70     		strb	r2, [r3]
  96:Generated_Source\PSoC5/P3.c **** 	CyPins_SetPinDriveMode(P3_4, mode);
 152              		.loc 1 96 0
 153 008a 264B     		ldr	r3, .L5+16
 154 008c 254A     		ldr	r2, .L5+16
 155 008e 1278     		ldrb	r2, [r2]
 156 0090 D2B2     		uxtb	r2, r2
 157 0092 D2B2     		uxtb	r2, r2
 158 0094 22F00E02 		bic	r2, r2, #14
 159 0098 D1B2     		uxtb	r1, r2
 160 009a FA79     		ldrb	r2, [r7, #7]	@ zero_extendqisi2
 161 009c 02F00E02 		and	r2, r2, #14
 162 00a0 D2B2     		uxtb	r2, r2
 163 00a2 0A43     		orrs	r2, r2, r1
 164 00a4 D2B2     		uxtb	r2, r2
 165 00a6 D2B2     		uxtb	r2, r2
 166 00a8 1A70     		strb	r2, [r3]
  97:Generated_Source\PSoC5/P3.c **** 	CyPins_SetPinDriveMode(P3_5, mode);
 167              		.loc 1 97 0
 168 00aa 1F4B     		ldr	r3, .L5+20
 169 00ac 1E4A     		ldr	r2, .L5+20
 170 00ae 1278     		ldrb	r2, [r2]
 171 00b0 D2B2     		uxtb	r2, r2
 172 00b2 D2B2     		uxtb	r2, r2
 173 00b4 22F00E02 		bic	r2, r2, #14
 174 00b8 D1B2     		uxtb	r1, r2
 175 00ba FA79     		ldrb	r2, [r7, #7]	@ zero_extendqisi2
 176 00bc 02F00E02 		and	r2, r2, #14
 177 00c0 D2B2     		uxtb	r2, r2
 178 00c2 0A43     		orrs	r2, r2, r1
 179 00c4 D2B2     		uxtb	r2, r2
 180 00c6 D2B2     		uxtb	r2, r2
 181 00c8 1A70     		strb	r2, [r3]
  98:Generated_Source\PSoC5/P3.c **** 	CyPins_SetPinDriveMode(P3_6, mode);
 182              		.loc 1 98 0
 183 00ca 184B     		ldr	r3, .L5+24
 184 00cc 174A     		ldr	r2, .L5+24
 185 00ce 1278     		ldrb	r2, [r2]
 186 00d0 D2B2     		uxtb	r2, r2
 187 00d2 D2B2     		uxtb	r2, r2
ARM GAS  C:\Users\Bruger\AppData\Local\Temp\ccTshBWy.s 			page 6


 188 00d4 22F00E02 		bic	r2, r2, #14
 189 00d8 D1B2     		uxtb	r1, r2
 190 00da FA79     		ldrb	r2, [r7, #7]	@ zero_extendqisi2
 191 00dc 02F00E02 		and	r2, r2, #14
 192 00e0 D2B2     		uxtb	r2, r2
 193 00e2 0A43     		orrs	r2, r2, r1
 194 00e4 D2B2     		uxtb	r2, r2
 195 00e6 D2B2     		uxtb	r2, r2
 196 00e8 1A70     		strb	r2, [r3]
  99:Generated_Source\PSoC5/P3.c **** 	CyPins_SetPinDriveMode(P3_7, mode);
 197              		.loc 1 99 0
 198 00ea 114B     		ldr	r3, .L5+28
 199 00ec 104A     		ldr	r2, .L5+28
 200 00ee 1278     		ldrb	r2, [r2]
 201 00f0 D2B2     		uxtb	r2, r2
 202 00f2 D2B2     		uxtb	r2, r2
 203 00f4 22F00E02 		bic	r2, r2, #14
 204 00f8 D1B2     		uxtb	r1, r2
 205 00fa FA79     		ldrb	r2, [r7, #7]	@ zero_extendqisi2
 206 00fc 02F00E02 		and	r2, r2, #14
 207 0100 D2B2     		uxtb	r2, r2
 208 0102 0A43     		orrs	r2, r2, r1
 209 0104 D2B2     		uxtb	r2, r2
 210 0106 D2B2     		uxtb	r2, r2
 211 0108 1A70     		strb	r2, [r3]
 100:Generated_Source\PSoC5/P3.c **** }
 212              		.loc 1 100 0
 213 010a 0C37     		adds	r7, r7, #12
 214              		.cfi_def_cfa_offset 4
 215 010c BD46     		mov	sp, r7
 216              		.cfi_def_cfa_register 13
 217              		@ sp needed
 218 010e 5DF8047B 		ldr	r7, [sp], #4
 219              		.cfi_restore 7
 220              		.cfi_def_cfa_offset 0
 221 0112 7047     		bx	lr
 222              	.L6:
 223              		.align	2
 224              	.L5:
 225 0114 18500040 		.word	1073762328
 226 0118 19500040 		.word	1073762329
 227 011c 1A500040 		.word	1073762330
 228 0120 1B500040 		.word	1073762331
 229 0124 1C500040 		.word	1073762332
 230 0128 1D500040 		.word	1073762333
 231 012c 1E500040 		.word	1073762334
 232 0130 1F500040 		.word	1073762335
 233              		.cfi_endproc
 234              	.LFE1:
 235              		.size	P3_SetDriveMode, .-P3_SetDriveMode
 236              		.section	.text.P3_Read,"ax",%progbits
 237              		.align	2
 238              		.global	P3_Read
 239              		.thumb
 240              		.thumb_func
 241              		.type	P3_Read, %function
 242              	P3_Read:
ARM GAS  C:\Users\Bruger\AppData\Local\Temp\ccTshBWy.s 			page 7


 243              	.LFB2:
 101:Generated_Source\PSoC5/P3.c **** 
 102:Generated_Source\PSoC5/P3.c **** 
 103:Generated_Source\PSoC5/P3.c **** /*******************************************************************************
 104:Generated_Source\PSoC5/P3.c **** * Function Name: P3_Read
 105:Generated_Source\PSoC5/P3.c **** ****************************************************************************//**
 106:Generated_Source\PSoC5/P3.c **** *
 107:Generated_Source\PSoC5/P3.c **** * \brief Reads the associated physical port (pin status register) and masks 
 108:Generated_Source\PSoC5/P3.c **** *  the required bits according to the width and bit position of the component
 109:Generated_Source\PSoC5/P3.c **** *  instance. 
 110:Generated_Source\PSoC5/P3.c **** *
 111:Generated_Source\PSoC5/P3.c **** * The pin's status register returns the current logic level present on the 
 112:Generated_Source\PSoC5/P3.c **** * physical pin.
 113:Generated_Source\PSoC5/P3.c **** *
 114:Generated_Source\PSoC5/P3.c **** * \return 
 115:Generated_Source\PSoC5/P3.c **** *  The current value for the pins in the component as a right justified number.
 116:Generated_Source\PSoC5/P3.c **** *
 117:Generated_Source\PSoC5/P3.c **** * \funcusage
 118:Generated_Source\PSoC5/P3.c **** *  \snippet P3_SUT.c usage_P3_Read  
 119:Generated_Source\PSoC5/P3.c **** *******************************************************************************/
 120:Generated_Source\PSoC5/P3.c **** uint8 P3_Read(void)
 121:Generated_Source\PSoC5/P3.c **** {
 244              		.loc 1 121 0
 245              		.cfi_startproc
 246              		@ args = 0, pretend = 0, frame = 0
 247              		@ frame_needed = 1, uses_anonymous_args = 0
 248              		@ link register save eliminated.
 249 0000 80B4     		push	{r7}
 250              		.cfi_def_cfa_offset 4
 251              		.cfi_offset 7, -4
 252 0002 00AF     		add	r7, sp, #0
 253              		.cfi_def_cfa_register 7
 122:Generated_Source\PSoC5/P3.c ****     return (P3_PS & P3_MASK) >> P3_SHIFT;
 254              		.loc 1 122 0
 255 0004 034B     		ldr	r3, .L9
 256 0006 1B78     		ldrb	r3, [r3]
 257 0008 DBB2     		uxtb	r3, r3
 123:Generated_Source\PSoC5/P3.c **** }
 258              		.loc 1 123 0
 259 000a 1846     		mov	r0, r3
 260 000c BD46     		mov	sp, r7
 261              		.cfi_def_cfa_register 13
 262              		@ sp needed
 263 000e 5DF8047B 		ldr	r7, [sp], #4
 264              		.cfi_restore 7
 265              		.cfi_def_cfa_offset 0
 266 0012 7047     		bx	lr
 267              	.L10:
 268              		.align	2
 269              	.L9:
 270 0014 31510040 		.word	1073762609
 271              		.cfi_endproc
 272              	.LFE2:
 273              		.size	P3_Read, .-P3_Read
 274              		.section	.text.P3_ReadDataReg,"ax",%progbits
 275              		.align	2
 276              		.global	P3_ReadDataReg
ARM GAS  C:\Users\Bruger\AppData\Local\Temp\ccTshBWy.s 			page 8


 277              		.thumb
 278              		.thumb_func
 279              		.type	P3_ReadDataReg, %function
 280              	P3_ReadDataReg:
 281              	.LFB3:
 124:Generated_Source\PSoC5/P3.c **** 
 125:Generated_Source\PSoC5/P3.c **** 
 126:Generated_Source\PSoC5/P3.c **** /*******************************************************************************
 127:Generated_Source\PSoC5/P3.c **** * Function Name: P3_ReadDataReg
 128:Generated_Source\PSoC5/P3.c **** ****************************************************************************//**
 129:Generated_Source\PSoC5/P3.c **** *
 130:Generated_Source\PSoC5/P3.c **** * \brief Reads the associated physical port's data output register and masks 
 131:Generated_Source\PSoC5/P3.c **** *  the correct bits according to the width and bit position of the component 
 132:Generated_Source\PSoC5/P3.c **** *  instance. 
 133:Generated_Source\PSoC5/P3.c **** *
 134:Generated_Source\PSoC5/P3.c **** * The data output register controls the signal applied to the physical pin in 
 135:Generated_Source\PSoC5/P3.c **** * conjunction with the drive mode parameter. This is not the same as the 
 136:Generated_Source\PSoC5/P3.c **** * preferred P3_Read() API because the 
 137:Generated_Source\PSoC5/P3.c **** * P3_ReadDataReg() reads the data register instead of the status 
 138:Generated_Source\PSoC5/P3.c **** * register. For output pins this is a useful function to determine the value 
 139:Generated_Source\PSoC5/P3.c **** * just written to the pin.
 140:Generated_Source\PSoC5/P3.c **** *
 141:Generated_Source\PSoC5/P3.c **** * \return 
 142:Generated_Source\PSoC5/P3.c **** *  The current value of the data register masked and shifted into a right 
 143:Generated_Source\PSoC5/P3.c **** *  justified number for the component instance.
 144:Generated_Source\PSoC5/P3.c **** *
 145:Generated_Source\PSoC5/P3.c **** * \funcusage
 146:Generated_Source\PSoC5/P3.c **** *  \snippet P3_SUT.c usage_P3_ReadDataReg 
 147:Generated_Source\PSoC5/P3.c **** *******************************************************************************/
 148:Generated_Source\PSoC5/P3.c **** uint8 P3_ReadDataReg(void)
 149:Generated_Source\PSoC5/P3.c **** {
 282              		.loc 1 149 0
 283              		.cfi_startproc
 284              		@ args = 0, pretend = 0, frame = 0
 285              		@ frame_needed = 1, uses_anonymous_args = 0
 286              		@ link register save eliminated.
 287 0000 80B4     		push	{r7}
 288              		.cfi_def_cfa_offset 4
 289              		.cfi_offset 7, -4
 290 0002 00AF     		add	r7, sp, #0
 291              		.cfi_def_cfa_register 7
 150:Generated_Source\PSoC5/P3.c ****     return (P3_DR & P3_MASK) >> P3_SHIFT;
 292              		.loc 1 150 0
 293 0004 034B     		ldr	r3, .L13
 294 0006 1B78     		ldrb	r3, [r3]
 295 0008 DBB2     		uxtb	r3, r3
 151:Generated_Source\PSoC5/P3.c **** }
 296              		.loc 1 151 0
 297 000a 1846     		mov	r0, r3
 298 000c BD46     		mov	sp, r7
 299              		.cfi_def_cfa_register 13
 300              		@ sp needed
 301 000e 5DF8047B 		ldr	r7, [sp], #4
 302              		.cfi_restore 7
 303              		.cfi_def_cfa_offset 0
 304 0012 7047     		bx	lr
 305              	.L14:
ARM GAS  C:\Users\Bruger\AppData\Local\Temp\ccTshBWy.s 			page 9


 306              		.align	2
 307              	.L13:
 308 0014 30510040 		.word	1073762608
 309              		.cfi_endproc
 310              	.LFE3:
 311              		.size	P3_ReadDataReg, .-P3_ReadDataReg
 312              		.text
 313              	.Letext0:
 314              		.file 2 "Generated_Source\\PSoC5\\cytypes.h"