ARM GAS  C:\Users\Bruger\AppData\Local\Temp\cc797ORx.s 			page 1


   1              		.syntax unified
   2              		.cpu cortex-m3
   3              		.fpu softvfp
   4              		.eabi_attribute 20, 1
   5              		.eabi_attribute 21, 1
   6              		.eabi_attribute 23, 3
   7              		.eabi_attribute 24, 1
   8              		.eabi_attribute 25, 1
   9              		.eabi_attribute 26, 1
  10              		.eabi_attribute 30, 6
  11              		.eabi_attribute 34, 1
  12              		.eabi_attribute 18, 4
  13              		.thumb
  14              		.file	"Print.cpp"
  15              		.text
  16              	.Ltext0:
  17              		.cfi_sections	.debug_frame
  18              		.section	.text._ZNK6String6lengthEv,"axG",%progbits,_ZNK6String6lengthEv,comdat
  19              		.align	2
  20              		.weak	_ZNK6String6lengthEv
  21              		.thumb
  22              		.thumb_func
  23              		.type	_ZNK6String6lengthEv, %function
  24              	_ZNK6String6lengthEv:
  25              		.fnstart
  26              	.LFB64:
  27              		.file 1 "core\\WString.h"
   1:core/WString.h **** /*
   2:core/WString.h ****   WString.h - String library for Wiring & Arduino
   3:core/WString.h ****   ...mostly rewritten by Paul Stoffregen...
   4:core/WString.h ****   Copyright (c) 2009-10 Hernando Barragan.  All right reserved.
   5:core/WString.h ****   Copyright 2011, Paul Stoffregen, paul@pjrc.com
   6:core/WString.h **** 
   7:core/WString.h ****   This library is free software; you can redistribute it and/or
   8:core/WString.h ****   modify it under the terms of the GNU Lesser General Public
   9:core/WString.h ****   License as published by the Free Software Foundation; either
  10:core/WString.h ****   version 2.1 of the License, or (at your option) any later version.
  11:core/WString.h **** 
  12:core/WString.h ****   This library is distributed in the hope that it will be useful,
  13:core/WString.h ****   but WITHOUT ANY WARRANTY; without even the implied warranty of
  14:core/WString.h ****   MERCHANTABILITY or FITNESS FOR A PARTICULAR PURPOSE.  See the GNU
  15:core/WString.h ****   Lesser General Public License for more details.
  16:core/WString.h **** 
  17:core/WString.h ****   You should have received a copy of the GNU Lesser General Public
  18:core/WString.h ****   License along with this library; if not, write to the Free Software
  19:core/WString.h ****   Foundation, Inc., 51 Franklin St, Fifth Floor, Boston, MA  02110-1301  USA
  20:core/WString.h **** */
  21:core/WString.h **** 
  22:core/WString.h **** #ifndef String_class_h
  23:core/WString.h **** #define String_class_h
  24:core/WString.h **** #ifdef __cplusplus
  25:core/WString.h **** 
  26:core/WString.h **** #include <stdlib.h>
  27:core/WString.h **** #include <string.h>
  28:core/WString.h **** #include <ctype.h>
  29:core/WString.h **** #include <avr/pgmspace.h>
  30:core/WString.h **** 
ARM GAS  C:\Users\Bruger\AppData\Local\Temp\cc797ORx.s 			page 2


  31:core/WString.h **** // When compiling programs with this class, the following gcc parameters
  32:core/WString.h **** // dramatically increase performance and memory (RAM) efficiency, typically
  33:core/WString.h **** // with little or no increase in code size.
  34:core/WString.h **** //     -felide-constructors
  35:core/WString.h **** //     -std=c++0x
  36:core/WString.h **** 
  37:core/WString.h **** class __FlashStringHelper;
  38:core/WString.h **** #define F(string_literal) (reinterpret_cast<const __FlashStringHelper *>(PSTR(string_literal)))
  39:core/WString.h **** 
  40:core/WString.h **** // An inherited class for holding the result of a concatenation.  These
  41:core/WString.h **** // result objects are assumed to be writable by subsequent concatenations.
  42:core/WString.h **** class StringSumHelper;
  43:core/WString.h **** 
  44:core/WString.h **** // The string class
  45:core/WString.h **** class String
  46:core/WString.h **** {
  47:core/WString.h **** 	// use a function pointer to allow for "if (s)" without the
  48:core/WString.h **** 	// complications of an operator bool(). for more information, see:
  49:core/WString.h **** 	// http://www.artima.com/cppsource/safebool.html
  50:core/WString.h **** 	typedef void (String::*StringIfHelperType)() const;
  51:core/WString.h **** 	void StringIfHelper() const {}
  52:core/WString.h **** 
  53:core/WString.h **** public:
  54:core/WString.h **** 	// constructors
  55:core/WString.h **** 	// creates a copy of the initial value.
  56:core/WString.h **** 	// if the initial value is null or invalid, or if memory allocation
  57:core/WString.h **** 	// fails, the string will be marked as invalid (i.e. "if (s)" will
  58:core/WString.h **** 	// be false).
  59:core/WString.h **** 	String(const char *cstr = "");
  60:core/WString.h **** 	String(const String &str);
  61:core/WString.h **** 	String(const __FlashStringHelper *str);
  62:core/WString.h **** 	#ifdef __GXX_EXPERIMENTAL_CXX0X__
  63:core/WString.h **** 	String(String &&rval);
  64:core/WString.h **** 	String(StringSumHelper &&rval);
  65:core/WString.h **** 	#endif
  66:core/WString.h **** 	explicit String(char c);
  67:core/WString.h **** 	explicit String(unsigned char, unsigned char base=10);
  68:core/WString.h **** 	explicit String(int, unsigned char base=10);
  69:core/WString.h **** 	explicit String(unsigned int, unsigned char base=10);
  70:core/WString.h **** 	explicit String(long, unsigned char base=10);
  71:core/WString.h **** 	explicit String(unsigned long, unsigned char base=10);
  72:core/WString.h **** 	explicit String(float, unsigned char decimalPlaces=2);
  73:core/WString.h **** 	explicit String(double, unsigned char decimalPlaces=2);
  74:core/WString.h **** 	~String(void);
  75:core/WString.h **** 
  76:core/WString.h **** 	// memory management
  77:core/WString.h **** 	// return true on success, false on failure (in which case, the string
  78:core/WString.h **** 	// is left unchanged).  reserve(0), if successful, will validate an
  79:core/WString.h **** 	// invalid string (i.e., "if (s)" will be true afterwards)
  80:core/WString.h **** 	unsigned char reserve(unsigned int size);
  81:core/WString.h **** 	inline unsigned int length(void) const {return len;}
  28              		.loc 1 81 0
  29              		.cfi_startproc
  30              		@ args = 0, pretend = 0, frame = 8
  31              		@ frame_needed = 1, uses_anonymous_args = 0
  32              		@ link register save eliminated.
  33 0000 80B4     		push	{r7}
ARM GAS  C:\Users\Bruger\AppData\Local\Temp\cc797ORx.s 			page 3


  34              		.cfi_def_cfa_offset 4
  35              		.cfi_offset 7, -4
  36 0002 83B0     		sub	sp, sp, #12
  37              		.cfi_def_cfa_offset 16
  38 0004 00AF     		add	r7, sp, #0
  39              		.cfi_def_cfa_register 7
  40 0006 7860     		str	r0, [r7, #4]
  41              		.loc 1 81 0
  42 0008 7B68     		ldr	r3, [r7, #4]
  43 000a 9B68     		ldr	r3, [r3, #8]
  44 000c 1846     		mov	r0, r3
  45 000e 0C37     		adds	r7, r7, #12
  46              		.cfi_def_cfa_offset 4
  47 0010 BD46     		mov	sp, r7
  48              		.cfi_def_cfa_register 13
  49              		@ sp needed
  50 0012 5DF8047B 		ldr	r7, [sp], #4
  51              		.cfi_restore 7
  52              		.cfi_def_cfa_offset 0
  53 0016 7047     		bx	lr
  54              		.cfi_endproc
  55              	.LFE64:
  56              		.cantunwind
  57              		.fnend
  58              		.size	_ZNK6String6lengthEv, .-_ZNK6String6lengthEv
  59              		.section	.text._ZNK6String5c_strEv,"axG",%progbits,_ZNK6String5c_strEv,comdat
  60              		.align	2
  61              		.weak	_ZNK6String5c_strEv
  62              		.thumb
  63              		.thumb_func
  64              		.type	_ZNK6String5c_strEv, %function
  65              	_ZNK6String5c_strEv:
  66              		.fnstart
  67              	.LFB82:
  82:core/WString.h **** 
  83:core/WString.h **** 	// creates a copy of the assigned value.  if the value is null or
  84:core/WString.h **** 	// invalid, or if the memory allocation fails, the string will be 
  85:core/WString.h **** 	// marked as invalid ("if (s)" will be false).
  86:core/WString.h **** 	String & operator = (const String &rhs);
  87:core/WString.h **** 	String & operator = (const char *cstr);
  88:core/WString.h **** 	String & operator = (const __FlashStringHelper *str);
  89:core/WString.h **** 	#ifdef __GXX_EXPERIMENTAL_CXX0X__
  90:core/WString.h **** 	String & operator = (String &&rval);
  91:core/WString.h **** 	String & operator = (StringSumHelper &&rval);
  92:core/WString.h **** 	#endif
  93:core/WString.h **** 
  94:core/WString.h **** 	// concatenate (works w/ built-in types)
  95:core/WString.h **** 	
  96:core/WString.h **** 	// returns true on success, false on failure (in which case, the string
  97:core/WString.h **** 	// is left unchanged).  if the argument is null or invalid, the 
  98:core/WString.h **** 	// concatenation is considered unsucessful.  
  99:core/WString.h **** 	unsigned char concat(const String &str);
 100:core/WString.h **** 	unsigned char concat(const char *cstr);
 101:core/WString.h **** 	unsigned char concat(char c);
 102:core/WString.h **** 	unsigned char concat(unsigned char c);
 103:core/WString.h **** 	unsigned char concat(int num);
 104:core/WString.h **** 	unsigned char concat(unsigned int num);
ARM GAS  C:\Users\Bruger\AppData\Local\Temp\cc797ORx.s 			page 4


 105:core/WString.h **** 	unsigned char concat(long num);
 106:core/WString.h **** 	unsigned char concat(unsigned long num);
 107:core/WString.h **** 	unsigned char concat(float num);
 108:core/WString.h **** 	unsigned char concat(double num);
 109:core/WString.h **** 	unsigned char concat(const __FlashStringHelper * str);
 110:core/WString.h **** 	
 111:core/WString.h **** 	// if there's not enough memory for the concatenated value, the string
 112:core/WString.h **** 	// will be left unchanged (but this isn't signalled in any way)
 113:core/WString.h **** 	String & operator += (const String &rhs)	{concat(rhs); return (*this);}
 114:core/WString.h **** 	String & operator += (const char *cstr)		{concat(cstr); return (*this);}
 115:core/WString.h **** 	String & operator += (char c)			{concat(c); return (*this);}
 116:core/WString.h **** 	String & operator += (unsigned char num)		{concat(num); return (*this);}
 117:core/WString.h **** 	String & operator += (int num)			{concat(num); return (*this);}
 118:core/WString.h **** 	String & operator += (unsigned int num)		{concat(num); return (*this);}
 119:core/WString.h **** 	String & operator += (long num)			{concat(num); return (*this);}
 120:core/WString.h **** 	String & operator += (unsigned long num)	{concat(num); return (*this);}
 121:core/WString.h **** 	String & operator += (float num)		{concat(num); return (*this);}
 122:core/WString.h **** 	String & operator += (double num)		{concat(num); return (*this);}
 123:core/WString.h **** 	String & operator += (const __FlashStringHelper *str){concat(str); return (*this);}
 124:core/WString.h **** 
 125:core/WString.h **** 	friend StringSumHelper & operator + (const StringSumHelper &lhs, const String &rhs);
 126:core/WString.h **** 	friend StringSumHelper & operator + (const StringSumHelper &lhs, const char *cstr);
 127:core/WString.h **** 	friend StringSumHelper & operator + (const StringSumHelper &lhs, char c);
 128:core/WString.h **** 	friend StringSumHelper & operator + (const StringSumHelper &lhs, unsigned char num);
 129:core/WString.h **** 	friend StringSumHelper & operator + (const StringSumHelper &lhs, int num);
 130:core/WString.h **** 	friend StringSumHelper & operator + (const StringSumHelper &lhs, unsigned int num);
 131:core/WString.h **** 	friend StringSumHelper & operator + (const StringSumHelper &lhs, long num);
 132:core/WString.h **** 	friend StringSumHelper & operator + (const StringSumHelper &lhs, unsigned long num);
 133:core/WString.h **** 	friend StringSumHelper & operator + (const StringSumHelper &lhs, float num);
 134:core/WString.h **** 	friend StringSumHelper & operator + (const StringSumHelper &lhs, double num);
 135:core/WString.h **** 	friend StringSumHelper & operator + (const StringSumHelper &lhs, const __FlashStringHelper *rhs);
 136:core/WString.h **** 
 137:core/WString.h **** 	// comparison (only works w/ Strings and "strings")
 138:core/WString.h **** 	operator StringIfHelperType() const { return buffer ? &String::StringIfHelper : 0; }
 139:core/WString.h **** 	int compareTo(const String &s) const;
 140:core/WString.h **** 	unsigned char equals(const String &s) const;
 141:core/WString.h **** 	unsigned char equals(const char *cstr) const;
 142:core/WString.h **** 	unsigned char operator == (const String &rhs) const {return equals(rhs);}
 143:core/WString.h **** 	unsigned char operator == (const char *cstr) const {return equals(cstr);}
 144:core/WString.h **** 	unsigned char operator != (const String &rhs) const {return !equals(rhs);}
 145:core/WString.h **** 	unsigned char operator != (const char *cstr) const {return !equals(cstr);}
 146:core/WString.h **** 	unsigned char operator <  (const String &rhs) const;
 147:core/WString.h **** 	unsigned char operator >  (const String &rhs) const;
 148:core/WString.h **** 	unsigned char operator <= (const String &rhs) const;
 149:core/WString.h **** 	unsigned char operator >= (const String &rhs) const;
 150:core/WString.h **** 	unsigned char equalsIgnoreCase(const String &s) const;
 151:core/WString.h **** 	unsigned char startsWith( const String &prefix) const;
 152:core/WString.h **** 	unsigned char startsWith(const String &prefix, unsigned int offset) const;
 153:core/WString.h **** 	unsigned char endsWith(const String &suffix) const;
 154:core/WString.h **** 
 155:core/WString.h **** 	// character acccess
 156:core/WString.h **** 	char charAt(unsigned int index) const;
 157:core/WString.h **** 	void setCharAt(unsigned int index, char c);
 158:core/WString.h **** 	char operator [] (unsigned int index) const;
 159:core/WString.h **** 	char& operator [] (unsigned int index);
 160:core/WString.h **** 	void getBytes(unsigned char *buf, unsigned int bufsize, unsigned int index=0) const;
 161:core/WString.h **** 	void toCharArray(char *buf, unsigned int bufsize, unsigned int index=0) const
ARM GAS  C:\Users\Bruger\AppData\Local\Temp\cc797ORx.s 			page 5


 162:core/WString.h **** 		{getBytes((unsigned char *)buf, bufsize, index);}
 163:core/WString.h **** 	const char * c_str() const { return buffer; }
  68              		.loc 1 163 0
  69              		.cfi_startproc
  70              		@ args = 0, pretend = 0, frame = 8
  71              		@ frame_needed = 1, uses_anonymous_args = 0
  72              		@ link register save eliminated.
  73 0000 80B4     		push	{r7}
  74              		.cfi_def_cfa_offset 4
  75              		.cfi_offset 7, -4
  76 0002 83B0     		sub	sp, sp, #12
  77              		.cfi_def_cfa_offset 16
  78 0004 00AF     		add	r7, sp, #0
  79              		.cfi_def_cfa_register 7
  80 0006 7860     		str	r0, [r7, #4]
  81              		.loc 1 163 0
  82 0008 7B68     		ldr	r3, [r7, #4]
  83 000a 1B68     		ldr	r3, [r3]
  84 000c 1846     		mov	r0, r3
  85 000e 0C37     		adds	r7, r7, #12
  86              		.cfi_def_cfa_offset 4
  87 0010 BD46     		mov	sp, r7
  88              		.cfi_def_cfa_register 13
  89              		@ sp needed
  90 0012 5DF8047B 		ldr	r7, [sp], #4
  91              		.cfi_restore 7
  92              		.cfi_def_cfa_offset 0
  93 0016 7047     		bx	lr
  94              		.cfi_endproc
  95              	.LFE82:
  96              		.cantunwind
  97              		.fnend
  98              		.size	_ZNK6String5c_strEv, .-_ZNK6String5c_strEv
  99              		.section	.text._ZN5Print5writeEPKc,"axG",%progbits,_ZN5Print5writeEPKc,comdat
 100              		.align	2
 101              		.weak	_ZN5Print5writeEPKc
 102              		.thumb
 103              		.thumb_func
 104              		.type	_ZN5Print5writeEPKc, %function
 105              	_ZN5Print5writeEPKc:
 106              		.fnstart
 107              	.LFB123:
 108              		.file 2 "core\\Print.h"
   1:core/Print.h  **** /*
   2:core/Print.h  ****   Print.h - Base class that provides print() and println()
   3:core/Print.h  ****   Copyright (c) 2008 David A. Mellis.  All right reserved.
   4:core/Print.h  **** 
   5:core/Print.h  ****   This library is free software; you can redistribute it and/or
   6:core/Print.h  ****   modify it under the terms of the GNU Lesser General Public
   7:core/Print.h  ****   License as published by the Free Software Foundation; either
   8:core/Print.h  ****   version 2.1 of the License, or (at your option) any later version.
   9:core/Print.h  **** 
  10:core/Print.h  ****   This library is distributed in the hope that it will be useful,
  11:core/Print.h  ****   but WITHOUT ANY WARRANTY; without even the implied warranty of
  12:core/Print.h  ****   MERCHANTABILITY or FITNESS FOR A PARTICULAR PURPOSE.  See the GNU
  13:core/Print.h  ****   Lesser General Public License for more details.
  14:core/Print.h  **** 
ARM GAS  C:\Users\Bruger\AppData\Local\Temp\cc797ORx.s 			page 6


  15:core/Print.h  ****   You should have received a copy of the GNU Lesser General Public
  16:core/Print.h  ****   License along with this library; if not, write to the Free Software
  17:core/Print.h  ****   Foundation, Inc., 51 Franklin St, Fifth Floor, Boston, MA  02110-1301  USA
  18:core/Print.h  **** */
  19:core/Print.h  **** 
  20:core/Print.h  **** #ifndef Print_h
  21:core/Print.h  **** #define Print_h
  22:core/Print.h  **** 
  23:core/Print.h  **** #include <inttypes.h>
  24:core/Print.h  **** #include <stdio.h> // for size_t
  25:core/Print.h  **** 
  26:core/Print.h  **** #include "WString.h"
  27:core/Print.h  **** #include "Printable.h"
  28:core/Print.h  **** 
  29:core/Print.h  **** #define DEC 10
  30:core/Print.h  **** #define HEX 16
  31:core/Print.h  **** #define OCT 8
  32:core/Print.h  **** #define BIN 2
  33:core/Print.h  **** 
  34:core/Print.h  **** class Print
  35:core/Print.h  **** {
  36:core/Print.h  ****   private:
  37:core/Print.h  ****     int write_error;
  38:core/Print.h  ****     size_t printNumber(unsigned long, uint8_t);
  39:core/Print.h  ****     size_t printFloat(double, uint8_t);
  40:core/Print.h  ****   protected:
  41:core/Print.h  ****     void setWriteError(int err = 1) { write_error = err; }
  42:core/Print.h  ****   public:
  43:core/Print.h  ****     Print() : write_error(0) {}
  44:core/Print.h  ****     ~Print(){}
  45:core/Print.h  ****   
  46:core/Print.h  ****     int getWriteError() { return write_error; }
  47:core/Print.h  ****     void clearWriteError() { setWriteError(0); }
  48:core/Print.h  ****   
  49:core/Print.h  ****     virtual size_t write(uint8_t) = 0;
  50:core/Print.h  ****     size_t write(const char *str) {
 109              		.loc 2 50 0
 110              		.cfi_startproc
 111              		@ args = 0, pretend = 0, frame = 8
 112              		@ frame_needed = 1, uses_anonymous_args = 0
 113 0000 90B5     		push	{r4, r7, lr}
 114              		.save {r4, r7, lr}
 115              		.cfi_def_cfa_offset 12
 116              		.cfi_offset 4, -12
 117              		.cfi_offset 7, -8
 118              		.cfi_offset 14, -4
 119              		.pad #12
 120 0002 83B0     		sub	sp, sp, #12
 121              		.cfi_def_cfa_offset 24
 122              		.setfp r7, sp, #0
 123 0004 00AF     		add	r7, sp, #0
 124              		.cfi_def_cfa_register 7
 125 0006 7860     		str	r0, [r7, #4]
 126 0008 3960     		str	r1, [r7]
  51:core/Print.h  ****       if (str == NULL) return 0;
 127              		.loc 2 51 0
 128 000a 3B68     		ldr	r3, [r7]
ARM GAS  C:\Users\Bruger\AppData\Local\Temp\cc797ORx.s 			page 7


 129 000c 002B     		cmp	r3, #0
 130 000e 01D1     		bne	.L6
 131              		.loc 2 51 0 is_stmt 0 discriminator 1
 132 0010 0023     		movs	r3, #0
 133 0012 0CE0     		b	.L7
 134              	.L6:
  52:core/Print.h  ****       return write((const uint8_t *)str, strlen(str));
 135              		.loc 2 52 0 is_stmt 1
 136 0014 7B68     		ldr	r3, [r7, #4]
 137 0016 1B68     		ldr	r3, [r3]
 138 0018 0433     		adds	r3, r3, #4
 139 001a 1C68     		ldr	r4, [r3]
 140 001c 3868     		ldr	r0, [r7]
 141 001e FFF7FEFF 		bl	strlen
 142 0022 0346     		mov	r3, r0
 143 0024 7868     		ldr	r0, [r7, #4]
 144 0026 3968     		ldr	r1, [r7]
 145 0028 1A46     		mov	r2, r3
 146 002a A047     		blx	r4
 147 002c 0346     		mov	r3, r0
 148              	.L7:
  53:core/Print.h  ****     }
 149              		.loc 2 53 0
 150 002e 1846     		mov	r0, r3
 151 0030 0C37     		adds	r7, r7, #12
 152              		.cfi_def_cfa_offset 12
 153 0032 BD46     		mov	sp, r7
 154              		.cfi_def_cfa_register 13
 155              		@ sp needed
 156 0034 90BD     		pop	{r4, r7, pc}
 157              		.cfi_endproc
 158              	.LFE123:
 159              		.fnend
 160              		.size	_ZN5Print5writeEPKc, .-_ZN5Print5writeEPKc
 161 0036 00BF     		.section	.text._ZN5Print5writeEPKcj,"axG",%progbits,_ZN5Print5writeEPKcj,comdat
 162              		.align	2
 163              		.weak	_ZN5Print5writeEPKcj
 164              		.thumb
 165              		.thumb_func
 166              		.type	_ZN5Print5writeEPKcj, %function
 167              	_ZN5Print5writeEPKcj:
 168              		.fnstart
 169              	.LFB124:
  54:core/Print.h  ****     virtual size_t write(const uint8_t *buffer, size_t size);
  55:core/Print.h  ****     size_t write(const char *buffer, size_t size) {
 170              		.loc 2 55 0
 171              		.cfi_startproc
 172              		@ args = 0, pretend = 0, frame = 16
 173              		@ frame_needed = 1, uses_anonymous_args = 0
 174 0000 80B5     		push	{r7, lr}
 175              		.save {r7, lr}
 176              		.cfi_def_cfa_offset 8
 177              		.cfi_offset 7, -8
 178              		.cfi_offset 14, -4
 179              		.pad #16
 180 0002 84B0     		sub	sp, sp, #16
 181              		.cfi_def_cfa_offset 24
ARM GAS  C:\Users\Bruger\AppData\Local\Temp\cc797ORx.s 			page 8


 182              		.setfp r7, sp, #0
 183 0004 00AF     		add	r7, sp, #0
 184              		.cfi_def_cfa_register 7
 185 0006 F860     		str	r0, [r7, #12]
 186 0008 B960     		str	r1, [r7, #8]
 187 000a 7A60     		str	r2, [r7, #4]
  56:core/Print.h  ****       return write((const uint8_t *)buffer, size);
 188              		.loc 2 56 0
 189 000c FB68     		ldr	r3, [r7, #12]
 190 000e 1B68     		ldr	r3, [r3]
 191 0010 0433     		adds	r3, r3, #4
 192 0012 1B68     		ldr	r3, [r3]
 193 0014 F868     		ldr	r0, [r7, #12]
 194 0016 B968     		ldr	r1, [r7, #8]
 195 0018 7A68     		ldr	r2, [r7, #4]
 196 001a 9847     		blx	r3
 197 001c 0346     		mov	r3, r0
  57:core/Print.h  ****     }
 198              		.loc 2 57 0
 199 001e 1846     		mov	r0, r3
 200 0020 1037     		adds	r7, r7, #16
 201              		.cfi_def_cfa_offset 8
 202 0022 BD46     		mov	sp, r7
 203              		.cfi_def_cfa_register 13
 204              		@ sp needed
 205 0024 80BD     		pop	{r7, pc}
 206              		.cfi_endproc
 207              	.LFE124:
 208              		.fnend
 209              		.size	_ZN5Print5writeEPKcj, .-_ZN5Print5writeEPKcj
 210 0026 00BF     		.section	.text._ZN5Print5writeEPKhj,"ax",%progbits
 211              		.align	2
 212              		.global	_ZN5Print5writeEPKhj
 213              		.thumb
 214              		.thumb_func
 215              		.type	_ZN5Print5writeEPKhj, %function
 216              	_ZN5Print5writeEPKhj:
 217              		.fnstart
 218              	.LFB147:
 219              		.file 3 "core\\Print.cpp"
   1:core/Print.cpp **** /*
   2:core/Print.cpp ****  Print.cpp - Base class that provides print() and println()
   3:core/Print.cpp ****  Copyright (c) 2008 David A. Mellis.  All right reserved.
   4:core/Print.cpp ****  
   5:core/Print.cpp ****  This library is free software; you can redistribute it and/or
   6:core/Print.cpp ****  modify it under the terms of the GNU Lesser General Public
   7:core/Print.cpp ****  License as published by the Free Software Foundation; either
   8:core/Print.cpp ****  version 2.1 of the License, or (at your option) any later version.
   9:core/Print.cpp ****  
  10:core/Print.cpp ****  This library is distributed in the hope that it will be useful,
  11:core/Print.cpp ****  but WITHOUT ANY WARRANTY; without even the implied warranty of
  12:core/Print.cpp ****  MERCHANTABILITY or FITNESS FOR A PARTICULAR PURPOSE.  See the GNU
  13:core/Print.cpp ****  Lesser General Public License for more details.
  14:core/Print.cpp ****  
  15:core/Print.cpp ****  You should have received a copy of the GNU Lesser General Public
  16:core/Print.cpp ****  License along with this library; if not, write to the Free Software
  17:core/Print.cpp ****  Foundation, Inc., 51 Franklin St, Fifth Floor, Boston, MA  02110-1301  USA
ARM GAS  C:\Users\Bruger\AppData\Local\Temp\cc797ORx.s 			page 9


  18:core/Print.cpp ****  
  19:core/Print.cpp ****  Modified 23 November 2006 by David A. Mellis
  20:core/Print.cpp ****  */
  21:core/Print.cpp **** 
  22:core/Print.cpp **** #include <stdlib.h>
  23:core/Print.cpp **** #include <stdio.h>
  24:core/Print.cpp **** #include <string.h>
  25:core/Print.cpp **** #include <math.h>
  26:core/Print.cpp **** #include "Arduino.h"
  27:core/Print.cpp **** 
  28:core/Print.cpp **** #include "Print.h"
  29:core/Print.cpp **** 
  30:core/Print.cpp **** // Public Methods //////////////////////////////////////////////////////////////
  31:core/Print.cpp **** 
  32:core/Print.cpp **** /* default implementation: may be overridden */
  33:core/Print.cpp **** size_t Print::write(const uint8_t *buffer, size_t size)
  34:core/Print.cpp **** {
 220              		.loc 3 34 0
 221              		.cfi_startproc
 222              		@ args = 0, pretend = 0, frame = 24
 223              		@ frame_needed = 1, uses_anonymous_args = 0
 224 0000 80B5     		push	{r7, lr}
 225              		.save {r7, lr}
 226              		.cfi_def_cfa_offset 8
 227              		.cfi_offset 7, -8
 228              		.cfi_offset 14, -4
 229              		.pad #24
 230 0002 86B0     		sub	sp, sp, #24
 231              		.cfi_def_cfa_offset 32
 232              		.setfp r7, sp, #0
 233 0004 00AF     		add	r7, sp, #0
 234              		.cfi_def_cfa_register 7
 235 0006 F860     		str	r0, [r7, #12]
 236 0008 B960     		str	r1, [r7, #8]
 237 000a 7A60     		str	r2, [r7, #4]
 238              	.LBB2:
  35:core/Print.cpp ****   size_t n = 0;
 239              		.loc 3 35 0
 240 000c 0023     		movs	r3, #0
 241 000e 7B61     		str	r3, [r7, #20]
  36:core/Print.cpp ****   while (size--) {
 242              		.loc 3 36 0
 243 0010 0DE0     		b	.L11
 244              	.L12:
  37:core/Print.cpp ****     n += write(*buffer++);
 245              		.loc 3 37 0
 246 0012 FB68     		ldr	r3, [r7, #12]
 247 0014 1B68     		ldr	r3, [r3]
 248 0016 1A68     		ldr	r2, [r3]
 249 0018 BB68     		ldr	r3, [r7, #8]
 250 001a 591C     		adds	r1, r3, #1
 251 001c B960     		str	r1, [r7, #8]
 252 001e 1B78     		ldrb	r3, [r3]	@ zero_extendqisi2
 253 0020 F868     		ldr	r0, [r7, #12]
 254 0022 1946     		mov	r1, r3
 255 0024 9047     		blx	r2
 256 0026 0246     		mov	r2, r0
ARM GAS  C:\Users\Bruger\AppData\Local\Temp\cc797ORx.s 			page 10


 257 0028 7B69     		ldr	r3, [r7, #20]
 258 002a 1344     		add	r3, r3, r2
 259 002c 7B61     		str	r3, [r7, #20]
 260              	.L11:
  36:core/Print.cpp ****   while (size--) {
 261              		.loc 3 36 0
 262 002e 7B68     		ldr	r3, [r7, #4]
 263 0030 5A1E     		subs	r2, r3, #1
 264 0032 7A60     		str	r2, [r7, #4]
 265 0034 002B     		cmp	r3, #0
 266 0036 14BF     		ite	ne
 267 0038 0123     		movne	r3, #1
 268 003a 0023     		moveq	r3, #0
 269 003c DBB2     		uxtb	r3, r3
 270 003e 002B     		cmp	r3, #0
 271 0040 E7D1     		bne	.L12
  38:core/Print.cpp ****   }
  39:core/Print.cpp ****   return n;
 272              		.loc 3 39 0
 273 0042 7B69     		ldr	r3, [r7, #20]
 274              	.LBE2:
  40:core/Print.cpp **** }
 275              		.loc 3 40 0
 276 0044 1846     		mov	r0, r3
 277 0046 1837     		adds	r7, r7, #24
 278              		.cfi_def_cfa_offset 8
 279 0048 BD46     		mov	sp, r7
 280              		.cfi_def_cfa_register 13
 281              		@ sp needed
 282 004a 80BD     		pop	{r7, pc}
 283              		.cfi_endproc
 284              	.LFE147:
 285              		.fnend
 286              		.size	_ZN5Print5writeEPKhj, .-_ZN5Print5writeEPKhj
 287              		.section	.text._ZN5Print5printEPK19__FlashStringHelper,"ax",%progbits
 288              		.align	2
 289              		.global	_ZN5Print5printEPK19__FlashStringHelper
 290              		.thumb
 291              		.thumb_func
 292              		.type	_ZN5Print5printEPK19__FlashStringHelper, %function
 293              	_ZN5Print5printEPK19__FlashStringHelper:
 294              		.fnstart
 295              	.LFB148:
  41:core/Print.cpp **** 
  42:core/Print.cpp **** size_t Print::print(const __FlashStringHelper *ifsh)
  43:core/Print.cpp **** {
 296              		.loc 3 43 0
 297              		.cfi_startproc
 298              		@ args = 0, pretend = 0, frame = 8
 299              		@ frame_needed = 1, uses_anonymous_args = 0
 300 0000 80B5     		push	{r7, lr}
 301              		.save {r7, lr}
 302              		.cfi_def_cfa_offset 8
 303              		.cfi_offset 7, -8
 304              		.cfi_offset 14, -4
 305              		.pad #8
 306 0002 82B0     		sub	sp, sp, #8
ARM GAS  C:\Users\Bruger\AppData\Local\Temp\cc797ORx.s 			page 11


 307              		.cfi_def_cfa_offset 16
 308              		.setfp r7, sp, #0
 309 0004 00AF     		add	r7, sp, #0
 310              		.cfi_def_cfa_register 7
 311 0006 7860     		str	r0, [r7, #4]
 312 0008 3960     		str	r1, [r7]
  44:core/Print.cpp ****   return print(reinterpret_cast<const char *>(ifsh));
 313              		.loc 3 44 0
 314 000a 7868     		ldr	r0, [r7, #4]
 315 000c 3968     		ldr	r1, [r7]
 316 000e FFF7FEFF 		bl	_ZN5Print5printEPKc
 317 0012 0346     		mov	r3, r0
  45:core/Print.cpp **** }
 318              		.loc 3 45 0
 319 0014 1846     		mov	r0, r3
 320 0016 0837     		adds	r7, r7, #8
 321              		.cfi_def_cfa_offset 8
 322 0018 BD46     		mov	sp, r7
 323              		.cfi_def_cfa_register 13
 324              		@ sp needed
 325 001a 80BD     		pop	{r7, pc}
 326              		.cfi_endproc
 327              	.LFE148:
 328              		.fnend
 329              		.size	_ZN5Print5printEPK19__FlashStringHelper, .-_ZN5Print5printEPK19__FlashStringHelper
 330              		.section	.text._ZN5Print5printERK6String,"ax",%progbits
 331              		.align	2
 332              		.global	_ZN5Print5printERK6String
 333              		.thumb
 334              		.thumb_func
 335              		.type	_ZN5Print5printERK6String, %function
 336              	_ZN5Print5printERK6String:
 337              		.fnstart
 338              	.LFB149:
  46:core/Print.cpp **** 
  47:core/Print.cpp **** size_t Print::print(const String &s)
  48:core/Print.cpp **** {
 339              		.loc 3 48 0
 340              		.cfi_startproc
 341              		@ args = 0, pretend = 0, frame = 8
 342              		@ frame_needed = 1, uses_anonymous_args = 0
 343 0000 90B5     		push	{r4, r7, lr}
 344              		.save {r4, r7, lr}
 345              		.cfi_def_cfa_offset 12
 346              		.cfi_offset 4, -12
 347              		.cfi_offset 7, -8
 348              		.cfi_offset 14, -4
 349              		.pad #12
 350 0002 83B0     		sub	sp, sp, #12
 351              		.cfi_def_cfa_offset 24
 352              		.setfp r7, sp, #0
 353 0004 00AF     		add	r7, sp, #0
 354              		.cfi_def_cfa_register 7
 355 0006 7860     		str	r0, [r7, #4]
 356 0008 3960     		str	r1, [r7]
  49:core/Print.cpp ****   return write(s.c_str(), s.length());
 357              		.loc 3 49 0
ARM GAS  C:\Users\Bruger\AppData\Local\Temp\cc797ORx.s 			page 12


 358 000a 3868     		ldr	r0, [r7]
 359 000c FFF7FEFF 		bl	_ZNK6String5c_strEv
 360 0010 0446     		mov	r4, r0
 361 0012 3868     		ldr	r0, [r7]
 362 0014 FFF7FEFF 		bl	_ZNK6String6lengthEv
 363 0018 0346     		mov	r3, r0
 364 001a 7868     		ldr	r0, [r7, #4]
 365 001c 2146     		mov	r1, r4
 366 001e 1A46     		mov	r2, r3
 367 0020 FFF7FEFF 		bl	_ZN5Print5writeEPKcj
 368 0024 0346     		mov	r3, r0
  50:core/Print.cpp **** }
 369              		.loc 3 50 0
 370 0026 1846     		mov	r0, r3
 371 0028 0C37     		adds	r7, r7, #12
 372              		.cfi_def_cfa_offset 12
 373 002a BD46     		mov	sp, r7
 374              		.cfi_def_cfa_register 13
 375              		@ sp needed
 376 002c 90BD     		pop	{r4, r7, pc}
 377              		.cfi_endproc
 378              	.LFE149:
 379              		.fnend
 380              		.size	_ZN5Print5printERK6String, .-_ZN5Print5printERK6String
 381 002e 00BF     		.section	.text._ZN5Print5printEPKc,"ax",%progbits
 382              		.align	2
 383              		.global	_ZN5Print5printEPKc
 384              		.thumb
 385              		.thumb_func
 386              		.type	_ZN5Print5printEPKc, %function
 387              	_ZN5Print5printEPKc:
 388              		.fnstart
 389              	.LFB150:
  51:core/Print.cpp **** 
  52:core/Print.cpp **** size_t Print::print(const char str[])
  53:core/Print.cpp **** {
 390              		.loc 3 53 0
 391              		.cfi_startproc
 392              		@ args = 0, pretend = 0, frame = 8
 393              		@ frame_needed = 1, uses_anonymous_args = 0
 394 0000 80B5     		push	{r7, lr}
 395              		.save {r7, lr}
 396              		.cfi_def_cfa_offset 8
 397              		.cfi_offset 7, -8
 398              		.cfi_offset 14, -4
 399              		.pad #8
 400 0002 82B0     		sub	sp, sp, #8
 401              		.cfi_def_cfa_offset 16
 402              		.setfp r7, sp, #0
 403 0004 00AF     		add	r7, sp, #0
 404              		.cfi_def_cfa_register 7
 405 0006 7860     		str	r0, [r7, #4]
 406 0008 3960     		str	r1, [r7]
  54:core/Print.cpp ****   return write(str);
 407              		.loc 3 54 0
 408 000a 7868     		ldr	r0, [r7, #4]
 409 000c 3968     		ldr	r1, [r7]
ARM GAS  C:\Users\Bruger\AppData\Local\Temp\cc797ORx.s 			page 13


 410 000e FFF7FEFF 		bl	_ZN5Print5writeEPKc
 411 0012 0346     		mov	r3, r0
  55:core/Print.cpp **** }
 412              		.loc 3 55 0
 413 0014 1846     		mov	r0, r3
 414 0016 0837     		adds	r7, r7, #8
 415              		.cfi_def_cfa_offset 8
 416 0018 BD46     		mov	sp, r7
 417              		.cfi_def_cfa_register 13
 418              		@ sp needed
 419 001a 80BD     		pop	{r7, pc}
 420              		.cfi_endproc
 421              	.LFE150:
 422              		.fnend
 423              		.size	_ZN5Print5printEPKc, .-_ZN5Print5printEPKc
 424              		.section	.text._ZN5Print5printEc,"ax",%progbits
 425              		.align	2
 426              		.global	_ZN5Print5printEc
 427              		.thumb
 428              		.thumb_func
 429              		.type	_ZN5Print5printEc, %function
 430              	_ZN5Print5printEc:
 431              		.fnstart
 432              	.LFB151:
  56:core/Print.cpp **** 
  57:core/Print.cpp **** size_t Print::print(char c)
  58:core/Print.cpp **** {
 433              		.loc 3 58 0
 434              		.cfi_startproc
 435              		@ args = 0, pretend = 0, frame = 8
 436              		@ frame_needed = 1, uses_anonymous_args = 0
 437 0000 80B5     		push	{r7, lr}
 438              		.save {r7, lr}
 439              		.cfi_def_cfa_offset 8
 440              		.cfi_offset 7, -8
 441              		.cfi_offset 14, -4
 442              		.pad #8
 443 0002 82B0     		sub	sp, sp, #8
 444              		.cfi_def_cfa_offset 16
 445              		.setfp r7, sp, #0
 446 0004 00AF     		add	r7, sp, #0
 447              		.cfi_def_cfa_register 7
 448 0006 7860     		str	r0, [r7, #4]
 449 0008 0B46     		mov	r3, r1
 450 000a FB70     		strb	r3, [r7, #3]
  59:core/Print.cpp ****   return write(c);
 451              		.loc 3 59 0
 452 000c 7B68     		ldr	r3, [r7, #4]
 453 000e 1B68     		ldr	r3, [r3]
 454 0010 1B68     		ldr	r3, [r3]
 455 0012 FA78     		ldrb	r2, [r7, #3]	@ zero_extendqisi2
 456 0014 7868     		ldr	r0, [r7, #4]
 457 0016 1146     		mov	r1, r2
 458 0018 9847     		blx	r3
 459 001a 0346     		mov	r3, r0
  60:core/Print.cpp **** }
 460              		.loc 3 60 0
ARM GAS  C:\Users\Bruger\AppData\Local\Temp\cc797ORx.s 			page 14


 461 001c 1846     		mov	r0, r3
 462 001e 0837     		adds	r7, r7, #8
 463              		.cfi_def_cfa_offset 8
 464 0020 BD46     		mov	sp, r7
 465              		.cfi_def_cfa_register 13
 466              		@ sp needed
 467 0022 80BD     		pop	{r7, pc}
 468              		.cfi_endproc
 469              	.LFE151:
 470              		.fnend
 471              		.size	_ZN5Print5printEc, .-_ZN5Print5printEc
 472              		.section	.text._ZN5Print5printEhi,"ax",%progbits
 473              		.align	2
 474              		.global	_ZN5Print5printEhi
 475              		.thumb
 476              		.thumb_func
 477              		.type	_ZN5Print5printEhi, %function
 478              	_ZN5Print5printEhi:
 479              		.fnstart
 480              	.LFB152:
  61:core/Print.cpp **** 
  62:core/Print.cpp **** size_t Print::print(unsigned char b, int base)
  63:core/Print.cpp **** {
 481              		.loc 3 63 0
 482              		.cfi_startproc
 483              		@ args = 0, pretend = 0, frame = 16
 484              		@ frame_needed = 1, uses_anonymous_args = 0
 485 0000 80B5     		push	{r7, lr}
 486              		.save {r7, lr}
 487              		.cfi_def_cfa_offset 8
 488              		.cfi_offset 7, -8
 489              		.cfi_offset 14, -4
 490              		.pad #16
 491 0002 84B0     		sub	sp, sp, #16
 492              		.cfi_def_cfa_offset 24
 493              		.setfp r7, sp, #0
 494 0004 00AF     		add	r7, sp, #0
 495              		.cfi_def_cfa_register 7
 496 0006 F860     		str	r0, [r7, #12]
 497 0008 0B46     		mov	r3, r1
 498 000a 7A60     		str	r2, [r7, #4]
 499 000c FB72     		strb	r3, [r7, #11]
  64:core/Print.cpp ****   return print((unsigned long) b, base);
 500              		.loc 3 64 0
 501 000e FB7A     		ldrb	r3, [r7, #11]	@ zero_extendqisi2
 502 0010 F868     		ldr	r0, [r7, #12]
 503 0012 1946     		mov	r1, r3
 504 0014 7A68     		ldr	r2, [r7, #4]
 505 0016 FFF7FEFF 		bl	_ZN5Print5printEmi
 506 001a 0346     		mov	r3, r0
  65:core/Print.cpp **** }
 507              		.loc 3 65 0
 508 001c 1846     		mov	r0, r3
 509 001e 1037     		adds	r7, r7, #16
 510              		.cfi_def_cfa_offset 8
 511 0020 BD46     		mov	sp, r7
 512              		.cfi_def_cfa_register 13
ARM GAS  C:\Users\Bruger\AppData\Local\Temp\cc797ORx.s 			page 15


 513              		@ sp needed
 514 0022 80BD     		pop	{r7, pc}
 515              		.cfi_endproc
 516              	.LFE152:
 517              		.fnend
 518              		.size	_ZN5Print5printEhi, .-_ZN5Print5printEhi
 519              		.section	.text._ZN5Print5printEii,"ax",%progbits
 520              		.align	2
 521              		.global	_ZN5Print5printEii
 522              		.thumb
 523              		.thumb_func
 524              		.type	_ZN5Print5printEii, %function
 525              	_ZN5Print5printEii:
 526              		.fnstart
 527              	.LFB153:
  66:core/Print.cpp **** 
  67:core/Print.cpp **** size_t Print::print(int n, int base)
  68:core/Print.cpp **** {
 528              		.loc 3 68 0
 529              		.cfi_startproc
 530              		@ args = 0, pretend = 0, frame = 16
 531              		@ frame_needed = 1, uses_anonymous_args = 0
 532 0000 80B5     		push	{r7, lr}
 533              		.save {r7, lr}
 534              		.cfi_def_cfa_offset 8
 535              		.cfi_offset 7, -8
 536              		.cfi_offset 14, -4
 537              		.pad #16
 538 0002 84B0     		sub	sp, sp, #16
 539              		.cfi_def_cfa_offset 24
 540              		.setfp r7, sp, #0
 541 0004 00AF     		add	r7, sp, #0
 542              		.cfi_def_cfa_register 7
 543 0006 F860     		str	r0, [r7, #12]
 544 0008 B960     		str	r1, [r7, #8]
 545 000a 7A60     		str	r2, [r7, #4]
  69:core/Print.cpp ****   return print((long) n, base);
 546              		.loc 3 69 0
 547 000c F868     		ldr	r0, [r7, #12]
 548 000e B968     		ldr	r1, [r7, #8]
 549 0010 7A68     		ldr	r2, [r7, #4]
 550 0012 FFF7FEFF 		bl	_ZN5Print5printEli
 551 0016 0346     		mov	r3, r0
  70:core/Print.cpp **** }
 552              		.loc 3 70 0
 553 0018 1846     		mov	r0, r3
 554 001a 1037     		adds	r7, r7, #16
 555              		.cfi_def_cfa_offset 8
 556 001c BD46     		mov	sp, r7
 557              		.cfi_def_cfa_register 13
 558              		@ sp needed
 559 001e 80BD     		pop	{r7, pc}
 560              		.cfi_endproc
 561              	.LFE153:
 562              		.fnend
 563              		.size	_ZN5Print5printEii, .-_ZN5Print5printEii
 564              		.section	.text._ZN5Print5printEji,"ax",%progbits
ARM GAS  C:\Users\Bruger\AppData\Local\Temp\cc797ORx.s 			page 16


 565              		.align	2
 566              		.global	_ZN5Print5printEji
 567              		.thumb
 568              		.thumb_func
 569              		.type	_ZN5Print5printEji, %function
 570              	_ZN5Print5printEji:
 571              		.fnstart
 572              	.LFB154:
  71:core/Print.cpp **** 
  72:core/Print.cpp **** size_t Print::print(unsigned int n, int base)
  73:core/Print.cpp **** {
 573              		.loc 3 73 0
 574              		.cfi_startproc
 575              		@ args = 0, pretend = 0, frame = 16
 576              		@ frame_needed = 1, uses_anonymous_args = 0
 577 0000 80B5     		push	{r7, lr}
 578              		.save {r7, lr}
 579              		.cfi_def_cfa_offset 8
 580              		.cfi_offset 7, -8
 581              		.cfi_offset 14, -4
 582              		.pad #16
 583 0002 84B0     		sub	sp, sp, #16
 584              		.cfi_def_cfa_offset 24
 585              		.setfp r7, sp, #0
 586 0004 00AF     		add	r7, sp, #0
 587              		.cfi_def_cfa_register 7
 588 0006 F860     		str	r0, [r7, #12]
 589 0008 B960     		str	r1, [r7, #8]
 590 000a 7A60     		str	r2, [r7, #4]
  74:core/Print.cpp ****   return print((unsigned long) n, base);
 591              		.loc 3 74 0
 592 000c F868     		ldr	r0, [r7, #12]
 593 000e B968     		ldr	r1, [r7, #8]
 594 0010 7A68     		ldr	r2, [r7, #4]
 595 0012 FFF7FEFF 		bl	_ZN5Print5printEmi
 596 0016 0346     		mov	r3, r0
  75:core/Print.cpp **** }
 597              		.loc 3 75 0
 598 0018 1846     		mov	r0, r3
 599 001a 1037     		adds	r7, r7, #16
 600              		.cfi_def_cfa_offset 8
 601 001c BD46     		mov	sp, r7
 602              		.cfi_def_cfa_register 13
 603              		@ sp needed
 604 001e 80BD     		pop	{r7, pc}
 605              		.cfi_endproc
 606              	.LFE154:
 607              		.fnend
 608              		.size	_ZN5Print5printEji, .-_ZN5Print5printEji
 609              		.section	.text._ZN5Print5printEli,"ax",%progbits
 610              		.align	2
 611              		.global	_ZN5Print5printEli
 612              		.thumb
 613              		.thumb_func
 614              		.type	_ZN5Print5printEli, %function
 615              	_ZN5Print5printEli:
 616              		.fnstart
ARM GAS  C:\Users\Bruger\AppData\Local\Temp\cc797ORx.s 			page 17


 617              	.LFB155:
  76:core/Print.cpp **** 
  77:core/Print.cpp **** size_t Print::print(long n, int base)
  78:core/Print.cpp **** {
 618              		.loc 3 78 0
 619              		.cfi_startproc
 620              		@ args = 0, pretend = 0, frame = 24
 621              		@ frame_needed = 1, uses_anonymous_args = 0
 622 0000 80B5     		push	{r7, lr}
 623              		.save {r7, lr}
 624              		.cfi_def_cfa_offset 8
 625              		.cfi_offset 7, -8
 626              		.cfi_offset 14, -4
 627              		.pad #24
 628 0002 86B0     		sub	sp, sp, #24
 629              		.cfi_def_cfa_offset 32
 630              		.setfp r7, sp, #0
 631 0004 00AF     		add	r7, sp, #0
 632              		.cfi_def_cfa_register 7
 633 0006 F860     		str	r0, [r7, #12]
 634 0008 B960     		str	r1, [r7, #8]
 635 000a 7A60     		str	r2, [r7, #4]
 636              	.LBB3:
 637              	.LBB4:
  79:core/Print.cpp ****   if (base == 0) {
 638              		.loc 3 79 0
 639 000c 7B68     		ldr	r3, [r7, #4]
 640 000e 002B     		cmp	r3, #0
 641 0010 09D1     		bne	.L29
  80:core/Print.cpp ****     return write(n);
 642              		.loc 3 80 0
 643 0012 FB68     		ldr	r3, [r7, #12]
 644 0014 1B68     		ldr	r3, [r3]
 645 0016 1B68     		ldr	r3, [r3]
 646 0018 BA68     		ldr	r2, [r7, #8]
 647 001a D2B2     		uxtb	r2, r2
 648 001c F868     		ldr	r0, [r7, #12]
 649 001e 1146     		mov	r1, r2
 650 0020 9847     		blx	r3
 651 0022 0346     		mov	r3, r0
 652 0024 29E0     		b	.L30
 653              	.L29:
 654              	.LBB5:
 655              	.LBB6:
  81:core/Print.cpp ****   } else if (base == 10) {
 656              		.loc 3 81 0
 657 0026 7B68     		ldr	r3, [r7, #4]
 658 0028 0A2B     		cmp	r3, #10
 659 002a 1DD1     		bne	.L31
 660              	.LBB7:
 661              	.LBB8:
  82:core/Print.cpp ****     if (n < 0) {
 662              		.loc 3 82 0
 663 002c BB68     		ldr	r3, [r7, #8]
 664 002e 002B     		cmp	r3, #0
 665 0030 12DA     		bge	.L32
 666              	.LBB9:
ARM GAS  C:\Users\Bruger\AppData\Local\Temp\cc797ORx.s 			page 18


  83:core/Print.cpp ****       int t = print('-');
 667              		.loc 3 83 0
 668 0032 F868     		ldr	r0, [r7, #12]
 669 0034 2D21     		movs	r1, #45
 670 0036 FFF7FEFF 		bl	_ZN5Print5printEc
 671 003a 0346     		mov	r3, r0
 672 003c 7B61     		str	r3, [r7, #20]
  84:core/Print.cpp ****       n = -n;
 673              		.loc 3 84 0
 674 003e BB68     		ldr	r3, [r7, #8]
 675 0040 5B42     		negs	r3, r3
 676 0042 BB60     		str	r3, [r7, #8]
  85:core/Print.cpp ****       return printNumber(n, 10) + t;
 677              		.loc 3 85 0
 678 0044 BB68     		ldr	r3, [r7, #8]
 679 0046 F868     		ldr	r0, [r7, #12]
 680 0048 1946     		mov	r1, r3
 681 004a 0A22     		movs	r2, #10
 682 004c FFF7FEFF 		bl	_ZN5Print11printNumberEmh
 683 0050 0246     		mov	r2, r0
 684 0052 7B69     		ldr	r3, [r7, #20]
 685 0054 1344     		add	r3, r3, r2
 686 0056 10E0     		b	.L30
 687              	.L32:
 688              	.LBE9:
 689              	.LBE8:
  86:core/Print.cpp ****     }
  87:core/Print.cpp ****     return printNumber(n, 10);
 690              		.loc 3 87 0
 691 0058 BB68     		ldr	r3, [r7, #8]
 692 005a F868     		ldr	r0, [r7, #12]
 693 005c 1946     		mov	r1, r3
 694 005e 0A22     		movs	r2, #10
 695 0060 FFF7FEFF 		bl	_ZN5Print11printNumberEmh
 696 0064 0346     		mov	r3, r0
 697 0066 08E0     		b	.L30
 698              	.L31:
 699              	.LBE7:
  88:core/Print.cpp ****   } else {
  89:core/Print.cpp ****     return printNumber(n, base);
 700              		.loc 3 89 0
 701 0068 BA68     		ldr	r2, [r7, #8]
 702 006a 7B68     		ldr	r3, [r7, #4]
 703 006c DBB2     		uxtb	r3, r3
 704 006e F868     		ldr	r0, [r7, #12]
 705 0070 1146     		mov	r1, r2
 706 0072 1A46     		mov	r2, r3
 707 0074 FFF7FEFF 		bl	_ZN5Print11printNumberEmh
 708 0078 0346     		mov	r3, r0
 709              	.L30:
 710              	.LBE6:
 711              	.LBE5:
 712              	.LBE4:
 713              	.LBE3:
  90:core/Print.cpp ****   }
  91:core/Print.cpp **** }
 714              		.loc 3 91 0
ARM GAS  C:\Users\Bruger\AppData\Local\Temp\cc797ORx.s 			page 19


 715 007a 1846     		mov	r0, r3
 716 007c 1837     		adds	r7, r7, #24
 717              		.cfi_def_cfa_offset 8
 718 007e BD46     		mov	sp, r7
 719              		.cfi_def_cfa_register 13
 720              		@ sp needed
 721 0080 80BD     		pop	{r7, pc}
 722              		.cfi_endproc
 723              	.LFE155:
 724              		.fnend
 725              		.size	_ZN5Print5printEli, .-_ZN5Print5printEli
 726 0082 00BF     		.section	.text._ZN5Print5printEmi,"ax",%progbits
 727              		.align	2
 728              		.global	_ZN5Print5printEmi
 729              		.thumb
 730              		.thumb_func
 731              		.type	_ZN5Print5printEmi, %function
 732              	_ZN5Print5printEmi:
 733              		.fnstart
 734              	.LFB156:
  92:core/Print.cpp **** 
  93:core/Print.cpp **** size_t Print::print(unsigned long n, int base)
  94:core/Print.cpp **** {
 735              		.loc 3 94 0
 736              		.cfi_startproc
 737              		@ args = 0, pretend = 0, frame = 16
 738              		@ frame_needed = 1, uses_anonymous_args = 0
 739 0000 80B5     		push	{r7, lr}
 740              		.save {r7, lr}
 741              		.cfi_def_cfa_offset 8
 742              		.cfi_offset 7, -8
 743              		.cfi_offset 14, -4
 744              		.pad #16
 745 0002 84B0     		sub	sp, sp, #16
 746              		.cfi_def_cfa_offset 24
 747              		.setfp r7, sp, #0
 748 0004 00AF     		add	r7, sp, #0
 749              		.cfi_def_cfa_register 7
 750 0006 F860     		str	r0, [r7, #12]
 751 0008 B960     		str	r1, [r7, #8]
 752 000a 7A60     		str	r2, [r7, #4]
  95:core/Print.cpp ****   if (base == 0) return write(n);
 753              		.loc 3 95 0
 754 000c 7B68     		ldr	r3, [r7, #4]
 755 000e 002B     		cmp	r3, #0
 756 0010 09D1     		bne	.L34
 757              		.loc 3 95 0 is_stmt 0 discriminator 1
 758 0012 FB68     		ldr	r3, [r7, #12]
 759 0014 1B68     		ldr	r3, [r3]
 760 0016 1B68     		ldr	r3, [r3]
 761 0018 BA68     		ldr	r2, [r7, #8]
 762 001a D2B2     		uxtb	r2, r2
 763 001c F868     		ldr	r0, [r7, #12]
 764 001e 1146     		mov	r1, r2
 765 0020 9847     		blx	r3
 766 0022 0346     		mov	r3, r0
 767 0024 07E0     		b	.L35
ARM GAS  C:\Users\Bruger\AppData\Local\Temp\cc797ORx.s 			page 20


 768              	.L34:
  96:core/Print.cpp ****   else return printNumber(n, base);
 769              		.loc 3 96 0 is_stmt 1
 770 0026 7B68     		ldr	r3, [r7, #4]
 771 0028 DBB2     		uxtb	r3, r3
 772 002a F868     		ldr	r0, [r7, #12]
 773 002c B968     		ldr	r1, [r7, #8]
 774 002e 1A46     		mov	r2, r3
 775 0030 FFF7FEFF 		bl	_ZN5Print11printNumberEmh
 776 0034 0346     		mov	r3, r0
 777              	.L35:
  97:core/Print.cpp **** }
 778              		.loc 3 97 0
 779 0036 1846     		mov	r0, r3
 780 0038 1037     		adds	r7, r7, #16
 781              		.cfi_def_cfa_offset 8
 782 003a BD46     		mov	sp, r7
 783              		.cfi_def_cfa_register 13
 784              		@ sp needed
 785 003c 80BD     		pop	{r7, pc}
 786              		.cfi_endproc
 787              	.LFE156:
 788              		.fnend
 789              		.size	_ZN5Print5printEmi, .-_ZN5Print5printEmi
 790 003e 00BF     		.section	.text._ZN5Print5printEdi,"ax",%progbits
 791              		.align	2
 792              		.global	_ZN5Print5printEdi
 793              		.thumb
 794              		.thumb_func
 795              		.type	_ZN5Print5printEdi, %function
 796              	_ZN5Print5printEdi:
 797              		.fnstart
 798              	.LFB157:
  98:core/Print.cpp **** 
  99:core/Print.cpp **** size_t Print::print(double n, int digits)
 100:core/Print.cpp **** {
 799              		.loc 3 100 0
 800              		.cfi_startproc
 801              		@ args = 4, pretend = 0, frame = 16
 802              		@ frame_needed = 1, uses_anonymous_args = 0
 803 0000 80B5     		push	{r7, lr}
 804              		.save {r7, lr}
 805              		.cfi_def_cfa_offset 8
 806              		.cfi_offset 7, -8
 807              		.cfi_offset 14, -4
 808              		.pad #24
 809 0002 86B0     		sub	sp, sp, #24
 810              		.cfi_def_cfa_offset 32
 811              		.setfp r7, sp, #8
 812 0004 02AF     		add	r7, sp, #8
 813              		.cfi_def_cfa 7, 24
 814 0006 F860     		str	r0, [r7, #12]
 815 0008 C7E90023 		strd	r2, [r7]
 101:core/Print.cpp ****   return printFloat(n, digits);
 816              		.loc 3 101 0
 817 000c BB69     		ldr	r3, [r7, #24]
 818 000e DBB2     		uxtb	r3, r3
ARM GAS  C:\Users\Bruger\AppData\Local\Temp\cc797ORx.s 			page 21


 819 0010 0093     		str	r3, [sp]
 820 0012 F868     		ldr	r0, [r7, #12]
 821 0014 D7E90023 		ldrd	r2, [r7]
 822 0018 FFF7FEFF 		bl	_ZN5Print10printFloatEdh
 823 001c 0346     		mov	r3, r0
 102:core/Print.cpp **** }
 824              		.loc 3 102 0
 825 001e 1846     		mov	r0, r3
 826 0020 1037     		adds	r7, r7, #16
 827              		.cfi_def_cfa_offset 8
 828 0022 BD46     		mov	sp, r7
 829              		.cfi_def_cfa_register 13
 830              		@ sp needed
 831 0024 80BD     		pop	{r7, pc}
 832              		.cfi_endproc
 833              	.LFE157:
 834              		.fnend
 835              		.size	_ZN5Print5printEdi, .-_ZN5Print5printEdi
 836 0026 00BF     		.section	.text._ZN5Print7printlnEPK19__FlashStringHelper,"ax",%progbits
 837              		.align	2
 838              		.global	_ZN5Print7printlnEPK19__FlashStringHelper
 839              		.thumb
 840              		.thumb_func
 841              		.type	_ZN5Print7printlnEPK19__FlashStringHelper, %function
 842              	_ZN5Print7printlnEPK19__FlashStringHelper:
 843              		.fnstart
 844              	.LFB158:
 103:core/Print.cpp **** 
 104:core/Print.cpp **** size_t Print::println(const __FlashStringHelper *ifsh)
 105:core/Print.cpp **** {
 845              		.loc 3 105 0
 846              		.cfi_startproc
 847              		@ args = 0, pretend = 0, frame = 16
 848              		@ frame_needed = 1, uses_anonymous_args = 0
 849 0000 80B5     		push	{r7, lr}
 850              		.save {r7, lr}
 851              		.cfi_def_cfa_offset 8
 852              		.cfi_offset 7, -8
 853              		.cfi_offset 14, -4
 854              		.pad #16
 855 0002 84B0     		sub	sp, sp, #16
 856              		.cfi_def_cfa_offset 24
 857              		.setfp r7, sp, #0
 858 0004 00AF     		add	r7, sp, #0
 859              		.cfi_def_cfa_register 7
 860 0006 7860     		str	r0, [r7, #4]
 861 0008 3960     		str	r1, [r7]
 862              	.LBB10:
 106:core/Print.cpp ****   size_t n = print(ifsh);
 863              		.loc 3 106 0
 864 000a 7868     		ldr	r0, [r7, #4]
 865 000c 3968     		ldr	r1, [r7]
 866 000e FFF7FEFF 		bl	_ZN5Print5printEPK19__FlashStringHelper
 867 0012 0346     		mov	r3, r0
 868 0014 FB60     		str	r3, [r7, #12]
 107:core/Print.cpp ****   n += println();
 869              		.loc 3 107 0
ARM GAS  C:\Users\Bruger\AppData\Local\Temp\cc797ORx.s 			page 22


 870 0016 7868     		ldr	r0, [r7, #4]
 871 0018 FFF7FEFF 		bl	_ZN5Print7printlnEv
 872 001c 0246     		mov	r2, r0
 873 001e FB68     		ldr	r3, [r7, #12]
 874 0020 1344     		add	r3, r3, r2
 875 0022 FB60     		str	r3, [r7, #12]
 108:core/Print.cpp ****   return n;
 876              		.loc 3 108 0
 877 0024 FB68     		ldr	r3, [r7, #12]
 878              	.LBE10:
 109:core/Print.cpp **** }
 879              		.loc 3 109 0
 880 0026 1846     		mov	r0, r3
 881 0028 1037     		adds	r7, r7, #16
 882              		.cfi_def_cfa_offset 8
 883 002a BD46     		mov	sp, r7
 884              		.cfi_def_cfa_register 13
 885              		@ sp needed
 886 002c 80BD     		pop	{r7, pc}
 887              		.cfi_endproc
 888              	.LFE158:
 889              		.fnend
 890              		.size	_ZN5Print7printlnEPK19__FlashStringHelper, .-_ZN5Print7printlnEPK19__FlashStringHelper
 891 002e 00BF     		.section	.text._ZN5Print5printERK9Printable,"ax",%progbits
 892              		.align	2
 893              		.global	_ZN5Print5printERK9Printable
 894              		.thumb
 895              		.thumb_func
 896              		.type	_ZN5Print5printERK9Printable, %function
 897              	_ZN5Print5printERK9Printable:
 898              		.fnstart
 899              	.LFB159:
 110:core/Print.cpp **** 
 111:core/Print.cpp **** size_t Print::print(const Printable& x)
 112:core/Print.cpp **** {
 900              		.loc 3 112 0
 901              		.cfi_startproc
 902              		@ args = 0, pretend = 0, frame = 8
 903              		@ frame_needed = 1, uses_anonymous_args = 0
 904 0000 80B5     		push	{r7, lr}
 905              		.save {r7, lr}
 906              		.cfi_def_cfa_offset 8
 907              		.cfi_offset 7, -8
 908              		.cfi_offset 14, -4
 909              		.pad #8
 910 0002 82B0     		sub	sp, sp, #8
 911              		.cfi_def_cfa_offset 16
 912              		.setfp r7, sp, #0
 913 0004 00AF     		add	r7, sp, #0
 914              		.cfi_def_cfa_register 7
 915 0006 7860     		str	r0, [r7, #4]
 916 0008 3960     		str	r1, [r7]
 113:core/Print.cpp ****   return x.printTo(*this);
 917              		.loc 3 113 0
 918 000a 3B68     		ldr	r3, [r7]
 919 000c 1B68     		ldr	r3, [r3]
 920 000e 1B68     		ldr	r3, [r3]
ARM GAS  C:\Users\Bruger\AppData\Local\Temp\cc797ORx.s 			page 23


 921 0010 3868     		ldr	r0, [r7]
 922 0012 7968     		ldr	r1, [r7, #4]
 923 0014 9847     		blx	r3
 924 0016 0346     		mov	r3, r0
 114:core/Print.cpp **** }
 925              		.loc 3 114 0
 926 0018 1846     		mov	r0, r3
 927 001a 0837     		adds	r7, r7, #8
 928              		.cfi_def_cfa_offset 8
 929 001c BD46     		mov	sp, r7
 930              		.cfi_def_cfa_register 13
 931              		@ sp needed
 932 001e 80BD     		pop	{r7, pc}
 933              		.cfi_endproc
 934              	.LFE159:
 935              		.fnend
 936              		.size	_ZN5Print5printERK9Printable, .-_ZN5Print5printERK9Printable
 937              		.section	.text._ZN5Print7printlnEv,"ax",%progbits
 938              		.align	2
 939              		.global	_ZN5Print7printlnEv
 940              		.thumb
 941              		.thumb_func
 942              		.type	_ZN5Print7printlnEv, %function
 943              	_ZN5Print7printlnEv:
 944              		.fnstart
 945              	.LFB160:
 115:core/Print.cpp **** 
 116:core/Print.cpp **** size_t Print::println(void)
 117:core/Print.cpp **** {
 946              		.loc 3 117 0
 947              		.cfi_startproc
 948              		@ args = 0, pretend = 0, frame = 16
 949              		@ frame_needed = 1, uses_anonymous_args = 0
 950 0000 80B5     		push	{r7, lr}
 951              		.save {r7, lr}
 952              		.cfi_def_cfa_offset 8
 953              		.cfi_offset 7, -8
 954              		.cfi_offset 14, -4
 955              		.pad #16
 956 0002 84B0     		sub	sp, sp, #16
 957              		.cfi_def_cfa_offset 24
 958              		.setfp r7, sp, #0
 959 0004 00AF     		add	r7, sp, #0
 960              		.cfi_def_cfa_register 7
 961 0006 7860     		str	r0, [r7, #4]
 962              	.LBB11:
 118:core/Print.cpp ****   size_t n = print('\r');
 963              		.loc 3 118 0
 964 0008 7868     		ldr	r0, [r7, #4]
 965 000a 0D21     		movs	r1, #13
 966 000c FFF7FEFF 		bl	_ZN5Print5printEc
 967 0010 0346     		mov	r3, r0
 968 0012 FB60     		str	r3, [r7, #12]
 119:core/Print.cpp ****   n += print('\n');
 969              		.loc 3 119 0
 970 0014 7868     		ldr	r0, [r7, #4]
 971 0016 0A21     		movs	r1, #10
ARM GAS  C:\Users\Bruger\AppData\Local\Temp\cc797ORx.s 			page 24


 972 0018 FFF7FEFF 		bl	_ZN5Print5printEc
 973 001c 0246     		mov	r2, r0
 974 001e FB68     		ldr	r3, [r7, #12]
 975 0020 1344     		add	r3, r3, r2
 976 0022 FB60     		str	r3, [r7, #12]
 120:core/Print.cpp ****   return n;
 977              		.loc 3 120 0
 978 0024 FB68     		ldr	r3, [r7, #12]
 979              	.LBE11:
 121:core/Print.cpp **** }
 980              		.loc 3 121 0
 981 0026 1846     		mov	r0, r3
 982 0028 1037     		adds	r7, r7, #16
 983              		.cfi_def_cfa_offset 8
 984 002a BD46     		mov	sp, r7
 985              		.cfi_def_cfa_register 13
 986              		@ sp needed
 987 002c 80BD     		pop	{r7, pc}
 988              		.cfi_endproc
 989              	.LFE160:
 990              		.fnend
 991              		.size	_ZN5Print7printlnEv, .-_ZN5Print7printlnEv
 992 002e 00BF     		.section	.text._ZN5Print7printlnERK6String,"ax",%progbits
 993              		.align	2
 994              		.global	_ZN5Print7printlnERK6String
 995              		.thumb
 996              		.thumb_func
 997              		.type	_ZN5Print7printlnERK6String, %function
 998              	_ZN5Print7printlnERK6String:
 999              		.fnstart
 1000              	.LFB161:
 122:core/Print.cpp **** 
 123:core/Print.cpp **** size_t Print::println(const String &s)
 124:core/Print.cpp **** {
 1001              		.loc 3 124 0
 1002              		.cfi_startproc
 1003              		@ args = 0, pretend = 0, frame = 16
 1004              		@ frame_needed = 1, uses_anonymous_args = 0
 1005 0000 80B5     		push	{r7, lr}
 1006              		.save {r7, lr}
 1007              		.cfi_def_cfa_offset 8
 1008              		.cfi_offset 7, -8
 1009              		.cfi_offset 14, -4
 1010              		.pad #16
 1011 0002 84B0     		sub	sp, sp, #16
 1012              		.cfi_def_cfa_offset 24
 1013              		.setfp r7, sp, #0
 1014 0004 00AF     		add	r7, sp, #0
 1015              		.cfi_def_cfa_register 7
 1016 0006 7860     		str	r0, [r7, #4]
 1017 0008 3960     		str	r1, [r7]
 1018              	.LBB12:
 125:core/Print.cpp ****   size_t n = print(s);
 1019              		.loc 3 125 0
 1020 000a 7868     		ldr	r0, [r7, #4]
 1021 000c 3968     		ldr	r1, [r7]
 1022 000e FFF7FEFF 		bl	_ZN5Print5printERK6String
ARM GAS  C:\Users\Bruger\AppData\Local\Temp\cc797ORx.s 			page 25


 1023 0012 0346     		mov	r3, r0
 1024 0014 FB60     		str	r3, [r7, #12]
 126:core/Print.cpp ****   n += println();
 1025              		.loc 3 126 0
 1026 0016 7868     		ldr	r0, [r7, #4]
 1027 0018 FFF7FEFF 		bl	_ZN5Print7printlnEv
 1028 001c 0246     		mov	r2, r0
 1029 001e FB68     		ldr	r3, [r7, #12]
 1030 0020 1344     		add	r3, r3, r2
 1031 0022 FB60     		str	r3, [r7, #12]
 127:core/Print.cpp ****   return n;
 1032              		.loc 3 127 0
 1033 0024 FB68     		ldr	r3, [r7, #12]
 1034              	.LBE12:
 128:core/Print.cpp **** }
 1035              		.loc 3 128 0
 1036 0026 1846     		mov	r0, r3
 1037 0028 1037     		adds	r7, r7, #16
 1038              		.cfi_def_cfa_offset 8
 1039 002a BD46     		mov	sp, r7
 1040              		.cfi_def_cfa_register 13
 1041              		@ sp needed
 1042 002c 80BD     		pop	{r7, pc}
 1043              		.cfi_endproc
 1044              	.LFE161:
 1045              		.fnend
 1046              		.size	_ZN5Print7printlnERK6String, .-_ZN5Print7printlnERK6String
 1047 002e 00BF     		.section	.text._ZN5Print7printlnEPKc,"ax",%progbits
 1048              		.align	2
 1049              		.global	_ZN5Print7printlnEPKc
 1050              		.thumb
 1051              		.thumb_func
 1052              		.type	_ZN5Print7printlnEPKc, %function
 1053              	_ZN5Print7printlnEPKc:
 1054              		.fnstart
 1055              	.LFB162:
 129:core/Print.cpp **** 
 130:core/Print.cpp **** size_t Print::println(const char c[])
 131:core/Print.cpp **** {
 1056              		.loc 3 131 0
 1057              		.cfi_startproc
 1058              		@ args = 0, pretend = 0, frame = 16
 1059              		@ frame_needed = 1, uses_anonymous_args = 0
 1060 0000 80B5     		push	{r7, lr}
 1061              		.save {r7, lr}
 1062              		.cfi_def_cfa_offset 8
 1063              		.cfi_offset 7, -8
 1064              		.cfi_offset 14, -4
 1065              		.pad #16
 1066 0002 84B0     		sub	sp, sp, #16
 1067              		.cfi_def_cfa_offset 24
 1068              		.setfp r7, sp, #0
 1069 0004 00AF     		add	r7, sp, #0
 1070              		.cfi_def_cfa_register 7
 1071 0006 7860     		str	r0, [r7, #4]
 1072 0008 3960     		str	r1, [r7]
 1073              	.LBB13:
ARM GAS  C:\Users\Bruger\AppData\Local\Temp\cc797ORx.s 			page 26


 132:core/Print.cpp ****   size_t n = print(c);
 1074              		.loc 3 132 0
 1075 000a 7868     		ldr	r0, [r7, #4]
 1076 000c 3968     		ldr	r1, [r7]
 1077 000e FFF7FEFF 		bl	_ZN5Print5printEPKc
 1078 0012 0346     		mov	r3, r0
 1079 0014 FB60     		str	r3, [r7, #12]
 133:core/Print.cpp ****   n += println();
 1080              		.loc 3 133 0
 1081 0016 7868     		ldr	r0, [r7, #4]
 1082 0018 FFF7FEFF 		bl	_ZN5Print7printlnEv
 1083 001c 0246     		mov	r2, r0
 1084 001e FB68     		ldr	r3, [r7, #12]
 1085 0020 1344     		add	r3, r3, r2
 1086 0022 FB60     		str	r3, [r7, #12]
 134:core/Print.cpp ****   return n;
 1087              		.loc 3 134 0
 1088 0024 FB68     		ldr	r3, [r7, #12]
 1089              	.LBE13:
 135:core/Print.cpp **** }
 1090              		.loc 3 135 0
 1091 0026 1846     		mov	r0, r3
 1092 0028 1037     		adds	r7, r7, #16
 1093              		.cfi_def_cfa_offset 8
 1094 002a BD46     		mov	sp, r7
 1095              		.cfi_def_cfa_register 13
 1096              		@ sp needed
 1097 002c 80BD     		pop	{r7, pc}
 1098              		.cfi_endproc
 1099              	.LFE162:
 1100              		.fnend
 1101              		.size	_ZN5Print7printlnEPKc, .-_ZN5Print7printlnEPKc
 1102 002e 00BF     		.section	.text._ZN5Print7printlnEc,"ax",%progbits
 1103              		.align	2
 1104              		.global	_ZN5Print7printlnEc
 1105              		.thumb
 1106              		.thumb_func
 1107              		.type	_ZN5Print7printlnEc, %function
 1108              	_ZN5Print7printlnEc:
 1109              		.fnstart
 1110              	.LFB163:
 136:core/Print.cpp **** 
 137:core/Print.cpp **** size_t Print::println(char c)
 138:core/Print.cpp **** {
 1111              		.loc 3 138 0
 1112              		.cfi_startproc
 1113              		@ args = 0, pretend = 0, frame = 16
 1114              		@ frame_needed = 1, uses_anonymous_args = 0
 1115 0000 80B5     		push	{r7, lr}
 1116              		.save {r7, lr}
 1117              		.cfi_def_cfa_offset 8
 1118              		.cfi_offset 7, -8
 1119              		.cfi_offset 14, -4
 1120              		.pad #16
 1121 0002 84B0     		sub	sp, sp, #16
 1122              		.cfi_def_cfa_offset 24
 1123              		.setfp r7, sp, #0
ARM GAS  C:\Users\Bruger\AppData\Local\Temp\cc797ORx.s 			page 27


 1124 0004 00AF     		add	r7, sp, #0
 1125              		.cfi_def_cfa_register 7
 1126 0006 7860     		str	r0, [r7, #4]
 1127 0008 0B46     		mov	r3, r1
 1128 000a FB70     		strb	r3, [r7, #3]
 1129              	.LBB14:
 139:core/Print.cpp ****   size_t n = print(c);
 1130              		.loc 3 139 0
 1131 000c FB78     		ldrb	r3, [r7, #3]	@ zero_extendqisi2
 1132 000e 7868     		ldr	r0, [r7, #4]
 1133 0010 1946     		mov	r1, r3
 1134 0012 FFF7FEFF 		bl	_ZN5Print5printEc
 1135 0016 0346     		mov	r3, r0
 1136 0018 FB60     		str	r3, [r7, #12]
 140:core/Print.cpp ****   n += println();
 1137              		.loc 3 140 0
 1138 001a 7868     		ldr	r0, [r7, #4]
 1139 001c FFF7FEFF 		bl	_ZN5Print7printlnEv
 1140 0020 0246     		mov	r2, r0
 1141 0022 FB68     		ldr	r3, [r7, #12]
 1142 0024 1344     		add	r3, r3, r2
 1143 0026 FB60     		str	r3, [r7, #12]
 141:core/Print.cpp ****   return n;
 1144              		.loc 3 141 0
 1145 0028 FB68     		ldr	r3, [r7, #12]
 1146              	.LBE14:
 142:core/Print.cpp **** }
 1147              		.loc 3 142 0
 1148 002a 1846     		mov	r0, r3
 1149 002c 1037     		adds	r7, r7, #16
 1150              		.cfi_def_cfa_offset 8
 1151 002e BD46     		mov	sp, r7
 1152              		.cfi_def_cfa_register 13
 1153              		@ sp needed
 1154 0030 80BD     		pop	{r7, pc}
 1155              		.cfi_endproc
 1156              	.LFE163:
 1157              		.fnend
 1158              		.size	_ZN5Print7printlnEc, .-_ZN5Print7printlnEc
 1159 0032 00BF     		.section	.text._ZN5Print7printlnEhi,"ax",%progbits
 1160              		.align	2
 1161              		.global	_ZN5Print7printlnEhi
 1162              		.thumb
 1163              		.thumb_func
 1164              		.type	_ZN5Print7printlnEhi, %function
 1165              	_ZN5Print7printlnEhi:
 1166              		.fnstart
 1167              	.LFB164:
 143:core/Print.cpp **** 
 144:core/Print.cpp **** size_t Print::println(unsigned char b, int base)
 145:core/Print.cpp **** {
 1168              		.loc 3 145 0
 1169              		.cfi_startproc
 1170              		@ args = 0, pretend = 0, frame = 24
 1171              		@ frame_needed = 1, uses_anonymous_args = 0
 1172 0000 80B5     		push	{r7, lr}
 1173              		.save {r7, lr}
ARM GAS  C:\Users\Bruger\AppData\Local\Temp\cc797ORx.s 			page 28


 1174              		.cfi_def_cfa_offset 8
 1175              		.cfi_offset 7, -8
 1176              		.cfi_offset 14, -4
 1177              		.pad #24
 1178 0002 86B0     		sub	sp, sp, #24
 1179              		.cfi_def_cfa_offset 32
 1180              		.setfp r7, sp, #0
 1181 0004 00AF     		add	r7, sp, #0
 1182              		.cfi_def_cfa_register 7
 1183 0006 F860     		str	r0, [r7, #12]
 1184 0008 0B46     		mov	r3, r1
 1185 000a 7A60     		str	r2, [r7, #4]
 1186 000c FB72     		strb	r3, [r7, #11]
 1187              	.LBB15:
 146:core/Print.cpp ****   size_t n = print(b, base);
 1188              		.loc 3 146 0
 1189 000e FB7A     		ldrb	r3, [r7, #11]	@ zero_extendqisi2
 1190 0010 F868     		ldr	r0, [r7, #12]
 1191 0012 1946     		mov	r1, r3
 1192 0014 7A68     		ldr	r2, [r7, #4]
 1193 0016 FFF7FEFF 		bl	_ZN5Print5printEhi
 1194 001a 0346     		mov	r3, r0
 1195 001c 7B61     		str	r3, [r7, #20]
 147:core/Print.cpp ****   n += println();
 1196              		.loc 3 147 0
 1197 001e F868     		ldr	r0, [r7, #12]
 1198 0020 FFF7FEFF 		bl	_ZN5Print7printlnEv
 1199 0024 0246     		mov	r2, r0
 1200 0026 7B69     		ldr	r3, [r7, #20]
 1201 0028 1344     		add	r3, r3, r2
 1202 002a 7B61     		str	r3, [r7, #20]
 148:core/Print.cpp ****   return n;
 1203              		.loc 3 148 0
 1204 002c 7B69     		ldr	r3, [r7, #20]
 1205              	.LBE15:
 149:core/Print.cpp **** }
 1206              		.loc 3 149 0
 1207 002e 1846     		mov	r0, r3
 1208 0030 1837     		adds	r7, r7, #24
 1209              		.cfi_def_cfa_offset 8
 1210 0032 BD46     		mov	sp, r7
 1211              		.cfi_def_cfa_register 13
 1212              		@ sp needed
 1213 0034 80BD     		pop	{r7, pc}
 1214              		.cfi_endproc
 1215              	.LFE164:
 1216              		.fnend
 1217              		.size	_ZN5Print7printlnEhi, .-_ZN5Print7printlnEhi
 1218 0036 00BF     		.section	.text._ZN5Print7printlnEii,"ax",%progbits
 1219              		.align	2
 1220              		.global	_ZN5Print7printlnEii
 1221              		.thumb
 1222              		.thumb_func
 1223              		.type	_ZN5Print7printlnEii, %function
 1224              	_ZN5Print7printlnEii:
 1225              		.fnstart
 1226              	.LFB165:
ARM GAS  C:\Users\Bruger\AppData\Local\Temp\cc797ORx.s 			page 29


 150:core/Print.cpp **** 
 151:core/Print.cpp **** size_t Print::println(int num, int base)
 152:core/Print.cpp **** {
 1227              		.loc 3 152 0
 1228              		.cfi_startproc
 1229              		@ args = 0, pretend = 0, frame = 24
 1230              		@ frame_needed = 1, uses_anonymous_args = 0
 1231 0000 80B5     		push	{r7, lr}
 1232              		.save {r7, lr}
 1233              		.cfi_def_cfa_offset 8
 1234              		.cfi_offset 7, -8
 1235              		.cfi_offset 14, -4
 1236              		.pad #24
 1237 0002 86B0     		sub	sp, sp, #24
 1238              		.cfi_def_cfa_offset 32
 1239              		.setfp r7, sp, #0
 1240 0004 00AF     		add	r7, sp, #0
 1241              		.cfi_def_cfa_register 7
 1242 0006 F860     		str	r0, [r7, #12]
 1243 0008 B960     		str	r1, [r7, #8]
 1244 000a 7A60     		str	r2, [r7, #4]
 1245              	.LBB16:
 153:core/Print.cpp ****   size_t n = print(num, base);
 1246              		.loc 3 153 0
 1247 000c F868     		ldr	r0, [r7, #12]
 1248 000e B968     		ldr	r1, [r7, #8]
 1249 0010 7A68     		ldr	r2, [r7, #4]
 1250 0012 FFF7FEFF 		bl	_ZN5Print5printEii
 1251 0016 0346     		mov	r3, r0
 1252 0018 7B61     		str	r3, [r7, #20]
 154:core/Print.cpp ****   n += println();
 1253              		.loc 3 154 0
 1254 001a F868     		ldr	r0, [r7, #12]
 1255 001c FFF7FEFF 		bl	_ZN5Print7printlnEv
 1256 0020 0246     		mov	r2, r0
 1257 0022 7B69     		ldr	r3, [r7, #20]
 1258 0024 1344     		add	r3, r3, r2
 1259 0026 7B61     		str	r3, [r7, #20]
 155:core/Print.cpp ****   return n;
 1260              		.loc 3 155 0
 1261 0028 7B69     		ldr	r3, [r7, #20]
 1262              	.LBE16:
 156:core/Print.cpp **** }
 1263              		.loc 3 156 0
 1264 002a 1846     		mov	r0, r3
 1265 002c 1837     		adds	r7, r7, #24
 1266              		.cfi_def_cfa_offset 8
 1267 002e BD46     		mov	sp, r7
 1268              		.cfi_def_cfa_register 13
 1269              		@ sp needed
 1270 0030 80BD     		pop	{r7, pc}
 1271              		.cfi_endproc
 1272              	.LFE165:
 1273              		.fnend
 1274              		.size	_ZN5Print7printlnEii, .-_ZN5Print7printlnEii
 1275 0032 00BF     		.section	.text._ZN5Print7printlnEji,"ax",%progbits
 1276              		.align	2
ARM GAS  C:\Users\Bruger\AppData\Local\Temp\cc797ORx.s 			page 30


 1277              		.global	_ZN5Print7printlnEji
 1278              		.thumb
 1279              		.thumb_func
 1280              		.type	_ZN5Print7printlnEji, %function
 1281              	_ZN5Print7printlnEji:
 1282              		.fnstart
 1283              	.LFB166:
 157:core/Print.cpp **** 
 158:core/Print.cpp **** size_t Print::println(unsigned int num, int base)
 159:core/Print.cpp **** {
 1284              		.loc 3 159 0
 1285              		.cfi_startproc
 1286              		@ args = 0, pretend = 0, frame = 24
 1287              		@ frame_needed = 1, uses_anonymous_args = 0
 1288 0000 80B5     		push	{r7, lr}
 1289              		.save {r7, lr}
 1290              		.cfi_def_cfa_offset 8
 1291              		.cfi_offset 7, -8
 1292              		.cfi_offset 14, -4
 1293              		.pad #24
 1294 0002 86B0     		sub	sp, sp, #24
 1295              		.cfi_def_cfa_offset 32
 1296              		.setfp r7, sp, #0
 1297 0004 00AF     		add	r7, sp, #0
 1298              		.cfi_def_cfa_register 7
 1299 0006 F860     		str	r0, [r7, #12]
 1300 0008 B960     		str	r1, [r7, #8]
 1301 000a 7A60     		str	r2, [r7, #4]
 1302              	.LBB17:
 160:core/Print.cpp ****   size_t n = print(num, base);
 1303              		.loc 3 160 0
 1304 000c F868     		ldr	r0, [r7, #12]
 1305 000e B968     		ldr	r1, [r7, #8]
 1306 0010 7A68     		ldr	r2, [r7, #4]
 1307 0012 FFF7FEFF 		bl	_ZN5Print5printEji
 1308 0016 0346     		mov	r3, r0
 1309 0018 7B61     		str	r3, [r7, #20]
 161:core/Print.cpp ****   n += println();
 1310              		.loc 3 161 0
 1311 001a F868     		ldr	r0, [r7, #12]
 1312 001c FFF7FEFF 		bl	_ZN5Print7printlnEv
 1313 0020 0246     		mov	r2, r0
 1314 0022 7B69     		ldr	r3, [r7, #20]
 1315 0024 1344     		add	r3, r3, r2
 1316 0026 7B61     		str	r3, [r7, #20]
 162:core/Print.cpp ****   return n;
 1317              		.loc 3 162 0
 1318 0028 7B69     		ldr	r3, [r7, #20]
 1319              	.LBE17:
 163:core/Print.cpp **** }
 1320              		.loc 3 163 0
 1321 002a 1846     		mov	r0, r3
 1322 002c 1837     		adds	r7, r7, #24
 1323              		.cfi_def_cfa_offset 8
 1324 002e BD46     		mov	sp, r7
 1325              		.cfi_def_cfa_register 13
 1326              		@ sp needed
ARM GAS  C:\Users\Bruger\AppData\Local\Temp\cc797ORx.s 			page 31


 1327 0030 80BD     		pop	{r7, pc}
 1328              		.cfi_endproc
 1329              	.LFE166:
 1330              		.fnend
 1331              		.size	_ZN5Print7printlnEji, .-_ZN5Print7printlnEji
 1332 0032 00BF     		.section	.text._ZN5Print7printlnEli,"ax",%progbits
 1333              		.align	2
 1334              		.global	_ZN5Print7printlnEli
 1335              		.thumb
 1336              		.thumb_func
 1337              		.type	_ZN5Print7printlnEli, %function
 1338              	_ZN5Print7printlnEli:
 1339              		.fnstart
 1340              	.LFB167:
 164:core/Print.cpp **** 
 165:core/Print.cpp **** size_t Print::println(long num, int base)
 166:core/Print.cpp **** {
 1341              		.loc 3 166 0
 1342              		.cfi_startproc
 1343              		@ args = 0, pretend = 0, frame = 24
 1344              		@ frame_needed = 1, uses_anonymous_args = 0
 1345 0000 80B5     		push	{r7, lr}
 1346              		.save {r7, lr}
 1347              		.cfi_def_cfa_offset 8
 1348              		.cfi_offset 7, -8
 1349              		.cfi_offset 14, -4
 1350              		.pad #24
 1351 0002 86B0     		sub	sp, sp, #24
 1352              		.cfi_def_cfa_offset 32
 1353              		.setfp r7, sp, #0
 1354 0004 00AF     		add	r7, sp, #0
 1355              		.cfi_def_cfa_register 7
 1356 0006 F860     		str	r0, [r7, #12]
 1357 0008 B960     		str	r1, [r7, #8]
 1358 000a 7A60     		str	r2, [r7, #4]
 1359              	.LBB18:
 167:core/Print.cpp ****   size_t n = print(num, base);
 1360              		.loc 3 167 0
 1361 000c F868     		ldr	r0, [r7, #12]
 1362 000e B968     		ldr	r1, [r7, #8]
 1363 0010 7A68     		ldr	r2, [r7, #4]
 1364 0012 FFF7FEFF 		bl	_ZN5Print5printEli
 1365 0016 0346     		mov	r3, r0
 1366 0018 7B61     		str	r3, [r7, #20]
 168:core/Print.cpp ****   n += println();
 1367              		.loc 3 168 0
 1368 001a F868     		ldr	r0, [r7, #12]
 1369 001c FFF7FEFF 		bl	_ZN5Print7printlnEv
 1370 0020 0246     		mov	r2, r0
 1371 0022 7B69     		ldr	r3, [r7, #20]
 1372 0024 1344     		add	r3, r3, r2
 1373 0026 7B61     		str	r3, [r7, #20]
 169:core/Print.cpp ****   return n;
 1374              		.loc 3 169 0
 1375 0028 7B69     		ldr	r3, [r7, #20]
 1376              	.LBE18:
 170:core/Print.cpp **** }
ARM GAS  C:\Users\Bruger\AppData\Local\Temp\cc797ORx.s 			page 32


 1377              		.loc 3 170 0
 1378 002a 1846     		mov	r0, r3
 1379 002c 1837     		adds	r7, r7, #24
 1380              		.cfi_def_cfa_offset 8
 1381 002e BD46     		mov	sp, r7
 1382              		.cfi_def_cfa_register 13
 1383              		@ sp needed
 1384 0030 80BD     		pop	{r7, pc}
 1385              		.cfi_endproc
 1386              	.LFE167:
 1387              		.fnend
 1388              		.size	_ZN5Print7printlnEli, .-_ZN5Print7printlnEli
 1389 0032 00BF     		.section	.text._ZN5Print7printlnEmi,"ax",%progbits
 1390              		.align	2
 1391              		.global	_ZN5Print7printlnEmi
 1392              		.thumb
 1393              		.thumb_func
 1394              		.type	_ZN5Print7printlnEmi, %function
 1395              	_ZN5Print7printlnEmi:
 1396              		.fnstart
 1397              	.LFB168:
 171:core/Print.cpp **** 
 172:core/Print.cpp **** size_t Print::println(unsigned long num, int base)
 173:core/Print.cpp **** {
 1398              		.loc 3 173 0
 1399              		.cfi_startproc
 1400              		@ args = 0, pretend = 0, frame = 24
 1401              		@ frame_needed = 1, uses_anonymous_args = 0
 1402 0000 80B5     		push	{r7, lr}
 1403              		.save {r7, lr}
 1404              		.cfi_def_cfa_offset 8
 1405              		.cfi_offset 7, -8
 1406              		.cfi_offset 14, -4
 1407              		.pad #24
 1408 0002 86B0     		sub	sp, sp, #24
 1409              		.cfi_def_cfa_offset 32
 1410              		.setfp r7, sp, #0
 1411 0004 00AF     		add	r7, sp, #0
 1412              		.cfi_def_cfa_register 7
 1413 0006 F860     		str	r0, [r7, #12]
 1414 0008 B960     		str	r1, [r7, #8]
 1415 000a 7A60     		str	r2, [r7, #4]
 1416              	.LBB19:
 174:core/Print.cpp ****   size_t n = print(num, base);
 1417              		.loc 3 174 0
 1418 000c F868     		ldr	r0, [r7, #12]
 1419 000e B968     		ldr	r1, [r7, #8]
 1420 0010 7A68     		ldr	r2, [r7, #4]
 1421 0012 FFF7FEFF 		bl	_ZN5Print5printEmi
 1422 0016 0346     		mov	r3, r0
 1423 0018 7B61     		str	r3, [r7, #20]
 175:core/Print.cpp ****   n += println();
 1424              		.loc 3 175 0
 1425 001a F868     		ldr	r0, [r7, #12]
 1426 001c FFF7FEFF 		bl	_ZN5Print7printlnEv
 1427 0020 0246     		mov	r2, r0
 1428 0022 7B69     		ldr	r3, [r7, #20]
ARM GAS  C:\Users\Bruger\AppData\Local\Temp\cc797ORx.s 			page 33


 1429 0024 1344     		add	r3, r3, r2
 1430 0026 7B61     		str	r3, [r7, #20]
 176:core/Print.cpp ****   return n;
 1431              		.loc 3 176 0
 1432 0028 7B69     		ldr	r3, [r7, #20]
 1433              	.LBE19:
 177:core/Print.cpp **** }
 1434              		.loc 3 177 0
 1435 002a 1846     		mov	r0, r3
 1436 002c 1837     		adds	r7, r7, #24
 1437              		.cfi_def_cfa_offset 8
 1438 002e BD46     		mov	sp, r7
 1439              		.cfi_def_cfa_register 13
 1440              		@ sp needed
 1441 0030 80BD     		pop	{r7, pc}
 1442              		.cfi_endproc
 1443              	.LFE168:
 1444              		.fnend
 1445              		.size	_ZN5Print7printlnEmi, .-_ZN5Print7printlnEmi
 1446 0032 00BF     		.section	.text._ZN5Print7printlnEdi,"ax",%progbits
 1447              		.align	2
 1448              		.global	_ZN5Print7printlnEdi
 1449              		.thumb
 1450              		.thumb_func
 1451              		.type	_ZN5Print7printlnEdi, %function
 1452              	_ZN5Print7printlnEdi:
 1453              		.fnstart
 1454              	.LFB169:
 178:core/Print.cpp **** 
 179:core/Print.cpp **** size_t Print::println(double num, int digits)
 180:core/Print.cpp **** {
 1455              		.loc 3 180 0
 1456              		.cfi_startproc
 1457              		@ args = 4, pretend = 0, frame = 24
 1458              		@ frame_needed = 1, uses_anonymous_args = 0
 1459 0000 80B5     		push	{r7, lr}
 1460              		.save {r7, lr}
 1461              		.cfi_def_cfa_offset 8
 1462              		.cfi_offset 7, -8
 1463              		.cfi_offset 14, -4
 1464              		.pad #32
 1465 0002 88B0     		sub	sp, sp, #32
 1466              		.cfi_def_cfa_offset 40
 1467              		.setfp r7, sp, #8
 1468 0004 02AF     		add	r7, sp, #8
 1469              		.cfi_def_cfa 7, 32
 1470 0006 F860     		str	r0, [r7, #12]
 1471 0008 C7E90023 		strd	r2, [r7]
 1472              	.LBB20:
 181:core/Print.cpp ****   size_t n = print(num, digits);
 1473              		.loc 3 181 0
 1474 000c 3B6A     		ldr	r3, [r7, #32]
 1475 000e 0093     		str	r3, [sp]
 1476 0010 F868     		ldr	r0, [r7, #12]
 1477 0012 D7E90023 		ldrd	r2, [r7]
 1478 0016 FFF7FEFF 		bl	_ZN5Print5printEdi
 1479 001a 0346     		mov	r3, r0
ARM GAS  C:\Users\Bruger\AppData\Local\Temp\cc797ORx.s 			page 34


 1480 001c 7B61     		str	r3, [r7, #20]
 182:core/Print.cpp ****   n += println();
 1481              		.loc 3 182 0
 1482 001e F868     		ldr	r0, [r7, #12]
 1483 0020 FFF7FEFF 		bl	_ZN5Print7printlnEv
 1484 0024 0246     		mov	r2, r0
 1485 0026 7B69     		ldr	r3, [r7, #20]
 1486 0028 1344     		add	r3, r3, r2
 1487 002a 7B61     		str	r3, [r7, #20]
 183:core/Print.cpp ****   return n;
 1488              		.loc 3 183 0
 1489 002c 7B69     		ldr	r3, [r7, #20]
 1490              	.LBE20:
 184:core/Print.cpp **** }
 1491              		.loc 3 184 0
 1492 002e 1846     		mov	r0, r3
 1493 0030 1837     		adds	r7, r7, #24
 1494              		.cfi_def_cfa_offset 8
 1495 0032 BD46     		mov	sp, r7
 1496              		.cfi_def_cfa_register 13
 1497              		@ sp needed
 1498 0034 80BD     		pop	{r7, pc}
 1499              		.cfi_endproc
 1500              	.LFE169:
 1501              		.fnend
 1502              		.size	_ZN5Print7printlnEdi, .-_ZN5Print7printlnEdi
 1503 0036 00BF     		.section	.text._ZN5Print7printlnERK9Printable,"ax",%progbits
 1504              		.align	2
 1505              		.global	_ZN5Print7printlnERK9Printable
 1506              		.thumb
 1507              		.thumb_func
 1508              		.type	_ZN5Print7printlnERK9Printable, %function
 1509              	_ZN5Print7printlnERK9Printable:
 1510              		.fnstart
 1511              	.LFB170:
 185:core/Print.cpp **** 
 186:core/Print.cpp **** size_t Print::println(const Printable& x)
 187:core/Print.cpp **** {
 1512              		.loc 3 187 0
 1513              		.cfi_startproc
 1514              		@ args = 0, pretend = 0, frame = 16
 1515              		@ frame_needed = 1, uses_anonymous_args = 0
 1516 0000 80B5     		push	{r7, lr}
 1517              		.save {r7, lr}
 1518              		.cfi_def_cfa_offset 8
 1519              		.cfi_offset 7, -8
 1520              		.cfi_offset 14, -4
 1521              		.pad #16
 1522 0002 84B0     		sub	sp, sp, #16
 1523              		.cfi_def_cfa_offset 24
 1524              		.setfp r7, sp, #0
 1525 0004 00AF     		add	r7, sp, #0
 1526              		.cfi_def_cfa_register 7
 1527 0006 7860     		str	r0, [r7, #4]
 1528 0008 3960     		str	r1, [r7]
 1529              	.LBB21:
 188:core/Print.cpp ****   size_t n = print(x);
ARM GAS  C:\Users\Bruger\AppData\Local\Temp\cc797ORx.s 			page 35


 1530              		.loc 3 188 0
 1531 000a 7868     		ldr	r0, [r7, #4]
 1532 000c 3968     		ldr	r1, [r7]
 1533 000e FFF7FEFF 		bl	_ZN5Print5printERK9Printable
 1534 0012 0346     		mov	r3, r0
 1535 0014 FB60     		str	r3, [r7, #12]
 189:core/Print.cpp ****   n += println();
 1536              		.loc 3 189 0
 1537 0016 7868     		ldr	r0, [r7, #4]
 1538 0018 FFF7FEFF 		bl	_ZN5Print7printlnEv
 1539 001c 0246     		mov	r2, r0
 1540 001e FB68     		ldr	r3, [r7, #12]
 1541 0020 1344     		add	r3, r3, r2
 1542 0022 FB60     		str	r3, [r7, #12]
 190:core/Print.cpp ****   return n;
 1543              		.loc 3 190 0
 1544 0024 FB68     		ldr	r3, [r7, #12]
 1545              	.LBE21:
 191:core/Print.cpp **** }
 1546              		.loc 3 191 0
 1547 0026 1846     		mov	r0, r3
 1548 0028 1037     		adds	r7, r7, #16
 1549              		.cfi_def_cfa_offset 8
 1550 002a BD46     		mov	sp, r7
 1551              		.cfi_def_cfa_register 13
 1552              		@ sp needed
 1553 002c 80BD     		pop	{r7, pc}
 1554              		.cfi_endproc
 1555              	.LFE170:
 1556              		.fnend
 1557              		.size	_ZN5Print7printlnERK9Printable, .-_ZN5Print7printlnERK9Printable
 1558 002e 00BF     		.section	.text._ZN5Print11printNumberEmh,"ax",%progbits
 1559              		.align	2
 1560              		.global	_ZN5Print11printNumberEmh
 1561              		.thumb
 1562              		.thumb_func
 1563              		.type	_ZN5Print11printNumberEmh, %function
 1564              	_ZN5Print11printNumberEmh:
 1565              		.fnstart
 1566              	.LFB171:
 192:core/Print.cpp **** 
 193:core/Print.cpp **** // Private Methods /////////////////////////////////////////////////////////////
 194:core/Print.cpp **** 
 195:core/Print.cpp **** size_t Print::printNumber(unsigned long n, uint8_t base) {
 1567              		.loc 3 195 0
 1568              		.cfi_startproc
 1569              		@ args = 0, pretend = 0, frame = 64
 1570              		@ frame_needed = 1, uses_anonymous_args = 0
 1571 0000 80B5     		push	{r7, lr}
 1572              		.save {r7, lr}
 1573              		.cfi_def_cfa_offset 8
 1574              		.cfi_offset 7, -8
 1575              		.cfi_offset 14, -4
 1576              		.pad #64
 1577 0002 90B0     		sub	sp, sp, #64
 1578              		.cfi_def_cfa_offset 72
 1579              		.setfp r7, sp, #0
ARM GAS  C:\Users\Bruger\AppData\Local\Temp\cc797ORx.s 			page 36


 1580 0004 00AF     		add	r7, sp, #0
 1581              		.cfi_def_cfa_register 7
 1582 0006 F860     		str	r0, [r7, #12]
 1583 0008 B960     		str	r1, [r7, #8]
 1584 000a 1346     		mov	r3, r2
 1585 000c FB71     		strb	r3, [r7, #7]
 1586              	.LBB22:
 196:core/Print.cpp ****   char buf[8 * sizeof(long) + 1]; // Assumes 8-bit chars plus zero byte.
 197:core/Print.cpp ****   char *str = &buf[sizeof(buf) - 1];
 1587              		.loc 3 197 0
 1588 000e 2022     		movs	r2, #32
 1589 0010 07F11403 		add	r3, r7, #20
 1590 0014 1344     		add	r3, r3, r2
 1591 0016 FB63     		str	r3, [r7, #60]
 198:core/Print.cpp **** 
 199:core/Print.cpp ****   *str = '\0';
 1592              		.loc 3 199 0
 1593 0018 FB6B     		ldr	r3, [r7, #60]
 1594 001a 0022     		movs	r2, #0
 1595 001c 1A70     		strb	r2, [r3]
 200:core/Print.cpp **** 
 201:core/Print.cpp ****   // prevent crash if called with base == 1
 202:core/Print.cpp ****   if (base < 2) base = 10;
 1596              		.loc 3 202 0
 1597 001e FB79     		ldrb	r3, [r7, #7]	@ zero_extendqisi2
 1598 0020 012B     		cmp	r3, #1
 1599 0022 01D8     		bhi	.L65
 1600              		.loc 3 202 0 is_stmt 0 discriminator 1
 1601 0024 0A23     		movs	r3, #10
 1602 0026 FB71     		strb	r3, [r7, #7]
 1603              	.L65:
 1604              	.LBB23:
 203:core/Print.cpp **** 
 204:core/Print.cpp ****   do {
 205:core/Print.cpp ****     unsigned long m = n;
 1605              		.loc 3 205 0 is_stmt 1
 1606 0028 BB68     		ldr	r3, [r7, #8]
 1607 002a BB63     		str	r3, [r7, #56]
 206:core/Print.cpp ****     n /= base;
 1608              		.loc 3 206 0
 1609 002c FB79     		ldrb	r3, [r7, #7]	@ zero_extendqisi2
 1610 002e BA68     		ldr	r2, [r7, #8]
 1611 0030 B2FBF3F3 		udiv	r3, r2, r3
 1612 0034 BB60     		str	r3, [r7, #8]
 207:core/Print.cpp ****     char c = m - base * n;
 1613              		.loc 3 207 0
 1614 0036 BB6B     		ldr	r3, [r7, #56]
 1615 0038 DAB2     		uxtb	r2, r3
 1616 003a BB68     		ldr	r3, [r7, #8]
 1617 003c DBB2     		uxtb	r3, r3
 1618 003e F979     		ldrb	r1, [r7, #7]
 1619 0040 01FB03F3 		mul	r3, r1, r3
 1620 0044 DBB2     		uxtb	r3, r3
 1621 0046 D31A     		subs	r3, r2, r3
 1622 0048 87F83730 		strb	r3, [r7, #55]
 208:core/Print.cpp ****     *--str = c < 10 ? c + '0' : c + 'A' - 10;
 1623              		.loc 3 208 0
ARM GAS  C:\Users\Bruger\AppData\Local\Temp\cc797ORx.s 			page 37


 1624 004c FB6B     		ldr	r3, [r7, #60]
 1625 004e 013B     		subs	r3, r3, #1
 1626 0050 FB63     		str	r3, [r7, #60]
 1627 0052 97F83730 		ldrb	r3, [r7, #55]	@ zero_extendqisi2
 1628 0056 092B     		cmp	r3, #9
 1629 0058 04D8     		bhi	.L66
 1630              		.loc 3 208 0 is_stmt 0 discriminator 1
 1631 005a 97F83730 		ldrb	r3, [r7, #55]
 1632 005e 3033     		adds	r3, r3, #48
 1633 0060 DBB2     		uxtb	r3, r3
 1634 0062 03E0     		b	.L67
 1635              	.L66:
 1636              		.loc 3 208 0 discriminator 2
 1637 0064 97F83730 		ldrb	r3, [r7, #55]
 1638 0068 3733     		adds	r3, r3, #55
 1639 006a DBB2     		uxtb	r3, r3
 1640              	.L67:
 1641              		.loc 3 208 0 discriminator 4
 1642 006c FA6B     		ldr	r2, [r7, #60]
 1643 006e 1370     		strb	r3, [r2]
 1644              	.LBE23:
 204:core/Print.cpp ****     unsigned long m = n;
 1645              		.loc 3 204 0 is_stmt 1 discriminator 4
 1646 0070 BB68     		ldr	r3, [r7, #8]
 1647 0072 002B     		cmp	r3, #0
 1648 0074 D8D1     		bne	.L65
 209:core/Print.cpp ****   } while(n);
 210:core/Print.cpp **** 
 211:core/Print.cpp ****   return write(str);
 1649              		.loc 3 211 0
 1650 0076 F868     		ldr	r0, [r7, #12]
 1651 0078 F96B     		ldr	r1, [r7, #60]
 1652 007a FFF7FEFF 		bl	_ZN5Print5writeEPKc
 1653 007e 0346     		mov	r3, r0
 1654              	.LBE22:
 212:core/Print.cpp **** }
 1655              		.loc 3 212 0
 1656 0080 1846     		mov	r0, r3
 1657 0082 4037     		adds	r7, r7, #64
 1658              		.cfi_def_cfa_offset 8
 1659 0084 BD46     		mov	sp, r7
 1660              		.cfi_def_cfa_register 13
 1661              		@ sp needed
 1662 0086 80BD     		pop	{r7, pc}
 1663              		.cfi_endproc
 1664              	.LFE171:
 1665              		.fnend
 1666              		.size	_ZN5Print11printNumberEmh, .-_ZN5Print11printNumberEmh
 1667              		.section	.rodata
 1668              		.align	2
 1669              	.LC0:
 1670 0000 6E616E00 		.ascii	"nan\000"
 1671              		.align	2
 1672              	.LC1:
 1673 0004 696E6600 		.ascii	"inf\000"
 1674              		.global	__aeabi_dcmpgt
 1675              		.align	2
ARM GAS  C:\Users\Bruger\AppData\Local\Temp\cc797ORx.s 			page 38


 1676              	.LC2:
 1677 0008 6F766600 		.ascii	"ovf\000"
 1678              		.global	__aeabi_dcmplt
 1679              		.global	__aeabi_ddiv
 1680              		.global	__aeabi_dadd
 1681              		.global	__aeabi_d2uiz
 1682              		.global	__aeabi_ui2d
 1683              		.global	__aeabi_dsub
 1684              		.align	2
 1685              	.LC3:
 1686 000c 2E00     		.ascii	".\000"
 1687              		.global	__aeabi_dmul
 1688              		.global	__aeabi_d2iz
 1689              		.global	__aeabi_i2d
 1690              		.section	.text._ZN5Print10printFloatEdh,"ax",%progbits
 1691              		.align	2
 1692              		.global	_ZN5Print10printFloatEdh
 1693              		.thumb
 1694              		.thumb_func
 1695              		.type	_ZN5Print10printFloatEdh, %function
 1696              	_ZN5Print10printFloatEdh:
 1697              		.fnstart
 1698              	.LFB172:
 213:core/Print.cpp **** 
 214:core/Print.cpp **** size_t Print::printFloat(double number, uint8_t digits) 
 215:core/Print.cpp **** { 
 1699              		.loc 3 215 0
 1700              		.cfi_startproc
 1701              		@ args = 4, pretend = 0, frame = 56
 1702              		@ frame_needed = 1, uses_anonymous_args = 0
 1703 0000 80B5     		push	{r7, lr}
 1704              		.save {r7, lr}
 1705              		.cfi_def_cfa_offset 8
 1706              		.cfi_offset 7, -8
 1707              		.cfi_offset 14, -4
 1708              		.pad #56
 1709 0002 8EB0     		sub	sp, sp, #56
 1710              		.cfi_def_cfa_offset 64
 1711              		.setfp r7, sp, #0
 1712 0004 00AF     		add	r7, sp, #0
 1713              		.cfi_def_cfa_register 7
 1714 0006 F860     		str	r0, [r7, #12]
 1715 0008 C7E90023 		strd	r2, [r7]
 1716              	.LBB24:
 216:core/Print.cpp ****   size_t n = 0;
 1717              		.loc 3 216 0
 1718 000c 0023     		movs	r3, #0
 1719 000e 7B63     		str	r3, [r7, #52]
 217:core/Print.cpp ****   
 218:core/Print.cpp ****   if (isnan(number)) return print("nan");
 1720              		.loc 3 218 0
 1721 0010 D7E90001 		ldrd	r0, [r7]
 1722 0014 FFF7FEFF 		bl	__fpclassifyd
 1723 0018 0346     		mov	r3, r0
 1724 001a 002B     		cmp	r3, #0
 1725 001c 0CBF     		ite	eq
 1726 001e 0123     		moveq	r3, #1
ARM GAS  C:\Users\Bruger\AppData\Local\Temp\cc797ORx.s 			page 39


 1727 0020 0023     		movne	r3, #0
 1728 0022 DBB2     		uxtb	r3, r3
 1729 0024 002B     		cmp	r3, #0
 1730 0026 05D0     		beq	.L70
 1731              		.loc 3 218 0 is_stmt 0 discriminator 5
 1732 0028 F868     		ldr	r0, [r7, #12]
 1733 002a 6D49     		ldr	r1, .L89
 1734 002c FFF7FEFF 		bl	_ZN5Print5printEPKc
 1735 0030 0346     		mov	r3, r0
 1736 0032 D0E0     		b	.L71
 1737              	.L70:
 219:core/Print.cpp ****   if (isinf(number)) return print("inf");
 1738              		.loc 3 219 0 is_stmt 1 discriminator 2
 1739 0034 D7E90001 		ldrd	r0, [r7]
 1740 0038 FFF7FEFF 		bl	__fpclassifyd
 1741 003c 0346     		mov	r3, r0
 1742 003e 012B     		cmp	r3, #1
 1743 0040 0CBF     		ite	eq
 1744 0042 0123     		moveq	r3, #1
 1745 0044 0023     		movne	r3, #0
 1746 0046 DBB2     		uxtb	r3, r3
 1747 0048 002B     		cmp	r3, #0
 1748 004a 05D0     		beq	.L72
 1749              		.loc 3 219 0 is_stmt 0 discriminator 5
 1750 004c F868     		ldr	r0, [r7, #12]
 1751 004e 6549     		ldr	r1, .L89+4
 1752 0050 FFF7FEFF 		bl	_ZN5Print5printEPKc
 1753 0054 0346     		mov	r3, r0
 1754 0056 BEE0     		b	.L71
 1755              	.L72:
 220:core/Print.cpp ****   if (number > 4294967040.0) return print ("ovf");  // constant determined empirically
 1756              		.loc 3 220 0 is_stmt 1
 1757 0058 D7E90001 		ldrd	r0, [r7]
 1758 005c 4FF06042 		mov	r2, #-536870912
 1759 0060 614B     		ldr	r3, .L89+8
 1760 0062 FFF7FEFF 		bl	__aeabi_dcmpgt
 1761 0066 0346     		mov	r3, r0
 1762 0068 002B     		cmp	r3, #0
 1763 006a 05D0     		beq	.L87
 1764              		.loc 3 220 0 is_stmt 0 discriminator 1
 1765 006c F868     		ldr	r0, [r7, #12]
 1766 006e 5F49     		ldr	r1, .L89+12
 1767 0070 FFF7FEFF 		bl	_ZN5Print5printEPKc
 1768 0074 0346     		mov	r3, r0
 1769 0076 AEE0     		b	.L71
 1770              	.L87:
 221:core/Print.cpp ****   if (number <-4294967040.0) return print ("ovf");  // constant determined empirically
 1771              		.loc 3 221 0 is_stmt 1
 1772 0078 D7E90001 		ldrd	r0, [r7]
 1773 007c 4FF06042 		mov	r2, #-536870912
 1774 0080 5B4B     		ldr	r3, .L89+16
 1775 0082 FFF7FEFF 		bl	__aeabi_dcmplt
 1776 0086 0346     		mov	r3, r0
 1777 0088 002B     		cmp	r3, #0
 1778 008a 05D0     		beq	.L88
 1779              		.loc 3 221 0 is_stmt 0 discriminator 1
 1780 008c F868     		ldr	r0, [r7, #12]
ARM GAS  C:\Users\Bruger\AppData\Local\Temp\cc797ORx.s 			page 40


 1781 008e 5749     		ldr	r1, .L89+12
 1782 0090 FFF7FEFF 		bl	_ZN5Print5printEPKc
 1783 0094 0346     		mov	r3, r0
 1784 0096 9EE0     		b	.L71
 1785              	.L88:
 222:core/Print.cpp ****   
 223:core/Print.cpp ****   // Handle negative numbers
 224:core/Print.cpp ****   if (number < 0.0)
 1786              		.loc 3 224 0 is_stmt 1
 1787 0098 D7E90001 		ldrd	r0, [r7]
 1788 009c 4FF00002 		mov	r2, #0
 1789 00a0 4FF00003 		mov	r3, #0
 1790 00a4 FFF7FEFF 		bl	__aeabi_dcmplt
 1791 00a8 0346     		mov	r3, r0
 1792 00aa 002B     		cmp	r3, #0
 1793 00ac 0DD0     		beq	.L77
 225:core/Print.cpp ****   {
 226:core/Print.cpp ****      n += print('-');
 1794              		.loc 3 226 0
 1795 00ae F868     		ldr	r0, [r7, #12]
 1796 00b0 2D21     		movs	r1, #45
 1797 00b2 FFF7FEFF 		bl	_ZN5Print5printEc
 1798 00b6 0246     		mov	r2, r0
 1799 00b8 7B6B     		ldr	r3, [r7, #52]
 1800 00ba 1344     		add	r3, r3, r2
 1801 00bc 7B63     		str	r3, [r7, #52]
 227:core/Print.cpp ****      number = -number;
 1802              		.loc 3 227 0
 1803 00be 3B68     		ldr	r3, [r7]
 1804 00c0 3B60     		str	r3, [r7]
 1805 00c2 7B68     		ldr	r3, [r7, #4]
 1806 00c4 83F00043 		eor	r3, r3, #-2147483648
 1807 00c8 7B60     		str	r3, [r7, #4]
 1808              	.L77:
 228:core/Print.cpp ****   }
 229:core/Print.cpp **** 
 230:core/Print.cpp ****   // Round correctly so that print(1.999, 2) prints as "2.00"
 231:core/Print.cpp ****   double rounding = 0.5;
 1809              		.loc 3 231 0
 1810 00ca 4FF00002 		mov	r2, #0
 1811 00ce 494B     		ldr	r3, .L89+20
 1812 00d0 C7E90A23 		strd	r2, [r7, #40]
 1813              	.LBB25:
 232:core/Print.cpp ****   for (uint8_t i=0; i<digits; ++i)
 1814              		.loc 3 232 0
 1815 00d4 0023     		movs	r3, #0
 1816 00d6 87F82730 		strb	r3, [r7, #39]
 1817 00da 0FE0     		b	.L79
 1818              	.L80:
 233:core/Print.cpp ****     rounding /= 10.0;
 1819              		.loc 3 233 0 discriminator 3
 1820 00dc D7E90A01 		ldrd	r0, [r7, #40]
 1821 00e0 4FF00002 		mov	r2, #0
 1822 00e4 444B     		ldr	r3, .L89+24
 1823 00e6 FFF7FEFF 		bl	__aeabi_ddiv
 1824 00ea 0246     		mov	r2, r0
 1825 00ec 0B46     		mov	r3, r1
ARM GAS  C:\Users\Bruger\AppData\Local\Temp\cc797ORx.s 			page 41


 1826 00ee C7E90A23 		strd	r2, [r7, #40]
 232:core/Print.cpp ****   for (uint8_t i=0; i<digits; ++i)
 1827              		.loc 3 232 0 discriminator 3
 1828 00f2 97F82730 		ldrb	r3, [r7, #39]
 1829 00f6 0133     		adds	r3, r3, #1
 1830 00f8 87F82730 		strb	r3, [r7, #39]
 1831              	.L79:
 232:core/Print.cpp ****   for (uint8_t i=0; i<digits; ++i)
 1832              		.loc 3 232 0 is_stmt 0 discriminator 1
 1833 00fc 97F82720 		ldrb	r2, [r7, #39]	@ zero_extendqisi2
 1834 0100 97F84030 		ldrb	r3, [r7, #64]	@ zero_extendqisi2
 1835 0104 9A42     		cmp	r2, r3
 1836 0106 E9D3     		bcc	.L80
 1837              	.LBE25:
 234:core/Print.cpp ****   
 235:core/Print.cpp ****   number += rounding;
 1838              		.loc 3 235 0 is_stmt 1
 1839 0108 D7E90001 		ldrd	r0, [r7]
 1840 010c D7E90A23 		ldrd	r2, [r7, #40]
 1841 0110 FFF7FEFF 		bl	__aeabi_dadd
 1842 0114 0246     		mov	r2, r0
 1843 0116 0B46     		mov	r3, r1
 1844 0118 C7E90023 		strd	r2, [r7]
 236:core/Print.cpp **** 
 237:core/Print.cpp ****   // Extract the integer part of the number and print it
 238:core/Print.cpp ****   unsigned long int_part = (unsigned long)number;
 1845              		.loc 3 238 0
 1846 011c D7E90001 		ldrd	r0, [r7]
 1847 0120 FFF7FEFF 		bl	__aeabi_d2uiz
 1848 0124 0346     		mov	r3, r0
 1849 0126 7B61     		str	r3, [r7, #20]
 239:core/Print.cpp ****   double remainder = number - (double)int_part;
 1850              		.loc 3 239 0
 1851 0128 7869     		ldr	r0, [r7, #20]
 1852 012a FFF7FEFF 		bl	__aeabi_ui2d
 1853 012e 0246     		mov	r2, r0
 1854 0130 0B46     		mov	r3, r1
 1855 0132 D7E90001 		ldrd	r0, [r7]
 1856 0136 FFF7FEFF 		bl	__aeabi_dsub
 1857 013a 0246     		mov	r2, r0
 1858 013c 0B46     		mov	r3, r1
 1859 013e C7E90623 		strd	r2, [r7, #24]
 240:core/Print.cpp ****   n += print(int_part);
 1860              		.loc 3 240 0
 1861 0142 F868     		ldr	r0, [r7, #12]
 1862 0144 7969     		ldr	r1, [r7, #20]
 1863 0146 0A22     		movs	r2, #10
 1864 0148 FFF7FEFF 		bl	_ZN5Print5printEmi
 1865 014c 0246     		mov	r2, r0
 1866 014e 7B6B     		ldr	r3, [r7, #52]
 1867 0150 1344     		add	r3, r3, r2
 1868 0152 7B63     		str	r3, [r7, #52]
 241:core/Print.cpp **** 
 242:core/Print.cpp ****   // Print the decimal point, but only if there are digits beyond
 243:core/Print.cpp ****   if (digits > 0) {
 1869              		.loc 3 243 0
 1870 0154 97F84030 		ldrb	r3, [r7, #64]	@ zero_extendqisi2
ARM GAS  C:\Users\Bruger\AppData\Local\Temp\cc797ORx.s 			page 42


 1871 0158 002B     		cmp	r3, #0
 1872 015a 07D0     		beq	.L81
 244:core/Print.cpp ****     n += print("."); 
 1873              		.loc 3 244 0
 1874 015c F868     		ldr	r0, [r7, #12]
 1875 015e 2749     		ldr	r1, .L89+28
 1876 0160 FFF7FEFF 		bl	_ZN5Print5printEPKc
 1877 0164 0246     		mov	r2, r0
 1878 0166 7B6B     		ldr	r3, [r7, #52]
 1879 0168 1344     		add	r3, r3, r2
 1880 016a 7B63     		str	r3, [r7, #52]
 1881              	.L81:
 245:core/Print.cpp ****   }
 246:core/Print.cpp **** 
 247:core/Print.cpp ****   // Extract digits from the remainder one at a time
 248:core/Print.cpp ****   while (digits-- > 0)
 1882              		.loc 3 248 0
 1883 016c 26E0     		b	.L82
 1884              	.L83:
 1885              	.LBB26:
 249:core/Print.cpp ****   {
 250:core/Print.cpp ****     remainder *= 10.0;
 1886              		.loc 3 250 0
 1887 016e D7E90601 		ldrd	r0, [r7, #24]
 1888 0172 4FF00002 		mov	r2, #0
 1889 0176 204B     		ldr	r3, .L89+24
 1890 0178 FFF7FEFF 		bl	__aeabi_dmul
 1891 017c 0246     		mov	r2, r0
 1892 017e 0B46     		mov	r3, r1
 1893 0180 C7E90623 		strd	r2, [r7, #24]
 251:core/Print.cpp ****     int toPrint = int(remainder);
 1894              		.loc 3 251 0
 1895 0184 D7E90601 		ldrd	r0, [r7, #24]
 1896 0188 FFF7FEFF 		bl	__aeabi_d2iz
 1897 018c 0346     		mov	r3, r0
 1898 018e 3B61     		str	r3, [r7, #16]
 252:core/Print.cpp ****     n += print(toPrint);
 1899              		.loc 3 252 0
 1900 0190 F868     		ldr	r0, [r7, #12]
 1901 0192 3969     		ldr	r1, [r7, #16]
 1902 0194 0A22     		movs	r2, #10
 1903 0196 FFF7FEFF 		bl	_ZN5Print5printEii
 1904 019a 0246     		mov	r2, r0
 1905 019c 7B6B     		ldr	r3, [r7, #52]
 1906 019e 1344     		add	r3, r3, r2
 1907 01a0 7B63     		str	r3, [r7, #52]
 253:core/Print.cpp ****     remainder -= toPrint; 
 1908              		.loc 3 253 0
 1909 01a2 3869     		ldr	r0, [r7, #16]
 1910 01a4 FFF7FEFF 		bl	__aeabi_i2d
 1911 01a8 0246     		mov	r2, r0
 1912 01aa 0B46     		mov	r3, r1
 1913 01ac D7E90601 		ldrd	r0, [r7, #24]
 1914 01b0 FFF7FEFF 		bl	__aeabi_dsub
 1915 01b4 0246     		mov	r2, r0
 1916 01b6 0B46     		mov	r3, r1
 1917 01b8 C7E90623 		strd	r2, [r7, #24]
ARM GAS  C:\Users\Bruger\AppData\Local\Temp\cc797ORx.s 			page 43


 1918              	.L82:
 1919              	.LBE26:
 248:core/Print.cpp ****   {
 1920              		.loc 3 248 0
 1921 01bc 97F84030 		ldrb	r3, [r7, #64]	@ zero_extendqisi2
 1922 01c0 5A1E     		subs	r2, r3, #1
 1923 01c2 87F84020 		strb	r2, [r7, #64]
 1924 01c6 002B     		cmp	r3, #0
 1925 01c8 14BF     		ite	ne
 1926 01ca 0123     		movne	r3, #1
 1927 01cc 0023     		moveq	r3, #0
 1928 01ce DBB2     		uxtb	r3, r3
 1929 01d0 002B     		cmp	r3, #0
 1930 01d2 CCD1     		bne	.L83
 254:core/Print.cpp ****   } 
 255:core/Print.cpp ****   
 256:core/Print.cpp ****   return n;
 1931              		.loc 3 256 0
 1932 01d4 7B6B     		ldr	r3, [r7, #52]
 1933              	.L71:
 1934              	.LBE24:
 257:core/Print.cpp **** }
 1935              		.loc 3 257 0
 1936 01d6 1846     		mov	r0, r3
 1937 01d8 3837     		adds	r7, r7, #56
 1938              		.cfi_def_cfa_offset 8
 1939 01da BD46     		mov	sp, r7
 1940              		.cfi_def_cfa_register 13
 1941              		@ sp needed
 1942 01dc 80BD     		pop	{r7, pc}
 1943              	.L90:
 1944 01de 00BF     		.align	2
 1945              	.L89:
 1946 01e0 00000000 		.word	.LC0
 1947 01e4 04000000 		.word	.LC1
 1948 01e8 FFFFEF41 		.word	1106247679
 1949 01ec 08000000 		.word	.LC2
 1950 01f0 FFFFEFC1 		.word	-1041235969
 1951 01f4 0000E03F 		.word	1071644672
 1952 01f8 00002440 		.word	1076101120
 1953 01fc 0C000000 		.word	.LC3
 1954              		.cfi_endproc
 1955              	.LFE172:
 1956              		.fnend
 1957              		.size	_ZN5Print10printFloatEdh, .-_ZN5Print10printFloatEdh
 1958              		.global	_ZTV5Print
 1959              		.section	.rodata
 1960 000e 0000     		.align	3
 1961              		.type	_ZTV5Print, %object
 1962              		.size	_ZTV5Print, 16
 1963              	_ZTV5Print:
 1964 0010 00000000 		.word	0
 1965 0014 00000000 		.word	_ZTI5Print
 1966 0018 00000000 		.word	__cxa_pure_virtual
 1967 001c 00000000 		.word	_ZN5Print5writeEPKhj
 1968              		.global	_ZTI5Print
 1969              		.align	2
ARM GAS  C:\Users\Bruger\AppData\Local\Temp\cc797ORx.s 			page 44


 1970              		.type	_ZTI5Print, %object
 1971              		.size	_ZTI5Print, 8
 1972              	_ZTI5Print:
 1973 0020 08000000 		.word	_ZTVN10__cxxabiv117__class_type_infoE+8
 1974 0024 00000000 		.word	_ZTS5Print
 1975              		.global	_ZTS5Print
 1976              		.align	2
 1977              		.type	_ZTS5Print, %object
 1978              		.size	_ZTS5Print, 7
 1979              	_ZTS5Print:
 1980 0028 35507269 		.ascii	"5Print\000"
 1980      6E7400
 1981              		.type	_ZL2SS, %object
 1982              		.size	_ZL2SS, 1
 1983              	_ZL2SS:
 1984 002f 0A       		.byte	10
 1985              		.type	_ZL4MOSI, %object
 1986              		.size	_ZL4MOSI, 1
 1987              	_ZL4MOSI:
 1988 0030 0B       		.byte	11
 1989              		.type	_ZL4MISO, %object
 1990              		.size	_ZL4MISO, 1
 1991              	_ZL4MISO:
 1992 0031 0C       		.byte	12
 1993              		.type	_ZL3SCK, %object
 1994              		.size	_ZL3SCK, 1
 1995              	_ZL3SCK:
 1996 0032 0D       		.byte	13
 1997              		.type	_ZL3SDA, %object
 1998              		.size	_ZL3SDA, 1
 1999              	_ZL3SDA:
 2000 0033 15       		.byte	21
 2001              		.type	_ZL3SCL, %object
 2002              		.size	_ZL3SCL, 1
 2003              	_ZL3SCL:
 2004 0034 14       		.byte	20
 2005 0035 000000   		.text
 2006              	.Letext0:
 2007              		.file 4 "c:\\program files (x86)\\cypress\\psoc creator\\4.0\\psoc creator\\import\\gnu\\arm\\4.9.
 2008              		.file 5 "c:\\program files (x86)\\cypress\\psoc creator\\4.0\\psoc creator\\import\\gnu\\arm\\4.9.
 2009              		.file 6 "c:\\program files (x86)\\cypress\\psoc creator\\4.0\\psoc creator\\import\\gnu\\arm\\4.9.
 2010              		.file 7 ".\\core/pins_arduino.h"
 2011              		.file 8 "<built-in>"
 2012              		.file 9 "Generated_Source\\PSoC5/core_cm3.h"
 2013              		.section	.debug_info,"",%progbits
 2014              	.Ldebug_info0:
 2015 0000 D91B0000 		.4byte	0x1bd9
 2016 0004 0400     		.2byte	0x4
 2017 0006 00000000 		.4byte	.Ldebug_abbrev0
 2018 000a 04       		.byte	0x4
 2019 000b 01       		.uleb128 0x1
 2020 000c EE030000 		.4byte	.LASF198
 2021 0010 04       		.byte	0x4
 2022 0011 540D0000 		.4byte	.LASF199
 2023 0015 C40A0000 		.4byte	.LASF200
 2024 0019 00000000 		.4byte	.Ldebug_ranges0+0
 2025 001d 00000000 		.4byte	0
ARM GAS  C:\Users\Bruger\AppData\Local\Temp\cc797ORx.s 			page 45


 2026 0021 00000000 		.4byte	.Ldebug_line0
 2027 0025 02       		.uleb128 0x2
 2028 0026 43000000 		.4byte	.LASF2
 2029 002a 04       		.byte	0x4
 2030 002b D4       		.byte	0xd4
 2031 002c 30000000 		.4byte	0x30
 2032 0030 03       		.uleb128 0x3
 2033 0031 04       		.byte	0x4
 2034 0032 07       		.byte	0x7
 2035 0033 43050000 		.4byte	.LASF0
 2036 0037 04       		.uleb128 0x4
 2037 0038 04       		.byte	0x4
 2038 0039 05       		.byte	0x5
 2039 003a 696E7400 		.ascii	"int\000"
 2040 003e 03       		.uleb128 0x3
 2041 003f 01       		.byte	0x1
 2042 0040 06       		.byte	0x6
 2043 0041 0C020000 		.4byte	.LASF1
 2044 0045 02       		.uleb128 0x2
 2045 0046 88000000 		.4byte	.LASF3
 2046 004a 05       		.byte	0x5
 2047 004b 1D       		.byte	0x1d
 2048 004c 50000000 		.4byte	0x50
 2049 0050 03       		.uleb128 0x3
 2050 0051 01       		.byte	0x1
 2051 0052 08       		.byte	0x8
 2052 0053 500A0000 		.4byte	.LASF4
 2053 0057 03       		.uleb128 0x3
 2054 0058 02       		.byte	0x2
 2055 0059 05       		.byte	0x5
 2056 005a A50A0000 		.4byte	.LASF5
 2057 005e 03       		.uleb128 0x3
 2058 005f 02       		.byte	0x2
 2059 0060 07       		.byte	0x7
 2060 0061 2C060000 		.4byte	.LASF6
 2061 0065 02       		.uleb128 0x2
 2062 0066 42070000 		.4byte	.LASF7
 2063 006a 05       		.byte	0x5
 2064 006b 3F       		.byte	0x3f
 2065 006c 70000000 		.4byte	0x70
 2066 0070 03       		.uleb128 0x3
 2067 0071 04       		.byte	0x4
 2068 0072 05       		.byte	0x5
 2069 0073 F4000000 		.4byte	.LASF8
 2070 0077 03       		.uleb128 0x3
 2071 0078 04       		.byte	0x4
 2072 0079 07       		.byte	0x7
 2073 007a B0050000 		.4byte	.LASF9
 2074 007e 03       		.uleb128 0x3
 2075 007f 08       		.byte	0x8
 2076 0080 05       		.byte	0x5
 2077 0081 FE010000 		.4byte	.LASF10
 2078 0085 03       		.uleb128 0x3
 2079 0086 08       		.byte	0x8
 2080 0087 07       		.byte	0x7
 2081 0088 4F010000 		.4byte	.LASF11
 2082 008c 03       		.uleb128 0x3
ARM GAS  C:\Users\Bruger\AppData\Local\Temp\cc797ORx.s 			page 46


 2083 008d 04       		.byte	0x4
 2084 008e 07       		.byte	0x7
 2085 008f C4070000 		.4byte	.LASF12
 2086 0093 05       		.uleb128 0x5
 2087 0094 04       		.byte	0x4
 2088 0095 06       		.uleb128 0x6
 2089 0096 04       		.byte	0x4
 2090 0097 50000000 		.4byte	0x50
 2091 009b 06       		.uleb128 0x6
 2092 009c 04       		.byte	0x4
 2093 009d A1000000 		.4byte	0xa1
 2094 00a1 03       		.uleb128 0x3
 2095 00a2 01       		.byte	0x1
 2096 00a3 08       		.byte	0x8
 2097 00a4 870B0000 		.4byte	.LASF13
 2098 00a8 06       		.uleb128 0x6
 2099 00a9 04       		.byte	0x4
 2100 00aa AE000000 		.4byte	0xae
 2101 00ae 07       		.uleb128 0x7
 2102 00af A1000000 		.4byte	0xa1
 2103 00b3 03       		.uleb128 0x3
 2104 00b4 08       		.byte	0x8
 2105 00b5 04       		.byte	0x4
 2106 00b6 3F0E0000 		.4byte	.LASF14
 2107 00ba 03       		.uleb128 0x3
 2108 00bb 04       		.byte	0x4
 2109 00bc 04       		.byte	0x4
 2110 00bd 7E090000 		.4byte	.LASF15
 2111 00c1 03       		.uleb128 0x3
 2112 00c2 08       		.byte	0x8
 2113 00c3 04       		.byte	0x4
 2114 00c4 740B0000 		.4byte	.LASF16
 2115 00c8 02       		.uleb128 0x2
 2116 00c9 690D0000 		.4byte	.LASF17
 2117 00cd 06       		.byte	0x6
 2118 00ce 15       		.byte	0x15
 2119 00cf 45000000 		.4byte	0x45
 2120 00d3 02       		.uleb128 0x2
 2121 00d4 480A0000 		.4byte	.LASF18
 2122 00d8 06       		.byte	0x6
 2123 00d9 2C       		.byte	0x2c
 2124 00da 65000000 		.4byte	0x65
 2125 00de 08       		.uleb128 0x8
 2126 00df BD010000 		.4byte	.LASF22
 2127 00e3 0C       		.byte	0xc
 2128 00e4 01       		.byte	0x1
 2129 00e5 2D       		.byte	0x2d
 2130 00e6 FD0C0000 		.4byte	0xcfd
 2131 00ea 09       		.uleb128 0x9
 2132 00eb 300C0000 		.4byte	.LASF19
 2133 00ef 01       		.byte	0x1
 2134 00f0 BF       		.byte	0xbf
 2135 00f1 9B000000 		.4byte	0x9b
 2136 00f5 00       		.byte	0
 2137 00f6 02       		.byte	0x2
 2138 00f7 09       		.uleb128 0x9
 2139 00f8 CD000000 		.4byte	.LASF20
ARM GAS  C:\Users\Bruger\AppData\Local\Temp\cc797ORx.s 			page 47


 2140 00fc 01       		.byte	0x1
 2141 00fd C0       		.byte	0xc0
 2142 00fe 30000000 		.4byte	0x30
 2143 0102 04       		.byte	0x4
 2144 0103 02       		.byte	0x2
 2145 0104 0A       		.uleb128 0xa
 2146 0105 6C656E00 		.ascii	"len\000"
 2147 0109 01       		.byte	0x1
 2148 010a C1       		.byte	0xc1
 2149 010b 30000000 		.4byte	0x30
 2150 010f 08       		.byte	0x8
 2151 0110 02       		.byte	0x2
 2152 0111 02       		.uleb128 0x2
 2153 0112 AA010000 		.4byte	.LASF21
 2154 0116 01       		.byte	0x1
 2155 0117 32       		.byte	0x32
 2156 0118 FD0C0000 		.4byte	0xcfd
 2157 011c 0B       		.uleb128 0xb
 2158 011d A1000000 		.4byte	.LASF140
 2159 0121 01       		.byte	0x1
 2160 0122 33       		.byte	0x33
 2161 0123 B90C0000 		.4byte	.LASF201
 2162 0127 2F010000 		.4byte	0x12f
 2163 012b 35010000 		.4byte	0x135
 2164 012f 0C       		.uleb128 0xc
 2165 0130 2D0D0000 		.4byte	0xd2d
 2166 0134 00       		.byte	0
 2167 0135 0D       		.uleb128 0xd
 2168 0136 BD010000 		.4byte	.LASF22
 2169 013a 01       		.byte	0x1
 2170 013b 3B       		.byte	0x3b
 2171 013c 3E0D0000 		.4byte	0xd3e
 2172 0140 01       		.byte	0x1
 2173 0141 49010000 		.4byte	0x149
 2174 0145 54010000 		.4byte	0x154
 2175 0149 0C       		.uleb128 0xc
 2176 014a 3E0D0000 		.4byte	0xd3e
 2177 014e 0E       		.uleb128 0xe
 2178 014f A8000000 		.4byte	0xa8
 2179 0153 00       		.byte	0
 2180 0154 0D       		.uleb128 0xd
 2181 0155 BD010000 		.4byte	.LASF22
 2182 0159 01       		.byte	0x1
 2183 015a 3C       		.byte	0x3c
 2184 015b 3E0D0000 		.4byte	0xd3e
 2185 015f 01       		.byte	0x1
 2186 0160 68010000 		.4byte	0x168
 2187 0164 73010000 		.4byte	0x173
 2188 0168 0C       		.uleb128 0xc
 2189 0169 3E0D0000 		.4byte	0xd3e
 2190 016d 0E       		.uleb128 0xe
 2191 016e 440D0000 		.4byte	0xd44
 2192 0172 00       		.byte	0
 2193 0173 0D       		.uleb128 0xd
 2194 0174 BD010000 		.4byte	.LASF22
 2195 0178 01       		.byte	0x1
 2196 0179 3D       		.byte	0x3d
ARM GAS  C:\Users\Bruger\AppData\Local\Temp\cc797ORx.s 			page 48


 2197 017a 3E0D0000 		.4byte	0xd3e
 2198 017e 01       		.byte	0x1
 2199 017f 87010000 		.4byte	0x187
 2200 0183 92010000 		.4byte	0x192
 2201 0187 0C       		.uleb128 0xc
 2202 0188 3E0D0000 		.4byte	0xd3e
 2203 018c 0E       		.uleb128 0xe
 2204 018d 4A0D0000 		.4byte	0xd4a
 2205 0191 00       		.byte	0
 2206 0192 0F       		.uleb128 0xf
 2207 0193 BD010000 		.4byte	.LASF22
 2208 0197 01       		.byte	0x1
 2209 0198 42       		.byte	0x42
 2210 0199 3E0D0000 		.4byte	0xd3e
 2211 019d 01       		.byte	0x1
 2212 019e A6010000 		.4byte	0x1a6
 2213 01a2 B1010000 		.4byte	0x1b1
 2214 01a6 0C       		.uleb128 0xc
 2215 01a7 3E0D0000 		.4byte	0xd3e
 2216 01ab 0E       		.uleb128 0xe
 2217 01ac A1000000 		.4byte	0xa1
 2218 01b0 00       		.byte	0
 2219 01b1 0F       		.uleb128 0xf
 2220 01b2 BD010000 		.4byte	.LASF22
 2221 01b6 01       		.byte	0x1
 2222 01b7 43       		.byte	0x43
 2223 01b8 3E0D0000 		.4byte	0xd3e
 2224 01bc 01       		.byte	0x1
 2225 01bd C5010000 		.4byte	0x1c5
 2226 01c1 D5010000 		.4byte	0x1d5
 2227 01c5 0C       		.uleb128 0xc
 2228 01c6 3E0D0000 		.4byte	0xd3e
 2229 01ca 0E       		.uleb128 0xe
 2230 01cb 50000000 		.4byte	0x50
 2231 01cf 0E       		.uleb128 0xe
 2232 01d0 50000000 		.4byte	0x50
 2233 01d4 00       		.byte	0
 2234 01d5 0F       		.uleb128 0xf
 2235 01d6 BD010000 		.4byte	.LASF22
 2236 01da 01       		.byte	0x1
 2237 01db 44       		.byte	0x44
 2238 01dc 3E0D0000 		.4byte	0xd3e
 2239 01e0 01       		.byte	0x1
 2240 01e1 E9010000 		.4byte	0x1e9
 2241 01e5 F9010000 		.4byte	0x1f9
 2242 01e9 0C       		.uleb128 0xc
 2243 01ea 3E0D0000 		.4byte	0xd3e
 2244 01ee 0E       		.uleb128 0xe
 2245 01ef 37000000 		.4byte	0x37
 2246 01f3 0E       		.uleb128 0xe
 2247 01f4 50000000 		.4byte	0x50
 2248 01f8 00       		.byte	0
 2249 01f9 0F       		.uleb128 0xf
 2250 01fa BD010000 		.4byte	.LASF22
 2251 01fe 01       		.byte	0x1
 2252 01ff 45       		.byte	0x45
 2253 0200 3E0D0000 		.4byte	0xd3e
ARM GAS  C:\Users\Bruger\AppData\Local\Temp\cc797ORx.s 			page 49


 2254 0204 01       		.byte	0x1
 2255 0205 0D020000 		.4byte	0x20d
 2256 0209 1D020000 		.4byte	0x21d
 2257 020d 0C       		.uleb128 0xc
 2258 020e 3E0D0000 		.4byte	0xd3e
 2259 0212 0E       		.uleb128 0xe
 2260 0213 30000000 		.4byte	0x30
 2261 0217 0E       		.uleb128 0xe
 2262 0218 50000000 		.4byte	0x50
 2263 021c 00       		.byte	0
 2264 021d 0F       		.uleb128 0xf
 2265 021e BD010000 		.4byte	.LASF22
 2266 0222 01       		.byte	0x1
 2267 0223 46       		.byte	0x46
 2268 0224 3E0D0000 		.4byte	0xd3e
 2269 0228 01       		.byte	0x1
 2270 0229 31020000 		.4byte	0x231
 2271 022d 41020000 		.4byte	0x241
 2272 0231 0C       		.uleb128 0xc
 2273 0232 3E0D0000 		.4byte	0xd3e
 2274 0236 0E       		.uleb128 0xe
 2275 0237 70000000 		.4byte	0x70
 2276 023b 0E       		.uleb128 0xe
 2277 023c 50000000 		.4byte	0x50
 2278 0240 00       		.byte	0
 2279 0241 0F       		.uleb128 0xf
 2280 0242 BD010000 		.4byte	.LASF22
 2281 0246 01       		.byte	0x1
 2282 0247 47       		.byte	0x47
 2283 0248 3E0D0000 		.4byte	0xd3e
 2284 024c 01       		.byte	0x1
 2285 024d 55020000 		.4byte	0x255
 2286 0251 65020000 		.4byte	0x265
 2287 0255 0C       		.uleb128 0xc
 2288 0256 3E0D0000 		.4byte	0xd3e
 2289 025a 0E       		.uleb128 0xe
 2290 025b 77000000 		.4byte	0x77
 2291 025f 0E       		.uleb128 0xe
 2292 0260 50000000 		.4byte	0x50
 2293 0264 00       		.byte	0
 2294 0265 0F       		.uleb128 0xf
 2295 0266 BD010000 		.4byte	.LASF22
 2296 026a 01       		.byte	0x1
 2297 026b 48       		.byte	0x48
 2298 026c 3E0D0000 		.4byte	0xd3e
 2299 0270 01       		.byte	0x1
 2300 0271 79020000 		.4byte	0x279
 2301 0275 89020000 		.4byte	0x289
 2302 0279 0C       		.uleb128 0xc
 2303 027a 3E0D0000 		.4byte	0xd3e
 2304 027e 0E       		.uleb128 0xe
 2305 027f BA000000 		.4byte	0xba
 2306 0283 0E       		.uleb128 0xe
 2307 0284 50000000 		.4byte	0x50
 2308 0288 00       		.byte	0
 2309 0289 0F       		.uleb128 0xf
 2310 028a BD010000 		.4byte	.LASF22
ARM GAS  C:\Users\Bruger\AppData\Local\Temp\cc797ORx.s 			page 50


 2311 028e 01       		.byte	0x1
 2312 028f 49       		.byte	0x49
 2313 0290 3E0D0000 		.4byte	0xd3e
 2314 0294 01       		.byte	0x1
 2315 0295 9D020000 		.4byte	0x29d
 2316 0299 AD020000 		.4byte	0x2ad
 2317 029d 0C       		.uleb128 0xc
 2318 029e 3E0D0000 		.4byte	0xd3e
 2319 02a2 0E       		.uleb128 0xe
 2320 02a3 B3000000 		.4byte	0xb3
 2321 02a7 0E       		.uleb128 0xe
 2322 02a8 50000000 		.4byte	0x50
 2323 02ac 00       		.byte	0
 2324 02ad 0D       		.uleb128 0xd
 2325 02ae A2010000 		.4byte	.LASF23
 2326 02b2 01       		.byte	0x1
 2327 02b3 4A       		.byte	0x4a
 2328 02b4 93000000 		.4byte	0x93
 2329 02b8 01       		.byte	0x1
 2330 02b9 C1020000 		.4byte	0x2c1
 2331 02bd CC020000 		.4byte	0x2cc
 2332 02c1 0C       		.uleb128 0xc
 2333 02c2 3E0D0000 		.4byte	0xd3e
 2334 02c6 0C       		.uleb128 0xc
 2335 02c7 37000000 		.4byte	0x37
 2336 02cb 00       		.byte	0
 2337 02cc 10       		.uleb128 0x10
 2338 02cd 63050000 		.4byte	.LASF24
 2339 02d1 01       		.byte	0x1
 2340 02d2 50       		.byte	0x50
 2341 02d3 CE040000 		.4byte	.LASF26
 2342 02d7 50000000 		.4byte	0x50
 2343 02db 01       		.byte	0x1
 2344 02dc E4020000 		.4byte	0x2e4
 2345 02e0 EF020000 		.4byte	0x2ef
 2346 02e4 0C       		.uleb128 0xc
 2347 02e5 3E0D0000 		.4byte	0xd3e
 2348 02e9 0E       		.uleb128 0xe
 2349 02ea 30000000 		.4byte	0x30
 2350 02ee 00       		.byte	0
 2351 02ef 10       		.uleb128 0x10
 2352 02f0 800B0000 		.4byte	.LASF25
 2353 02f4 01       		.byte	0x1
 2354 02f5 51       		.byte	0x51
 2355 02f6 92040000 		.4byte	.LASF27
 2356 02fa 30000000 		.4byte	0x30
 2357 02fe 01       		.byte	0x1
 2358 02ff 07030000 		.4byte	0x307
 2359 0303 0D030000 		.4byte	0x30d
 2360 0307 0C       		.uleb128 0xc
 2361 0308 2D0D0000 		.4byte	0xd2d
 2362 030c 00       		.byte	0
 2363 030d 10       		.uleb128 0x10
 2364 030e 680A0000 		.4byte	.LASF28
 2365 0312 01       		.byte	0x1
 2366 0313 56       		.byte	0x56
 2367 0314 D70D0000 		.4byte	.LASF29
ARM GAS  C:\Users\Bruger\AppData\Local\Temp\cc797ORx.s 			page 51


 2368 0318 5A0D0000 		.4byte	0xd5a
 2369 031c 01       		.byte	0x1
 2370 031d 25030000 		.4byte	0x325
 2371 0321 30030000 		.4byte	0x330
 2372 0325 0C       		.uleb128 0xc
 2373 0326 3E0D0000 		.4byte	0xd3e
 2374 032a 0E       		.uleb128 0xe
 2375 032b 440D0000 		.4byte	0xd44
 2376 032f 00       		.byte	0
 2377 0330 10       		.uleb128 0x10
 2378 0331 680A0000 		.4byte	.LASF28
 2379 0335 01       		.byte	0x1
 2380 0336 57       		.byte	0x57
 2381 0337 05050000 		.4byte	.LASF30
 2382 033b 5A0D0000 		.4byte	0xd5a
 2383 033f 01       		.byte	0x1
 2384 0340 48030000 		.4byte	0x348
 2385 0344 53030000 		.4byte	0x353
 2386 0348 0C       		.uleb128 0xc
 2387 0349 3E0D0000 		.4byte	0xd3e
 2388 034d 0E       		.uleb128 0xe
 2389 034e A8000000 		.4byte	0xa8
 2390 0352 00       		.byte	0
 2391 0353 10       		.uleb128 0x10
 2392 0354 680A0000 		.4byte	.LASF28
 2393 0358 01       		.byte	0x1
 2394 0359 58       		.byte	0x58
 2395 035a 230A0000 		.4byte	.LASF31
 2396 035e 5A0D0000 		.4byte	0xd5a
 2397 0362 01       		.byte	0x1
 2398 0363 6B030000 		.4byte	0x36b
 2399 0367 76030000 		.4byte	0x376
 2400 036b 0C       		.uleb128 0xc
 2401 036c 3E0D0000 		.4byte	0xd3e
 2402 0370 0E       		.uleb128 0xe
 2403 0371 4A0D0000 		.4byte	0xd4a
 2404 0375 00       		.byte	0
 2405 0376 10       		.uleb128 0x10
 2406 0377 D0030000 		.4byte	.LASF32
 2407 037b 01       		.byte	0x1
 2408 037c 63       		.byte	0x63
 2409 037d 31080000 		.4byte	.LASF33
 2410 0381 50000000 		.4byte	0x50
 2411 0385 01       		.byte	0x1
 2412 0386 8E030000 		.4byte	0x38e
 2413 038a 99030000 		.4byte	0x399
 2414 038e 0C       		.uleb128 0xc
 2415 038f 3E0D0000 		.4byte	0xd3e
 2416 0393 0E       		.uleb128 0xe
 2417 0394 440D0000 		.4byte	0xd44
 2418 0398 00       		.byte	0
 2419 0399 10       		.uleb128 0x10
 2420 039a D0030000 		.4byte	.LASF32
 2421 039e 01       		.byte	0x1
 2422 039f 64       		.byte	0x64
 2423 03a0 81030000 		.4byte	.LASF34
 2424 03a4 50000000 		.4byte	0x50
ARM GAS  C:\Users\Bruger\AppData\Local\Temp\cc797ORx.s 			page 52


 2425 03a8 01       		.byte	0x1
 2426 03a9 B1030000 		.4byte	0x3b1
 2427 03ad BC030000 		.4byte	0x3bc
 2428 03b1 0C       		.uleb128 0xc
 2429 03b2 3E0D0000 		.4byte	0xd3e
 2430 03b6 0E       		.uleb128 0xe
 2431 03b7 A8000000 		.4byte	0xa8
 2432 03bb 00       		.byte	0
 2433 03bc 10       		.uleb128 0x10
 2434 03bd D0030000 		.4byte	.LASF32
 2435 03c1 01       		.byte	0x1
 2436 03c2 65       		.byte	0x65
 2437 03c3 89060000 		.4byte	.LASF35
 2438 03c7 50000000 		.4byte	0x50
 2439 03cb 01       		.byte	0x1
 2440 03cc D4030000 		.4byte	0x3d4
 2441 03d0 DF030000 		.4byte	0x3df
 2442 03d4 0C       		.uleb128 0xc
 2443 03d5 3E0D0000 		.4byte	0xd3e
 2444 03d9 0E       		.uleb128 0xe
 2445 03da A1000000 		.4byte	0xa1
 2446 03de 00       		.byte	0
 2447 03df 10       		.uleb128 0x10
 2448 03e0 D0030000 		.4byte	.LASF32
 2449 03e4 01       		.byte	0x1
 2450 03e5 66       		.byte	0x66
 2451 03e6 D3060000 		.4byte	.LASF36
 2452 03ea 50000000 		.4byte	0x50
 2453 03ee 01       		.byte	0x1
 2454 03ef F7030000 		.4byte	0x3f7
 2455 03f3 02040000 		.4byte	0x402
 2456 03f7 0C       		.uleb128 0xc
 2457 03f8 3E0D0000 		.4byte	0xd3e
 2458 03fc 0E       		.uleb128 0xe
 2459 03fd 50000000 		.4byte	0x50
 2460 0401 00       		.byte	0
 2461 0402 10       		.uleb128 0x10
 2462 0403 D0030000 		.4byte	.LASF32
 2463 0407 01       		.byte	0x1
 2464 0408 67       		.byte	0x67
 2465 0409 E7060000 		.4byte	.LASF37
 2466 040d 50000000 		.4byte	0x50
 2467 0411 01       		.byte	0x1
 2468 0412 1A040000 		.4byte	0x41a
 2469 0416 25040000 		.4byte	0x425
 2470 041a 0C       		.uleb128 0xc
 2471 041b 3E0D0000 		.4byte	0xd3e
 2472 041f 0E       		.uleb128 0xe
 2473 0420 37000000 		.4byte	0x37
 2474 0424 00       		.byte	0
 2475 0425 10       		.uleb128 0x10
 2476 0426 D0030000 		.4byte	.LASF32
 2477 042a 01       		.byte	0x1
 2478 042b 68       		.byte	0x68
 2479 042c FB060000 		.4byte	.LASF38
 2480 0430 50000000 		.4byte	0x50
 2481 0434 01       		.byte	0x1
ARM GAS  C:\Users\Bruger\AppData\Local\Temp\cc797ORx.s 			page 53


 2482 0435 3D040000 		.4byte	0x43d
 2483 0439 48040000 		.4byte	0x448
 2484 043d 0C       		.uleb128 0xc
 2485 043e 3E0D0000 		.4byte	0xd3e
 2486 0442 0E       		.uleb128 0xe
 2487 0443 30000000 		.4byte	0x30
 2488 0447 00       		.byte	0
 2489 0448 10       		.uleb128 0x10
 2490 0449 D0030000 		.4byte	.LASF32
 2491 044d 01       		.byte	0x1
 2492 044e 69       		.byte	0x69
 2493 044f 0F070000 		.4byte	.LASF39
 2494 0453 50000000 		.4byte	0x50
 2495 0457 01       		.byte	0x1
 2496 0458 60040000 		.4byte	0x460
 2497 045c 6B040000 		.4byte	0x46b
 2498 0460 0C       		.uleb128 0xc
 2499 0461 3E0D0000 		.4byte	0xd3e
 2500 0465 0E       		.uleb128 0xe
 2501 0466 70000000 		.4byte	0x70
 2502 046a 00       		.byte	0
 2503 046b 10       		.uleb128 0x10
 2504 046c D0030000 		.4byte	.LASF32
 2505 0470 01       		.byte	0x1
 2506 0471 6A       		.byte	0x6a
 2507 0472 23070000 		.4byte	.LASF40
 2508 0476 50000000 		.4byte	0x50
 2509 047a 01       		.byte	0x1
 2510 047b 83040000 		.4byte	0x483
 2511 047f 8E040000 		.4byte	0x48e
 2512 0483 0C       		.uleb128 0xc
 2513 0484 3E0D0000 		.4byte	0xd3e
 2514 0488 0E       		.uleb128 0xe
 2515 0489 77000000 		.4byte	0x77
 2516 048d 00       		.byte	0
 2517 048e 10       		.uleb128 0x10
 2518 048f D0030000 		.4byte	.LASF32
 2519 0493 01       		.byte	0x1
 2520 0494 6B       		.byte	0x6b
 2521 0495 BF060000 		.4byte	.LASF41
 2522 0499 50000000 		.4byte	0x50
 2523 049d 01       		.byte	0x1
 2524 049e A6040000 		.4byte	0x4a6
 2525 04a2 B1040000 		.4byte	0x4b1
 2526 04a6 0C       		.uleb128 0xc
 2527 04a7 3E0D0000 		.4byte	0xd3e
 2528 04ab 0E       		.uleb128 0xe
 2529 04ac BA000000 		.4byte	0xba
 2530 04b0 00       		.byte	0
 2531 04b1 10       		.uleb128 0x10
 2532 04b2 D0030000 		.4byte	.LASF32
 2533 04b6 01       		.byte	0x1
 2534 04b7 6C       		.byte	0x6c
 2535 04b8 7E040000 		.4byte	.LASF42
 2536 04bc 50000000 		.4byte	0x50
 2537 04c0 01       		.byte	0x1
 2538 04c1 C9040000 		.4byte	0x4c9
ARM GAS  C:\Users\Bruger\AppData\Local\Temp\cc797ORx.s 			page 54


 2539 04c5 D4040000 		.4byte	0x4d4
 2540 04c9 0C       		.uleb128 0xc
 2541 04ca 3E0D0000 		.4byte	0xd3e
 2542 04ce 0E       		.uleb128 0xe
 2543 04cf B3000000 		.4byte	0xb3
 2544 04d3 00       		.byte	0
 2545 04d4 10       		.uleb128 0x10
 2546 04d5 D0030000 		.4byte	.LASF32
 2547 04d9 01       		.byte	0x1
 2548 04da 6D       		.byte	0x6d
 2549 04db 54090000 		.4byte	.LASF43
 2550 04df 50000000 		.4byte	0x50
 2551 04e3 01       		.byte	0x1
 2552 04e4 EC040000 		.4byte	0x4ec
 2553 04e8 F7040000 		.4byte	0x4f7
 2554 04ec 0C       		.uleb128 0xc
 2555 04ed 3E0D0000 		.4byte	0xd3e
 2556 04f1 0E       		.uleb128 0xe
 2557 04f2 4A0D0000 		.4byte	0xd4a
 2558 04f6 00       		.byte	0
 2559 04f7 10       		.uleb128 0x10
 2560 04f8 0C080000 		.4byte	.LASF44
 2561 04fc 01       		.byte	0x1
 2562 04fd 71       		.byte	0x71
 2563 04fe FA070000 		.4byte	.LASF45
 2564 0502 5A0D0000 		.4byte	0xd5a
 2565 0506 01       		.byte	0x1
 2566 0507 0F050000 		.4byte	0x50f
 2567 050b 1A050000 		.4byte	0x51a
 2568 050f 0C       		.uleb128 0xc
 2569 0510 3E0D0000 		.4byte	0xd3e
 2570 0514 0E       		.uleb128 0xe
 2571 0515 440D0000 		.4byte	0xd44
 2572 0519 00       		.byte	0
 2573 051a 10       		.uleb128 0x10
 2574 051b 0C080000 		.4byte	.LASF44
 2575 051f 01       		.byte	0x1
 2576 0520 72       		.byte	0x72
 2577 0521 29090000 		.4byte	.LASF46
 2578 0525 5A0D0000 		.4byte	0xd5a
 2579 0529 01       		.byte	0x1
 2580 052a 32050000 		.4byte	0x532
 2581 052e 3D050000 		.4byte	0x53d
 2582 0532 0C       		.uleb128 0xc
 2583 0533 3E0D0000 		.4byte	0xd3e
 2584 0537 0E       		.uleb128 0xe
 2585 0538 A8000000 		.4byte	0xa8
 2586 053c 00       		.byte	0
 2587 053d 10       		.uleb128 0x10
 2588 053e 0C080000 		.4byte	.LASF44
 2589 0542 01       		.byte	0x1
 2590 0543 73       		.byte	0x73
 2591 0544 48080000 		.4byte	.LASF47
 2592 0548 5A0D0000 		.4byte	0xd5a
 2593 054c 01       		.byte	0x1
 2594 054d 55050000 		.4byte	0x555
 2595 0551 60050000 		.4byte	0x560
ARM GAS  C:\Users\Bruger\AppData\Local\Temp\cc797ORx.s 			page 55


 2596 0555 0C       		.uleb128 0xc
 2597 0556 3E0D0000 		.4byte	0xd3e
 2598 055a 0E       		.uleb128 0xe
 2599 055b A1000000 		.4byte	0xa1
 2600 055f 00       		.byte	0
 2601 0560 10       		.uleb128 0x10
 2602 0561 0C080000 		.4byte	.LASF44
 2603 0565 01       		.byte	0x1
 2604 0566 74       		.byte	0x74
 2605 0567 90080000 		.4byte	.LASF48
 2606 056b 5A0D0000 		.4byte	0xd5a
 2607 056f 01       		.byte	0x1
 2608 0570 78050000 		.4byte	0x578
 2609 0574 83050000 		.4byte	0x583
 2610 0578 0C       		.uleb128 0xc
 2611 0579 3E0D0000 		.4byte	0xd3e
 2612 057d 0E       		.uleb128 0xe
 2613 057e 50000000 		.4byte	0x50
 2614 0582 00       		.byte	0
 2615 0583 10       		.uleb128 0x10
 2616 0584 0C080000 		.4byte	.LASF44
 2617 0588 01       		.byte	0x1
 2618 0589 75       		.byte	0x75
 2619 058a 9F080000 		.4byte	.LASF49
 2620 058e 5A0D0000 		.4byte	0xd5a
 2621 0592 01       		.byte	0x1
 2622 0593 9B050000 		.4byte	0x59b
 2623 0597 A6050000 		.4byte	0x5a6
 2624 059b 0C       		.uleb128 0xc
 2625 059c 3E0D0000 		.4byte	0xd3e
 2626 05a0 0E       		.uleb128 0xe
 2627 05a1 37000000 		.4byte	0x37
 2628 05a5 00       		.byte	0
 2629 05a6 10       		.uleb128 0x10
 2630 05a7 0C080000 		.4byte	.LASF44
 2631 05ab 01       		.byte	0x1
 2632 05ac 76       		.byte	0x76
 2633 05ad AE080000 		.4byte	.LASF50
 2634 05b1 5A0D0000 		.4byte	0xd5a
 2635 05b5 01       		.byte	0x1
 2636 05b6 BE050000 		.4byte	0x5be
 2637 05ba C9050000 		.4byte	0x5c9
 2638 05be 0C       		.uleb128 0xc
 2639 05bf 3E0D0000 		.4byte	0xd3e
 2640 05c3 0E       		.uleb128 0xe
 2641 05c4 30000000 		.4byte	0x30
 2642 05c8 00       		.byte	0
 2643 05c9 10       		.uleb128 0x10
 2644 05ca 0C080000 		.4byte	.LASF44
 2645 05ce 01       		.byte	0x1
 2646 05cf 77       		.byte	0x77
 2647 05d0 BD080000 		.4byte	.LASF51
 2648 05d4 5A0D0000 		.4byte	0xd5a
 2649 05d8 01       		.byte	0x1
 2650 05d9 E1050000 		.4byte	0x5e1
 2651 05dd EC050000 		.4byte	0x5ec
 2652 05e1 0C       		.uleb128 0xc
ARM GAS  C:\Users\Bruger\AppData\Local\Temp\cc797ORx.s 			page 56


 2653 05e2 3E0D0000 		.4byte	0xd3e
 2654 05e6 0E       		.uleb128 0xe
 2655 05e7 70000000 		.4byte	0x70
 2656 05eb 00       		.byte	0
 2657 05ec 10       		.uleb128 0x10
 2658 05ed 0C080000 		.4byte	.LASF44
 2659 05f1 01       		.byte	0x1
 2660 05f2 78       		.byte	0x78
 2661 05f3 CC080000 		.4byte	.LASF52
 2662 05f7 5A0D0000 		.4byte	0xd5a
 2663 05fb 01       		.byte	0x1
 2664 05fc 04060000 		.4byte	0x604
 2665 0600 0F060000 		.4byte	0x60f
 2666 0604 0C       		.uleb128 0xc
 2667 0605 3E0D0000 		.4byte	0xd3e
 2668 0609 0E       		.uleb128 0xe
 2669 060a 77000000 		.4byte	0x77
 2670 060e 00       		.byte	0
 2671 060f 10       		.uleb128 0x10
 2672 0610 0C080000 		.4byte	.LASF44
 2673 0614 01       		.byte	0x1
 2674 0615 79       		.byte	0x79
 2675 0616 81080000 		.4byte	.LASF53
 2676 061a 5A0D0000 		.4byte	0xd5a
 2677 061e 01       		.byte	0x1
 2678 061f 27060000 		.4byte	0x627
 2679 0623 32060000 		.4byte	0x632
 2680 0627 0C       		.uleb128 0xc
 2681 0628 3E0D0000 		.4byte	0xd3e
 2682 062c 0E       		.uleb128 0xe
 2683 062d BA000000 		.4byte	0xba
 2684 0631 00       		.byte	0
 2685 0632 10       		.uleb128 0x10
 2686 0633 0C080000 		.4byte	.LASF44
 2687 0637 01       		.byte	0x1
 2688 0638 7A       		.byte	0x7a
 2689 0639 57080000 		.4byte	.LASF54
 2690 063d 5A0D0000 		.4byte	0xd5a
 2691 0641 01       		.byte	0x1
 2692 0642 4A060000 		.4byte	0x64a
 2693 0646 55060000 		.4byte	0x655
 2694 064a 0C       		.uleb128 0xc
 2695 064b 3E0D0000 		.4byte	0xd3e
 2696 064f 0E       		.uleb128 0xe
 2697 0650 B3000000 		.4byte	0xb3
 2698 0654 00       		.byte	0
 2699 0655 10       		.uleb128 0x10
 2700 0656 0C080000 		.4byte	.LASF44
 2701 065a 01       		.byte	0x1
 2702 065b 7B       		.byte	0x7b
 2703 065c AB030000 		.4byte	.LASF55
 2704 0660 5A0D0000 		.4byte	0xd5a
 2705 0664 01       		.byte	0x1
 2706 0665 6D060000 		.4byte	0x66d
 2707 0669 78060000 		.4byte	0x678
 2708 066d 0C       		.uleb128 0xc
 2709 066e 3E0D0000 		.4byte	0xd3e
ARM GAS  C:\Users\Bruger\AppData\Local\Temp\cc797ORx.s 			page 57


 2710 0672 0E       		.uleb128 0xe
 2711 0673 4A0D0000 		.4byte	0xd4a
 2712 0677 00       		.byte	0
 2713 0678 10       		.uleb128 0x10
 2714 0679 F6080000 		.4byte	.LASF56
 2715 067d 01       		.byte	0x1
 2716 067e 8A       		.byte	0x8a
 2717 067f 97090000 		.4byte	.LASF57
 2718 0683 11010000 		.4byte	0x111
 2719 0687 01       		.byte	0x1
 2720 0688 90060000 		.4byte	0x690
 2721 068c 96060000 		.4byte	0x696
 2722 0690 0C       		.uleb128 0xc
 2723 0691 2D0D0000 		.4byte	0xd2d
 2724 0695 00       		.byte	0
 2725 0696 10       		.uleb128 0x10
 2726 0697 EC020000 		.4byte	.LASF58
 2727 069b 01       		.byte	0x1
 2728 069c 8B       		.byte	0x8b
 2729 069d 00000000 		.4byte	.LASF59
 2730 06a1 37000000 		.4byte	0x37
 2731 06a5 01       		.byte	0x1
 2732 06a6 AE060000 		.4byte	0x6ae
 2733 06aa B9060000 		.4byte	0x6b9
 2734 06ae 0C       		.uleb128 0xc
 2735 06af 2D0D0000 		.4byte	0xd2d
 2736 06b3 0E       		.uleb128 0xe
 2737 06b4 440D0000 		.4byte	0xd44
 2738 06b8 00       		.byte	0
 2739 06b9 10       		.uleb128 0x10
 2740 06ba 52060000 		.4byte	.LASF60
 2741 06be 01       		.byte	0x1
 2742 06bf 8C       		.byte	0x8c
 2743 06c0 0B0A0000 		.4byte	.LASF61
 2744 06c4 50000000 		.4byte	0x50
 2745 06c8 01       		.byte	0x1
 2746 06c9 D1060000 		.4byte	0x6d1
 2747 06cd DC060000 		.4byte	0x6dc
 2748 06d1 0C       		.uleb128 0xc
 2749 06d2 2D0D0000 		.4byte	0xd2d
 2750 06d6 0E       		.uleb128 0xe
 2751 06d7 440D0000 		.4byte	0xd44
 2752 06db 00       		.byte	0
 2753 06dc 10       		.uleb128 0x10
 2754 06dd 52060000 		.4byte	.LASF60
 2755 06e1 01       		.byte	0x1
 2756 06e2 8D       		.byte	0x8d
 2757 06e3 32010000 		.4byte	.LASF62
 2758 06e7 50000000 		.4byte	0x50
 2759 06eb 01       		.byte	0x1
 2760 06ec F4060000 		.4byte	0x6f4
 2761 06f0 FF060000 		.4byte	0x6ff
 2762 06f4 0C       		.uleb128 0xc
 2763 06f5 2D0D0000 		.4byte	0xd2d
 2764 06f9 0E       		.uleb128 0xe
 2765 06fa A8000000 		.4byte	0xa8
 2766 06fe 00       		.byte	0
ARM GAS  C:\Users\Bruger\AppData\Local\Temp\cc797ORx.s 			page 58


 2767 06ff 10       		.uleb128 0x10
 2768 0700 37070000 		.4byte	.LASF63
 2769 0704 01       		.byte	0x1
 2770 0705 8E       		.byte	0x8e
 2771 0706 84090000 		.4byte	.LASF64
 2772 070a 50000000 		.4byte	0x50
 2773 070e 01       		.byte	0x1
 2774 070f 17070000 		.4byte	0x717
 2775 0713 22070000 		.4byte	0x722
 2776 0717 0C       		.uleb128 0xc
 2777 0718 2D0D0000 		.4byte	0xd2d
 2778 071c 0E       		.uleb128 0xe
 2779 071d 440D0000 		.4byte	0xd44
 2780 0721 00       		.byte	0
 2781 0722 10       		.uleb128 0x10
 2782 0723 37070000 		.4byte	.LASF63
 2783 0727 01       		.byte	0x1
 2784 0728 8F       		.byte	0x8f
 2785 0729 1D0B0000 		.4byte	.LASF65
 2786 072d 50000000 		.4byte	0x50
 2787 0731 01       		.byte	0x1
 2788 0732 3A070000 		.4byte	0x73a
 2789 0736 45070000 		.4byte	0x745
 2790 073a 0C       		.uleb128 0xc
 2791 073b 2D0D0000 		.4byte	0xd2d
 2792 073f 0E       		.uleb128 0xe
 2793 0740 A8000000 		.4byte	0xa8
 2794 0744 00       		.byte	0
 2795 0745 10       		.uleb128 0x10
 2796 0746 F6020000 		.4byte	.LASF66
 2797 074a 01       		.byte	0x1
 2798 074b 90       		.byte	0x90
 2799 074c E90C0000 		.4byte	.LASF67
 2800 0750 50000000 		.4byte	0x50
 2801 0754 01       		.byte	0x1
 2802 0755 5D070000 		.4byte	0x75d
 2803 0759 68070000 		.4byte	0x768
 2804 075d 0C       		.uleb128 0xc
 2805 075e 2D0D0000 		.4byte	0xd2d
 2806 0762 0E       		.uleb128 0xe
 2807 0763 440D0000 		.4byte	0xd44
 2808 0767 00       		.byte	0
 2809 0768 10       		.uleb128 0x10
 2810 0769 F6020000 		.4byte	.LASF66
 2811 076d 01       		.byte	0x1
 2812 076e 91       		.byte	0x91
 2813 076f 3B020000 		.4byte	.LASF68
 2814 0773 50000000 		.4byte	0x50
 2815 0777 01       		.byte	0x1
 2816 0778 80070000 		.4byte	0x780
 2817 077c 8B070000 		.4byte	0x78b
 2818 0780 0C       		.uleb128 0xc
 2819 0781 2D0D0000 		.4byte	0xd2d
 2820 0785 0E       		.uleb128 0xe
 2821 0786 A8000000 		.4byte	0xa8
 2822 078a 00       		.byte	0
 2823 078b 10       		.uleb128 0x10
ARM GAS  C:\Users\Bruger\AppData\Local\Temp\cc797ORx.s 			page 59


 2824 078c 5E0A0000 		.4byte	.LASF69
 2825 0790 01       		.byte	0x1
 2826 0791 92       		.byte	0x92
 2827 0792 FC0C0000 		.4byte	.LASF70
 2828 0796 50000000 		.4byte	0x50
 2829 079a 01       		.byte	0x1
 2830 079b A3070000 		.4byte	0x7a3
 2831 079f AE070000 		.4byte	0x7ae
 2832 07a3 0C       		.uleb128 0xc
 2833 07a4 2D0D0000 		.4byte	0xd2d
 2834 07a8 0E       		.uleb128 0xe
 2835 07a9 440D0000 		.4byte	0xd44
 2836 07ad 00       		.byte	0
 2837 07ae 10       		.uleb128 0x10
 2838 07af 720A0000 		.4byte	.LASF71
 2839 07b3 01       		.byte	0x1
 2840 07b4 93       		.byte	0x93
 2841 07b5 4C070000 		.4byte	.LASF72
 2842 07b9 50000000 		.4byte	0x50
 2843 07bd 01       		.byte	0x1
 2844 07be C6070000 		.4byte	0x7c6
 2845 07c2 D1070000 		.4byte	0x7d1
 2846 07c6 0C       		.uleb128 0xc
 2847 07c7 2D0D0000 		.4byte	0xd2d
 2848 07cb 0E       		.uleb128 0xe
 2849 07cc 440D0000 		.4byte	0xd44
 2850 07d0 00       		.byte	0
 2851 07d1 10       		.uleb128 0x10
 2852 07d2 950B0000 		.4byte	.LASF73
 2853 07d6 01       		.byte	0x1
 2854 07d7 94       		.byte	0x94
 2855 07d8 750C0000 		.4byte	.LASF74
 2856 07dc 50000000 		.4byte	0x50
 2857 07e0 01       		.byte	0x1
 2858 07e1 E9070000 		.4byte	0x7e9
 2859 07e5 F4070000 		.4byte	0x7f4
 2860 07e9 0C       		.uleb128 0xc
 2861 07ea 2D0D0000 		.4byte	0xd2d
 2862 07ee 0E       		.uleb128 0xe
 2863 07ef 440D0000 		.4byte	0xd44
 2864 07f3 00       		.byte	0
 2865 07f4 10       		.uleb128 0x10
 2866 07f5 4A000000 		.4byte	.LASF75
 2867 07f9 01       		.byte	0x1
 2868 07fa 95       		.byte	0x95
 2869 07fb A00B0000 		.4byte	.LASF76
 2870 07ff 50000000 		.4byte	0x50
 2871 0803 01       		.byte	0x1
 2872 0804 0C080000 		.4byte	0x80c
 2873 0808 17080000 		.4byte	0x817
 2874 080c 0C       		.uleb128 0xc
 2875 080d 2D0D0000 		.4byte	0xd2d
 2876 0811 0E       		.uleb128 0xe
 2877 0812 440D0000 		.4byte	0xd44
 2878 0816 00       		.byte	0
 2879 0817 10       		.uleb128 0x10
 2880 0818 25030000 		.4byte	.LASF77
ARM GAS  C:\Users\Bruger\AppData\Local\Temp\cc797ORx.s 			page 60


 2881 081c 01       		.byte	0x1
 2882 081d 96       		.byte	0x96
 2883 081e 18020000 		.4byte	.LASF78
 2884 0822 50000000 		.4byte	0x50
 2885 0826 01       		.byte	0x1
 2886 0827 2F080000 		.4byte	0x82f
 2887 082b 3A080000 		.4byte	0x83a
 2888 082f 0C       		.uleb128 0xc
 2889 0830 2D0D0000 		.4byte	0xd2d
 2890 0834 0E       		.uleb128 0xe
 2891 0835 440D0000 		.4byte	0xd44
 2892 0839 00       		.byte	0
 2893 083a 10       		.uleb128 0x10
 2894 083b 2F0B0000 		.4byte	.LASF79
 2895 083f 01       		.byte	0x1
 2896 0840 97       		.byte	0x97
 2897 0841 26050000 		.4byte	.LASF80
 2898 0845 50000000 		.4byte	0x50
 2899 0849 01       		.byte	0x1
 2900 084a 52080000 		.4byte	0x852
 2901 084e 5D080000 		.4byte	0x85d
 2902 0852 0C       		.uleb128 0xc
 2903 0853 2D0D0000 		.4byte	0xd2d
 2904 0857 0E       		.uleb128 0xe
 2905 0858 440D0000 		.4byte	0xd44
 2906 085c 00       		.byte	0
 2907 085d 10       		.uleb128 0x10
 2908 085e 2F0B0000 		.4byte	.LASF79
 2909 0862 01       		.byte	0x1
 2910 0863 98       		.byte	0x98
 2911 0864 5F070000 		.4byte	.LASF81
 2912 0868 50000000 		.4byte	0x50
 2913 086c 01       		.byte	0x1
 2914 086d 75080000 		.4byte	0x875
 2915 0871 85080000 		.4byte	0x885
 2916 0875 0C       		.uleb128 0xc
 2917 0876 2D0D0000 		.4byte	0xd2d
 2918 087a 0E       		.uleb128 0xe
 2919 087b 440D0000 		.4byte	0xd44
 2920 087f 0E       		.uleb128 0xe
 2921 0880 30000000 		.4byte	0x30
 2922 0884 00       		.byte	0
 2923 0885 10       		.uleb128 0x10
 2924 0886 FD090000 		.4byte	.LASF82
 2925 088a 01       		.byte	0x1
 2926 088b 99       		.byte	0x99
 2927 088c DC050000 		.4byte	.LASF83
 2928 0890 50000000 		.4byte	0x50
 2929 0894 01       		.byte	0x1
 2930 0895 9D080000 		.4byte	0x89d
 2931 0899 A8080000 		.4byte	0x8a8
 2932 089d 0C       		.uleb128 0xc
 2933 089e 2D0D0000 		.4byte	0xd2d
 2934 08a2 0E       		.uleb128 0xe
 2935 08a3 440D0000 		.4byte	0xd44
 2936 08a7 00       		.byte	0
 2937 08a8 10       		.uleb128 0x10
ARM GAS  C:\Users\Bruger\AppData\Local\Temp\cc797ORx.s 			page 61


 2938 08a9 3F060000 		.4byte	.LASF84
 2939 08ad 01       		.byte	0x1
 2940 08ae 9C       		.byte	0x9c
 2941 08af 73000000 		.4byte	.LASF85
 2942 08b3 A1000000 		.4byte	0xa1
 2943 08b7 01       		.byte	0x1
 2944 08b8 C0080000 		.4byte	0x8c0
 2945 08bc CB080000 		.4byte	0x8cb
 2946 08c0 0C       		.uleb128 0xc
 2947 08c1 2D0D0000 		.4byte	0xd2d
 2948 08c5 0E       		.uleb128 0xe
 2949 08c6 30000000 		.4byte	0x30
 2950 08ca 00       		.byte	0
 2951 08cb 11       		.uleb128 0x11
 2952 08cc A1030000 		.4byte	.LASF86
 2953 08d0 01       		.byte	0x1
 2954 08d1 9D       		.byte	0x9d
 2955 08d2 FD0D0000 		.4byte	.LASF91
 2956 08d6 01       		.byte	0x1
 2957 08d7 DF080000 		.4byte	0x8df
 2958 08db EF080000 		.4byte	0x8ef
 2959 08df 0C       		.uleb128 0xc
 2960 08e0 3E0D0000 		.4byte	0xd3e
 2961 08e4 0E       		.uleb128 0xe
 2962 08e5 30000000 		.4byte	0x30
 2963 08e9 0E       		.uleb128 0xe
 2964 08ea A1000000 		.4byte	0xa1
 2965 08ee 00       		.byte	0
 2966 08ef 10       		.uleb128 0x10
 2967 08f0 B9070000 		.4byte	.LASF87
 2968 08f4 01       		.byte	0x1
 2969 08f5 9E       		.byte	0x9e
 2970 08f6 7C0A0000 		.4byte	.LASF88
 2971 08fa A1000000 		.4byte	0xa1
 2972 08fe 01       		.byte	0x1
 2973 08ff 07090000 		.4byte	0x907
 2974 0903 12090000 		.4byte	0x912
 2975 0907 0C       		.uleb128 0xc
 2976 0908 2D0D0000 		.4byte	0xd2d
 2977 090c 0E       		.uleb128 0xe
 2978 090d 30000000 		.4byte	0x30
 2979 0911 00       		.byte	0
 2980 0912 10       		.uleb128 0x10
 2981 0913 B9070000 		.4byte	.LASF87
 2982 0917 01       		.byte	0x1
 2983 0918 9F       		.byte	0x9f
 2984 0919 92000000 		.4byte	.LASF89
 2985 091d 600D0000 		.4byte	0xd60
 2986 0921 01       		.byte	0x1
 2987 0922 2A090000 		.4byte	0x92a
 2988 0926 35090000 		.4byte	0x935
 2989 092a 0C       		.uleb128 0xc
 2990 092b 3E0D0000 		.4byte	0xd3e
 2991 092f 0E       		.uleb128 0xe
 2992 0930 30000000 		.4byte	0x30
 2993 0934 00       		.byte	0
 2994 0935 11       		.uleb128 0x11
ARM GAS  C:\Users\Bruger\AppData\Local\Temp\cc797ORx.s 			page 62


 2995 0936 B0000000 		.4byte	.LASF90
 2996 093a 01       		.byte	0x1
 2997 093b A0       		.byte	0xa0
 2998 093c CA020000 		.4byte	.LASF92
 2999 0940 01       		.byte	0x1
 3000 0941 49090000 		.4byte	0x949
 3001 0945 5E090000 		.4byte	0x95e
 3002 0949 0C       		.uleb128 0xc
 3003 094a 2D0D0000 		.4byte	0xd2d
 3004 094e 0E       		.uleb128 0xe
 3005 094f 95000000 		.4byte	0x95
 3006 0953 0E       		.uleb128 0xe
 3007 0954 30000000 		.4byte	0x30
 3008 0958 0E       		.uleb128 0xe
 3009 0959 30000000 		.4byte	0x30
 3010 095d 00       		.byte	0
 3011 095e 11       		.uleb128 0x11
 3012 095f 01030000 		.4byte	.LASF93
 3013 0963 01       		.byte	0x1
 3014 0964 A1       		.byte	0xa1
 3015 0965 4B030000 		.4byte	.LASF94
 3016 0969 01       		.byte	0x1
 3017 096a 72090000 		.4byte	0x972
 3018 096e 87090000 		.4byte	0x987
 3019 0972 0C       		.uleb128 0xc
 3020 0973 2D0D0000 		.4byte	0xd2d
 3021 0977 0E       		.uleb128 0xe
 3022 0978 9B000000 		.4byte	0x9b
 3023 097c 0E       		.uleb128 0xe
 3024 097d 30000000 		.4byte	0x30
 3025 0981 0E       		.uleb128 0xe
 3026 0982 30000000 		.4byte	0x30
 3027 0986 00       		.byte	0
 3028 0987 10       		.uleb128 0x10
 3029 0988 710D0000 		.4byte	.LASF95
 3030 098c 01       		.byte	0x1
 3031 098d A3       		.byte	0xa3
 3032 098e 59060000 		.4byte	.LASF96
 3033 0992 A8000000 		.4byte	0xa8
 3034 0996 01       		.byte	0x1
 3035 0997 9F090000 		.4byte	0x99f
 3036 099b A5090000 		.4byte	0x9a5
 3037 099f 0C       		.uleb128 0xc
 3038 09a0 2D0D0000 		.4byte	0xd2d
 3039 09a4 00       		.byte	0
 3040 09a5 10       		.uleb128 0x10
 3041 09a6 C6040000 		.4byte	.LASF97
 3042 09aa 01       		.byte	0x1
 3043 09ab A6       		.byte	0xa6
 3044 09ac EF040000 		.4byte	.LASF98
 3045 09b0 37000000 		.4byte	0x37
 3046 09b4 01       		.byte	0x1
 3047 09b5 BD090000 		.4byte	0x9bd
 3048 09b9 C8090000 		.4byte	0x9c8
 3049 09bd 0C       		.uleb128 0xc
 3050 09be 2D0D0000 		.4byte	0xd2d
 3051 09c2 0E       		.uleb128 0xe
ARM GAS  C:\Users\Bruger\AppData\Local\Temp\cc797ORx.s 			page 63


 3052 09c3 A1000000 		.4byte	0xa1
 3053 09c7 00       		.byte	0
 3054 09c8 10       		.uleb128 0x10
 3055 09c9 C6040000 		.4byte	.LASF97
 3056 09cd 01       		.byte	0x1
 3057 09ce A7       		.byte	0xa7
 3058 09cf D7030000 		.4byte	.LASF99
 3059 09d3 37000000 		.4byte	0x37
 3060 09d7 01       		.byte	0x1
 3061 09d8 E0090000 		.4byte	0x9e0
 3062 09dc F0090000 		.4byte	0x9f0
 3063 09e0 0C       		.uleb128 0xc
 3064 09e1 2D0D0000 		.4byte	0xd2d
 3065 09e5 0E       		.uleb128 0xe
 3066 09e6 A1000000 		.4byte	0xa1
 3067 09ea 0E       		.uleb128 0xe
 3068 09eb 30000000 		.4byte	0x30
 3069 09ef 00       		.byte	0
 3070 09f0 10       		.uleb128 0x10
 3071 09f1 C6040000 		.4byte	.LASF97
 3072 09f5 01       		.byte	0x1
 3073 09f6 A8       		.byte	0xa8
 3074 09f7 89020000 		.4byte	.LASF100
 3075 09fb 37000000 		.4byte	0x37
 3076 09ff 01       		.byte	0x1
 3077 0a00 080A0000 		.4byte	0xa08
 3078 0a04 130A0000 		.4byte	0xa13
 3079 0a08 0C       		.uleb128 0xc
 3080 0a09 2D0D0000 		.4byte	0xd2d
 3081 0a0d 0E       		.uleb128 0xe
 3082 0a0e 440D0000 		.4byte	0xd44
 3083 0a12 00       		.byte	0
 3084 0a13 10       		.uleb128 0x10
 3085 0a14 C6040000 		.4byte	.LASF97
 3086 0a18 01       		.byte	0x1
 3087 0a19 A9       		.byte	0xa9
 3088 0a1a BD0D0000 		.4byte	.LASF101
 3089 0a1e 37000000 		.4byte	0x37
 3090 0a22 01       		.byte	0x1
 3091 0a23 2B0A0000 		.4byte	0xa2b
 3092 0a27 3B0A0000 		.4byte	0xa3b
 3093 0a2b 0C       		.uleb128 0xc
 3094 0a2c 2D0D0000 		.4byte	0xd2d
 3095 0a30 0E       		.uleb128 0xe
 3096 0a31 440D0000 		.4byte	0xd44
 3097 0a35 0E       		.uleb128 0xe
 3098 0a36 30000000 		.4byte	0x30
 3099 0a3a 00       		.byte	0
 3100 0a3b 10       		.uleb128 0x10
 3101 0a3c E3040000 		.4byte	.LASF102
 3102 0a40 01       		.byte	0x1
 3103 0a41 AA       		.byte	0xaa
 3104 0a42 960D0000 		.4byte	.LASF103
 3105 0a46 37000000 		.4byte	0x37
 3106 0a4a 01       		.byte	0x1
 3107 0a4b 530A0000 		.4byte	0xa53
 3108 0a4f 5E0A0000 		.4byte	0xa5e
ARM GAS  C:\Users\Bruger\AppData\Local\Temp\cc797ORx.s 			page 64


 3109 0a53 0C       		.uleb128 0xc
 3110 0a54 2D0D0000 		.4byte	0xd2d
 3111 0a58 0E       		.uleb128 0xe
 3112 0a59 A1000000 		.4byte	0xa1
 3113 0a5d 00       		.byte	0
 3114 0a5e 10       		.uleb128 0x10
 3115 0a5f E3040000 		.4byte	.LASF102
 3116 0a63 01       		.byte	0x1
 3117 0a64 AB       		.byte	0xab
 3118 0a65 C4010000 		.4byte	.LASF104
 3119 0a69 37000000 		.4byte	0x37
 3120 0a6d 01       		.byte	0x1
 3121 0a6e 760A0000 		.4byte	0xa76
 3122 0a72 860A0000 		.4byte	0xa86
 3123 0a76 0C       		.uleb128 0xc
 3124 0a77 2D0D0000 		.4byte	0xd2d
 3125 0a7b 0E       		.uleb128 0xe
 3126 0a7c A1000000 		.4byte	0xa1
 3127 0a80 0E       		.uleb128 0xe
 3128 0a81 30000000 		.4byte	0x30
 3129 0a85 00       		.byte	0
 3130 0a86 10       		.uleb128 0x10
 3131 0a87 E3040000 		.4byte	.LASF102
 3132 0a8b 01       		.byte	0x1
 3133 0a8c AC       		.byte	0xac
 3134 0a8d D6000000 		.4byte	.LASF105
 3135 0a91 37000000 		.4byte	0x37
 3136 0a95 01       		.byte	0x1
 3137 0a96 9E0A0000 		.4byte	0xa9e
 3138 0a9a A90A0000 		.4byte	0xaa9
 3139 0a9e 0C       		.uleb128 0xc
 3140 0a9f 2D0D0000 		.4byte	0xd2d
 3141 0aa3 0E       		.uleb128 0xe
 3142 0aa4 440D0000 		.4byte	0xd44
 3143 0aa8 00       		.byte	0
 3144 0aa9 10       		.uleb128 0x10
 3145 0aaa E3040000 		.4byte	.LASF102
 3146 0aae 01       		.byte	0x1
 3147 0aaf AD       		.byte	0xad
 3148 0ab0 88070000 		.4byte	.LASF106
 3149 0ab4 37000000 		.4byte	0x37
 3150 0ab8 01       		.byte	0x1
 3151 0ab9 C10A0000 		.4byte	0xac1
 3152 0abd D10A0000 		.4byte	0xad1
 3153 0ac1 0C       		.uleb128 0xc
 3154 0ac2 2D0D0000 		.4byte	0xd2d
 3155 0ac6 0E       		.uleb128 0xe
 3156 0ac7 440D0000 		.4byte	0xd44
 3157 0acb 0E       		.uleb128 0xe
 3158 0acc 30000000 		.4byte	0x30
 3159 0ad0 00       		.byte	0
 3160 0ad1 10       		.uleb128 0x10
 3161 0ad2 97030000 		.4byte	.LASF107
 3162 0ad6 01       		.byte	0x1
 3163 0ad7 AE       		.byte	0xae
 3164 0ad8 0D030000 		.4byte	.LASF108
 3165 0adc DE000000 		.4byte	0xde
ARM GAS  C:\Users\Bruger\AppData\Local\Temp\cc797ORx.s 			page 65


 3166 0ae0 01       		.byte	0x1
 3167 0ae1 E90A0000 		.4byte	0xae9
 3168 0ae5 F40A0000 		.4byte	0xaf4
 3169 0ae9 0C       		.uleb128 0xc
 3170 0aea 2D0D0000 		.4byte	0xd2d
 3171 0aee 0E       		.uleb128 0xe
 3172 0aef 30000000 		.4byte	0x30
 3173 0af3 00       		.byte	0
 3174 0af4 10       		.uleb128 0x10
 3175 0af5 97030000 		.4byte	.LASF107
 3176 0af9 01       		.byte	0x1
 3177 0afa AF       		.byte	0xaf
 3178 0afb 7D0D0000 		.4byte	.LASF109
 3179 0aff DE000000 		.4byte	0xde
 3180 0b03 01       		.byte	0x1
 3181 0b04 0C0B0000 		.4byte	0xb0c
 3182 0b08 1C0B0000 		.4byte	0xb1c
 3183 0b0c 0C       		.uleb128 0xc
 3184 0b0d 2D0D0000 		.4byte	0xd2d
 3185 0b11 0E       		.uleb128 0xe
 3186 0b12 30000000 		.4byte	0x30
 3187 0b16 0E       		.uleb128 0xe
 3188 0b17 30000000 		.4byte	0x30
 3189 0b1b 00       		.byte	0
 3190 0b1c 11       		.uleb128 0x11
 3191 0b1d 110C0000 		.4byte	.LASF110
 3192 0b21 01       		.byte	0x1
 3193 0b22 B2       		.byte	0xb2
 3194 0b23 9A050000 		.4byte	.LASF111
 3195 0b27 01       		.byte	0x1
 3196 0b28 300B0000 		.4byte	0xb30
 3197 0b2c 400B0000 		.4byte	0xb40
 3198 0b30 0C       		.uleb128 0xc
 3199 0b31 3E0D0000 		.4byte	0xd3e
 3200 0b35 0E       		.uleb128 0xe
 3201 0b36 A1000000 		.4byte	0xa1
 3202 0b3a 0E       		.uleb128 0xe
 3203 0b3b A1000000 		.4byte	0xa1
 3204 0b3f 00       		.byte	0
 3205 0b40 11       		.uleb128 0x11
 3206 0b41 110C0000 		.4byte	.LASF110
 3207 0b45 01       		.byte	0x1
 3208 0b46 B3       		.byte	0xb3
 3209 0b47 DB080000 		.4byte	.LASF112
 3210 0b4b 01       		.byte	0x1
 3211 0b4c 540B0000 		.4byte	0xb54
 3212 0b50 640B0000 		.4byte	0xb64
 3213 0b54 0C       		.uleb128 0xc
 3214 0b55 3E0D0000 		.4byte	0xd3e
 3215 0b59 0E       		.uleb128 0xe
 3216 0b5a 440D0000 		.4byte	0xd44
 3217 0b5e 0E       		.uleb128 0xe
 3218 0b5f 440D0000 		.4byte	0xd44
 3219 0b63 00       		.byte	0
 3220 0b64 11       		.uleb128 0x11
 3221 0b65 0B060000 		.4byte	.LASF113
 3222 0b69 01       		.byte	0x1
ARM GAS  C:\Users\Bruger\AppData\Local\Temp\cc797ORx.s 			page 66


 3223 0b6a B4       		.byte	0xb4
 3224 0b6b B30B0000 		.4byte	.LASF114
 3225 0b6f 01       		.byte	0x1
 3226 0b70 780B0000 		.4byte	0xb78
 3227 0b74 830B0000 		.4byte	0xb83
 3228 0b78 0C       		.uleb128 0xc
 3229 0b79 3E0D0000 		.4byte	0xd3e
 3230 0b7d 0E       		.uleb128 0xe
 3231 0b7e 30000000 		.4byte	0x30
 3232 0b82 00       		.byte	0
 3233 0b83 11       		.uleb128 0x11
 3234 0b84 0B060000 		.4byte	.LASF113
 3235 0b88 01       		.byte	0x1
 3236 0b89 B5       		.byte	0xb5
 3237 0b8a F6050000 		.4byte	.LASF115
 3238 0b8e 01       		.byte	0x1
 3239 0b8f 970B0000 		.4byte	0xb97
 3240 0b93 A70B0000 		.4byte	0xba7
 3241 0b97 0C       		.uleb128 0xc
 3242 0b98 3E0D0000 		.4byte	0xd3e
 3243 0b9c 0E       		.uleb128 0xe
 3244 0b9d 30000000 		.4byte	0x30
 3245 0ba1 0E       		.uleb128 0xe
 3246 0ba2 30000000 		.4byte	0x30
 3247 0ba6 00       		.byte	0
 3248 0ba7 11       		.uleb128 0x11
 3249 0ba8 B10D0000 		.4byte	.LASF116
 3250 0bac 01       		.byte	0x1
 3251 0bad B6       		.byte	0xb6
 3252 0bae A2020000 		.4byte	.LASF117
 3253 0bb2 01       		.byte	0x1
 3254 0bb3 BB0B0000 		.4byte	0xbbb
 3255 0bb7 C10B0000 		.4byte	0xbc1
 3256 0bbb 0C       		.uleb128 0xc
 3257 0bbc 3E0D0000 		.4byte	0xd3e
 3258 0bc0 00       		.byte	0
 3259 0bc1 11       		.uleb128 0x11
 3260 0bc2 46060000 		.4byte	.LASF118
 3261 0bc6 01       		.byte	0x1
 3262 0bc7 B7       		.byte	0xb7
 3263 0bc8 18010000 		.4byte	.LASF119
 3264 0bcc 01       		.byte	0x1
 3265 0bcd D50B0000 		.4byte	0xbd5
 3266 0bd1 DB0B0000 		.4byte	0xbdb
 3267 0bd5 0C       		.uleb128 0xc
 3268 0bd6 3E0D0000 		.4byte	0xd3e
 3269 0bda 00       		.byte	0
 3270 0bdb 11       		.uleb128 0x11
 3271 0bdc BA060000 		.4byte	.LASF120
 3272 0be0 01       		.byte	0x1
 3273 0be1 B8       		.byte	0xb8
 3274 0be2 D1090000 		.4byte	.LASF121
 3275 0be6 01       		.byte	0x1
 3276 0be7 EF0B0000 		.4byte	0xbef
 3277 0beb F50B0000 		.4byte	0xbf5
 3278 0bef 0C       		.uleb128 0xc
 3279 0bf0 3E0D0000 		.4byte	0xd3e
ARM GAS  C:\Users\Bruger\AppData\Local\Temp\cc797ORx.s 			page 67


 3280 0bf4 00       		.byte	0
 3281 0bf5 10       		.uleb128 0x10
 3282 0bf6 770D0000 		.4byte	.LASF122
 3283 0bfa 01       		.byte	0x1
 3284 0bfb BB       		.byte	0xbb
 3285 0bfc 75020000 		.4byte	.LASF123
 3286 0c00 70000000 		.4byte	0x70
 3287 0c04 01       		.byte	0x1
 3288 0c05 0D0C0000 		.4byte	0xc0d
 3289 0c09 130C0000 		.4byte	0xc13
 3290 0c0d 0C       		.uleb128 0xc
 3291 0c0e 2D0D0000 		.4byte	0xd2d
 3292 0c12 00       		.byte	0
 3293 0c13 10       		.uleb128 0x10
 3294 0c14 BC020000 		.4byte	.LASF124
 3295 0c18 01       		.byte	0x1
 3296 0c19 BC       		.byte	0xbc
 3297 0c1a BB090000 		.4byte	.LASF125
 3298 0c1e BA000000 		.4byte	0xba
 3299 0c22 01       		.byte	0x1
 3300 0c23 2B0C0000 		.4byte	0xc2b
 3301 0c27 310C0000 		.4byte	0xc31
 3302 0c2b 0C       		.uleb128 0xc
 3303 0c2c 2D0D0000 		.4byte	0xd2d
 3304 0c30 00       		.byte	0
 3305 0c31 11       		.uleb128 0x11
 3306 0c32 24090000 		.4byte	.LASF126
 3307 0c36 01       		.byte	0x1
 3308 0c37 C3       		.byte	0xc3
 3309 0c38 D70C0000 		.4byte	.LASF127
 3310 0c3c 02       		.byte	0x2
 3311 0c3d 450C0000 		.4byte	0xc45
 3312 0c41 4B0C0000 		.4byte	0xc4b
 3313 0c45 0C       		.uleb128 0xc
 3314 0c46 3E0D0000 		.4byte	0xd3e
 3315 0c4a 00       		.byte	0
 3316 0c4b 11       		.uleb128 0x11
 3317 0c4c F3010000 		.4byte	.LASF128
 3318 0c50 01       		.byte	0x1
 3319 0c51 C4       		.byte	0xc4
 3320 0c52 8C0A0000 		.4byte	.LASF129
 3321 0c56 02       		.byte	0x2
 3322 0c57 5F0C0000 		.4byte	0xc5f
 3323 0c5b 650C0000 		.4byte	0xc65
 3324 0c5f 0C       		.uleb128 0xc
 3325 0c60 3E0D0000 		.4byte	0xd3e
 3326 0c64 00       		.byte	0
 3327 0c65 10       		.uleb128 0x10
 3328 0c66 74010000 		.4byte	.LASF130
 3329 0c6a 01       		.byte	0x1
 3330 0c6b C5       		.byte	0xc5
 3331 0c6c FD000000 		.4byte	.LASF131
 3332 0c70 50000000 		.4byte	0x50
 3333 0c74 02       		.byte	0x2
 3334 0c75 7D0C0000 		.4byte	0xc7d
 3335 0c79 880C0000 		.4byte	0xc88
 3336 0c7d 0C       		.uleb128 0xc
ARM GAS  C:\Users\Bruger\AppData\Local\Temp\cc797ORx.s 			page 68


 3337 0c7e 3E0D0000 		.4byte	0xd3e
 3338 0c82 0E       		.uleb128 0xe
 3339 0c83 30000000 		.4byte	0x30
 3340 0c87 00       		.byte	0
 3341 0c88 10       		.uleb128 0x10
 3342 0c89 D0030000 		.4byte	.LASF32
 3343 0c8d 01       		.byte	0x1
 3344 0c8e C6       		.byte	0xc6
 3345 0c8f 190C0000 		.4byte	.LASF132
 3346 0c93 50000000 		.4byte	0x50
 3347 0c97 02       		.byte	0x2
 3348 0c98 A00C0000 		.4byte	0xca0
 3349 0c9c B00C0000 		.4byte	0xcb0
 3350 0ca0 0C       		.uleb128 0xc
 3351 0ca1 3E0D0000 		.4byte	0xd3e
 3352 0ca5 0E       		.uleb128 0xe
 3353 0ca6 A8000000 		.4byte	0xa8
 3354 0caa 0E       		.uleb128 0xe
 3355 0cab 30000000 		.4byte	0x30
 3356 0caf 00       		.byte	0
 3357 0cb0 10       		.uleb128 0x10
 3358 0cb1 B4070000 		.4byte	.LASF133
 3359 0cb5 01       		.byte	0x1
 3360 0cb6 C9       		.byte	0xc9
 3361 0cb7 140D0000 		.4byte	.LASF134
 3362 0cbb 5A0D0000 		.4byte	0xd5a
 3363 0cbf 02       		.byte	0x2
 3364 0cc0 C80C0000 		.4byte	0xcc8
 3365 0cc4 D80C0000 		.4byte	0xcd8
 3366 0cc8 0C       		.uleb128 0xc
 3367 0cc9 3E0D0000 		.4byte	0xd3e
 3368 0ccd 0E       		.uleb128 0xe
 3369 0cce A8000000 		.4byte	0xa8
 3370 0cd2 0E       		.uleb128 0xe
 3371 0cd3 30000000 		.4byte	0x30
 3372 0cd7 00       		.byte	0
 3373 0cd8 12       		.uleb128 0x12
 3374 0cd9 B4070000 		.4byte	.LASF133
 3375 0cdd 01       		.byte	0x1
 3376 0cde CA       		.byte	0xca
 3377 0cdf 880C0000 		.4byte	.LASF135
 3378 0ce3 5A0D0000 		.4byte	0xd5a
 3379 0ce7 02       		.byte	0x2
 3380 0ce8 EC0C0000 		.4byte	0xcec
 3381 0cec 0C       		.uleb128 0xc
 3382 0ced 3E0D0000 		.4byte	0xd3e
 3383 0cf1 0E       		.uleb128 0xe
 3384 0cf2 4A0D0000 		.4byte	0xd4a
 3385 0cf6 0E       		.uleb128 0xe
 3386 0cf7 30000000 		.4byte	0x30
 3387 0cfb 00       		.byte	0
 3388 0cfc 00       		.byte	0
 3389 0cfd 13       		.uleb128 0x13
 3390 0cfe 08       		.byte	0x8
 3391 0cff 08       		.byte	0x8
 3392 0d00 00       		.byte	0
 3393 0d01 1E0D0000 		.4byte	0xd1e
ARM GAS  C:\Users\Bruger\AppData\Local\Temp\cc797ORx.s 			page 69


 3394 0d05 14       		.uleb128 0x14
 3395 0d06 49010000 		.4byte	.LASF136
 3396 0d0a 01       		.byte	0x1
 3397 0d0b 32       		.byte	0x32
 3398 0d0c 380D0000 		.4byte	0xd38
 3399 0d10 00       		.byte	0
 3400 0d11 14       		.uleb128 0x14
 3401 0d12 B10C0000 		.4byte	.LASF137
 3402 0d16 01       		.byte	0x1
 3403 0d17 32       		.byte	0x32
 3404 0d18 37000000 		.4byte	0x37
 3405 0d1c 04       		.byte	0x4
 3406 0d1d 00       		.byte	0
 3407 0d1e 15       		.uleb128 0x15
 3408 0d1f 270D0000 		.4byte	0xd27
 3409 0d23 2D0D0000 		.4byte	0xd2d
 3410 0d27 0C       		.uleb128 0xc
 3411 0d28 2D0D0000 		.4byte	0xd2d
 3412 0d2c 00       		.byte	0
 3413 0d2d 06       		.uleb128 0x6
 3414 0d2e 04       		.byte	0x4
 3415 0d2f 330D0000 		.4byte	0xd33
 3416 0d33 07       		.uleb128 0x7
 3417 0d34 DE000000 		.4byte	0xde
 3418 0d38 06       		.uleb128 0x6
 3419 0d39 04       		.byte	0x4
 3420 0d3a 1E0D0000 		.4byte	0xd1e
 3421 0d3e 06       		.uleb128 0x6
 3422 0d3f 04       		.byte	0x4
 3423 0d40 DE000000 		.4byte	0xde
 3424 0d44 16       		.uleb128 0x16
 3425 0d45 04       		.byte	0x4
 3426 0d46 330D0000 		.4byte	0xd33
 3427 0d4a 06       		.uleb128 0x6
 3428 0d4b 04       		.byte	0x4
 3429 0d4c 500D0000 		.4byte	0xd50
 3430 0d50 07       		.uleb128 0x7
 3431 0d51 550D0000 		.4byte	0xd55
 3432 0d55 17       		.uleb128 0x17
 3433 0d56 E90D0000 		.4byte	.LASF184
 3434 0d5a 16       		.uleb128 0x16
 3435 0d5b 04       		.byte	0x4
 3436 0d5c DE000000 		.4byte	0xde
 3437 0d60 16       		.uleb128 0x16
 3438 0d61 04       		.byte	0x4
 3439 0d62 A1000000 		.4byte	0xa1
 3440 0d66 18       		.uleb128 0x18
 3441 0d67 630D0000 		.4byte	.LASF141
 3442 0d6b 08       		.byte	0x8
 3443 0d6c 02       		.byte	0x2
 3444 0d6d 22       		.byte	0x22
 3445 0d6e 660D0000 		.4byte	0xd66
 3446 0d72 87120000 		.4byte	0x1287
 3447 0d76 19       		.uleb128 0x19
 3448 0d77 A7040000 		.4byte	.LASF138
 3449 0d7b AA120000 		.4byte	0x12aa
 3450 0d7f 00       		.byte	0
ARM GAS  C:\Users\Bruger\AppData\Local\Temp\cc797ORx.s 			page 70


 3451 0d80 01       		.byte	0x1
 3452 0d81 14       		.uleb128 0x14
 3453 0d82 AF090000 		.4byte	.LASF139
 3454 0d86 02       		.byte	0x2
 3455 0d87 25       		.byte	0x25
 3456 0d88 37000000 		.4byte	0x37
 3457 0d8c 04       		.byte	0x4
 3458 0d8d 1A       		.uleb128 0x1a
 3459 0d8e 630D0000 		.4byte	.LASF141
 3460 0d92 87120000 		.4byte	0x1287
 3461 0d96 01       		.byte	0x1
 3462 0d97 9F0D0000 		.4byte	0xd9f
 3463 0d9b AA0D0000 		.4byte	0xdaa
 3464 0d9f 0C       		.uleb128 0xc
 3465 0da0 87120000 		.4byte	0x1287
 3466 0da4 0E       		.uleb128 0xe
 3467 0da5 BA120000 		.4byte	0x12ba
 3468 0da9 00       		.byte	0
 3469 0daa 1B       		.uleb128 0x1b
 3470 0dab 680B0000 		.4byte	.LASF142
 3471 0daf 03       		.byte	0x3
 3472 0db0 C3       		.byte	0xc3
 3473 0db1 17080000 		.4byte	.LASF143
 3474 0db5 25000000 		.4byte	0x25
 3475 0db9 C10D0000 		.4byte	0xdc1
 3476 0dbd D10D0000 		.4byte	0xdd1
 3477 0dc1 0C       		.uleb128 0xc
 3478 0dc2 87120000 		.4byte	0x1287
 3479 0dc6 0E       		.uleb128 0xe
 3480 0dc7 77000000 		.4byte	0x77
 3481 0dcb 0E       		.uleb128 0xe
 3482 0dcc C8000000 		.4byte	0xc8
 3483 0dd0 00       		.byte	0
 3484 0dd1 1B       		.uleb128 0x1b
 3485 0dd2 7D070000 		.4byte	.LASF144
 3486 0dd6 03       		.byte	0x3
 3487 0dd7 D6       		.byte	0xd6
 3488 0dd8 E1070000 		.4byte	.LASF145
 3489 0ddc 25000000 		.4byte	0x25
 3490 0de0 E80D0000 		.4byte	0xde8
 3491 0de4 F80D0000 		.4byte	0xdf8
 3492 0de8 0C       		.uleb128 0xc
 3493 0de9 87120000 		.4byte	0x1287
 3494 0ded 0E       		.uleb128 0xe
 3495 0dee B3000000 		.4byte	0xb3
 3496 0df2 0E       		.uleb128 0xe
 3497 0df3 C8000000 		.4byte	0xc8
 3498 0df7 00       		.byte	0
 3499 0df8 11       		.uleb128 0x11
 3500 0df9 66010000 		.4byte	.LASF146
 3501 0dfd 02       		.byte	0x2
 3502 0dfe 29       		.byte	0x29
 3503 0dff 66080000 		.4byte	.LASF147
 3504 0e03 02       		.byte	0x2
 3505 0e04 0C0E0000 		.4byte	0xe0c
 3506 0e08 170E0000 		.4byte	0xe17
 3507 0e0c 0C       		.uleb128 0xc
ARM GAS  C:\Users\Bruger\AppData\Local\Temp\cc797ORx.s 			page 71


 3508 0e0d 87120000 		.4byte	0x1287
 3509 0e11 0E       		.uleb128 0xe
 3510 0e12 37000000 		.4byte	0x37
 3511 0e16 00       		.byte	0
 3512 0e17 0D       		.uleb128 0xd
 3513 0e18 630D0000 		.4byte	.LASF141
 3514 0e1c 02       		.byte	0x2
 3515 0e1d 2B       		.byte	0x2b
 3516 0e1e 87120000 		.4byte	0x1287
 3517 0e22 01       		.byte	0x1
 3518 0e23 2B0E0000 		.4byte	0xe2b
 3519 0e27 310E0000 		.4byte	0xe31
 3520 0e2b 0C       		.uleb128 0xc
 3521 0e2c 87120000 		.4byte	0x1287
 3522 0e30 00       		.byte	0
 3523 0e31 0D       		.uleb128 0xd
 3524 0e32 A7070000 		.4byte	.LASF148
 3525 0e36 02       		.byte	0x2
 3526 0e37 2C       		.byte	0x2c
 3527 0e38 93000000 		.4byte	0x93
 3528 0e3c 01       		.byte	0x1
 3529 0e3d 450E0000 		.4byte	0xe45
 3530 0e41 500E0000 		.4byte	0xe50
 3531 0e45 0C       		.uleb128 0xc
 3532 0e46 87120000 		.4byte	0x1287
 3533 0e4a 0C       		.uleb128 0xc
 3534 0e4b 37000000 		.4byte	0x37
 3535 0e4f 00       		.byte	0
 3536 0e50 10       		.uleb128 0x10
 3537 0e51 E70B0000 		.4byte	.LASF149
 3538 0e55 02       		.byte	0x2
 3539 0e56 2E       		.byte	0x2e
 3540 0e57 CC0B0000 		.4byte	.LASF150
 3541 0e5b 37000000 		.4byte	0x37
 3542 0e5f 01       		.byte	0x1
 3543 0e60 680E0000 		.4byte	0xe68
 3544 0e64 6E0E0000 		.4byte	0xe6e
 3545 0e68 0C       		.uleb128 0xc
 3546 0e69 87120000 		.4byte	0x1287
 3547 0e6d 00       		.byte	0
 3548 0e6e 11       		.uleb128 0x11
 3549 0e6f C2050000 		.4byte	.LASF151
 3550 0e73 02       		.byte	0x2
 3551 0e74 2F       		.byte	0x2f
 3552 0e75 9D060000 		.4byte	.LASF152
 3553 0e79 01       		.byte	0x1
 3554 0e7a 820E0000 		.4byte	0xe82
 3555 0e7e 880E0000 		.4byte	0xe88
 3556 0e82 0C       		.uleb128 0xc
 3557 0e83 87120000 		.4byte	0x1287
 3558 0e87 00       		.byte	0
 3559 0e88 1C       		.uleb128 0x1c
 3560 0e89 AE070000 		.4byte	.LASF153
 3561 0e8d 02       		.byte	0x2
 3562 0e8e 31       		.byte	0x31
 3563 0e8f 560B0000 		.4byte	.LASF155
 3564 0e93 25000000 		.4byte	0x25
ARM GAS  C:\Users\Bruger\AppData\Local\Temp\cc797ORx.s 			page 72


 3565 0e97 01       		.byte	0x1
 3566 0e98 02       		.uleb128 0x2
 3567 0e99 10       		.byte	0x10
 3568 0e9a 00       		.uleb128 0
 3569 0e9b 660D0000 		.4byte	0xd66
 3570 0e9f 01       		.byte	0x1
 3571 0ea0 A80E0000 		.4byte	0xea8
 3572 0ea4 B30E0000 		.4byte	0xeb3
 3573 0ea8 0C       		.uleb128 0xc
 3574 0ea9 87120000 		.4byte	0x1287
 3575 0ead 0E       		.uleb128 0xe
 3576 0eae C8000000 		.4byte	0xc8
 3577 0eb2 00       		.byte	0
 3578 0eb3 10       		.uleb128 0x10
 3579 0eb4 AE070000 		.4byte	.LASF153
 3580 0eb8 02       		.byte	0x2
 3581 0eb9 32       		.byte	0x32
 3582 0eba CD070000 		.4byte	.LASF154
 3583 0ebe 25000000 		.4byte	0x25
 3584 0ec2 01       		.byte	0x1
 3585 0ec3 CB0E0000 		.4byte	0xecb
 3586 0ec7 D60E0000 		.4byte	0xed6
 3587 0ecb 0C       		.uleb128 0xc
 3588 0ecc 87120000 		.4byte	0x1287
 3589 0ed0 0E       		.uleb128 0xe
 3590 0ed1 A8000000 		.4byte	0xa8
 3591 0ed5 00       		.byte	0
 3592 0ed6 1C       		.uleb128 0x1c
 3593 0ed7 AE070000 		.4byte	.LASF153
 3594 0edb 03       		.byte	0x3
 3595 0edc 21       		.byte	0x21
 3596 0edd 5E000000 		.4byte	.LASF156
 3597 0ee1 25000000 		.4byte	0x25
 3598 0ee5 01       		.byte	0x1
 3599 0ee6 02       		.uleb128 0x2
 3600 0ee7 10       		.byte	0x10
 3601 0ee8 01       		.uleb128 0x1
 3602 0ee9 660D0000 		.4byte	0xd66
 3603 0eed 01       		.byte	0x1
 3604 0eee F60E0000 		.4byte	0xef6
 3605 0ef2 060F0000 		.4byte	0xf06
 3606 0ef6 0C       		.uleb128 0xc
 3607 0ef7 87120000 		.4byte	0x1287
 3608 0efb 0E       		.uleb128 0xe
 3609 0efc 94120000 		.4byte	0x1294
 3610 0f00 0E       		.uleb128 0xe
 3611 0f01 25000000 		.4byte	0x25
 3612 0f05 00       		.byte	0
 3613 0f06 10       		.uleb128 0x10
 3614 0f07 AE070000 		.4byte	.LASF153
 3615 0f0b 02       		.byte	0x2
 3616 0f0c 37       		.byte	0x37
 3617 0f0d 12060000 		.4byte	.LASF157
 3618 0f11 25000000 		.4byte	0x25
 3619 0f15 01       		.byte	0x1
 3620 0f16 1E0F0000 		.4byte	0xf1e
 3621 0f1a 2E0F0000 		.4byte	0xf2e
ARM GAS  C:\Users\Bruger\AppData\Local\Temp\cc797ORx.s 			page 73


 3622 0f1e 0C       		.uleb128 0xc
 3623 0f1f 87120000 		.4byte	0x1287
 3624 0f23 0E       		.uleb128 0xe
 3625 0f24 A8000000 		.4byte	0xa8
 3626 0f28 0E       		.uleb128 0xe
 3627 0f29 25000000 		.4byte	0x25
 3628 0f2d 00       		.byte	0
 3629 0f2e 10       		.uleb128 0x10
 3630 0f2f C4020000 		.4byte	.LASF158
 3631 0f33 03       		.byte	0x3
 3632 0f34 2A       		.byte	0x2a
 3633 0f35 4D020000 		.4byte	.LASF159
 3634 0f39 25000000 		.4byte	0x25
 3635 0f3d 01       		.byte	0x1
 3636 0f3e 460F0000 		.4byte	0xf46
 3637 0f42 510F0000 		.4byte	0xf51
 3638 0f46 0C       		.uleb128 0xc
 3639 0f47 87120000 		.4byte	0x1287
 3640 0f4b 0E       		.uleb128 0xe
 3641 0f4c 4A0D0000 		.4byte	0xd4a
 3642 0f50 00       		.byte	0
 3643 0f51 10       		.uleb128 0x10
 3644 0f52 C4020000 		.4byte	.LASF158
 3645 0f56 03       		.byte	0x3
 3646 0f57 2F       		.byte	0x2f
 3647 0f58 3A090000 		.4byte	.LASF160
 3648 0f5c 25000000 		.4byte	0x25
 3649 0f60 01       		.byte	0x1
 3650 0f61 690F0000 		.4byte	0xf69
 3651 0f65 740F0000 		.4byte	0xf74
 3652 0f69 0C       		.uleb128 0xc
 3653 0f6a 87120000 		.4byte	0x1287
 3654 0f6e 0E       		.uleb128 0xe
 3655 0f6f 440D0000 		.4byte	0xd44
 3656 0f73 00       		.byte	0
 3657 0f74 10       		.uleb128 0x10
 3658 0f75 C4020000 		.4byte	.LASF158
 3659 0f79 03       		.byte	0x3
 3660 0f7a 34       		.byte	0x34
 3661 0f7b 420B0000 		.4byte	.LASF161
 3662 0f7f 25000000 		.4byte	0x25
 3663 0f83 01       		.byte	0x1
 3664 0f84 8C0F0000 		.4byte	0xf8c
 3665 0f88 970F0000 		.4byte	0xf97
 3666 0f8c 0C       		.uleb128 0xc
 3667 0f8d 87120000 		.4byte	0x1287
 3668 0f91 0E       		.uleb128 0xe
 3669 0f92 A8000000 		.4byte	0xa8
 3670 0f96 00       		.byte	0
 3671 0f97 10       		.uleb128 0x10
 3672 0f98 C4020000 		.4byte	.LASF158
 3673 0f9c 03       		.byte	0x3
 3674 0f9d 39       		.byte	0x39
 3675 0f9e 88050000 		.4byte	.LASF162
 3676 0fa2 25000000 		.4byte	0x25
 3677 0fa6 01       		.byte	0x1
 3678 0fa7 AF0F0000 		.4byte	0xfaf
ARM GAS  C:\Users\Bruger\AppData\Local\Temp\cc797ORx.s 			page 74


 3679 0fab BA0F0000 		.4byte	0xfba
 3680 0faf 0C       		.uleb128 0xc
 3681 0fb0 87120000 		.4byte	0x1287
 3682 0fb4 0E       		.uleb128 0xe
 3683 0fb5 A1000000 		.4byte	0xa1
 3684 0fb9 00       		.byte	0
 3685 0fba 10       		.uleb128 0x10
 3686 0fbb C4020000 		.4byte	.LASF158
 3687 0fbf 03       		.byte	0x3
 3688 0fc0 3E       		.byte	0x3e
 3689 0fc1 E0010000 		.4byte	.LASF163
 3690 0fc5 25000000 		.4byte	0x25
 3691 0fc9 01       		.byte	0x1
 3692 0fca D20F0000 		.4byte	0xfd2
 3693 0fce E20F0000 		.4byte	0xfe2
 3694 0fd2 0C       		.uleb128 0xc
 3695 0fd3 87120000 		.4byte	0x1287
 3696 0fd7 0E       		.uleb128 0xe
 3697 0fd8 50000000 		.4byte	0x50
 3698 0fdc 0E       		.uleb128 0xe
 3699 0fdd 37000000 		.4byte	0x37
 3700 0fe1 00       		.byte	0
 3701 0fe2 10       		.uleb128 0x10
 3702 0fe3 C4020000 		.4byte	.LASF158
 3703 0fe7 03       		.byte	0x3
 3704 0fe8 43       		.byte	0x43
 3705 0fe9 3C0C0000 		.4byte	.LASF164
 3706 0fed 25000000 		.4byte	0x25
 3707 0ff1 01       		.byte	0x1
 3708 0ff2 FA0F0000 		.4byte	0xffa
 3709 0ff6 0A100000 		.4byte	0x100a
 3710 0ffa 0C       		.uleb128 0xc
 3711 0ffb 87120000 		.4byte	0x1287
 3712 0fff 0E       		.uleb128 0xe
 3713 1000 37000000 		.4byte	0x37
 3714 1004 0E       		.uleb128 0xe
 3715 1005 37000000 		.4byte	0x37
 3716 1009 00       		.byte	0
 3717 100a 10       		.uleb128 0x10
 3718 100b C4020000 		.4byte	.LASF158
 3719 100f 03       		.byte	0x3
 3720 1010 48       		.byte	0x48
 3721 1011 30000000 		.4byte	.LASF165
 3722 1015 25000000 		.4byte	0x25
 3723 1019 01       		.byte	0x1
 3724 101a 22100000 		.4byte	0x1022
 3725 101e 32100000 		.4byte	0x1032
 3726 1022 0C       		.uleb128 0xc
 3727 1023 87120000 		.4byte	0x1287
 3728 1027 0E       		.uleb128 0xe
 3729 1028 30000000 		.4byte	0x30
 3730 102c 0E       		.uleb128 0xe
 3731 102d 37000000 		.4byte	0x37
 3732 1031 00       		.byte	0
 3733 1032 10       		.uleb128 0x10
 3734 1033 C4020000 		.4byte	.LASF158
 3735 1037 03       		.byte	0x3
ARM GAS  C:\Users\Bruger\AppData\Local\Temp\cc797ORx.s 			page 75


 3736 1038 4D       		.byte	0x4d
 3737 1039 B3040000 		.4byte	.LASF166
 3738 103d 25000000 		.4byte	0x25
 3739 1041 01       		.byte	0x1
 3740 1042 4A100000 		.4byte	0x104a
 3741 1046 5A100000 		.4byte	0x105a
 3742 104a 0C       		.uleb128 0xc
 3743 104b 87120000 		.4byte	0x1287
 3744 104f 0E       		.uleb128 0xe
 3745 1050 70000000 		.4byte	0x70
 3746 1054 0E       		.uleb128 0xe
 3747 1055 37000000 		.4byte	0x37
 3748 1059 00       		.byte	0
 3749 105a 10       		.uleb128 0x10
 3750 105b C4020000 		.4byte	.LASF158
 3751 105f 03       		.byte	0x3
 3752 1060 5D       		.byte	0x5d
 3753 1061 50050000 		.4byte	.LASF167
 3754 1065 25000000 		.4byte	0x25
 3755 1069 01       		.byte	0x1
 3756 106a 72100000 		.4byte	0x1072
 3757 106e 82100000 		.4byte	0x1082
 3758 1072 0C       		.uleb128 0xc
 3759 1073 87120000 		.4byte	0x1287
 3760 1077 0E       		.uleb128 0xe
 3761 1078 77000000 		.4byte	0x77
 3762 107c 0E       		.uleb128 0xe
 3763 107d 37000000 		.4byte	0x37
 3764 1081 00       		.byte	0
 3765 1082 10       		.uleb128 0x10
 3766 1083 C4020000 		.4byte	.LASF158
 3767 1087 03       		.byte	0x3
 3768 1088 63       		.byte	0x63
 3769 1089 69030000 		.4byte	.LASF168
 3770 108d 25000000 		.4byte	0x25
 3771 1091 01       		.byte	0x1
 3772 1092 9A100000 		.4byte	0x109a
 3773 1096 AA100000 		.4byte	0x10aa
 3774 109a 0C       		.uleb128 0xc
 3775 109b 87120000 		.4byte	0x1287
 3776 109f 0E       		.uleb128 0xe
 3777 10a0 B3000000 		.4byte	0xb3
 3778 10a4 0E       		.uleb128 0xe
 3779 10a5 37000000 		.4byte	0x37
 3780 10a9 00       		.byte	0
 3781 10aa 10       		.uleb128 0x10
 3782 10ab C4020000 		.4byte	.LASF158
 3783 10af 03       		.byte	0x3
 3784 10b0 6F       		.byte	0x6f
 3785 10b1 6B050000 		.4byte	.LASF169
 3786 10b5 25000000 		.4byte	0x25
 3787 10b9 01       		.byte	0x1
 3788 10ba C2100000 		.4byte	0x10c2
 3789 10be CD100000 		.4byte	0x10cd
 3790 10c2 0C       		.uleb128 0xc
 3791 10c3 87120000 		.4byte	0x1287
 3792 10c7 0E       		.uleb128 0xe
ARM GAS  C:\Users\Bruger\AppData\Local\Temp\cc797ORx.s 			page 76


 3793 10c8 C5120000 		.4byte	0x12c5
 3794 10cc 00       		.byte	0
 3795 10cd 10       		.uleb128 0x10
 3796 10ce 3A0B0000 		.4byte	.LASF170
 3797 10d2 03       		.byte	0x3
 3798 10d3 68       		.byte	0x68
 3799 10d4 150E0000 		.4byte	.LASF171
 3800 10d8 25000000 		.4byte	0x25
 3801 10dc 01       		.byte	0x1
 3802 10dd E5100000 		.4byte	0x10e5
 3803 10e1 F0100000 		.4byte	0x10f0
 3804 10e5 0C       		.uleb128 0xc
 3805 10e6 87120000 		.4byte	0x1287
 3806 10ea 0E       		.uleb128 0xe
 3807 10eb 4A0D0000 		.4byte	0xd4a
 3808 10ef 00       		.byte	0
 3809 10f0 10       		.uleb128 0x10
 3810 10f1 3A0B0000 		.4byte	.LASF170
 3811 10f5 03       		.byte	0x3
 3812 10f6 7B       		.byte	0x7b
 3813 10f7 F50B0000 		.4byte	.LASF172
 3814 10fb 25000000 		.4byte	0x25
 3815 10ff 01       		.byte	0x1
 3816 1100 08110000 		.4byte	0x1108
 3817 1104 13110000 		.4byte	0x1113
 3818 1108 0C       		.uleb128 0xc
 3819 1109 87120000 		.4byte	0x1287
 3820 110d 0E       		.uleb128 0xe
 3821 110e 440D0000 		.4byte	0xd44
 3822 1112 00       		.byte	0
 3823 1113 10       		.uleb128 0x10
 3824 1114 3A0B0000 		.4byte	.LASF170
 3825 1118 03       		.byte	0x3
 3826 1119 82       		.byte	0x82
 3827 111a 290D0000 		.4byte	.LASF173
 3828 111e 25000000 		.4byte	0x25
 3829 1122 01       		.byte	0x1
 3830 1123 2B110000 		.4byte	0x112b
 3831 1127 36110000 		.4byte	0x1136
 3832 112b 0C       		.uleb128 0xc
 3833 112c 87120000 		.4byte	0x1287
 3834 1130 0E       		.uleb128 0xe
 3835 1131 A8000000 		.4byte	0xa8
 3836 1135 00       		.byte	0
 3837 1136 10       		.uleb128 0x10
 3838 1137 3A0B0000 		.4byte	.LASF170
 3839 113b 03       		.byte	0x3
 3840 113c 89       		.byte	0x89
 3841 113d B9000000 		.4byte	.LASF174
 3842 1141 25000000 		.4byte	0x25
 3843 1145 01       		.byte	0x1
 3844 1146 4E110000 		.4byte	0x114e
 3845 114a 59110000 		.4byte	0x1159
 3846 114e 0C       		.uleb128 0xc
 3847 114f 87120000 		.4byte	0x1287
 3848 1153 0E       		.uleb128 0xe
 3849 1154 A1000000 		.4byte	0xa1
ARM GAS  C:\Users\Bruger\AppData\Local\Temp\cc797ORx.s 			page 77


 3850 1158 00       		.byte	0
 3851 1159 10       		.uleb128 0x10
 3852 115a 3A0B0000 		.4byte	.LASF170
 3853 115e 03       		.byte	0x3
 3854 115f 90       		.byte	0x90
 3855 1160 E3090000 		.4byte	.LASF175
 3856 1164 25000000 		.4byte	0x25
 3857 1168 01       		.byte	0x1
 3858 1169 71110000 		.4byte	0x1171
 3859 116d 81110000 		.4byte	0x1181
 3860 1171 0C       		.uleb128 0xc
 3861 1172 87120000 		.4byte	0x1287
 3862 1176 0E       		.uleb128 0xe
 3863 1177 50000000 		.4byte	0x50
 3864 117b 0E       		.uleb128 0xe
 3865 117c 37000000 		.4byte	0x37
 3866 1180 00       		.byte	0
 3867 1181 10       		.uleb128 0x10
 3868 1182 3A0B0000 		.4byte	.LASF170
 3869 1186 03       		.byte	0x3
 3870 1187 97       		.byte	0x97
 3871 1188 3F0D0000 		.4byte	.LASF176
 3872 118c 25000000 		.4byte	0x25
 3873 1190 01       		.byte	0x1
 3874 1191 99110000 		.4byte	0x1199
 3875 1195 A9110000 		.4byte	0x11a9
 3876 1199 0C       		.uleb128 0xc
 3877 119a 87120000 		.4byte	0x1287
 3878 119e 0E       		.uleb128 0xe
 3879 119f 37000000 		.4byte	0x37
 3880 11a3 0E       		.uleb128 0xe
 3881 11a4 37000000 		.4byte	0x37
 3882 11a8 00       		.byte	0
 3883 11a9 10       		.uleb128 0x10
 3884 11aa 3A0B0000 		.4byte	.LASF170
 3885 11ae 03       		.byte	0x3
 3886 11af 9E       		.byte	0x9e
 3887 11b0 1B000000 		.4byte	.LASF177
 3888 11b4 25000000 		.4byte	0x25
 3889 11b8 01       		.byte	0x1
 3890 11b9 C1110000 		.4byte	0x11c1
 3891 11bd D1110000 		.4byte	0x11d1
 3892 11c1 0C       		.uleb128 0xc
 3893 11c2 87120000 		.4byte	0x1287
 3894 11c6 0E       		.uleb128 0xe
 3895 11c7 30000000 		.4byte	0x30
 3896 11cb 0E       		.uleb128 0xe
 3897 11cc 37000000 		.4byte	0x37
 3898 11d0 00       		.byte	0
 3899 11d1 10       		.uleb128 0x10
 3900 11d2 3A0B0000 		.4byte	.LASF170
 3901 11d6 03       		.byte	0x3
 3902 11d7 A5       		.byte	0xa5
 3903 11d8 AF0A0000 		.4byte	.LASF178
 3904 11dc 25000000 		.4byte	0x25
 3905 11e0 01       		.byte	0x1
 3906 11e1 E9110000 		.4byte	0x11e9
ARM GAS  C:\Users\Bruger\AppData\Local\Temp\cc797ORx.s 			page 78


 3907 11e5 F9110000 		.4byte	0x11f9
 3908 11e9 0C       		.uleb128 0xc
 3909 11ea 87120000 		.4byte	0x1287
 3910 11ee 0E       		.uleb128 0xe
 3911 11ef 70000000 		.4byte	0x70
 3912 11f3 0E       		.uleb128 0xe
 3913 11f4 37000000 		.4byte	0x37
 3914 11f8 00       		.byte	0
 3915 11f9 10       		.uleb128 0x10
 3916 11fa 3A0B0000 		.4byte	.LASF170
 3917 11fe 03       		.byte	0x3
 3918 11ff AC       		.byte	0xac
 3919 1200 6D060000 		.4byte	.LASF179
 3920 1204 25000000 		.4byte	0x25
 3921 1208 01       		.byte	0x1
 3922 1209 11120000 		.4byte	0x1211
 3923 120d 21120000 		.4byte	0x1221
 3924 1211 0C       		.uleb128 0xc
 3925 1212 87120000 		.4byte	0x1287
 3926 1216 0E       		.uleb128 0xe
 3927 1217 77000000 		.4byte	0x77
 3928 121b 0E       		.uleb128 0xe
 3929 121c 37000000 		.4byte	0x37
 3930 1220 00       		.byte	0
 3931 1221 10       		.uleb128 0x10
 3932 1222 3A0B0000 		.4byte	.LASF170
 3933 1226 03       		.byte	0x3
 3934 1227 B3       		.byte	0xb3
 3935 1228 36030000 		.4byte	.LASF180
 3936 122c 25000000 		.4byte	0x25
 3937 1230 01       		.byte	0x1
 3938 1231 39120000 		.4byte	0x1239
 3939 1235 49120000 		.4byte	0x1249
 3940 1239 0C       		.uleb128 0xc
 3941 123a 87120000 		.4byte	0x1287
 3942 123e 0E       		.uleb128 0xe
 3943 123f B3000000 		.4byte	0xb3
 3944 1243 0E       		.uleb128 0xe
 3945 1244 37000000 		.4byte	0x37
 3946 1248 00       		.byte	0
 3947 1249 10       		.uleb128 0x10
 3948 124a 3A0B0000 		.4byte	.LASF170
 3949 124e 03       		.byte	0x3
 3950 124f BA       		.byte	0xba
 3951 1250 560C0000 		.4byte	.LASF181
 3952 1254 25000000 		.4byte	0x25
 3953 1258 01       		.byte	0x1
 3954 1259 61120000 		.4byte	0x1261
 3955 125d 6C120000 		.4byte	0x126c
 3956 1261 0C       		.uleb128 0xc
 3957 1262 87120000 		.4byte	0x1287
 3958 1266 0E       		.uleb128 0xe
 3959 1267 C5120000 		.4byte	0x12c5
 3960 126b 00       		.byte	0
 3961 126c 12       		.uleb128 0x12
 3962 126d 3A0B0000 		.4byte	.LASF170
 3963 1271 03       		.byte	0x3
ARM GAS  C:\Users\Bruger\AppData\Local\Temp\cc797ORx.s 			page 79


 3964 1272 74       		.byte	0x74
 3965 1273 81010000 		.4byte	.LASF182
 3966 1277 25000000 		.4byte	0x25
 3967 127b 01       		.byte	0x1
 3968 127c 80120000 		.4byte	0x1280
 3969 1280 0C       		.uleb128 0xc
 3970 1281 87120000 		.4byte	0x1287
 3971 1285 00       		.byte	0
 3972 1286 00       		.byte	0
 3973 1287 06       		.uleb128 0x6
 3974 1288 04       		.byte	0x4
 3975 1289 660D0000 		.4byte	0xd66
 3976 128d 03       		.uleb128 0x3
 3977 128e 01       		.byte	0x1
 3978 128f 02       		.byte	0x2
 3979 1290 F8090000 		.4byte	.LASF183
 3980 1294 06       		.uleb128 0x6
 3981 1295 04       		.byte	0x4
 3982 1296 9A120000 		.4byte	0x129a
 3983 129a 07       		.uleb128 0x7
 3984 129b C8000000 		.4byte	0xc8
 3985 129f 1D       		.uleb128 0x1d
 3986 12a0 37000000 		.4byte	0x37
 3987 12a4 AA120000 		.4byte	0x12aa
 3988 12a8 1E       		.uleb128 0x1e
 3989 12a9 00       		.byte	0
 3990 12aa 06       		.uleb128 0x6
 3991 12ab 04       		.byte	0x4
 3992 12ac B0120000 		.4byte	0x12b0
 3993 12b0 1F       		.uleb128 0x1f
 3994 12b1 04       		.byte	0x4
 3995 12b2 16050000 		.4byte	.LASF202
 3996 12b6 9F120000 		.4byte	0x129f
 3997 12ba 16       		.uleb128 0x16
 3998 12bb 04       		.byte	0x4
 3999 12bc C0120000 		.4byte	0x12c0
 4000 12c0 07       		.uleb128 0x7
 4001 12c1 660D0000 		.4byte	0xd66
 4002 12c5 16       		.uleb128 0x16
 4003 12c6 04       		.byte	0x4
 4004 12c7 CB120000 		.4byte	0x12cb
 4005 12cb 07       		.uleb128 0x7
 4006 12cc D0120000 		.4byte	0x12d0
 4007 12d0 17       		.uleb128 0x17
 4008 12d1 D2050000 		.4byte	.LASF185
 4009 12d5 20       		.uleb128 0x20
 4010 12d6 EF020000 		.4byte	0x2ef
 4011 12da 00000000 		.4byte	.LFB64
 4012 12de 18000000 		.4byte	.LFE64-.LFB64
 4013 12e2 01       		.uleb128 0x1
 4014 12e3 9C       		.byte	0x9c
 4015 12e4 EC120000 		.4byte	0x12ec
 4016 12e8 F9120000 		.4byte	0x12f9
 4017 12ec 21       		.uleb128 0x21
 4018 12ed 7C030000 		.4byte	.LASF186
 4019 12f1 F9120000 		.4byte	0x12f9
 4020 12f5 02       		.uleb128 0x2
ARM GAS  C:\Users\Bruger\AppData\Local\Temp\cc797ORx.s 			page 80


 4021 12f6 91       		.byte	0x91
 4022 12f7 74       		.sleb128 -12
 4023 12f8 00       		.byte	0
 4024 12f9 07       		.uleb128 0x7
 4025 12fa 2D0D0000 		.4byte	0xd2d
 4026 12fe 20       		.uleb128 0x20
 4027 12ff 87090000 		.4byte	0x987
 4028 1303 00000000 		.4byte	.LFB82
 4029 1307 18000000 		.4byte	.LFE82-.LFB82
 4030 130b 01       		.uleb128 0x1
 4031 130c 9C       		.byte	0x9c
 4032 130d 15130000 		.4byte	0x1315
 4033 1311 22130000 		.4byte	0x1322
 4034 1315 21       		.uleb128 0x21
 4035 1316 7C030000 		.4byte	.LASF186
 4036 131a F9120000 		.4byte	0x12f9
 4037 131e 02       		.uleb128 0x2
 4038 131f 91       		.byte	0x91
 4039 1320 74       		.sleb128 -12
 4040 1321 00       		.byte	0
 4041 1322 22       		.uleb128 0x22
 4042 1323 B30E0000 		.4byte	0xeb3
 4043 1327 00000000 		.4byte	.LFB123
 4044 132b 36000000 		.4byte	.LFE123-.LFB123
 4045 132f 01       		.uleb128 0x1
 4046 1330 9C       		.byte	0x9c
 4047 1331 39130000 		.4byte	0x1339
 4048 1335 54130000 		.4byte	0x1354
 4049 1339 21       		.uleb128 0x21
 4050 133a 7C030000 		.4byte	.LASF186
 4051 133e 54130000 		.4byte	0x1354
 4052 1342 02       		.uleb128 0x2
 4053 1343 91       		.byte	0x91
 4054 1344 6C       		.sleb128 -20
 4055 1345 23       		.uleb128 0x23
 4056 1346 73747200 		.ascii	"str\000"
 4057 134a 02       		.byte	0x2
 4058 134b 32       		.byte	0x32
 4059 134c A8000000 		.4byte	0xa8
 4060 1350 02       		.uleb128 0x2
 4061 1351 91       		.byte	0x91
 4062 1352 68       		.sleb128 -24
 4063 1353 00       		.byte	0
 4064 1354 07       		.uleb128 0x7
 4065 1355 87120000 		.4byte	0x1287
 4066 1359 22       		.uleb128 0x22
 4067 135a 060F0000 		.4byte	0xf06
 4068 135e 00000000 		.4byte	.LFB124
 4069 1362 26000000 		.4byte	.LFE124-.LFB124
 4070 1366 01       		.uleb128 0x1
 4071 1367 9C       		.byte	0x9c
 4072 1368 70130000 		.4byte	0x1370
 4073 136c 99130000 		.4byte	0x1399
 4074 1370 21       		.uleb128 0x21
 4075 1371 7C030000 		.4byte	.LASF186
 4076 1375 54130000 		.4byte	0x1354
 4077 1379 02       		.uleb128 0x2
ARM GAS  C:\Users\Bruger\AppData\Local\Temp\cc797ORx.s 			page 81


 4078 137a 91       		.byte	0x91
 4079 137b 74       		.sleb128 -12
 4080 137c 24       		.uleb128 0x24
 4081 137d 300C0000 		.4byte	.LASF19
 4082 1381 02       		.byte	0x2
 4083 1382 37       		.byte	0x37
 4084 1383 A8000000 		.4byte	0xa8
 4085 1387 02       		.uleb128 0x2
 4086 1388 91       		.byte	0x91
 4087 1389 70       		.sleb128 -16
 4088 138a 24       		.uleb128 0x24
 4089 138b 27060000 		.4byte	.LASF187
 4090 138f 02       		.byte	0x2
 4091 1390 37       		.byte	0x37
 4092 1391 25000000 		.4byte	0x25
 4093 1395 02       		.uleb128 0x2
 4094 1396 91       		.byte	0x91
 4095 1397 6C       		.sleb128 -20
 4096 1398 00       		.byte	0
 4097 1399 22       		.uleb128 0x22
 4098 139a D60E0000 		.4byte	0xed6
 4099 139e 00000000 		.4byte	.LFB147
 4100 13a2 4C000000 		.4byte	.LFE147-.LFB147
 4101 13a6 01       		.uleb128 0x1
 4102 13a7 9C       		.byte	0x9c
 4103 13a8 B0130000 		.4byte	0x13b0
 4104 13ac EF130000 		.4byte	0x13ef
 4105 13b0 21       		.uleb128 0x21
 4106 13b1 7C030000 		.4byte	.LASF186
 4107 13b5 54130000 		.4byte	0x1354
 4108 13b9 02       		.uleb128 0x2
 4109 13ba 91       		.byte	0x91
 4110 13bb 6C       		.sleb128 -20
 4111 13bc 24       		.uleb128 0x24
 4112 13bd 300C0000 		.4byte	.LASF19
 4113 13c1 03       		.byte	0x3
 4114 13c2 21       		.byte	0x21
 4115 13c3 94120000 		.4byte	0x1294
 4116 13c7 02       		.uleb128 0x2
 4117 13c8 91       		.byte	0x91
 4118 13c9 68       		.sleb128 -24
 4119 13ca 24       		.uleb128 0x24
 4120 13cb 27060000 		.4byte	.LASF187
 4121 13cf 03       		.byte	0x3
 4122 13d0 21       		.byte	0x21
 4123 13d1 25000000 		.4byte	0x25
 4124 13d5 02       		.uleb128 0x2
 4125 13d6 91       		.byte	0x91
 4126 13d7 64       		.sleb128 -28
 4127 13d8 25       		.uleb128 0x25
 4128 13d9 0C000000 		.4byte	.LBB2
 4129 13dd 38000000 		.4byte	.LBE2-.LBB2
 4130 13e1 26       		.uleb128 0x26
 4131 13e2 6E00     		.ascii	"n\000"
 4132 13e4 03       		.byte	0x3
 4133 13e5 23       		.byte	0x23
 4134 13e6 25000000 		.4byte	0x25
ARM GAS  C:\Users\Bruger\AppData\Local\Temp\cc797ORx.s 			page 82


 4135 13ea 02       		.uleb128 0x2
 4136 13eb 91       		.byte	0x91
 4137 13ec 74       		.sleb128 -12
 4138 13ed 00       		.byte	0
 4139 13ee 00       		.byte	0
 4140 13ef 22       		.uleb128 0x22
 4141 13f0 2E0F0000 		.4byte	0xf2e
 4142 13f4 00000000 		.4byte	.LFB148
 4143 13f8 1C000000 		.4byte	.LFE148-.LFB148
 4144 13fc 01       		.uleb128 0x1
 4145 13fd 9C       		.byte	0x9c
 4146 13fe 06140000 		.4byte	0x1406
 4147 1402 21140000 		.4byte	0x1421
 4148 1406 21       		.uleb128 0x21
 4149 1407 7C030000 		.4byte	.LASF186
 4150 140b 54130000 		.4byte	0x1354
 4151 140f 02       		.uleb128 0x2
 4152 1410 91       		.byte	0x91
 4153 1411 74       		.sleb128 -12
 4154 1412 24       		.uleb128 0x24
 4155 1413 370C0000 		.4byte	.LASF188
 4156 1417 03       		.byte	0x3
 4157 1418 2A       		.byte	0x2a
 4158 1419 4A0D0000 		.4byte	0xd4a
 4159 141d 02       		.uleb128 0x2
 4160 141e 91       		.byte	0x91
 4161 141f 70       		.sleb128 -16
 4162 1420 00       		.byte	0
 4163 1421 22       		.uleb128 0x22
 4164 1422 510F0000 		.4byte	0xf51
 4165 1426 00000000 		.4byte	.LFB149
 4166 142a 2E000000 		.4byte	.LFE149-.LFB149
 4167 142e 01       		.uleb128 0x1
 4168 142f 9C       		.byte	0x9c
 4169 1430 38140000 		.4byte	0x1438
 4170 1434 51140000 		.4byte	0x1451
 4171 1438 21       		.uleb128 0x21
 4172 1439 7C030000 		.4byte	.LASF186
 4173 143d 54130000 		.4byte	0x1354
 4174 1441 02       		.uleb128 0x2
 4175 1442 91       		.byte	0x91
 4176 1443 6C       		.sleb128 -20
 4177 1444 23       		.uleb128 0x23
 4178 1445 7300     		.ascii	"s\000"
 4179 1447 03       		.byte	0x3
 4180 1448 2F       		.byte	0x2f
 4181 1449 51140000 		.4byte	0x1451
 4182 144d 02       		.uleb128 0x2
 4183 144e 91       		.byte	0x91
 4184 144f 68       		.sleb128 -24
 4185 1450 00       		.byte	0
 4186 1451 07       		.uleb128 0x7
 4187 1452 440D0000 		.4byte	0xd44
 4188 1456 22       		.uleb128 0x22
 4189 1457 740F0000 		.4byte	0xf74
 4190 145b 00000000 		.4byte	.LFB150
 4191 145f 1C000000 		.4byte	.LFE150-.LFB150
ARM GAS  C:\Users\Bruger\AppData\Local\Temp\cc797ORx.s 			page 83


 4192 1463 01       		.uleb128 0x1
 4193 1464 9C       		.byte	0x9c
 4194 1465 6D140000 		.4byte	0x146d
 4195 1469 88140000 		.4byte	0x1488
 4196 146d 21       		.uleb128 0x21
 4197 146e 7C030000 		.4byte	.LASF186
 4198 1472 54130000 		.4byte	0x1354
 4199 1476 02       		.uleb128 0x2
 4200 1477 91       		.byte	0x91
 4201 1478 74       		.sleb128 -12
 4202 1479 23       		.uleb128 0x23
 4203 147a 73747200 		.ascii	"str\000"
 4204 147e 03       		.byte	0x3
 4205 147f 34       		.byte	0x34
 4206 1480 A8000000 		.4byte	0xa8
 4207 1484 02       		.uleb128 0x2
 4208 1485 91       		.byte	0x91
 4209 1486 70       		.sleb128 -16
 4210 1487 00       		.byte	0
 4211 1488 22       		.uleb128 0x22
 4212 1489 970F0000 		.4byte	0xf97
 4213 148d 00000000 		.4byte	.LFB151
 4214 1491 24000000 		.4byte	.LFE151-.LFB151
 4215 1495 01       		.uleb128 0x1
 4216 1496 9C       		.byte	0x9c
 4217 1497 9F140000 		.4byte	0x149f
 4218 149b B8140000 		.4byte	0x14b8
 4219 149f 21       		.uleb128 0x21
 4220 14a0 7C030000 		.4byte	.LASF186
 4221 14a4 54130000 		.4byte	0x1354
 4222 14a8 02       		.uleb128 0x2
 4223 14a9 91       		.byte	0x91
 4224 14aa 74       		.sleb128 -12
 4225 14ab 23       		.uleb128 0x23
 4226 14ac 6300     		.ascii	"c\000"
 4227 14ae 03       		.byte	0x3
 4228 14af 39       		.byte	0x39
 4229 14b0 A1000000 		.4byte	0xa1
 4230 14b4 02       		.uleb128 0x2
 4231 14b5 91       		.byte	0x91
 4232 14b6 73       		.sleb128 -13
 4233 14b7 00       		.byte	0
 4234 14b8 22       		.uleb128 0x22
 4235 14b9 BA0F0000 		.4byte	0xfba
 4236 14bd 00000000 		.4byte	.LFB152
 4237 14c1 24000000 		.4byte	.LFE152-.LFB152
 4238 14c5 01       		.uleb128 0x1
 4239 14c6 9C       		.byte	0x9c
 4240 14c7 CF140000 		.4byte	0x14cf
 4241 14cb F6140000 		.4byte	0x14f6
 4242 14cf 21       		.uleb128 0x21
 4243 14d0 7C030000 		.4byte	.LASF186
 4244 14d4 54130000 		.4byte	0x1354
 4245 14d8 02       		.uleb128 0x2
 4246 14d9 91       		.byte	0x91
 4247 14da 74       		.sleb128 -12
 4248 14db 23       		.uleb128 0x23
ARM GAS  C:\Users\Bruger\AppData\Local\Temp\cc797ORx.s 			page 84


 4249 14dc 6200     		.ascii	"b\000"
 4250 14de 03       		.byte	0x3
 4251 14df 3E       		.byte	0x3e
 4252 14e0 50000000 		.4byte	0x50
 4253 14e4 02       		.uleb128 0x2
 4254 14e5 91       		.byte	0x91
 4255 14e6 73       		.sleb128 -13
 4256 14e7 24       		.uleb128 0x24
 4257 14e8 060A0000 		.4byte	.LASF189
 4258 14ec 03       		.byte	0x3
 4259 14ed 3E       		.byte	0x3e
 4260 14ee 37000000 		.4byte	0x37
 4261 14f2 02       		.uleb128 0x2
 4262 14f3 91       		.byte	0x91
 4263 14f4 6C       		.sleb128 -20
 4264 14f5 00       		.byte	0
 4265 14f6 22       		.uleb128 0x22
 4266 14f7 E20F0000 		.4byte	0xfe2
 4267 14fb 00000000 		.4byte	.LFB153
 4268 14ff 20000000 		.4byte	.LFE153-.LFB153
 4269 1503 01       		.uleb128 0x1
 4270 1504 9C       		.byte	0x9c
 4271 1505 0D150000 		.4byte	0x150d
 4272 1509 34150000 		.4byte	0x1534
 4273 150d 21       		.uleb128 0x21
 4274 150e 7C030000 		.4byte	.LASF186
 4275 1512 54130000 		.4byte	0x1354
 4276 1516 02       		.uleb128 0x2
 4277 1517 91       		.byte	0x91
 4278 1518 74       		.sleb128 -12
 4279 1519 23       		.uleb128 0x23
 4280 151a 6E00     		.ascii	"n\000"
 4281 151c 03       		.byte	0x3
 4282 151d 43       		.byte	0x43
 4283 151e 37000000 		.4byte	0x37
 4284 1522 02       		.uleb128 0x2
 4285 1523 91       		.byte	0x91
 4286 1524 70       		.sleb128 -16
 4287 1525 24       		.uleb128 0x24
 4288 1526 060A0000 		.4byte	.LASF189
 4289 152a 03       		.byte	0x3
 4290 152b 43       		.byte	0x43
 4291 152c 37000000 		.4byte	0x37
 4292 1530 02       		.uleb128 0x2
 4293 1531 91       		.byte	0x91
 4294 1532 6C       		.sleb128 -20
 4295 1533 00       		.byte	0
 4296 1534 22       		.uleb128 0x22
 4297 1535 0A100000 		.4byte	0x100a
 4298 1539 00000000 		.4byte	.LFB154
 4299 153d 20000000 		.4byte	.LFE154-.LFB154
 4300 1541 01       		.uleb128 0x1
 4301 1542 9C       		.byte	0x9c
 4302 1543 4B150000 		.4byte	0x154b
 4303 1547 72150000 		.4byte	0x1572
 4304 154b 21       		.uleb128 0x21
 4305 154c 7C030000 		.4byte	.LASF186
ARM GAS  C:\Users\Bruger\AppData\Local\Temp\cc797ORx.s 			page 85


 4306 1550 54130000 		.4byte	0x1354
 4307 1554 02       		.uleb128 0x2
 4308 1555 91       		.byte	0x91
 4309 1556 74       		.sleb128 -12
 4310 1557 23       		.uleb128 0x23
 4311 1558 6E00     		.ascii	"n\000"
 4312 155a 03       		.byte	0x3
 4313 155b 48       		.byte	0x48
 4314 155c 30000000 		.4byte	0x30
 4315 1560 02       		.uleb128 0x2
 4316 1561 91       		.byte	0x91
 4317 1562 70       		.sleb128 -16
 4318 1563 24       		.uleb128 0x24
 4319 1564 060A0000 		.4byte	.LASF189
 4320 1568 03       		.byte	0x3
 4321 1569 48       		.byte	0x48
 4322 156a 37000000 		.4byte	0x37
 4323 156e 02       		.uleb128 0x2
 4324 156f 91       		.byte	0x91
 4325 1570 6C       		.sleb128 -20
 4326 1571 00       		.byte	0
 4327 1572 22       		.uleb128 0x22
 4328 1573 32100000 		.4byte	0x1032
 4329 1577 00000000 		.4byte	.LFB155
 4330 157b 82000000 		.4byte	.LFE155-.LFB155
 4331 157f 01       		.uleb128 0x1
 4332 1580 9C       		.byte	0x9c
 4333 1581 89150000 		.4byte	0x1589
 4334 1585 C6150000 		.4byte	0x15c6
 4335 1589 21       		.uleb128 0x21
 4336 158a 7C030000 		.4byte	.LASF186
 4337 158e 54130000 		.4byte	0x1354
 4338 1592 02       		.uleb128 0x2
 4339 1593 91       		.byte	0x91
 4340 1594 6C       		.sleb128 -20
 4341 1595 23       		.uleb128 0x23
 4342 1596 6E00     		.ascii	"n\000"
 4343 1598 03       		.byte	0x3
 4344 1599 4D       		.byte	0x4d
 4345 159a 70000000 		.4byte	0x70
 4346 159e 02       		.uleb128 0x2
 4347 159f 91       		.byte	0x91
 4348 15a0 68       		.sleb128 -24
 4349 15a1 24       		.uleb128 0x24
 4350 15a2 060A0000 		.4byte	.LASF189
 4351 15a6 03       		.byte	0x3
 4352 15a7 4D       		.byte	0x4d
 4353 15a8 37000000 		.4byte	0x37
 4354 15ac 02       		.uleb128 0x2
 4355 15ad 91       		.byte	0x91
 4356 15ae 64       		.sleb128 -28
 4357 15af 25       		.uleb128 0x25
 4358 15b0 32000000 		.4byte	.LBB9
 4359 15b4 26000000 		.4byte	.LBE9-.LBB9
 4360 15b8 26       		.uleb128 0x26
 4361 15b9 7400     		.ascii	"t\000"
 4362 15bb 03       		.byte	0x3
ARM GAS  C:\Users\Bruger\AppData\Local\Temp\cc797ORx.s 			page 86


 4363 15bc 53       		.byte	0x53
 4364 15bd 37000000 		.4byte	0x37
 4365 15c1 02       		.uleb128 0x2
 4366 15c2 91       		.byte	0x91
 4367 15c3 74       		.sleb128 -12
 4368 15c4 00       		.byte	0
 4369 15c5 00       		.byte	0
 4370 15c6 22       		.uleb128 0x22
 4371 15c7 5A100000 		.4byte	0x105a
 4372 15cb 00000000 		.4byte	.LFB156
 4373 15cf 3E000000 		.4byte	.LFE156-.LFB156
 4374 15d3 01       		.uleb128 0x1
 4375 15d4 9C       		.byte	0x9c
 4376 15d5 DD150000 		.4byte	0x15dd
 4377 15d9 04160000 		.4byte	0x1604
 4378 15dd 21       		.uleb128 0x21
 4379 15de 7C030000 		.4byte	.LASF186
 4380 15e2 54130000 		.4byte	0x1354
 4381 15e6 02       		.uleb128 0x2
 4382 15e7 91       		.byte	0x91
 4383 15e8 74       		.sleb128 -12
 4384 15e9 23       		.uleb128 0x23
 4385 15ea 6E00     		.ascii	"n\000"
 4386 15ec 03       		.byte	0x3
 4387 15ed 5D       		.byte	0x5d
 4388 15ee 77000000 		.4byte	0x77
 4389 15f2 02       		.uleb128 0x2
 4390 15f3 91       		.byte	0x91
 4391 15f4 70       		.sleb128 -16
 4392 15f5 24       		.uleb128 0x24
 4393 15f6 060A0000 		.4byte	.LASF189
 4394 15fa 03       		.byte	0x3
 4395 15fb 5D       		.byte	0x5d
 4396 15fc 37000000 		.4byte	0x37
 4397 1600 02       		.uleb128 0x2
 4398 1601 91       		.byte	0x91
 4399 1602 6C       		.sleb128 -20
 4400 1603 00       		.byte	0
 4401 1604 22       		.uleb128 0x22
 4402 1605 82100000 		.4byte	0x1082
 4403 1609 00000000 		.4byte	.LFB157
 4404 160d 26000000 		.4byte	.LFE157-.LFB157
 4405 1611 01       		.uleb128 0x1
 4406 1612 9C       		.byte	0x9c
 4407 1613 1B160000 		.4byte	0x161b
 4408 1617 42160000 		.4byte	0x1642
 4409 161b 21       		.uleb128 0x21
 4410 161c 7C030000 		.4byte	.LASF186
 4411 1620 54130000 		.4byte	0x1354
 4412 1624 02       		.uleb128 0x2
 4413 1625 91       		.byte	0x91
 4414 1626 74       		.sleb128 -12
 4415 1627 23       		.uleb128 0x23
 4416 1628 6E00     		.ascii	"n\000"
 4417 162a 03       		.byte	0x3
 4418 162b 63       		.byte	0x63
 4419 162c B3000000 		.4byte	0xb3
ARM GAS  C:\Users\Bruger\AppData\Local\Temp\cc797ORx.s 			page 87


 4420 1630 02       		.uleb128 0x2
 4421 1631 91       		.byte	0x91
 4422 1632 68       		.sleb128 -24
 4423 1633 24       		.uleb128 0x24
 4424 1634 4F0C0000 		.4byte	.LASF190
 4425 1638 03       		.byte	0x3
 4426 1639 63       		.byte	0x63
 4427 163a 37000000 		.4byte	0x37
 4428 163e 02       		.uleb128 0x2
 4429 163f 91       		.byte	0x91
 4430 1640 00       		.sleb128 0
 4431 1641 00       		.byte	0
 4432 1642 22       		.uleb128 0x22
 4433 1643 CD100000 		.4byte	0x10cd
 4434 1647 00000000 		.4byte	.LFB158
 4435 164b 2E000000 		.4byte	.LFE158-.LFB158
 4436 164f 01       		.uleb128 0x1
 4437 1650 9C       		.byte	0x9c
 4438 1651 59160000 		.4byte	0x1659
 4439 1655 8A160000 		.4byte	0x168a
 4440 1659 21       		.uleb128 0x21
 4441 165a 7C030000 		.4byte	.LASF186
 4442 165e 54130000 		.4byte	0x1354
 4443 1662 02       		.uleb128 0x2
 4444 1663 91       		.byte	0x91
 4445 1664 6C       		.sleb128 -20
 4446 1665 24       		.uleb128 0x24
 4447 1666 370C0000 		.4byte	.LASF188
 4448 166a 03       		.byte	0x3
 4449 166b 68       		.byte	0x68
 4450 166c 4A0D0000 		.4byte	0xd4a
 4451 1670 02       		.uleb128 0x2
 4452 1671 91       		.byte	0x91
 4453 1672 68       		.sleb128 -24
 4454 1673 25       		.uleb128 0x25
 4455 1674 0A000000 		.4byte	.LBB10
 4456 1678 1C000000 		.4byte	.LBE10-.LBB10
 4457 167c 26       		.uleb128 0x26
 4458 167d 6E00     		.ascii	"n\000"
 4459 167f 03       		.byte	0x3
 4460 1680 6A       		.byte	0x6a
 4461 1681 25000000 		.4byte	0x25
 4462 1685 02       		.uleb128 0x2
 4463 1686 91       		.byte	0x91
 4464 1687 74       		.sleb128 -12
 4465 1688 00       		.byte	0
 4466 1689 00       		.byte	0
 4467 168a 22       		.uleb128 0x22
 4468 168b AA100000 		.4byte	0x10aa
 4469 168f 00000000 		.4byte	.LFB159
 4470 1693 20000000 		.4byte	.LFE159-.LFB159
 4471 1697 01       		.uleb128 0x1
 4472 1698 9C       		.byte	0x9c
 4473 1699 A1160000 		.4byte	0x16a1
 4474 169d BA160000 		.4byte	0x16ba
 4475 16a1 21       		.uleb128 0x21
 4476 16a2 7C030000 		.4byte	.LASF186
ARM GAS  C:\Users\Bruger\AppData\Local\Temp\cc797ORx.s 			page 88


 4477 16a6 54130000 		.4byte	0x1354
 4478 16aa 02       		.uleb128 0x2
 4479 16ab 91       		.byte	0x91
 4480 16ac 74       		.sleb128 -12
 4481 16ad 23       		.uleb128 0x23
 4482 16ae 7800     		.ascii	"x\000"
 4483 16b0 03       		.byte	0x3
 4484 16b1 6F       		.byte	0x6f
 4485 16b2 BA160000 		.4byte	0x16ba
 4486 16b6 02       		.uleb128 0x2
 4487 16b7 91       		.byte	0x91
 4488 16b8 70       		.sleb128 -16
 4489 16b9 00       		.byte	0
 4490 16ba 07       		.uleb128 0x7
 4491 16bb C5120000 		.4byte	0x12c5
 4492 16bf 22       		.uleb128 0x22
 4493 16c0 6C120000 		.4byte	0x126c
 4494 16c4 00000000 		.4byte	.LFB160
 4495 16c8 2E000000 		.4byte	.LFE160-.LFB160
 4496 16cc 01       		.uleb128 0x1
 4497 16cd 9C       		.byte	0x9c
 4498 16ce D6160000 		.4byte	0x16d6
 4499 16d2 F9160000 		.4byte	0x16f9
 4500 16d6 21       		.uleb128 0x21
 4501 16d7 7C030000 		.4byte	.LASF186
 4502 16db 54130000 		.4byte	0x1354
 4503 16df 02       		.uleb128 0x2
 4504 16e0 91       		.byte	0x91
 4505 16e1 6C       		.sleb128 -20
 4506 16e2 25       		.uleb128 0x25
 4507 16e3 08000000 		.4byte	.LBB11
 4508 16e7 1E000000 		.4byte	.LBE11-.LBB11
 4509 16eb 26       		.uleb128 0x26
 4510 16ec 6E00     		.ascii	"n\000"
 4511 16ee 03       		.byte	0x3
 4512 16ef 76       		.byte	0x76
 4513 16f0 25000000 		.4byte	0x25
 4514 16f4 02       		.uleb128 0x2
 4515 16f5 91       		.byte	0x91
 4516 16f6 74       		.sleb128 -12
 4517 16f7 00       		.byte	0
 4518 16f8 00       		.byte	0
 4519 16f9 22       		.uleb128 0x22
 4520 16fa F0100000 		.4byte	0x10f0
 4521 16fe 00000000 		.4byte	.LFB161
 4522 1702 2E000000 		.4byte	.LFE161-.LFB161
 4523 1706 01       		.uleb128 0x1
 4524 1707 9C       		.byte	0x9c
 4525 1708 10170000 		.4byte	0x1710
 4526 170c 3F170000 		.4byte	0x173f
 4527 1710 21       		.uleb128 0x21
 4528 1711 7C030000 		.4byte	.LASF186
 4529 1715 54130000 		.4byte	0x1354
 4530 1719 02       		.uleb128 0x2
 4531 171a 91       		.byte	0x91
 4532 171b 6C       		.sleb128 -20
 4533 171c 23       		.uleb128 0x23
ARM GAS  C:\Users\Bruger\AppData\Local\Temp\cc797ORx.s 			page 89


 4534 171d 7300     		.ascii	"s\000"
 4535 171f 03       		.byte	0x3
 4536 1720 7B       		.byte	0x7b
 4537 1721 3F170000 		.4byte	0x173f
 4538 1725 02       		.uleb128 0x2
 4539 1726 91       		.byte	0x91
 4540 1727 68       		.sleb128 -24
 4541 1728 25       		.uleb128 0x25
 4542 1729 0A000000 		.4byte	.LBB12
 4543 172d 1C000000 		.4byte	.LBE12-.LBB12
 4544 1731 26       		.uleb128 0x26
 4545 1732 6E00     		.ascii	"n\000"
 4546 1734 03       		.byte	0x3
 4547 1735 7D       		.byte	0x7d
 4548 1736 25000000 		.4byte	0x25
 4549 173a 02       		.uleb128 0x2
 4550 173b 91       		.byte	0x91
 4551 173c 74       		.sleb128 -12
 4552 173d 00       		.byte	0
 4553 173e 00       		.byte	0
 4554 173f 07       		.uleb128 0x7
 4555 1740 440D0000 		.4byte	0xd44
 4556 1744 22       		.uleb128 0x22
 4557 1745 13110000 		.4byte	0x1113
 4558 1749 00000000 		.4byte	.LFB162
 4559 174d 2E000000 		.4byte	.LFE162-.LFB162
 4560 1751 01       		.uleb128 0x1
 4561 1752 9C       		.byte	0x9c
 4562 1753 5B170000 		.4byte	0x175b
 4563 1757 8A170000 		.4byte	0x178a
 4564 175b 21       		.uleb128 0x21
 4565 175c 7C030000 		.4byte	.LASF186
 4566 1760 54130000 		.4byte	0x1354
 4567 1764 02       		.uleb128 0x2
 4568 1765 91       		.byte	0x91
 4569 1766 6C       		.sleb128 -20
 4570 1767 23       		.uleb128 0x23
 4571 1768 6300     		.ascii	"c\000"
 4572 176a 03       		.byte	0x3
 4573 176b 82       		.byte	0x82
 4574 176c A8000000 		.4byte	0xa8
 4575 1770 02       		.uleb128 0x2
 4576 1771 91       		.byte	0x91
 4577 1772 68       		.sleb128 -24
 4578 1773 25       		.uleb128 0x25
 4579 1774 0A000000 		.4byte	.LBB13
 4580 1778 1C000000 		.4byte	.LBE13-.LBB13
 4581 177c 26       		.uleb128 0x26
 4582 177d 6E00     		.ascii	"n\000"
 4583 177f 03       		.byte	0x3
 4584 1780 84       		.byte	0x84
 4585 1781 25000000 		.4byte	0x25
 4586 1785 02       		.uleb128 0x2
 4587 1786 91       		.byte	0x91
 4588 1787 74       		.sleb128 -12
 4589 1788 00       		.byte	0
 4590 1789 00       		.byte	0
ARM GAS  C:\Users\Bruger\AppData\Local\Temp\cc797ORx.s 			page 90


 4591 178a 22       		.uleb128 0x22
 4592 178b 36110000 		.4byte	0x1136
 4593 178f 00000000 		.4byte	.LFB163
 4594 1793 32000000 		.4byte	.LFE163-.LFB163
 4595 1797 01       		.uleb128 0x1
 4596 1798 9C       		.byte	0x9c
 4597 1799 A1170000 		.4byte	0x17a1
 4598 179d D0170000 		.4byte	0x17d0
 4599 17a1 21       		.uleb128 0x21
 4600 17a2 7C030000 		.4byte	.LASF186
 4601 17a6 54130000 		.4byte	0x1354
 4602 17aa 02       		.uleb128 0x2
 4603 17ab 91       		.byte	0x91
 4604 17ac 6C       		.sleb128 -20
 4605 17ad 23       		.uleb128 0x23
 4606 17ae 6300     		.ascii	"c\000"
 4607 17b0 03       		.byte	0x3
 4608 17b1 89       		.byte	0x89
 4609 17b2 A1000000 		.4byte	0xa1
 4610 17b6 02       		.uleb128 0x2
 4611 17b7 91       		.byte	0x91
 4612 17b8 6B       		.sleb128 -21
 4613 17b9 25       		.uleb128 0x25
 4614 17ba 0C000000 		.4byte	.LBB14
 4615 17be 1E000000 		.4byte	.LBE14-.LBB14
 4616 17c2 26       		.uleb128 0x26
 4617 17c3 6E00     		.ascii	"n\000"
 4618 17c5 03       		.byte	0x3
 4619 17c6 8B       		.byte	0x8b
 4620 17c7 25000000 		.4byte	0x25
 4621 17cb 02       		.uleb128 0x2
 4622 17cc 91       		.byte	0x91
 4623 17cd 74       		.sleb128 -12
 4624 17ce 00       		.byte	0
 4625 17cf 00       		.byte	0
 4626 17d0 22       		.uleb128 0x22
 4627 17d1 59110000 		.4byte	0x1159
 4628 17d5 00000000 		.4byte	.LFB164
 4629 17d9 36000000 		.4byte	.LFE164-.LFB164
 4630 17dd 01       		.uleb128 0x1
 4631 17de 9C       		.byte	0x9c
 4632 17df E7170000 		.4byte	0x17e7
 4633 17e3 24180000 		.4byte	0x1824
 4634 17e7 21       		.uleb128 0x21
 4635 17e8 7C030000 		.4byte	.LASF186
 4636 17ec 54130000 		.4byte	0x1354
 4637 17f0 02       		.uleb128 0x2
 4638 17f1 91       		.byte	0x91
 4639 17f2 6C       		.sleb128 -20
 4640 17f3 23       		.uleb128 0x23
 4641 17f4 6200     		.ascii	"b\000"
 4642 17f6 03       		.byte	0x3
 4643 17f7 90       		.byte	0x90
 4644 17f8 50000000 		.4byte	0x50
 4645 17fc 02       		.uleb128 0x2
 4646 17fd 91       		.byte	0x91
 4647 17fe 6B       		.sleb128 -21
ARM GAS  C:\Users\Bruger\AppData\Local\Temp\cc797ORx.s 			page 91


 4648 17ff 24       		.uleb128 0x24
 4649 1800 060A0000 		.4byte	.LASF189
 4650 1804 03       		.byte	0x3
 4651 1805 90       		.byte	0x90
 4652 1806 37000000 		.4byte	0x37
 4653 180a 02       		.uleb128 0x2
 4654 180b 91       		.byte	0x91
 4655 180c 64       		.sleb128 -28
 4656 180d 25       		.uleb128 0x25
 4657 180e 0E000000 		.4byte	.LBB15
 4658 1812 20000000 		.4byte	.LBE15-.LBB15
 4659 1816 26       		.uleb128 0x26
 4660 1817 6E00     		.ascii	"n\000"
 4661 1819 03       		.byte	0x3
 4662 181a 92       		.byte	0x92
 4663 181b 25000000 		.4byte	0x25
 4664 181f 02       		.uleb128 0x2
 4665 1820 91       		.byte	0x91
 4666 1821 74       		.sleb128 -12
 4667 1822 00       		.byte	0
 4668 1823 00       		.byte	0
 4669 1824 22       		.uleb128 0x22
 4670 1825 81110000 		.4byte	0x1181
 4671 1829 00000000 		.4byte	.LFB165
 4672 182d 32000000 		.4byte	.LFE165-.LFB165
 4673 1831 01       		.uleb128 0x1
 4674 1832 9C       		.byte	0x9c
 4675 1833 3B180000 		.4byte	0x183b
 4676 1837 7A180000 		.4byte	0x187a
 4677 183b 21       		.uleb128 0x21
 4678 183c 7C030000 		.4byte	.LASF186
 4679 1840 54130000 		.4byte	0x1354
 4680 1844 02       		.uleb128 0x2
 4681 1845 91       		.byte	0x91
 4682 1846 6C       		.sleb128 -20
 4683 1847 23       		.uleb128 0x23
 4684 1848 6E756D00 		.ascii	"num\000"
 4685 184c 03       		.byte	0x3
 4686 184d 97       		.byte	0x97
 4687 184e 37000000 		.4byte	0x37
 4688 1852 02       		.uleb128 0x2
 4689 1853 91       		.byte	0x91
 4690 1854 68       		.sleb128 -24
 4691 1855 24       		.uleb128 0x24
 4692 1856 060A0000 		.4byte	.LASF189
 4693 185a 03       		.byte	0x3
 4694 185b 97       		.byte	0x97
 4695 185c 37000000 		.4byte	0x37
 4696 1860 02       		.uleb128 0x2
 4697 1861 91       		.byte	0x91
 4698 1862 64       		.sleb128 -28
 4699 1863 25       		.uleb128 0x25
 4700 1864 0C000000 		.4byte	.LBB16
 4701 1868 1E000000 		.4byte	.LBE16-.LBB16
 4702 186c 26       		.uleb128 0x26
 4703 186d 6E00     		.ascii	"n\000"
 4704 186f 03       		.byte	0x3
ARM GAS  C:\Users\Bruger\AppData\Local\Temp\cc797ORx.s 			page 92


 4705 1870 99       		.byte	0x99
 4706 1871 25000000 		.4byte	0x25
 4707 1875 02       		.uleb128 0x2
 4708 1876 91       		.byte	0x91
 4709 1877 74       		.sleb128 -12
 4710 1878 00       		.byte	0
 4711 1879 00       		.byte	0
 4712 187a 22       		.uleb128 0x22
 4713 187b A9110000 		.4byte	0x11a9
 4714 187f 00000000 		.4byte	.LFB166
 4715 1883 32000000 		.4byte	.LFE166-.LFB166
 4716 1887 01       		.uleb128 0x1
 4717 1888 9C       		.byte	0x9c
 4718 1889 91180000 		.4byte	0x1891
 4719 188d D0180000 		.4byte	0x18d0
 4720 1891 21       		.uleb128 0x21
 4721 1892 7C030000 		.4byte	.LASF186
 4722 1896 54130000 		.4byte	0x1354
 4723 189a 02       		.uleb128 0x2
 4724 189b 91       		.byte	0x91
 4725 189c 6C       		.sleb128 -20
 4726 189d 23       		.uleb128 0x23
 4727 189e 6E756D00 		.ascii	"num\000"
 4728 18a2 03       		.byte	0x3
 4729 18a3 9E       		.byte	0x9e
 4730 18a4 30000000 		.4byte	0x30
 4731 18a8 02       		.uleb128 0x2
 4732 18a9 91       		.byte	0x91
 4733 18aa 68       		.sleb128 -24
 4734 18ab 24       		.uleb128 0x24
 4735 18ac 060A0000 		.4byte	.LASF189
 4736 18b0 03       		.byte	0x3
 4737 18b1 9E       		.byte	0x9e
 4738 18b2 37000000 		.4byte	0x37
 4739 18b6 02       		.uleb128 0x2
 4740 18b7 91       		.byte	0x91
 4741 18b8 64       		.sleb128 -28
 4742 18b9 25       		.uleb128 0x25
 4743 18ba 0C000000 		.4byte	.LBB17
 4744 18be 1E000000 		.4byte	.LBE17-.LBB17
 4745 18c2 26       		.uleb128 0x26
 4746 18c3 6E00     		.ascii	"n\000"
 4747 18c5 03       		.byte	0x3
 4748 18c6 A0       		.byte	0xa0
 4749 18c7 25000000 		.4byte	0x25
 4750 18cb 02       		.uleb128 0x2
 4751 18cc 91       		.byte	0x91
 4752 18cd 74       		.sleb128 -12
 4753 18ce 00       		.byte	0
 4754 18cf 00       		.byte	0
 4755 18d0 22       		.uleb128 0x22
 4756 18d1 D1110000 		.4byte	0x11d1
 4757 18d5 00000000 		.4byte	.LFB167
 4758 18d9 32000000 		.4byte	.LFE167-.LFB167
 4759 18dd 01       		.uleb128 0x1
 4760 18de 9C       		.byte	0x9c
 4761 18df E7180000 		.4byte	0x18e7
ARM GAS  C:\Users\Bruger\AppData\Local\Temp\cc797ORx.s 			page 93


 4762 18e3 26190000 		.4byte	0x1926
 4763 18e7 21       		.uleb128 0x21
 4764 18e8 7C030000 		.4byte	.LASF186
 4765 18ec 54130000 		.4byte	0x1354
 4766 18f0 02       		.uleb128 0x2
 4767 18f1 91       		.byte	0x91
 4768 18f2 6C       		.sleb128 -20
 4769 18f3 23       		.uleb128 0x23
 4770 18f4 6E756D00 		.ascii	"num\000"
 4771 18f8 03       		.byte	0x3
 4772 18f9 A5       		.byte	0xa5
 4773 18fa 70000000 		.4byte	0x70
 4774 18fe 02       		.uleb128 0x2
 4775 18ff 91       		.byte	0x91
 4776 1900 68       		.sleb128 -24
 4777 1901 24       		.uleb128 0x24
 4778 1902 060A0000 		.4byte	.LASF189
 4779 1906 03       		.byte	0x3
 4780 1907 A5       		.byte	0xa5
 4781 1908 37000000 		.4byte	0x37
 4782 190c 02       		.uleb128 0x2
 4783 190d 91       		.byte	0x91
 4784 190e 64       		.sleb128 -28
 4785 190f 25       		.uleb128 0x25
 4786 1910 0C000000 		.4byte	.LBB18
 4787 1914 1E000000 		.4byte	.LBE18-.LBB18
 4788 1918 26       		.uleb128 0x26
 4789 1919 6E00     		.ascii	"n\000"
 4790 191b 03       		.byte	0x3
 4791 191c A7       		.byte	0xa7
 4792 191d 25000000 		.4byte	0x25
 4793 1921 02       		.uleb128 0x2
 4794 1922 91       		.byte	0x91
 4795 1923 74       		.sleb128 -12
 4796 1924 00       		.byte	0
 4797 1925 00       		.byte	0
 4798 1926 22       		.uleb128 0x22
 4799 1927 F9110000 		.4byte	0x11f9
 4800 192b 00000000 		.4byte	.LFB168
 4801 192f 32000000 		.4byte	.LFE168-.LFB168
 4802 1933 01       		.uleb128 0x1
 4803 1934 9C       		.byte	0x9c
 4804 1935 3D190000 		.4byte	0x193d
 4805 1939 7C190000 		.4byte	0x197c
 4806 193d 21       		.uleb128 0x21
 4807 193e 7C030000 		.4byte	.LASF186
 4808 1942 54130000 		.4byte	0x1354
 4809 1946 02       		.uleb128 0x2
 4810 1947 91       		.byte	0x91
 4811 1948 6C       		.sleb128 -20
 4812 1949 23       		.uleb128 0x23
 4813 194a 6E756D00 		.ascii	"num\000"
 4814 194e 03       		.byte	0x3
 4815 194f AC       		.byte	0xac
 4816 1950 77000000 		.4byte	0x77
 4817 1954 02       		.uleb128 0x2
 4818 1955 91       		.byte	0x91
ARM GAS  C:\Users\Bruger\AppData\Local\Temp\cc797ORx.s 			page 94


 4819 1956 68       		.sleb128 -24
 4820 1957 24       		.uleb128 0x24
 4821 1958 060A0000 		.4byte	.LASF189
 4822 195c 03       		.byte	0x3
 4823 195d AC       		.byte	0xac
 4824 195e 37000000 		.4byte	0x37
 4825 1962 02       		.uleb128 0x2
 4826 1963 91       		.byte	0x91
 4827 1964 64       		.sleb128 -28
 4828 1965 25       		.uleb128 0x25
 4829 1966 0C000000 		.4byte	.LBB19
 4830 196a 1E000000 		.4byte	.LBE19-.LBB19
 4831 196e 26       		.uleb128 0x26
 4832 196f 6E00     		.ascii	"n\000"
 4833 1971 03       		.byte	0x3
 4834 1972 AE       		.byte	0xae
 4835 1973 25000000 		.4byte	0x25
 4836 1977 02       		.uleb128 0x2
 4837 1978 91       		.byte	0x91
 4838 1979 74       		.sleb128 -12
 4839 197a 00       		.byte	0
 4840 197b 00       		.byte	0
 4841 197c 22       		.uleb128 0x22
 4842 197d 21120000 		.4byte	0x1221
 4843 1981 00000000 		.4byte	.LFB169
 4844 1985 36000000 		.4byte	.LFE169-.LFB169
 4845 1989 01       		.uleb128 0x1
 4846 198a 9C       		.byte	0x9c
 4847 198b 93190000 		.4byte	0x1993
 4848 198f D2190000 		.4byte	0x19d2
 4849 1993 21       		.uleb128 0x21
 4850 1994 7C030000 		.4byte	.LASF186
 4851 1998 54130000 		.4byte	0x1354
 4852 199c 02       		.uleb128 0x2
 4853 199d 91       		.byte	0x91
 4854 199e 6C       		.sleb128 -20
 4855 199f 23       		.uleb128 0x23
 4856 19a0 6E756D00 		.ascii	"num\000"
 4857 19a4 03       		.byte	0x3
 4858 19a5 B3       		.byte	0xb3
 4859 19a6 B3000000 		.4byte	0xb3
 4860 19aa 02       		.uleb128 0x2
 4861 19ab 91       		.byte	0x91
 4862 19ac 60       		.sleb128 -32
 4863 19ad 24       		.uleb128 0x24
 4864 19ae 4F0C0000 		.4byte	.LASF190
 4865 19b2 03       		.byte	0x3
 4866 19b3 B3       		.byte	0xb3
 4867 19b4 37000000 		.4byte	0x37
 4868 19b8 02       		.uleb128 0x2
 4869 19b9 91       		.byte	0x91
 4870 19ba 00       		.sleb128 0
 4871 19bb 25       		.uleb128 0x25
 4872 19bc 0C000000 		.4byte	.LBB20
 4873 19c0 22000000 		.4byte	.LBE20-.LBB20
 4874 19c4 26       		.uleb128 0x26
 4875 19c5 6E00     		.ascii	"n\000"
ARM GAS  C:\Users\Bruger\AppData\Local\Temp\cc797ORx.s 			page 95


 4876 19c7 03       		.byte	0x3
 4877 19c8 B5       		.byte	0xb5
 4878 19c9 25000000 		.4byte	0x25
 4879 19cd 02       		.uleb128 0x2
 4880 19ce 91       		.byte	0x91
 4881 19cf 74       		.sleb128 -12
 4882 19d0 00       		.byte	0
 4883 19d1 00       		.byte	0
 4884 19d2 22       		.uleb128 0x22
 4885 19d3 49120000 		.4byte	0x1249
 4886 19d7 00000000 		.4byte	.LFB170
 4887 19db 2E000000 		.4byte	.LFE170-.LFB170
 4888 19df 01       		.uleb128 0x1
 4889 19e0 9C       		.byte	0x9c
 4890 19e1 E9190000 		.4byte	0x19e9
 4891 19e5 181A0000 		.4byte	0x1a18
 4892 19e9 21       		.uleb128 0x21
 4893 19ea 7C030000 		.4byte	.LASF186
 4894 19ee 54130000 		.4byte	0x1354
 4895 19f2 02       		.uleb128 0x2
 4896 19f3 91       		.byte	0x91
 4897 19f4 6C       		.sleb128 -20
 4898 19f5 23       		.uleb128 0x23
 4899 19f6 7800     		.ascii	"x\000"
 4900 19f8 03       		.byte	0x3
 4901 19f9 BA       		.byte	0xba
 4902 19fa 181A0000 		.4byte	0x1a18
 4903 19fe 02       		.uleb128 0x2
 4904 19ff 91       		.byte	0x91
 4905 1a00 68       		.sleb128 -24
 4906 1a01 25       		.uleb128 0x25
 4907 1a02 0A000000 		.4byte	.LBB21
 4908 1a06 1C000000 		.4byte	.LBE21-.LBB21
 4909 1a0a 26       		.uleb128 0x26
 4910 1a0b 6E00     		.ascii	"n\000"
 4911 1a0d 03       		.byte	0x3
 4912 1a0e BC       		.byte	0xbc
 4913 1a0f 25000000 		.4byte	0x25
 4914 1a13 02       		.uleb128 0x2
 4915 1a14 91       		.byte	0x91
 4916 1a15 74       		.sleb128 -12
 4917 1a16 00       		.byte	0
 4918 1a17 00       		.byte	0
 4919 1a18 07       		.uleb128 0x7
 4920 1a19 C5120000 		.4byte	0x12c5
 4921 1a1d 22       		.uleb128 0x22
 4922 1a1e AA0D0000 		.4byte	0xdaa
 4923 1a22 00000000 		.4byte	.LFB171
 4924 1a26 88000000 		.4byte	.LFE171-.LFB171
 4925 1a2a 01       		.uleb128 0x1
 4926 1a2b 9C       		.byte	0x9c
 4927 1a2c 341A0000 		.4byte	0x1a34
 4928 1a30 A41A0000 		.4byte	0x1aa4
 4929 1a34 21       		.uleb128 0x21
 4930 1a35 7C030000 		.4byte	.LASF186
 4931 1a39 54130000 		.4byte	0x1354
 4932 1a3d 02       		.uleb128 0x2
ARM GAS  C:\Users\Bruger\AppData\Local\Temp\cc797ORx.s 			page 96


 4933 1a3e 91       		.byte	0x91
 4934 1a3f 44       		.sleb128 -60
 4935 1a40 23       		.uleb128 0x23
 4936 1a41 6E00     		.ascii	"n\000"
 4937 1a43 03       		.byte	0x3
 4938 1a44 C3       		.byte	0xc3
 4939 1a45 77000000 		.4byte	0x77
 4940 1a49 02       		.uleb128 0x2
 4941 1a4a 91       		.byte	0x91
 4942 1a4b 40       		.sleb128 -64
 4943 1a4c 24       		.uleb128 0x24
 4944 1a4d 060A0000 		.4byte	.LASF189
 4945 1a51 03       		.byte	0x3
 4946 1a52 C3       		.byte	0xc3
 4947 1a53 C8000000 		.4byte	0xc8
 4948 1a57 03       		.uleb128 0x3
 4949 1a58 91       		.byte	0x91
 4950 1a59 BF7F     		.sleb128 -65
 4951 1a5b 25       		.uleb128 0x25
 4952 1a5c 0E000000 		.4byte	.LBB22
 4953 1a60 72000000 		.4byte	.LBE22-.LBB22
 4954 1a64 26       		.uleb128 0x26
 4955 1a65 62756600 		.ascii	"buf\000"
 4956 1a69 03       		.byte	0x3
 4957 1a6a C4       		.byte	0xc4
 4958 1a6b A41A0000 		.4byte	0x1aa4
 4959 1a6f 02       		.uleb128 0x2
 4960 1a70 91       		.byte	0x91
 4961 1a71 4C       		.sleb128 -52
 4962 1a72 26       		.uleb128 0x26
 4963 1a73 73747200 		.ascii	"str\000"
 4964 1a77 03       		.byte	0x3
 4965 1a78 C5       		.byte	0xc5
 4966 1a79 9B000000 		.4byte	0x9b
 4967 1a7d 02       		.uleb128 0x2
 4968 1a7e 91       		.byte	0x91
 4969 1a7f 74       		.sleb128 -12
 4970 1a80 25       		.uleb128 0x25
 4971 1a81 28000000 		.4byte	.LBB23
 4972 1a85 48000000 		.4byte	.LBE23-.LBB23
 4973 1a89 26       		.uleb128 0x26
 4974 1a8a 6D00     		.ascii	"m\000"
 4975 1a8c 03       		.byte	0x3
 4976 1a8d CD       		.byte	0xcd
 4977 1a8e 77000000 		.4byte	0x77
 4978 1a92 02       		.uleb128 0x2
 4979 1a93 91       		.byte	0x91
 4980 1a94 70       		.sleb128 -16
 4981 1a95 26       		.uleb128 0x26
 4982 1a96 6300     		.ascii	"c\000"
 4983 1a98 03       		.byte	0x3
 4984 1a99 CF       		.byte	0xcf
 4985 1a9a A1000000 		.4byte	0xa1
 4986 1a9e 02       		.uleb128 0x2
 4987 1a9f 91       		.byte	0x91
 4988 1aa0 6F       		.sleb128 -17
 4989 1aa1 00       		.byte	0
ARM GAS  C:\Users\Bruger\AppData\Local\Temp\cc797ORx.s 			page 97


 4990 1aa2 00       		.byte	0
 4991 1aa3 00       		.byte	0
 4992 1aa4 27       		.uleb128 0x27
 4993 1aa5 A1000000 		.4byte	0xa1
 4994 1aa9 B41A0000 		.4byte	0x1ab4
 4995 1aad 28       		.uleb128 0x28
 4996 1aae 8C000000 		.4byte	0x8c
 4997 1ab2 20       		.byte	0x20
 4998 1ab3 00       		.byte	0
 4999 1ab4 22       		.uleb128 0x22
 5000 1ab5 D10D0000 		.4byte	0xdd1
 5001 1ab9 00000000 		.4byte	.LFB172
 5002 1abd 00020000 		.4byte	.LFE172-.LFB172
 5003 1ac1 01       		.uleb128 0x1
 5004 1ac2 9C       		.byte	0x9c
 5005 1ac3 CB1A0000 		.4byte	0x1acb
 5006 1ac7 661B0000 		.4byte	0x1b66
 5007 1acb 21       		.uleb128 0x21
 5008 1acc 7C030000 		.4byte	.LASF186
 5009 1ad0 54130000 		.4byte	0x1354
 5010 1ad4 02       		.uleb128 0x2
 5011 1ad5 91       		.byte	0x91
 5012 1ad6 4C       		.sleb128 -52
 5013 1ad7 24       		.uleb128 0x24
 5014 1ad8 82060000 		.4byte	.LASF191
 5015 1adc 03       		.byte	0x3
 5016 1add D6       		.byte	0xd6
 5017 1ade B3000000 		.4byte	0xb3
 5018 1ae2 02       		.uleb128 0x2
 5019 1ae3 91       		.byte	0x91
 5020 1ae4 40       		.sleb128 -64
 5021 1ae5 24       		.uleb128 0x24
 5022 1ae6 4F0C0000 		.4byte	.LASF190
 5023 1aea 03       		.byte	0x3
 5024 1aeb D6       		.byte	0xd6
 5025 1aec C8000000 		.4byte	0xc8
 5026 1af0 02       		.uleb128 0x2
 5027 1af1 91       		.byte	0x91
 5028 1af2 00       		.sleb128 0
 5029 1af3 25       		.uleb128 0x25
 5030 1af4 0C000000 		.4byte	.LBB24
 5031 1af8 CA010000 		.4byte	.LBE24-.LBB24
 5032 1afc 26       		.uleb128 0x26
 5033 1afd 6E00     		.ascii	"n\000"
 5034 1aff 03       		.byte	0x3
 5035 1b00 D8       		.byte	0xd8
 5036 1b01 25000000 		.4byte	0x25
 5037 1b05 02       		.uleb128 0x2
 5038 1b06 91       		.byte	0x91
 5039 1b07 74       		.sleb128 -12
 5040 1b08 29       		.uleb128 0x29
 5041 1b09 55000000 		.4byte	.LASF192
 5042 1b0d 03       		.byte	0x3
 5043 1b0e E7       		.byte	0xe7
 5044 1b0f B3000000 		.4byte	0xb3
 5045 1b13 02       		.uleb128 0x2
 5046 1b14 91       		.byte	0x91
ARM GAS  C:\Users\Bruger\AppData\Local\Temp\cc797ORx.s 			page 98


 5047 1b15 68       		.sleb128 -24
 5048 1b16 29       		.uleb128 0x29
 5049 1b17 8C0B0000 		.4byte	.LASF193
 5050 1b1b 03       		.byte	0x3
 5051 1b1c EE       		.byte	0xee
 5052 1b1d 77000000 		.4byte	0x77
 5053 1b21 02       		.uleb128 0x2
 5054 1b22 91       		.byte	0x91
 5055 1b23 54       		.sleb128 -44
 5056 1b24 29       		.uleb128 0x29
 5057 1b25 1A090000 		.4byte	.LASF194
 5058 1b29 03       		.byte	0x3
 5059 1b2a EF       		.byte	0xef
 5060 1b2b B3000000 		.4byte	0xb3
 5061 1b2f 02       		.uleb128 0x2
 5062 1b30 91       		.byte	0x91
 5063 1b31 58       		.sleb128 -40
 5064 1b32 2A       		.uleb128 0x2a
 5065 1b33 D4000000 		.4byte	.LBB25
 5066 1b37 34000000 		.4byte	.LBE25-.LBB25
 5067 1b3b 4C1B0000 		.4byte	0x1b4c
 5068 1b3f 26       		.uleb128 0x26
 5069 1b40 6900     		.ascii	"i\000"
 5070 1b42 03       		.byte	0x3
 5071 1b43 E8       		.byte	0xe8
 5072 1b44 C8000000 		.4byte	0xc8
 5073 1b48 02       		.uleb128 0x2
 5074 1b49 91       		.byte	0x91
 5075 1b4a 67       		.sleb128 -25
 5076 1b4b 00       		.byte	0
 5077 1b4c 25       		.uleb128 0x25
 5078 1b4d 6E010000 		.4byte	.LBB26
 5079 1b51 4E000000 		.4byte	.LBE26-.LBB26
 5080 1b55 29       		.uleb128 0x29
 5081 1b56 E4020000 		.4byte	.LASF195
 5082 1b5a 03       		.byte	0x3
 5083 1b5b FB       		.byte	0xfb
 5084 1b5c 37000000 		.4byte	0x37
 5085 1b60 02       		.uleb128 0x2
 5086 1b61 91       		.byte	0x91
 5087 1b62 50       		.sleb128 -48
 5088 1b63 00       		.byte	0
 5089 1b64 00       		.byte	0
 5090 1b65 00       		.byte	0
 5091 1b66 2B       		.uleb128 0x2b
 5092 1b67 95010000 		.4byte	.LASF203
 5093 1b6b 09       		.byte	0x9
 5094 1b6c 5506     		.2byte	0x655
 5095 1b6e 721B0000 		.4byte	0x1b72
 5096 1b72 2C       		.uleb128 0x2c
 5097 1b73 D3000000 		.4byte	0xd3
 5098 1b77 26       		.uleb128 0x26
 5099 1b78 535300   		.ascii	"SS\000"
 5100 1b7b 07       		.byte	0x7
 5101 1b7c 26       		.byte	0x26
 5102 1b7d 9A120000 		.4byte	0x129a
 5103 1b81 05       		.uleb128 0x5
ARM GAS  C:\Users\Bruger\AppData\Local\Temp\cc797ORx.s 			page 99


 5104 1b82 03       		.byte	0x3
 5105 1b83 2F000000 		.4byte	_ZL2SS
 5106 1b87 29       		.uleb128 0x29
 5107 1b88 C70B0000 		.4byte	.LASF196
 5108 1b8c 07       		.byte	0x7
 5109 1b8d 27       		.byte	0x27
 5110 1b8e 9A120000 		.4byte	0x129a
 5111 1b92 05       		.uleb128 0x5
 5112 1b93 03       		.byte	0x3
 5113 1b94 30000000 		.4byte	_ZL4MOSI
 5114 1b98 29       		.uleb128 0x29
 5115 1b99 0F0D0000 		.4byte	.LASF197
 5116 1b9d 07       		.byte	0x7
 5117 1b9e 28       		.byte	0x28
 5118 1b9f 9A120000 		.4byte	0x129a
 5119 1ba3 05       		.uleb128 0x5
 5120 1ba4 03       		.byte	0x3
 5121 1ba5 31000000 		.4byte	_ZL4MISO
 5122 1ba9 26       		.uleb128 0x26
 5123 1baa 53434B00 		.ascii	"SCK\000"
 5124 1bae 07       		.byte	0x7
 5125 1baf 29       		.byte	0x29
 5126 1bb0 9A120000 		.4byte	0x129a
 5127 1bb4 05       		.uleb128 0x5
 5128 1bb5 03       		.byte	0x3
 5129 1bb6 32000000 		.4byte	_ZL3SCK
 5130 1bba 26       		.uleb128 0x26
 5131 1bbb 53444100 		.ascii	"SDA\000"
 5132 1bbf 07       		.byte	0x7
 5133 1bc0 2B       		.byte	0x2b
 5134 1bc1 9A120000 		.4byte	0x129a
 5135 1bc5 05       		.uleb128 0x5
 5136 1bc6 03       		.byte	0x3
 5137 1bc7 33000000 		.4byte	_ZL3SDA
 5138 1bcb 26       		.uleb128 0x26
 5139 1bcc 53434C00 		.ascii	"SCL\000"
 5140 1bd0 07       		.byte	0x7
 5141 1bd1 2C       		.byte	0x2c
 5142 1bd2 9A120000 		.4byte	0x129a
 5143 1bd6 05       		.uleb128 0x5
 5144 1bd7 03       		.byte	0x3
 5145 1bd8 34000000 		.4byte	_ZL3SCL
 5146 1bdc 00       		.byte	0
 5147              		.section	.debug_abbrev,"",%progbits
 5148              	.Ldebug_abbrev0:
 5149 0000 01       		.uleb128 0x1
 5150 0001 11       		.uleb128 0x11
 5151 0002 01       		.byte	0x1
 5152 0003 25       		.uleb128 0x25
 5153 0004 0E       		.uleb128 0xe
 5154 0005 13       		.uleb128 0x13
 5155 0006 0B       		.uleb128 0xb
 5156 0007 03       		.uleb128 0x3
 5157 0008 0E       		.uleb128 0xe
 5158 0009 1B       		.uleb128 0x1b
 5159 000a 0E       		.uleb128 0xe
 5160 000b 55       		.uleb128 0x55
ARM GAS  C:\Users\Bruger\AppData\Local\Temp\cc797ORx.s 			page 100


 5161 000c 17       		.uleb128 0x17
 5162 000d 11       		.uleb128 0x11
 5163 000e 01       		.uleb128 0x1
 5164 000f 10       		.uleb128 0x10
 5165 0010 17       		.uleb128 0x17
 5166 0011 00       		.byte	0
 5167 0012 00       		.byte	0
 5168 0013 02       		.uleb128 0x2
 5169 0014 16       		.uleb128 0x16
 5170 0015 00       		.byte	0
 5171 0016 03       		.uleb128 0x3
 5172 0017 0E       		.uleb128 0xe
 5173 0018 3A       		.uleb128 0x3a
 5174 0019 0B       		.uleb128 0xb
 5175 001a 3B       		.uleb128 0x3b
 5176 001b 0B       		.uleb128 0xb
 5177 001c 49       		.uleb128 0x49
 5178 001d 13       		.uleb128 0x13
 5179 001e 00       		.byte	0
 5180 001f 00       		.byte	0
 5181 0020 03       		.uleb128 0x3
 5182 0021 24       		.uleb128 0x24
 5183 0022 00       		.byte	0
 5184 0023 0B       		.uleb128 0xb
 5185 0024 0B       		.uleb128 0xb
 5186 0025 3E       		.uleb128 0x3e
 5187 0026 0B       		.uleb128 0xb
 5188 0027 03       		.uleb128 0x3
 5189 0028 0E       		.uleb128 0xe
 5190 0029 00       		.byte	0
 5191 002a 00       		.byte	0
 5192 002b 04       		.uleb128 0x4
 5193 002c 24       		.uleb128 0x24
 5194 002d 00       		.byte	0
 5195 002e 0B       		.uleb128 0xb
 5196 002f 0B       		.uleb128 0xb
 5197 0030 3E       		.uleb128 0x3e
 5198 0031 0B       		.uleb128 0xb
 5199 0032 03       		.uleb128 0x3
 5200 0033 08       		.uleb128 0x8
 5201 0034 00       		.byte	0
 5202 0035 00       		.byte	0
 5203 0036 05       		.uleb128 0x5
 5204 0037 0F       		.uleb128 0xf
 5205 0038 00       		.byte	0
 5206 0039 0B       		.uleb128 0xb
 5207 003a 0B       		.uleb128 0xb
 5208 003b 00       		.byte	0
 5209 003c 00       		.byte	0
 5210 003d 06       		.uleb128 0x6
 5211 003e 0F       		.uleb128 0xf
 5212 003f 00       		.byte	0
 5213 0040 0B       		.uleb128 0xb
 5214 0041 0B       		.uleb128 0xb
 5215 0042 49       		.uleb128 0x49
 5216 0043 13       		.uleb128 0x13
 5217 0044 00       		.byte	0
ARM GAS  C:\Users\Bruger\AppData\Local\Temp\cc797ORx.s 			page 101


 5218 0045 00       		.byte	0
 5219 0046 07       		.uleb128 0x7
 5220 0047 26       		.uleb128 0x26
 5221 0048 00       		.byte	0
 5222 0049 49       		.uleb128 0x49
 5223 004a 13       		.uleb128 0x13
 5224 004b 00       		.byte	0
 5225 004c 00       		.byte	0
 5226 004d 08       		.uleb128 0x8
 5227 004e 02       		.uleb128 0x2
 5228 004f 01       		.byte	0x1
 5229 0050 03       		.uleb128 0x3
 5230 0051 0E       		.uleb128 0xe
 5231 0052 0B       		.uleb128 0xb
 5232 0053 0B       		.uleb128 0xb
 5233 0054 3A       		.uleb128 0x3a
 5234 0055 0B       		.uleb128 0xb
 5235 0056 3B       		.uleb128 0x3b
 5236 0057 0B       		.uleb128 0xb
 5237 0058 01       		.uleb128 0x1
 5238 0059 13       		.uleb128 0x13
 5239 005a 00       		.byte	0
 5240 005b 00       		.byte	0
 5241 005c 09       		.uleb128 0x9
 5242 005d 0D       		.uleb128 0xd
 5243 005e 00       		.byte	0
 5244 005f 03       		.uleb128 0x3
 5245 0060 0E       		.uleb128 0xe
 5246 0061 3A       		.uleb128 0x3a
 5247 0062 0B       		.uleb128 0xb
 5248 0063 3B       		.uleb128 0x3b
 5249 0064 0B       		.uleb128 0xb
 5250 0065 49       		.uleb128 0x49
 5251 0066 13       		.uleb128 0x13
 5252 0067 38       		.uleb128 0x38
 5253 0068 0B       		.uleb128 0xb
 5254 0069 32       		.uleb128 0x32
 5255 006a 0B       		.uleb128 0xb
 5256 006b 00       		.byte	0
 5257 006c 00       		.byte	0
 5258 006d 0A       		.uleb128 0xa
 5259 006e 0D       		.uleb128 0xd
 5260 006f 00       		.byte	0
 5261 0070 03       		.uleb128 0x3
 5262 0071 08       		.uleb128 0x8
 5263 0072 3A       		.uleb128 0x3a
 5264 0073 0B       		.uleb128 0xb
 5265 0074 3B       		.uleb128 0x3b
 5266 0075 0B       		.uleb128 0xb
 5267 0076 49       		.uleb128 0x49
 5268 0077 13       		.uleb128 0x13
 5269 0078 38       		.uleb128 0x38
 5270 0079 0B       		.uleb128 0xb
 5271 007a 32       		.uleb128 0x32
 5272 007b 0B       		.uleb128 0xb
 5273 007c 00       		.byte	0
 5274 007d 00       		.byte	0
ARM GAS  C:\Users\Bruger\AppData\Local\Temp\cc797ORx.s 			page 102


 5275 007e 0B       		.uleb128 0xb
 5276 007f 2E       		.uleb128 0x2e
 5277 0080 01       		.byte	0x1
 5278 0081 3F       		.uleb128 0x3f
 5279 0082 19       		.uleb128 0x19
 5280 0083 03       		.uleb128 0x3
 5281 0084 0E       		.uleb128 0xe
 5282 0085 3A       		.uleb128 0x3a
 5283 0086 0B       		.uleb128 0xb
 5284 0087 3B       		.uleb128 0x3b
 5285 0088 0B       		.uleb128 0xb
 5286 0089 6E       		.uleb128 0x6e
 5287 008a 0E       		.uleb128 0xe
 5288 008b 3C       		.uleb128 0x3c
 5289 008c 19       		.uleb128 0x19
 5290 008d 64       		.uleb128 0x64
 5291 008e 13       		.uleb128 0x13
 5292 008f 01       		.uleb128 0x1
 5293 0090 13       		.uleb128 0x13
 5294 0091 00       		.byte	0
 5295 0092 00       		.byte	0
 5296 0093 0C       		.uleb128 0xc
 5297 0094 05       		.uleb128 0x5
 5298 0095 00       		.byte	0
 5299 0096 49       		.uleb128 0x49
 5300 0097 13       		.uleb128 0x13
 5301 0098 34       		.uleb128 0x34
 5302 0099 19       		.uleb128 0x19
 5303 009a 00       		.byte	0
 5304 009b 00       		.byte	0
 5305 009c 0D       		.uleb128 0xd
 5306 009d 2E       		.uleb128 0x2e
 5307 009e 01       		.byte	0x1
 5308 009f 3F       		.uleb128 0x3f
 5309 00a0 19       		.uleb128 0x19
 5310 00a1 03       		.uleb128 0x3
 5311 00a2 0E       		.uleb128 0xe
 5312 00a3 3A       		.uleb128 0x3a
 5313 00a4 0B       		.uleb128 0xb
 5314 00a5 3B       		.uleb128 0x3b
 5315 00a6 0B       		.uleb128 0xb
 5316 00a7 49       		.uleb128 0x49
 5317 00a8 13       		.uleb128 0x13
 5318 00a9 32       		.uleb128 0x32
 5319 00aa 0B       		.uleb128 0xb
 5320 00ab 3C       		.uleb128 0x3c
 5321 00ac 19       		.uleb128 0x19
 5322 00ad 64       		.uleb128 0x64
 5323 00ae 13       		.uleb128 0x13
 5324 00af 01       		.uleb128 0x1
 5325 00b0 13       		.uleb128 0x13
 5326 00b1 00       		.byte	0
 5327 00b2 00       		.byte	0
 5328 00b3 0E       		.uleb128 0xe
 5329 00b4 05       		.uleb128 0x5
 5330 00b5 00       		.byte	0
 5331 00b6 49       		.uleb128 0x49
ARM GAS  C:\Users\Bruger\AppData\Local\Temp\cc797ORx.s 			page 103


 5332 00b7 13       		.uleb128 0x13
 5333 00b8 00       		.byte	0
 5334 00b9 00       		.byte	0
 5335 00ba 0F       		.uleb128 0xf
 5336 00bb 2E       		.uleb128 0x2e
 5337 00bc 01       		.byte	0x1
 5338 00bd 3F       		.uleb128 0x3f
 5339 00be 19       		.uleb128 0x19
 5340 00bf 03       		.uleb128 0x3
 5341 00c0 0E       		.uleb128 0xe
 5342 00c1 3A       		.uleb128 0x3a
 5343 00c2 0B       		.uleb128 0xb
 5344 00c3 3B       		.uleb128 0x3b
 5345 00c4 0B       		.uleb128 0xb
 5346 00c5 49       		.uleb128 0x49
 5347 00c6 13       		.uleb128 0x13
 5348 00c7 32       		.uleb128 0x32
 5349 00c8 0B       		.uleb128 0xb
 5350 00c9 3C       		.uleb128 0x3c
 5351 00ca 19       		.uleb128 0x19
 5352 00cb 63       		.uleb128 0x63
 5353 00cc 19       		.uleb128 0x19
 5354 00cd 64       		.uleb128 0x64
 5355 00ce 13       		.uleb128 0x13
 5356 00cf 01       		.uleb128 0x1
 5357 00d0 13       		.uleb128 0x13
 5358 00d1 00       		.byte	0
 5359 00d2 00       		.byte	0
 5360 00d3 10       		.uleb128 0x10
 5361 00d4 2E       		.uleb128 0x2e
 5362 00d5 01       		.byte	0x1
 5363 00d6 3F       		.uleb128 0x3f
 5364 00d7 19       		.uleb128 0x19
 5365 00d8 03       		.uleb128 0x3
 5366 00d9 0E       		.uleb128 0xe
 5367 00da 3A       		.uleb128 0x3a
 5368 00db 0B       		.uleb128 0xb
 5369 00dc 3B       		.uleb128 0x3b
 5370 00dd 0B       		.uleb128 0xb
 5371 00de 6E       		.uleb128 0x6e
 5372 00df 0E       		.uleb128 0xe
 5373 00e0 49       		.uleb128 0x49
 5374 00e1 13       		.uleb128 0x13
 5375 00e2 32       		.uleb128 0x32
 5376 00e3 0B       		.uleb128 0xb
 5377 00e4 3C       		.uleb128 0x3c
 5378 00e5 19       		.uleb128 0x19
 5379 00e6 64       		.uleb128 0x64
 5380 00e7 13       		.uleb128 0x13
 5381 00e8 01       		.uleb128 0x1
 5382 00e9 13       		.uleb128 0x13
 5383 00ea 00       		.byte	0
 5384 00eb 00       		.byte	0
 5385 00ec 11       		.uleb128 0x11
 5386 00ed 2E       		.uleb128 0x2e
 5387 00ee 01       		.byte	0x1
 5388 00ef 3F       		.uleb128 0x3f
ARM GAS  C:\Users\Bruger\AppData\Local\Temp\cc797ORx.s 			page 104


 5389 00f0 19       		.uleb128 0x19
 5390 00f1 03       		.uleb128 0x3
 5391 00f2 0E       		.uleb128 0xe
 5392 00f3 3A       		.uleb128 0x3a
 5393 00f4 0B       		.uleb128 0xb
 5394 00f5 3B       		.uleb128 0x3b
 5395 00f6 0B       		.uleb128 0xb
 5396 00f7 6E       		.uleb128 0x6e
 5397 00f8 0E       		.uleb128 0xe
 5398 00f9 32       		.uleb128 0x32
 5399 00fa 0B       		.uleb128 0xb
 5400 00fb 3C       		.uleb128 0x3c
 5401 00fc 19       		.uleb128 0x19
 5402 00fd 64       		.uleb128 0x64
 5403 00fe 13       		.uleb128 0x13
 5404 00ff 01       		.uleb128 0x1
 5405 0100 13       		.uleb128 0x13
 5406 0101 00       		.byte	0
 5407 0102 00       		.byte	0
 5408 0103 12       		.uleb128 0x12
 5409 0104 2E       		.uleb128 0x2e
 5410 0105 01       		.byte	0x1
 5411 0106 3F       		.uleb128 0x3f
 5412 0107 19       		.uleb128 0x19
 5413 0108 03       		.uleb128 0x3
 5414 0109 0E       		.uleb128 0xe
 5415 010a 3A       		.uleb128 0x3a
 5416 010b 0B       		.uleb128 0xb
 5417 010c 3B       		.uleb128 0x3b
 5418 010d 0B       		.uleb128 0xb
 5419 010e 6E       		.uleb128 0x6e
 5420 010f 0E       		.uleb128 0xe
 5421 0110 49       		.uleb128 0x49
 5422 0111 13       		.uleb128 0x13
 5423 0112 32       		.uleb128 0x32
 5424 0113 0B       		.uleb128 0xb
 5425 0114 3C       		.uleb128 0x3c
 5426 0115 19       		.uleb128 0x19
 5427 0116 64       		.uleb128 0x64
 5428 0117 13       		.uleb128 0x13
 5429 0118 00       		.byte	0
 5430 0119 00       		.byte	0
 5431 011a 13       		.uleb128 0x13
 5432 011b 13       		.uleb128 0x13
 5433 011c 01       		.byte	0x1
 5434 011d 0B       		.uleb128 0xb
 5435 011e 0B       		.uleb128 0xb
 5436 011f 3A       		.uleb128 0x3a
 5437 0120 0B       		.uleb128 0xb
 5438 0121 3B       		.uleb128 0x3b
 5439 0122 0B       		.uleb128 0xb
 5440 0123 01       		.uleb128 0x1
 5441 0124 13       		.uleb128 0x13
 5442 0125 00       		.byte	0
 5443 0126 00       		.byte	0
 5444 0127 14       		.uleb128 0x14
 5445 0128 0D       		.uleb128 0xd
ARM GAS  C:\Users\Bruger\AppData\Local\Temp\cc797ORx.s 			page 105


 5446 0129 00       		.byte	0
 5447 012a 03       		.uleb128 0x3
 5448 012b 0E       		.uleb128 0xe
 5449 012c 3A       		.uleb128 0x3a
 5450 012d 0B       		.uleb128 0xb
 5451 012e 3B       		.uleb128 0x3b
 5452 012f 0B       		.uleb128 0xb
 5453 0130 49       		.uleb128 0x49
 5454 0131 13       		.uleb128 0x13
 5455 0132 38       		.uleb128 0x38
 5456 0133 0B       		.uleb128 0xb
 5457 0134 00       		.byte	0
 5458 0135 00       		.byte	0
 5459 0136 15       		.uleb128 0x15
 5460 0137 15       		.uleb128 0x15
 5461 0138 01       		.byte	0x1
 5462 0139 64       		.uleb128 0x64
 5463 013a 13       		.uleb128 0x13
 5464 013b 01       		.uleb128 0x1
 5465 013c 13       		.uleb128 0x13
 5466 013d 00       		.byte	0
 5467 013e 00       		.byte	0
 5468 013f 16       		.uleb128 0x16
 5469 0140 10       		.uleb128 0x10
 5470 0141 00       		.byte	0
 5471 0142 0B       		.uleb128 0xb
 5472 0143 0B       		.uleb128 0xb
 5473 0144 49       		.uleb128 0x49
 5474 0145 13       		.uleb128 0x13
 5475 0146 00       		.byte	0
 5476 0147 00       		.byte	0
 5477 0148 17       		.uleb128 0x17
 5478 0149 02       		.uleb128 0x2
 5479 014a 00       		.byte	0
 5480 014b 03       		.uleb128 0x3
 5481 014c 0E       		.uleb128 0xe
 5482 014d 3C       		.uleb128 0x3c
 5483 014e 19       		.uleb128 0x19
 5484 014f 00       		.byte	0
 5485 0150 00       		.byte	0
 5486 0151 18       		.uleb128 0x18
 5487 0152 02       		.uleb128 0x2
 5488 0153 01       		.byte	0x1
 5489 0154 03       		.uleb128 0x3
 5490 0155 0E       		.uleb128 0xe
 5491 0156 0B       		.uleb128 0xb
 5492 0157 0B       		.uleb128 0xb
 5493 0158 3A       		.uleb128 0x3a
 5494 0159 0B       		.uleb128 0xb
 5495 015a 3B       		.uleb128 0x3b
 5496 015b 0B       		.uleb128 0xb
 5497 015c 1D       		.uleb128 0x1d
 5498 015d 13       		.uleb128 0x13
 5499 015e 01       		.uleb128 0x1
 5500 015f 13       		.uleb128 0x13
 5501 0160 00       		.byte	0
 5502 0161 00       		.byte	0
ARM GAS  C:\Users\Bruger\AppData\Local\Temp\cc797ORx.s 			page 106


 5503 0162 19       		.uleb128 0x19
 5504 0163 0D       		.uleb128 0xd
 5505 0164 00       		.byte	0
 5506 0165 03       		.uleb128 0x3
 5507 0166 0E       		.uleb128 0xe
 5508 0167 49       		.uleb128 0x49
 5509 0168 13       		.uleb128 0x13
 5510 0169 38       		.uleb128 0x38
 5511 016a 0B       		.uleb128 0xb
 5512 016b 34       		.uleb128 0x34
 5513 016c 19       		.uleb128 0x19
 5514 016d 32       		.uleb128 0x32
 5515 016e 0B       		.uleb128 0xb
 5516 016f 00       		.byte	0
 5517 0170 00       		.byte	0
 5518 0171 1A       		.uleb128 0x1a
 5519 0172 2E       		.uleb128 0x2e
 5520 0173 01       		.byte	0x1
 5521 0174 3F       		.uleb128 0x3f
 5522 0175 19       		.uleb128 0x19
 5523 0176 03       		.uleb128 0x3
 5524 0177 0E       		.uleb128 0xe
 5525 0178 49       		.uleb128 0x49
 5526 0179 13       		.uleb128 0x13
 5527 017a 34       		.uleb128 0x34
 5528 017b 19       		.uleb128 0x19
 5529 017c 32       		.uleb128 0x32
 5530 017d 0B       		.uleb128 0xb
 5531 017e 3C       		.uleb128 0x3c
 5532 017f 19       		.uleb128 0x19
 5533 0180 64       		.uleb128 0x64
 5534 0181 13       		.uleb128 0x13
 5535 0182 01       		.uleb128 0x1
 5536 0183 13       		.uleb128 0x13
 5537 0184 00       		.byte	0
 5538 0185 00       		.byte	0
 5539 0186 1B       		.uleb128 0x1b
 5540 0187 2E       		.uleb128 0x2e
 5541 0188 01       		.byte	0x1
 5542 0189 3F       		.uleb128 0x3f
 5543 018a 19       		.uleb128 0x19
 5544 018b 03       		.uleb128 0x3
 5545 018c 0E       		.uleb128 0xe
 5546 018d 3A       		.uleb128 0x3a
 5547 018e 0B       		.uleb128 0xb
 5548 018f 3B       		.uleb128 0x3b
 5549 0190 0B       		.uleb128 0xb
 5550 0191 6E       		.uleb128 0x6e
 5551 0192 0E       		.uleb128 0xe
 5552 0193 49       		.uleb128 0x49
 5553 0194 13       		.uleb128 0x13
 5554 0195 3C       		.uleb128 0x3c
 5555 0196 19       		.uleb128 0x19
 5556 0197 64       		.uleb128 0x64
 5557 0198 13       		.uleb128 0x13
 5558 0199 01       		.uleb128 0x1
 5559 019a 13       		.uleb128 0x13
ARM GAS  C:\Users\Bruger\AppData\Local\Temp\cc797ORx.s 			page 107


 5560 019b 00       		.byte	0
 5561 019c 00       		.byte	0
 5562 019d 1C       		.uleb128 0x1c
 5563 019e 2E       		.uleb128 0x2e
 5564 019f 01       		.byte	0x1
 5565 01a0 3F       		.uleb128 0x3f
 5566 01a1 19       		.uleb128 0x19
 5567 01a2 03       		.uleb128 0x3
 5568 01a3 0E       		.uleb128 0xe
 5569 01a4 3A       		.uleb128 0x3a
 5570 01a5 0B       		.uleb128 0xb
 5571 01a6 3B       		.uleb128 0x3b
 5572 01a7 0B       		.uleb128 0xb
 5573 01a8 6E       		.uleb128 0x6e
 5574 01a9 0E       		.uleb128 0xe
 5575 01aa 49       		.uleb128 0x49
 5576 01ab 13       		.uleb128 0x13
 5577 01ac 4C       		.uleb128 0x4c
 5578 01ad 0B       		.uleb128 0xb
 5579 01ae 4D       		.uleb128 0x4d
 5580 01af 18       		.uleb128 0x18
 5581 01b0 1D       		.uleb128 0x1d
 5582 01b1 13       		.uleb128 0x13
 5583 01b2 32       		.uleb128 0x32
 5584 01b3 0B       		.uleb128 0xb
 5585 01b4 3C       		.uleb128 0x3c
 5586 01b5 19       		.uleb128 0x19
 5587 01b6 64       		.uleb128 0x64
 5588 01b7 13       		.uleb128 0x13
 5589 01b8 01       		.uleb128 0x1
 5590 01b9 13       		.uleb128 0x13
 5591 01ba 00       		.byte	0
 5592 01bb 00       		.byte	0
 5593 01bc 1D       		.uleb128 0x1d
 5594 01bd 15       		.uleb128 0x15
 5595 01be 01       		.byte	0x1
 5596 01bf 49       		.uleb128 0x49
 5597 01c0 13       		.uleb128 0x13
 5598 01c1 01       		.uleb128 0x1
 5599 01c2 13       		.uleb128 0x13
 5600 01c3 00       		.byte	0
 5601 01c4 00       		.byte	0
 5602 01c5 1E       		.uleb128 0x1e
 5603 01c6 18       		.uleb128 0x18
 5604 01c7 00       		.byte	0
 5605 01c8 00       		.byte	0
 5606 01c9 00       		.byte	0
 5607 01ca 1F       		.uleb128 0x1f
 5608 01cb 0F       		.uleb128 0xf
 5609 01cc 00       		.byte	0
 5610 01cd 0B       		.uleb128 0xb
 5611 01ce 0B       		.uleb128 0xb
 5612 01cf 03       		.uleb128 0x3
 5613 01d0 0E       		.uleb128 0xe
 5614 01d1 49       		.uleb128 0x49
 5615 01d2 13       		.uleb128 0x13
 5616 01d3 00       		.byte	0
ARM GAS  C:\Users\Bruger\AppData\Local\Temp\cc797ORx.s 			page 108


 5617 01d4 00       		.byte	0
 5618 01d5 20       		.uleb128 0x20
 5619 01d6 2E       		.uleb128 0x2e
 5620 01d7 01       		.byte	0x1
 5621 01d8 47       		.uleb128 0x47
 5622 01d9 13       		.uleb128 0x13
 5623 01da 11       		.uleb128 0x11
 5624 01db 01       		.uleb128 0x1
 5625 01dc 12       		.uleb128 0x12
 5626 01dd 06       		.uleb128 0x6
 5627 01de 40       		.uleb128 0x40
 5628 01df 18       		.uleb128 0x18
 5629 01e0 64       		.uleb128 0x64
 5630 01e1 13       		.uleb128 0x13
 5631 01e2 9742     		.uleb128 0x2117
 5632 01e4 19       		.uleb128 0x19
 5633 01e5 01       		.uleb128 0x1
 5634 01e6 13       		.uleb128 0x13
 5635 01e7 00       		.byte	0
 5636 01e8 00       		.byte	0
 5637 01e9 21       		.uleb128 0x21
 5638 01ea 05       		.uleb128 0x5
 5639 01eb 00       		.byte	0
 5640 01ec 03       		.uleb128 0x3
 5641 01ed 0E       		.uleb128 0xe
 5642 01ee 49       		.uleb128 0x49
 5643 01ef 13       		.uleb128 0x13
 5644 01f0 34       		.uleb128 0x34
 5645 01f1 19       		.uleb128 0x19
 5646 01f2 02       		.uleb128 0x2
 5647 01f3 18       		.uleb128 0x18
 5648 01f4 00       		.byte	0
 5649 01f5 00       		.byte	0
 5650 01f6 22       		.uleb128 0x22
 5651 01f7 2E       		.uleb128 0x2e
 5652 01f8 01       		.byte	0x1
 5653 01f9 47       		.uleb128 0x47
 5654 01fa 13       		.uleb128 0x13
 5655 01fb 11       		.uleb128 0x11
 5656 01fc 01       		.uleb128 0x1
 5657 01fd 12       		.uleb128 0x12
 5658 01fe 06       		.uleb128 0x6
 5659 01ff 40       		.uleb128 0x40
 5660 0200 18       		.uleb128 0x18
 5661 0201 64       		.uleb128 0x64
 5662 0202 13       		.uleb128 0x13
 5663 0203 9642     		.uleb128 0x2116
 5664 0205 19       		.uleb128 0x19
 5665 0206 01       		.uleb128 0x1
 5666 0207 13       		.uleb128 0x13
 5667 0208 00       		.byte	0
 5668 0209 00       		.byte	0
 5669 020a 23       		.uleb128 0x23
 5670 020b 05       		.uleb128 0x5
 5671 020c 00       		.byte	0
 5672 020d 03       		.uleb128 0x3
 5673 020e 08       		.uleb128 0x8
ARM GAS  C:\Users\Bruger\AppData\Local\Temp\cc797ORx.s 			page 109


 5674 020f 3A       		.uleb128 0x3a
 5675 0210 0B       		.uleb128 0xb
 5676 0211 3B       		.uleb128 0x3b
 5677 0212 0B       		.uleb128 0xb
 5678 0213 49       		.uleb128 0x49
 5679 0214 13       		.uleb128 0x13
 5680 0215 02       		.uleb128 0x2
 5681 0216 18       		.uleb128 0x18
 5682 0217 00       		.byte	0
 5683 0218 00       		.byte	0
 5684 0219 24       		.uleb128 0x24
 5685 021a 05       		.uleb128 0x5
 5686 021b 00       		.byte	0
 5687 021c 03       		.uleb128 0x3
 5688 021d 0E       		.uleb128 0xe
 5689 021e 3A       		.uleb128 0x3a
 5690 021f 0B       		.uleb128 0xb
 5691 0220 3B       		.uleb128 0x3b
 5692 0221 0B       		.uleb128 0xb
 5693 0222 49       		.uleb128 0x49
 5694 0223 13       		.uleb128 0x13
 5695 0224 02       		.uleb128 0x2
 5696 0225 18       		.uleb128 0x18
 5697 0226 00       		.byte	0
 5698 0227 00       		.byte	0
 5699 0228 25       		.uleb128 0x25
 5700 0229 0B       		.uleb128 0xb
 5701 022a 01       		.byte	0x1
 5702 022b 11       		.uleb128 0x11
 5703 022c 01       		.uleb128 0x1
 5704 022d 12       		.uleb128 0x12
 5705 022e 06       		.uleb128 0x6
 5706 022f 00       		.byte	0
 5707 0230 00       		.byte	0
 5708 0231 26       		.uleb128 0x26
 5709 0232 34       		.uleb128 0x34
 5710 0233 00       		.byte	0
 5711 0234 03       		.uleb128 0x3
 5712 0235 08       		.uleb128 0x8
 5713 0236 3A       		.uleb128 0x3a
 5714 0237 0B       		.uleb128 0xb
 5715 0238 3B       		.uleb128 0x3b
 5716 0239 0B       		.uleb128 0xb
 5717 023a 49       		.uleb128 0x49
 5718 023b 13       		.uleb128 0x13
 5719 023c 02       		.uleb128 0x2
 5720 023d 18       		.uleb128 0x18
 5721 023e 00       		.byte	0
 5722 023f 00       		.byte	0
 5723 0240 27       		.uleb128 0x27
 5724 0241 01       		.uleb128 0x1
 5725 0242 01       		.byte	0x1
 5726 0243 49       		.uleb128 0x49
 5727 0244 13       		.uleb128 0x13
 5728 0245 01       		.uleb128 0x1
 5729 0246 13       		.uleb128 0x13
 5730 0247 00       		.byte	0
ARM GAS  C:\Users\Bruger\AppData\Local\Temp\cc797ORx.s 			page 110


 5731 0248 00       		.byte	0
 5732 0249 28       		.uleb128 0x28
 5733 024a 21       		.uleb128 0x21
 5734 024b 00       		.byte	0
 5735 024c 49       		.uleb128 0x49
 5736 024d 13       		.uleb128 0x13
 5737 024e 2F       		.uleb128 0x2f
 5738 024f 0B       		.uleb128 0xb
 5739 0250 00       		.byte	0
 5740 0251 00       		.byte	0
 5741 0252 29       		.uleb128 0x29
 5742 0253 34       		.uleb128 0x34
 5743 0254 00       		.byte	0
 5744 0255 03       		.uleb128 0x3
 5745 0256 0E       		.uleb128 0xe
 5746 0257 3A       		.uleb128 0x3a
 5747 0258 0B       		.uleb128 0xb
 5748 0259 3B       		.uleb128 0x3b
 5749 025a 0B       		.uleb128 0xb
 5750 025b 49       		.uleb128 0x49
 5751 025c 13       		.uleb128 0x13
 5752 025d 02       		.uleb128 0x2
 5753 025e 18       		.uleb128 0x18
 5754 025f 00       		.byte	0
 5755 0260 00       		.byte	0
 5756 0261 2A       		.uleb128 0x2a
 5757 0262 0B       		.uleb128 0xb
 5758 0263 01       		.byte	0x1
 5759 0264 11       		.uleb128 0x11
 5760 0265 01       		.uleb128 0x1
 5761 0266 12       		.uleb128 0x12
 5762 0267 06       		.uleb128 0x6
 5763 0268 01       		.uleb128 0x1
 5764 0269 13       		.uleb128 0x13
 5765 026a 00       		.byte	0
 5766 026b 00       		.byte	0
 5767 026c 2B       		.uleb128 0x2b
 5768 026d 34       		.uleb128 0x34
 5769 026e 00       		.byte	0
 5770 026f 03       		.uleb128 0x3
 5771 0270 0E       		.uleb128 0xe
 5772 0271 3A       		.uleb128 0x3a
 5773 0272 0B       		.uleb128 0xb
 5774 0273 3B       		.uleb128 0x3b
 5775 0274 05       		.uleb128 0x5
 5776 0275 49       		.uleb128 0x49
 5777 0276 13       		.uleb128 0x13
 5778 0277 3F       		.uleb128 0x3f
 5779 0278 19       		.uleb128 0x19
 5780 0279 3C       		.uleb128 0x3c
 5781 027a 19       		.uleb128 0x19
 5782 027b 00       		.byte	0
 5783 027c 00       		.byte	0
 5784 027d 2C       		.uleb128 0x2c
 5785 027e 35       		.uleb128 0x35
 5786 027f 00       		.byte	0
 5787 0280 49       		.uleb128 0x49
ARM GAS  C:\Users\Bruger\AppData\Local\Temp\cc797ORx.s 			page 111


 5788 0281 13       		.uleb128 0x13
 5789 0282 00       		.byte	0
 5790 0283 00       		.byte	0
 5791 0284 00       		.byte	0
 5792              		.section	.debug_aranges,"",%progbits
 5793 0000 04010000 		.4byte	0x104
 5794 0004 0200     		.2byte	0x2
 5795 0006 00000000 		.4byte	.Ldebug_info0
 5796 000a 04       		.byte	0x4
 5797 000b 00       		.byte	0
 5798 000c 0000     		.2byte	0
 5799 000e 0000     		.2byte	0
 5800 0010 00000000 		.4byte	.LFB64
 5801 0014 18000000 		.4byte	.LFE64-.LFB64
 5802 0018 00000000 		.4byte	.LFB82
 5803 001c 18000000 		.4byte	.LFE82-.LFB82
 5804 0020 00000000 		.4byte	.LFB123
 5805 0024 36000000 		.4byte	.LFE123-.LFB123
 5806 0028 00000000 		.4byte	.LFB124
 5807 002c 26000000 		.4byte	.LFE124-.LFB124
 5808 0030 00000000 		.4byte	.LFB147
 5809 0034 4C000000 		.4byte	.LFE147-.LFB147
 5810 0038 00000000 		.4byte	.LFB148
 5811 003c 1C000000 		.4byte	.LFE148-.LFB148
 5812 0040 00000000 		.4byte	.LFB149
 5813 0044 2E000000 		.4byte	.LFE149-.LFB149
 5814 0048 00000000 		.4byte	.LFB150
 5815 004c 1C000000 		.4byte	.LFE150-.LFB150
 5816 0050 00000000 		.4byte	.LFB151
 5817 0054 24000000 		.4byte	.LFE151-.LFB151
 5818 0058 00000000 		.4byte	.LFB152
 5819 005c 24000000 		.4byte	.LFE152-.LFB152
 5820 0060 00000000 		.4byte	.LFB153
 5821 0064 20000000 		.4byte	.LFE153-.LFB153
 5822 0068 00000000 		.4byte	.LFB154
 5823 006c 20000000 		.4byte	.LFE154-.LFB154
 5824 0070 00000000 		.4byte	.LFB155
 5825 0074 82000000 		.4byte	.LFE155-.LFB155
 5826 0078 00000000 		.4byte	.LFB156
 5827 007c 3E000000 		.4byte	.LFE156-.LFB156
 5828 0080 00000000 		.4byte	.LFB157
 5829 0084 26000000 		.4byte	.LFE157-.LFB157
 5830 0088 00000000 		.4byte	.LFB158
 5831 008c 2E000000 		.4byte	.LFE158-.LFB158
 5832 0090 00000000 		.4byte	.LFB159
 5833 0094 20000000 		.4byte	.LFE159-.LFB159
 5834 0098 00000000 		.4byte	.LFB160
 5835 009c 2E000000 		.4byte	.LFE160-.LFB160
 5836 00a0 00000000 		.4byte	.LFB161
 5837 00a4 2E000000 		.4byte	.LFE161-.LFB161
 5838 00a8 00000000 		.4byte	.LFB162
 5839 00ac 2E000000 		.4byte	.LFE162-.LFB162
 5840 00b0 00000000 		.4byte	.LFB163
 5841 00b4 32000000 		.4byte	.LFE163-.LFB163
 5842 00b8 00000000 		.4byte	.LFB164
 5843 00bc 36000000 		.4byte	.LFE164-.LFB164
 5844 00c0 00000000 		.4byte	.LFB165
ARM GAS  C:\Users\Bruger\AppData\Local\Temp\cc797ORx.s 			page 112


 5845 00c4 32000000 		.4byte	.LFE165-.LFB165
 5846 00c8 00000000 		.4byte	.LFB166
 5847 00cc 32000000 		.4byte	.LFE166-.LFB166
 5848 00d0 00000000 		.4byte	.LFB167
 5849 00d4 32000000 		.4byte	.LFE167-.LFB167
 5850 00d8 00000000 		.4byte	.LFB168
 5851 00dc 32000000 		.4byte	.LFE168-.LFB168
 5852 00e0 00000000 		.4byte	.LFB169
 5853 00e4 36000000 		.4byte	.LFE169-.LFB169
 5854 00e8 00000000 		.4byte	.LFB170
 5855 00ec 2E000000 		.4byte	.LFE170-.LFB170
 5856 00f0 00000000 		.4byte	.LFB171
 5857 00f4 88000000 		.4byte	.LFE171-.LFB171
 5858 00f8 00000000 		.4byte	.LFB172
 5859 00fc 00020000 		.4byte	.LFE172-.LFB172
 5860 0100 00000000 		.4byte	0
 5861 0104 00000000 		.4byte	0
 5862              		.section	.debug_ranges,"",%progbits
 5863              	.Ldebug_ranges0:
 5864 0000 00000000 		.4byte	.LFB64
 5865 0004 18000000 		.4byte	.LFE64
 5866 0008 00000000 		.4byte	.LFB82
 5867 000c 18000000 		.4byte	.LFE82
 5868 0010 00000000 		.4byte	.LFB123
 5869 0014 36000000 		.4byte	.LFE123
 5870 0018 00000000 		.4byte	.LFB124
 5871 001c 26000000 		.4byte	.LFE124
 5872 0020 00000000 		.4byte	.LFB147
 5873 0024 4C000000 		.4byte	.LFE147
 5874 0028 00000000 		.4byte	.LFB148
 5875 002c 1C000000 		.4byte	.LFE148
 5876 0030 00000000 		.4byte	.LFB149
 5877 0034 2E000000 		.4byte	.LFE149
 5878 0038 00000000 		.4byte	.LFB150
 5879 003c 1C000000 		.4byte	.LFE150
 5880 0040 00000000 		.4byte	.LFB151
 5881 0044 24000000 		.4byte	.LFE151
 5882 0048 00000000 		.4byte	.LFB152
 5883 004c 24000000 		.4byte	.LFE152
 5884 0050 00000000 		.4byte	.LFB153
 5885 0054 20000000 		.4byte	.LFE153
 5886 0058 00000000 		.4byte	.LFB154
 5887 005c 20000000 		.4byte	.LFE154
 5888 0060 00000000 		.4byte	.LFB155
 5889 0064 82000000 		.4byte	.LFE155
 5890 0068 00000000 		.4byte	.LFB156
 5891 006c 3E000000 		.4byte	.LFE156
 5892 0070 00000000 		.4byte	.LFB157
 5893 0074 26000000 		.4byte	.LFE157
 5894 0078 00000000 		.4byte	.LFB158
 5895 007c 2E000000 		.4byte	.LFE158
 5896 0080 00000000 		.4byte	.LFB159
 5897 0084 20000000 		.4byte	.LFE159
 5898 0088 00000000 		.4byte	.LFB160
 5899 008c 2E000000 		.4byte	.LFE160
 5900 0090 00000000 		.4byte	.LFB161
 5901 0094 2E000000 		.4byte	.LFE161
ARM GAS  C:\Users\Bruger\AppData\Local\Temp\cc797ORx.s 			page 113


 5902 0098 00000000 		.4byte	.LFB162
 5903 009c 2E000000 		.4byte	.LFE162
 5904 00a0 00000000 		.4byte	.LFB163
 5905 00a4 32000000 		.4byte	.LFE163
 5906 00a8 00000000 		.4byte	.LFB164
 5907 00ac 36000000 		.4byte	.LFE164
 5908 00b0 00000000 		.4byte	.LFB165
 5909 00b4 32000000 		.4byte	.LFE165
 5910 00b8 00000000 		.4byte	.LFB166
 5911 00bc 32000000 		.4byte	.LFE166
 5912 00c0 00000000 		.4byte	.LFB167
 5913 00c4 32000000 		.4byte	.LFE167
 5914 00c8 00000000 		.4byte	.LFB168
 5915 00cc 32000000 		.4byte	.LFE168
 5916 00d0 00000000 		.4byte	.LFB169
 5917 00d4 36000000 		.4byte	.LFE169
 5918 00d8 00000000 		.4byte	.LFB170
 5919 00dc 2E000000 		.4byte	.LFE170
 5920 00e0 00000000 		.4byte	.LFB171
 5921 00e4 88000000 		.4byte	.LFE171
 5922 00e8 00000000 		.4byte	.LFB172
 5923 00ec 00020000 		.4byte	.LFE172
 5924 00f0 00000000 		.4byte	0
 5925 00f4 00000000 		.4byte	0
 5926              		.section	.debug_line,"",%progbits
 5927              	.Ldebug_line0:
 5928 0000 F2040000 		.section	.debug_str,"MS",%progbits,1
 5928      02000302 
 5928      00000201 
 5928      FB0E0D00 
 5928      01010101 
 5929              	.LASF59:
 5930 0000 5F5A4E4B 		.ascii	"_ZNK6String9compareToERKS_\000"
 5930      36537472 
 5930      696E6739 
 5930      636F6D70 
 5930      61726554 
 5931              	.LASF177:
 5932 001b 5F5A4E35 		.ascii	"_ZN5Print7printlnEji\000"
 5932      5072696E 
 5932      74377072 
 5932      696E746C 
 5932      6E456A69 
 5933              	.LASF165:
 5934 0030 5F5A4E35 		.ascii	"_ZN5Print5printEji\000"
 5934      5072696E 
 5934      74357072 
 5934      696E7445 
 5934      6A6900
 5935              	.LASF2:
 5936 0043 73697A65 		.ascii	"size_t\000"
 5936      5F7400
 5937              	.LASF75:
 5938 004a 6F706572 		.ascii	"operator>=\000"
 5938      61746F72 
 5938      3E3D00
 5939              	.LASF192:
ARM GAS  C:\Users\Bruger\AppData\Local\Temp\cc797ORx.s 			page 114


 5940 0055 726F756E 		.ascii	"rounding\000"
 5940      64696E67 
 5940      00
 5941              	.LASF156:
 5942 005e 5F5A4E35 		.ascii	"_ZN5Print5writeEPKhj\000"
 5942      5072696E 
 5942      74357772 
 5942      69746545 
 5942      504B686A 
 5943              	.LASF85:
 5944 0073 5F5A4E4B 		.ascii	"_ZNK6String6charAtEj\000"
 5944      36537472 
 5944      696E6736 
 5944      63686172 
 5944      4174456A 
 5945              	.LASF3:
 5946 0088 5F5F7569 		.ascii	"__uint8_t\000"
 5946      6E74385F 
 5946      7400
 5947              	.LASF89:
 5948 0092 5F5A4E36 		.ascii	"_ZN6StringixEj\000"
 5948      53747269 
 5948      6E676978 
 5948      456A00
 5949              	.LASF140:
 5950 00a1 53747269 		.ascii	"StringIfHelper\000"
 5950      6E674966 
 5950      48656C70 
 5950      657200
 5951              	.LASF90:
 5952 00b0 67657442 		.ascii	"getBytes\000"
 5952      79746573 
 5952      00
 5953              	.LASF174:
 5954 00b9 5F5A4E35 		.ascii	"_ZN5Print7printlnEc\000"
 5954      5072696E 
 5954      74377072 
 5954      696E746C 
 5954      6E456300 
 5955              	.LASF20:
 5956 00cd 63617061 		.ascii	"capacity\000"
 5956      63697479 
 5956      00
 5957              	.LASF105:
 5958 00d6 5F5A4E4B 		.ascii	"_ZNK6String11lastIndexOfERKS_\000"
 5958      36537472 
 5958      696E6731 
 5958      316C6173 
 5958      74496E64 
 5959              	.LASF8:
 5960 00f4 6C6F6E67 		.ascii	"long int\000"
 5960      20696E74 
 5960      00
 5961              	.LASF131:
 5962 00fd 5F5A4E36 		.ascii	"_ZN6String12changeBufferEj\000"
 5962      53747269 
 5962      6E673132 
ARM GAS  C:\Users\Bruger\AppData\Local\Temp\cc797ORx.s 			page 115


 5962      6368616E 
 5962      67654275 
 5963              	.LASF119:
 5964 0118 5F5A4E36 		.ascii	"_ZN6String11toUpperCaseEv\000"
 5964      53747269 
 5964      6E673131 
 5964      746F5570 
 5964      70657243 
 5965              	.LASF62:
 5966 0132 5F5A4E4B 		.ascii	"_ZNK6String6equalsEPKc\000"
 5966      36537472 
 5966      696E6736 
 5966      65717561 
 5966      6C734550 
 5967              	.LASF136:
 5968 0149 5F5F7066 		.ascii	"__pfn\000"
 5968      6E00
 5969              	.LASF11:
 5970 014f 6C6F6E67 		.ascii	"long long unsigned int\000"
 5970      206C6F6E 
 5970      6720756E 
 5970      7369676E 
 5970      65642069 
 5971              	.LASF146:
 5972 0166 73657457 		.ascii	"setWriteError\000"
 5972      72697465 
 5972      4572726F 
 5972      7200
 5973              	.LASF130:
 5974 0174 6368616E 		.ascii	"changeBuffer\000"
 5974      67654275 
 5974      66666572 
 5974      00
 5975              	.LASF182:
 5976 0181 5F5A4E35 		.ascii	"_ZN5Print7printlnEv\000"
 5976      5072696E 
 5976      74377072 
 5976      696E746C 
 5976      6E457600 
 5977              	.LASF203:
 5978 0195 49544D5F 		.ascii	"ITM_RxBuffer\000"
 5978      52784275 
 5978      66666572 
 5978      00
 5979              	.LASF23:
 5980 01a2 7E537472 		.ascii	"~String\000"
 5980      696E6700 
 5981              	.LASF21:
 5982 01aa 53747269 		.ascii	"StringIfHelperType\000"
 5982      6E674966 
 5982      48656C70 
 5982      65725479 
 5982      706500
 5983              	.LASF22:
 5984 01bd 53747269 		.ascii	"String\000"
 5984      6E6700
 5985              	.LASF104:
ARM GAS  C:\Users\Bruger\AppData\Local\Temp\cc797ORx.s 			page 116


 5986 01c4 5F5A4E4B 		.ascii	"_ZNK6String11lastIndexOfEcj\000"
 5986      36537472 
 5986      696E6731 
 5986      316C6173 
 5986      74496E64 
 5987              	.LASF163:
 5988 01e0 5F5A4E35 		.ascii	"_ZN5Print5printEhi\000"
 5988      5072696E 
 5988      74357072 
 5988      696E7445 
 5988      686900
 5989              	.LASF128:
 5990 01f3 696E7661 		.ascii	"invalidate\000"
 5990      6C696461 
 5990      746500
 5991              	.LASF10:
 5992 01fe 6C6F6E67 		.ascii	"long long int\000"
 5992      206C6F6E 
 5992      6720696E 
 5992      7400
 5993              	.LASF1:
 5994 020c 7369676E 		.ascii	"signed char\000"
 5994      65642063 
 5994      68617200 
 5995              	.LASF78:
 5996 0218 5F5A4E4B 		.ascii	"_ZNK6String16equalsIgnoreCaseERKS_\000"
 5996      36537472 
 5996      696E6731 
 5996      36657175 
 5996      616C7349 
 5997              	.LASF68:
 5998 023b 5F5A4E4B 		.ascii	"_ZNK6StringneEPKc\000"
 5998      36537472 
 5998      696E676E 
 5998      6545504B 
 5998      6300
 5999              	.LASF159:
 6000 024d 5F5A4E35 		.ascii	"_ZN5Print5printEPK19__FlashStringHelper\000"
 6000      5072696E 
 6000      74357072 
 6000      696E7445 
 6000      504B3139 
 6001              	.LASF123:
 6002 0275 5F5A4E4B 		.ascii	"_ZNK6String5toIntEv\000"
 6002      36537472 
 6002      696E6735 
 6002      746F496E 
 6002      74457600 
 6003              	.LASF100:
 6004 0289 5F5A4E4B 		.ascii	"_ZNK6String7indexOfERKS_\000"
 6004      36537472 
 6004      696E6737 
 6004      696E6465 
 6004      784F6645 
 6005              	.LASF117:
 6006 02a2 5F5A4E36 		.ascii	"_ZN6String11toLowerCaseEv\000"
 6006      53747269 
ARM GAS  C:\Users\Bruger\AppData\Local\Temp\cc797ORx.s 			page 117


 6006      6E673131 
 6006      746F4C6F 
 6006      77657243 
 6007              	.LASF124:
 6008 02bc 746F466C 		.ascii	"toFloat\000"
 6008      6F617400 
 6009              	.LASF158:
 6010 02c4 7072696E 		.ascii	"print\000"
 6010      7400
 6011              	.LASF92:
 6012 02ca 5F5A4E4B 		.ascii	"_ZNK6String8getBytesEPhjj\000"
 6012      36537472 
 6012      696E6738 
 6012      67657442 
 6012      79746573 
 6013              	.LASF195:
 6014 02e4 746F5072 		.ascii	"toPrint\000"
 6014      696E7400 
 6015              	.LASF58:
 6016 02ec 636F6D70 		.ascii	"compareTo\000"
 6016      61726554 
 6016      6F00
 6017              	.LASF66:
 6018 02f6 6F706572 		.ascii	"operator!=\000"
 6018      61746F72 
 6018      213D00
 6019              	.LASF93:
 6020 0301 746F4368 		.ascii	"toCharArray\000"
 6020      61724172 
 6020      72617900 
 6021              	.LASF108:
 6022 030d 5F5A4E4B 		.ascii	"_ZNK6String9substringEj\000"
 6022      36537472 
 6022      696E6739 
 6022      73756273 
 6022      7472696E 
 6023              	.LASF77:
 6024 0325 65717561 		.ascii	"equalsIgnoreCase\000"
 6024      6C734967 
 6024      6E6F7265 
 6024      43617365 
 6024      00
 6025              	.LASF180:
 6026 0336 5F5A4E35 		.ascii	"_ZN5Print7printlnEdi\000"
 6026      5072696E 
 6026      74377072 
 6026      696E746C 
 6026      6E456469 
 6027              	.LASF94:
 6028 034b 5F5A4E4B 		.ascii	"_ZNK6String11toCharArrayEPcjj\000"
 6028      36537472 
 6028      696E6731 
 6028      31746F43 
 6028      68617241 
 6029              	.LASF168:
 6030 0369 5F5A4E35 		.ascii	"_ZN5Print5printEdi\000"
 6030      5072696E 
ARM GAS  C:\Users\Bruger\AppData\Local\Temp\cc797ORx.s 			page 118


 6030      74357072 
 6030      696E7445 
 6030      646900
 6031              	.LASF186:
 6032 037c 74686973 		.ascii	"this\000"
 6032      00
 6033              	.LASF34:
 6034 0381 5F5A4E36 		.ascii	"_ZN6String6concatEPKc\000"
 6034      53747269 
 6034      6E673663 
 6034      6F6E6361 
 6034      7445504B 
 6035              	.LASF107:
 6036 0397 73756273 		.ascii	"substring\000"
 6036      7472696E 
 6036      6700
 6037              	.LASF86:
 6038 03a1 73657443 		.ascii	"setCharAt\000"
 6038      68617241 
 6038      7400
 6039              	.LASF55:
 6040 03ab 5F5A4E36 		.ascii	"_ZN6StringpLEPK19__FlashStringHelper\000"
 6040      53747269 
 6040      6E67704C 
 6040      45504B31 
 6040      395F5F46 
 6041              	.LASF32:
 6042 03d0 636F6E63 		.ascii	"concat\000"
 6042      617400
 6043              	.LASF99:
 6044 03d7 5F5A4E4B 		.ascii	"_ZNK6String7indexOfEcj\000"
 6044      36537472 
 6044      696E6737 
 6044      696E6465 
 6044      784F6645 
 6045              	.LASF198:
 6046 03ee 474E5520 		.ascii	"GNU C++ 4.9.3 20150303 (release) [ARM/embedded-4_9-"
 6046      432B2B20 
 6046      342E392E 
 6046      33203230 
 6046      31353033 
 6047 0421 6272616E 		.ascii	"branch revision 221220] -mcpu=cortex-m3 -mthumb -g "
 6047      63682072 
 6047      65766973 
 6047      696F6E20 
 6047      32323132 
 6048 0454 2D4F3020 		.ascii	"-O0 -ffunction-sections -ffat-lto-objects\000"
 6048      2D666675 
 6048      6E637469 
 6048      6F6E2D73 
 6048      65637469 
 6049              	.LASF42:
 6050 047e 5F5A4E36 		.ascii	"_ZN6String6concatEd\000"
 6050      53747269 
 6050      6E673663 
 6050      6F6E6361 
 6050      74456400 
ARM GAS  C:\Users\Bruger\AppData\Local\Temp\cc797ORx.s 			page 119


 6051              	.LASF27:
 6052 0492 5F5A4E4B 		.ascii	"_ZNK6String6lengthEv\000"
 6052      36537472 
 6052      696E6736 
 6052      6C656E67 
 6052      74684576 
 6053              	.LASF138:
 6054 04a7 5F767074 		.ascii	"_vptr.Print\000"
 6054      722E5072 
 6054      696E7400 
 6055              	.LASF166:
 6056 04b3 5F5A4E35 		.ascii	"_ZN5Print5printEli\000"
 6056      5072696E 
 6056      74357072 
 6056      696E7445 
 6056      6C6900
 6057              	.LASF97:
 6058 04c6 696E6465 		.ascii	"indexOf\000"
 6058      784F6600 
 6059              	.LASF26:
 6060 04ce 5F5A4E36 		.ascii	"_ZN6String7reserveEj\000"
 6060      53747269 
 6060      6E673772 
 6060      65736572 
 6060      7665456A 
 6061              	.LASF102:
 6062 04e3 6C617374 		.ascii	"lastIndexOf\000"
 6062      496E6465 
 6062      784F6600 
 6063              	.LASF98:
 6064 04ef 5F5A4E4B 		.ascii	"_ZNK6String7indexOfEc\000"
 6064      36537472 
 6064      696E6737 
 6064      696E6465 
 6064      784F6645 
 6065              	.LASF30:
 6066 0505 5F5A4E36 		.ascii	"_ZN6StringaSEPKc\000"
 6066      53747269 
 6066      6E676153 
 6066      45504B63 
 6066      00
 6067              	.LASF202:
 6068 0516 5F5F7674 		.ascii	"__vtbl_ptr_type\000"
 6068      626C5F70 
 6068      74725F74 
 6068      79706500 
 6069              	.LASF80:
 6070 0526 5F5A4E4B 		.ascii	"_ZNK6String10startsWithERKS_\000"
 6070      36537472 
 6070      696E6731 
 6070      30737461 
 6070      72747357 
 6071              	.LASF0:
 6072 0543 756E7369 		.ascii	"unsigned int\000"
 6072      676E6564 
 6072      20696E74 
 6072      00
ARM GAS  C:\Users\Bruger\AppData\Local\Temp\cc797ORx.s 			page 120


 6073              	.LASF167:
 6074 0550 5F5A4E35 		.ascii	"_ZN5Print5printEmi\000"
 6074      5072696E 
 6074      74357072 
 6074      696E7445 
 6074      6D6900
 6075              	.LASF24:
 6076 0563 72657365 		.ascii	"reserve\000"
 6076      72766500 
 6077              	.LASF169:
 6078 056b 5F5A4E35 		.ascii	"_ZN5Print5printERK9Printable\000"
 6078      5072696E 
 6078      74357072 
 6078      696E7445 
 6078      524B3950 
 6079              	.LASF162:
 6080 0588 5F5A4E35 		.ascii	"_ZN5Print5printEc\000"
 6080      5072696E 
 6080      74357072 
 6080      696E7445 
 6080      6300
 6081              	.LASF111:
 6082 059a 5F5A4E36 		.ascii	"_ZN6String7replaceEcc\000"
 6082      53747269 
 6082      6E673772 
 6082      65706C61 
 6082      63654563 
 6083              	.LASF9:
 6084 05b0 6C6F6E67 		.ascii	"long unsigned int\000"
 6084      20756E73 
 6084      69676E65 
 6084      6420696E 
 6084      7400
 6085              	.LASF151:
 6086 05c2 636C6561 		.ascii	"clearWriteError\000"
 6086      72577269 
 6086      74654572 
 6086      726F7200 
 6087              	.LASF185:
 6088 05d2 5072696E 		.ascii	"Printable\000"
 6088      7461626C 
 6088      6500
 6089              	.LASF83:
 6090 05dc 5F5A4E4B 		.ascii	"_ZNK6String8endsWithERKS_\000"
 6090      36537472 
 6090      696E6738 
 6090      656E6473 
 6090      57697468 
 6091              	.LASF115:
 6092 05f6 5F5A4E36 		.ascii	"_ZN6String6removeEjj\000"
 6092      53747269 
 6092      6E673672 
 6092      656D6F76 
 6092      65456A6A 
 6093              	.LASF113:
 6094 060b 72656D6F 		.ascii	"remove\000"
 6094      766500
ARM GAS  C:\Users\Bruger\AppData\Local\Temp\cc797ORx.s 			page 121


 6095              	.LASF157:
 6096 0612 5F5A4E35 		.ascii	"_ZN5Print5writeEPKcj\000"
 6096      5072696E 
 6096      74357772 
 6096      69746545 
 6096      504B636A 
 6097              	.LASF187:
 6098 0627 73697A65 		.ascii	"size\000"
 6098      00
 6099              	.LASF6:
 6100 062c 73686F72 		.ascii	"short unsigned int\000"
 6100      7420756E 
 6100      7369676E 
 6100      65642069 
 6100      6E7400
 6101              	.LASF84:
 6102 063f 63686172 		.ascii	"charAt\000"
 6102      417400
 6103              	.LASF118:
 6104 0646 746F5570 		.ascii	"toUpperCase\000"
 6104      70657243 
 6104      61736500 
 6105              	.LASF60:
 6106 0652 65717561 		.ascii	"equals\000"
 6106      6C7300
 6107              	.LASF96:
 6108 0659 5F5A4E4B 		.ascii	"_ZNK6String5c_strEv\000"
 6108      36537472 
 6108      696E6735 
 6108      635F7374 
 6108      72457600 
 6109              	.LASF179:
 6110 066d 5F5A4E35 		.ascii	"_ZN5Print7printlnEmi\000"
 6110      5072696E 
 6110      74377072 
 6110      696E746C 
 6110      6E456D69 
 6111              	.LASF191:
 6112 0682 6E756D62 		.ascii	"number\000"
 6112      657200
 6113              	.LASF35:
 6114 0689 5F5A4E36 		.ascii	"_ZN6String6concatEc\000"
 6114      53747269 
 6114      6E673663 
 6114      6F6E6361 
 6114      74456300 
 6115              	.LASF152:
 6116 069d 5F5A4E35 		.ascii	"_ZN5Print15clearWriteErrorEv\000"
 6116      5072696E 
 6116      74313563 
 6116      6C656172 
 6116      57726974 
 6117              	.LASF120:
 6118 06ba 7472696D 		.ascii	"trim\000"
 6118      00
 6119              	.LASF41:
 6120 06bf 5F5A4E36 		.ascii	"_ZN6String6concatEf\000"
ARM GAS  C:\Users\Bruger\AppData\Local\Temp\cc797ORx.s 			page 122


 6120      53747269 
 6120      6E673663 
 6120      6F6E6361 
 6120      74456600 
 6121              	.LASF36:
 6122 06d3 5F5A4E36 		.ascii	"_ZN6String6concatEh\000"
 6122      53747269 
 6122      6E673663 
 6122      6F6E6361 
 6122      74456800 
 6123              	.LASF37:
 6124 06e7 5F5A4E36 		.ascii	"_ZN6String6concatEi\000"
 6124      53747269 
 6124      6E673663 
 6124      6F6E6361 
 6124      74456900 
 6125              	.LASF38:
 6126 06fb 5F5A4E36 		.ascii	"_ZN6String6concatEj\000"
 6126      53747269 
 6126      6E673663 
 6126      6F6E6361 
 6126      74456A00 
 6127              	.LASF39:
 6128 070f 5F5A4E36 		.ascii	"_ZN6String6concatEl\000"
 6128      53747269 
 6128      6E673663 
 6128      6F6E6361 
 6128      74456C00 
 6129              	.LASF40:
 6130 0723 5F5A4E36 		.ascii	"_ZN6String6concatEm\000"
 6130      53747269 
 6130      6E673663 
 6130      6F6E6361 
 6130      74456D00 
 6131              	.LASF63:
 6132 0737 6F706572 		.ascii	"operator==\000"
 6132      61746F72 
 6132      3D3D00
 6133              	.LASF7:
 6134 0742 5F5F696E 		.ascii	"__int32_t\000"
 6134      7433325F 
 6134      7400
 6135              	.LASF72:
 6136 074c 5F5A4E4B 		.ascii	"_ZNK6StringgtERKS_\000"
 6136      36537472 
 6136      696E6767 
 6136      7445524B 
 6136      535F00
 6137              	.LASF81:
 6138 075f 5F5A4E4B 		.ascii	"_ZNK6String10startsWithERKS_j\000"
 6138      36537472 
 6138      696E6731 
 6138      30737461 
 6138      72747357 
 6139              	.LASF144:
 6140 077d 7072696E 		.ascii	"printFloat\000"
 6140      74466C6F 
ARM GAS  C:\Users\Bruger\AppData\Local\Temp\cc797ORx.s 			page 123


 6140      617400
 6141              	.LASF106:
 6142 0788 5F5A4E4B 		.ascii	"_ZNK6String11lastIndexOfERKS_j\000"
 6142      36537472 
 6142      696E6731 
 6142      316C6173 
 6142      74496E64 
 6143              	.LASF148:
 6144 07a7 7E507269 		.ascii	"~Print\000"
 6144      6E7400
 6145              	.LASF153:
 6146 07ae 77726974 		.ascii	"write\000"
 6146      6500
 6147              	.LASF133:
 6148 07b4 636F7079 		.ascii	"copy\000"
 6148      00
 6149              	.LASF87:
 6150 07b9 6F706572 		.ascii	"operator[]\000"
 6150      61746F72 
 6150      5B5D00
 6151              	.LASF12:
 6152 07c4 73697A65 		.ascii	"sizetype\000"
 6152      74797065 
 6152      00
 6153              	.LASF154:
 6154 07cd 5F5A4E35 		.ascii	"_ZN5Print5writeEPKc\000"
 6154      5072696E 
 6154      74357772 
 6154      69746545 
 6154      504B6300 
 6155              	.LASF145:
 6156 07e1 5F5A4E35 		.ascii	"_ZN5Print10printFloatEdh\000"
 6156      5072696E 
 6156      74313070 
 6156      72696E74 
 6156      466C6F61 
 6157              	.LASF45:
 6158 07fa 5F5A4E36 		.ascii	"_ZN6StringpLERKS_\000"
 6158      53747269 
 6158      6E67704C 
 6158      45524B53 
 6158      5F00
 6159              	.LASF44:
 6160 080c 6F706572 		.ascii	"operator+=\000"
 6160      61746F72 
 6160      2B3D00
 6161              	.LASF143:
 6162 0817 5F5A4E35 		.ascii	"_ZN5Print11printNumberEmh\000"
 6162      5072696E 
 6162      74313170 
 6162      72696E74 
 6162      4E756D62 
 6163              	.LASF33:
 6164 0831 5F5A4E36 		.ascii	"_ZN6String6concatERKS_\000"
 6164      53747269 
 6164      6E673663 
 6164      6F6E6361 
ARM GAS  C:\Users\Bruger\AppData\Local\Temp\cc797ORx.s 			page 124


 6164      7445524B 
 6165              	.LASF47:
 6166 0848 5F5A4E36 		.ascii	"_ZN6StringpLEc\000"
 6166      53747269 
 6166      6E67704C 
 6166      456300
 6167              	.LASF54:
 6168 0857 5F5A4E36 		.ascii	"_ZN6StringpLEd\000"
 6168      53747269 
 6168      6E67704C 
 6168      456400
 6169              	.LASF147:
 6170 0866 5F5A4E35 		.ascii	"_ZN5Print13setWriteErrorEi\000"
 6170      5072696E 
 6170      74313373 
 6170      65745772 
 6170      69746545 
 6171              	.LASF53:
 6172 0881 5F5A4E36 		.ascii	"_ZN6StringpLEf\000"
 6172      53747269 
 6172      6E67704C 
 6172      456600
 6173              	.LASF48:
 6174 0890 5F5A4E36 		.ascii	"_ZN6StringpLEh\000"
 6174      53747269 
 6174      6E67704C 
 6174      456800
 6175              	.LASF49:
 6176 089f 5F5A4E36 		.ascii	"_ZN6StringpLEi\000"
 6176      53747269 
 6176      6E67704C 
 6176      456900
 6177              	.LASF50:
 6178 08ae 5F5A4E36 		.ascii	"_ZN6StringpLEj\000"
 6178      53747269 
 6178      6E67704C 
 6178      456A00
 6179              	.LASF51:
 6180 08bd 5F5A4E36 		.ascii	"_ZN6StringpLEl\000"
 6180      53747269 
 6180      6E67704C 
 6180      456C00
 6181              	.LASF52:
 6182 08cc 5F5A4E36 		.ascii	"_ZN6StringpLEm\000"
 6182      53747269 
 6182      6E67704C 
 6182      456D00
 6183              	.LASF112:
 6184 08db 5F5A4E36 		.ascii	"_ZN6String7replaceERKS_S1_\000"
 6184      53747269 
 6184      6E673772 
 6184      65706C61 
 6184      63654552 
 6185              	.LASF56:
 6186 08f6 6F706572 		.ascii	"operator String::StringIfHelperType\000"
 6186      61746F72 
 6186      20537472 
ARM GAS  C:\Users\Bruger\AppData\Local\Temp\cc797ORx.s 			page 125


 6186      696E673A 
 6186      3A537472 
 6187              	.LASF194:
 6188 091a 72656D61 		.ascii	"remainder\000"
 6188      696E6465 
 6188      7200
 6189              	.LASF126:
 6190 0924 696E6974 		.ascii	"init\000"
 6190      00
 6191              	.LASF46:
 6192 0929 5F5A4E36 		.ascii	"_ZN6StringpLEPKc\000"
 6192      53747269 
 6192      6E67704C 
 6192      45504B63 
 6192      00
 6193              	.LASF160:
 6194 093a 5F5A4E35 		.ascii	"_ZN5Print5printERK6String\000"
 6194      5072696E 
 6194      74357072 
 6194      696E7445 
 6194      524B3653 
 6195              	.LASF43:
 6196 0954 5F5A4E36 		.ascii	"_ZN6String6concatEPK19__FlashStringHelper\000"
 6196      53747269 
 6196      6E673663 
 6196      6F6E6361 
 6196      7445504B 
 6197              	.LASF15:
 6198 097e 666C6F61 		.ascii	"float\000"
 6198      7400
 6199              	.LASF64:
 6200 0984 5F5A4E4B 		.ascii	"_ZNK6StringeqERKS_\000"
 6200      36537472 
 6200      696E6765 
 6200      7145524B 
 6200      535F00
 6201              	.LASF57:
 6202 0997 5F5A4E4B 		.ascii	"_ZNK6StringcvMS_KFvvEEv\000"
 6202      36537472 
 6202      696E6763 
 6202      764D535F 
 6202      4B467676 
 6203              	.LASF139:
 6204 09af 77726974 		.ascii	"write_error\000"
 6204      655F6572 
 6204      726F7200 
 6205              	.LASF125:
 6206 09bb 5F5A4E4B 		.ascii	"_ZNK6String7toFloatEv\000"
 6206      36537472 
 6206      696E6737 
 6206      746F466C 
 6206      6F617445 
 6207              	.LASF121:
 6208 09d1 5F5A4E36 		.ascii	"_ZN6String4trimEv\000"
 6208      53747269 
 6208      6E673474 
 6208      72696D45 
ARM GAS  C:\Users\Bruger\AppData\Local\Temp\cc797ORx.s 			page 126


 6208      7600
 6209              	.LASF175:
 6210 09e3 5F5A4E35 		.ascii	"_ZN5Print7printlnEhi\000"
 6210      5072696E 
 6210      74377072 
 6210      696E746C 
 6210      6E456869 
 6211              	.LASF183:
 6212 09f8 626F6F6C 		.ascii	"bool\000"
 6212      00
 6213              	.LASF82:
 6214 09fd 656E6473 		.ascii	"endsWith\000"
 6214      57697468 
 6214      00
 6215              	.LASF189:
 6216 0a06 62617365 		.ascii	"base\000"
 6216      00
 6217              	.LASF61:
 6218 0a0b 5F5A4E4B 		.ascii	"_ZNK6String6equalsERKS_\000"
 6218      36537472 
 6218      696E6736 
 6218      65717561 
 6218      6C734552 
 6219              	.LASF31:
 6220 0a23 5F5A4E36 		.ascii	"_ZN6StringaSEPK19__FlashStringHelper\000"
 6220      53747269 
 6220      6E676153 
 6220      45504B31 
 6220      395F5F46 
 6221              	.LASF18:
 6222 0a48 696E7433 		.ascii	"int32_t\000"
 6222      325F7400 
 6223              	.LASF4:
 6224 0a50 756E7369 		.ascii	"unsigned char\000"
 6224      676E6564 
 6224      20636861 
 6224      7200
 6225              	.LASF69:
 6226 0a5e 6F706572 		.ascii	"operator<\000"
 6226      61746F72 
 6226      3C00
 6227              	.LASF28:
 6228 0a68 6F706572 		.ascii	"operator=\000"
 6228      61746F72 
 6228      3D00
 6229              	.LASF71:
 6230 0a72 6F706572 		.ascii	"operator>\000"
 6230      61746F72 
 6230      3E00
 6231              	.LASF88:
 6232 0a7c 5F5A4E4B 		.ascii	"_ZNK6StringixEj\000"
 6232      36537472 
 6232      696E6769 
 6232      78456A00 
 6233              	.LASF129:
 6234 0a8c 5F5A4E36 		.ascii	"_ZN6String10invalidateEv\000"
 6234      53747269 
ARM GAS  C:\Users\Bruger\AppData\Local\Temp\cc797ORx.s 			page 127


 6234      6E673130 
 6234      696E7661 
 6234      6C696461 
 6235              	.LASF5:
 6236 0aa5 73686F72 		.ascii	"short int\000"
 6236      7420696E 
 6236      7400
 6237              	.LASF178:
 6238 0aaf 5F5A4E35 		.ascii	"_ZN5Print7printlnEli\000"
 6238      5072696E 
 6238      74377072 
 6238      696E746C 
 6238      6E456C69 
 6239              	.LASF200:
 6240 0ac4 433A5C55 		.ascii	"C:\\Users\\Bruger\\Desktop\\CODE\\PSOC5\\CY8CKIT-59"
 6240      73657273 
 6240      5C427275 
 6240      6765725C 
 6240      4465736B 
 6241 0af1 2D417264 		.ascii	"-Arduino\\CY8CKIT59_Ardudino-Speeduino.cydsn\000"
 6241      75696E6F 
 6241      5C435938 
 6241      434B4954 
 6241      35395F41 
 6242              	.LASF65:
 6243 0b1d 5F5A4E4B 		.ascii	"_ZNK6StringeqEPKc\000"
 6243      36537472 
 6243      696E6765 
 6243      7145504B 
 6243      6300
 6244              	.LASF79:
 6245 0b2f 73746172 		.ascii	"startsWith\000"
 6245      74735769 
 6245      746800
 6246              	.LASF170:
 6247 0b3a 7072696E 		.ascii	"println\000"
 6247      746C6E00 
 6248              	.LASF161:
 6249 0b42 5F5A4E35 		.ascii	"_ZN5Print5printEPKc\000"
 6249      5072696E 
 6249      74357072 
 6249      696E7445 
 6249      504B6300 
 6250              	.LASF155:
 6251 0b56 5F5A4E35 		.ascii	"_ZN5Print5writeEh\000"
 6251      5072696E 
 6251      74357772 
 6251      69746545 
 6251      6800
 6252              	.LASF142:
 6253 0b68 7072696E 		.ascii	"printNumber\000"
 6253      744E756D 
 6253      62657200 
 6254              	.LASF16:
 6255 0b74 6C6F6E67 		.ascii	"long double\000"
 6255      20646F75 
 6255      626C6500 
ARM GAS  C:\Users\Bruger\AppData\Local\Temp\cc797ORx.s 			page 128


 6256              	.LASF25:
 6257 0b80 6C656E67 		.ascii	"length\000"
 6257      746800
 6258              	.LASF13:
 6259 0b87 63686172 		.ascii	"char\000"
 6259      00
 6260              	.LASF193:
 6261 0b8c 696E745F 		.ascii	"int_part\000"
 6261      70617274 
 6261      00
 6262              	.LASF73:
 6263 0b95 6F706572 		.ascii	"operator<=\000"
 6263      61746F72 
 6263      3C3D00
 6264              	.LASF76:
 6265 0ba0 5F5A4E4B 		.ascii	"_ZNK6StringgeERKS_\000"
 6265      36537472 
 6265      696E6767 
 6265      6545524B 
 6265      535F00
 6266              	.LASF114:
 6267 0bb3 5F5A4E36 		.ascii	"_ZN6String6removeEj\000"
 6267      53747269 
 6267      6E673672 
 6267      656D6F76 
 6267      65456A00 
 6268              	.LASF196:
 6269 0bc7 4D4F5349 		.ascii	"MOSI\000"
 6269      00
 6270              	.LASF150:
 6271 0bcc 5F5A4E35 		.ascii	"_ZN5Print13getWriteErrorEv\000"
 6271      5072696E 
 6271      74313367 
 6271      65745772 
 6271      69746545 
 6272              	.LASF149:
 6273 0be7 67657457 		.ascii	"getWriteError\000"
 6273      72697465 
 6273      4572726F 
 6273      7200
 6274              	.LASF172:
 6275 0bf5 5F5A4E35 		.ascii	"_ZN5Print7printlnERK6String\000"
 6275      5072696E 
 6275      74377072 
 6275      696E746C 
 6275      6E45524B 
 6276              	.LASF110:
 6277 0c11 7265706C 		.ascii	"replace\000"
 6277      61636500 
 6278              	.LASF132:
 6279 0c19 5F5A4E36 		.ascii	"_ZN6String6concatEPKcj\000"
 6279      53747269 
 6279      6E673663 
 6279      6F6E6361 
 6279      7445504B 
 6280              	.LASF19:
 6281 0c30 62756666 		.ascii	"buffer\000"
ARM GAS  C:\Users\Bruger\AppData\Local\Temp\cc797ORx.s 			page 129


 6281      657200
 6282              	.LASF188:
 6283 0c37 69667368 		.ascii	"ifsh\000"
 6283      00
 6284              	.LASF164:
 6285 0c3c 5F5A4E35 		.ascii	"_ZN5Print5printEii\000"
 6285      5072696E 
 6285      74357072 
 6285      696E7445 
 6285      696900
 6286              	.LASF190:
 6287 0c4f 64696769 		.ascii	"digits\000"
 6287      747300
 6288              	.LASF181:
 6289 0c56 5F5A4E35 		.ascii	"_ZN5Print7printlnERK9Printable\000"
 6289      5072696E 
 6289      74377072 
 6289      696E746C 
 6289      6E45524B 
 6290              	.LASF74:
 6291 0c75 5F5A4E4B 		.ascii	"_ZNK6StringleERKS_\000"
 6291      36537472 
 6291      696E676C 
 6291      6545524B 
 6291      535F00
 6292              	.LASF135:
 6293 0c88 5F5A4E36 		.ascii	"_ZN6String4copyEPK19__FlashStringHelperj\000"
 6293      53747269 
 6293      6E673463 
 6293      6F707945 
 6293      504B3139 
 6294              	.LASF137:
 6295 0cb1 5F5F6465 		.ascii	"__delta\000"
 6295      6C746100 
 6296              	.LASF201:
 6297 0cb9 5F5A4E4B 		.ascii	"_ZNK6String14StringIfHelperEv\000"
 6297      36537472 
 6297      696E6731 
 6297      34537472 
 6297      696E6749 
 6298              	.LASF127:
 6299 0cd7 5F5A4E36 		.ascii	"_ZN6String4initEv\000"
 6299      53747269 
 6299      6E673469 
 6299      6E697445 
 6299      7600
 6300              	.LASF67:
 6301 0ce9 5F5A4E4B 		.ascii	"_ZNK6StringneERKS_\000"
 6301      36537472 
 6301      696E676E 
 6301      6545524B 
 6301      535F00
 6302              	.LASF70:
 6303 0cfc 5F5A4E4B 		.ascii	"_ZNK6StringltERKS_\000"
 6303      36537472 
 6303      696E676C 
 6303      7445524B 
ARM GAS  C:\Users\Bruger\AppData\Local\Temp\cc797ORx.s 			page 130


 6303      535F00
 6304              	.LASF197:
 6305 0d0f 4D49534F 		.ascii	"MISO\000"
 6305      00
 6306              	.LASF134:
 6307 0d14 5F5A4E36 		.ascii	"_ZN6String4copyEPKcj\000"
 6307      53747269 
 6307      6E673463 
 6307      6F707945 
 6307      504B636A 
 6308              	.LASF173:
 6309 0d29 5F5A4E35 		.ascii	"_ZN5Print7printlnEPKc\000"
 6309      5072696E 
 6309      74377072 
 6309      696E746C 
 6309      6E45504B 
 6310              	.LASF176:
 6311 0d3f 5F5A4E35 		.ascii	"_ZN5Print7printlnEii\000"
 6311      5072696E 
 6311      74377072 
 6311      696E746C 
 6311      6E456969 
 6312              	.LASF199:
 6313 0d54 636F7265 		.ascii	"core\\Print.cpp\000"
 6313      5C507269 
 6313      6E742E63 
 6313      707000
 6314              	.LASF141:
 6315 0d63 5072696E 		.ascii	"Print\000"
 6315      7400
 6316              	.LASF17:
 6317 0d69 75696E74 		.ascii	"uint8_t\000"
 6317      385F7400 
 6318              	.LASF95:
 6319 0d71 635F7374 		.ascii	"c_str\000"
 6319      7200
 6320              	.LASF122:
 6321 0d77 746F496E 		.ascii	"toInt\000"
 6321      7400
 6322              	.LASF109:
 6323 0d7d 5F5A4E4B 		.ascii	"_ZNK6String9substringEjj\000"
 6323      36537472 
 6323      696E6739 
 6323      73756273 
 6323      7472696E 
 6324              	.LASF103:
 6325 0d96 5F5A4E4B 		.ascii	"_ZNK6String11lastIndexOfEc\000"
 6325      36537472 
 6325      696E6731 
 6325      316C6173 
 6325      74496E64 
 6326              	.LASF116:
 6327 0db1 746F4C6F 		.ascii	"toLowerCase\000"
 6327      77657243 
 6327      61736500 
 6328              	.LASF101:
 6329 0dbd 5F5A4E4B 		.ascii	"_ZNK6String7indexOfERKS_j\000"
ARM GAS  C:\Users\Bruger\AppData\Local\Temp\cc797ORx.s 			page 131


 6329      36537472 
 6329      696E6737 
 6329      696E6465 
 6329      784F6645 
 6330              	.LASF29:
 6331 0dd7 5F5A4E36 		.ascii	"_ZN6StringaSERKS_\000"
 6331      53747269 
 6331      6E676153 
 6331      45524B53 
 6331      5F00
 6332              	.LASF184:
 6333 0de9 5F5F466C 		.ascii	"__FlashStringHelper\000"
 6333      61736853 
 6333      7472696E 
 6333      6748656C 
 6333      70657200 
 6334              	.LASF91:
 6335 0dfd 5F5A4E36 		.ascii	"_ZN6String9setCharAtEjc\000"
 6335      53747269 
 6335      6E673973 
 6335      65744368 
 6335      61724174 
 6336              	.LASF171:
 6337 0e15 5F5A4E35 		.ascii	"_ZN5Print7printlnEPK19__FlashStringHelper\000"
 6337      5072696E 
 6337      74377072 
 6337      696E746C 
 6337      6E45504B 
 6338              	.LASF14:
 6339 0e3f 646F7562 		.ascii	"double\000"
 6339      6C6500
 6340              		.ident	"GCC: (GNU Tools for ARM Embedded Processors) 4.9.3 20150303 (release) [ARM/embedded-4_9-br
