ARM GAS  C:\Users\Bruger\AppData\Local\Temp\cc797ORx.s 			page 1


   1              		.syntax unified
   2              		.cpu cortex-m3
   3              		.fpu softvfp
   4              		.eabi_attribute 20, 1
   5              		.eabi_attribute 21, 1
   6              		.eabi_attribute 23, 3
   7              		.eabi_attribute 24, 1
   8              		.eabi_attribute 25, 1
   9              		.eabi_attribute 26, 1
  10              		.eabi_attribute 30, 6
  11              		.eabi_attribute 34, 1
  12              		.eabi_attribute 18, 4
  13              		.thumb
  14              		.file	"Print.cpp"
  15              		.text
  16              	.Ltext0:
  17              		.cfi_sections	.debug_frame
  18              		.section	.text._ZNK6String6lengthEv,"axG",%progbits,_ZNK6String6lengthEv,comdat
  19              		.align	2
  20              		.weak	_ZNK6String6lengthEv
  21              		.thumb
  22              		.thumb_func
  23              		.type	_ZNK6String6lengthEv, %function
  24              	_ZNK6String6lengthEv:
  25              		.fnstart
  26              	.LFB64:
  27              		.file 1 "core\\WString.h"
   1:core/WString.h **** /*
   2:core/WString.h ****   WString.h - String library for Wiring & Arduino
   3:core/WString.h ****   ...mostly rewritten by Paul Stoffregen...
   4:core/WString.h ****   Copyright (c) 2009-10 Hernando Barragan.  All right reserved.
   5:core/WString.h ****   Copyright 2011, Paul Stoffregen, paul@pjrc.com
   6:core/WString.h **** 
   7:core/WString.h ****   This library is free software; you can redistribute it and/or
   8:core/WString.h ****   modify it under the terms of the GNU Lesser General Public
   9:core/WString.h ****   License as published by the Free Software Foundation; either
  10:core/WString.h ****   version 2.1 of the License, or (at your option) any later version.
  11:core/WString.h **** 
  12:core/WString.h ****   This library is distributed in the hope that it will be useful,
  13:core/WString.h ****   but WITHOUT ANY WARRANTY; without even the implied warranty of
  14:core/WString.h ****   MERCHANTABILITY or FITNESS FOR A PARTICULAR PURPOSE.  See the GNU
  15:core/WString.h ****   Lesser General Public License for more details.
  16:core/WString.h **** 
  17:core/WString.h ****   You should have received a copy of the GNU Lesser General Public
  18:core/WString.h ****   License along with this library; if not, write to the Free Software
  19:core/WString.h ****   Foundation, Inc., 51 Franklin St, Fifth Floor, Boston, MA  02110-1301  USA
  20:core/WString.h **** */
  21:core/WString.h **** 
  22:core/WString.h **** #ifndef String_class_h
  23:core/WString.h **** #define String_class_h
  24:core/WString.h **** #ifdef __cplusplus
  25:core/WString.h **** 
  26:core/WString.h **** #include <stdlib.h>
  27:core/WString.h **** #include <string.h>
  28:core/WString.h **** #include <ctype.h>
  29:core/WString.h **** #include <avr/pgmspace.h>
  30:core/WString.h **** 
ARM GAS  C:\Users\Bruger\AppData\Local\Temp\cc797ORx.s 			page 2


  31:core/WString.h **** // When compiling programs with this class, the following gcc parameters
  32:core/WString.h **** // dramatically increase performance and memory (RAM) efficiency, typically
  33:core/WString.h **** // with little or no increase in code size.
  34:core/WString.h **** //     -felide-constructors
  35:core/WString.h **** //     -std=c++0x
  36:core/WString.h **** 
  37:core/WString.h **** class __FlashStringHelper;
  38:core/WString.h **** #define F(string_literal) (reinterpret_cast<const __FlashStringHelper *>(PSTR(string_literal)))
  39:core/WString.h **** 
  40:core/WString.h **** // An inherited class for holding the result of a concatenation.  These
  41:core/WString.h **** // result objects are assumed to be writable by subsequent concatenations.
  42:core/WString.h **** class StringSumHelper;
  43:core/WString.h **** 
  44:core/WString.h **** // The string class
  45:core/WString.h **** class String
  46:core/WString.h **** {
  47:core/WString.h **** 	// use a function pointer to allow for "if (s)" without the
  48:core/WString.h **** 	// complications of an operator bool(). for more information, see:
  49:core/WString.h **** 	// http://www.artima.com/cppsource/safebool.html
  50:core/WString.h **** 	typedef void (String::*StringIfHelperType)() const;
  51:core/WString.h **** 	void StringIfHelper() const {}
  52:core/WString.h **** 
  53:core/WString.h **** public:
  54:core/WString.h **** 	// constructors
  55:core/WString.h **** 	// creates a copy of the initial value.
  56:core/WString.h **** 	// if the initial value is null or invalid, or if memory allocation
  57:core/WString.h **** 	// fails, the string will be marked as invalid (i.e. "if (s)" will
  58:core/WString.h **** 	// be false).
  59:core/WString.h **** 	String(const char *cstr = "");
  60:core/WString.h **** 	String(const String &str);
  61:core/WString.h **** 	String(const __FlashStringHelper *str);
  62:core/WString.h **** 	#ifdef __GXX_EXPERIMENTAL_CXX0X__
  63:core/WString.h **** 	String(String &&rval);
  64:core/WString.h **** 	String(StringSumHelper &&rval);
  65:core/WString.h **** 	#endif
  66:core/WString.h **** 	explicit String(char c);
  67:core/WString.h **** 	explicit String(unsigned char, unsigned char base=10);
  68:core/WString.h **** 	explicit String(int, unsigned char base=10);
  69:core/WString.h **** 	explicit String(unsigned int, unsigned char base=10);
  70:core/WString.h **** 	explicit String(long, unsigned char base=10);
  71:core/WString.h **** 	explicit String(unsigned long, unsigned char base=10);
  72:core/WString.h **** 	explicit String(float, unsigned char decimalPlaces=2);
  73:core/WString.h **** 	explicit String(double, unsigned char decimalPlaces=2);
  74:core/WString.h **** 	~String(void);
  75:core/WString.h **** 
  76:core/WString.h **** 	// memory management
  77:core/WString.h **** 	// return true on success, false on failure (in which case, the string
  78:core/WString.h **** 	// is left unchanged).  reserve(0), if successful, will validate an
  79:core/WString.h **** 	// invalid string (i.e., "if (s)" will be true afterwards)
  80:core/WString.h **** 	unsigned char reserve(unsigned int size);
  81:core/WString.h **** 	inline unsigned int length(void) const {return len;}
  28              		.loc 1 81 0
  29              		.cfi_startproc
  30              		@ args = 0, pretend = 0, frame = 8
  31              		@ frame_needed = 1, uses_anonymous_args = 0
  32              		@ link register save eliminated.
  33 0000 80B4     		push	{r7}
ARM GAS  C:\Users\Bruger\AppData\Local\Temp\cc797ORx.s 			page 3


  34              		.cfi_def_cfa_offset 4
  35              		.cfi_offset 7, -4
  36 0002 83B0     		sub	sp, sp, #12
  37              		.cfi_def_cfa_offset 16
  38 0004 00AF     		add	r7, sp, #0
  39              		.cfi_def_cfa_register 7
  40 0006 7860     		str	r0, [r7, #4]
  41              		.loc 1 81 0
  42 0008 7B68     		ldr	r3, [r7, #4]
  43 000a 9B68     		ldr	r3, [r3, #8]
  44 000c 1846     		mov	r0, r3
  45 000e 0C37     		adds	r7, r7, #12
  46              		.cfi_def_cfa_offset 4
  47 0010 BD46     		mov	sp, r7
  48              		.cfi_def_cfa_register 13
  49              		@ sp needed
  50 0012 5DF8047B 		ldr	r7, [sp], #4
  51              		.cfi_restore 7
  52              		.cfi_def_cfa_offset 0
  53 0016 7047     		bx	lr
  54              		.cfi_endproc
  55              	.LFE64:
  56              		.cantunwind
  57              		.fnend
  58              		.size	_ZNK6String6lengthEv, .-_ZNK6String6lengthEv
  59              		.section	.text._ZNK6String5c_strEv,"axG",%progbits,_ZNK6String5c_strEv,comdat
  60              		.align	2
  61              		.weak	_ZNK6String5c_strEv
  62              		.thumb
  63              		.thumb_func
  64              		.type	_ZNK6String5c_strEv, %function
  65              	_ZNK6String5c_strEv:
  66              		.fnstart
  67              	.LFB82:
  82:core/WString.h **** 
  83:core/WString.h **** 	// creates a copy of the assigned value.  if the value is null or
  84:core/WString.h **** 	// invalid, or if the memory allocation fails, the string will be 
  85:core/WString.h **** 	// marked as invalid ("if (s)" will be false).
  86:core/WString.h **** 	String & operator = (const String &rhs);
  87:core/WString.h **** 	String & operator = (const char *cstr);
  88:core/WString.h **** 	String & operator = (const __FlashStringHelper *str);
  89:core/WString.h **** 	#ifdef __GXX_EXPERIMENTAL_CXX0X__
  90:core/WString.h **** 	String & operator = (String &&rval);
  91:core/WString.h **** 	String & operator = (StringSumHelper &&rval);
  92:core/WString.h **** 	#endif
  93:core/WString.h **** 
  94:core/WString.h **** 	// concatenate (works w/ built-in types)
  95:core/WString.h **** 	
  96:core/WString.h **** 	// returns true on success, false on failure (in which case, the string
  97:core/WString.h **** 	// is left unchanged).  if the argument is null or invalid, the 
  98:core/WString.h **** 	// concatenation is considered unsucessful.  
  99:core/WString.h **** 	unsigned char concat(const String &str);
 100:core/WString.h **** 	unsigned char concat(const char *cstr);
 101:core/WString.h **** 	unsigned char concat(char c);
 102:core/WString.h **** 	unsigned char concat(unsigned char c);
 103:core/WString.h **** 	unsigned char concat(int num);
 104:core/WString.h **** 	unsigned char concat(unsigned int num);
ARM GAS  C:\Users\Bruger\AppData\Local\Temp\cc797ORx.s 			page 4


 105:core/WString.h **** 	unsigned char concat(long num);
 106:core/WString.h **** 	unsigned char concat(unsigned long num);
 107:core/WString.h **** 	unsigned char concat(float num);
 108:core/WString.h **** 	unsigned char concat(double num);
 109:core/WString.h **** 	unsigned char concat(const __FlashStringHelper * str);
 110:core/WString.h **** 	
 111:core/WString.h **** 	// if there's not enough memory for the concatenated value, the string
 112:core/WString.h **** 	// will be left unchanged (but this isn't signalled in any way)
 113:core/WString.h **** 	String & operator += (const String &rhs)	{concat(rhs); return (*this);}
 114:core/WString.h **** 	String & operator += (const char *cstr)		{concat(cstr); return (*this);}
 115:core/WString.h **** 	String & operator += (char c)			{concat(c); return (*this);}
 116:core/WString.h **** 	String & operator += (unsigned char num)		{concat(num); return (*this);}
 117:core/WString.h **** 	String & operator += (int num)			{concat(num); return (*this);}
 118:core/WString.h **** 	String & operator += (unsigned int num)		{concat(num); return (*this);}
 119:core/WString.h **** 	String & operator += (long num)			{concat(num); return (*this);}
 120:core/WString.h **** 	String & operator += (unsigned long num)	{concat(num); return (*this);}
 121:core/WString.h **** 	String & operator += (float num)		{concat(num); return (*this);}
 122:core/WString.h **** 	String & operator += (double num)		{concat(num); return (*this);}
 123:core/WString.h **** 	String & operator += (const __FlashStringHelper *str){concat(str); return (*this);}
 124:core/WString.h **** 
 125:core/WString.h **** 	friend StringSumHelper & operator + (const StringSumHelper &lhs, const String &rhs);
 126:core/WString.h **** 	friend StringSumHelper & operator + (const StringSumHelper &lhs, const char *cstr);
 127:core/WString.h **** 	friend StringSumHelper & operator + (const StringSumHelper &lhs, char c);
 128:core/WString.h **** 	friend StringSumHelper & operator + (const StringSumHelper &lhs, unsigned char num);
 129:core/WString.h **** 	friend StringSumHelper & operator + (const StringSumHelper &lhs, int num);
 130:core/WString.h **** 	friend StringSumHelper & operator + (const StringSumHelper &lhs, unsigned int num);
 131:core/WString.h **** 	friend StringSumHelper & operator + (const StringSumHelper &lhs, long num);
 132:core/WString.h **** 	friend StringSumHelper & operator + (const StringSumHelper &lhs, unsigned long num);
 133:core/WString.h **** 	friend StringSumHelper & operator + (const StringSumHelper &lhs, float num);
 134:core/WString.h **** 	friend StringSumHelper & operator + (const StringSumHelper &lhs, double num);
 135:core/WString.h **** 	friend StringSumHelper & operator + (const StringSumHelper &lhs, const __FlashStringHelper *rhs);
 136:core/WString.h **** 
 137:core/WString.h **** 	// comparison (only works w/ Strings and "strings")
 138:core/WString.h **** 	operator StringIfHelperType() const { return buffer ? &String::StringIfHelper : 0; }
 139:core/WString.h **** 	int compareTo(const String &s) const;
 140:core/WString.h **** 	unsigned char equals(const String &s) const;
 141:core/WString.h **** 	unsigned char equals(const char *cstr) const;
 142:core/WString.h **** 	unsigned char operator == (const String &rhs) const {return equals(rhs);}
 143:core/WString.h **** 	unsigned char operator == (const char *cstr) const {return equals(cstr);}
 144:core/WString.h **** 	unsigned char operator != (const String &rhs) const {return !equals(rhs);}
 145:core/WString.h **** 	unsigned char operator != (const char *cstr) const {return !equals(cstr);}
 146:core/WString.h **** 	unsigned char operator <  (const String &rhs) const;
 147:core/WString.h **** 	unsigned char operator >  (const String &rhs) const;
 148:core/WString.h **** 	unsigned char operator <= (const String &rhs) const;
 149:core/WString.h **** 	unsigned char operator >= (const String &rhs) const;
 150:core/WString.h **** 	unsigned char equalsIgnoreCase(const String &s) const;
 151:core/WString.h **** 	unsigned char startsWith( const String &prefix) const;
 152:core/WString.h **** 	unsigned char startsWith(const String &prefix, unsigned int offset) const;
 153:core/WString.h **** 	unsigned char endsWith(const String &suffix) const;
 154:core/WString.h **** 
 155:core/WString.h **** 	// character acccess
 156:core/WString.h **** 	char charAt(unsigned int index) const;
 157:core/WString.h **** 	void setCharAt(unsigned int index, char c);
 158:core/WString.h **** 	char operator [] (unsigned int index) const;
 159:core/WString.h **** 	char& operator [] (unsigned int index);
 160:core/WString.h **** 	void getBytes(unsigned char *buf, unsigned int bufsize, unsigned int index=0) const;
 161:core/WString.h **** 	void toCharArray(char *buf, unsigned int bufsize, unsigned int index=0) const
ARM GAS  C:\Users\Bruger\AppData\Local\Temp\cc797ORx.s 			page 5


 162:core/WString.h **** 		{getBytes((unsigned char *)buf, bufsize, index);}
 163:core/WString.h **** 	const char * c_str() const { return buffer; }
  68              		.loc 1 163 0
  69              		.cfi_startproc
  70              		@ args = 0, pretend = 0, frame = 8
  71              		@ frame_needed = 1, uses_anonymous_args = 0
  72              		@ link register save eliminated.
  73 0000 80B4     		push	{r7}
  74              		.cfi_def_cfa_offset 4
  75              		.cfi_offset 7, -4
  76 0002 83B0     		sub	sp, sp, #12
  77              		.cfi_def_cfa_offset 16
  78 0004 00AF     		add	r7, sp, #0
  79              		.cfi_def_cfa_register 7
  80 0006 7860     		str	r0, [r7, #4]
  81              		.loc 1 163 0
  82 0008 7B68     		ldr	r3, [r7, #4]
  83 000a 1B68     		ldr	r3, [r3]
  84 000c 1846     		mov	r0, r3
  85 000e 0C37     		adds	r7, r7, #12
  86              		.cfi_def_cfa_offset 4
  87 0010 BD46     		mov	sp, r7
  88              		.cfi_def_cfa_register 13
  89              		@ sp needed
  90 0012 5DF8047B 		ldr	r7, [sp], #4
  91              		.cfi_restore 7
  92              		.cfi_def_cfa_offset 0
  93 0016 7047     		bx	lr
  94              		.cfi_endproc
  95              	.LFE82:
  96              		.cantunwind
  97              		.fnend
  98              		.size	_ZNK6String5c_strEv, .-_ZNK6String5c_strEv
  99              		.section	.text._ZN5Print5writeEPKc,"axG",%progbits,_ZN5Print5writeEPKc,comdat
 100              		.align	2
 101              		.weak	_ZN5Print5writeEPKc
 102              		.thumb
 103              		.thumb_func
 104              		.type	_ZN5Print5writeEPKc, %function
 105              	_ZN5Print5writeEPKc:
 106              		.fnstart
 107              	.LFB123:
 108              		.file 2 "core\\Print.h"
   1:core/Print.h  **** /*
   2:core/Print.h  ****   Print.h - Base class that provides print() and println()
   3:core/Print.h  ****   Copyright (c) 2008 David A. Mellis.  All right reserved.
   4:core/Print.h  **** 
   5:core/Print.h  ****   This library is free software; you can redistribute it and/or
   6:core/Print.h  ****   modify it under the terms of the GNU Lesser General Public
   7:core/Print.h  ****   License as published by the Free Software Foundation; either
   8:core/Print.h  ****   version 2.1 of the License, or (at your option) any later version.
   9:core/Print.h  **** 
  10:core/Print.h  ****   This library is distributed in the hope that it will be useful,
  11:core/Print.h  ****   but WITHOUT ANY WARRANTY; without even the implied warranty of
  12:core/Print.h  ****   MERCHANTABILITY or FITNESS FOR A PARTICULAR PURPOSE.  See the GNU
  13:core/Print.h  ****   Lesser General Public License for more details.
  14:core/Print.h  **** 
ARM GAS  C:\Users\Bruger\AppData\Local\Temp\cc797ORx.s 			page 6


  15:core/Print.h  ****   You should have received a copy of the GNU Lesser General Public
  16:core/Print.h  ****   License along with this library; if not, write to the Free Software
  17:core/Print.h  ****   Foundation, Inc., 51 Franklin St, Fifth Floor, Boston, MA  02110-1301  USA
  18:core/Print.h  **** */
  19:core/Print.h  **** 
  20:core/Print.h  **** #ifndef Print_h
  21:core/Print.h  **** #define Print_h
  22:core/Print.h  **** 
  23:core/Print.h  **** #include <inttypes.h>
  24:core/Print.h  **** #include <stdio.h> // for size_t
  25:core/Print.h  **** 
  26:core/Print.h  **** #include "WString.h"
  27:core/Print.h  **** #include "Printable.h"
  28:core/Print.h  **** 
  29:core/Print.h  **** #define DEC 10
  30:core/Print.h  **** #define HEX 16
  31:core/Print.h  **** #define OCT 8
  32:core/Print.h  **** #define BIN 2
  33:core/Print.h  **** 
  34:core/Print.h  **** class Print
  35:core/Print.h  **** {
  36:core/Print.h  ****   private:
  37:core/Print.h  ****     int write_error;
  38:core/Print.h  ****     size_t printNumber(unsigned long, uint8_t);
  39:core/Print.h  ****     size_t printFloat(double, uint8_t);
  40:core/Print.h  ****   protected:
  41:core/Print.h  ****     void setWriteError(int err = 1) { write_error = err; }
  42:core/Print.h  ****   public:
  43:core/Print.h  ****     Print() : write_error(0) {}
  44:core/Print.h  ****     ~Print(){}
  45:core/Print.h  ****   
  46:core/Print.h  ****     int getWriteError() { return write_error; }
  47:core/Print.h  ****     void clearWriteError() { setWriteError(0); }
  48:core/Print.h  ****   
  49:core/Print.h  ****     virtual size_t write(uint8_t) = 0;
  50:core/Print.h  ****     size_t write(const char *str) {
 109              		.loc 2 50 0
 110              		.cfi_startproc
 111              		@ args = 0, pretend = 0, frame = 8
 112              		@ frame_needed = 1, uses_anonymous_args = 0
 113 0000 90B5     		push	{r4, r7, lr}
 114              		.save {r4, r7, lr}
 115              		.cfi_def_cfa_offset 12
 116              		.cfi_offset 4, -12
 117              		.cfi_offset 7, -8
 118              		.cfi_offset 14, -4
 119              		.pad #12
 120 0002 83B0     		sub	sp, sp, #12
 121              		.cfi_def_cfa_offset 24
 122              		.setfp r7, sp, #0
 123 0004 00AF     		add	r7, sp, #0
 124              		.cfi_def_cfa_register 7
 125 0006 7860     		str	r0, [r7, #4]
 126 0008 3960     		str	r1, [r7]
  51:core/Print.h  ****       if (str == NULL) return 0;
 127              		.loc 2 51 0
 128 000a 3B68     		ldr	r3, [r7]
ARM GAS  C:\Users\Bruger\AppData\Local\Temp\cc797ORx.s 			page 7


 129 000c 002B     		cmp	r3, #0
 130 000e 01D1     		bne	.L6
 131              		.loc 2 51 0 is_stmt 0 discriminator 1
 132 0010 0023     		movs	r3, #0
 133 0012 0CE0     		b	.L7
 134              	.L6:
  52:core/Print.h  ****       return write((const uint8_t *)str, strlen(str));
 135              		.loc 2 52 0 is_stmt 1
 136 0014 7B68     		ldr	r3, [r7, #4]
 137 0016 1B68     		ldr	r3, [r3]
 138 0018 0433     		adds	r3, r3, #4
 139 001a 1C68     		ldr	r4, [r3]
 140 001c 3868     		ldr	r0, [r7]
 141 001e FFF7FEFF 		bl	strlen
 142 0022 0346     		mov	r3, r0
 143 0024 7868     		ldr	r0, [r7, #4]
 144 0026 3968     		ldr	r1, [r7]
 145 0028 1A46     		mov	r2, r3
 146 002a A047     		blx	r4
 147 002c 0346     		mov	r3, r0
 148              	.L7:
  53:core/Print.h  ****     }
 149              		.loc 2 53 0
 150 002e 1846     		mov	r0, r3
 151 0030 0C37     		adds	r7, r7, #12
 152              		.cfi_def_cfa_offset 12
 153 0032 BD46     		mov	sp, r7
 154              		.cfi_def_cfa_register 13
 155              		@ sp needed
 156 0034 90BD     		pop	{r4, r7, pc}
 157              		.cfi_endproc
 158              	.LFE123:
 159              		.fnend
 160              		.size	_ZN5Print5writeEPKc, .-_ZN5Print5writeEPKc
 161 0036 00BF     		.section	.text._ZN5Print5writeEPKcj,"axG",%progbits,_ZN5Print5writeEPKcj,comdat
 162              		.align	2
 163              		.weak	_ZN5Print5writeEPKcj
 164              		.thumb
 165              		.thumb_func
 166              		.type	_ZN5Print5writeEPKcj, %function
 167              	_ZN5Print5writeEPKcj:
 168              		.fnstart
 169              	.LFB124:
  54:core/Print.h  ****     virtual size_t write(const uint8_t *buffer, size_t size);
  55:core/Print.h  ****     size_t write(const char *buffer, size_t size) {
 170              		.loc 2 55 0
 171              		.cfi_startproc
 172              		@ args = 0, pretend = 0, frame = 16
 173              		@ frame_needed = 1, uses_anonymous_args = 0
 174 0000 80B5     		push	{r7, lr}
 175              		.save {r7, lr}
 176              		.cfi_def_cfa_offset 8
 177              		.cfi_offset 7, -8
 178              		.cfi_offset 14, -4
 179              		.pad #16
 180 0002 84B0     		sub	sp, sp, #16
 181              		.cfi_def_cfa_offset 24
ARM GAS  C:\Users\Bruger\AppData\Local\Temp\cc797ORx.s 			page 8


 182              		.setfp r7, sp, #0
 183 0004 00AF     		add	r7, sp, #0
 184              		.cfi_def_cfa_register 7
 185 0006 F860     		str	r0, [r7, #12]
 186 0008 B960     		str	r1, [r7, #8]
 187 000a 7A60     		str	r2, [r7, #4]
  56:core/Print.h  ****       return write((const uint8_t *)buffer, size);
 188              		.loc 2 56 0
 189 000c FB68     		ldr	r3, [r7, #12]
 190 000e 1B68     		ldr	r3, [r3]
 191 0010 0433     		adds	r3, r3, #4
 192 0012 1B68     		ldr	r3, [r3]
 193 0014 F868     		ldr	r0, [r7, #12]
 194 0016 B968     		ldr	r1, [r7, #8]
 195 0018 7A68     		ldr	r2, [r7, #4]
 196 001a 9847     		blx	r3
 197 001c 0346     		mov	r3, r0
  57:core/Print.h  ****     }
 198              		.loc 2 57 0
 199 001e 1846     		mov	r0, r3
 200 0020 1037     		adds	r7, r7, #16
 201              		.cfi_def_cfa_offset 8
 202 0022 BD46     		mov	sp, r7
 203              		.cfi_def_cfa_register 13
 204              		@ sp needed
 205 0024 80BD     		pop	{r7, pc}
 206              		.cfi_endproc
 207              	.LFE124:
 208              		.fnend
 209              		.size	_ZN5Print5writeEPKcj, .-_ZN5Print5writeEPKcj
 210 0026 00BF     		.section	.text._ZN5Print5writeEPKhj,"ax",%progbits
 211              		.align	2
 212              		.global	_ZN5Print5writeEPKhj
 213              		.thumb
 214              		.thumb_func
 215              		.type	_ZN5Print5writeEPKhj, %function
 216              	_ZN5Print5writeEPKhj:
 217              		.fnstart
 218              	.LFB147:
 219              		.file 3 "core\\Print.cpp"
   1:core/Print.cpp **** /*
   2:core/Print.cpp ****  Print.cpp - Base class that provides print() and println()
   3:core/Print.cpp ****  Copyright (c) 2008 David A. Mellis.  All right reserved.
   4:core/Print.cpp ****  
   5:core/Print.cpp ****  This library is free software; you can redistribute it and/or
   6:core/Print.cpp ****  modify it under the terms of the GNU Lesser General Public
   7:core/Print.cpp ****  License as published by the Free Software Foundation; either
   8:core/Print.cpp ****  version 2.1 of the License, or (at your option) any later version.
   9:core/Print.cpp ****  
  10:core/Print.cpp ****  This library is distributed in the hope that it will be useful,
  11:core/Print.cpp ****  but WITHOUT ANY WARRANTY; without even the implied warranty of
  12:core/Print.cpp ****  MERCHANTABILITY or FITNESS FOR A PARTICULAR PURPOSE.  See the GNU
  13:core/Print.cpp ****  Lesser General Public License for more details.
  14:core/Print.cpp ****  
  15:core/Print.cpp ****  You should have received a copy of the GNU Lesser General Public
  16:core/Print.cpp ****  License along with this library; if not, write to the Free Software
  17:core/Print.cpp ****  Foundation, Inc., 51 Franklin St, Fifth Floor, Boston, MA  02110-1301  USA
ARM GAS  C:\Users\Bruger\AppData\Local\Temp\cc797ORx.s 			page 9


  18:core/Print.cpp ****  
  19:core/Print.cpp ****  Modified 23 November 2006 by David A. Mellis
  20:core/Print.cpp ****  */
  21:core/Print.cpp **** 
  22:core/Print.cpp **** #include <stdlib.h>
  23:core/Print.cpp **** #include <stdio.h>
  24:core/Print.cpp **** #include <string.h>
  25:core/Print.cpp **** #include <math.h>
  26:core/Print.cpp **** #include "Arduino.h"
  27:core/Print.cpp **** 
  28:core/Print.cpp **** #include "Print.h"
  29:core/Print.cpp **** 
  30:core/Print.cpp **** // Public Methods //////////////////////////////////////////////////////////////
  31:core/Print.cpp **** 
  32:core/Print.cpp **** /* default implementation: may be overridden */
  33:core/Print.cpp **** size_t Print::write(const uint8_t *buffer, size_t size)
  34:core/Print.cpp **** {
 220              		.loc 3 34 0
 221              		.cfi_startproc
 222              		@ args = 0, pretend = 0, frame = 24
 223              		@ frame_needed = 1, uses_anonymous_args = 0
 224 0000 80B5     		push	{r7, lr}
 225              		.save {r7, lr}
 226              		.cfi_def_cfa_offset 8
 227              		.cfi_offset 7, -8
 228              		.cfi_offset 14, -4
 229              		.pad #24
 230 0002 86B0     		sub	sp, sp, #24
 231              		.cfi_def_cfa_offset 32
 232              		.setfp r7, sp, #0
 233 0004 00AF     		add	r7, sp, #0
 234              		.cfi_def_cfa_register 7
 235 0006 F860     		str	r0, [r7, #12]
 236 0008 B960     		str	r1, [r7, #8]
 237 000a 7A60     		str	r2, [r7, #4]
 238              	.LBB2:
  35:core/Print.cpp ****   size_t n = 0;
 239              		.loc 3 35 0
 240 000c 0023     		movs	r3, #0
 241 000e 7B61     		str	r3, [r7, #20]
  36:core/Print.cpp ****   while (size--) {
 242              		.loc 3 36 0
 243 0010 0DE0     		b	.L11
 244              	.L12:
  37:core/Print.cpp ****     n += write(*buffer++);
 245              		.loc 3 37 0
 246 0012 FB68     		ldr	r3, [r7, #12]
 247 0014 1B68     		ldr	r3, [r3]
 248 0016 1A68     		ldr	r2, [r3]
 249 0018 BB68     		ldr	r3, [r7, #8]
 250 001a 591C     		adds	r1, r3, #1
 251 001c B960     		str	r1, [r7, #8]
 252 001e 1B78     		ldrb	r3, [r3]	@ zero_extendqisi2
 253 0020 F868     		ldr	r0, [r7, #12]
 254 0022 1946     		mov	r1, r3
 255 0024 9047     		blx	r2
 256 0026 0246     		mov	r2, r0
ARM GAS  C:\Users\Bruger\AppData\Local\Temp\cc797ORx.s 			page 10


 257 0028 7B69     		ldr	r3, [r7, #20]
 258 002a 1344     		add	r3, r3, r2
 259 002c 7B61     		str	r3, [r7, #20]
 260              	.L11:
  36:core/Print.cpp ****   while (size--) {
 261              		.loc 3 36 0
 262 002e 7B68     		ldr	r3, [r7, #4]
 263 0030 5A1E     		subs	r2, r3, #1
 264 0032 7A60     		str	r2, [r7, #4]
 265 0034 002B     		cmp	r3, #0
 266 0036 14BF     		ite	ne
 267 0038 0123     		movne	r3, #1
 268 003a 0023     		moveq	r3, #0
 269 003c DBB2     		uxtb	r3, r3
 270 003e 002B     		cmp	r3, #0
 271 0040 E7D1     		bne	.L12
  38:core/Print.cpp ****   }
  39:core/Print.cpp ****   return n;
 272              		.loc 3 39 0
 273 0042 7B69     		ldr	r3, [r7, #20]
 274              	.LBE2:
  40:core/Print.cpp **** }
 275              		.loc 3 40 0
 276 0044 1846     		mov	r0, r3
 277 0046 1837     		adds	r7, r7, #24
 278              		.cfi_def_cfa_offset 8
 279 0048 BD46     		mov	sp, r7
 280              		.cfi_def_cfa_register 13
 281              		@ sp needed
 282 004a 80BD     		pop	{r7, pc}
 283              		.cfi_endproc
 284              	.LFE147:
 285              		.fnend
 286              		.size	_ZN5Print5writeEPKhj, .-_ZN5Print5writeEPKhj
 287              		.section	.text._ZN5Print5printEPK19__FlashStringHelper,"ax",%progbits
 288              		.align	2
 289              		.global	_ZN5Print5printEPK19__FlashStringHelper
 290              		.thumb
 291              		.thumb_func
 292              		.type	_ZN5Print5printEPK19__FlashStringHelper, %function
 293              	_ZN5Print5printEPK19__FlashStringHelper:
 294              		.fnstart
 295              	.LFB148:
  41:core/Print.cpp **** 
  42:core/Print.cpp **** size_t Print::print(const __FlashStringHelper *ifsh)
  43:core/Print.cpp **** {
 296              		.loc 3 43 0
 297              		.cfi_startproc
 298              		@ args = 0, pretend = 0, frame = 8
 299              		@ frame_needed = 1, uses_anonymous_args = 0
 300 0000 80B5     		push	{r7, lr}
 301              		.save {r7, lr}
 302              		.cfi_def_cfa_offset 8
 303              		.cfi_offset 7, -8
 304              		.cfi_offset 14, -4
 305              		.pad #8
 306 0002 82B0     		sub	sp, sp, #8
ARM GAS  C:\Users\Bruger\AppData\Local\Temp\cc797ORx.s 			page 11


 307              		.cfi_def_cfa_offset 16
 308              		.setfp r7, sp, #0
 309 0004 00AF     		add	r7, sp, #0
 310              		.cfi_def_cfa_register 7
 311 0006 7860     		str	r0, [r7, #4]
 312 0008 3960     		str	r1, [r7]
  44:core/Print.cpp ****   return print(reinterpret_cast<const char *>(ifsh));
 313              		.loc 3 44 0
 314 000a 7868     		ldr	r0, [r7, #4]
 315 000c 3968     		ldr	r1, [r7]
 316 000e FFF7FEFF 		bl	_ZN5Print5printEPKc
 317 0012 0346     		mov	r3, r0
  45:core/Print.cpp **** }
 318              		.loc 3 45 0
 319 0014 1846     		mov	r0, r3
 320 0016 0837     		adds	r7, r7, #8
 321              		.cfi_def_cfa_offset 8
 322 0018 BD46     		mov	sp, r7
 323              		.cfi_def_cfa_register 13
 324              		@ sp needed
 325 001a 80BD     		pop	{r7, pc}
 326              		.cfi_endproc
 327              	.LFE148:
 328              		.fnend
 329              		.size	_ZN5Print5printEPK19__FlashStringHelper, .-_ZN5Print5printEPK19__FlashStringHelper
 330              		.section	.text._ZN5Print5printERK6String,"ax",%progbits
 331              		.align	2
 332              		.global	_ZN5Print5printERK6String
 333              		.thumb
 334              		.thumb_func
 335              		.type	_ZN5Print5printERK6String, %function
 336              	_ZN5Print5printERK6String:
 337              		.fnstart
 338              	.LFB149:
  46:core/Print.cpp **** 
  47:core/Print.cpp **** size_t Print::print(const String &s)
  48:core/Print.cpp **** {
 339              		.loc 3 48 0
 340              		.cfi_startproc
 341              		@ args = 0, pretend = 0, frame = 8
 342              		@ frame_needed = 1, uses_anonymous_args = 0
 343 0000 90B5     		push	{r4, r7, lr}
 344              		.save {r4, r7, lr}
 345              		.cfi_def_cfa_offset 12
 346              		.cfi_offset 4, -12
 347              		.cfi_offset 7, -8
 348              		.cfi_offset 14, -4
 349              		.pad #12
 350 0002 83B0     		sub	sp, sp, #12
 351              		.cfi_def_cfa_offset 24
 352              		.setfp r7, sp, #0
 353 0004 00AF     		add	r7, sp, #0
 354              		.cfi_def_cfa_register 7
 355 0006 7860     		str	r0, [r7, #4]
 356 0008 3960     		str	r1, [r7]
  49:core/Print.cpp ****   return write(s.c_str(), s.length());
 357              		.loc 3 49 0
ARM GAS  C:\Users\Bruger\AppData\Local\Temp\cc797ORx.s 			page 12


 358 000a 3868     		ldr	r0, [r7]
 359 000c FFF7FEFF 		bl	_ZNK6String5c_strEv
 360 0010 0446     		mov	r4, r0
 361 0012 3868     		ldr	r0, [r7]
 362 0014 FFF7FEFF 		bl	_ZNK6String6lengthEv
 363 0018 0346     		mov	r3, r0
 364 001a 7868     		ldr	r0, [r7, #4]
 365 001c 2146     		mov	r1, r4
 366 001e 1A46     		mov	r2, r3
 367 0020 FFF7FEFF 		bl	_ZN5Print5writeEPKcj
 368 0024 0346     		mov	r3, r0
  50:core/Print.cpp **** }
 369              		.loc 3 50 0
 370 0026 1846     		mov	r0, r3
 371 0028 0C37     		adds	r7, r7, #12
 372              		.cfi_def_cfa_offset 12
 373 002a BD46     		mov	sp, r7
 374              		.cfi_def_cfa_register 13
 375              		@ sp needed
 376 002c 90BD     		pop	{r4, r7, pc}
 377              		.cfi_endproc
 378              	.LFE149:
 379              		.fnend
 380              		.size	_ZN5Print5printERK6String, .-_ZN5Print5printERK6String
 381 002e 00BF     		.section	.text._ZN5Print5printEPKc,"ax",%progbits
 382              		.align	2
 383              		.global	_ZN5Print5printEPKc
 384              		.thumb
 385              		.thumb_func
 386              		.type	_ZN5Print5printEPKc, %function
 387              	_ZN5Print5printEPKc:
 388              		.fnstart
 389              	.LFB150:
  51:core/Print.cpp **** 
  52:core/Print.cpp **** size_t Print::print(const char str[])
  53:core/Print.cpp **** {
 390              		.loc 3 53 0
 391              		.cfi_startproc
 392              		@ args = 0, pretend = 0, frame = 8
 393              		@ frame_needed = 1, uses_anonymous_args = 0
 394 0000 80B5     		push	{r7, lr}
 395              		.save {r7, lr}
 396              		.cfi_def_cfa_offset 8
 397              		.cfi_offset 7, -8
 398              		.cfi_offset 14, -4
 399              		.pad #8
 400 0002 82B0     		sub	sp, sp, #8
 401              		.cfi_def_cfa_offset 16
 402              		.setfp r7, sp, #0
 403 0004 00AF     		add	r7, sp, #0
 404              		.cfi_def_cfa_register 7
 405 0006 7860     		str	r0, [r7, #4]
 406 0008 3960     		str	r1, [r7]
  54:core/Print.cpp ****   return write(str);
 407              		.loc 3 54 0
 408 000a 7868     		ldr	r0, [r7, #4]
 409 000c 3968     		ldr	r1, [r7]
ARM GAS  C:\Users\Bruger\AppData\Local\Temp\cc797ORx.s 			page 13


 410 000e FFF7FEFF 		bl	_ZN5Print5writeEPKc
 411 0012 0346     		mov	r3, r0
  55:core/Print.cpp **** }
 412              		.loc 3 55 0
 413 0014 1846     		mov	r0, r3
 414 0016 0837     		adds	r7, r7, #8
 415              		.cfi_def_cfa_offset 8
 416 0018 BD46     		mov	sp, r7
 417              		.cfi_def_cfa_register 13
 418              		@ sp needed
 419 001a 80BD     		pop	{r7, pc}
 420              		.cfi_endproc
 421              	.LFE150:
 422              		.fnend
 423              		.size	_ZN5Print5printEPKc, .-_ZN5Print5printEPKc
 424              		.section	.text._ZN5Print5printEc,"ax",%progbits
 425              		.align	2
 426              		.global	_ZN5Print5printEc
 427              		.thumb
 428              		.thumb_func
 429              		.type	_ZN5Print5printEc, %function
 430              	_ZN5Print5printEc:
 431              		.fnstart
 432              	.LFB151:
  56:core/Print.cpp **** 
  57:core/Print.cpp **** size_t Print::print(char c)
  58:core/Print.cpp **** {
 433              		.loc 3 58 0
 434              		.cfi_startproc
 435              		@ args = 0, pretend = 0, frame = 8
 436              		@ frame_needed = 1, uses_anonymous_args = 0
 437 0000 80B5     		push	{r7, lr}
 438              		.save {r7, lr}
 439              		.cfi_def_cfa_offset 8
 440              		.cfi_offset 7, -8
 441              		.cfi_offset 14, -4
 442              		.pad #8
 443 0002 82B0     		sub	sp, sp, #8
 444              		.cfi_def_cfa_offset 16
 445              		.setfp r7, sp, #0
 446 0004 00AF     		add	r7, sp, #0
 447              		.cfi_def_cfa_register 7
 448 0006 7860     		str	r0, [r7, #4]
 449 0008 0B46     		mov	r3, r1
 450 000a FB70     		strb	r3, [r7, #3]
  59:core/Print.cpp ****   return write(c);
 451              		.loc 3 59 0
 452 000c 7B68     		ldr	r3, [r7, #4]
 453 000e 1B68     		ldr	r3, [r3]
 454 0010 1B68     		ldr	r3, [r3]
 455 0012 FA78     		ldrb	r2, [r7, #3]	@ zero_extendqisi2
 456 0014 7868     		ldr	r0, [r7, #4]
 457 0016 1146     		mov	r1, r2
 458 0018 9847     		blx	r3
 459 001a 0346     		mov	r3, r0
  60:core/Print.cpp **** }
 460              		.loc 3 60 0
ARM GAS  C:\Users\Bruger\AppData\Local\Temp\cc797ORx.s 			page 14


 461 001c 1846     		mov	r0, r3
 462 001e 0837     		adds	r7, r7, #8
 463              		.cfi_def_cfa_offset 8
 464 0020 BD46     		mov	sp, r7
 465              		.cfi_def_cfa_register 13
 466              		@ sp needed
 467 0022 80BD     		pop	{r7, pc}
 468              		.cfi_endproc
 469              	.LFE151:
 470              		.fnend
 471              		.size	_ZN5Print5printEc, .-_ZN5Print5printEc
 472              		.section	.text._ZN5Print5printEhi,"ax",%progbits
 473              		.align	2
 474              		.global	_ZN5Print5printEhi
 475              		.thumb
 476              		.thumb_func
 477              		.type	_ZN5Print5printEhi, %function
 478              	_ZN5Print5printEhi:
 479              		.fnstart
 480              	.LFB152:
  61:core/Print.cpp **** 
  62:core/Print.cpp **** size_t Print::print(unsigned char b, int base)
  63:core/Print.cpp **** {
 481              		.loc 3 63 0
 482              		.cfi_startproc
 483              		@ args = 0, pretend = 0, frame = 16
 484              		@ frame_needed = 1, uses_anonymous_args = 0
 485 0000 80B5     		push	{r7, lr}
 486              		.save {r7, lr}
 487              		.cfi_def_cfa_offset 8
 488              		.cfi_offset 7, -8
 489              		.cfi_offset 14, -4
 490              		.pad #16
 491 0002 84B0     		sub	sp, sp, #16
 492              		.cfi_def_cfa_offset 24
 493              		.setfp r7, sp, #0
 494 0004 00AF     		add	r7, sp, #0
 495              		.cfi_def_cfa_register 7
 496 0006 F860     		str	r0, [r7, #12]
 497 0008 0B46     		mov	r3, r1
 498 000a 7A60     		str	r2, [r7, #4]
 499 000c FB72     		strb	r3, [r7, #11]
  64:core/Print.cpp ****   return print((unsigned long) b, base);
 500              		.loc 3 64 0
 501 000e FB7A     		ldrb	r3, [r7, #11]	@ zero_extendqisi2
 502 0010 F868     		ldr	r0, [r7, #12]
 503 0012 1946     		mov	r1, r3
 504 0014 7A68     		ldr	r2, [r7, #4]
 505 0016 FFF7FEFF 		bl	_ZN5Print5printEmi
 506 001a 0346     		mov	r3, r0
  65:core/Print.cpp **** }
 507              		.loc 3 65 0
 508 001c 1846     		mov	r0, r3
 509 001e 1037     		adds	r7, r7, #16
 510              		.cfi_def_cfa_offset 8
 511 0020 BD46     		mov	sp, r7
 512              		.cfi_def_cfa_register 13
ARM GAS  C:\Users\Bruger\AppData\Local\Temp\cc797ORx.s 			page 15


 513              		@ sp needed
 514 0022 80BD     		pop	{r7, pc}
 515              		.cfi_endproc
 516              	.LFE152:
 517              		.fnend
 518              		.size	_ZN5Print5printEhi, .-_ZN5Print5printEhi
 519              		.section	.text._ZN5Print5printEii,"ax",%progbits
 520              		.align	2
 521              		.global	_ZN5Print5printEii
 522              		.thumb
 523              		.thumb_func
 524              		.type	_ZN5Print5printEii, %function
 525              	_ZN5Print5printEii:
 526              		.fnstart
 527              	.LFB153:
  66:core/Print.cpp **** 
  67:core/Print.cpp **** size_t Print::print(int n, int base)
  68:core/Print.cpp **** {
 528              		.loc 3 68 0
 529              		.cfi_startproc
 530              		@ args = 0, pretend = 0, frame = 16
 531              		@ frame_needed = 1, uses_anonymous_args = 0
 532 0000 80B5     		push	{r7, lr}
 533              		.save {r7, lr}
 534              		.cfi_def_cfa_offset 8
 535              		.cfi_offset 7, -8
 536              		.cfi_offset 14, -4
 537              		.pad #16
 538 0002 84B0     		sub	sp, sp, #16
 539              		.cfi_def_cfa_offset 24
 540              		.setfp r7, sp, #0
 541 0004 00AF     		add	r7, sp, #0
 542              		.cfi_def_cfa_register 7
 543 0006 F860     		str	r0, [r7, #12]
 544 0008 B960     		str	r1, [r7, #8]
 545 000a 7A60     		str	r2, [r7, #4]
  69:core/Print.cpp ****   return print((long) n, base);
 546              		.loc 3 69 0
 547 000c F868     		ldr	r0, [r7, #12]
 548 000e B968     		ldr	r1, [r7, #8]
 549 0010 7A68     		ldr	r2, [r7, #4]
 550 0012 FFF7FEFF 		bl	_ZN5Print5printEli
 551 0016 0346     		mov	r3, r0
  70:core/Print.cpp **** }
 552              		.loc 3 70 0
 553 0018 1846     		mov	r0, r3
 554 001a 1037     		adds	r7, r7, #16
 555              		.cfi_def_cfa_offset 8
 556 001c BD46     		mov	sp, r7
 557              		.cfi_def_cfa_register 13
 558              		@ sp needed
 559 001e 80BD     		pop	{r7, pc}
 560              		.cfi_endproc
 561              	.LFE153:
 562              		.fnend
 563              		.size	_ZN5Print5printEii, .-_ZN5Print5printEii
 564              		.section	.text._ZN5Print5printEji,"ax",%progbits
ARM GAS  C:\Users\Bruger\AppData\Local\Temp\cc797ORx.s 			page 16


 565              		.align	2
 566              		.global	_ZN5Print5printEji
 567              		.thumb
 568              		.thumb_func
 569              		.type	_ZN5Print5printEji, %function
 570              	_ZN5Print5printEji:
 571              		.fnstart
 572              	.LFB154:
  71:core/Print.cpp **** 
  72:core/Print.cpp **** size_t Print::print(unsigned int n, int base)
  73:core/Print.cpp **** {
 573              		.loc 3 73 0
 574              		.cfi_startproc
 575              		@ args = 0, pretend = 0, frame = 16
 576              		@ frame_needed = 1, uses_anonymous_args = 0
 577 0000 80B5     		push	{r7, lr}
 578              		.save {r7, lr}
 579              		.cfi_def_cfa_offset 8
 580              		.cfi_offset 7, -8
 581              		.cfi_offset 14, -4
 582              		.pad #16
 583 0002 84B0     		sub	sp, sp, #16
 584              		.cfi_def_cfa_offset 24
 585              		.setfp r7, sp, #0
 586 0004 00AF     		add	r7, sp, #0
 587              		.cfi_def_cfa_register 7
 588 0006 F860     		str	r0, [r7, #12]
 589 0008 B960     		str	r1, [r7, #8]
 590 000a 7A60     		str	r2, [r7, #4]
  74:core/Print.cpp ****   return print((unsigned long) n, base);
 591              		.loc 3 74 0
 592 000c F868     		ldr	r0, [r7, #12]
 593 000e B968     		ldr	r1, [r7, #8]
 594 0010 7A68     		ldr	r2, [r7, #4]
 595 0012 FFF7FEFF 		bl	_ZN5Print5printEmi
 596 0016 0346     		mov	r3, r0
  75:core/Print.cpp **** }
 597              		.loc 3 75 0
 598 0018 1846     		mov	r0, r3
 599 001a 1037     		adds	r7, r7, #16
 600              		.cfi_def_cfa_offset 8
 601 001c BD46     		mov	sp, r7
 602              		.cfi_def_cfa_register 13
 603              		@ sp needed
 604 001e 80BD     		pop	{r7, pc}
 605              		.cfi_endproc
 606              	.LFE154:
 607              		.fnend
 608              		.size	_ZN5Print5printEji, .-_ZN5Print5printEji
 609              		.section	.text._ZN5Print5printEli,"ax",%progbits
 610              		.align	2
 611              		.global	_ZN5Print5printEli
 612              		.thumb
 613              		.thumb_func
 614              		.type	_ZN5Print5printEli, %function
 615              	_ZN5Print5printEli:
 616              		.fnstart
ARM GAS  C:\Users\Bruger\AppData\Local\Temp\cc797ORx.s 			page 17


 617              	.LFB155:
  76:core/Print.cpp **** 
  77:core/Print.cpp **** size_t Print::print(long n, int base)
  78:core/Print.cpp **** {
 618              		.loc 3 78 0
 619              		.cfi_startproc
 620              		@ args = 0, pretend = 0, frame = 24
 621              		@ frame_needed = 1, uses_anonymous_args = 0
 622 0000 80B5     		push	{r7, lr}
 623              		.save {r7, lr}
 624              		.cfi_def_cfa_offset 8
 625              		.cfi_offset 7, -8
 626              		.cfi_offset 14, -4
 627              		.pad #24
 628 0002 86B0     		sub	sp, sp, #24
 629              		.cfi_def_cfa_offset 32
 630              		.setfp r7, sp, #0
 631 0004 00AF     		add	r7, sp, #0
 632              		.cfi_def_cfa_register 7
 633 0006 F860     		str	r0, [r7, #12]
 634 0008 B960     		str	r1, [r7, #8]
 635 000a 7A60     		str	r2, [r7, #4]
 636              	.LBB3:
 637              	.LBB4:
  79:core/Print.cpp ****   if (base == 0) {
 638              		.loc 3 79 0
 639 000c 7B68     		ldr	r3, [r7, #4]
 640 000e 002B     		cmp	r3, #0
 641 0010 09D1     		bne	.L29
  80:core/Print.cpp ****     return write(n);
 642              		.loc 3 80 0
 643 0012 FB68     		ldr	r3, [r7, #12]
 644 0014 1B68     		ldr	r3, [r3]
 645 0016 1B68     		ldr	r3, [r3]
 646 0018 BA68     		ldr	r2, [r7, #8]
 647 001a D2B2     		uxtb	r2, r2
 648 001c F868     		ldr	r0, [r7, #12]
 649 001e 1146     		mov	r1, r2
 650 0020 9847     		blx	r3
 651 0022 0346     		mov	r3, r0
 652 0024 29E0     		b	.L30
 653              	.L29:
 654              	.LBB5:
 655              	.LBB6:
  81:core/Print.cpp ****   } else if (base == 10) {
 656              		.loc 3 81 0
 657 0026 7B68     		ldr	r3, [r7, #4]
 658 0028 0A2B     		cmp	r3, #10
 659 002a 1DD1     		bne	.L31
 660              	.LBB7:
 661              	.LBB8:
  82:core/Print.cpp ****     if (n < 0) {
 662              		.loc 3 82 0
 663 002c BB68     		ldr	r3, [r7, #8]
 664 002e 002B     		cmp	r3, #0
 665 0030 12DA     		bge	.L32
 666              	.LBB9:
ARM GAS  C:\Users\Bruger\AppData\Local\Temp\cc797ORx.s 			page 18


  83:core/Print.cpp ****       int t = print('-');
 667              		.loc 3 83 0
 668 0032 F868     		ldr	r0, [r7, #12]
 669 0034 2D21     		movs	r1, #45
 670 0036 FFF7FEFF 		bl	_ZN5Print5printEc
 671 003a 0346     		mov	r3, r0
 672 003c 7B61     		str	r3, [r7, #20]
  84:core/Print.cpp ****       n = -n;
 673              		.loc 3 84 0
 674 003e BB68     		ldr	r3, [r7, #8]
 675 0040 5B42     		negs	r3, r3
 676 0042 BB60     		str	r3, [r7, #8]
  85:core/Print.cpp ****       return printNumber(n, 10) + t;
 677              		.loc 3 85 0
 678 0044 BB68     		ldr	r3, [r7, #8]
 679 0046 F868     		ldr	r0, [r7, #12]
 680 0048 1946     		mov	r1, r3
 681 004a 0A22     		movs	r2, #10
 682 004c FFF7FEFF 		bl	_ZN5Print11printNumberEmh
 683 0050 0246     		mov	r2, r0
 684 0052 7B69     		ldr	r3, [r7, #20]
 685 0054 1344     		add	r3, r3, r2
 686 0056 10E0     		b	.L30
 687              	.L32:
 688              	.LBE9:
 689              	.LBE8:
  86:core/Print.cpp ****     }
  87:core/Print.cpp ****     return printNumber(n, 10);
 690              		.loc 3 87 0
 691 0058 BB68     		ldr	r3, [r7, #8]
 692 005a F868     		ldr	r0, [r7, #12]
 693 005c 1946     		mov	r1, r3
 694 005e 0A22     		movs	r2, #10
 695 0060 FFF7FEFF 		bl	_ZN5Print11printNumberEmh
 696 0064 0346     		mov	r3, r0
 697 0066 08E0     		b	.L30
 698              	.L31:
 699              	.LBE7:
  88:core/Print.cpp ****   } else {
  89:core/Print.cpp ****     return printNumber(n, base);
 700              		.loc 3 89 0
 701 0068 BA68     		ldr	r2, [r7, #8]
 702 006a 7B68     		ldr	r3, [r7, #4]
 703 006c DBB2     		uxtb	r3, r3
 704 006e F868     		ldr	r0, [r7, #12]
 705 0070 1146     		mov	r1, r2
 706 0072 1A46     		mov	r2, r3
 707 0074 FFF7FEFF 		bl	_ZN5Print11printNumberEmh
 708 0078 0346     		mov	r3, r0
 709              	.L30:
 710              	.LBE6:
 711              	.LBE5:
 712              	.LBE4:
 713              	.LBE3:
  90:core/Print.cpp ****   }
  91:core/Print.cpp **** }
 714              		.loc 3 91 0
ARM GAS  C:\Users\Bruger\AppData\Local\Temp\cc797ORx.s 			page 19


 715 007a 1846     		mov	r0, r3
 716 007c 1837     		adds	r7, r7, #24
 717              		.cfi_def_cfa_offset 8
 718 007e BD46     		mov	sp, r7
 719              		.cfi_def_cfa_register 13
 720              		@ sp needed
 721 0080 80BD     		pop	{r7, pc}
 722              		.cfi_endproc
 723              	.LFE155:
 724              		.fnend
 725              		.size	_ZN5Print5printEli, .-_ZN5Print5printEli
 726 0082 00BF     		.section	.text._ZN5Print5printEmi,"ax",%progbits
 727              		.align	2
 728              		.global	_ZN5Print5printEmi
 729              		.thumb
 730              		.thumb_func
 731              		.type	_ZN5Print5printEmi, %function
 732              	_ZN5Print5printEmi:
 733              		.fnstart
 734              	.LFB156:
  92:core/Print.cpp **** 
  93:core/Print.cpp **** size_t Print::print(unsigned long n, int base)
  94:core/Print.cpp **** {
 735              		.loc 3 94 0
 736              		.cfi_startproc
 737              		@ args = 0, pretend = 0, frame = 16
 738              		@ frame_needed = 1, uses_anonymous_args = 0
 739 0000 80B5     		push	{r7, lr}
 740              		.save {r7, lr}
 741              		.cfi_def_cfa_offset 8
 742              		.cfi_offset 7, -8
 743              		.cfi_offset 14, -4
 744              		.pad #16
 745 0002 84B0     		sub	sp, sp, #16
 746              		.cfi_def_cfa_offset 24
 747              		.setfp r7, sp, #0
 748 0004 00AF     		add	r7, sp, #0
 749              		.cfi_def_cfa_register 7
 750 0006 F860     		str	r0, [r7, #12]
 751 0008 B960     		str	r1, [r7, #8]
 752 000a 7A60     		str	r2, [r7, #4]
  95:core/Print.cpp ****   if (base == 0) return write(n);
 753              		.loc 3 95 0
 754 000c 7B68     		ldr	r3, [r7, #4]
 755 000e 002B     		cmp	r3, #0
 756 0010 09D1     		bne	.L34
 757              		.loc 3 95 0 is_stmt 0 discriminator 1
 758 0012 FB68     		ldr	r3, [r7, #12]
 759 0014 1B68     		ldr	r3, [r3]
 760 0016 1B68     		ldr	r3, [r3]
 761 0018 BA68     		ldr	r2, [r7, #8]
 762 001a D2B2     		uxtb	r2, r2
 763 001c F868     		ldr	r0, [r7, #12]
 764 001e 1146     		mov	r1, r2
 765 0020 9847     		blx	r3
 766 0022 0346     		mov	r3, r0
 767 0024 07E0     		b	.L35
ARM GAS  C:\Users\Bruger\AppData\Local\Temp\cc797ORx.s 			page 20


 768              	.L34:
  96:core/Print.cpp ****   else return printNumber(n, base);
 769              		.loc 3 96 0 is_stmt 1
 770 0026 7B68     		ldr	r3, [r7, #4]
 771 0028 DBB2     		uxtb	r3, r3
 772 002a F868     		ldr	r0, [r7, #12]
 773 002c B968     		ldr	r1, [r7, #8]
 774 002e 1A46     		mov	r2, r3
 775 0030 FFF7FEFF 		bl	_ZN5Print11printNumberEmh
 776 0034 0346     		mov	r3, r0
 777              	.L35:
  97:core/Print.cpp **** }
 778              		.loc 3 97 0
 779 0036 1846     		mov	r0, r3
 780 0038 1037     		adds	r7, r7, #16
 781              		.cfi_def_cfa_offset 8
 782 003a BD46     		mov	sp, r7
 783              		.cfi_def_cfa_register 13
 784              		@ sp needed
 785 003c 80BD     		pop	{r7, pc}
 786              		.cfi_endproc
 787              	.LFE156:
 788              		.fnend
 789              		.size	_ZN5Print5printEmi, .-_ZN5Print5printEmi
 790 003e 00BF     		.section	.text._ZN5Print5printEdi,"ax",%progbits
 791              		.align	2
 792              		.global	_ZN5Print5printEdi
 793              		.thumb
 794              		.thumb_func
 795              		.type	_ZN5Print5printEdi, %function
 796              	_ZN5Print5printEdi:
 797              		.fnstart
 798              	.LFB157:
  98:core/Print.cpp **** 
  99:core/Print.cpp **** size_t Print::print(double n, int digits)
 100:core/Print.cpp **** {
 799              		.loc 3 100 0
 800              		.cfi_startproc
 801              		@ args = 4, pretend = 0, frame = 16
 802              		@ frame_needed = 1, uses_anonymous_args = 0
 803 0000 80B5     		push	{r7, lr}
 804              		.save {r7, lr}
 805              		.cfi_def_cfa_offset 8
 806              		.cfi_offset 7, -8
 807              		.cfi_offset 14, -4
 808              		.pad #24
 809 0002 86B0     		sub	sp, sp, #24
 810              		.cfi_def_cfa_offset 32
 811              		.setfp r7, sp, #8
 812 0004 02AF     		add	r7, sp, #8
 813              		.cfi_def_cfa 7, 24
 814 0006 F860     		str	r0, [r7, #12]
 815 0008 C7E90023 		strd	r2, [r7]
 101:core/Print.cpp ****   return printFloat(n, digits);
 816              		.loc 3 101 0
 817 000c BB69     		ldr	r3, [r7, #24]
 818 000e DBB2     		uxtb	r3, r3
ARM GAS  C:\Users\Bruger\AppData\Local\Temp\cc797ORx.s 			page 21


 819 0010 0093     		str	r3, [sp]
 820 0012 F868     		ldr	r0, [r7, #12]
 821 0014 D7E90023 		ldrd	r2, [r7]
 822 0018 FFF7FEFF 		bl	_ZN5Print10printFloatEdh
 823 001c 0346     		mov	r3, r0
 102:core/Print.cpp **** }
 824              		.loc 3 102 0
 825 001e 1846     		mov	r0, r3
 826 0020 1037     		adds	r7, r7, #16
 827              		.cfi_def_cfa_offset 8
 828 0022 BD46     		mov	sp, r7
 829              		.cfi_def_cfa_register 13
 830              		@ sp needed
 831 0024 80BD     		pop	{r7, pc}
 832              		.cfi_endproc
 833              	.LFE157:
 834              		.fnend
 835              		.size	_ZN5Print5printEdi, .-_ZN5Print5printEdi
 836 0026 00BF     		.section	.text._ZN5Print7printlnEPK19__FlashStringHelper,"ax",%progbits
 837              		.align	2
 838              		.global	_ZN5Print7printlnEPK19__FlashStringHelper
 839              		.thumb
 840              		.thumb_func
 841              		.type	_ZN5Print7printlnEPK19__FlashStringHelper, %function
 842              	_ZN5Print7printlnEPK19__FlashStringHelper:
 843              		.fnstart
 844              	.LFB158:
 103:core/Print.cpp **** 
 104:core/Print.cpp **** size_t Print::println(const __FlashStringHelper *ifsh)
 105:core/Print.cpp **** {
 845              		.loc 3 105 0
 846              		.cfi_startproc
 847              		@ args = 0, pretend = 0, frame = 16
 848              		@ frame_needed = 1, uses_anonymous_args = 0
 849 0000 80B5     		push	{r7, lr}
 850              		.save {r7, lr}
 851              		.cfi_def_cfa_offset 8
 852              		.cfi_offset 7, -8
 853              		.cfi_offset 14, -4
 854              		.pad #16
 855 0002 84B0     		sub	sp, sp, #16
 856              		.cfi_def_cfa_offset 24
 857              		.setfp r7, sp, #0
 858 0004 00AF     		add	r7, sp, #0
 859              		.cfi_def_cfa_register 7
 860 0006 7860     		str	r0, [r7, #4]
 861 0008 3960     		str	r1, [r7]
 862              	.LBB10:
 106:core/Print.cpp ****   size_t n = print(ifsh);
 863              		.loc 3 106 0
 864 000a 7868     		ldr	r0, [r7, #4]
 865 000c 3968     		ldr	r1, [r7]
 866 000e FFF7FEFF 		bl	_ZN5Print5printEPK19__FlashStringHelper
 867 0012 0346     		mov	r3, r0
 868 0014 FB60     		str	r3, [r7, #12]
 107:core/Print.cpp ****   n += println();
 869              		.loc 3 107 0
ARM GAS  C:\Users\Bruger\AppData\Local\Temp\cc797ORx.s 			page 22


 870 0016 7868     		ldr	r0, [r7, #4]
 871 0018 FFF7FEFF 		bl	_ZN5Print7printlnEv
 872 001c 0246     		mov	r2, r0
 873 001e FB68     		ldr	r3, [r7, #12]
 874 0020 1344     		add	r3, r3, r2
 875 0022 FB60     		str	r3, [r7, #12]
 108:core/Print.cpp ****   return n;
 876              		.loc 3 108 0
 877 0024 FB68     		ldr	r3, [r7, #12]
 878              	.LBE10:
 109:core/Print.cpp **** }
 879              		.loc 3 109 0
 880 0026 1846     		mov	r0, r3
 881 0028 1037     		adds	r7, r7, #16
 882              		.cfi_def_cfa_offset 8
 883 002a BD46     		mov	sp, r7
 884              		.cfi_def_cfa_register 13
 885              		@ sp needed
 886 002c 80BD     		pop	{r7, pc}
 887              		.cfi_endproc
 888              	.LFE158:
 889              		.fnend
 890              		.size	_ZN5Print7printlnEPK19__FlashStringHelper, .-_ZN5Print7printlnEPK19__FlashStringHelper
 891 002e 00BF     		.section	.text._ZN5Print5printERK9Printable,"ax",%progbits
 892              		.align	2
 893              		.global	_ZN5Print5printERK9Printable
 894              		.thumb
 895              		.thumb_func
 896              		.type	_ZN5Print5printERK9Printable, %function
 897              	_ZN5Print5printERK9Printable:
 898              		.fnstart
 899              	.LFB159:
 110:core/Print.cpp **** 
 111:core/Print.cpp **** size_t Print::print(const Printable& x)
 112:core/Print.cpp **** {
 900              		.loc 3 112 0
 901              		.cfi_startproc
 902              		@ args = 0, pretend = 0, frame = 8
 903              		@ frame_needed = 1, uses_anonymous_args = 0
 904 0000 80B5     		push	{r7, lr}
 905              		.save {r7, lr}
 906              		.cfi_def_cfa_offset 8
 907              		.cfi_offset 7, -8
 908              		.cfi_offset 14, -4
 909              		.pad #8
 910 0002 82B0     		sub	sp, sp, #8
 911              		.cfi_def_cfa_offset 16
 912              		.setfp r7, sp, #0
 913 0004 00AF     		add	r7, sp, #0
 914              		.cfi_def_cfa_register 7
 915 0006 7860     		str	r0, [r7, #4]
 916 0008 3960     		str	r1, [r7]
 113:core/Print.cpp ****   return x.printTo(*this);
 917              		.loc 3 113 0
 918 000a 3B68     		ldr	r3, [r7]
 919 000c 1B68     		ldr	r3, [r3]
 920 000e 1B68     		ldr	r3, [r3]
ARM GAS  C:\Users\Bruger\AppData\Local\Temp\cc797ORx.s 			page 23


 921 0010 3868     		ldr	r0, [r7]
 922 0012 7968     		ldr	r1, [r7, #4]
 923 0014 9847     		blx	r3
 924 0016 0346     		mov	r3, r0
 114:core/Print.cpp **** }
 925              		.loc 3 114 0
 926 0018 1846     		mov	r0, r3
 927 001a 0837     		adds	r7, r7, #8
 928              		.cfi_def_cfa_offset 8
 929 001c BD46     		mov	sp, r7
 930              		.cfi_def_cfa_register 13
 931              		@ sp needed
 932 001e 80BD     		pop	{r7, pc}
 933              		.cfi_endproc
 934              	.LFE159:
 935              		.fnend
 936              		.size	_ZN5Print5printERK9Printable, .-_ZN5Print5printERK9Printable
 937              		.section	.text._ZN5Print7printlnEv,"ax",%progbits
 938              		.align	2
 939              		.global	_ZN5Print7printlnEv
 940              		.thumb
 941              		.thumb_func
 942              		.type	_ZN5Print7printlnEv, %function
 943              	_ZN5Print7printlnEv:
 944              		.fnstart
 945              	.LFB160:
 115:core/Print.cpp **** 
 116:core/Print.cpp **** size_t Print::println(void)
 117:core/Print.cpp **** {
 946              		.loc 3 117 0
 947              		.cfi_startproc
 948              		@ args = 0, pretend = 0, frame = 16
 949              		@ frame_needed = 1, uses_anonymous_args = 0
 950 0000 80B5     		push	{r7, lr}
 951              		.save {r7, lr}
 952              		.cfi_def_cfa_offset 8
 953              		.cfi_offset 7, -8
 954              		.cfi_offset 14, -4
 955              		.pad #16
 956 0002 84B0     		sub	sp, sp, #16
 957              		.cfi_def_cfa_offset 24
 958              		.setfp r7, sp, #0
 959 0004 00AF     		add	r7, sp, #0
 960              		.cfi_def_cfa_register 7
 961 0006 7860     		str	r0, [r7, #4]
 962              	.LBB11:
 118:core/Print.cpp ****   size_t n = print('\r');
 963              		.loc 3 118 0
 964 0008 7868     		ldr	r0, [r7, #4]
 965 000a 0D21     		movs	r1, #13
 966 000c FFF7FEFF 		bl	_ZN5Print5printEc
 967 0010 0346     		mov	r3, r0
 968 0012 FB60     		str	r3, [r7, #12]
 119:core/Print.cpp ****   n += print('\n');
 969              		.loc 3 119 0
 970 0014 7868     		ldr	r0, [r7, #4]
 971 0016 0A21     		movs	r1, #10
ARM GAS  C:\Users\Bruger\AppData\Local\Temp\cc797ORx.s 			page 24


 972 0018 FFF7FEFF 		bl	_ZN5Print5printEc
 973 001c 0246     		mov	r2, r0
 974 001e FB68     		ldr	r3, [r7, #12]
 975 0020 1344     		add	r3, r3, r2
 976 0022 FB60     		str	r3, [r7, #12]
 120:core/Print.cpp ****   return n;
 977              		.loc 3 120 0
 978 0024 FB68     		ldr	r3, [r7, #12]
 979              	.LBE11:
 121:core/Print.cpp **** }
 980              		.loc 3 121 0
 981 0026 1846     		mov	r0, r3
 982 0028 1037     		adds	r7, r7, #16
 983              		.cfi_def_cfa_offset 8
 984 002a BD46     		mov	sp, r7
 985              		.cfi_def_cfa_register 13
 986              		@ sp needed
 987 002c 80BD     		pop	{r7, pc}
 988              		.cfi_endproc
 989              	.LFE160:
 990              		.fnend
 991              		.size	_ZN5Print7printlnEv, .-_ZN5Print7printlnEv
 992 002e 00BF     		.section	.text._ZN5Print7printlnERK6String,"ax",%progbits
 993              		.align	2
 994              		.global	_ZN5Print7printlnERK6String
 995              		.thumb
 996              		.thumb_func
 997              		.type	_ZN5Print7printlnERK6String, %function
 998              	_ZN5Print7printlnERK6String:
 999              		.fnstart
 1000              	.LFB161:
 122:core/Print.cpp **** 
 123:core/Print.cpp **** size_t Print::println(const String &s)
 124:core/Print.cpp **** {
 1001              		.loc 3 124 0
 1002              		.cfi_startproc
 1003              		@ args = 0, pretend = 0, frame = 16
 1004              		@ frame_needed = 1, uses_anonymous_args = 0
 1005 0000 80B5     		push	{r7, lr}
 1006              		.save {r7, lr}
 1007              		.cfi_def_cfa_offset 8
 1008              		.cfi_offset 7, -8
 1009              		.cfi_offset 14, -4
 1010              		.pad #16
 1011 0002 84B0     		sub	sp, sp, #16
 1012              		.cfi_def_cfa_offset 24
 1013              		.setfp r7, sp, #0
 1014 0004 00AF     		add	r7, sp, #0
 1015              		.cfi_def_cfa_register 7
 1016 0006 7860     		str	r0, [r7, #4]
 1017 0008 3960     		str	r1, [r7]
 1018              	.LBB12:
 125:core/Print.cpp ****   size_t n = print(s);
 1019              		.loc 3 125 0
 1020 000a 7868     		ldr	r0, [r7, #4]
 1021 000c 3968     		ldr	r1, [r7]
 1022 000e FFF7FEFF 		bl	_ZN5Print5printERK6String
ARM GAS  C:\Users\Bruger\AppData\Local\Temp\cc797ORx.s 			page 25


 1023 0012 0346     		mov	r3, r0
 1024 0014 FB60     		str	r3, [r7, #12]
 126:core/Print.cpp ****   n += println();
 1025              		.loc 3 126 0
 1026 0016 7868     		ldr	r0, [r7, #4]
 1027 0018 FFF7FEFF 		bl	_ZN5Print7printlnEv
 1028 001c 0246     		mov	r2, r0
 1029 001e FB68     		ldr	r3, [r7, #12]
 1030 0020 1344     		add	r3, r3, r2
 1031 0022 FB60     		str	r3, [r7, #12]
 127:core/Print.cpp ****   return n;
 1032              		.loc 3 127 0
 1033 0024 FB68     		ldr	r3, [r7, #12]
 1034              	.LBE12:
 128:core/Print.cpp **** }
 1035              		.loc 3 128 0
 1036 0026 1846     		mov	r0, r3
 1037 0028 1037     		adds	r7, r7, #16
 1038              		.cfi_def_cfa_offset 8
 1039 002a BD46     		mov	sp, r7
 1040              		.cfi_def_cfa_register 13
 1041              		@ sp needed
 1042 002c 80BD     		pop	{r7, pc}
 1043              		.cfi_endproc
 1044              	.LFE161:
 1045              		.fnend
 1046              		.size	_ZN5Print7printlnERK6String, .-_ZN5Print7printlnERK6String
 1047 002e 00BF     		.section	.text._ZN5Print7printlnEPKc,"ax",%progbits
 1048              		.align	2
 1049              		.global	_ZN5Print7printlnEPKc
 1050              		.thumb
 1051              		.thumb_func
 1052              		.type	_ZN5Print7printlnEPKc, %function
 1053              	_ZN5Print7printlnEPKc:
 1054              		.fnstart
 1055              	.LFB162:
 129:core/Print.cpp **** 
 130:core/Print.cpp **** size_t Print::println(const char c[])
 131:core/Print.cpp **** {
 1056              		.loc 3 131 0
 1057              		.cfi_startproc
 1058              		@ args = 0, pretend = 0, frame = 16
 1059              		@ frame_needed = 1, uses_anonymous_args = 0
 1060 0000 80B5     		push	{r7, lr}
 1061              		.save {r7, lr}
 1062              		.cfi_def_cfa_offset 8
 1063              		.cfi_offset 7, -8
 1064              		.cfi_offset 14, -4
 1065              		.pad #16
 1066 0002 84B0     		sub	sp, sp, #16
 1067              		.cfi_def_cfa_offset 24
 1068              		.setfp r7, sp, #0
 1069 0004 00AF     		add	r7, sp, #0
 1070              		.cfi_def_cfa_register 7
 1071 0006 7860     		str	r0, [r7, #4]
 1072 0008 3960     		str	r1, [r7]
 1073              	.LBB13:
ARM GAS  C:\Users\Bruger\AppData\Local\Temp\cc797ORx.s 			page 26


 132:core/Print.cpp ****   size_t n = print(c);
 1074              		.loc 3 132 0
 1075 000a 7868     		ldr	r0, [r7, #4]
 1076 000c 3968     		ldr	r1, [r7]
 1077 000e FFF7FEFF 		bl	_ZN5Print5printEPKc
 1078 0012 0346     		mov	r3, r0
 1079 0014 FB60     		str	r3, [r7, #12]
 133:core/Print.cpp ****   n += println();
 1080              		.loc 3 133 0
 1081 0016 7868     		ldr	r0, [r7, #4]
 1082 0018 FFF7FEFF 		bl	_ZN5Print7printlnEv
 1083 001c 0246     		mov	r2, r0
 1084 001e FB68     		ldr	r3, [r7, #12]
 1085 0020 1344     		add	r3, r3, r2
 1086 0022 FB60     		str	r3, [r7, #12]
 134:core/Print.cpp ****   return n;
 1087              		.loc 3 134 0
 1088 0024 FB68     		ldr	r3, [r7, #12]
 1089              	.LBE13:
 135:core/Print.cpp **** }
 1090              		.loc 3 135 0
 1091 0026 1846     		mov	r0, r3
 1092 0028 1037     		adds	r7, r7, #16
 1093              		.cfi_def_cfa_offset 8
 1094 002a BD46     		mov	sp, r7
 1095              		.cfi_def_cfa_register 13
 1096              		@ sp needed
 1097 002c 80BD     		pop	{r7, pc}
 1098              		.cfi_endproc
 1099              	.LFE162:
 1100              		.fnend
 1101              		.size	_ZN5Print7printlnEPKc, .-_ZN5Print7printlnEPKc
 1102 002e 00BF     		.section	.text._ZN5Print7printlnEc,"ax",%progbits
 1103              		.align	2
 1104              		.global	_ZN5Print7printlnEc
 1105              		.thumb
 1106              		.thumb_func
 1107              		.type	_ZN5Print7printlnEc, %function
 1108              	_ZN5Print7printlnEc:
 1109              		.fnstart
 1110              	.LFB163:
 136:core/Print.cpp **** 
 137:core/Print.cpp **** size_t Print::println(char c)
 138:core/Print.cpp **** {
 1111              		.loc 3 138 0
 1112              		.cfi_startproc
 1113              		@ args = 0, pretend = 0, frame = 16
 1114              		@ frame_needed = 1, uses_anonymous_args = 0
 1115 0000 80B5     		push	{r7, lr}
 1116              		.save {r7, lr}
 1117              		.cfi_def_cfa_offset 8
 1118              		.cfi_offset 7, -8
 1119              		.cfi_offset 14, -4
 1120              		.pad #16
 1121 0002 84B0     		sub	sp, sp, #16
 1122              		.cfi_def_cfa_offset 24
 1123              		.setfp r7, sp, #0
ARM GAS  C:\Users\Bruger\AppData\Local\Temp\cc797ORx.s 			page 27


 1124 0004 00AF     		add	r7, sp, #0
 1125              		.cfi_def_cfa_register 7
 1126 0006 7860     		str	r0, [r7, #4]
 1127 0008 0B46     		mov	r3, r1
 1128 000a FB70     		strb	r3, [r7, #3]
 1129              	.LBB14:
 139:core/Print.cpp ****   size_t n = print(c);
 1130              		.loc 3 139 0
 1131 000c FB78     		ldrb	r3, [r7, #3]	@ zero_extendqisi2
 1132 000e 7868     		ldr	r0, [r7, #4]
 1133 0010 1946     		mov	r1, r3
 1134 0012 FFF7FEFF 		bl	_ZN5Print5printEc
 1135 0016 0346     		mov	r3, r0
 1136 0018 FB60     		str	r3, [r7, #12]
 140:core/Print.cpp ****   n += println();
 1137              		.loc 3 140 0
 1138 001a 7868     		ldr	r0, [r7, #4]
 1139 001c FFF7FEFF 		bl	_ZN5Print7printlnEv
 1140 0020 0246     		mov	r2, r0
 1141 0022 FB68     		ldr	r3, [r7, #12]
 1142 0024 1344     		add	r3, r3, r2
 1143 0026 FB60     		str	r3, [r7, #12]
 141:core/Print.cpp ****   return n;
 1144              		.loc 3 141 0
 1145 0028 FB68     		ldr	r3, [r7, #12]
 1146              	.LBE14:
 142:core/Print.cpp **** }
 1147              		.loc 3 142 0
 1148 002a 1846     		mov	r0, r3
 1149 002c 1037     		adds	r7, r7, #16
 1150              		.cfi_def_cfa_offset 8
 1151 002e BD46     		mov	sp, r7
 1152              		.cfi_def_cfa_register 13
 1153              		@ sp needed
 1154 0030 80BD     		pop	{r7, pc}
 1155              		.cfi_endproc
 1156              	.LFE163:
 1157              		.fnend
 1158              		.size	_ZN5Print7printlnEc, .-_ZN5Print7printlnEc
 1159 0032 00BF     		.section	.text._ZN5Print7printlnEhi,"ax",%progbits
 1160              		.align	2
 1161              		.global	_ZN5Print7printlnEhi
 1162              		.thumb
 1163              		.thumb_func
 1164              		.type	_ZN5Print7printlnEhi, %function
 1165              	_ZN5Print7printlnEhi:
 1166              		.fnstart
 1167              	.LFB164:
 143:core/Print.cpp **** 
 144:core/Print.cpp **** size_t Print::println(unsigned char b, int base)
 145:core/Print.cpp **** {
 1168              		.loc 3 145 0
 1169              		.cfi_startproc
 1170              		@ args = 0, pretend = 0, frame = 24
 1171              		@ frame_needed = 1, uses_anonymous_args = 0
 1172 0000 80B5     		push	{r7, lr}
 1173              		.save {r7, lr}
ARM GAS  C:\Users\Bruger\AppData\Local\Temp\cc797ORx.s 			page 28


 1174              		.cfi_def_cfa_offset 8
 1175              		.cfi_offset 7, -8
 1176              		.cfi_offset 14, -4
 1177              		.pad #24
 1178 0002 86B0     		sub	sp, sp, #24
 1179              		.cfi_def_cfa_offset 32
 1180              		.setfp r7, sp, #0
 1181 0004 00AF     		add	r7, sp, #0
 1182              		.cfi_def_cfa_register 7
 1183 0006 F860     		str	r0, [r7, #12]
 1184 0008 0B46     		mov	r3, r1
 1185 000a 7A60     		str	r2, [r7, #4]
 1186 000c FB72     		strb	r3, [r7, #11]
 1187              	.LBB15:
 146:core/Print.cpp ****   size_t n = print(b, base);
 1188              		.loc 3 146 0
 1189 000e FB7A     		ldrb	r3, [r7, #11]	@ zero_extendqisi2
 1190 0010 F868     		ldr	r0, [r7, #12]
 1191 0012 1946     		mov	r1, r3
 1192 0014 7A68     		ldr	r2, [r7, #4]
 1193 0016 FFF7FEFF 		bl	_ZN5Print5printEhi
 1194 001a 0346     		mov	r3, r0
 1195 001c 7B61     		str	r3, [r7, #20]
 147:core/Print.cpp ****   n += println();
 1196              		.loc 3 147 0
 1197 001e F868     		ldr	r0, [r7, #12]
 1198 0020 FFF7FEFF 		bl	_ZN5Print7printlnEv
 1199 0024 0246     		mov	r2, r0
 1200 0026 7B69     		ldr	r3, [r7, #20]
 1201 0028 1344     		add	r3, r3, r2
 1202 002a 7B61     		str	r3, [r7, #20]
 148:core/Print.cpp ****   return n;
 1203              		.loc 3 148 0
 1204 002c 7B69     		ldr	r3, [r7, #20]
 1205              	.LBE15:
 149:core/Print.cpp **** }
 1206              		.loc 3 149 0
 1207 002e 1846     		mov	r0, r3
 1208 0030 1837     		adds	r7, r7, #24
 1209              		.cfi_def_cfa_offset 8
 1210 0032 BD46     		mov	sp, r7
 1211              		.cfi_def_cfa_register 13
 1212              		@ sp needed
 1213 0034 80BD     		pop	{r7, pc}
 1214              		.cfi_endproc
 1215              	.LFE164:
 1216              		.fnend
 1217              		.size	_ZN5Print7printlnEhi, .-_ZN5Print7printlnEhi
 1218 0036 00BF     		.section	.text._ZN5Print7printlnEii,"ax",%progbits
 1219              		.align	2
 1220              		.global	_ZN5Print7printlnEii
 1221              		.thumb
 1222              		.thumb_func
 1223              		.type	_ZN5Print7printlnEii, %function
 1224              	_ZN5Print7printlnEii:
 1225              		.fnstart
 1226              	.LFB165:
ARM GAS  C:\Users\Bruger\AppData\Local\Temp\cc797ORx.s 			page 29


 150:core/Print.cpp **** 
 151:core/Print.cpp **** size_t Print::println(int num, int base)
 152:core/Print.cpp **** {
 1227              		.loc 3 152 0
 1228              		.cfi_startproc
 1229              		@ args = 0, pretend = 0, frame = 24
 1230              		@ frame_needed = 1, uses_anonymous_args = 0
 1231 0000 80B5     		push	{r7, lr}
 1232              		.save {r7, lr}
 1233              		.cfi_def_cfa_offset 8
 1234              		.cfi_offset 7, -8
 1235              		.cfi_offset 14, -4
 1236              		.pad #24
 1237 0002 86B0     		sub	sp, sp, #24
 1238              		.cfi_def_cfa_offset 32
 1239              		.setfp r7, sp, #0
 1240 0004 00AF     		add	r7, sp, #0
 1241              		.cfi_def_cfa_register 7
 1242 0006 F860     		str	r0, [r7, #12]
 1243 0008 B960     		str	r1, [r7, #8]
 1244 000a 7A60     		str	r2, [r7, #4]
 1245              	.LBB16:
 153:core/Print.cpp ****   size_t n = print(num, base);
 1246              		.loc 3 153 0
 1247 000c F868     		ldr	r0, [r7, #12]
 1248 000e B968     		ldr	r1, [r7, #8]
 1249 0010 7A68     		ldr	r2, [r7, #4]
 1250 0012 FFF7FEFF 		bl	_ZN5Print5printEii
 1251 0016 0346     		mov	r3, r0
 1252 0018 7B61     		str	r3, [r7, #20]
 154:core/Print.cpp ****   n += println();
 1253              		.loc 3 154 0
 1254 001a F868     		ldr	r0, [r7, #12]
 1255 001c FFF7FEFF 		bl	_ZN5Print7printlnEv
 1256 0020 0246     		mov	r2, r0
 1257 0022 7B69     		ldr	r3, [r7, #20]
 1258 0024 1344     		add	r3, r3, r2
 1259 0026 7B61     		str	r3, [r7, #20]
 155:core/Print.cpp ****   return n;
 1260              		.loc 3 155 0
 1261 0028 7B69     		ldr	r3, [r7, #20]
 1262              	.LBE16:
 156:core/Print.cpp **** }
 1263              		.loc 3 156 0
 1264 002a 1846     		mov	r0, r3
 1265 002c 1837     		adds	r7, r7, #24
 1266              		.cfi_def_cfa_offset 8
 1267 002e BD46     		mov	sp, r7
 1268              		.cfi_def_cfa_register 13
 1269              		@ sp needed
 1270 0030 80BD     		pop	{r7, pc}
 1271              		.cfi_endproc
 1272              	.LFE165:
 1273              		.fnend
 1274              		.size	_ZN5Print7printlnEii, .-_ZN5Print7printlnEii
 1275 0032 00BF     		.section	.text._ZN5Print7printlnEji,"ax",%progbits
 1276              		.align	2
ARM GAS  C:\Users\Bruger\AppData\Local\Temp\cc797ORx.s 			page 30


 1277              		.global	_ZN5Print7printlnEji
 1278              		.thumb
 1279              		.thumb_func
 1280              		.type	_ZN5Print7printlnEji, %function
 1281              	_ZN5Print7printlnEji:
 1282              		.fnstart
 1283              	.LFB166:
 157:core/Print.cpp **** 
 158:core/Print.cpp **** size_t Print::println(unsigned int num, int base)
 159:core/Print.cpp **** {
 1284              		.loc 3 159 0
 1285              		.cfi_startproc
 1286              		@ args = 0, pretend = 0, frame = 24
 1287              		@ frame_needed = 1, uses_anonymous_args = 0
 1288 0000 80B5     		push	{r7, lr}
 1289              		.save {r7, lr}
 1290              		.cfi_def_cfa_offset 8
 1291              		.cfi_offset 7, -8
 1292              		.cfi_offset 14, -4
 1293              		.pad #24
 1294 0002 86B0     		sub	sp, sp, #24
 1295              		.cfi_def_cfa_offset 32
 1296              		.setfp r7, sp, #0
 1297 0004 00AF     		add	r7, sp, #0
 1298              		.cfi_def_cfa_register 7
 1299 0006 F860     		str	r0, [r7, #12]
 1300 0008 B960     		str	r1, [r7, #8]
 1301 000a 7A60     		str	r2, [r7, #4]
 1302              	.LBB17:
 160:core/Print.cpp ****   size_t n = print(num, base);
 1303              		.loc 3 160 0
 1304 000c F868     		ldr	r0, [r7, #12]
 1305 000e B968     		ldr	r1, [r7, #8]
 1306 0010 7A68     		ldr	r2, [r7, #4]
 1307 0012 FFF7FEFF 		bl	_ZN5Print5printEji
 1308 0016 0346     		mov	r3, r0
 1309 0018 7B61     		str	r3, [r7, #20]
 161:core/Print.cpp ****   n += println();
 1310              		.loc 3 161 0
 1311 001a F868     		ldr	r0, [r7, #12]
 1312 001c FFF7FEFF 		bl	_ZN5Print7printlnEv
 1313 0020 0246     		mov	r2, r0
 1314 0022 7B69     		ldr	r3, [r7, #20]
 1315 0024 1344     		add	r3, r3, r2
 1316 0026 7B61     		str	r3, [r7, #20]
 162:core/Print.cpp ****   return n;
 1317              		.loc 3 162 0
 1318 0028 7B69     		ldr	r3, [r7, #20]
 1319              	.LBE17:
 163:core/Print.cpp **** }
 1320              		.loc 3 163 0
 1321 002a 1846     		mov	r0, r3
 1322 002c 1837     		adds	r7, r7, #24
 1323              		.cfi_def_cfa_offset 8
 1324 002e BD46     		mov	sp, r7
 1325              		.cfi_def_cfa_register 13
 1326              		@ sp needed
ARM GAS  C:\Users\Bruger\AppData\Local\Temp\cc797ORx.s 			page 31


 1327 0030 80BD     		pop	{r7, pc}
 1328              		.cfi_endproc
 1329              	.LFE166:
 1330              		.fnend
 1331              		.size	_ZN5Print7printlnEji, .-_ZN5Print7printlnEji
 1332 0032 00BF     		.section	.text._ZN5Print7printlnEli,"ax",%progbits
 1333              		.align	2
 1334              		.global	_ZN5Print7printlnEli
 1335              		.thumb
 1336              		.thumb_func
 1337              		.type	_ZN5Print7printlnEli, %function
 1338              	_ZN5Print7printlnEli:
 1339              		.fnstart
 1340              	.LFB167:
 164:core/Print.cpp **** 
 165:core/Print.cpp **** size_t Print::println(long num, int base)
 166:core/Print.cpp **** {
 1341              		.loc 3 166 0
 1342              		.cfi_startproc
 1343              		@ args = 0, pretend = 0, frame = 24
 1344              		@ frame_needed = 1, uses_anonymous_args = 0
 1345 0000 80B5     		push	{r7, lr}
 1346              		.save {r7, lr}
 1347              		.cfi_def_cfa_offset 8
 1348              		.cfi_offset 7, -8
 1349              		.cfi_offset 14, -4
 1350              		.pad #24
 1351 0002 86B0     		sub	sp, sp, #24
 1352              		.cfi_def_cfa_offset 32
 1353              		.setfp r7, sp, #0
 1354 0004 00AF     		add	r7, sp, #0
 1355              		.cfi_def_cfa_register 7
 1356 0006 F860     		str	r0, [r7, #12]
 1357 0008 B960     		str	r1, [r7, #8]
 1358 000a 7A60     		str	r2, [r7, #4]
 1359              	.LBB18:
 167:core/Print.cpp ****   size_t n = print(num, base);
 1360              		.loc 3 167 0
 1361 000c F868     		ldr	r0, [r7, #12]
 1362 000e B968     		ldr	r1, [r7, #8]
 1363 0010 7A68     		ldr	r2, [r7, #4]
 1364 0012 FFF7FEFF 		bl	_ZN5Print5printEli
 1365 0016 0346     		mov	r3, r0
 1366 0018 7B61     		str	r3, [r7, #20]
 168:core/Print.cpp ****   n += println();
 1367              		.loc 3 168 0
 1368 001a F868     		ldr	r0, [r7, #12]
 1369 001c FFF7FEFF 		bl	_ZN5Print7printlnEv
 1370 0020 0246     		mov	r2, r0
 1371 0022 7B69     		ldr	r3, [r7, #20]
 1372 0024 1344     		add	r3, r3, r2
 1373 0026 7B61     		str	r3, [r7, #20]
 169:core/Print.cpp ****   return n;
 1374              		.loc 3 169 0
 1375 0028 7B69     		ldr	r3, [r7, #20]
 1376              	.LBE18:
 170:core/Print.cpp **** }
ARM GAS  C:\Users\Bruger\AppData\Local\Temp\cc797ORx.s 			page 32


 1377              		.loc 3 170 0
 1378 002a 1846     		mov	r0, r3
 1379 002c 1837     		adds	r7, r7, #24
 1380              		.cfi_def_cfa_offset 8
 1381 002e BD46     		mov	sp, r7
 1382              		.cfi_def_cfa_register 13
 1383              		@ sp needed
 1384 0030 80BD     		pop	{r7, pc}
 1385              		.cfi_endproc
 1386              	.LFE167:
 1387              		.fnend
 1388              		.size	_ZN5Print7printlnEli, .-_ZN5Print7printlnEli
 1389 0032 00BF     		.section	.text._ZN5Print7printlnEmi,"ax",%progbits
 1390              		.align	2
 1391              		.global	_ZN5Print7printlnEmi
 1392              		.thumb
 1393              		.thumb_func
 1394              		.type	_ZN5Print7printlnEmi, %function
 1395              	_ZN5Print7printlnEmi:
 1396              		.fnstart
 1397              	.LFB168:
 171:core/Print.cpp **** 
 172:core/Print.cpp **** size_t Print::println(unsigned long num, int base)
 173:core/Print.cpp **** {
 1398              		.loc 3 173 0
 1399              		.cfi_startproc
 1400              		@ args = 0, pretend = 0, frame = 24
 1401              		@ frame_needed = 1, uses_anonymous_args = 0
 1402 0000 80B5     		push	{r7, lr}
 1403              		.save {r7, lr}
 1404              		.cfi_def_cfa_offset 8
 1405              		.cfi_offset 7, -8
 1406              		.cfi_offset 14, -4
 1407              		.pad #24
 1408 0002 86B0     		sub	sp, sp, #24
 1409              		.cfi_def_cfa_offset 32
 1410              		.setfp r7, sp, #0
 1411 0004 00AF     		add	r7, sp, #0
 1412              		.cfi_def_cfa_register 7
 1413 0006 F860     		str	r0, [r7, #12]
 1414 0008 B960     		str	r1, [r7, #8]
 1415 000a 7A60     		str	r2, [r7, #4]
 1416              	.LBB19:
 174:core/Print.cpp ****   size_t n = print(num, base);
 1417              		.loc 3 174 0
 1418 000c F868     		ldr	r0, [r7, #12]
 1419 000e B968     		ldr	r1, [r7, #8]
 1420 0010 7A68     		ldr	r2, [r7, #4]
 1421 0012 FFF7FEFF 		bl	_ZN5Print5printEmi
 1422 0016 0346     		mov	r3, r0
 1423 0018 7B61     		str	r3, [r7, #20]
 175:core/Print.cpp ****   n += println();
 1424              		.loc 3 175 0
 1425 001a F868     		ldr	r0, [r7, #12]
 1426 001c FFF7FEFF 		bl	_ZN5Print7printlnEv
 1427 0020 0246     		mov	r2, r0
 1428 0022 7B69     		ldr	r3, [r7, #20]
ARM GAS  C:\Users\Bruger\AppData\Local\Temp\cc797ORx.s 			page 33


 1429 0024 1344     		add	r3, r3, r2
 1430 0026 7B61     		str	r3, [r7, #20]
 176:core/Print.cpp ****   return n;
 1431              		.loc 3 176 0
 1432 0028 7B69     		ldr	r3, [r7, #20]
 1433              	.LBE19:
 177:core/Print.cpp **** }
 1434              		.loc 3 177 0
 1435 002a 1846     		mov	r0, r3
 1436 002c 1837     		adds	r7, r7, #24
 1437              		.cfi_def_cfa_offset 8
 1438 002e BD46     		mov	sp, r7
 1439              		.cfi_def_cfa_register 13
 1440              		@ sp needed
 1441 0030 80BD     		pop	{r7, pc}
 1442              		.cfi_endproc
 1443              	.LFE168:
 1444              		.fnend
 1445              		.size	_ZN5Print7printlnEmi, .-_ZN5Print7printlnEmi
 1446 0032 00BF     		.section	.text._ZN5Print7printlnEdi,"ax",%progbits
 1447              		.align	2
 1448              		.global	_ZN5Print7printlnEdi
 1449              		.thumb
 1450              		.thumb_func
 1451              		.type	_ZN5Print7printlnEdi, %function
 1452              	_ZN5Print7printlnEdi:
 1453              		.fnstart
 1454              	.LFB169:
 178:core/Print.cpp **** 
 179:core/Print.cpp **** size_t Print::println(double num, int digits)
 180:core/Print.cpp **** {
 1455              		.loc 3 180 0
 1456              		.cfi_startproc
 1457              		@ args = 4, pretend = 0, frame = 24
 1458              		@ frame_needed = 1, uses_anonymous_args = 0
 1459 0000 80B5     		push	{r7, lr}
 1460              		.save {r7, lr}
 1461              		.cfi_def_cfa_offset 8
 1462              		.cfi_offset 7, -8
 1463              		.cfi_offset 14, -4
 1464              		.pad #32
 1465 0002 88B0     		sub	sp, sp, #32
 1466              		.cfi_def_cfa_offset 40
 1467              		.setfp r7, sp, #8
 1468 0004 02AF     		add	r7, sp, #8
 1469              		.cfi_def_cfa 7, 32
 1470 0006 F860     		str	r0, [r7, #12]
 1471 0008 C7E90023 		strd	r2, [r7]
 1472              	.LBB20:
 181:core/Print.cpp ****   size_t n = print(num, digits);
 1473              		.loc 3 181 0
 1474 000c 3B6A     		ldr	r3, [r7, #32]
 1475 000e 0093     		str	r3, [sp]
 1476 0010 F868     		ldr	r0, [r7, #12]
 1477 0012 D7E90023 		ldrd	r2, [r7]
 1478 0016 FFF7FEFF 		bl	_ZN5Print5printEdi
 1479 001a 0346     		mov	r3, r0
ARM GAS  C:\Users\Bruger\AppData\Local\Temp\cc797ORx.s 			page 34


 1480 001c 7B61     		str	r3, [r7, #20]
 182:core/Print.cpp ****   n += println();
 1481              		.loc 3 182 0
 1482 001e F868     		ldr	r0, [r7, #12]
 1483 0020 FFF7FEFF 		bl	_ZN5Print7printlnEv
 1484 0024 0246     		mov	r2, r0
 1485 0026 7B69     		ldr	r3, [r7, #20]
 1486 0028 1344     		add	r3, r3, r2
 1487 002a 7B61     		str	r3, [r7, #20]
 183:core/Print.cpp ****   return n;
 1488              		.loc 3 183 0
 1489 002c 7B69     		ldr	r3, [r7, #20]
 1490              	.LBE20:
 184:core/Print.cpp **** }
 1491              		.loc 3 184 0
 1492 002e 1846     		mov	r0, r3
 1493 0030 1837     		adds	r7, r7, #24
 1494              		.cfi_def_cfa_offset 8
 1495 0032 BD46     		mov	sp, r7
 1496              		.cfi_def_cfa_register 13
 1497              		@ sp needed
 1498 0034 80BD     		pop	{r7, pc}
 1499              		.cfi_endproc
 1500              	.LFE169:
 1501              		.fnend
 1502              		.size	_ZN5Print7printlnEdi, .-_ZN5Print7printlnEdi
 1503 0036 00BF     		.section	.text._ZN5Print7printlnERK9Printable,"ax",%progbits
 1504              		.align	2
 1505              		.global	_ZN5Print7printlnERK9Printable
 1506              		.thumb
 1507              		.thumb_func
 1508              		.type	_ZN5Print7printlnERK9Printable, %function
 1509              	_ZN5Print7printlnERK9Printable:
 1510              		.fnstart
 1511              	.LFB170:
 185:core/Print.cpp **** 
 186:core/Print.cpp **** size_t Print::println(const Printable& x)
 187:core/Print.cpp **** {
 1512              		.loc 3 187 0
 1513              		.cfi_startproc
 1514              		@ args = 0, pretend = 0, frame = 16
 1515              		@ frame_needed = 1, uses_anonymous_args = 0
 1516 0000 80B5     		push	{r7, lr}
 1517              		.save {r7, lr}
 1518              		.cfi_def_cfa_offset 8
 1519              		.cfi_offset 7, -8
 1520              		.cfi_offset 14, -4
 1521              		.pad #16
 1522 0002 84B0     		sub	sp, sp, #16
 1523              		.cfi_def_cfa_offset 24
 1524              		.setfp r7, sp, #0
 1525 0004 00AF     		add	r7, sp, #0
 1526              		.cfi_def_cfa_register 7
 1527 0006 7860     		str	r0, [r7, #4]
 1528 0008 3960     		str	r1, [r7]
 1529              	.LBB21:
 188:core/Print.cpp ****   size_t n = print(x);
ARM GAS  C:\Users\Bruger\AppData\Local\Temp\cc797ORx.s 			page 35


 1530              		.loc 3 188 0
 1531 000a 7868     		ldr	r0, [r7, #4]
 1532 000c 3968     		ldr	r1, [r7]
 1533 000e FFF7FEFF 		bl	_ZN5Print5printERK9Printable
 1534 0012 0346     		mov	r3, r0
 1535 0014 FB60     		str	r3, [r7, #12]
 189:core/Print.cpp ****   n += println();
 1536              		.loc 3 189 0
 1537 0016 7868     		ldr	r0, [r7, #4]
 1538 0018 FFF7FEFF 		bl	_ZN5Print7printlnEv
 1539 001c 0246     		mov	r2, r0
 1540 001e FB68     		ldr	r3, [r7, #12]
 1541 0020 1344     		add	r3, r3, r2
 1542 0022 FB60     		str	r3, [r7, #12]
 190:core/Print.cpp ****   return n;
 1543              		.loc 3 190 0
 1544 0024 FB68     		ldr	r3, [r7, #12]
 1545              	.LBE21:
 191:core/Print.cpp **** }
 1546              		.loc 3 191 0
 1547 0026 1846     		mov	r0, r3
 1548 0028 1037     		adds	r7, r7, #16
 1549              		.cfi_def_cfa_offset 8
 1550 002a BD46     		mov	sp, r7
 1551              		.cfi_def_cfa_register 13
 1552              		@ sp needed
 1553 002c 80BD     		pop	{r7, pc}
 1554              		.cfi_endproc
 1555              	.LFE170:
 1556              		.fnend
 1557              		.size	_ZN5Print7printlnERK9Printable, .-_ZN5Print7printlnERK9Printable
 1558 002e 00BF     		.section	.text._ZN5Print11printNumberEmh,"ax",%progbits
 1559              		.align	2
 1560              		.global	_ZN5Print11printNumberEmh
 1561              		.thumb
 1562              		.thumb_func
 1563              		.type	_ZN5Print11printNumberEmh, %function
 1564              	_ZN5Print11printNumberEmh:
 1565              		.fnstart
 1566              	.LFB171:
 192:core/Print.cpp **** 
 193:core/Print.cpp **** // Private Methods /////////////////////////////////////////////////////////////
 194:core/Print.cpp **** 
 195:core/Print.cpp **** size_t Print::printNumber(unsigned long n, uint8_t base) {
 1567              		.loc 3 195 0
 1568              		.cfi_startproc
 1569              		@ args = 0, pretend = 0, frame = 64
 1570              		@ frame_needed = 1, uses_anonymous_args = 0
 1571 0000 80B5     		push	{r7, lr}
 1572              		.save {r7, lr}
 1573              		.cfi_def_cfa_offset 8
 1574              		.cfi_offset 7, -8
 1575              		.cfi_offset 14, -4
 1576              		.pad #64
 1577 0002 90B0     		sub	sp, sp, #64
 1578              		.cfi_def_cfa_offset 72
 1579              		.setfp r7, sp, #0
ARM GAS  C:\Users\Bruger\AppData\Local\Temp\cc797ORx.s 			page 36


 1580 0004 00AF     		add	r7, sp, #0
 1581              		.cfi_def_cfa_register 7
 1582 0006 F860     		str	r0, [r7, #12]
 1583 0008 B960     		str	r1, [r7, #8]
 1584 000a 1346     		mov	r3, r2
 1585 000c FB71     		strb	r3, [r7, #7]
 1586              	.LBB22:
 196:core/Print.cpp ****   char buf[8 * sizeof(long) + 1]; // Assumes 8-bit chars plus zero byte.
 197:core/Print.cpp ****   char *str = &buf[sizeof(buf) - 1];
 1587              		.loc 3 197 0
 1588 000e 2022     		movs	r2, #32
 1589 0010 07F11403 		add	r3, r7, #20
 1590 0014 1344     		add	r3, r3, r2
 1591 0016 FB63     		str	r3, [r7, #60]
 198:core/Print.cpp **** 
 199:core/Print.cpp ****   *str = '\0';
 1592              		.loc 3 199 0
 1593 0018 FB6B     		ldr	r3, [r7, #60]
 1594 001a 0022     		movs	r2, #0
 1595 001c 1A70     		strb	r2, [r3]
 200:core/Print.cpp **** 
 201:core/Print.cpp ****   // prevent crash if called with base == 1
 202:core/Print.cpp ****   if (base < 2) base = 10;
 1596              		.loc 3 202 0
 1597 001e FB79     		ldrb	r3, [r7, #7]	@ zero_extendqisi2
 1598 0020 012B     		cmp	r3, #1
 1599 0022 01D8     		bhi	.L65
 1600              		.loc 3 202 0 is_stmt 0 discriminator 1
 1601 0024 0A23     		movs	r3, #10
 1602 0026 FB71     		strb	r3, [r7, #7]
 1603              	.L65:
 1604              	.LBB23:
 203:core/Print.cpp **** 
 204:core/Print.cpp ****   do {
 205:core/Print.cpp ****     unsigned long m = n;
 1605              		.loc 3 205 0 is_stmt 1
 1606 0028 BB68     		ldr	r3, [r7, #8]
 1607 002a BB63     		str	r3, [r7, #56]
 206:core/Print.cpp ****     n /= base;
 1608              		.loc 3 206 0
 1609 002c FB79     		ldrb	r3, [r7, #7]	@ zero_extendqisi2
 1610 002e BA68     		ldr	r2, [r7, #8]
 1611 0030 B2FBF3F3 		udiv	r3, r2, r3
 1612 0034 BB60     		str	r3, [r7, #8]
 207:core/Print.cpp ****     char c = m - base * n;
 1613              		.loc 3 207 0
 1614 0036 BB6B     		ldr	r3, [r7, #56]
 1615 0038 DAB2     		uxtb	r2, r3
 1616 003a BB68     		ldr	r3, [r7, #8]
 1617 003c DBB2     		uxtb	r3, r3
 1618 003e F979     		ldrb	r1, [r7, #7]
 1619 0040 01FB03F3 		mul	r3, r1, r3
 1620 0044 DBB2     		uxtb	r3, r3
 1621 0046 D31A     		subs	r3, r2, r3
 1622 0048 87F83730 		strb	r3, [r7, #55]
 208:core/Print.cpp ****     *--str = c < 10 ? c + '0' : c + 'A' - 10;
 1623              		.loc 3 208 0
ARM GAS  C:\Users\Bruger\AppData\Local\Temp\cc797ORx.s 			page 37


 1624 004c FB6B     		ldr	r3, [r7, #60]
 1625 004e 013B     		subs	r3, r3, #1
 1626 0050 FB63     		str	r3, [r7, #60]
 1627 0052 97F83730 		ldrb	r3, [r7, #55]	@ zero_extendqisi2
 1628 0056 092B     		cmp	r3, #9
 1629 0058 04D8     		bhi	.L66
 1630              		.loc 3 208 0 is_stmt 0 discriminator 1
 1631 005a 97F83730 		ldrb	r3, [r7, #55]
 1632 005e 3033     		adds	r3, r3, #48
 1633 0060 DBB2     		uxtb	r3, r3
 1634 0062 03E0     		b	.L67
 1635              	.L66:
 1636              		.loc 3 208 0 discriminator 2
 1637 0064 97F83730 		ldrb	r3, [r7, #55]
 1638 0068 3733     		adds	r3, r3, #55
 1639 006a DBB2     		uxtb	r3, r3
 1640              	.L67:
 1641              		.loc 3 208 0 discriminator 4
 1642 006c FA6B     		ldr	r2, [r7, #60]
 1643 006e 1370     		strb	r3, [r2]
 1644              	.LBE23:
 204:core/Print.cpp ****     unsigned long m = n;
 1645              		.loc 3 204 0 is_stmt 1 discriminator 4
 1646 0070 BB68     		ldr	r3, [r7, #8]
 1647 0072 002B     		cmp	r3, #0
 1648 0074 D8D1     		bne	.L65
 209:core/Print.cpp ****   } while(n);
 210:core/Print.cpp **** 
 211:core/Print.cpp ****   return write(str);
 1649              		.loc 3 211 0
 1650 0076 F868     		ldr	r0, [r7, #12]
 1651 0078 F96B     		ldr	r1, [r7, #60]
 1652 007a FFF7FEFF 		bl	_ZN5Print5writeEPKc
 1653 007e 0346     		mov	r3, r0
 1654              	.LBE22:
 212:core/Print.cpp **** }
 1655              		.loc 3 212 0
 1656 0080 1846     		mov	r0, r3
 1657 0082 4037     		adds	r7, r7, #64
 1658              		.cfi_def_cfa_offset 8
 1659 0084 BD46     		mov	sp, r7
 1660              		.cfi_def_cfa_register 13
 1661              		@ sp needed
 1662 0086 80BD     		pop	{r7, pc}
 1663              		.cfi_endproc
 1664              	.LFE171:
 1665              		.fnend
 1666              		.size	_ZN5Print11printNumberEmh, .-_ZN5Print11printNumberEmh
 1667              		.section	.rodata
 1668              		.align	2
 1669              	.LC0:
 1670 0000 6E616E00 		.ascii	"nan\000"
 1671              		.align	2
 1672              	.LC1:
 1673 0004 696E6600 		.ascii	"inf\000"
 1674              		.global	__aeabi_dcmpgt
 1675              		.align	2
ARM GAS  C:\Users\Bruger\AppData\Local\Temp\cc797ORx.s 			page 38


 1676              	.LC2:
 1677 0008 6F766600 		.ascii	"ovf\000"
 1678              		.global	__aeabi_dcmplt
 1679              		.global	__aeabi_ddiv
 1680              		.global	__aeabi_dadd
 1681              		.global	__aeabi_d2uiz
 1682              		.global	__aeabi_ui2d
 1683              		.global	__aeabi_dsub
 1684              		.align	2
 1685              	.LC3:
 1686 000c 2E00     		.ascii	".\000"
 1687              		.global	__aeabi_dmul
 1688              		.global	__aeabi_d2iz
 1689              		.global	__aeabi_i2d
 1690              		.section	.text._ZN5Print10printFloatEdh,"ax",%progbits
 1691              		.align	2
 1692              		.global	_ZN5Print10printFloatEdh
 1693              		.thumb
 1694              		.thumb_func
 1695              		.type	_ZN5Print10printFloatEdh, %function
 1696              	_ZN5Print10printFloatEdh:
 1697              		.fnstart
 1698              	.LFB172:
 213:core/Print.cpp **** 
 214:core/Print.cpp **** size_t Print::printFloat(double number, uint8_t digits) 
 215:core/Print.cpp **** { 
 1699              		.loc 3 215 0
 1700              		.cfi_startproc
 1701              		@ args = 4, pretend = 0, frame = 56
 1702              		@ frame_needed = 1, uses_anonymous_args = 0
 1703 0000 80B5     		push	{r7, lr}
 1704              		.save {r7, lr}
 1705              		.cfi_def_cfa_offset 8
 1706              		.cfi_offset 7, -8
 1707              		.cfi_offset 14, -4
 1708              		.pad #56
 1709 0002 8EB0     		sub	sp, sp, #56
 1710              		.cfi_def_cfa_offset 64
 1711              		.setfp r7, sp, #0
 1712 0004 00AF     		add	r7, sp, #0
 1713              		.cfi_def_cfa_register 7
 1714 0006 F860     		str	r0, [r7, #12]
 1715 0008 C7E90023 		strd	r2, [r7]
 1716              	.LBB24:
 216:core/Print.cpp ****   size_t n = 0;
 1717              		.loc 3 216 0
 1718 000c 0023     		movs	r3, #0
 1719 000e 7B63     		str	r3, [r7, #52]
 217:core/Print.cpp ****   
 218:core/Print.cpp ****   if (isnan(number)) return print("nan");
 1720              		.loc 3 218 0
 1721 0010 D7E90001 		ldrd	r0, [r7]
 1722 0014 FFF7FEFF 		bl	__fpclassifyd
 1723 0018 0346     		mov	r3, r0
 1724 001a 002B     		cmp	r3, #0
 1725 001c 0CBF     		ite	eq
 1726 001e 0123     		moveq	r3, #1
ARM GAS  C:\Users\Bruger\AppData\Local\Temp\cc797ORx.s 			page 39


 1727 0020 0023     		movne	r3, #0
 1728 0022 DBB2     		uxtb	r3, r3
 1729 0024 002B     		cmp	r3, #0
 1730 0026 05D0     		beq	.L70
 1731              		.loc 3 218 0 is_stmt 0 discriminator 5
 1732 0028 F868     		ldr	r0, [r7, #12]
 1733 002a 6D49     		ldr	r1, .L89
 1734 002c FFF7FEFF 		bl	_ZN5Print5printEPKc
 1735 0030 0346     		mov	r3, r0
 1736 0032 D0E0     		b	.L71
 1737              	.L70:
 219:core/Print.cpp ****   if (isinf(number)) return print("inf");
 1738              		.loc 3 219 0 is_stmt 1 discriminator 2
 1739 0034 D7E90001 		ldrd	r0, [r7]
 1740 0038 FFF7FEFF 		bl	__fpclassifyd
 1741 003c 0346     		mov	r3, r0
 1742 003e 012B     		cmp	r3, #1
 1743 0040 0CBF     		ite	eq
 1744 0042 0123     		moveq	r3, #1
 1745 0044 0023     		movne	r3, #0
 1746 0046 DBB2     		uxtb	r3, r3
 1747 0048 002B     		cmp	r3, #0
 1748 004a 05D0     		beq	.L72
 1749              		.loc 3 219 0 is_stmt 0 discriminator 5
 1750 004c F868     		ldr	r0, [r7, #12]
 1751 004e 6549     		ldr	r1, .L89+4
 1752 0050 FFF7FEFF 		bl	_ZN5Print5printEPKc
 1753 0054 0346     		mov	r3, r0
 1754 0056 BEE0     		b	.L71
 1755              	.L72:
 220:core/Print.cpp ****   if (number > 4294967040.0) return print ("ovf");  // constant determined empirically
 1756              		.loc 3 220 0 is_stmt 1
 1757 0058 D7E90001 		ldrd	r0, [r7]
 1758 005c 4FF06042 		mov	r2, #-536870912
 1759 0060 614B     		ldr	r3, .L89+8
 1760 0062 FFF7FEFF 		bl	__aeabi_dcmpgt
 1761 0066 0346     		mov	r3, r0
 1762 0068 002B     		cmp	r3, #0
 1763 006a 05D0     		beq	.L87
 1764              		.loc 3 220 0 is_stmt 0 discriminator 1
 1765 006c F868     		ldr	r0, [r7, #12]
 1766 006e 5F49     		ldr	r1, .L89+12
 1767 0070 FFF7FEFF 		bl	_ZN5Print5printEPKc
 1768 0074 0346     		mov	r3, r0
 1769 0076 AEE0     		b	.L71
 1770              	.L87:
 221:core/Print.cpp ****   if (number <-4294967040.0) return print ("ovf");  // constant determined empirically
 1771              		.loc 3 221 0 is_stmt 1
 1772 0078 D7E90001 		ldrd	r0, [r7]
 1773 007c 4FF06042 		mov	r2, #-536870912
 1774 0080 5B4B     		ldr	r3, .L89+16
 1775 0082 FFF7FEFF 		bl	__aeabi_dcmplt
 1776 0086 0346     		mov	r3, r0
 1777 0088 002B     		cmp	r3, #0
 1778 008a 05D0     		beq	.L88
 1779              		.loc 3 221 0 is_stmt 0 discriminator 1
 1780 008c F868     		ldr	r0, [r7, #12]
ARM GAS  C:\Users\Bruger\AppData\Local\Temp\cc797ORx.s 			page 40


 1781 008e 5749     		ldr	r1, .L89+12
 1782 0090 FFF7FEFF 		bl	_ZN5Print5printEPKc
 1783 0094 0346     		mov	r3, r0
 1784 0096 9EE0     		b	.L71
 1785              	.L88:
 222:core/Print.cpp ****   
 223:core/Print.cpp ****   // Handle negative numbers
 224:core/Print.cpp ****   if (number < 0.0)
 1786              		.loc 3 224 0 is_stmt 1
 1787 0098 D7E90001 		ldrd	r0, [r7]
 1788 009c 4FF00002 		mov	r2, #0
 1789 00a0 4FF00003 		mov	r3, #0
 1790 00a4 FFF7FEFF 		bl	__aeabi_dcmplt
 1791 00a8 0346     		mov	r3, r0
 1792 00aa 002B     		cmp	r3, #0
 1793 00ac 0DD0     		beq	.L77
 225:core/Print.cpp ****   {
 226:core/Print.cpp ****      n += print('-');
 1794              		.loc 3 226 0
 1795 00ae F868     		ldr	r0, [r7, #12]
 1796 00b0 2D21     		movs	r1, #45
 1797 00b2 FFF7FEFF 		bl	_ZN5Print5printEc
 1798 00b6 0246     		mov	r2, r0
 1799 00b8 7B6B     		ldr	r3, [r7, #52]
 1800 00ba 1344     		add	r3, r3, r2
 1801 00bc 7B63     		str	r3, [r7, #52]
 227:core/Print.cpp ****      number = -number;
 1802              		.loc 3 227 0
 1803 00be 3B68     		ldr	r3, [r7]
 1804 00c0 3B60     		str	r3, [r7]
 1805 00c2 7B68     		ldr	r3, [r7, #4]
 1806 00c4 83F00043 		eor	r3, r3, #-2147483648
 1807 00c8 7B60     		str	r3, [r7, #4]
 1808              	.L77:
 228:core/Print.cpp ****   }
 229:core/Print.cpp **** 
 230:core/Print.cpp ****   // Round correctly so that print(1.999, 2) prints as "2.00"
 231:core/Print.cpp ****   double rounding = 0.5;
 1809              		.loc 3 231 0
 1810 00ca 4FF00002 		mov	r2, #0
 1811 00ce 494B     		ldr	r3, .L89+20
 1812 00d0 C7E90A23 		strd	r2, [r7, #40]
 1813              	.LBB25:
 232:core/Print.cpp ****   for (uint8_t i=0; i<digits; ++i)
 1814              		.loc 3 232 0
 1815 00d4 0023     		movs	r3, #0
 1816 00d6 87F82730 		strb	r3, [r7, #39]
 1817 00da 0FE0     		b	.L79
 1818              	.L80:
 233:core/Print.cpp ****     rounding /= 10.0;
 1819              		.loc 3 233 0 discriminator 3
 1820 00dc D7E90A01 		ldrd	r0, [r7, #40]
 1821 00e0 4FF00002 		mov	r2, #0
 1822 00e4 444B     		ldr	r3, .L89+24
 1823 00e6 FFF7FEFF 		bl	__aeabi_ddiv
 1824 00ea 0246     		mov	r2, r0
 1825 00ec 0B46     		mov	r3, r1
ARM GAS  C:\Users\Bruger\AppData\Local\Temp\cc797ORx.s 			page 41


 1826 00ee C7E90A23 		strd	r2, [r7, #40]
 232:core/Print.cpp ****   for (uint8_t i=0; i<digits; ++i)
 1827              		.loc 3 232 0 discriminator 3
 1828 00f2 97F82730 		ldrb	r3, [r7, #39]
 1829 00f6 0133     		adds	r3, r3, #1
 1830 00f8 87F82730 		strb	r3, [r7, #39]
 1831              	.L79:
 232:core/Print.cpp ****   for (uint8_t i=0; i<digits; ++i)
 1832              		.loc 3 232 0 is_stmt 0 discriminator 1
 1833 00fc 97F82720 		ldrb	r2, [r7, #39]	@ zero_extendqisi2
 1834 0100 97F84030 		ldrb	r3, [r7, #64]	@ zero_extendqisi2
 1835 0104 9A42     		cmp	r2, r3
 1836 0106 E9D3     		bcc	.L80
 1837              	.LBE25:
 234:core/Print.cpp ****   
 235:core/Print.cpp ****   number += rounding;
 1838              		.loc 3 235 0 is_stmt 1
 1839 0108 D7E90001 		ldrd	r0, [r7]
 1840 010c D7E90A23 		ldrd	r2, [r7, #40]
 1841 0110 FFF7FEFF 		bl	__aeabi_dadd
 1842 0114 0246     		mov	r2, r0
 1843 0116 0B46     		mov	r3, r1
 1844 0118 C7E90023 		strd	r2, [r7]
 236:core/Print.cpp **** 
 237:core/Print.cpp ****   // Extract the integer part of the number and print it
 238:core/Print.cpp ****   unsigned long int_part = (unsigned long)number;
 1845              		.loc 3 238 0
 1846 011c D7E90001 		ldrd	r0, [r7]
 1847 0120 FFF7FEFF 		bl	__aeabi_d2uiz
 1848 0124 0346     		mov	r3, r0
 1849 0126 7B61     		str	r3, [r7, #20]
 239:core/Print.cpp ****   double remainder = number - (double)int_part;
 1850              		.loc 3 239 0
 1851 0128 7869     		ldr	r0, [r7, #20]
 1852 012a FFF7FEFF 		bl	__aeabi_ui2d
 1853 012e 0246     		mov	r2, r0
 1854 0130 0B46     		mov	r3, r1
 1855 0132 D7E90001 		ldrd	r0, [r7]
 1856 0136 FFF7FEFF 		bl	__aeabi_dsub
 1857 013a 0246     		mov	r2, r0
 1858 013c 0B46     		mov	r3, r1
 1859 013e C7E90623 		strd	r2, [r7, #24]
 240:core/Print.cpp ****   n += print(int_part);
 1860              		.loc 3 240 0
 1861 0142 F868     		ldr	r0, [r7, #12]
 1862 0144 7969     		ldr	r1, [r7, #20]
 1863 0146 0A22     		movs	r2, #10
 1864 0148 FFF7FEFF 		bl	_ZN5Print5printEmi
 1865 014c 0246     		mov	r2, r0
 1866 014e 7B6B     		ldr	r3, [r7, #52]
 1867 0150 1344     		add	r3, r3, r2
 1868 0152 7B63     		str	r3, [r7, #52]
 241:core/Print.cpp **** 
 242:core/Print.cpp ****   // Print the decimal point, but only if there are digits beyond
 243:core/Print.cpp ****   if (digits > 0) {
 1869              		.loc 3 243 0
 1870 0154 97F84030 		ldrb	r3, [r7, #64]	@ zero_extendqisi2
ARM GAS  C:\Users\Bruger\AppData\Local\Temp\cc797ORx.s 			page 42


 1871 0158 002B     		cmp	r3, #0
 1872 015a 07D0     		beq	.L81
 244:core/Print.cpp ****     n += print("."); 
 1873              		.loc 3 244 0
 1874 015c F868     		ldr	r0, [r7, #12]
 1875 015e 2749     		ldr	r1, .L89+28
 1876 0160 FFF7FEFF 		bl	_ZN5Print5printEPKc
 1877 0164 0246     		mov	r2, r0
 1878 0166 7B6B     		ldr	r3, [r7, #52]
 1879 0168 1344     		add	r3, r3, r2
 1880 016a 7B63     		str	r3, [r7, #52]
 1881              	.L81:
 245:core/Print.cpp ****   }
 246:core/Print.cpp **** 
 247:core/Print.cpp ****   // Extract digits from the remainder one at a time
 248:core/Print.cpp ****   while (digits-- > 0)
 1882              		.loc 3 248 0
 1883 016c 26E0     		b	.L82
 1884              	.L83:
 1885              	.LBB26:
 249:core/Print.cpp ****   {
 250:core/Print.cpp ****     remainder *= 10.0;
 1886              		.loc 3 250 0
 1887 016e D7E90601 		ldrd	r0, [r7, #24]
 1888 0172 4FF00002 		mov	r2, #0
 1889 0176 204B     		ldr	r3, .L89+24
 1890 0178 FFF7FEFF 		bl	__aeabi_dmul
 1891 017c 0246     		mov	r2, r0
 1892 017e 0B46     		mov	r3, r1
 1893 0180 C7E90623 		strd	r2, [r7, #24]
 251:core/Print.cpp ****     int toPrint = int(remainder);
 1894              		.loc 3 251 0
 1895 0184 D7E90601 		ldrd	r0, [r7, #24]
 1896 0188 FFF7FEFF 		bl	__aeabi_d2iz
 1897 018c 0346     		mov	r3, r0
 1898 018e 3B61     		str	r3, [r7, #16]
 252:core/Print.cpp ****     n += print(toPrint);
 1899              		.loc 3 252 0
 1900 0190 F868     		ldr	r0, [r7, #12]
 1901 0192 3969     		ldr	r1, [r7, #16]
 1902 0194 0A22     		movs	r2, #10
 1903 0196 FFF7FEFF 		bl	_ZN5Print5printEii
 1904 019a 0246     		mov	r2, r0
 1905 019c 7B6B     		ldr	r3, [r7, #52]
 1906 019e 1344     		add	r3, r3, r2
 1907 01a0 7B63     		str	r3, [r7, #52]
 253:core/Print.cpp ****     remainder -= toPrint; 
 1908              		.loc 3 253 0
 1909 01a2 3869     		ldr	r0, [r7, #16]
 1910 01a4 FFF7FEFF 		bl	__aeabi_i2d
 1911 01a8 0246     		mov	r2, r0
 1912 01aa 0B46     		mov	r3, r1
 1913 01ac D7E90601 		ldrd	r0, [r7, #24]
 1914 01b0 FFF7FEFF 		bl	__aeabi_dsub
 1915 01b4 0246     		mov	r2, r0
 1916 01b6 0B46     		mov	r3, r1
 1917 01b8 C7E90623 		strd	r2, [r7, #24]
ARM GAS  C:\Users\Bruger\AppData\Local\Temp\cc797ORx.s 			page 43


 1918              	.L82:
 1919              	.LBE26:
 248:core/Print.cpp ****   {
 1920              		.loc 3 248 0
 1921 01bc 97F84030 		ldrb	r3, [r7, #64]	@ zero_extendqisi2
 1922 01c0 5A1E     		subs	r2, r3, #1
 1923 01c2 87F84020 		strb	r2, [r7, #64]
 1924 01c6 002B     		cmp	r3, #0
 1925 01c8 14BF     		ite	ne
 1926 01ca 0123     		movne	r3, #1
 1927 01cc 0023     		moveq	r3, #0
 1928 01ce DBB2     		uxtb	r3, r3
 1929 01d0 002B     		cmp	r3, #0
 1930 01d2 CCD1     		bne	.L83
 254:core/Print.cpp ****   } 
 255:core/Print.cpp ****   
 256:core/Print.cpp ****   return n;
 1931              		.loc 3 256 0
 1932 01d4 7B6B     		ldr	r3, [r7, #52]
 1933              	.L71:
 1934              	.LBE24:
 257:core/Print.cpp **** }
 1935              		.loc 3 257 0
 1936 01d6 1846     		mov	r0, r3
 1937 01d8 3837     		adds	r7, r7, #56
 1938              		.cfi_def_cfa_offset 8
 1939 01da BD46     		mov	sp, r7
 1940              		.cfi_def_cfa_register 13
 1941              		@ sp needed
 1942 01dc 80BD     		pop	{r7, pc}
 1943              	.L90:
 1944 01de 00BF     		.align	2
 1945              	.L89:
 1946 01e0 00000000 		.word	.LC0
 1947 01e4 04000000 		.word	.LC1
 1948 01e8 FFFFEF41 		.word	1106247679
 1949 01ec 08000000 		.word	.LC2
 1950 01f0 FFFFEFC1 		.word	-1041235969
 1951 01f4 0000E03F 		.word	1071644672
 1952 01f8 00002440 		.word	1076101120
 1953 01fc 0C000000 		.word	.LC3
 1954              		.cfi_endproc
 1955              	.LFE172:
 1956              		.fnend
 1957              		.size	_ZN5Print10printFloatEdh, .-_ZN5Print10printFloatEdh
 1958              		.global	_ZTV5Print
 1959              		.section	.rodata
 1960 000e 0000     		.align	3
 1961              		.type	_ZTV5Print, %object
 1962              		.size	_ZTV5Print, 16
 1963              	_ZTV5Print:
 1964 0010 00000000 		.word	0
 1965 0014 00000000 		.word	_ZTI5Print
 1966 0018 00000000 		.word	__cxa_pure_virtual
 1967 001c 00000000 		.word	_ZN5Print5writeEPKhj
 1968              		.global	_ZTI5Print
 1969              		.align	2
ARM GAS  C:\Users\Bruger\AppData\Local\Temp\cc797ORx.s 			page 44


 1970              		.type	_ZTI5Print, %object
 1971              		.size	_ZTI5Print, 8
 1972              	_ZTI5Print:
 1973 0020 08000000 		.word	_ZTVN10__cxxabiv117__class_type_infoE+8
 1974 0024 00000000 		.word	_ZTS5Print
 1975              		.global	_ZTS5Print
 1976              		.align	2
 1977              		.type	_ZTS5Print, %object
 1978              		.size	_ZTS5Print, 7
 1979              	_ZTS5Print:
 1980 0028 35507269 		.ascii	"5Print\000"
 1980      6E7400
 1981              		.type	_ZL2SS, %object
 1982              		.size	_ZL2SS, 1
 1983              	_ZL2SS:
 1984 002f 0A       		.byte	10
 1985              		.type	_ZL4MOSI, %object
 1986              		.size	_ZL4MOSI, 1
 1987              	_ZL4MOSI:
 1988 0030 0B       		.byte	11
 1989              		.type	_ZL4MISO, %object
 1990              		.size	_ZL4MISO, 1
 1991              	_ZL4MISO:
 1992 0031 0C       		.byte	12
 1993              		.type	_ZL3SCK, %object
 1994              		.size	_ZL3SCK, 1
 1995              	_ZL3SCK:
 1996 0032 0D       		.byte	13
 1997              		.type	_ZL3SDA, %object
 1998              		.size	_ZL3SDA, 1
 1999              	_ZL3SDA:
 2000 0033 15       		.byte	21
 2001              		.type	_ZL3SCL, %object
 2002              		.size	_ZL3SCL, 1
 2003              	_ZL3SCL:
 2004 0034 14       		.byte	20
 2005 0035 000000   		.text
 2006              	.Letext0:
 2007              		.file 4 "c:\\program files (x86)\\cypress\\psoc creator\\4.0\\psoc creator\\import\\gnu\\arm\\4.9.
 2008              		.file 5 "c:\\program files (x86)\\cypress\\psoc creator\\4.0\\psoc creator\\import\\gnu\\arm\\4.9.
 2009              		.file 6 "c:\\program files (x86)\\cypress\\psoc creator\\4.0\\psoc creator\\import\\gnu\\arm\\4.9.
 2010              		.file 7 ".\\core/pins_arduino.h"
 2011              		.file 8 "<built-in>"
 2012              		.file 9 "Generated_Source\\PSoC5/core_cm3.h"