ARM GAS  C:\Users\Bruger\AppData\Local\Temp\ccEL6qnd.s 			page 1


   1              		.syntax unified
   2              		.cpu cortex-m3
   3              		.fpu softvfp
   4              		.eabi_attribute 20, 1
   5              		.eabi_attribute 21, 1
   6              		.eabi_attribute 23, 3
   7              		.eabi_attribute 24, 1
   8              		.eabi_attribute 25, 1
   9              		.eabi_attribute 26, 1
  10              		.eabi_attribute 30, 6
  11              		.eabi_attribute 34, 1
  12              		.eabi_attribute 18, 4
  13              		.thumb
  14              		.file	"sketch.cpp"
  15              		.text
  16              	.Ltext0:
  17              		.cfi_sections	.debug_frame
  18              		.section	.text._ZN5Print5writeEPKc,"axG",%progbits,_ZN5Print5writeEPKc,comdat
  19              		.align	2
  20              		.weak	_ZN5Print5writeEPKc
  21              		.thumb
  22              		.thumb_func
  23              		.type	_ZN5Print5writeEPKc, %function
  24              	_ZN5Print5writeEPKc:
  25              		.fnstart
  26              	.LFB123:
  27              		.file 1 ".\\core/Print.h"
   1:.\core/Print.h **** /*
   2:.\core/Print.h ****   Print.h - Base class that provides print() and println()
   3:.\core/Print.h ****   Copyright (c) 2008 David A. Mellis.  All right reserved.
   4:.\core/Print.h **** 
   5:.\core/Print.h ****   This library is free software; you can redistribute it and/or
   6:.\core/Print.h ****   modify it under the terms of the GNU Lesser General Public
   7:.\core/Print.h ****   License as published by the Free Software Foundation; either
   8:.\core/Print.h ****   version 2.1 of the License, or (at your option) any later version.
   9:.\core/Print.h **** 
  10:.\core/Print.h ****   This library is distributed in the hope that it will be useful,
  11:.\core/Print.h ****   but WITHOUT ANY WARRANTY; without even the implied warranty of
  12:.\core/Print.h ****   MERCHANTABILITY or FITNESS FOR A PARTICULAR PURPOSE.  See the GNU
  13:.\core/Print.h ****   Lesser General Public License for more details.
  14:.\core/Print.h **** 
  15:.\core/Print.h ****   You should have received a copy of the GNU Lesser General Public
  16:.\core/Print.h ****   License along with this library; if not, write to the Free Software
  17:.\core/Print.h ****   Foundation, Inc., 51 Franklin St, Fifth Floor, Boston, MA  02110-1301  USA
  18:.\core/Print.h **** */
  19:.\core/Print.h **** 
  20:.\core/Print.h **** #ifndef Print_h
  21:.\core/Print.h **** #define Print_h
  22:.\core/Print.h **** 
  23:.\core/Print.h **** #include <inttypes.h>
  24:.\core/Print.h **** #include <stdio.h> // for size_t
  25:.\core/Print.h **** 
  26:.\core/Print.h **** #include "WString.h"
  27:.\core/Print.h **** #include "Printable.h"
  28:.\core/Print.h **** 
  29:.\core/Print.h **** #define DEC 10
  30:.\core/Print.h **** #define HEX 16
ARM GAS  C:\Users\Bruger\AppData\Local\Temp\ccEL6qnd.s 			page 2


  31:.\core/Print.h **** #define OCT 8
  32:.\core/Print.h **** #define BIN 2
  33:.\core/Print.h **** 
  34:.\core/Print.h **** class Print
  35:.\core/Print.h **** {
  36:.\core/Print.h ****   private:
  37:.\core/Print.h ****     int write_error;
  38:.\core/Print.h ****     size_t printNumber(unsigned long, uint8_t);
  39:.\core/Print.h ****     size_t printFloat(double, uint8_t);
  40:.\core/Print.h ****   protected:
  41:.\core/Print.h ****     void setWriteError(int err = 1) { write_error = err; }
  42:.\core/Print.h ****   public:
  43:.\core/Print.h ****     Print() : write_error(0) {}
  44:.\core/Print.h ****     ~Print(){}
  45:.\core/Print.h ****   
  46:.\core/Print.h ****     int getWriteError() { return write_error; }
  47:.\core/Print.h ****     void clearWriteError() { setWriteError(0); }
  48:.\core/Print.h ****   
  49:.\core/Print.h ****     virtual size_t write(uint8_t) = 0;
  50:.\core/Print.h ****     size_t write(const char *str) {
  28              		.loc 1 50 0
  29              		.cfi_startproc
  30              		@ args = 0, pretend = 0, frame = 8
  31              		@ frame_needed = 1, uses_anonymous_args = 0
  32 0000 90B5     		push	{r4, r7, lr}
  33              		.save {r4, r7, lr}
  34              		.cfi_def_cfa_offset 12
  35              		.cfi_offset 4, -12
  36              		.cfi_offset 7, -8
  37              		.cfi_offset 14, -4
  38              		.pad #12
  39 0002 83B0     		sub	sp, sp, #12
  40              		.cfi_def_cfa_offset 24
  41              		.setfp r7, sp, #0
  42 0004 00AF     		add	r7, sp, #0
  43              		.cfi_def_cfa_register 7
  44 0006 7860     		str	r0, [r7, #4]
  45 0008 3960     		str	r1, [r7]
  51:.\core/Print.h ****       if (str == NULL) return 0;
  46              		.loc 1 51 0
  47 000a 3B68     		ldr	r3, [r7]
  48 000c 002B     		cmp	r3, #0
  49 000e 01D1     		bne	.L2
  50              		.loc 1 51 0 is_stmt 0 discriminator 1
  51 0010 0023     		movs	r3, #0
  52 0012 0CE0     		b	.L3
  53              	.L2:
  52:.\core/Print.h ****       return write((const uint8_t *)str, strlen(str));
  54              		.loc 1 52 0 is_stmt 1
  55 0014 7B68     		ldr	r3, [r7, #4]
  56 0016 1B68     		ldr	r3, [r3]
  57 0018 0433     		adds	r3, r3, #4
  58 001a 1C68     		ldr	r4, [r3]
  59 001c 3868     		ldr	r0, [r7]
  60 001e FFF7FEFF 		bl	strlen
  61 0022 0346     		mov	r3, r0
  62 0024 7868     		ldr	r0, [r7, #4]
ARM GAS  C:\Users\Bruger\AppData\Local\Temp\ccEL6qnd.s 			page 3


  63 0026 3968     		ldr	r1, [r7]
  64 0028 1A46     		mov	r2, r3
  65 002a A047     		blx	r4
  66 002c 0346     		mov	r3, r0
  67              	.L3:
  53:.\core/Print.h ****     }
  68              		.loc 1 53 0
  69 002e 1846     		mov	r0, r3
  70 0030 0C37     		adds	r7, r7, #12
  71              		.cfi_def_cfa_offset 12
  72 0032 BD46     		mov	sp, r7
  73              		.cfi_def_cfa_register 13
  74              		@ sp needed
  75 0034 90BD     		pop	{r4, r7, pc}
  76              		.cfi_endproc
  77              	.LFE123:
  78              		.fnend
  79              		.size	_ZN5Print5writeEPKc, .-_ZN5Print5writeEPKc
  80 0036 00BF     		.section	.text._ZN5EERefC2Ei,"axG",%progbits,_ZN5EERefC5Ei,comdat
  81              		.align	2
  82              		.weak	_ZN5EERefC2Ei
  83              		.thumb
  84              		.thumb_func
  85              		.type	_ZN5EERefC2Ei, %function
  86              	_ZN5EERefC2Ei:
  87              		.fnstart
  88              	.LFB148:
  89              		.file 2 "Libraries/EEPROM/EEPROM.h"
   1:Libraries/EEPROM/EEPROM.h **** /*
   2:Libraries/EEPROM/EEPROM.h ****   EEPROM.h - EEPROM library
   3:Libraries/EEPROM/EEPROM.h ****   Original Copyright (c) 2006 David A. Mellis.  All right reserved.
   4:Libraries/EEPROM/EEPROM.h ****   New version by Christopher Andrews 2015.
   5:Libraries/EEPROM/EEPROM.h **** 
   6:Libraries/EEPROM/EEPROM.h ****   This library is free software; you can redistribute it and/or
   7:Libraries/EEPROM/EEPROM.h ****   modify it under the terms of the GNU Lesser General Public
   8:Libraries/EEPROM/EEPROM.h ****   License as published by the Free Software Foundation; either
   9:Libraries/EEPROM/EEPROM.h ****   version 2.1 of the License, or (at your option) any later version.
  10:Libraries/EEPROM/EEPROM.h **** 
  11:Libraries/EEPROM/EEPROM.h ****   This library is distributed in the hope that it will be useful,
  12:Libraries/EEPROM/EEPROM.h ****   but WITHOUT ANY WARRANTY; without even the implied warranty of
  13:Libraries/EEPROM/EEPROM.h ****   MERCHANTABILITY or FITNESS FOR A PARTICULAR PURPOSE.  See the GNU
  14:Libraries/EEPROM/EEPROM.h ****   Lesser General Public License for more details.
  15:Libraries/EEPROM/EEPROM.h **** 
  16:Libraries/EEPROM/EEPROM.h ****   You should have received a copy of the GNU Lesser General Public
  17:Libraries/EEPROM/EEPROM.h ****   License along with this library; if not, write to the Free Software
  18:Libraries/EEPROM/EEPROM.h ****   Foundation, Inc., 51 Franklin St, Fifth Floor, Boston, MA  02110-1301  USA
  19:Libraries/EEPROM/EEPROM.h **** */
  20:Libraries/EEPROM/EEPROM.h **** 
  21:Libraries/EEPROM/EEPROM.h **** #ifndef EEPROM_h
  22:Libraries/EEPROM/EEPROM.h **** #define EEPROM_h
  23:Libraries/EEPROM/EEPROM.h **** 
  24:Libraries/EEPROM/EEPROM.h **** #include <inttypes.h>
  25:Libraries/EEPROM/EEPROM.h **** #include <Arduino_eeprom.h>
  26:Libraries/EEPROM/EEPROM.h **** #include <avr/io.h>
  27:Libraries/EEPROM/EEPROM.h **** 
  28:Libraries/EEPROM/EEPROM.h **** /***
  29:Libraries/EEPROM/EEPROM.h ****     EERef class.
ARM GAS  C:\Users\Bruger\AppData\Local\Temp\ccEL6qnd.s 			page 4


  30:Libraries/EEPROM/EEPROM.h ****     
  31:Libraries/EEPROM/EEPROM.h ****     This object references an EEPROM cell.
  32:Libraries/EEPROM/EEPROM.h ****     Its purpose is to mimic a typical byte of RAM, however its storage is the EEPROM.
  33:Libraries/EEPROM/EEPROM.h ****     This class has an overhead of two bytes, similar to storing a pointer to an EEPROM cell.
  34:Libraries/EEPROM/EEPROM.h **** ***/
  35:Libraries/EEPROM/EEPROM.h **** 
  36:Libraries/EEPROM/EEPROM.h **** struct EERef{
  37:Libraries/EEPROM/EEPROM.h **** 
  38:Libraries/EEPROM/EEPROM.h ****     EERef( const int index )
  90              		.loc 2 38 0
  91              		.cfi_startproc
  92              		@ args = 0, pretend = 0, frame = 8
  93              		@ frame_needed = 1, uses_anonymous_args = 0
  94              		@ link register save eliminated.
  95 0000 80B4     		push	{r7}
  96              		.cfi_def_cfa_offset 4
  97              		.cfi_offset 7, -4
  98 0002 83B0     		sub	sp, sp, #12
  99              		.cfi_def_cfa_offset 16
 100 0004 00AF     		add	r7, sp, #0
 101              		.cfi_def_cfa_register 7
 102 0006 7860     		str	r0, [r7, #4]
 103 0008 3960     		str	r1, [r7]
 104              	.LBB2:
  39:Libraries/EEPROM/EEPROM.h ****         : index( index )                 {}
 105              		.loc 2 39 0
 106 000a 7B68     		ldr	r3, [r7, #4]
 107 000c 3A68     		ldr	r2, [r7]
 108 000e 1A60     		str	r2, [r3]
 109              	.LBE2:
 110 0010 7B68     		ldr	r3, [r7, #4]
 111 0012 1846     		mov	r0, r3
 112 0014 0C37     		adds	r7, r7, #12
 113              		.cfi_def_cfa_offset 4
 114 0016 BD46     		mov	sp, r7
 115              		.cfi_def_cfa_register 13
 116              		@ sp needed
 117 0018 5DF8047B 		ldr	r7, [sp], #4
 118              		.cfi_restore 7
 119              		.cfi_def_cfa_offset 0
 120 001c 7047     		bx	lr
 121              		.cfi_endproc
 122              	.LFE148:
 123              		.cantunwind
 124              		.fnend
 125              		.size	_ZN5EERefC2Ei, .-_ZN5EERefC2Ei
 126              		.weak	_ZN5EERefC1Ei
 127              		.thumb_set _ZN5EERefC1Ei,_ZN5EERefC2Ei
 128 001e 00BF     		.section	.text._ZNK5EERefdeEv,"axG",%progbits,_ZNK5EERefdeEv,comdat
 129              		.align	2
 130              		.weak	_ZNK5EERefdeEv
 131              		.thumb
 132              		.thumb_func
 133              		.type	_ZNK5EERefdeEv, %function
 134              	_ZNK5EERefdeEv:
 135              		.fnstart
 136              	.LFB150:
ARM GAS  C:\Users\Bruger\AppData\Local\Temp\ccEL6qnd.s 			page 5


  40:Libraries/EEPROM/EEPROM.h ****     
  41:Libraries/EEPROM/EEPROM.h ****     //Access/read members.
  42:Libraries/EEPROM/EEPROM.h ****     uint8_t operator*() const            { return eeprom_read_byte( (uint8_t*) index ); }
 137              		.loc 2 42 0
 138              		.cfi_startproc
 139              		@ args = 0, pretend = 0, frame = 8
 140              		@ frame_needed = 1, uses_anonymous_args = 0
 141 0000 80B5     		push	{r7, lr}
 142              		.save {r7, lr}
 143              		.cfi_def_cfa_offset 8
 144              		.cfi_offset 7, -8
 145              		.cfi_offset 14, -4
 146              		.pad #8
 147 0002 82B0     		sub	sp, sp, #8
 148              		.cfi_def_cfa_offset 16
 149              		.setfp r7, sp, #0
 150 0004 00AF     		add	r7, sp, #0
 151              		.cfi_def_cfa_register 7
 152 0006 7860     		str	r0, [r7, #4]
 153              		.loc 2 42 0
 154 0008 7B68     		ldr	r3, [r7, #4]
 155 000a 1B68     		ldr	r3, [r3]
 156 000c 1846     		mov	r0, r3
 157 000e FFF7FEFF 		bl	_Z16eeprom_read_bytePh
 158 0012 0346     		mov	r3, r0
 159 0014 1846     		mov	r0, r3
 160 0016 0837     		adds	r7, r7, #8
 161              		.cfi_def_cfa_offset 8
 162 0018 BD46     		mov	sp, r7
 163              		.cfi_def_cfa_register 13
 164              		@ sp needed
 165 001a 80BD     		pop	{r7, pc}
 166              		.cfi_endproc
 167              	.LFE150:
 168              		.fnend
 169              		.size	_ZNK5EERefdeEv, .-_ZNK5EERefdeEv
 170              		.section	.text._ZNK5EERefcvKhEv,"axG",%progbits,_ZNK5EERefcvKhEv,comdat
 171              		.align	2
 172              		.weak	_ZNK5EERefcvKhEv
 173              		.thumb
 174              		.thumb_func
 175              		.type	_ZNK5EERefcvKhEv, %function
 176              	_ZNK5EERefcvKhEv:
 177              		.fnstart
 178              	.LFB151:
  43:Libraries/EEPROM/EEPROM.h ****     operator const uint8_t() const       { return **this; }
 179              		.loc 2 43 0
 180              		.cfi_startproc
 181              		@ args = 0, pretend = 0, frame = 8
 182              		@ frame_needed = 1, uses_anonymous_args = 0
 183 0000 80B5     		push	{r7, lr}
 184              		.save {r7, lr}
 185              		.cfi_def_cfa_offset 8
 186              		.cfi_offset 7, -8
 187              		.cfi_offset 14, -4
 188              		.pad #8
 189 0002 82B0     		sub	sp, sp, #8
ARM GAS  C:\Users\Bruger\AppData\Local\Temp\ccEL6qnd.s 			page 6


 190              		.cfi_def_cfa_offset 16
 191              		.setfp r7, sp, #0
 192 0004 00AF     		add	r7, sp, #0
 193              		.cfi_def_cfa_register 7
 194 0006 7860     		str	r0, [r7, #4]
 195              		.loc 2 43 0
 196 0008 7868     		ldr	r0, [r7, #4]
 197 000a FFF7FEFF 		bl	_ZNK5EERefdeEv
 198 000e 0346     		mov	r3, r0
 199 0010 1846     		mov	r0, r3
 200 0012 0837     		adds	r7, r7, #8
 201              		.cfi_def_cfa_offset 8
 202 0014 BD46     		mov	sp, r7
 203              		.cfi_def_cfa_register 13
 204              		@ sp needed
 205 0016 80BD     		pop	{r7, pc}
 206              		.cfi_endproc
 207              	.LFE151:
 208              		.fnend
 209              		.size	_ZNK5EERefcvKhEv, .-_ZNK5EERefcvKhEv
 210              		.section	.text._ZN5EERefaSEh,"axG",%progbits,_ZN5EERefaSEh,comdat
 211              		.align	2
 212              		.weak	_ZN5EERefaSEh
 213              		.thumb
 214              		.thumb_func
 215              		.type	_ZN5EERefaSEh, %function
 216              	_ZN5EERefaSEh:
 217              		.fnstart
 218              	.LFB153:
  44:Libraries/EEPROM/EEPROM.h ****     
  45:Libraries/EEPROM/EEPROM.h ****     //Assignment/write members.
  46:Libraries/EEPROM/EEPROM.h ****     EERef &operator=( const EERef &ref ) { return *this = *ref; }
  47:Libraries/EEPROM/EEPROM.h ****     EERef &operator=( uint8_t in )       { return eeprom_write_byte( (uint8_t*) index, in ), *this;
 219              		.loc 2 47 0
 220              		.cfi_startproc
 221              		@ args = 0, pretend = 0, frame = 8
 222              		@ frame_needed = 1, uses_anonymous_args = 0
 223 0000 80B5     		push	{r7, lr}
 224              		.save {r7, lr}
 225              		.cfi_def_cfa_offset 8
 226              		.cfi_offset 7, -8
 227              		.cfi_offset 14, -4
 228              		.pad #8
 229 0002 82B0     		sub	sp, sp, #8
 230              		.cfi_def_cfa_offset 16
 231              		.setfp r7, sp, #0
 232 0004 00AF     		add	r7, sp, #0
 233              		.cfi_def_cfa_register 7
 234 0006 7860     		str	r0, [r7, #4]
 235 0008 0B46     		mov	r3, r1
 236 000a FB70     		strb	r3, [r7, #3]
 237              		.loc 2 47 0
 238 000c 7B68     		ldr	r3, [r7, #4]
 239 000e 1B68     		ldr	r3, [r3]
 240 0010 1A46     		mov	r2, r3
 241 0012 FB78     		ldrb	r3, [r7, #3]	@ zero_extendqisi2
 242 0014 1046     		mov	r0, r2
ARM GAS  C:\Users\Bruger\AppData\Local\Temp\ccEL6qnd.s 			page 7


 243 0016 1946     		mov	r1, r3
 244 0018 FFF7FEFF 		bl	_Z17eeprom_write_bytePhh
 245 001c 7B68     		ldr	r3, [r7, #4]
 246 001e 1846     		mov	r0, r3
 247 0020 0837     		adds	r7, r7, #8
 248              		.cfi_def_cfa_offset 8
 249 0022 BD46     		mov	sp, r7
 250              		.cfi_def_cfa_register 13
 251              		@ sp needed
 252 0024 80BD     		pop	{r7, pc}
 253              		.cfi_endproc
 254              	.LFE153:
 255              		.fnend
 256              		.size	_ZN5EERefaSEh, .-_ZN5EERefaSEh
 257 0026 00BF     		.section	.text._ZN5EERef6updateEh,"axG",%progbits,_ZN5EERef6updateEh,comdat
 258              		.align	2
 259              		.weak	_ZN5EERef6updateEh
 260              		.thumb
 261              		.thumb_func
 262              		.type	_ZN5EERef6updateEh, %function
 263              	_ZN5EERef6updateEh:
 264              		.fnstart
 265              	.LFB164:
  48:Libraries/EEPROM/EEPROM.h ****     EERef &operator +=( uint8_t in )     { return *this = **this + in; }
  49:Libraries/EEPROM/EEPROM.h ****     EERef &operator -=( uint8_t in )     { return *this = **this - in; }
  50:Libraries/EEPROM/EEPROM.h ****     EERef &operator *=( uint8_t in )     { return *this = **this * in; }
  51:Libraries/EEPROM/EEPROM.h ****     EERef &operator /=( uint8_t in )     { return *this = **this / in; }
  52:Libraries/EEPROM/EEPROM.h ****     EERef &operator ^=( uint8_t in )     { return *this = **this ^ in; }
  53:Libraries/EEPROM/EEPROM.h ****     EERef &operator %=( uint8_t in )     { return *this = **this % in; }
  54:Libraries/EEPROM/EEPROM.h ****     EERef &operator &=( uint8_t in )     { return *this = **this & in; }
  55:Libraries/EEPROM/EEPROM.h ****     EERef &operator |=( uint8_t in )     { return *this = **this | in; }
  56:Libraries/EEPROM/EEPROM.h ****     EERef &operator <<=( uint8_t in )    { return *this = **this << in; }
  57:Libraries/EEPROM/EEPROM.h ****     EERef &operator >>=( uint8_t in )    { return *this = **this >> in; }
  58:Libraries/EEPROM/EEPROM.h ****     
  59:Libraries/EEPROM/EEPROM.h ****     EERef &update( uint8_t in )          { return  in != *this ? *this = in : *this; }
 266              		.loc 2 59 0
 267              		.cfi_startproc
 268              		@ args = 0, pretend = 0, frame = 8
 269              		@ frame_needed = 1, uses_anonymous_args = 0
 270 0000 80B5     		push	{r7, lr}
 271              		.save {r7, lr}
 272              		.cfi_def_cfa_offset 8
 273              		.cfi_offset 7, -8
 274              		.cfi_offset 14, -4
 275              		.pad #8
 276 0002 82B0     		sub	sp, sp, #8
 277              		.cfi_def_cfa_offset 16
 278              		.setfp r7, sp, #0
 279 0004 00AF     		add	r7, sp, #0
 280              		.cfi_def_cfa_register 7
 281 0006 7860     		str	r0, [r7, #4]
 282 0008 0B46     		mov	r3, r1
 283 000a FB70     		strb	r3, [r7, #3]
 284              		.loc 2 59 0
 285 000c 7868     		ldr	r0, [r7, #4]
 286 000e FFF7FEFF 		bl	_ZNK5EERefcvKhEv
 287 0012 0346     		mov	r3, r0
ARM GAS  C:\Users\Bruger\AppData\Local\Temp\ccEL6qnd.s 			page 8


 288 0014 1A46     		mov	r2, r3
 289 0016 FB78     		ldrb	r3, [r7, #3]	@ zero_extendqisi2
 290 0018 9342     		cmp	r3, r2
 291 001a 06D0     		beq	.L14
 292              		.loc 2 59 0 is_stmt 0 discriminator 1
 293 001c FB78     		ldrb	r3, [r7, #3]	@ zero_extendqisi2
 294 001e 7868     		ldr	r0, [r7, #4]
 295 0020 1946     		mov	r1, r3
 296 0022 FFF7FEFF 		bl	_ZN5EERefaSEh
 297 0026 0346     		mov	r3, r0
 298 0028 00E0     		b	.L15
 299              	.L14:
 300              		.loc 2 59 0 discriminator 2
 301 002a 7B68     		ldr	r3, [r7, #4]
 302              	.L15:
 303              		.loc 2 59 0 discriminator 4
 304 002c 1846     		mov	r0, r3
 305 002e 0837     		adds	r7, r7, #8
 306              		.cfi_def_cfa_offset 8
 307 0030 BD46     		mov	sp, r7
 308              		.cfi_def_cfa_register 13
 309              		@ sp needed
 310 0032 80BD     		pop	{r7, pc}
 311              		.cfi_endproc
 312              	.LFE164:
 313              		.fnend
 314              		.size	_ZN5EERef6updateEh, .-_ZN5EERef6updateEh
 315              		.section	.text._ZN11EEPROMClass4readEi,"axG",%progbits,_ZN11EEPROMClass4readEi,comdat
 316              		.align	2
 317              		.weak	_ZN11EEPROMClass4readEi
 318              		.thumb
 319              		.thumb_func
 320              		.type	_ZN11EEPROMClass4readEi, %function
 321              	_ZN11EEPROMClass4readEi:
 322              		.fnstart
 323              	.LFB181:
  60:Libraries/EEPROM/EEPROM.h ****     
  61:Libraries/EEPROM/EEPROM.h ****     /** Prefix increment/decrement **/
  62:Libraries/EEPROM/EEPROM.h ****     EERef& operator++()                  { return *this += 1; }
  63:Libraries/EEPROM/EEPROM.h ****     EERef& operator--()                  { return *this -= 1; }
  64:Libraries/EEPROM/EEPROM.h ****     
  65:Libraries/EEPROM/EEPROM.h ****     /** Postfix increment/decrement **/
  66:Libraries/EEPROM/EEPROM.h ****     uint8_t operator++ (int){ 
  67:Libraries/EEPROM/EEPROM.h ****         uint8_t ret = **this;
  68:Libraries/EEPROM/EEPROM.h ****         return ++(*this), ret;
  69:Libraries/EEPROM/EEPROM.h ****     }
  70:Libraries/EEPROM/EEPROM.h **** 
  71:Libraries/EEPROM/EEPROM.h ****     uint8_t operator-- (int){ 
  72:Libraries/EEPROM/EEPROM.h ****         uint8_t ret = **this;
  73:Libraries/EEPROM/EEPROM.h ****         return --(*this), ret;
  74:Libraries/EEPROM/EEPROM.h ****     }
  75:Libraries/EEPROM/EEPROM.h ****     
  76:Libraries/EEPROM/EEPROM.h ****     int index; //Index of current EEPROM cell.
  77:Libraries/EEPROM/EEPROM.h **** };
  78:Libraries/EEPROM/EEPROM.h **** 
  79:Libraries/EEPROM/EEPROM.h **** /***
  80:Libraries/EEPROM/EEPROM.h ****     EEPtr class.
ARM GAS  C:\Users\Bruger\AppData\Local\Temp\ccEL6qnd.s 			page 9


  81:Libraries/EEPROM/EEPROM.h ****     
  82:Libraries/EEPROM/EEPROM.h ****     This object is a bidirectional pointer to EEPROM cells represented by EERef objects.
  83:Libraries/EEPROM/EEPROM.h ****     Just like a normal pointer type, this can be dereferenced and repositioned using 
  84:Libraries/EEPROM/EEPROM.h ****     increment/decrement operators.
  85:Libraries/EEPROM/EEPROM.h **** ***/
  86:Libraries/EEPROM/EEPROM.h **** 
  87:Libraries/EEPROM/EEPROM.h **** struct EEPtr{
  88:Libraries/EEPROM/EEPROM.h **** 
  89:Libraries/EEPROM/EEPROM.h ****     EEPtr( const int index )
  90:Libraries/EEPROM/EEPROM.h ****         : index( index )                {}
  91:Libraries/EEPROM/EEPROM.h ****         
  92:Libraries/EEPROM/EEPROM.h ****     operator const int() const          { return index; }
  93:Libraries/EEPROM/EEPROM.h ****     EEPtr &operator=( int in )          { return index = in, *this; }
  94:Libraries/EEPROM/EEPROM.h ****     
  95:Libraries/EEPROM/EEPROM.h ****     //Iterator functionality.
  96:Libraries/EEPROM/EEPROM.h ****     bool operator!=( const EEPtr &ptr ) { return index != ptr.index; }
  97:Libraries/EEPROM/EEPROM.h ****     EERef operator*()                   { return index; }
  98:Libraries/EEPROM/EEPROM.h ****     
  99:Libraries/EEPROM/EEPROM.h ****     /** Prefix & Postfix increment/decrement **/
 100:Libraries/EEPROM/EEPROM.h ****     EEPtr& operator++()                 { return ++index, *this; }
 101:Libraries/EEPROM/EEPROM.h ****     EEPtr& operator--()                 { return --index, *this; }
 102:Libraries/EEPROM/EEPROM.h ****     EEPtr operator++ (int)              { return index++; }
 103:Libraries/EEPROM/EEPROM.h ****     EEPtr operator-- (int)              { return index--; }
 104:Libraries/EEPROM/EEPROM.h **** 
 105:Libraries/EEPROM/EEPROM.h ****     int index; //Index of current EEPROM cell.
 106:Libraries/EEPROM/EEPROM.h **** };
 107:Libraries/EEPROM/EEPROM.h **** 
 108:Libraries/EEPROM/EEPROM.h **** /***
 109:Libraries/EEPROM/EEPROM.h ****     EEPROMClass class.
 110:Libraries/EEPROM/EEPROM.h ****     
 111:Libraries/EEPROM/EEPROM.h ****     This object represents the entire EEPROM space.
 112:Libraries/EEPROM/EEPROM.h ****     It wraps the functionality of EEPtr and EERef into a basic interface.
 113:Libraries/EEPROM/EEPROM.h ****     This class is also 100% backwards compatible with earlier Arduino core releases.
 114:Libraries/EEPROM/EEPROM.h **** ***/
 115:Libraries/EEPROM/EEPROM.h **** 
 116:Libraries/EEPROM/EEPROM.h **** struct EEPROMClass{
 117:Libraries/EEPROM/EEPROM.h **** 
 118:Libraries/EEPROM/EEPROM.h ****     //Basic user access methods.
 119:Libraries/EEPROM/EEPROM.h ****     EERef operator[]( const int idx )    { return idx; }
 120:Libraries/EEPROM/EEPROM.h ****     uint8_t read( int idx )              { return EERef( idx ); }
 324              		.loc 2 120 0 is_stmt 1
 325              		.cfi_startproc
 326              		@ args = 0, pretend = 0, frame = 16
 327              		@ frame_needed = 1, uses_anonymous_args = 0
 328 0000 80B5     		push	{r7, lr}
 329              		.save {r7, lr}
 330              		.cfi_def_cfa_offset 8
 331              		.cfi_offset 7, -8
 332              		.cfi_offset 14, -4
 333              		.pad #16
 334 0002 84B0     		sub	sp, sp, #16
 335              		.cfi_def_cfa_offset 24
 336              		.setfp r7, sp, #0
 337 0004 00AF     		add	r7, sp, #0
 338              		.cfi_def_cfa_register 7
 339 0006 7860     		str	r0, [r7, #4]
 340 0008 3960     		str	r1, [r7]
ARM GAS  C:\Users\Bruger\AppData\Local\Temp\ccEL6qnd.s 			page 10


 341              		.loc 2 120 0
 342 000a 07F10C03 		add	r3, r7, #12
 343 000e 1846     		mov	r0, r3
 344 0010 3968     		ldr	r1, [r7]
 345 0012 FFF7FEFF 		bl	_ZN5EERefC1Ei
 346 0016 07F10C03 		add	r3, r7, #12
 347 001a 1846     		mov	r0, r3
 348 001c FFF7FEFF 		bl	_ZNK5EERefcvKhEv
 349 0020 0346     		mov	r3, r0
 350 0022 1846     		mov	r0, r3
 351 0024 1037     		adds	r7, r7, #16
 352              		.cfi_def_cfa_offset 8
 353 0026 BD46     		mov	sp, r7
 354              		.cfi_def_cfa_register 13
 355              		@ sp needed
 356 0028 80BD     		pop	{r7, pc}
 357              		.cfi_endproc
 358              	.LFE181:
 359              		.fnend
 360              		.size	_ZN11EEPROMClass4readEi, .-_ZN11EEPROMClass4readEi
 361 002a 00BF     		.section	.text._ZN11EEPROMClass6updateEih,"axG",%progbits,_ZN11EEPROMClass6updateEih,comdat
 362              		.align	2
 363              		.weak	_ZN11EEPROMClass6updateEih
 364              		.thumb
 365              		.thumb_func
 366              		.type	_ZN11EEPROMClass6updateEih, %function
 367              	_ZN11EEPROMClass6updateEih:
 368              		.fnstart
 369              	.LFB183:
 121:Libraries/EEPROM/EEPROM.h ****     void write( int idx, uint8_t val )   { (EERef( idx )) = val; }
 122:Libraries/EEPROM/EEPROM.h ****     void update( int idx, uint8_t val )  { EERef( idx ).update( val ); }
 370              		.loc 2 122 0
 371              		.cfi_startproc
 372              		@ args = 0, pretend = 0, frame = 24
 373              		@ frame_needed = 1, uses_anonymous_args = 0
 374 0000 80B5     		push	{r7, lr}
 375              		.save {r7, lr}
 376              		.cfi_def_cfa_offset 8
 377              		.cfi_offset 7, -8
 378              		.cfi_offset 14, -4
 379              		.pad #24
 380 0002 86B0     		sub	sp, sp, #24
 381              		.cfi_def_cfa_offset 32
 382              		.setfp r7, sp, #0
 383 0004 00AF     		add	r7, sp, #0
 384              		.cfi_def_cfa_register 7
 385 0006 F860     		str	r0, [r7, #12]
 386 0008 B960     		str	r1, [r7, #8]
 387 000a 1346     		mov	r3, r2
 388 000c FB71     		strb	r3, [r7, #7]
 389              		.loc 2 122 0
 390 000e 07F11403 		add	r3, r7, #20
 391 0012 1846     		mov	r0, r3
 392 0014 B968     		ldr	r1, [r7, #8]
 393 0016 FFF7FEFF 		bl	_ZN5EERefC1Ei
 394 001a 07F11402 		add	r2, r7, #20
 395 001e FB79     		ldrb	r3, [r7, #7]	@ zero_extendqisi2
ARM GAS  C:\Users\Bruger\AppData\Local\Temp\ccEL6qnd.s 			page 11


 396 0020 1046     		mov	r0, r2
 397 0022 1946     		mov	r1, r3
 398 0024 FFF7FEFF 		bl	_ZN5EERef6updateEh
 399 0028 1837     		adds	r7, r7, #24
 400              		.cfi_def_cfa_offset 8
 401 002a BD46     		mov	sp, r7
 402              		.cfi_def_cfa_register 13
 403              		@ sp needed
 404 002c 80BD     		pop	{r7, pc}
 405              		.cfi_endproc
 406              	.LFE183:
 407              		.fnend
 408              		.size	_ZN11EEPROMClass6updateEih, .-_ZN11EEPROMClass6updateEih
 409 002e 00BF     		.bss
 410              		.align	2
 411              	_ZL6EEPROM:
 412 0000 00       		.space	1
 413              		.global	onemsCounter
 414 0001 000000   		.align	2
 415              		.type	onemsCounter, %object
 416              		.size	onemsCounter, 4
 417              	onemsCounter:
 418 0004 00000000 		.space	4
 419              		.global	incomingByte
 420              		.align	2
 421              		.type	incomingByte, %object
 422              		.size	incomingByte, 4
 423              	incomingByte:
 424 0008 00000000 		.space	4
 425              		.section	.rodata
 426              		.align	2
 427              	.LC0:
 428 0000 48656C6C 		.ascii	"Hello, world\000"
 428      6F2C2077 
 428      6F726C64 
 428      00
 429              		.section	.text._Z5setupv,"ax",%progbits
 430              		.align	2
 431              		.global	_Z5setupv
 432              		.thumb
 433              		.thumb_func
 434              		.type	_Z5setupv, %function
 435              	_Z5setupv:
 436              		.fnstart
 437              	.LFB189:
 438              		.file 3 "sketch.cpp"
   1:sketch.cpp    **** 
   2:sketch.cpp    **** 
   3:sketch.cpp    **** #include "Arduino.h"
   4:sketch.cpp    **** #include "Libraries/EEPROM/EEPROM.h"
   5:sketch.cpp    **** 
   6:sketch.cpp    **** // Define 1ms test function
   7:sketch.cpp    **** void onemsTest(void);
   8:sketch.cpp    **** 
   9:sketch.cpp    **** // Define the variable used in 1msTest
  10:sketch.cpp    **** int onemsCounter = 0;
  11:sketch.cpp    **** 
ARM GAS  C:\Users\Bruger\AppData\Local\Temp\ccEL6qnd.s 			page 12


  12:sketch.cpp    **** // Define the adress to place the EEPROM tests data in
  13:sketch.cpp    **** #define EEPROM_TEST    2
  14:sketch.cpp    **** 
  15:sketch.cpp    **** const int ledPin = 1; // the pin that the LED is attached to
  16:sketch.cpp    **** int incomingByte;      // a variable to read incoming serial data into
  17:sketch.cpp    **** 
  18:sketch.cpp    **** void setup() {
 439              		.loc 3 18 0
 440              		.cfi_startproc
 441              		@ args = 0, pretend = 0, frame = 0
 442              		@ frame_needed = 1, uses_anonymous_args = 0
 443 0000 80B5     		push	{r7, lr}
 444              		.save {r7, lr}
 445              		.cfi_def_cfa_offset 8
 446              		.cfi_offset 7, -8
 447              		.cfi_offset 14, -4
 448              		.setfp r7, sp, #0
 449 0002 00AF     		add	r7, sp, #0
 450              		.cfi_def_cfa_register 7
  19:sketch.cpp    ****   // initialize serial communication:
  20:sketch.cpp    ****   Serial.begin(9600);
 451              		.loc 3 20 0
 452 0004 0D48     		ldr	r0, .L21
 453 0006 4FF41651 		mov	r1, #9600
 454 000a FFF7FEFF 		bl	_ZN9UARTClass5beginEm
  21:sketch.cpp    ****   delay(5000);
 455              		.loc 3 21 0
 456 000e 41F28830 		movw	r0, #5000
 457 0012 FFF7FEFF 		bl	_Z5delayj
  22:sketch.cpp    ****   Serial.println("Hello, world");
 458              		.loc 3 22 0
 459 0016 0948     		ldr	r0, .L21
 460 0018 0949     		ldr	r1, .L21+4
 461 001a FFF7FEFF 		bl	_ZN5Print7printlnEPKc
  23:sketch.cpp    ****   // initialize the LED pin as an output:
  24:sketch.cpp    ****   pinMode(ledPin, OUTPUT);
 462              		.loc 3 24 0
 463 001e 0120     		movs	r0, #1
 464 0020 0021     		movs	r1, #0
 465 0022 FFF7FEFF 		bl	_Z7pinModem8PIN_MODE
  25:sketch.cpp    ****   
  26:sketch.cpp    ****   EEPROM.update(EEPROM_TEST, 'X');
 466              		.loc 3 26 0
 467 0026 0748     		ldr	r0, .L21+8
 468 0028 0221     		movs	r1, #2
 469 002a 5822     		movs	r2, #88
 470 002c FFF7FEFF 		bl	_ZN11EEPROMClass6updateEih
  27:sketch.cpp    ****   
  28:sketch.cpp    ****   // 1ms counter test
  29:sketch.cpp    ****   Counter_1ms_initialize();
 471              		.loc 3 29 0
 472 0030 FFF7FEFF 		bl	Counter_1ms_Start
  30:sketch.cpp    ****   Counter_1ms_attachinterupt(onemsTest);
 473              		.loc 3 30 0
 474 0034 0448     		ldr	r0, .L21+12
 475 0036 FFF7FEFF 		bl	Counter_1ms_INT_StartEx
  31:sketch.cpp    **** }
ARM GAS  C:\Users\Bruger\AppData\Local\Temp\ccEL6qnd.s 			page 13


 476              		.loc 3 31 0
 477 003a 80BD     		pop	{r7, pc}
 478              	.L22:
 479              		.align	2
 480              	.L21:
 481 003c 00000000 		.word	Serial
 482 0040 00000000 		.word	.LC0
 483 0044 00000000 		.word	_ZL6EEPROM
 484 0048 00000000 		.word	_Z9onemsTestv
 485              		.cfi_endproc
 486              	.LFE189:
 487              		.fnend
 488              		.size	_Z5setupv, .-_Z5setupv
 489              		.section	.rodata
 490 000d 000000   		.align	2
 491              	.LC1:
 492 0010 48494748 		.ascii	"HIGH\000"
 492      00
 493 0015 000000   		.align	2
 494              	.LC2:
 495 0018 4C4F5700 		.ascii	"LOW\000"
 496              		.align	2
 497              	.LC3:
 498 001c 4F6C6420 		.ascii	"Old EEPROM DATA\000"
 498      45455052 
 498      4F4D2044 
 498      41544100 
 499              		.align	2
 500              	.LC4:
 501 002c 4E657720 		.ascii	"New EEPROM DATA\000"
 501      45455052 
 501      4F4D2044 
 501      41544100 
 502              		.section	.text._Z4loopv,"ax",%progbits
 503              		.align	2
 504              		.global	_Z4loopv
 505              		.thumb
 506              		.thumb_func
 507              		.type	_Z4loopv, %function
 508              	_Z4loopv:
 509              		.fnstart
 510              	.LFB190:
  32:sketch.cpp    **** 
  33:sketch.cpp    **** void loop() {
 511              		.loc 3 33 0
 512              		.cfi_startproc
 513              		@ args = 0, pretend = 0, frame = 0
 514              		@ frame_needed = 1, uses_anonymous_args = 0
 515 0000 80B5     		push	{r7, lr}
 516              		.save {r7, lr}
 517              		.cfi_def_cfa_offset 8
 518              		.cfi_offset 7, -8
 519              		.cfi_offset 14, -4
 520              		.setfp r7, sp, #0
 521 0002 00AF     		add	r7, sp, #0
 522              		.cfi_def_cfa_register 7
  34:sketch.cpp    ****   // see if there's incoming serial data:
ARM GAS  C:\Users\Bruger\AppData\Local\Temp\ccEL6qnd.s 			page 14


  35:sketch.cpp    ****   if (Serial.available() > 0) 
 523              		.loc 3 35 0
 524 0004 3248     		ldr	r0, .L32
 525 0006 FFF7FEFF 		bl	_ZN9UARTClass9availableEv
 526 000a 0346     		mov	r3, r0
 527 000c 002B     		cmp	r3, #0
 528 000e CCBF     		ite	gt
 529 0010 0123     		movgt	r3, #1
 530 0012 0023     		movle	r3, #0
 531 0014 DBB2     		uxtb	r3, r3
 532 0016 002B     		cmp	r3, #0
 533 0018 59D0     		beq	.L23
  36:sketch.cpp    ****   {
  37:sketch.cpp    ****     // read the oldest byte in the serial buffer:
  38:sketch.cpp    ****     incomingByte = Serial.read();
 534              		.loc 3 38 0
 535 001a 2D48     		ldr	r0, .L32
 536 001c FFF7FEFF 		bl	_ZN9UARTClass4readEv
 537 0020 0246     		mov	r2, r0
 538 0022 2C4B     		ldr	r3, .L32+4
 539 0024 1A60     		str	r2, [r3]
  39:sketch.cpp    ****     
  40:sketch.cpp    ****     //Echo back
  41:sketch.cpp    ****     Serial.write(incomingByte);
 540              		.loc 3 41 0
 541 0026 2B4B     		ldr	r3, .L32+4
 542 0028 1B68     		ldr	r3, [r3]
 543 002a DBB2     		uxtb	r3, r3
 544 002c 2848     		ldr	r0, .L32
 545 002e 1946     		mov	r1, r3
 546 0030 FFF7FEFF 		bl	_ZN9UARTClass5writeEh
  42:sketch.cpp    ****     
  43:sketch.cpp    ****     switch ( incomingByte ) {
 547              		.loc 3 43 0
 548 0034 274B     		ldr	r3, .L32+4
 549 0036 1B68     		ldr	r3, [r3]
 550 0038 482B     		cmp	r3, #72
 551 003a 04D0     		beq	.L26
 552 003c 4C2B     		cmp	r3, #76
 553 003e 0BD0     		beq	.L27
 554 0040 452B     		cmp	r3, #69
 555 0042 12D0     		beq	.L28
  44:sketch.cpp    ****         case 'H': // if it's a capital H (ASCII 72), turn on the LED:
  45:sketch.cpp    ****                 digitalWrite(ledPin, HIGH);
  46:sketch.cpp    ****                 Serial.println("HIGH");
  47:sketch.cpp    ****           break;
  48:sketch.cpp    ****           
  49:sketch.cpp    ****         case 'L': // if it's an capital L (ASCII 76) turn off the LED:
  50:sketch.cpp    ****                 digitalWrite(ledPin, LOW);
  51:sketch.cpp    ****                 Serial.println("LOW");
  52:sketch.cpp    ****           break;
  53:sketch.cpp    ****         
  54:sketch.cpp    ****         case 'E': // if it's an capital E (ASCII ) then we test the EEPROM:
  55:sketch.cpp    ****                 Serial.write("Old EEPROM DATA");
  56:sketch.cpp    ****                 Serial.write(EEPROM.read(EEPROM_TEST));
  57:sketch.cpp    ****                 
  58:sketch.cpp    ****                 if (EEPROM.read(EEPROM_TEST) == 'X')
ARM GAS  C:\Users\Bruger\AppData\Local\Temp\ccEL6qnd.s 			page 15


  59:sketch.cpp    ****                     {
  60:sketch.cpp    ****                         EEPROM.update(EEPROM_TEST, 'Y');
  61:sketch.cpp    ****                     }
  62:sketch.cpp    ****                 else
  63:sketch.cpp    ****                     {
  64:sketch.cpp    ****                         EEPROM.update(EEPROM_TEST, 'X');
  65:sketch.cpp    ****                     }
  66:sketch.cpp    ****                 
  67:sketch.cpp    ****                 Serial.write("New EEPROM DATA");
  68:sketch.cpp    ****                 Serial.write(EEPROM.read(EEPROM_TEST));
  69:sketch.cpp    ****           break;
  70:sketch.cpp    ****         
  71:sketch.cpp    ****           
  72:sketch.cpp    ****         default:
  73:sketch.cpp    ****           // Code
  74:sketch.cpp    ****           break;
 556              		.loc 3 74 0
 557 0044 43E0     		b	.L29
 558              	.L26:
  45:sketch.cpp    ****                 Serial.println("HIGH");
 559              		.loc 3 45 0
 560 0046 0120     		movs	r0, #1
 561 0048 0121     		movs	r1, #1
 562 004a FFF7FEFF 		bl	_Z12digitalWritemh
  46:sketch.cpp    ****           break;
 563              		.loc 3 46 0
 564 004e 2048     		ldr	r0, .L32
 565 0050 2149     		ldr	r1, .L32+8
 566 0052 FFF7FEFF 		bl	_ZN5Print7printlnEPKc
  47:sketch.cpp    ****           
 567              		.loc 3 47 0
 568 0056 3AE0     		b	.L29
 569              	.L27:
  50:sketch.cpp    ****                 Serial.println("LOW");
 570              		.loc 3 50 0
 571 0058 0120     		movs	r0, #1
 572 005a 0021     		movs	r1, #0
 573 005c FFF7FEFF 		bl	_Z12digitalWritemh
  51:sketch.cpp    ****           break;
 574              		.loc 3 51 0
 575 0060 1B48     		ldr	r0, .L32
 576 0062 1E49     		ldr	r1, .L32+12
 577 0064 FFF7FEFF 		bl	_ZN5Print7printlnEPKc
  52:sketch.cpp    ****         
 578              		.loc 3 52 0
 579 0068 31E0     		b	.L29
 580              	.L28:
  55:sketch.cpp    ****                 Serial.write(EEPROM.read(EEPROM_TEST));
 581              		.loc 3 55 0
 582 006a 1948     		ldr	r0, .L32
 583 006c 1C49     		ldr	r1, .L32+16
 584 006e FFF7FEFF 		bl	_ZN5Print5writeEPKc
  56:sketch.cpp    ****                 
 585              		.loc 3 56 0
 586 0072 1C48     		ldr	r0, .L32+20
 587 0074 0221     		movs	r1, #2
 588 0076 FFF7FEFF 		bl	_ZN11EEPROMClass4readEi
ARM GAS  C:\Users\Bruger\AppData\Local\Temp\ccEL6qnd.s 			page 16


 589 007a 0346     		mov	r3, r0
 590 007c 1448     		ldr	r0, .L32
 591 007e 1946     		mov	r1, r3
 592 0080 FFF7FEFF 		bl	_ZN9UARTClass5writeEh
  58:sketch.cpp    ****                     {
 593              		.loc 3 58 0
 594 0084 1748     		ldr	r0, .L32+20
 595 0086 0221     		movs	r1, #2
 596 0088 FFF7FEFF 		bl	_ZN11EEPROMClass4readEi
 597 008c 0346     		mov	r3, r0
 598 008e 582B     		cmp	r3, #88
 599 0090 0CBF     		ite	eq
 600 0092 0123     		moveq	r3, #1
 601 0094 0023     		movne	r3, #0
 602 0096 DBB2     		uxtb	r3, r3
 603 0098 002B     		cmp	r3, #0
 604 009a 05D0     		beq	.L30
  60:sketch.cpp    ****                     }
 605              		.loc 3 60 0
 606 009c 1148     		ldr	r0, .L32+20
 607 009e 0221     		movs	r1, #2
 608 00a0 5922     		movs	r2, #89
 609 00a2 FFF7FEFF 		bl	_ZN11EEPROMClass6updateEih
 610 00a6 04E0     		b	.L31
 611              	.L30:
  64:sketch.cpp    ****                     }
 612              		.loc 3 64 0
 613 00a8 0E48     		ldr	r0, .L32+20
 614 00aa 0221     		movs	r1, #2
 615 00ac 5822     		movs	r2, #88
 616 00ae FFF7FEFF 		bl	_ZN11EEPROMClass6updateEih
 617              	.L31:
  67:sketch.cpp    ****                 Serial.write(EEPROM.read(EEPROM_TEST));
 618              		.loc 3 67 0
 619 00b2 0748     		ldr	r0, .L32
 620 00b4 0C49     		ldr	r1, .L32+24
 621 00b6 FFF7FEFF 		bl	_ZN5Print5writeEPKc
  68:sketch.cpp    ****           break;
 622              		.loc 3 68 0
 623 00ba 0A48     		ldr	r0, .L32+20
 624 00bc 0221     		movs	r1, #2
 625 00be FFF7FEFF 		bl	_ZN11EEPROMClass4readEi
 626 00c2 0346     		mov	r3, r0
 627 00c4 0248     		ldr	r0, .L32
 628 00c6 1946     		mov	r1, r3
 629 00c8 FFF7FEFF 		bl	_ZN9UARTClass5writeEh
  69:sketch.cpp    ****         
 630              		.loc 3 69 0
 631 00cc 00BF     		nop
 632              	.L29:
 633              	.L23:
  75:sketch.cpp    ****     }
  76:sketch.cpp    ****     
  77:sketch.cpp    ****   }
  78:sketch.cpp    **** }
 634              		.loc 3 78 0
 635 00ce 80BD     		pop	{r7, pc}
ARM GAS  C:\Users\Bruger\AppData\Local\Temp\ccEL6qnd.s 			page 17


 636              	.L33:
 637              		.align	2
 638              	.L32:
 639 00d0 00000000 		.word	Serial
 640 00d4 00000000 		.word	incomingByte
 641 00d8 10000000 		.word	.LC1
 642 00dc 18000000 		.word	.LC2
 643 00e0 1C000000 		.word	.LC3
 644 00e4 00000000 		.word	_ZL6EEPROM
 645 00e8 2C000000 		.word	.LC4
 646              		.cfi_endproc
 647              	.LFE190:
 648              		.fnend
 649              		.size	_Z4loopv, .-_Z4loopv
 650              		.section	.text._Z9onemsTestv,"ax",%progbits
 651              		.align	2
 652              		.global	_Z9onemsTestv
 653              		.thumb
 654              		.thumb_func
 655              		.type	_Z9onemsTestv, %function
 656              	_Z9onemsTestv:
 657              		.fnstart
 658              	.LFB191:
  79:sketch.cpp    **** 
  80:sketch.cpp    **** void onemsTest(void)
  81:sketch.cpp    **** {
 659              		.loc 3 81 0
 660              		.cfi_startproc
 661              		@ args = 0, pretend = 0, frame = 0
 662              		@ frame_needed = 1, uses_anonymous_args = 0
 663 0000 80B5     		push	{r7, lr}
 664              		.save {r7, lr}
 665              		.cfi_def_cfa_offset 8
 666              		.cfi_offset 7, -8
 667              		.cfi_offset 14, -4
 668              		.setfp r7, sp, #0
 669 0002 00AF     		add	r7, sp, #0
 670              		.cfi_def_cfa_register 7
  82:sketch.cpp    ****     onemsCounter++;
 671              		.loc 3 82 0
 672 0004 104B     		ldr	r3, .L38
 673 0006 1B68     		ldr	r3, [r3]
 674 0008 0133     		adds	r3, r3, #1
 675 000a 0F4A     		ldr	r2, .L38
 676 000c 1360     		str	r3, [r2]
  83:sketch.cpp    ****     
  84:sketch.cpp    ****     if (onemsCounter == 1000)
 677              		.loc 3 84 0
 678 000e 0E4B     		ldr	r3, .L38
 679 0010 1B68     		ldr	r3, [r3]
 680 0012 B3F57A7F 		cmp	r3, #1000
 681 0016 16D1     		bne	.L34
  85:sketch.cpp    ****     {
  86:sketch.cpp    ****         // reset the counter value
  87:sketch.cpp    ****         onemsCounter = 0;
 682              		.loc 3 87 0
 683 0018 0B4B     		ldr	r3, .L38
ARM GAS  C:\Users\Bruger\AppData\Local\Temp\ccEL6qnd.s 			page 18


 684 001a 0022     		movs	r2, #0
 685 001c 1A60     		str	r2, [r3]
  88:sketch.cpp    ****         
  89:sketch.cpp    ****         // flip the LED to show it works
  90:sketch.cpp    ****         if (digitalRead(ledPin) == 1)
 686              		.loc 3 90 0
 687 001e 0120     		movs	r0, #1
 688 0020 FFF7FEFF 		bl	_Z11digitalReadm
 689 0024 0346     		mov	r3, r0
 690 0026 012B     		cmp	r3, #1
 691 0028 0CBF     		ite	eq
 692 002a 0123     		moveq	r3, #1
 693 002c 0023     		movne	r3, #0
 694 002e DBB2     		uxtb	r3, r3
 695 0030 002B     		cmp	r3, #0
 696 0032 04D0     		beq	.L36
  91:sketch.cpp    ****         {
  92:sketch.cpp    ****             digitalWrite(ledPin, 0);
 697              		.loc 3 92 0
 698 0034 0120     		movs	r0, #1
 699 0036 0021     		movs	r1, #0
 700 0038 FFF7FEFF 		bl	_Z12digitalWritemh
 701 003c 03E0     		b	.L34
 702              	.L36:
  93:sketch.cpp    ****         }
  94:sketch.cpp    ****         else
  95:sketch.cpp    ****         {
  96:sketch.cpp    ****             digitalWrite(ledPin, 1);
 703              		.loc 3 96 0
 704 003e 0120     		movs	r0, #1
 705 0040 0121     		movs	r1, #1
 706 0042 FFF7FEFF 		bl	_Z12digitalWritemh
 707              	.L34:
  97:sketch.cpp    ****         }
  98:sketch.cpp    ****     }
  99:sketch.cpp    **** }
 708              		.loc 3 99 0
 709 0046 80BD     		pop	{r7, pc}
 710              	.L39:
 711              		.align	2
 712              	.L38:
 713 0048 00000000 		.word	onemsCounter
 714              		.cfi_endproc
 715              	.LFE191:
 716              		.fnend
 717              		.size	_Z9onemsTestv, .-_Z9onemsTestv
 718              		.section	.rodata
 719              		.type	_ZL2SS, %object
 720              		.size	_ZL2SS, 1
 721              	_ZL2SS:
 722 003c 0A       		.byte	10
 723              		.type	_ZL4MOSI, %object
 724              		.size	_ZL4MOSI, 1
 725              	_ZL4MOSI:
 726 003d 0B       		.byte	11
 727              		.type	_ZL4MISO, %object
 728              		.size	_ZL4MISO, 1
ARM GAS  C:\Users\Bruger\AppData\Local\Temp\ccEL6qnd.s 			page 19


 729              	_ZL4MISO:
 730 003e 0C       		.byte	12
 731              		.type	_ZL3SCK, %object
 732              		.size	_ZL3SCK, 1
 733              	_ZL3SCK:
 734 003f 0D       		.byte	13
 735              		.type	_ZL3SDA, %object
 736              		.size	_ZL3SDA, 1
 737              	_ZL3SDA:
 738 0040 15       		.byte	21
 739              		.type	_ZL3SCL, %object
 740              		.size	_ZL3SCL, 1
 741              	_ZL3SCL:
 742 0041 14       		.byte	20
 743 0042 0000     		.align	2
 744              		.type	_ZL6ledPin, %object
 745              		.size	_ZL6ledPin, 4
 746              	_ZL6ledPin:
 747 0044 01000000 		.word	1
 748              		.text
 749              	.Letext0:
 750              		.file 4 "c:\\program files (x86)\\cypress\\psoc creator\\4.0\\psoc creator\\import\\gnu\\arm\\4.9.
 751              		.file 5 "c:\\program files (x86)\\cypress\\psoc creator\\4.0\\psoc creator\\import\\gnu\\arm\\4.9.
 752              		.file 6 "c:\\program files (x86)\\cypress\\psoc creator\\4.0\\psoc creator\\import\\gnu\\arm\\4.9.
 753              		.file 7 ".\\core/pins_arduino.h"
 754              		.file 8 "Generated_Source\\PSoC5/core_cm3.h"
 755              		.file 9 ".\\core/Arduino.h"
 756              		.file 10 ".\\core/Arduino_Pins.h"
 757              		.file 11 ".\\core/UARTClass.h"