ARM GAS  C:\Users\Bruger\AppData\Local\Temp\cc6E5BQ9.s 			page 1


   1              		.syntax unified
   2              		.cpu cortex-m3
   3              		.fpu softvfp
   4              		.eabi_attribute 20, 1
   5              		.eabi_attribute 21, 1
   6              		.eabi_attribute 23, 3
   7              		.eabi_attribute 24, 1
   8              		.eabi_attribute 25, 1
   9              		.eabi_attribute 26, 1
  10              		.eabi_attribute 30, 6
  11              		.eabi_attribute 34, 1
  12              		.eabi_attribute 18, 4
  13              		.thumb
  14              		.file	"SPI.cpp"
  15              		.text
  16              	.Ltext0:
  17              		.cfi_sections	.debug_frame
  18              		.global	SPI
  19              		.bss
  20              		.align	2
  21              		.type	SPI, %object
  22              		.size	SPI, 1
  23              	SPI:
  24 0000 00       		.space	1
  25 0001 000000   		.section	.text._ZN8SPIClassC2Ev,"ax",%progbits
  26              		.align	2
  27              		.global	_ZN8SPIClassC2Ev
  28              		.thumb
  29              		.thumb_func
  30              		.type	_ZN8SPIClassC2Ev, %function
  31              	_ZN8SPIClassC2Ev:
  32              		.fnstart
  33              	.LFB148:
  34              		.file 1 "Libraries\\SPI\\SPI.cpp"
   1:Libraries\SPI/SPI.cpp **** /*
   2:Libraries\SPI/SPI.cpp ****  * Copyright (c) 2010 by Cristian Maglie <c.maglie@arduino.cc>
   3:Libraries\SPI/SPI.cpp ****  * Copyright (c) 2014 by Paul Stoffregen <paul@pjrc.com> (Transaction API)
   4:Libraries\SPI/SPI.cpp ****  * SPI Master library for arduino.
   5:Libraries\SPI/SPI.cpp ****  *
   6:Libraries\SPI/SPI.cpp ****  * This file is free software; you can redistribute it and/or modify
   7:Libraries\SPI/SPI.cpp ****  * it under the terms of either the GNU General Public License version 2
   8:Libraries\SPI/SPI.cpp ****  * or the GNU Lesser General Public License version 2.1, both as
   9:Libraries\SPI/SPI.cpp ****  * published by the Free Software Foundation.
  10:Libraries\SPI/SPI.cpp ****  */
  11:Libraries\SPI/SPI.cpp **** 
  12:Libraries\SPI/SPI.cpp **** #include "Arduino.h"
  13:Libraries\SPI/SPI.cpp **** #include "SPI.h"
  14:Libraries\SPI/SPI.cpp **** 
  15:Libraries\SPI/SPI.cpp **** SPIClass SPI;
  16:Libraries\SPI/SPI.cpp **** 
  17:Libraries\SPI/SPI.cpp **** 
  18:Libraries\SPI/SPI.cpp **** SPIClass::SPIClass()
  35              		.loc 1 18 0
  36              		.cfi_startproc
  37              		@ args = 0, pretend = 0, frame = 8
  38              		@ frame_needed = 1, uses_anonymous_args = 0
  39 0000 80B5     		push	{r7, lr}
ARM GAS  C:\Users\Bruger\AppData\Local\Temp\cc6E5BQ9.s 			page 2


  40              		.save {r7, lr}
  41              		.cfi_def_cfa_offset 8
  42              		.cfi_offset 7, -8
  43              		.cfi_offset 14, -4
  44              		.pad #8
  45 0002 82B0     		sub	sp, sp, #8
  46              		.cfi_def_cfa_offset 16
  47              		.setfp r7, sp, #0
  48 0004 00AF     		add	r7, sp, #0
  49              		.cfi_def_cfa_register 7
  50 0006 7860     		str	r0, [r7, #4]
  51              	.LBB2:
  19:Libraries\SPI/SPI.cpp **** {
  20:Libraries\SPI/SPI.cpp **** 	SPIM_Start();
  52              		.loc 1 20 0
  53 0008 FFF7FEFF 		bl	SPIM_Start
  54              	.LBE2:
  21:Libraries\SPI/SPI.cpp **** }
  55              		.loc 1 21 0
  56 000c 7B68     		ldr	r3, [r7, #4]
  57 000e 1846     		mov	r0, r3
  58 0010 0837     		adds	r7, r7, #8
  59              		.cfi_def_cfa_offset 8
  60 0012 BD46     		mov	sp, r7
  61              		.cfi_def_cfa_register 13
  62              		@ sp needed
  63 0014 80BD     		pop	{r7, pc}
  64              		.cfi_endproc
  65              	.LFE148:
  66              		.fnend
  67              		.size	_ZN8SPIClassC2Ev, .-_ZN8SPIClassC2Ev
  68              		.global	_ZN8SPIClassC1Ev
  69              		.thumb_set _ZN8SPIClassC1Ev,_ZN8SPIClassC2Ev
  70 0016 00BF     		.section	.text._ZN8SPIClassD2Ev,"ax",%progbits
  71              		.align	2
  72              		.global	_ZN8SPIClassD2Ev
  73              		.thumb
  74              		.thumb_func
  75              		.type	_ZN8SPIClassD2Ev, %function
  76              	_ZN8SPIClassD2Ev:
  77              		.fnstart
  78              	.LFB151:
  22:Libraries\SPI/SPI.cpp **** 
  23:Libraries\SPI/SPI.cpp **** SPIClass::~SPIClass()
  79              		.loc 1 23 0
  80              		.cfi_startproc
  81              		@ args = 0, pretend = 0, frame = 8
  82              		@ frame_needed = 1, uses_anonymous_args = 0
  83              		@ link register save eliminated.
  84 0000 80B4     		push	{r7}
  85              		.cfi_def_cfa_offset 4
  86              		.cfi_offset 7, -4
  87 0002 83B0     		sub	sp, sp, #12
  88              		.cfi_def_cfa_offset 16
  89 0004 00AF     		add	r7, sp, #0
  90              		.cfi_def_cfa_register 7
  91 0006 7860     		str	r0, [r7, #4]
ARM GAS  C:\Users\Bruger\AppData\Local\Temp\cc6E5BQ9.s 			page 3


  24:Libraries\SPI/SPI.cpp **** {
  25:Libraries\SPI/SPI.cpp **** }
  92              		.loc 1 25 0
  93 0008 7B68     		ldr	r3, [r7, #4]
  94 000a 1846     		mov	r0, r3
  95 000c 0C37     		adds	r7, r7, #12
  96              		.cfi_def_cfa_offset 4
  97 000e BD46     		mov	sp, r7
  98              		.cfi_def_cfa_register 13
  99              		@ sp needed
 100 0010 5DF8047B 		ldr	r7, [sp], #4
 101              		.cfi_restore 7
 102              		.cfi_def_cfa_offset 0
 103 0014 7047     		bx	lr
 104              		.cfi_endproc
 105              	.LFE151:
 106              		.cantunwind
 107              		.fnend
 108              		.size	_ZN8SPIClassD2Ev, .-_ZN8SPIClassD2Ev
 109              		.global	_ZN8SPIClassD1Ev
 110              		.thumb_set _ZN8SPIClassD1Ev,_ZN8SPIClassD2Ev
 111 0016 00BF     		.section	.text._ZN8SPIClass5beginEv,"ax",%progbits
 112              		.align	2
 113              		.global	_ZN8SPIClass5beginEv
 114              		.thumb
 115              		.thumb_func
 116              		.type	_ZN8SPIClass5beginEv, %function
 117              	_ZN8SPIClass5beginEv:
 118              		.fnstart
 119              	.LFB153:
  26:Libraries\SPI/SPI.cpp **** 
  27:Libraries\SPI/SPI.cpp **** void SPIClass::begin() 
  28:Libraries\SPI/SPI.cpp **** {
 120              		.loc 1 28 0
 121              		.cfi_startproc
 122              		@ args = 0, pretend = 0, frame = 8
 123              		@ frame_needed = 1, uses_anonymous_args = 0
 124 0000 80B5     		push	{r7, lr}
 125              		.save {r7, lr}
 126              		.cfi_def_cfa_offset 8
 127              		.cfi_offset 7, -8
 128              		.cfi_offset 14, -4
 129              		.pad #8
 130 0002 82B0     		sub	sp, sp, #8
 131              		.cfi_def_cfa_offset 16
 132              		.setfp r7, sp, #0
 133 0004 00AF     		add	r7, sp, #0
 134              		.cfi_def_cfa_register 7
 135 0006 7860     		str	r0, [r7, #4]
  29:Libraries\SPI/SPI.cpp ****   // D10_Ctrl and D11_Ctrl are registers which select between PWM and SPI for
  30:Libraries\SPI/SPI.cpp ****   //  those two pins. 0 is PWM, 1 is SPI. Do this *first* so if the PWM is on
  31:Libraries\SPI/SPI.cpp ****   //  these pins don't see a bunch of gibberish transitions when we hook the
  32:Libraries\SPI/SPI.cpp ****   //  peripheral bus up to them.
  33:Libraries\SPI/SPI.cpp ****   D10_Ctrl_Write(0x01);
 136              		.loc 1 33 0
 137 0008 0120     		movs	r0, #1
 138 000a FFF7FEFF 		bl	D10_Ctrl_Write
ARM GAS  C:\Users\Bruger\AppData\Local\Temp\cc6E5BQ9.s 			page 4


  34:Libraries\SPI/SPI.cpp ****   D11_Ctrl_Write(0x01);
 139              		.loc 1 34 0
 140 000e 0120     		movs	r0, #1
 141 0010 FFF7FEFF 		bl	D11_Ctrl_Write
  35:Libraries\SPI/SPI.cpp ****   pinMode(10, PERIPHERAL_OUT);
 142              		.loc 1 35 0
 143 0014 0A20     		movs	r0, #10
 144 0016 0421     		movs	r1, #4
 145 0018 FFF7FEFF 		bl	_Z7pinModem8PIN_MODE
  36:Libraries\SPI/SPI.cpp ****   pinMode(11, PERIPHERAL_OUT);
 146              		.loc 1 36 0
 147 001c 0B20     		movs	r0, #11
 148 001e 0421     		movs	r1, #4
 149 0020 FFF7FEFF 		bl	_Z7pinModem8PIN_MODE
  37:Libraries\SPI/SPI.cpp ****   pinMode(12, PERIPHERAL_IN);
 150              		.loc 1 37 0
 151 0024 0C20     		movs	r0, #12
 152 0026 0521     		movs	r1, #5
 153 0028 FFF7FEFF 		bl	_Z7pinModem8PIN_MODE
  38:Libraries\SPI/SPI.cpp ****   pinMode(13, PERIPHERAL_OUT);
 154              		.loc 1 38 0
 155 002c 0D20     		movs	r0, #13
 156 002e 0421     		movs	r1, #4
 157 0030 FFF7FEFF 		bl	_Z7pinModem8PIN_MODE
  39:Libraries\SPI/SPI.cpp ****   SPI_MODE_REG_Write(0x00);
 158              		.loc 1 39 0
 159 0034 0020     		movs	r0, #0
 160 0036 FFF7FEFF 		bl	SPI_MODE_REG_Write
  40:Libraries\SPI/SPI.cpp **** }
 161              		.loc 1 40 0
 162 003a 0837     		adds	r7, r7, #8
 163              		.cfi_def_cfa_offset 8
 164 003c BD46     		mov	sp, r7
 165              		.cfi_def_cfa_register 13
 166              		@ sp needed
 167 003e 80BD     		pop	{r7, pc}
 168              		.cfi_endproc
 169              	.LFE153:
 170              		.fnend
 171              		.size	_ZN8SPIClass5beginEv, .-_ZN8SPIClass5beginEv
 172              		.section	.text._ZN8SPIClass3endEv,"ax",%progbits
 173              		.align	2
 174              		.global	_ZN8SPIClass3endEv
 175              		.thumb
 176              		.thumb_func
 177              		.type	_ZN8SPIClass3endEv, %function
 178              	_ZN8SPIClass3endEv:
 179              		.fnstart
 180              	.LFB154:
  41:Libraries\SPI/SPI.cpp **** 
  42:Libraries\SPI/SPI.cpp **** void SPIClass::end()
  43:Libraries\SPI/SPI.cpp **** {
 181              		.loc 1 43 0
 182              		.cfi_startproc
 183              		@ args = 0, pretend = 0, frame = 8
 184              		@ frame_needed = 1, uses_anonymous_args = 0
 185 0000 80B5     		push	{r7, lr}
ARM GAS  C:\Users\Bruger\AppData\Local\Temp\cc6E5BQ9.s 			page 5


 186              		.save {r7, lr}
 187              		.cfi_def_cfa_offset 8
 188              		.cfi_offset 7, -8
 189              		.cfi_offset 14, -4
 190              		.pad #8
 191 0002 82B0     		sub	sp, sp, #8
 192              		.cfi_def_cfa_offset 16
 193              		.setfp r7, sp, #0
 194 0004 00AF     		add	r7, sp, #0
 195              		.cfi_def_cfa_register 7
 196 0006 7860     		str	r0, [r7, #4]
  44:Libraries\SPI/SPI.cpp ****   pinMode(10, INPUT);
 197              		.loc 1 44 0
 198 0008 0A20     		movs	r0, #10
 199 000a 0121     		movs	r1, #1
 200 000c FFF7FEFF 		bl	_Z7pinModem8PIN_MODE
  45:Libraries\SPI/SPI.cpp ****   pinMode(11, INPUT);
 201              		.loc 1 45 0
 202 0010 0B20     		movs	r0, #11
 203 0012 0121     		movs	r1, #1
 204 0014 FFF7FEFF 		bl	_Z7pinModem8PIN_MODE
  46:Libraries\SPI/SPI.cpp ****   pinMode(12, INPUT);
 205              		.loc 1 46 0
 206 0018 0C20     		movs	r0, #12
 207 001a 0121     		movs	r1, #1
 208 001c FFF7FEFF 		bl	_Z7pinModem8PIN_MODE
  47:Libraries\SPI/SPI.cpp ****   pinMode(13, INPUT);
 209              		.loc 1 47 0
 210 0020 0D20     		movs	r0, #13
 211 0022 0121     		movs	r1, #1
 212 0024 FFF7FEFF 		bl	_Z7pinModem8PIN_MODE
  48:Libraries\SPI/SPI.cpp **** }
 213              		.loc 1 48 0
 214 0028 0837     		adds	r7, r7, #8
 215              		.cfi_def_cfa_offset 8
 216 002a BD46     		mov	sp, r7
 217              		.cfi_def_cfa_register 13
 218              		@ sp needed
 219 002c 80BD     		pop	{r7, pc}
 220              		.cfi_endproc
 221              	.LFE154:
 222              		.fnend
 223              		.size	_ZN8SPIClass3endEv, .-_ZN8SPIClass3endEv
 224 002e 00BF     		.section	.text._ZN8SPIClass11setBitOrderE8BITORDER,"ax",%progbits
 225              		.align	2
 226              		.global	_ZN8SPIClass11setBitOrderE8BITORDER
 227              		.thumb
 228              		.thumb_func
 229              		.type	_ZN8SPIClass11setBitOrderE8BITORDER, %function
 230              	_ZN8SPIClass11setBitOrderE8BITORDER:
 231              		.fnstart
 232              	.LFB155:
  49:Libraries\SPI/SPI.cpp **** 
  50:Libraries\SPI/SPI.cpp **** void SPIClass::setBitOrder(BITORDER _bitOrder) 
  51:Libraries\SPI/SPI.cpp **** {
 233              		.loc 1 51 0
 234              		.cfi_startproc
ARM GAS  C:\Users\Bruger\AppData\Local\Temp\cc6E5BQ9.s 			page 6


 235              		@ args = 0, pretend = 0, frame = 8
 236              		@ frame_needed = 1, uses_anonymous_args = 0
 237              		@ link register save eliminated.
 238 0000 80B4     		push	{r7}
 239              		.cfi_def_cfa_offset 4
 240              		.cfi_offset 7, -4
 241 0002 83B0     		sub	sp, sp, #12
 242              		.cfi_def_cfa_offset 16
 243 0004 00AF     		add	r7, sp, #0
 244              		.cfi_def_cfa_register 7
 245 0006 7860     		str	r0, [r7, #4]
 246 0008 0B46     		mov	r3, r1
 247 000a FB70     		strb	r3, [r7, #3]
  52:Libraries\SPI/SPI.cpp ****   // This is not supported by the native SPI master device provided by
  53:Libraries\SPI/SPI.cpp ****   //  Cypress. Future support may occur but for now, MSB first only!
  54:Libraries\SPI/SPI.cpp **** }
 248              		.loc 1 54 0
 249 000c 0C37     		adds	r7, r7, #12
 250              		.cfi_def_cfa_offset 4
 251 000e BD46     		mov	sp, r7
 252              		.cfi_def_cfa_register 13
 253              		@ sp needed
 254 0010 5DF8047B 		ldr	r7, [sp], #4
 255              		.cfi_restore 7
 256              		.cfi_def_cfa_offset 0
 257 0014 7047     		bx	lr
 258              		.cfi_endproc
 259              	.LFE155:
 260              		.cantunwind
 261              		.fnend
 262              		.size	_ZN8SPIClass11setBitOrderE8BITORDER, .-_ZN8SPIClass11setBitOrderE8BITORDER
 263 0016 00BF     		.section	.text._ZN8SPIClass11setDataModeE8SPI_MODE,"ax",%progbits
 264              		.align	2
 265              		.global	_ZN8SPIClass11setDataModeE8SPI_MODE
 266              		.thumb
 267              		.thumb_func
 268              		.type	_ZN8SPIClass11setDataModeE8SPI_MODE, %function
 269              	_ZN8SPIClass11setDataModeE8SPI_MODE:
 270              		.fnstart
 271              	.LFB156:
  55:Libraries\SPI/SPI.cpp **** 
  56:Libraries\SPI/SPI.cpp **** void SPIClass::setDataMode(SPI_MODE spiMode) 
  57:Libraries\SPI/SPI.cpp **** {
 272              		.loc 1 57 0
 273              		.cfi_startproc
 274              		@ args = 0, pretend = 0, frame = 8
 275              		@ frame_needed = 1, uses_anonymous_args = 0
 276 0000 80B5     		push	{r7, lr}
 277              		.save {r7, lr}
 278              		.cfi_def_cfa_offset 8
 279              		.cfi_offset 7, -8
 280              		.cfi_offset 14, -4
 281              		.pad #8
 282 0002 82B0     		sub	sp, sp, #8
 283              		.cfi_def_cfa_offset 16
 284              		.setfp r7, sp, #0
 285 0004 00AF     		add	r7, sp, #0
ARM GAS  C:\Users\Bruger\AppData\Local\Temp\cc6E5BQ9.s 			page 7


 286              		.cfi_def_cfa_register 7
 287 0006 7860     		str	r0, [r7, #4]
 288 0008 0B46     		mov	r3, r1
 289 000a FB70     		strb	r3, [r7, #3]
  58:Libraries\SPI/SPI.cpp ****   // The SPI_M peripheral provided by Cypress doesn't support dynamic mode
  59:Libraries\SPI/SPI.cpp ****   //  changing; however, we can game it a bit by running the output through
  60:Libraries\SPI/SPI.cpp ****   //  some digital logic on the way off chip.
  61:Libraries\SPI/SPI.cpp ****   //  We run the clock output of the SPI module through an XOR gate, and MISO
  62:Libraries\SPI/SPI.cpp ****   //  and MOSI through a MUX which allows to select either the native signal
  63:Libraries\SPI/SPI.cpp ****   //  or the signal run through a D flip flop which is clocked by the clock
  64:Libraries\SPI/SPI.cpp ****   //  going into the SPI module. The SCLK of the SPI module is 1/2 the input
  65:Libraries\SPI/SPI.cpp ****   //  frequency, so the one-cycle delay of the D-ff is actually a 1/2 SCLK
  66:Libraries\SPI/SPI.cpp ****   //  cycle delay.
  67:Libraries\SPI/SPI.cpp ****   //  These changes are controlled by the SPI_MODE_REG register; writing the
  68:Libraries\SPI/SPI.cpp ****   //  MODE value (0, 1, 2, 3) to that register will configure the logic for
  69:Libraries\SPI/SPI.cpp ****   //  the signal properly.
  70:Libraries\SPI/SPI.cpp ****   SPI_MODE_REG_Write(spiMode);
 290              		.loc 1 70 0
 291 000c FB78     		ldrb	r3, [r7, #3]	@ zero_extendqisi2
 292 000e 1846     		mov	r0, r3
 293 0010 FFF7FEFF 		bl	SPI_MODE_REG_Write
  71:Libraries\SPI/SPI.cpp **** }
 294              		.loc 1 71 0
 295 0014 0837     		adds	r7, r7, #8
 296              		.cfi_def_cfa_offset 8
 297 0016 BD46     		mov	sp, r7
 298              		.cfi_def_cfa_register 13
 299              		@ sp needed
 300 0018 80BD     		pop	{r7, pc}
 301              		.cfi_endproc
 302              	.LFE156:
 303              		.fnend
 304              		.size	_ZN8SPIClass11setDataModeE8SPI_MODE, .-_ZN8SPIClass11setDataModeE8SPI_MODE
 305 001a 00BF     		.section	.text._ZN8SPIClass15setClockDividerEh,"ax",%progbits
 306              		.align	2
 307              		.global	_ZN8SPIClass15setClockDividerEh
 308              		.thumb
 309              		.thumb_func
 310              		.type	_ZN8SPIClass15setClockDividerEh, %function
 311              	_ZN8SPIClass15setClockDividerEh:
 312              		.fnstart
 313              	.LFB157:
  72:Libraries\SPI/SPI.cpp **** 
  73:Libraries\SPI/SPI.cpp **** void SPIClass::setClockDivider(uint8_t _divider) 
  74:Libraries\SPI/SPI.cpp **** {
 314              		.loc 1 74 0
 315              		.cfi_startproc
 316              		@ args = 0, pretend = 0, frame = 8
 317              		@ frame_needed = 1, uses_anonymous_args = 0
 318 0000 80B5     		push	{r7, lr}
 319              		.save {r7, lr}
 320              		.cfi_def_cfa_offset 8
 321              		.cfi_offset 7, -8
 322              		.cfi_offset 14, -4
 323              		.pad #8
 324 0002 82B0     		sub	sp, sp, #8
 325              		.cfi_def_cfa_offset 16
ARM GAS  C:\Users\Bruger\AppData\Local\Temp\cc6E5BQ9.s 			page 8


 326              		.setfp r7, sp, #0
 327 0004 00AF     		add	r7, sp, #0
 328              		.cfi_def_cfa_register 7
 329 0006 7860     		str	r0, [r7, #4]
 330 0008 0B46     		mov	r3, r1
 331 000a FB70     		strb	r3, [r7, #3]
  75:Libraries\SPI/SPI.cpp ****   /* The clock output is determined by the input clock to the SPI module. That
  76:Libraries\SPI/SPI.cpp ****    *  is, in turn, determined by the divider we write here. The output freq is
  77:Libraries\SPI/SPI.cpp ****    *  (IMO / _divider) / 2; IMO is nominally 24MHz. 
  78:Libraries\SPI/SPI.cpp ****    *  The maximum frequency out is 9 MHz; maximum in is thus 18MHz
  79:Libraries\SPI/SPI.cpp ****    *  However, since IMO is 24MHz, and the divider is an integer, we can't do
  80:Libraries\SPI/SPI.cpp ****    *  better than 12 MHz input, or a by-two division.*/
  81:Libraries\SPI/SPI.cpp ****   if (_divider < 2)
 332              		.loc 1 81 0
 333 000c FB78     		ldrb	r3, [r7, #3]	@ zero_extendqisi2
 334 000e 012B     		cmp	r3, #1
 335 0010 00D8     		bhi	.L12
  82:Libraries\SPI/SPI.cpp ****   {
  83:Libraries\SPI/SPI.cpp ****     return;
 336              		.loc 1 83 0
 337 0012 07E0     		b	.L11
 338              	.L12:
  84:Libraries\SPI/SPI.cpp ****   }
  85:Libraries\SPI/SPI.cpp ****   SPI_Clock_In_SetDividerValue(_divider);
 339              		.loc 1 85 0
 340 0014 FB78     		ldrb	r3, [r7, #3]	@ zero_extendqisi2
 341 0016 9BB2     		uxth	r3, r3
 342 0018 013B     		subs	r3, r3, #1
 343 001a 9BB2     		uxth	r3, r3
 344 001c 1846     		mov	r0, r3
 345 001e 0121     		movs	r1, #1
 346 0020 FFF7FEFF 		bl	SPI_Clock_In_SetDividerRegister
 347              	.L11:
  86:Libraries\SPI/SPI.cpp **** }
 348              		.loc 1 86 0
 349 0024 0837     		adds	r7, r7, #8
 350              		.cfi_def_cfa_offset 8
 351 0026 BD46     		mov	sp, r7
 352              		.cfi_def_cfa_register 13
 353              		@ sp needed
 354 0028 80BD     		pop	{r7, pc}
 355              		.cfi_endproc
 356              	.LFE157:
 357              		.fnend
 358              		.size	_ZN8SPIClass15setClockDividerEh, .-_ZN8SPIClass15setClockDividerEh
 359 002a 00BF     		.section	.text._ZN8SPIClass8transferEh,"ax",%progbits
 360              		.align	2
 361              		.global	_ZN8SPIClass8transferEh
 362              		.thumb
 363              		.thumb_func
 364              		.type	_ZN8SPIClass8transferEh, %function
 365              	_ZN8SPIClass8transferEh:
 366              		.fnstart
 367              	.LFB158:
  87:Libraries\SPI/SPI.cpp **** 
  88:Libraries\SPI/SPI.cpp **** uint8_t SPIClass::transfer(uint8_t _data) 
  89:Libraries\SPI/SPI.cpp **** {
ARM GAS  C:\Users\Bruger\AppData\Local\Temp\cc6E5BQ9.s 			page 9


 368              		.loc 1 89 0
 369              		.cfi_startproc
 370              		@ args = 0, pretend = 0, frame = 8
 371              		@ frame_needed = 1, uses_anonymous_args = 0
 372 0000 80B5     		push	{r7, lr}
 373              		.save {r7, lr}
 374              		.cfi_def_cfa_offset 8
 375              		.cfi_offset 7, -8
 376              		.cfi_offset 14, -4
 377              		.pad #8
 378 0002 82B0     		sub	sp, sp, #8
 379              		.cfi_def_cfa_offset 16
 380              		.setfp r7, sp, #0
 381 0004 00AF     		add	r7, sp, #0
 382              		.cfi_def_cfa_register 7
 383 0006 7860     		str	r0, [r7, #4]
 384 0008 0B46     		mov	r3, r1
 385 000a FB70     		strb	r3, [r7, #3]
  90:Libraries\SPI/SPI.cpp ****   SPIM_WriteTxData(_data);
 386              		.loc 1 90 0
 387 000c FB78     		ldrb	r3, [r7, #3]	@ zero_extendqisi2
 388 000e 1846     		mov	r0, r3
 389 0010 FFF7FEFF 		bl	SPIM_WriteTxData
  91:Libraries\SPI/SPI.cpp ****   while (SPIM_GetTxBufferSize() > 0)
 390              		.loc 1 91 0
 391 0014 00BF     		nop
 392              	.L15:
 393              		.loc 1 91 0 is_stmt 0 discriminator 1
 394 0016 FFF7FEFF 		bl	SPIM_GetTxBufferSize
 395 001a 0346     		mov	r3, r0
 396 001c 002B     		cmp	r3, #0
 397 001e 14BF     		ite	ne
 398 0020 0123     		movne	r3, #1
 399 0022 0023     		moveq	r3, #0
 400 0024 DBB2     		uxtb	r3, r3
 401 0026 002B     		cmp	r3, #0
 402 0028 F5D1     		bne	.L15
  92:Libraries\SPI/SPI.cpp ****   { /* wait for data to be sent */}
  93:Libraries\SPI/SPI.cpp ****   return SPIM_ReadRxData(); 
 403              		.loc 1 93 0 is_stmt 1
 404 002a FFF7FEFF 		bl	SPIM_ReadRxData
 405 002e 0346     		mov	r3, r0
  94:Libraries\SPI/SPI.cpp **** }
 406              		.loc 1 94 0
 407 0030 1846     		mov	r0, r3
 408 0032 0837     		adds	r7, r7, #8
 409              		.cfi_def_cfa_offset 8
 410 0034 BD46     		mov	sp, r7
 411              		.cfi_def_cfa_register 13
 412              		@ sp needed
 413 0036 80BD     		pop	{r7, pc}
 414              		.cfi_endproc
 415              	.LFE158:
 416              		.fnend
 417              		.size	_ZN8SPIClass8transferEh, .-_ZN8SPIClass8transferEh
 418              		.section	.text._ZN8SPIClass8transferEPhj,"ax",%progbits
 419              		.align	2
ARM GAS  C:\Users\Bruger\AppData\Local\Temp\cc6E5BQ9.s 			page 10


 420              		.global	_ZN8SPIClass8transferEPhj
 421              		.thumb
 422              		.thumb_func
 423              		.type	_ZN8SPIClass8transferEPhj, %function
 424              	_ZN8SPIClass8transferEPhj:
 425              		.fnstart
 426              	.LFB159:
  95:Libraries\SPI/SPI.cpp **** 
  96:Libraries\SPI/SPI.cpp **** void SPIClass::transfer(uint8_t *_buf, size_t _count)
  97:Libraries\SPI/SPI.cpp **** {
 427              		.loc 1 97 0
 428              		.cfi_startproc
 429              		@ args = 0, pretend = 0, frame = 32
 430              		@ frame_needed = 1, uses_anonymous_args = 0
 431 0000 90B5     		push	{r4, r7, lr}
 432              		.save {r4, r7, lr}
 433              		.cfi_def_cfa_offset 12
 434              		.cfi_offset 4, -12
 435              		.cfi_offset 7, -8
 436              		.cfi_offset 14, -4
 437              		.pad #36
 438 0002 89B0     		sub	sp, sp, #36
 439              		.cfi_def_cfa_offset 48
 440              		.setfp r7, sp, #0
 441 0004 00AF     		add	r7, sp, #0
 442              		.cfi_def_cfa_register 7
 443 0006 F860     		str	r0, [r7, #12]
 444 0008 B960     		str	r1, [r7, #8]
 445 000a 7A60     		str	r2, [r7, #4]
 446              	.LBB3:
  98:Libraries\SPI/SPI.cpp ****   SPI_SS_Stretch_Write(0x00);
 447              		.loc 1 98 0
 448 000c 0020     		movs	r0, #0
 449 000e FFF7FEFF 		bl	SPI_SS_Stretch_Write
  99:Libraries\SPI/SPI.cpp ****   uint8_t fullPackets = _count/4;
 450              		.loc 1 99 0
 451 0012 7B68     		ldr	r3, [r7, #4]
 452 0014 9B08     		lsrs	r3, r3, #2
 453 0016 FB77     		strb	r3, [r7, #31]
 100:Libraries\SPI/SPI.cpp ****   uint8_t strayBytes = _count%4;
 454              		.loc 1 100 0
 455 0018 7B68     		ldr	r3, [r7, #4]
 456 001a DBB2     		uxtb	r3, r3
 457 001c 03F00303 		and	r3, r3, #3
 458 0020 FB74     		strb	r3, [r7, #19]
 101:Libraries\SPI/SPI.cpp ****   uint8_t i = 0;
 459              		.loc 1 101 0
 460 0022 0023     		movs	r3, #0
 461 0024 BB77     		strb	r3, [r7, #30]
 102:Libraries\SPI/SPI.cpp ****   while (fullPackets > 0)
 462              		.loc 1 102 0
 463 0026 29E0     		b	.L18
 464              	.L22:
 465              	.LBB4:
 103:Libraries\SPI/SPI.cpp ****   {
 104:Libraries\SPI/SPI.cpp ****     SPIM_PutArray((const uint8_t*)(_buf + i), 4);
 466              		.loc 1 104 0
ARM GAS  C:\Users\Bruger\AppData\Local\Temp\cc6E5BQ9.s 			page 11


 467 0028 BB7F     		ldrb	r3, [r7, #30]	@ zero_extendqisi2
 468 002a BA68     		ldr	r2, [r7, #8]
 469 002c 1344     		add	r3, r3, r2
 470 002e 1846     		mov	r0, r3
 471 0030 0421     		movs	r1, #4
 472 0032 FFF7FEFF 		bl	SPIM_PutArray
 105:Libraries\SPI/SPI.cpp ****     while (SPIM_GetTxBufferSize() > 0)
 473              		.loc 1 105 0
 474 0036 00BF     		nop
 475              	.L19:
 476              		.loc 1 105 0 is_stmt 0 discriminator 1
 477 0038 FFF7FEFF 		bl	SPIM_GetTxBufferSize
 478 003c 0346     		mov	r3, r0
 479 003e 002B     		cmp	r3, #0
 480 0040 14BF     		ite	ne
 481 0042 0123     		movne	r3, #1
 482 0044 0023     		moveq	r3, #0
 483 0046 DBB2     		uxtb	r3, r3
 484 0048 002B     		cmp	r3, #0
 485 004a F5D1     		bne	.L19
 486              	.LBB5:
 106:Libraries\SPI/SPI.cpp ****     { /* wait for data to be sent */ }
 107:Libraries\SPI/SPI.cpp ****     for (int j = 0; j<4; j++)
 487              		.loc 1 107 0 is_stmt 1
 488 004c 0023     		movs	r3, #0
 489 004e BB61     		str	r3, [r7, #24]
 490 0050 0BE0     		b	.L20
 491              	.L21:
 108:Libraries\SPI/SPI.cpp ****     {
 109:Libraries\SPI/SPI.cpp ****       *(_buf + i + j) = SPIM_ReadRxData();
 492              		.loc 1 109 0 discriminator 3
 493 0052 BA7F     		ldrb	r2, [r7, #30]	@ zero_extendqisi2
 494 0054 BB69     		ldr	r3, [r7, #24]
 495 0056 1344     		add	r3, r3, r2
 496 0058 BA68     		ldr	r2, [r7, #8]
 497 005a D418     		adds	r4, r2, r3
 498 005c FFF7FEFF 		bl	SPIM_ReadRxData
 499 0060 0346     		mov	r3, r0
 500 0062 2370     		strb	r3, [r4]
 107:Libraries\SPI/SPI.cpp ****     {
 501              		.loc 1 107 0 discriminator 3
 502 0064 BB69     		ldr	r3, [r7, #24]
 503 0066 0133     		adds	r3, r3, #1
 504 0068 BB61     		str	r3, [r7, #24]
 505              	.L20:
 107:Libraries\SPI/SPI.cpp ****     {
 506              		.loc 1 107 0 is_stmt 0 discriminator 1
 507 006a BB69     		ldr	r3, [r7, #24]
 508 006c 032B     		cmp	r3, #3
 509 006e F0DD     		ble	.L21
 510              	.LBE5:
 110:Libraries\SPI/SPI.cpp ****     }
 111:Libraries\SPI/SPI.cpp ****     ++i;
 511              		.loc 1 111 0 is_stmt 1
 512 0070 BB7F     		ldrb	r3, [r7, #30]
 513 0072 0133     		adds	r3, r3, #1
 514 0074 BB77     		strb	r3, [r7, #30]
ARM GAS  C:\Users\Bruger\AppData\Local\Temp\cc6E5BQ9.s 			page 12


 112:Libraries\SPI/SPI.cpp ****     --fullPackets;
 515              		.loc 1 112 0
 516 0076 FB7F     		ldrb	r3, [r7, #31]
 517 0078 013B     		subs	r3, r3, #1
 518 007a FB77     		strb	r3, [r7, #31]
 519              	.L18:
 520              	.LBE4:
 102:Libraries\SPI/SPI.cpp ****   {
 521              		.loc 1 102 0
 522 007c FB7F     		ldrb	r3, [r7, #31]	@ zero_extendqisi2
 523 007e 002B     		cmp	r3, #0
 524 0080 D2D1     		bne	.L22
 525              	.LBB6:
 113:Libraries\SPI/SPI.cpp ****   }
 114:Libraries\SPI/SPI.cpp ****   if (strayBytes > 0)
 526              		.loc 1 114 0
 527 0082 FB7C     		ldrb	r3, [r7, #19]	@ zero_extendqisi2
 528 0084 002B     		cmp	r3, #0
 529 0086 25D0     		beq	.L23
 530              	.LBB7:
 115:Libraries\SPI/SPI.cpp ****   {
 116:Libraries\SPI/SPI.cpp ****     SPIM_PutArray((const uint8_t*)(_buf + i), strayBytes);
 531              		.loc 1 116 0
 532 0088 BB7F     		ldrb	r3, [r7, #30]	@ zero_extendqisi2
 533 008a BA68     		ldr	r2, [r7, #8]
 534 008c 1A44     		add	r2, r2, r3
 535 008e FB7C     		ldrb	r3, [r7, #19]	@ zero_extendqisi2
 536 0090 1046     		mov	r0, r2
 537 0092 1946     		mov	r1, r3
 538 0094 FFF7FEFF 		bl	SPIM_PutArray
 117:Libraries\SPI/SPI.cpp ****     while (SPIM_GetTxBufferSize() > 0)
 539              		.loc 1 117 0
 540 0098 00BF     		nop
 541              	.L24:
 542              		.loc 1 117 0 is_stmt 0 discriminator 1
 543 009a FFF7FEFF 		bl	SPIM_GetTxBufferSize
 544 009e 0346     		mov	r3, r0
 545 00a0 002B     		cmp	r3, #0
 546 00a2 14BF     		ite	ne
 547 00a4 0123     		movne	r3, #1
 548 00a6 0023     		moveq	r3, #0
 549 00a8 DBB2     		uxtb	r3, r3
 550 00aa 002B     		cmp	r3, #0
 551 00ac F5D1     		bne	.L24
 552              	.LBB8:
 118:Libraries\SPI/SPI.cpp ****     { /* wait for data to be sent */ }
 119:Libraries\SPI/SPI.cpp ****     for (int j = 0; j<strayBytes; j++)
 553              		.loc 1 119 0 is_stmt 1
 554 00ae 0023     		movs	r3, #0
 555 00b0 7B61     		str	r3, [r7, #20]
 556 00b2 0BE0     		b	.L25
 557              	.L26:
 120:Libraries\SPI/SPI.cpp ****     {
 121:Libraries\SPI/SPI.cpp ****       *(_buf + i + j) = SPIM_ReadRxData();
 558              		.loc 1 121 0 discriminator 3
 559 00b4 BA7F     		ldrb	r2, [r7, #30]	@ zero_extendqisi2
 560 00b6 7B69     		ldr	r3, [r7, #20]
ARM GAS  C:\Users\Bruger\AppData\Local\Temp\cc6E5BQ9.s 			page 13


 561 00b8 1344     		add	r3, r3, r2
 562 00ba BA68     		ldr	r2, [r7, #8]
 563 00bc D418     		adds	r4, r2, r3
 564 00be FFF7FEFF 		bl	SPIM_ReadRxData
 565 00c2 0346     		mov	r3, r0
 566 00c4 2370     		strb	r3, [r4]
 119:Libraries\SPI/SPI.cpp ****     {
 567              		.loc 1 119 0 discriminator 3
 568 00c6 7B69     		ldr	r3, [r7, #20]
 569 00c8 0133     		adds	r3, r3, #1
 570 00ca 7B61     		str	r3, [r7, #20]
 571              	.L25:
 119:Libraries\SPI/SPI.cpp ****     {
 572              		.loc 1 119 0 is_stmt 0 discriminator 1
 573 00cc FA7C     		ldrb	r2, [r7, #19]	@ zero_extendqisi2
 574 00ce 7B69     		ldr	r3, [r7, #20]
 575 00d0 9A42     		cmp	r2, r3
 576 00d2 EFDC     		bgt	.L26
 577              	.L23:
 578              	.LBE8:
 579              	.LBE7:
 580              	.LBE6:
 122:Libraries\SPI/SPI.cpp ****     }
 123:Libraries\SPI/SPI.cpp ****   }
 124:Libraries\SPI/SPI.cpp ****   SPI_SS_Stretch_Write(0x01);
 581              		.loc 1 124 0 is_stmt 1
 582 00d4 0120     		movs	r0, #1
 583 00d6 FFF7FEFF 		bl	SPI_SS_Stretch_Write
 584              	.LBE3:
 125:Libraries\SPI/SPI.cpp **** }
 585              		.loc 1 125 0
 586 00da 2437     		adds	r7, r7, #36
 587              		.cfi_def_cfa_offset 12
 588 00dc BD46     		mov	sp, r7
 589              		.cfi_def_cfa_register 13
 590              		@ sp needed
 591 00de 90BD     		pop	{r4, r7, pc}
 592              		.cfi_endproc
 593              	.LFE159:
 594              		.fnend
 595              		.size	_ZN8SPIClass8transferEPhj, .-_ZN8SPIClass8transferEPhj
 596              		.section	.text._Z41__static_initialization_and_destruction_0ii,"ax",%progbits
 597              		.align	2
 598              		.thumb
 599              		.thumb_func
 600              		.type	_Z41__static_initialization_and_destruction_0ii, %function
 601              	_Z41__static_initialization_and_destruction_0ii:
 602              		.fnstart
 603              	.LFB160:
 604              		.loc 1 125 0
 605              		.cfi_startproc
 606              		@ args = 0, pretend = 0, frame = 8
 607              		@ frame_needed = 1, uses_anonymous_args = 0
 608 0000 80B5     		push	{r7, lr}
 609              		.cfi_def_cfa_offset 8
 610              		.cfi_offset 7, -8
 611              		.cfi_offset 14, -4
ARM GAS  C:\Users\Bruger\AppData\Local\Temp\cc6E5BQ9.s 			page 14


 612 0002 82B0     		sub	sp, sp, #8
 613              		.cfi_def_cfa_offset 16
 614 0004 00AF     		add	r7, sp, #0
 615              		.cfi_def_cfa_register 7
 616 0006 7860     		str	r0, [r7, #4]
 617 0008 3960     		str	r1, [r7]
 618              		.loc 1 125 0
 619 000a 7B68     		ldr	r3, [r7, #4]
 620 000c 012B     		cmp	r3, #1
 621 000e 0CD1     		bne	.L27
 622              		.loc 1 125 0 is_stmt 0 discriminator 1
 623 0010 3B68     		ldr	r3, [r7]
 624 0012 4FF6FF72 		movw	r2, #65535
 625 0016 9342     		cmp	r3, r2
 626 0018 07D1     		bne	.L27
  15:Libraries\SPI/SPI.cpp **** 
 627              		.loc 1 15 0 is_stmt 1
 628 001a 0548     		ldr	r0, .L29
 629 001c FFF7FEFF 		bl	_ZN8SPIClassC2Ev
 630 0020 0348     		ldr	r0, .L29
 631 0022 0449     		ldr	r1, .L29+4
 632 0024 044A     		ldr	r2, .L29+8
 633 0026 FFF7FEFF 		bl	__aeabi_atexit
 634              	.L27:
 635              		.loc 1 125 0
 636 002a 0837     		adds	r7, r7, #8
 637              		.cfi_def_cfa_offset 8
 638 002c BD46     		mov	sp, r7
 639              		.cfi_def_cfa_register 13
 640              		@ sp needed
 641 002e 80BD     		pop	{r7, pc}
 642              	.L30:
 643              		.align	2
 644              	.L29:
 645 0030 00000000 		.word	SPI
 646 0034 00000000 		.word	_ZN8SPIClassD1Ev
 647 0038 00000000 		.word	__dso_handle
 648              		.cfi_endproc
 649              	.LFE160:
 650              		.cantunwind
 651              		.fnend
 652              		.size	_Z41__static_initialization_and_destruction_0ii, .-_Z41__static_initialization_and_destructi
 653              		.section	.rodata
 654              		.type	_ZL2SS, %object
 655              		.size	_ZL2SS, 1
 656              	_ZL2SS:
 657 0000 0A       		.byte	10
 658              		.type	_ZL4MOSI, %object
 659              		.size	_ZL4MOSI, 1
 660              	_ZL4MOSI:
 661 0001 0B       		.byte	11
 662              		.type	_ZL4MISO, %object
 663              		.size	_ZL4MISO, 1
 664              	_ZL4MISO:
 665 0002 0C       		.byte	12
 666              		.type	_ZL3SCK, %object
 667              		.size	_ZL3SCK, 1
ARM GAS  C:\Users\Bruger\AppData\Local\Temp\cc6E5BQ9.s 			page 15


 668              	_ZL3SCK:
 669 0003 0D       		.byte	13
 670              		.type	_ZL3SDA, %object
 671              		.size	_ZL3SDA, 1
 672              	_ZL3SDA:
 673 0004 15       		.byte	21
 674              		.type	_ZL3SCL, %object
 675              		.size	_ZL3SCL, 1
 676              	_ZL3SCL:
 677 0005 14       		.byte	20
 678              		.section	.text._GLOBAL__sub_I_SPI,"ax",%progbits
 679              		.align	2
 680              		.thumb
 681              		.thumb_func
 682              		.type	_GLOBAL__sub_I_SPI, %function
 683              	_GLOBAL__sub_I_SPI:
 684              		.fnstart
 685              	.LFB161:
 686              		.loc 1 125 0
 687              		.cfi_startproc
 688              		@ args = 0, pretend = 0, frame = 0
 689              		@ frame_needed = 1, uses_anonymous_args = 0
 690 0000 80B5     		push	{r7, lr}
 691              		.cfi_def_cfa_offset 8
 692              		.cfi_offset 7, -8
 693              		.cfi_offset 14, -4
 694 0002 00AF     		add	r7, sp, #0
 695              		.cfi_def_cfa_register 7
 696              		.loc 1 125 0
 697 0004 0120     		movs	r0, #1
 698 0006 4FF6FF71 		movw	r1, #65535
 699 000a FFF7FEFF 		bl	_Z41__static_initialization_and_destruction_0ii
 700 000e 80BD     		pop	{r7, pc}
 701              		.cfi_endproc
 702              	.LFE161:
 703              		.cantunwind
 704              		.fnend
 705              		.size	_GLOBAL__sub_I_SPI, .-_GLOBAL__sub_I_SPI
 706              		.section	.init_array,"aw",%init_array
 707              		.align	2
 708 0000 00000000 		.word	_GLOBAL__sub_I_SPI(target1)
 709              		.text
 710              	.Letext0:
 711              		.file 2 "c:\\program files (x86)\\cypress\\psoc creator\\4.0\\psoc creator\\import\\gnu\\arm\\4.9.
 712              		.file 3 "c:\\program files (x86)\\cypress\\psoc creator\\4.0\\psoc creator\\import\\gnu\\arm\\4.9.
 713              		.file 4 "c:\\program files (x86)\\cypress\\psoc creator\\4.0\\psoc creator\\import\\gnu\\arm\\4.9.
 714              		.file 5 ".\\core/Arduino_Pins.h"
 715              		.file 6 "Libraries\\SPI\\SPI.h"
 716              		.file 7 ".\\core/pins_arduino.h"
 717              		.file 8 "Generated_Source\\PSoC5/core_cm3.h"