ARM GAS  C:\Users\Bruger\AppData\Local\Temp\ccFtAoMj.s 			page 1


   1              		.syntax unified
   2              		.cpu cortex-m3
   3              		.fpu softvfp
   4              		.eabi_attribute 20, 1
   5              		.eabi_attribute 21, 1
   6              		.eabi_attribute 23, 3
   7              		.eabi_attribute 24, 1
   8              		.eabi_attribute 25, 1
   9              		.eabi_attribute 26, 1
  10              		.eabi_attribute 30, 6
  11              		.eabi_attribute 34, 1
  12              		.eabi_attribute 18, 4
  13              		.thumb
  14              		.file	"Stream.cpp"
  15              		.text
  16              	.Ltext0:
  17              		.cfi_sections	.debug_frame
  18              		.section	.text._ZN6StringpLEc,"axG",%progbits,_ZN6StringpLEc,comdat
  19              		.align	2
  20              		.weak	_ZN6StringpLEc
  21              		.thumb
  22              		.thumb_func
  23              		.type	_ZN6StringpLEc, %function
  24              	_ZN6StringpLEc:
  25              		.fnstart
  26              	.LFB67:
  27              		.file 1 "core\\WString.h"
   1:core/WString.h **** /*
   2:core/WString.h ****   WString.h - String library for Wiring & Arduino
   3:core/WString.h ****   ...mostly rewritten by Paul Stoffregen...
   4:core/WString.h ****   Copyright (c) 2009-10 Hernando Barragan.  All right reserved.
   5:core/WString.h ****   Copyright 2011, Paul Stoffregen, paul@pjrc.com
   6:core/WString.h **** 
   7:core/WString.h ****   This library is free software; you can redistribute it and/or
   8:core/WString.h ****   modify it under the terms of the GNU Lesser General Public
   9:core/WString.h ****   License as published by the Free Software Foundation; either
  10:core/WString.h ****   version 2.1 of the License, or (at your option) any later version.
  11:core/WString.h **** 
  12:core/WString.h ****   This library is distributed in the hope that it will be useful,
  13:core/WString.h ****   but WITHOUT ANY WARRANTY; without even the implied warranty of
  14:core/WString.h ****   MERCHANTABILITY or FITNESS FOR A PARTICULAR PURPOSE.  See the GNU
  15:core/WString.h ****   Lesser General Public License for more details.
  16:core/WString.h **** 
  17:core/WString.h ****   You should have received a copy of the GNU Lesser General Public
  18:core/WString.h ****   License along with this library; if not, write to the Free Software
  19:core/WString.h ****   Foundation, Inc., 51 Franklin St, Fifth Floor, Boston, MA  02110-1301  USA
  20:core/WString.h **** */
  21:core/WString.h **** 
  22:core/WString.h **** #ifndef String_class_h
  23:core/WString.h **** #define String_class_h
  24:core/WString.h **** #ifdef __cplusplus
  25:core/WString.h **** 
  26:core/WString.h **** #include <stdlib.h>
  27:core/WString.h **** #include <string.h>
  28:core/WString.h **** #include <ctype.h>
  29:core/WString.h **** #include <avr/pgmspace.h>
  30:core/WString.h **** 
ARM GAS  C:\Users\Bruger\AppData\Local\Temp\ccFtAoMj.s 			page 2


  31:core/WString.h **** // When compiling programs with this class, the following gcc parameters
  32:core/WString.h **** // dramatically increase performance and memory (RAM) efficiency, typically
  33:core/WString.h **** // with little or no increase in code size.
  34:core/WString.h **** //     -felide-constructors
  35:core/WString.h **** //     -std=c++0x
  36:core/WString.h **** 
  37:core/WString.h **** class __FlashStringHelper;
  38:core/WString.h **** #define F(string_literal) (reinterpret_cast<const __FlashStringHelper *>(PSTR(string_literal)))
  39:core/WString.h **** 
  40:core/WString.h **** // An inherited class for holding the result of a concatenation.  These
  41:core/WString.h **** // result objects are assumed to be writable by subsequent concatenations.
  42:core/WString.h **** class StringSumHelper;
  43:core/WString.h **** 
  44:core/WString.h **** // The string class
  45:core/WString.h **** class String
  46:core/WString.h **** {
  47:core/WString.h **** 	// use a function pointer to allow for "if (s)" without the
  48:core/WString.h **** 	// complications of an operator bool(). for more information, see:
  49:core/WString.h **** 	// http://www.artima.com/cppsource/safebool.html
  50:core/WString.h **** 	typedef void (String::*StringIfHelperType)() const;
  51:core/WString.h **** 	void StringIfHelper() const {}
  52:core/WString.h **** 
  53:core/WString.h **** public:
  54:core/WString.h **** 	// constructors
  55:core/WString.h **** 	// creates a copy of the initial value.
  56:core/WString.h **** 	// if the initial value is null or invalid, or if memory allocation
  57:core/WString.h **** 	// fails, the string will be marked as invalid (i.e. "if (s)" will
  58:core/WString.h **** 	// be false).
  59:core/WString.h **** 	String(const char *cstr = "");
  60:core/WString.h **** 	String(const String &str);
  61:core/WString.h **** 	String(const __FlashStringHelper *str);
  62:core/WString.h **** 	#ifdef __GXX_EXPERIMENTAL_CXX0X__
  63:core/WString.h **** 	String(String &&rval);
  64:core/WString.h **** 	String(StringSumHelper &&rval);
  65:core/WString.h **** 	#endif
  66:core/WString.h **** 	explicit String(char c);
  67:core/WString.h **** 	explicit String(unsigned char, unsigned char base=10);
  68:core/WString.h **** 	explicit String(int, unsigned char base=10);
  69:core/WString.h **** 	explicit String(unsigned int, unsigned char base=10);
  70:core/WString.h **** 	explicit String(long, unsigned char base=10);
  71:core/WString.h **** 	explicit String(unsigned long, unsigned char base=10);
  72:core/WString.h **** 	explicit String(float, unsigned char decimalPlaces=2);
  73:core/WString.h **** 	explicit String(double, unsigned char decimalPlaces=2);
  74:core/WString.h **** 	~String(void);
  75:core/WString.h **** 
  76:core/WString.h **** 	// memory management
  77:core/WString.h **** 	// return true on success, false on failure (in which case, the string
  78:core/WString.h **** 	// is left unchanged).  reserve(0), if successful, will validate an
  79:core/WString.h **** 	// invalid string (i.e., "if (s)" will be true afterwards)
  80:core/WString.h **** 	unsigned char reserve(unsigned int size);
  81:core/WString.h **** 	inline unsigned int length(void) const {return len;}
  82:core/WString.h **** 
  83:core/WString.h **** 	// creates a copy of the assigned value.  if the value is null or
  84:core/WString.h **** 	// invalid, or if the memory allocation fails, the string will be 
  85:core/WString.h **** 	// marked as invalid ("if (s)" will be false).
  86:core/WString.h **** 	String & operator = (const String &rhs);
  87:core/WString.h **** 	String & operator = (const char *cstr);
ARM GAS  C:\Users\Bruger\AppData\Local\Temp\ccFtAoMj.s 			page 3


  88:core/WString.h **** 	String & operator = (const __FlashStringHelper *str);
  89:core/WString.h **** 	#ifdef __GXX_EXPERIMENTAL_CXX0X__
  90:core/WString.h **** 	String & operator = (String &&rval);
  91:core/WString.h **** 	String & operator = (StringSumHelper &&rval);
  92:core/WString.h **** 	#endif
  93:core/WString.h **** 
  94:core/WString.h **** 	// concatenate (works w/ built-in types)
  95:core/WString.h **** 	
  96:core/WString.h **** 	// returns true on success, false on failure (in which case, the string
  97:core/WString.h **** 	// is left unchanged).  if the argument is null or invalid, the 
  98:core/WString.h **** 	// concatenation is considered unsucessful.  
  99:core/WString.h **** 	unsigned char concat(const String &str);
 100:core/WString.h **** 	unsigned char concat(const char *cstr);
 101:core/WString.h **** 	unsigned char concat(char c);
 102:core/WString.h **** 	unsigned char concat(unsigned char c);
 103:core/WString.h **** 	unsigned char concat(int num);
 104:core/WString.h **** 	unsigned char concat(unsigned int num);
 105:core/WString.h **** 	unsigned char concat(long num);
 106:core/WString.h **** 	unsigned char concat(unsigned long num);
 107:core/WString.h **** 	unsigned char concat(float num);
 108:core/WString.h **** 	unsigned char concat(double num);
 109:core/WString.h **** 	unsigned char concat(const __FlashStringHelper * str);
 110:core/WString.h **** 	
 111:core/WString.h **** 	// if there's not enough memory for the concatenated value, the string
 112:core/WString.h **** 	// will be left unchanged (but this isn't signalled in any way)
 113:core/WString.h **** 	String & operator += (const String &rhs)	{concat(rhs); return (*this);}
 114:core/WString.h **** 	String & operator += (const char *cstr)		{concat(cstr); return (*this);}
 115:core/WString.h **** 	String & operator += (char c)			{concat(c); return (*this);}
  28              		.loc 1 115 0
  29              		.cfi_startproc
  30              		@ args = 0, pretend = 0, frame = 8
  31              		@ frame_needed = 1, uses_anonymous_args = 0
  32 0000 80B5     		push	{r7, lr}
  33              		.save {r7, lr}
  34              		.cfi_def_cfa_offset 8
  35              		.cfi_offset 7, -8
  36              		.cfi_offset 14, -4
  37              		.pad #8
  38 0002 82B0     		sub	sp, sp, #8
  39              		.cfi_def_cfa_offset 16
  40              		.setfp r7, sp, #0
  41 0004 00AF     		add	r7, sp, #0
  42              		.cfi_def_cfa_register 7
  43 0006 7860     		str	r0, [r7, #4]
  44 0008 0B46     		mov	r3, r1
  45 000a FB70     		strb	r3, [r7, #3]
  46              		.loc 1 115 0
  47 000c FB78     		ldrb	r3, [r7, #3]	@ zero_extendqisi2
  48 000e 7868     		ldr	r0, [r7, #4]
  49 0010 1946     		mov	r1, r3
  50 0012 FFF7FEFF 		bl	_ZN6String6concatEc
  51 0016 7B68     		ldr	r3, [r7, #4]
  52 0018 1846     		mov	r0, r3
  53 001a 0837     		adds	r7, r7, #8
  54              		.cfi_def_cfa_offset 8
  55 001c BD46     		mov	sp, r7
  56              		.cfi_def_cfa_register 13
ARM GAS  C:\Users\Bruger\AppData\Local\Temp\ccFtAoMj.s 			page 4


  57              		@ sp needed
  58 001e 80BD     		pop	{r7, pc}
  59              		.cfi_endproc
  60              	.LFE67:
  61              		.fnend
  62              		.size	_ZN6StringpLEc, .-_ZN6StringpLEc
  63              		.section	.text._ZN6Stream9timedReadEv,"ax",%progbits
  64              		.align	2
  65              		.global	_ZN6Stream9timedReadEv
  66              		.thumb
  67              		.thumb_func
  68              		.type	_ZN6Stream9timedReadEv, %function
  69              	_ZN6Stream9timedReadEv:
  70              		.fnstart
  71              	.LFB147:
  72              		.file 2 "core\\Stream.cpp"
   1:core/Stream.cpp **** /*
   2:core/Stream.cpp ****  Stream.cpp - adds parsing methods to Stream class
   3:core/Stream.cpp ****  Copyright (c) 2008 David A. Mellis.  All right reserved.
   4:core/Stream.cpp **** 
   5:core/Stream.cpp ****  This library is free software; you can redistribute it and/or
   6:core/Stream.cpp ****  modify it under the terms of the GNU Lesser General Public
   7:core/Stream.cpp ****  License as published by the Free Software Foundation; either
   8:core/Stream.cpp ****  version 2.1 of the License, or (at your option) any later version.
   9:core/Stream.cpp **** 
  10:core/Stream.cpp ****  This library is distributed in the hope that it will be useful,
  11:core/Stream.cpp ****  but WITHOUT ANY WARRANTY; without even the implied warranty of
  12:core/Stream.cpp ****  MERCHANTABILITY or FITNESS FOR A PARTICULAR PURPOSE.  See the GNU
  13:core/Stream.cpp ****  Lesser General Public License for more details.
  14:core/Stream.cpp **** 
  15:core/Stream.cpp ****  You should have received a copy of the GNU Lesser General Public
  16:core/Stream.cpp ****  License along with this library; if not, write to the Free Software
  17:core/Stream.cpp ****  Foundation, Inc., 51 Franklin St, Fifth Floor, Boston, MA  02110-1301  USA
  18:core/Stream.cpp **** 
  19:core/Stream.cpp ****  Created July 2011
  20:core/Stream.cpp ****  parsing functions based on TextFinder library by Michael Margolis
  21:core/Stream.cpp ****  */
  22:core/Stream.cpp **** 
  23:core/Stream.cpp **** #include "Arduino.h"
  24:core/Stream.cpp **** #include "Stream.h"
  25:core/Stream.cpp **** 
  26:core/Stream.cpp **** #define PARSE_TIMEOUT 1000  // default number of milli-seconds to wait
  27:core/Stream.cpp **** #define NO_SKIP_CHAR  1  // a magic char not found in a valid ASCII numeric field
  28:core/Stream.cpp **** 
  29:core/Stream.cpp **** // private method to read stream with timeout
  30:core/Stream.cpp **** int Stream::timedRead()
  31:core/Stream.cpp **** {
  73              		.loc 2 31 0
  74              		.cfi_startproc
  75              		@ args = 0, pretend = 0, frame = 16
  76              		@ frame_needed = 1, uses_anonymous_args = 0
  77 0000 80B5     		push	{r7, lr}
  78              		.save {r7, lr}
  79              		.cfi_def_cfa_offset 8
  80              		.cfi_offset 7, -8
  81              		.cfi_offset 14, -4
  82              		.pad #16
ARM GAS  C:\Users\Bruger\AppData\Local\Temp\ccFtAoMj.s 			page 5


  83 0002 84B0     		sub	sp, sp, #16
  84              		.cfi_def_cfa_offset 24
  85              		.setfp r7, sp, #0
  86 0004 00AF     		add	r7, sp, #0
  87              		.cfi_def_cfa_register 7
  88 0006 7860     		str	r0, [r7, #4]
  89              	.LBB2:
  32:core/Stream.cpp ****   int c;
  33:core/Stream.cpp ****   _startMillis = millis();
  90              		.loc 2 33 0
  91 0008 FFF7FEFF 		bl	Millis_Counter_ReadCounter
  92 000c 0246     		mov	r2, r0
  93 000e 7B68     		ldr	r3, [r7, #4]
  94 0010 DA60     		str	r2, [r3, #12]
  95              	.L6:
  34:core/Stream.cpp ****   do {
  35:core/Stream.cpp ****     c = read();
  96              		.loc 2 35 0
  97 0012 7B68     		ldr	r3, [r7, #4]
  98 0014 1B68     		ldr	r3, [r3]
  99 0016 0C33     		adds	r3, r3, #12
 100 0018 1B68     		ldr	r3, [r3]
 101 001a 7868     		ldr	r0, [r7, #4]
 102 001c 9847     		blx	r3
 103 001e 0346     		mov	r3, r0
 104 0020 FB60     		str	r3, [r7, #12]
  36:core/Stream.cpp ****     if (c >= 0) return c;
 105              		.loc 2 36 0
 106 0022 FB68     		ldr	r3, [r7, #12]
 107 0024 002B     		cmp	r3, #0
 108 0026 01DB     		blt	.L4
 109              		.loc 2 36 0 is_stmt 0 discriminator 1
 110 0028 FB68     		ldr	r3, [r7, #12]
 111 002a 10E0     		b	.L5
 112              	.L4:
  37:core/Stream.cpp ****   } while(millis() - _startMillis < _timeout);
 113              		.loc 2 37 0 is_stmt 1
 114 002c FFF7FEFF 		bl	Millis_Counter_ReadCounter
 115 0030 0246     		mov	r2, r0
 116 0032 7B68     		ldr	r3, [r7, #4]
 117 0034 DB68     		ldr	r3, [r3, #12]
 118 0036 D21A     		subs	r2, r2, r3
 119 0038 7B68     		ldr	r3, [r7, #4]
 120 003a 9B68     		ldr	r3, [r3, #8]
  34:core/Stream.cpp ****   do {
 121              		.loc 2 34 0
 122 003c 9A42     		cmp	r2, r3
 123 003e 34BF     		ite	cc
 124 0040 0123     		movcc	r3, #1
 125 0042 0023     		movcs	r3, #0
 126 0044 DBB2     		uxtb	r3, r3
 127 0046 002B     		cmp	r3, #0
 128 0048 E3D1     		bne	.L6
  38:core/Stream.cpp ****   return -1;     // -1 indicates timeout
 129              		.loc 2 38 0
 130 004a 4FF0FF33 		mov	r3, #-1
 131              	.L5:
ARM GAS  C:\Users\Bruger\AppData\Local\Temp\ccFtAoMj.s 			page 6


 132              	.LBE2:
  39:core/Stream.cpp **** }
 133              		.loc 2 39 0
 134 004e 1846     		mov	r0, r3
 135 0050 1037     		adds	r7, r7, #16
 136              		.cfi_def_cfa_offset 8
 137 0052 BD46     		mov	sp, r7
 138              		.cfi_def_cfa_register 13
 139              		@ sp needed
 140 0054 80BD     		pop	{r7, pc}
 141              		.cfi_endproc
 142              	.LFE147:
 143              		.fnend
 144              		.size	_ZN6Stream9timedReadEv, .-_ZN6Stream9timedReadEv
 145 0056 00BF     		.section	.text._ZN6Stream9timedPeekEv,"ax",%progbits
 146              		.align	2
 147              		.global	_ZN6Stream9timedPeekEv
 148              		.thumb
 149              		.thumb_func
 150              		.type	_ZN6Stream9timedPeekEv, %function
 151              	_ZN6Stream9timedPeekEv:
 152              		.fnstart
 153              	.LFB148:
  40:core/Stream.cpp **** 
  41:core/Stream.cpp **** // private method to peek stream with timeout
  42:core/Stream.cpp **** int Stream::timedPeek()
  43:core/Stream.cpp **** {
 154              		.loc 2 43 0
 155              		.cfi_startproc
 156              		@ args = 0, pretend = 0, frame = 16
 157              		@ frame_needed = 1, uses_anonymous_args = 0
 158 0000 80B5     		push	{r7, lr}
 159              		.save {r7, lr}
 160              		.cfi_def_cfa_offset 8
 161              		.cfi_offset 7, -8
 162              		.cfi_offset 14, -4
 163              		.pad #16
 164 0002 84B0     		sub	sp, sp, #16
 165              		.cfi_def_cfa_offset 24
 166              		.setfp r7, sp, #0
 167 0004 00AF     		add	r7, sp, #0
 168              		.cfi_def_cfa_register 7
 169 0006 7860     		str	r0, [r7, #4]
 170              	.LBB3:
  44:core/Stream.cpp ****   int c;
  45:core/Stream.cpp ****   _startMillis = millis();
 171              		.loc 2 45 0
 172 0008 FFF7FEFF 		bl	Millis_Counter_ReadCounter
 173 000c 0246     		mov	r2, r0
 174 000e 7B68     		ldr	r3, [r7, #4]
 175 0010 DA60     		str	r2, [r3, #12]
 176              	.L10:
  46:core/Stream.cpp ****   do {
  47:core/Stream.cpp ****     c = peek();
 177              		.loc 2 47 0
 178 0012 7B68     		ldr	r3, [r7, #4]
 179 0014 1B68     		ldr	r3, [r3]
ARM GAS  C:\Users\Bruger\AppData\Local\Temp\ccFtAoMj.s 			page 7


 180 0016 1033     		adds	r3, r3, #16
 181 0018 1B68     		ldr	r3, [r3]
 182 001a 7868     		ldr	r0, [r7, #4]
 183 001c 9847     		blx	r3
 184 001e 0346     		mov	r3, r0
 185 0020 FB60     		str	r3, [r7, #12]
  48:core/Stream.cpp ****     if (c >= 0) return c;
 186              		.loc 2 48 0
 187 0022 FB68     		ldr	r3, [r7, #12]
 188 0024 002B     		cmp	r3, #0
 189 0026 01DB     		blt	.L8
 190              		.loc 2 48 0 is_stmt 0 discriminator 1
 191 0028 FB68     		ldr	r3, [r7, #12]
 192 002a 10E0     		b	.L9
 193              	.L8:
  49:core/Stream.cpp ****   } while(millis() - _startMillis < _timeout);
 194              		.loc 2 49 0 is_stmt 1
 195 002c FFF7FEFF 		bl	Millis_Counter_ReadCounter
 196 0030 0246     		mov	r2, r0
 197 0032 7B68     		ldr	r3, [r7, #4]
 198 0034 DB68     		ldr	r3, [r3, #12]
 199 0036 D21A     		subs	r2, r2, r3
 200 0038 7B68     		ldr	r3, [r7, #4]
 201 003a 9B68     		ldr	r3, [r3, #8]
  46:core/Stream.cpp ****   do {
 202              		.loc 2 46 0
 203 003c 9A42     		cmp	r2, r3
 204 003e 34BF     		ite	cc
 205 0040 0123     		movcc	r3, #1
 206 0042 0023     		movcs	r3, #0
 207 0044 DBB2     		uxtb	r3, r3
 208 0046 002B     		cmp	r3, #0
 209 0048 E3D1     		bne	.L10
  50:core/Stream.cpp ****   return -1;     // -1 indicates timeout
 210              		.loc 2 50 0
 211 004a 4FF0FF33 		mov	r3, #-1
 212              	.L9:
 213              	.LBE3:
  51:core/Stream.cpp **** }
 214              		.loc 2 51 0
 215 004e 1846     		mov	r0, r3
 216 0050 1037     		adds	r7, r7, #16
 217              		.cfi_def_cfa_offset 8
 218 0052 BD46     		mov	sp, r7
 219              		.cfi_def_cfa_register 13
 220              		@ sp needed
 221 0054 80BD     		pop	{r7, pc}
 222              		.cfi_endproc
 223              	.LFE148:
 224              		.fnend
 225              		.size	_ZN6Stream9timedPeekEv, .-_ZN6Stream9timedPeekEv
 226 0056 00BF     		.section	.text._ZN6Stream13peekNextDigitEv,"ax",%progbits
 227              		.align	2
 228              		.global	_ZN6Stream13peekNextDigitEv
 229              		.thumb
 230              		.thumb_func
 231              		.type	_ZN6Stream13peekNextDigitEv, %function
ARM GAS  C:\Users\Bruger\AppData\Local\Temp\ccFtAoMj.s 			page 8


 232              	_ZN6Stream13peekNextDigitEv:
 233              		.fnstart
 234              	.LFB149:
  52:core/Stream.cpp **** 
  53:core/Stream.cpp **** // returns peek of the next digit in the stream or -1 if timeout
  54:core/Stream.cpp **** // discards non-numeric characters
  55:core/Stream.cpp **** int Stream::peekNextDigit()
  56:core/Stream.cpp **** {
 235              		.loc 2 56 0
 236              		.cfi_startproc
 237              		@ args = 0, pretend = 0, frame = 16
 238              		@ frame_needed = 1, uses_anonymous_args = 0
 239 0000 80B5     		push	{r7, lr}
 240              		.save {r7, lr}
 241              		.cfi_def_cfa_offset 8
 242              		.cfi_offset 7, -8
 243              		.cfi_offset 14, -4
 244              		.pad #16
 245 0002 84B0     		sub	sp, sp, #16
 246              		.cfi_def_cfa_offset 24
 247              		.setfp r7, sp, #0
 248 0004 00AF     		add	r7, sp, #0
 249              		.cfi_def_cfa_register 7
 250 0006 7860     		str	r0, [r7, #4]
 251              	.L16:
 252              	.LBB4:
  57:core/Stream.cpp ****   int c;
  58:core/Stream.cpp ****   while (1) {
  59:core/Stream.cpp ****     c = timedPeek();
 253              		.loc 2 59 0
 254 0008 7868     		ldr	r0, [r7, #4]
 255 000a FFF7FEFF 		bl	_ZN6Stream9timedPeekEv
 256 000e 0346     		mov	r3, r0
 257 0010 FB60     		str	r3, [r7, #12]
  60:core/Stream.cpp ****     if (c < 0) return c;  // timeout
 258              		.loc 2 60 0
 259 0012 FB68     		ldr	r3, [r7, #12]
 260 0014 002B     		cmp	r3, #0
 261 0016 01DA     		bge	.L12
 262              		.loc 2 60 0 is_stmt 0 discriminator 1
 263 0018 FB68     		ldr	r3, [r7, #12]
 264 001a 13E0     		b	.L13
 265              	.L12:
  61:core/Stream.cpp ****     if (c == '-') return c;
 266              		.loc 2 61 0 is_stmt 1
 267 001c FB68     		ldr	r3, [r7, #12]
 268 001e 2D2B     		cmp	r3, #45
 269 0020 01D1     		bne	.L14
 270              		.loc 2 61 0 is_stmt 0 discriminator 1
 271 0022 FB68     		ldr	r3, [r7, #12]
 272 0024 0EE0     		b	.L13
 273              	.L14:
  62:core/Stream.cpp ****     if (c >= '0' && c <= '9') return c;
 274              		.loc 2 62 0 is_stmt 1
 275 0026 FB68     		ldr	r3, [r7, #12]
 276 0028 2F2B     		cmp	r3, #47
 277 002a 04DD     		ble	.L15
ARM GAS  C:\Users\Bruger\AppData\Local\Temp\ccFtAoMj.s 			page 9


 278              		.loc 2 62 0 is_stmt 0 discriminator 1
 279 002c FB68     		ldr	r3, [r7, #12]
 280 002e 392B     		cmp	r3, #57
 281 0030 01DC     		bgt	.L15
 282              		.loc 2 62 0 discriminator 2
 283 0032 FB68     		ldr	r3, [r7, #12]
 284 0034 06E0     		b	.L13
 285              	.L15:
  63:core/Stream.cpp ****     read();  // discard non-numeric
 286              		.loc 2 63 0 is_stmt 1
 287 0036 7B68     		ldr	r3, [r7, #4]
 288 0038 1B68     		ldr	r3, [r3]
 289 003a 0C33     		adds	r3, r3, #12
 290 003c 1B68     		ldr	r3, [r3]
 291 003e 7868     		ldr	r0, [r7, #4]
 292 0040 9847     		blx	r3
  64:core/Stream.cpp ****   }
 293              		.loc 2 64 0
 294 0042 E1E7     		b	.L16
 295              	.L13:
 296              	.LBE4:
  65:core/Stream.cpp **** }
 297              		.loc 2 65 0
 298 0044 1846     		mov	r0, r3
 299 0046 1037     		adds	r7, r7, #16
 300              		.cfi_def_cfa_offset 8
 301 0048 BD46     		mov	sp, r7
 302              		.cfi_def_cfa_register 13
 303              		@ sp needed
 304 004a 80BD     		pop	{r7, pc}
 305              		.cfi_endproc
 306              	.LFE149:
 307              		.fnend
 308              		.size	_ZN6Stream13peekNextDigitEv, .-_ZN6Stream13peekNextDigitEv
 309              		.section	.text._ZN6Stream10setTimeoutEm,"ax",%progbits
 310              		.align	2
 311              		.global	_ZN6Stream10setTimeoutEm
 312              		.thumb
 313              		.thumb_func
 314              		.type	_ZN6Stream10setTimeoutEm, %function
 315              	_ZN6Stream10setTimeoutEm:
 316              		.fnstart
 317              	.LFB150:
  66:core/Stream.cpp **** 
  67:core/Stream.cpp **** // Public Methods
  68:core/Stream.cpp **** //////////////////////////////////////////////////////////////
  69:core/Stream.cpp **** 
  70:core/Stream.cpp **** void Stream::setTimeout(unsigned long timeout)  // sets the maximum number of milliseconds to wait
  71:core/Stream.cpp **** {
 318              		.loc 2 71 0
 319              		.cfi_startproc
 320              		@ args = 0, pretend = 0, frame = 8
 321              		@ frame_needed = 1, uses_anonymous_args = 0
 322              		@ link register save eliminated.
 323 0000 80B4     		push	{r7}
 324              		.cfi_def_cfa_offset 4
 325              		.cfi_offset 7, -4
ARM GAS  C:\Users\Bruger\AppData\Local\Temp\ccFtAoMj.s 			page 10


 326 0002 83B0     		sub	sp, sp, #12
 327              		.cfi_def_cfa_offset 16
 328 0004 00AF     		add	r7, sp, #0
 329              		.cfi_def_cfa_register 7
 330 0006 7860     		str	r0, [r7, #4]
 331 0008 3960     		str	r1, [r7]
  72:core/Stream.cpp ****   _timeout = timeout;
 332              		.loc 2 72 0
 333 000a 7B68     		ldr	r3, [r7, #4]
 334 000c 3A68     		ldr	r2, [r7]
 335 000e 9A60     		str	r2, [r3, #8]
  73:core/Stream.cpp **** }
 336              		.loc 2 73 0
 337 0010 0C37     		adds	r7, r7, #12
 338              		.cfi_def_cfa_offset 4
 339 0012 BD46     		mov	sp, r7
 340              		.cfi_def_cfa_register 13
 341              		@ sp needed
 342 0014 5DF8047B 		ldr	r7, [sp], #4
 343              		.cfi_restore 7
 344              		.cfi_def_cfa_offset 0
 345 0018 7047     		bx	lr
 346              		.cfi_endproc
 347              	.LFE150:
 348              		.cantunwind
 349              		.fnend
 350              		.size	_ZN6Stream10setTimeoutEm, .-_ZN6Stream10setTimeoutEm
 351 001a 00BF     		.section	.rodata
 352              		.align	2
 353              	.LC0:
 354 0000 00       		.ascii	"\000"
 355              		.section	.text._ZN6Stream4findEPc,"ax",%progbits
 356              		.align	2
 357              		.global	_ZN6Stream4findEPc
 358              		.thumb
 359              		.thumb_func
 360              		.type	_ZN6Stream4findEPc, %function
 361              	_ZN6Stream4findEPc:
 362              		.fnstart
 363              	.LFB151:
  74:core/Stream.cpp **** 
  75:core/Stream.cpp ****  // find returns true if the target string is found
  76:core/Stream.cpp **** bool  Stream::find(char *target)
  77:core/Stream.cpp **** {
 364              		.loc 2 77 0
 365              		.cfi_startproc
 366              		@ args = 0, pretend = 0, frame = 8
 367              		@ frame_needed = 1, uses_anonymous_args = 0
 368 0000 80B5     		push	{r7, lr}
 369              		.save {r7, lr}
 370              		.cfi_def_cfa_offset 8
 371              		.cfi_offset 7, -8
 372              		.cfi_offset 14, -4
 373              		.pad #8
 374 0002 82B0     		sub	sp, sp, #8
 375              		.cfi_def_cfa_offset 16
 376              		.setfp r7, sp, #0
ARM GAS  C:\Users\Bruger\AppData\Local\Temp\ccFtAoMj.s 			page 11


 377 0004 00AF     		add	r7, sp, #0
 378              		.cfi_def_cfa_register 7
 379 0006 7860     		str	r0, [r7, #4]
 380 0008 3960     		str	r1, [r7]
  78:core/Stream.cpp ****   return findUntil(target, (char*)"");
 381              		.loc 2 78 0
 382 000a 7868     		ldr	r0, [r7, #4]
 383 000c 3968     		ldr	r1, [r7]
 384 000e 044A     		ldr	r2, .L20
 385 0010 FFF7FEFF 		bl	_ZN6Stream9findUntilEPcS0_
 386 0014 0346     		mov	r3, r0
  79:core/Stream.cpp **** }
 387              		.loc 2 79 0
 388 0016 1846     		mov	r0, r3
 389 0018 0837     		adds	r7, r7, #8
 390              		.cfi_def_cfa_offset 8
 391 001a BD46     		mov	sp, r7
 392              		.cfi_def_cfa_register 13
 393              		@ sp needed
 394 001c 80BD     		pop	{r7, pc}
 395              	.L21:
 396 001e 00BF     		.align	2
 397              	.L20:
 398 0020 00000000 		.word	.LC0
 399              		.cfi_endproc
 400              	.LFE151:
 401              		.fnend
 402              		.size	_ZN6Stream4findEPc, .-_ZN6Stream4findEPc
 403              		.section	.text._ZN6Stream4findEPcj,"ax",%progbits
 404              		.align	2
 405              		.global	_ZN6Stream4findEPcj
 406              		.thumb
 407              		.thumb_func
 408              		.type	_ZN6Stream4findEPcj, %function
 409              	_ZN6Stream4findEPcj:
 410              		.fnstart
 411              	.LFB152:
  80:core/Stream.cpp **** 
  81:core/Stream.cpp **** // reads data from the stream until the target string of given length is found
  82:core/Stream.cpp **** // returns true if target string is found, false if timed out
  83:core/Stream.cpp **** bool Stream::find(char *target, size_t length)
  84:core/Stream.cpp **** {
 412              		.loc 2 84 0
 413              		.cfi_startproc
 414              		@ args = 0, pretend = 0, frame = 16
 415              		@ frame_needed = 1, uses_anonymous_args = 0
 416 0000 80B5     		push	{r7, lr}
 417              		.save {r7, lr}
 418              		.cfi_def_cfa_offset 8
 419              		.cfi_offset 7, -8
 420              		.cfi_offset 14, -4
 421              		.pad #24
 422 0002 86B0     		sub	sp, sp, #24
 423              		.cfi_def_cfa_offset 32
 424              		.setfp r7, sp, #8
 425 0004 02AF     		add	r7, sp, #8
 426              		.cfi_def_cfa 7, 24
ARM GAS  C:\Users\Bruger\AppData\Local\Temp\ccFtAoMj.s 			page 12


 427 0006 F860     		str	r0, [r7, #12]
 428 0008 B960     		str	r1, [r7, #8]
 429 000a 7A60     		str	r2, [r7, #4]
  85:core/Stream.cpp ****   return findUntil(target, length, NULL, 0);
 430              		.loc 2 85 0
 431 000c 0023     		movs	r3, #0
 432 000e 0093     		str	r3, [sp]
 433 0010 F868     		ldr	r0, [r7, #12]
 434 0012 B968     		ldr	r1, [r7, #8]
 435 0014 7A68     		ldr	r2, [r7, #4]
 436 0016 0023     		movs	r3, #0
 437 0018 FFF7FEFF 		bl	_ZN6Stream9findUntilEPcjS0_j
 438 001c 0346     		mov	r3, r0
  86:core/Stream.cpp **** }
 439              		.loc 2 86 0
 440 001e 1846     		mov	r0, r3
 441 0020 1037     		adds	r7, r7, #16
 442              		.cfi_def_cfa_offset 8
 443 0022 BD46     		mov	sp, r7
 444              		.cfi_def_cfa_register 13
 445              		@ sp needed
 446 0024 80BD     		pop	{r7, pc}
 447              		.cfi_endproc
 448              	.LFE152:
 449              		.fnend
 450              		.size	_ZN6Stream4findEPcj, .-_ZN6Stream4findEPcj
 451 0026 00BF     		.section	.text._ZN6Stream9findUntilEPcS0_,"ax",%progbits
 452              		.align	2
 453              		.global	_ZN6Stream9findUntilEPcS0_
 454              		.thumb
 455              		.thumb_func
 456              		.type	_ZN6Stream9findUntilEPcS0_, %function
 457              	_ZN6Stream9findUntilEPcS0_:
 458              		.fnstart
 459              	.LFB153:
  87:core/Stream.cpp **** 
  88:core/Stream.cpp **** // as find but search ends if the terminator string is found
  89:core/Stream.cpp **** bool  Stream::findUntil(char *target, char *terminator)
  90:core/Stream.cpp **** {
 460              		.loc 2 90 0
 461              		.cfi_startproc
 462              		@ args = 0, pretend = 0, frame = 16
 463              		@ frame_needed = 1, uses_anonymous_args = 0
 464 0000 90B5     		push	{r4, r7, lr}
 465              		.save {r4, r7, lr}
 466              		.cfi_def_cfa_offset 12
 467              		.cfi_offset 4, -12
 468              		.cfi_offset 7, -8
 469              		.cfi_offset 14, -4
 470              		.pad #28
 471 0002 87B0     		sub	sp, sp, #28
 472              		.cfi_def_cfa_offset 40
 473              		.setfp r7, sp, #8
 474 0004 02AF     		add	r7, sp, #8
 475              		.cfi_def_cfa 7, 32
 476 0006 F860     		str	r0, [r7, #12]
 477 0008 B960     		str	r1, [r7, #8]
ARM GAS  C:\Users\Bruger\AppData\Local\Temp\ccFtAoMj.s 			page 13


 478 000a 7A60     		str	r2, [r7, #4]
  91:core/Stream.cpp ****   return findUntil(target, strlen(target), terminator, strlen(terminator));
 479              		.loc 2 91 0
 480 000c B868     		ldr	r0, [r7, #8]
 481 000e FFF7FEFF 		bl	strlen
 482 0012 0446     		mov	r4, r0
 483 0014 7868     		ldr	r0, [r7, #4]
 484 0016 FFF7FEFF 		bl	strlen
 485 001a 0346     		mov	r3, r0
 486 001c 0093     		str	r3, [sp]
 487 001e F868     		ldr	r0, [r7, #12]
 488 0020 B968     		ldr	r1, [r7, #8]
 489 0022 2246     		mov	r2, r4
 490 0024 7B68     		ldr	r3, [r7, #4]
 491 0026 FFF7FEFF 		bl	_ZN6Stream9findUntilEPcjS0_j
 492 002a 0346     		mov	r3, r0
  92:core/Stream.cpp **** }
 493              		.loc 2 92 0
 494 002c 1846     		mov	r0, r3
 495 002e 1437     		adds	r7, r7, #20
 496              		.cfi_def_cfa_offset 12
 497 0030 BD46     		mov	sp, r7
 498              		.cfi_def_cfa_register 13
 499              		@ sp needed
 500 0032 90BD     		pop	{r4, r7, pc}
 501              		.cfi_endproc
 502              	.LFE153:
 503              		.fnend
 504              		.size	_ZN6Stream9findUntilEPcS0_, .-_ZN6Stream9findUntilEPcS0_
 505              		.section	.text._ZN6Stream9findUntilEPcjS0_j,"ax",%progbits
 506              		.align	2
 507              		.global	_ZN6Stream9findUntilEPcjS0_j
 508              		.thumb
 509              		.thumb_func
 510              		.type	_ZN6Stream9findUntilEPcjS0_j, %function
 511              	_ZN6Stream9findUntilEPcjS0_j:
 512              		.fnstart
 513              	.LFB154:
  93:core/Stream.cpp **** 
  94:core/Stream.cpp **** // reads data from the stream until the target string of the given length is found
  95:core/Stream.cpp **** // search terminated if the terminator string is found
  96:core/Stream.cpp **** // returns true if target string is found, false if terminated or timed out
  97:core/Stream.cpp **** bool Stream::findUntil(char *target, size_t targetLen, char *terminator, size_t termLen)
  98:core/Stream.cpp **** {
 514              		.loc 2 98 0
 515              		.cfi_startproc
 516              		@ args = 4, pretend = 0, frame = 32
 517              		@ frame_needed = 1, uses_anonymous_args = 0
 518 0000 80B5     		push	{r7, lr}
 519              		.save {r7, lr}
 520              		.cfi_def_cfa_offset 8
 521              		.cfi_offset 7, -8
 522              		.cfi_offset 14, -4
 523              		.pad #32
 524 0002 88B0     		sub	sp, sp, #32
 525              		.cfi_def_cfa_offset 40
 526              		.setfp r7, sp, #0
ARM GAS  C:\Users\Bruger\AppData\Local\Temp\ccFtAoMj.s 			page 14


 527 0004 00AF     		add	r7, sp, #0
 528              		.cfi_def_cfa_register 7
 529 0006 F860     		str	r0, [r7, #12]
 530 0008 B960     		str	r1, [r7, #8]
 531 000a 7A60     		str	r2, [r7, #4]
 532 000c 3B60     		str	r3, [r7]
 533              	.LBB5:
  99:core/Stream.cpp ****   size_t index = 0;  // maximum target string length is 64k bytes!
 534              		.loc 2 99 0
 535 000e 0023     		movs	r3, #0
 536 0010 FB61     		str	r3, [r7, #28]
 100:core/Stream.cpp ****   size_t termIndex = 0;
 537              		.loc 2 100 0
 538 0012 0023     		movs	r3, #0
 539 0014 BB61     		str	r3, [r7, #24]
 101:core/Stream.cpp ****   int c;
 102:core/Stream.cpp ****   
 103:core/Stream.cpp ****   if( *target == 0)
 540              		.loc 2 103 0
 541 0016 BB68     		ldr	r3, [r7, #8]
 542 0018 1B78     		ldrb	r3, [r3]	@ zero_extendqisi2
 543 001a 002B     		cmp	r3, #0
 544 001c 01D1     		bne	.L27
 104:core/Stream.cpp ****     return true;   // return true if target is a null string
 545              		.loc 2 104 0
 546 001e 0123     		movs	r3, #1
 547 0020 4AE0     		b	.L28
 548              	.L27:
 105:core/Stream.cpp ****   while( (c = timedRead()) > 0){
 549              		.loc 2 105 0
 550 0022 3BE0     		b	.L29
 551              	.L34:
 106:core/Stream.cpp ****     
 107:core/Stream.cpp ****     if(c != target[index])
 552              		.loc 2 107 0
 553 0024 BA68     		ldr	r2, [r7, #8]
 554 0026 FB69     		ldr	r3, [r7, #28]
 555 0028 1344     		add	r3, r3, r2
 556 002a 1B78     		ldrb	r3, [r3]	@ zero_extendqisi2
 557 002c 1A46     		mov	r2, r3
 558 002e 7B69     		ldr	r3, [r7, #20]
 559 0030 9A42     		cmp	r2, r3
 560 0032 01D0     		beq	.L30
 108:core/Stream.cpp ****       index = 0; // reset index if any char does not match
 561              		.loc 2 108 0
 562 0034 0023     		movs	r3, #0
 563 0036 FB61     		str	r3, [r7, #28]
 564              	.L30:
 109:core/Stream.cpp ****     
 110:core/Stream.cpp ****     if( c == target[index]){
 565              		.loc 2 110 0
 566 0038 BA68     		ldr	r2, [r7, #8]
 567 003a FB69     		ldr	r3, [r7, #28]
 568 003c 1344     		add	r3, r3, r2
 569 003e 1B78     		ldrb	r3, [r3]	@ zero_extendqisi2
 570 0040 1A46     		mov	r2, r3
 571 0042 7B69     		ldr	r3, [r7, #20]
ARM GAS  C:\Users\Bruger\AppData\Local\Temp\ccFtAoMj.s 			page 15


 572 0044 9A42     		cmp	r2, r3
 573 0046 0DD1     		bne	.L31
 111:core/Stream.cpp ****       //////Serial.print("found "); Serial.write(c); Serial.print("index now"); Serial.println(inde
 112:core/Stream.cpp ****       if(++index >= targetLen){ // return true if all chars in the target match
 574              		.loc 2 112 0
 575 0048 FB69     		ldr	r3, [r7, #28]
 576 004a 0133     		adds	r3, r3, #1
 577 004c FB61     		str	r3, [r7, #28]
 578 004e FA69     		ldr	r2, [r7, #28]
 579 0050 7B68     		ldr	r3, [r7, #4]
 580 0052 9A42     		cmp	r2, r3
 581 0054 2CBF     		ite	cs
 582 0056 0123     		movcs	r3, #1
 583 0058 0023     		movcc	r3, #0
 584 005a DBB2     		uxtb	r3, r3
 585 005c 002B     		cmp	r3, #0
 586 005e 01D0     		beq	.L31
 113:core/Stream.cpp ****         return true;
 587              		.loc 2 113 0
 588 0060 0123     		movs	r3, #1
 589 0062 29E0     		b	.L28
 590              	.L31:
 114:core/Stream.cpp ****       }
 115:core/Stream.cpp ****     }
 116:core/Stream.cpp ****     
 117:core/Stream.cpp ****     if(termLen > 0 && c == terminator[termIndex]){
 591              		.loc 2 117 0
 592 0064 BB6A     		ldr	r3, [r7, #40]
 593 0066 002B     		cmp	r3, #0
 594 0068 16D0     		beq	.L32
 595              		.loc 2 117 0 is_stmt 0 discriminator 1
 596 006a 3A68     		ldr	r2, [r7]
 597 006c BB69     		ldr	r3, [r7, #24]
 598 006e 1344     		add	r3, r3, r2
 599 0070 1B78     		ldrb	r3, [r3]	@ zero_extendqisi2
 600 0072 1A46     		mov	r2, r3
 601 0074 7B69     		ldr	r3, [r7, #20]
 602 0076 9A42     		cmp	r2, r3
 603 0078 0ED1     		bne	.L32
 118:core/Stream.cpp ****       if(++termIndex >= termLen)
 604              		.loc 2 118 0 is_stmt 1
 605 007a BB69     		ldr	r3, [r7, #24]
 606 007c 0133     		adds	r3, r3, #1
 607 007e BB61     		str	r3, [r7, #24]
 608 0080 BA69     		ldr	r2, [r7, #24]
 609 0082 BB6A     		ldr	r3, [r7, #40]
 610 0084 9A42     		cmp	r2, r3
 611 0086 2CBF     		ite	cs
 612 0088 0123     		movcs	r3, #1
 613 008a 0023     		movcc	r3, #0
 614 008c DBB2     		uxtb	r3, r3
 615 008e 002B     		cmp	r3, #0
 616 0090 01D0     		beq	.L33
 119:core/Stream.cpp ****         return false;       // return false if terminate string found before target string
 617              		.loc 2 119 0
 618 0092 0023     		movs	r3, #0
 619 0094 10E0     		b	.L28
ARM GAS  C:\Users\Bruger\AppData\Local\Temp\ccFtAoMj.s 			page 16


 620              	.L33:
 118:core/Stream.cpp ****       if(++termIndex >= termLen)
 621              		.loc 2 118 0
 622 0096 01E0     		b	.L29
 623              	.L32:
 120:core/Stream.cpp ****     }
 121:core/Stream.cpp ****     else
 122:core/Stream.cpp ****       termIndex = 0;
 624              		.loc 2 122 0
 625 0098 0023     		movs	r3, #0
 626 009a BB61     		str	r3, [r7, #24]
 627              	.L29:
 105:core/Stream.cpp ****     
 628              		.loc 2 105 0
 629 009c F868     		ldr	r0, [r7, #12]
 630 009e FFF7FEFF 		bl	_ZN6Stream9timedReadEv
 631 00a2 0346     		mov	r3, r0
 632 00a4 7B61     		str	r3, [r7, #20]
 633 00a6 7B69     		ldr	r3, [r7, #20]
 634 00a8 002B     		cmp	r3, #0
 635 00aa CCBF     		ite	gt
 636 00ac 0123     		movgt	r3, #1
 637 00ae 0023     		movle	r3, #0
 638 00b0 DBB2     		uxtb	r3, r3
 639 00b2 002B     		cmp	r3, #0
 640 00b4 B6D1     		bne	.L34
 123:core/Stream.cpp ****   }
 124:core/Stream.cpp ****   return false;
 641              		.loc 2 124 0
 642 00b6 0023     		movs	r3, #0
 643              	.L28:
 644              	.LBE5:
 125:core/Stream.cpp **** }
 645              		.loc 2 125 0
 646 00b8 1846     		mov	r0, r3
 647 00ba 2037     		adds	r7, r7, #32
 648              		.cfi_def_cfa_offset 8
 649 00bc BD46     		mov	sp, r7
 650              		.cfi_def_cfa_register 13
 651              		@ sp needed
 652 00be 80BD     		pop	{r7, pc}
 653              		.cfi_endproc
 654              	.LFE154:
 655              		.fnend
 656              		.size	_ZN6Stream9findUntilEPcjS0_j, .-_ZN6Stream9findUntilEPcjS0_j
 657              		.section	.text._ZN6Stream8parseIntEv,"ax",%progbits
 658              		.align	2
 659              		.global	_ZN6Stream8parseIntEv
 660              		.thumb
 661              		.thumb_func
 662              		.type	_ZN6Stream8parseIntEv, %function
 663              	_ZN6Stream8parseIntEv:
 664              		.fnstart
 665              	.LFB155:
 126:core/Stream.cpp **** 
 127:core/Stream.cpp **** 
 128:core/Stream.cpp **** // returns the first valid (long) integer value from the current position.
ARM GAS  C:\Users\Bruger\AppData\Local\Temp\ccFtAoMj.s 			page 17


 129:core/Stream.cpp **** // initial characters that are not digits (or the minus sign) are skipped
 130:core/Stream.cpp **** // function is terminated by the first character that is not a digit.
 131:core/Stream.cpp **** long Stream::parseInt()
 132:core/Stream.cpp **** {
 666              		.loc 2 132 0
 667              		.cfi_startproc
 668              		@ args = 0, pretend = 0, frame = 8
 669              		@ frame_needed = 1, uses_anonymous_args = 0
 670 0000 80B5     		push	{r7, lr}
 671              		.save {r7, lr}
 672              		.cfi_def_cfa_offset 8
 673              		.cfi_offset 7, -8
 674              		.cfi_offset 14, -4
 675              		.pad #8
 676 0002 82B0     		sub	sp, sp, #8
 677              		.cfi_def_cfa_offset 16
 678              		.setfp r7, sp, #0
 679 0004 00AF     		add	r7, sp, #0
 680              		.cfi_def_cfa_register 7
 681 0006 7860     		str	r0, [r7, #4]
 133:core/Stream.cpp ****   return parseInt(NO_SKIP_CHAR); // terminate on first non-digit character (or timeout)
 682              		.loc 2 133 0
 683 0008 7868     		ldr	r0, [r7, #4]
 684 000a 0121     		movs	r1, #1
 685 000c FFF7FEFF 		bl	_ZN6Stream8parseIntEc
 686 0010 0346     		mov	r3, r0
 134:core/Stream.cpp **** }
 687              		.loc 2 134 0
 688 0012 1846     		mov	r0, r3
 689 0014 0837     		adds	r7, r7, #8
 690              		.cfi_def_cfa_offset 8
 691 0016 BD46     		mov	sp, r7
 692              		.cfi_def_cfa_register 13
 693              		@ sp needed
 694 0018 80BD     		pop	{r7, pc}
 695              		.cfi_endproc
 696              	.LFE155:
 697              		.fnend
 698              		.size	_ZN6Stream8parseIntEv, .-_ZN6Stream8parseIntEv
 699 001a 00BF     		.section	.text._ZN6Stream8parseIntEc,"ax",%progbits
 700              		.align	2
 701              		.global	_ZN6Stream8parseIntEc
 702              		.thumb
 703              		.thumb_func
 704              		.type	_ZN6Stream8parseIntEc, %function
 705              	_ZN6Stream8parseIntEc:
 706              		.fnstart
 707              	.LFB156:
 135:core/Stream.cpp **** 
 136:core/Stream.cpp **** // as above but a given skipChar is ignored
 137:core/Stream.cpp **** // this allows format characters (typically commas) in values to be ignored
 138:core/Stream.cpp **** long Stream::parseInt(char skipChar)
 139:core/Stream.cpp **** {
 708              		.loc 2 139 0
 709              		.cfi_startproc
 710              		@ args = 0, pretend = 0, frame = 24
 711              		@ frame_needed = 1, uses_anonymous_args = 0
ARM GAS  C:\Users\Bruger\AppData\Local\Temp\ccFtAoMj.s 			page 18


 712 0000 80B5     		push	{r7, lr}
 713              		.save {r7, lr}
 714              		.cfi_def_cfa_offset 8
 715              		.cfi_offset 7, -8
 716              		.cfi_offset 14, -4
 717              		.pad #24
 718 0002 86B0     		sub	sp, sp, #24
 719              		.cfi_def_cfa_offset 32
 720              		.setfp r7, sp, #0
 721 0004 00AF     		add	r7, sp, #0
 722              		.cfi_def_cfa_register 7
 723 0006 7860     		str	r0, [r7, #4]
 724 0008 0B46     		mov	r3, r1
 725 000a FB70     		strb	r3, [r7, #3]
 726              	.LBB6:
 140:core/Stream.cpp ****   boolean isNegative = false;
 727              		.loc 2 140 0
 728 000c 0023     		movs	r3, #0
 729 000e FB75     		strb	r3, [r7, #23]
 141:core/Stream.cpp ****   long value = 0;
 730              		.loc 2 141 0
 731 0010 0023     		movs	r3, #0
 732 0012 3B61     		str	r3, [r7, #16]
 142:core/Stream.cpp ****   int c;
 143:core/Stream.cpp **** 
 144:core/Stream.cpp ****   c = peekNextDigit();
 733              		.loc 2 144 0
 734 0014 7868     		ldr	r0, [r7, #4]
 735 0016 FFF7FEFF 		bl	_ZN6Stream13peekNextDigitEv
 736 001a 0346     		mov	r3, r0
 737 001c FB60     		str	r3, [r7, #12]
 145:core/Stream.cpp ****   // ignore non numeric leading characters
 146:core/Stream.cpp ****   if(c < 0)
 738              		.loc 2 146 0
 739 001e FB68     		ldr	r3, [r7, #12]
 740 0020 002B     		cmp	r3, #0
 741 0022 01DA     		bge	.L38
 147:core/Stream.cpp ****     return 0; // zero returned if timeout
 742              		.loc 2 147 0
 743 0024 0023     		movs	r3, #0
 744 0026 35E0     		b	.L39
 745              	.L38:
 148:core/Stream.cpp **** 
 149:core/Stream.cpp ****   do{
 150:core/Stream.cpp ****     if(c == skipChar)
 746              		.loc 2 150 0
 747 0028 FA78     		ldrb	r2, [r7, #3]	@ zero_extendqisi2
 748 002a FB68     		ldr	r3, [r7, #12]
 749 002c 9A42     		cmp	r2, r3
 750 002e 15D0     		beq	.L40
 151:core/Stream.cpp ****       ; // ignore this charactor
 152:core/Stream.cpp ****     else if(c == '-')
 751              		.loc 2 152 0
 752 0030 FB68     		ldr	r3, [r7, #12]
 753 0032 2D2B     		cmp	r3, #45
 754 0034 02D1     		bne	.L41
 153:core/Stream.cpp ****       isNegative = true;
ARM GAS  C:\Users\Bruger\AppData\Local\Temp\ccFtAoMj.s 			page 19


 755              		.loc 2 153 0
 756 0036 0123     		movs	r3, #1
 757 0038 FB75     		strb	r3, [r7, #23]
 758 003a 0FE0     		b	.L40
 759              	.L41:
 154:core/Stream.cpp ****     else if(c >= '0' && c <= '9')        // is c a digit?
 760              		.loc 2 154 0
 761 003c FB68     		ldr	r3, [r7, #12]
 762 003e 2F2B     		cmp	r3, #47
 763 0040 0CDD     		ble	.L40
 764              		.loc 2 154 0 is_stmt 0 discriminator 1
 765 0042 FB68     		ldr	r3, [r7, #12]
 766 0044 392B     		cmp	r3, #57
 767 0046 09DC     		bgt	.L40
 155:core/Stream.cpp ****       value = value * 10 + c - '0';
 768              		.loc 2 155 0 is_stmt 1
 769 0048 3A69     		ldr	r2, [r7, #16]
 770 004a 1346     		mov	r3, r2
 771 004c 9B00     		lsls	r3, r3, #2
 772 004e 1344     		add	r3, r3, r2
 773 0050 5B00     		lsls	r3, r3, #1
 774 0052 1A46     		mov	r2, r3
 775 0054 FB68     		ldr	r3, [r7, #12]
 776 0056 1344     		add	r3, r3, r2
 777 0058 303B     		subs	r3, r3, #48
 778 005a 3B61     		str	r3, [r7, #16]
 779              	.L40:
 156:core/Stream.cpp ****     read();  // consume the character we got with peek
 780              		.loc 2 156 0
 781 005c 7B68     		ldr	r3, [r7, #4]
 782 005e 1B68     		ldr	r3, [r3]
 783 0060 0C33     		adds	r3, r3, #12
 784 0062 1B68     		ldr	r3, [r3]
 785 0064 7868     		ldr	r0, [r7, #4]
 786 0066 9847     		blx	r3
 157:core/Stream.cpp ****     c = timedPeek();
 787              		.loc 2 157 0
 788 0068 7868     		ldr	r0, [r7, #4]
 789 006a FFF7FEFF 		bl	_ZN6Stream9timedPeekEv
 790 006e 0346     		mov	r3, r0
 791 0070 FB60     		str	r3, [r7, #12]
 149:core/Stream.cpp ****     if(c == skipChar)
 792              		.loc 2 149 0
 793 0072 FB68     		ldr	r3, [r7, #12]
 794 0074 2F2B     		cmp	r3, #47
 795 0076 02DD     		ble	.L42
 158:core/Stream.cpp ****   }
 159:core/Stream.cpp ****   while( (c >= '0' && c <= '9') || c == skipChar );
 796              		.loc 2 159 0
 797 0078 FB68     		ldr	r3, [r7, #12]
 798 007a 392B     		cmp	r3, #57
 799 007c D4DD     		ble	.L38
 800              	.L42:
 801              		.loc 2 159 0 is_stmt 0 discriminator 1
 802 007e FA78     		ldrb	r2, [r7, #3]	@ zero_extendqisi2
 803 0080 FB68     		ldr	r3, [r7, #12]
 804 0082 9A42     		cmp	r2, r3
ARM GAS  C:\Users\Bruger\AppData\Local\Temp\ccFtAoMj.s 			page 20


 805 0084 D0D0     		beq	.L38
 160:core/Stream.cpp **** 
 161:core/Stream.cpp ****   if(isNegative)
 806              		.loc 2 161 0 is_stmt 1
 807 0086 FB7D     		ldrb	r3, [r7, #23]	@ zero_extendqisi2
 808 0088 002B     		cmp	r3, #0
 809 008a 02D0     		beq	.L43
 162:core/Stream.cpp ****     value = -value;
 810              		.loc 2 162 0
 811 008c 3B69     		ldr	r3, [r7, #16]
 812 008e 5B42     		negs	r3, r3
 813 0090 3B61     		str	r3, [r7, #16]
 814              	.L43:
 163:core/Stream.cpp ****   return value;
 815              		.loc 2 163 0
 816 0092 3B69     		ldr	r3, [r7, #16]
 817              	.L39:
 818              	.LBE6:
 164:core/Stream.cpp **** }
 819              		.loc 2 164 0
 820 0094 1846     		mov	r0, r3
 821 0096 1837     		adds	r7, r7, #24
 822              		.cfi_def_cfa_offset 8
 823 0098 BD46     		mov	sp, r7
 824              		.cfi_def_cfa_register 13
 825              		@ sp needed
 826 009a 80BD     		pop	{r7, pc}
 827              		.cfi_endproc
 828              	.LFE156:
 829              		.fnend
 830              		.size	_ZN6Stream8parseIntEc, .-_ZN6Stream8parseIntEc
 831              		.section	.text._ZN6Stream10parseFloatEv,"ax",%progbits
 832              		.align	2
 833              		.global	_ZN6Stream10parseFloatEv
 834              		.thumb
 835              		.thumb_func
 836              		.type	_ZN6Stream10parseFloatEv, %function
 837              	_ZN6Stream10parseFloatEv:
 838              		.fnstart
 839              	.LFB157:
 165:core/Stream.cpp **** 
 166:core/Stream.cpp **** 
 167:core/Stream.cpp **** // as parseInt but returns a floating point value
 168:core/Stream.cpp **** float Stream::parseFloat()
 169:core/Stream.cpp **** {
 840              		.loc 2 169 0
 841              		.cfi_startproc
 842              		@ args = 0, pretend = 0, frame = 8
 843              		@ frame_needed = 1, uses_anonymous_args = 0
 844 0000 80B5     		push	{r7, lr}
 845              		.save {r7, lr}
 846              		.cfi_def_cfa_offset 8
 847              		.cfi_offset 7, -8
 848              		.cfi_offset 14, -4
 849              		.pad #8
 850 0002 82B0     		sub	sp, sp, #8
 851              		.cfi_def_cfa_offset 16
ARM GAS  C:\Users\Bruger\AppData\Local\Temp\ccFtAoMj.s 			page 21


 852              		.setfp r7, sp, #0
 853 0004 00AF     		add	r7, sp, #0
 854              		.cfi_def_cfa_register 7
 855 0006 7860     		str	r0, [r7, #4]
 170:core/Stream.cpp ****   return parseFloat(NO_SKIP_CHAR);
 856              		.loc 2 170 0
 857 0008 7868     		ldr	r0, [r7, #4]
 858 000a 0121     		movs	r1, #1
 859 000c FFF7FEFF 		bl	_ZN6Stream10parseFloatEc
 860 0010 0346     		mov	r3, r0
 171:core/Stream.cpp **** }
 861              		.loc 2 171 0
 862 0012 1846     		mov	r0, r3
 863 0014 0837     		adds	r7, r7, #8
 864              		.cfi_def_cfa_offset 8
 865 0016 BD46     		mov	sp, r7
 866              		.cfi_def_cfa_register 13
 867              		@ sp needed
 868 0018 80BD     		pop	{r7, pc}
 869              		.cfi_endproc
 870              	.LFE157:
 871              		.fnend
 872              		.size	_ZN6Stream10parseFloatEv, .-_ZN6Stream10parseFloatEv
 873              		.global	__aeabi_f2d
 874              		.global	__aeabi_dmul
 875              		.global	__aeabi_d2f
 876              		.global	__aeabi_i2f
 877              		.global	__aeabi_fmul
 878 001a 00BF     		.section	.text._ZN6Stream10parseFloatEc,"ax",%progbits
 879              		.align	2
 880              		.global	_ZN6Stream10parseFloatEc
 881              		.thumb
 882              		.thumb_func
 883              		.type	_ZN6Stream10parseFloatEc, %function
 884              	_ZN6Stream10parseFloatEc:
 885              		.fnstart
 886              	.LFB158:
 172:core/Stream.cpp **** 
 173:core/Stream.cpp **** // as above but the given skipChar is ignored
 174:core/Stream.cpp **** // this allows format characters (typically commas) in values to be ignored
 175:core/Stream.cpp **** float Stream::parseFloat(char skipChar){
 887              		.loc 2 175 0
 888              		.cfi_startproc
 889              		@ args = 0, pretend = 0, frame = 24
 890              		@ frame_needed = 1, uses_anonymous_args = 0
 891 0000 80B5     		push	{r7, lr}
 892              		.save {r7, lr}
 893              		.cfi_def_cfa_offset 8
 894              		.cfi_offset 7, -8
 895              		.cfi_offset 14, -4
 896              		.pad #24
 897 0002 86B0     		sub	sp, sp, #24
 898              		.cfi_def_cfa_offset 32
 899              		.setfp r7, sp, #0
 900 0004 00AF     		add	r7, sp, #0
 901              		.cfi_def_cfa_register 7
 902 0006 7860     		str	r0, [r7, #4]
ARM GAS  C:\Users\Bruger\AppData\Local\Temp\ccFtAoMj.s 			page 22


 903 0008 0B46     		mov	r3, r1
 904 000a FB70     		strb	r3, [r7, #3]
 905              	.LBB7:
 176:core/Stream.cpp ****   boolean isNegative = false;
 906              		.loc 2 176 0
 907 000c 0023     		movs	r3, #0
 908 000e FB75     		strb	r3, [r7, #23]
 177:core/Stream.cpp ****   boolean isFraction = false;
 909              		.loc 2 177 0
 910 0010 0023     		movs	r3, #0
 911 0012 BB75     		strb	r3, [r7, #22]
 178:core/Stream.cpp ****   long value = 0;
 912              		.loc 2 178 0
 913 0014 0023     		movs	r3, #0
 914 0016 3B61     		str	r3, [r7, #16]
 179:core/Stream.cpp ****   int c;
 180:core/Stream.cpp ****   float fraction = 1.0;
 915              		.loc 2 180 0
 916 0018 4FF07E53 		mov	r3, #1065353216
 917 001c BB60     		str	r3, [r7, #8]	@ float
 181:core/Stream.cpp **** 
 182:core/Stream.cpp ****   c = peekNextDigit();
 918              		.loc 2 182 0
 919 001e 7868     		ldr	r0, [r7, #4]
 920 0020 FFF7FEFF 		bl	_ZN6Stream13peekNextDigitEv
 921 0024 0346     		mov	r3, r0
 922 0026 FB60     		str	r3, [r7, #12]
 183:core/Stream.cpp ****     // ignore non numeric leading characters
 184:core/Stream.cpp ****   if(c < 0)
 923              		.loc 2 184 0
 924 0028 FB68     		ldr	r3, [r7, #12]
 925 002a 002B     		cmp	r3, #0
 926 002c 02DA     		bge	.L47
 185:core/Stream.cpp ****     return 0; // zero returned if timeout
 927              		.loc 2 185 0
 928 002e 4FF00003 		mov	r3, #0
 929 0032 65E0     		b	.L48
 930              	.L47:
 186:core/Stream.cpp **** 
 187:core/Stream.cpp ****   do{
 188:core/Stream.cpp ****     if(c == skipChar)
 931              		.loc 2 188 0
 932 0034 FA78     		ldrb	r2, [r7, #3]	@ zero_extendqisi2
 933 0036 FB68     		ldr	r3, [r7, #12]
 934 0038 9A42     		cmp	r2, r3
 935 003a 32D0     		beq	.L49
 189:core/Stream.cpp ****       ; // ignore
 190:core/Stream.cpp ****     else if(c == '-')
 936              		.loc 2 190 0
 937 003c FB68     		ldr	r3, [r7, #12]
 938 003e 2D2B     		cmp	r3, #45
 939 0040 02D1     		bne	.L50
 191:core/Stream.cpp ****       isNegative = true;
 940              		.loc 2 191 0
 941 0042 0123     		movs	r3, #1
 942 0044 FB75     		strb	r3, [r7, #23]
 943 0046 2CE0     		b	.L49
ARM GAS  C:\Users\Bruger\AppData\Local\Temp\ccFtAoMj.s 			page 23


 944              	.L50:
 192:core/Stream.cpp ****     else if (c == '.')
 945              		.loc 2 192 0
 946 0048 FB68     		ldr	r3, [r7, #12]
 947 004a 2E2B     		cmp	r3, #46
 948 004c 02D1     		bne	.L51
 193:core/Stream.cpp ****       isFraction = true;
 949              		.loc 2 193 0
 950 004e 0123     		movs	r3, #1
 951 0050 BB75     		strb	r3, [r7, #22]
 952 0052 26E0     		b	.L49
 953              	.L51:
 194:core/Stream.cpp ****     else if(c >= '0' && c <= '9')  {      // is c a digit?
 954              		.loc 2 194 0
 955 0054 FB68     		ldr	r3, [r7, #12]
 956 0056 2F2B     		cmp	r3, #47
 957 0058 23DD     		ble	.L49
 958              		.loc 2 194 0 is_stmt 0 discriminator 1
 959 005a FB68     		ldr	r3, [r7, #12]
 960 005c 392B     		cmp	r3, #57
 961 005e 20DC     		bgt	.L49
 195:core/Stream.cpp ****       value = value * 10 + c - '0';
 962              		.loc 2 195 0 is_stmt 1
 963 0060 3A69     		ldr	r2, [r7, #16]
 964 0062 1346     		mov	r3, r2
 965 0064 9B00     		lsls	r3, r3, #2
 966 0066 1344     		add	r3, r3, r2
 967 0068 5B00     		lsls	r3, r3, #1
 968 006a 1A46     		mov	r2, r3
 969 006c FB68     		ldr	r3, [r7, #12]
 970 006e 1344     		add	r3, r3, r2
 971 0070 303B     		subs	r3, r3, #48
 972 0072 3B61     		str	r3, [r7, #16]
 196:core/Stream.cpp ****       if(isFraction)
 973              		.loc 2 196 0
 974 0074 BB7D     		ldrb	r3, [r7, #22]	@ zero_extendqisi2
 975 0076 002B     		cmp	r3, #0
 976 0078 13D0     		beq	.L49
 197:core/Stream.cpp ****          fraction *= 0.1;
 977              		.loc 2 197 0
 978 007a B868     		ldr	r0, [r7, #8]	@ float
 979 007c FFF7FEFF 		bl	__aeabi_f2d
 980 0080 0246     		mov	r2, r0
 981 0082 0B46     		mov	r3, r1
 982 0084 1046     		mov	r0, r2
 983 0086 1946     		mov	r1, r3
 984 0088 1FA3     		adr	r3, .L55
 985 008a D3E90023 		ldrd	r2, [r3]
 986 008e FFF7FEFF 		bl	__aeabi_dmul
 987 0092 0246     		mov	r2, r0
 988 0094 0B46     		mov	r3, r1
 989 0096 1046     		mov	r0, r2
 990 0098 1946     		mov	r1, r3
 991 009a FFF7FEFF 		bl	__aeabi_d2f
 992 009e 0346     		mov	r3, r0
 993 00a0 BB60     		str	r3, [r7, #8]	@ float
 994              	.L49:
ARM GAS  C:\Users\Bruger\AppData\Local\Temp\ccFtAoMj.s 			page 24


 198:core/Stream.cpp ****     }
 199:core/Stream.cpp ****     read();  // consume the character we got with peek
 995              		.loc 2 199 0
 996 00a2 7B68     		ldr	r3, [r7, #4]
 997 00a4 1B68     		ldr	r3, [r3]
 998 00a6 0C33     		adds	r3, r3, #12
 999 00a8 1B68     		ldr	r3, [r3]
 1000 00aa 7868     		ldr	r0, [r7, #4]
 1001 00ac 9847     		blx	r3
 200:core/Stream.cpp ****     c = timedPeek();
 1002              		.loc 2 200 0
 1003 00ae 7868     		ldr	r0, [r7, #4]
 1004 00b0 FFF7FEFF 		bl	_ZN6Stream9timedPeekEv
 1005 00b4 0346     		mov	r3, r0
 1006 00b6 FB60     		str	r3, [r7, #12]
 187:core/Stream.cpp ****     if(c == skipChar)
 1007              		.loc 2 187 0
 1008 00b8 FB68     		ldr	r3, [r7, #12]
 1009 00ba 2F2B     		cmp	r3, #47
 1010 00bc 02DD     		ble	.L52
 201:core/Stream.cpp ****   }
 202:core/Stream.cpp ****   while( (c >= '0' && c <= '9')  || c == '.' || c == skipChar );
 1011              		.loc 2 202 0
 1012 00be FB68     		ldr	r3, [r7, #12]
 1013 00c0 392B     		cmp	r3, #57
 1014 00c2 B7DD     		ble	.L47
 1015              	.L52:
 1016              		.loc 2 202 0 is_stmt 0 discriminator 1
 1017 00c4 FB68     		ldr	r3, [r7, #12]
 1018 00c6 2E2B     		cmp	r3, #46
 1019 00c8 B4D0     		beq	.L47
 1020              		.loc 2 202 0 discriminator 2
 1021 00ca FA78     		ldrb	r2, [r7, #3]	@ zero_extendqisi2
 1022 00cc FB68     		ldr	r3, [r7, #12]
 1023 00ce 9A42     		cmp	r2, r3
 1024 00d0 B0D0     		beq	.L47
 203:core/Stream.cpp **** 
 204:core/Stream.cpp ****   if(isNegative)
 1025              		.loc 2 204 0 is_stmt 1
 1026 00d2 FB7D     		ldrb	r3, [r7, #23]	@ zero_extendqisi2
 1027 00d4 002B     		cmp	r3, #0
 1028 00d6 02D0     		beq	.L53
 205:core/Stream.cpp ****     value = -value;
 1029              		.loc 2 205 0
 1030 00d8 3B69     		ldr	r3, [r7, #16]
 1031 00da 5B42     		negs	r3, r3
 1032 00dc 3B61     		str	r3, [r7, #16]
 1033              	.L53:
 206:core/Stream.cpp ****   if(isFraction)
 1034              		.loc 2 206 0
 1035 00de BB7D     		ldrb	r3, [r7, #22]	@ zero_extendqisi2
 1036 00e0 002B     		cmp	r3, #0
 1037 00e2 09D0     		beq	.L54
 207:core/Stream.cpp ****     return value * fraction;
 1038              		.loc 2 207 0
 1039 00e4 3869     		ldr	r0, [r7, #16]
 1040 00e6 FFF7FEFF 		bl	__aeabi_i2f
ARM GAS  C:\Users\Bruger\AppData\Local\Temp\ccFtAoMj.s 			page 25


 1041 00ea 0346     		mov	r3, r0
 1042 00ec 1846     		mov	r0, r3
 1043 00ee B968     		ldr	r1, [r7, #8]	@ float
 1044 00f0 FFF7FEFF 		bl	__aeabi_fmul
 1045 00f4 0346     		mov	r3, r0
 1046 00f6 03E0     		b	.L48
 1047              	.L54:
 208:core/Stream.cpp ****   else
 209:core/Stream.cpp ****     return value;
 1048              		.loc 2 209 0
 1049 00f8 3869     		ldr	r0, [r7, #16]
 1050 00fa FFF7FEFF 		bl	__aeabi_i2f
 1051 00fe 0346     		mov	r3, r0
 1052              	.L48:
 1053              	.LBE7:
 210:core/Stream.cpp **** }
 1054              		.loc 2 210 0
 1055 0100 1846     		mov	r0, r3
 1056 0102 1837     		adds	r7, r7, #24
 1057              		.cfi_def_cfa_offset 8
 1058 0104 BD46     		mov	sp, r7
 1059              		.cfi_def_cfa_register 13
 1060              		@ sp needed
 1061 0106 80BD     		pop	{r7, pc}
 1062              	.L56:
 1063              		.align	3
 1064              	.L55:
 1065 0108 9A999999 		.word	-1717986918
 1066 010c 9999B93F 		.word	1069128089
 1067              		.cfi_endproc
 1068              	.LFE158:
 1069              		.fnend
 1070              		.size	_ZN6Stream10parseFloatEc, .-_ZN6Stream10parseFloatEc
 1071              		.section	.text._ZN6Stream9readBytesEPcj,"ax",%progbits
 1072              		.align	2
 1073              		.global	_ZN6Stream9readBytesEPcj
 1074              		.thumb
 1075              		.thumb_func
 1076              		.type	_ZN6Stream9readBytesEPcj, %function
 1077              	_ZN6Stream9readBytesEPcj:
 1078              		.fnstart
 1079              	.LFB159:
 211:core/Stream.cpp **** 
 212:core/Stream.cpp **** // read characters from stream into buffer
 213:core/Stream.cpp **** // terminates if length characters have been read, or timeout (see setTimeout)
 214:core/Stream.cpp **** // returns the number of characters placed in the buffer
 215:core/Stream.cpp **** // the buffer is NOT null terminated.
 216:core/Stream.cpp **** //
 217:core/Stream.cpp **** size_t Stream::readBytes(char *buffer, size_t length)
 218:core/Stream.cpp **** {
 1080              		.loc 2 218 0
 1081              		.cfi_startproc
 1082              		@ args = 0, pretend = 0, frame = 24
 1083              		@ frame_needed = 1, uses_anonymous_args = 0
 1084 0000 80B5     		push	{r7, lr}
 1085              		.save {r7, lr}
 1086              		.cfi_def_cfa_offset 8
ARM GAS  C:\Users\Bruger\AppData\Local\Temp\ccFtAoMj.s 			page 26


 1087              		.cfi_offset 7, -8
 1088              		.cfi_offset 14, -4
 1089              		.pad #24
 1090 0002 86B0     		sub	sp, sp, #24
 1091              		.cfi_def_cfa_offset 32
 1092              		.setfp r7, sp, #0
 1093 0004 00AF     		add	r7, sp, #0
 1094              		.cfi_def_cfa_register 7
 1095 0006 F860     		str	r0, [r7, #12]
 1096 0008 B960     		str	r1, [r7, #8]
 1097 000a 7A60     		str	r2, [r7, #4]
 1098              	.LBB8:
 219:core/Stream.cpp ****   size_t count = 0;
 1099              		.loc 2 219 0
 1100 000c 0023     		movs	r3, #0
 1101 000e 7B61     		str	r3, [r7, #20]
 220:core/Stream.cpp ****   while (count < length) {
 1102              		.loc 2 220 0
 1103 0010 11E0     		b	.L58
 1104              	.L61:
 1105              	.LBB9:
 221:core/Stream.cpp ****     int c = timedRead();
 1106              		.loc 2 221 0
 1107 0012 F868     		ldr	r0, [r7, #12]
 1108 0014 FFF7FEFF 		bl	_ZN6Stream9timedReadEv
 1109 0018 0346     		mov	r3, r0
 1110 001a 3B61     		str	r3, [r7, #16]
 222:core/Stream.cpp ****     if (c < 0) break;
 1111              		.loc 2 222 0
 1112 001c 3B69     		ldr	r3, [r7, #16]
 1113 001e 002B     		cmp	r3, #0
 1114 0020 00DA     		bge	.L59
 1115 0022 0CE0     		b	.L60
 1116              	.L59:
 223:core/Stream.cpp ****     *buffer++ = (char)c;
 1117              		.loc 2 223 0
 1118 0024 BB68     		ldr	r3, [r7, #8]
 1119 0026 5A1C     		adds	r2, r3, #1
 1120 0028 BA60     		str	r2, [r7, #8]
 1121 002a 3A69     		ldr	r2, [r7, #16]
 1122 002c D2B2     		uxtb	r2, r2
 1123 002e 1A70     		strb	r2, [r3]
 224:core/Stream.cpp ****     count++;
 1124              		.loc 2 224 0
 1125 0030 7B69     		ldr	r3, [r7, #20]
 1126 0032 0133     		adds	r3, r3, #1
 1127 0034 7B61     		str	r3, [r7, #20]
 1128              	.L58:
 1129              	.LBE9:
 220:core/Stream.cpp ****     int c = timedRead();
 1130              		.loc 2 220 0
 1131 0036 7A69     		ldr	r2, [r7, #20]
 1132 0038 7B68     		ldr	r3, [r7, #4]
 1133 003a 9A42     		cmp	r2, r3
 1134 003c E9D3     		bcc	.L61
 1135              	.L60:
 225:core/Stream.cpp ****   }
ARM GAS  C:\Users\Bruger\AppData\Local\Temp\ccFtAoMj.s 			page 27


 226:core/Stream.cpp ****   return count;
 1136              		.loc 2 226 0
 1137 003e 7B69     		ldr	r3, [r7, #20]
 1138              	.LBE8:
 227:core/Stream.cpp **** }
 1139              		.loc 2 227 0
 1140 0040 1846     		mov	r0, r3
 1141 0042 1837     		adds	r7, r7, #24
 1142              		.cfi_def_cfa_offset 8
 1143 0044 BD46     		mov	sp, r7
 1144              		.cfi_def_cfa_register 13
 1145              		@ sp needed
 1146 0046 80BD     		pop	{r7, pc}
 1147              		.cfi_endproc
 1148              	.LFE159:
 1149              		.fnend
 1150              		.size	_ZN6Stream9readBytesEPcj, .-_ZN6Stream9readBytesEPcj
 1151              		.section	.text._ZN6Stream14readBytesUntilEcPcj,"ax",%progbits
 1152              		.align	2
 1153              		.global	_ZN6Stream14readBytesUntilEcPcj
 1154              		.thumb
 1155              		.thumb_func
 1156              		.type	_ZN6Stream14readBytesUntilEcPcj, %function
 1157              	_ZN6Stream14readBytesUntilEcPcj:
 1158              		.fnstart
 1159              	.LFB160:
 228:core/Stream.cpp **** 
 229:core/Stream.cpp **** 
 230:core/Stream.cpp **** // as readBytes with terminator character
 231:core/Stream.cpp **** // terminates if length characters have been read, timeout, or if the terminator character  detecte
 232:core/Stream.cpp **** // returns the number of characters placed in the buffer (0 means no valid data found)
 233:core/Stream.cpp **** 
 234:core/Stream.cpp **** size_t Stream::readBytesUntil(char terminator, char *buffer, size_t length)
 235:core/Stream.cpp **** {
 1160              		.loc 2 235 0
 1161              		.cfi_startproc
 1162              		@ args = 0, pretend = 0, frame = 24
 1163              		@ frame_needed = 1, uses_anonymous_args = 0
 1164 0000 80B5     		push	{r7, lr}
 1165              		.save {r7, lr}
 1166              		.cfi_def_cfa_offset 8
 1167              		.cfi_offset 7, -8
 1168              		.cfi_offset 14, -4
 1169              		.pad #24
 1170 0002 86B0     		sub	sp, sp, #24
 1171              		.cfi_def_cfa_offset 32
 1172              		.setfp r7, sp, #0
 1173 0004 00AF     		add	r7, sp, #0
 1174              		.cfi_def_cfa_register 7
 1175 0006 F860     		str	r0, [r7, #12]
 1176 0008 7A60     		str	r2, [r7, #4]
 1177 000a 3B60     		str	r3, [r7]
 1178 000c 0B46     		mov	r3, r1
 1179 000e FB72     		strb	r3, [r7, #11]
 1180              	.LBB10:
 236:core/Stream.cpp ****   if (length < 1) return 0;
 1181              		.loc 2 236 0
ARM GAS  C:\Users\Bruger\AppData\Local\Temp\ccFtAoMj.s 			page 28


 1182 0010 3B68     		ldr	r3, [r7]
 1183 0012 002B     		cmp	r3, #0
 1184 0014 01D1     		bne	.L64
 1185              		.loc 2 236 0 is_stmt 0 discriminator 1
 1186 0016 0023     		movs	r3, #0
 1187 0018 1CE0     		b	.L65
 1188              	.L64:
 237:core/Stream.cpp ****   size_t index = 0;
 1189              		.loc 2 237 0 is_stmt 1
 1190 001a 0023     		movs	r3, #0
 1191 001c 7B61     		str	r3, [r7, #20]
 238:core/Stream.cpp ****   while (index < length) {
 1192              		.loc 2 238 0
 1193 001e 14E0     		b	.L66
 1194              	.L68:
 1195              	.LBB11:
 239:core/Stream.cpp ****     int c = timedRead();
 1196              		.loc 2 239 0
 1197 0020 F868     		ldr	r0, [r7, #12]
 1198 0022 FFF7FEFF 		bl	_ZN6Stream9timedReadEv
 1199 0026 0346     		mov	r3, r0
 1200 0028 3B61     		str	r3, [r7, #16]
 240:core/Stream.cpp ****     if (c < 0 || c == terminator) break;
 1201              		.loc 2 240 0
 1202 002a 3B69     		ldr	r3, [r7, #16]
 1203 002c 002B     		cmp	r3, #0
 1204 002e 10DB     		blt	.L67
 1205              		.loc 2 240 0 is_stmt 0 discriminator 1
 1206 0030 FA7A     		ldrb	r2, [r7, #11]	@ zero_extendqisi2
 1207 0032 3B69     		ldr	r3, [r7, #16]
 1208 0034 9A42     		cmp	r2, r3
 1209 0036 0CD0     		beq	.L67
 241:core/Stream.cpp ****     *buffer++ = (char)c;
 1210              		.loc 2 241 0 is_stmt 1
 1211 0038 7B68     		ldr	r3, [r7, #4]
 1212 003a 5A1C     		adds	r2, r3, #1
 1213 003c 7A60     		str	r2, [r7, #4]
 1214 003e 3A69     		ldr	r2, [r7, #16]
 1215 0040 D2B2     		uxtb	r2, r2
 1216 0042 1A70     		strb	r2, [r3]
 242:core/Stream.cpp ****     index++;
 1217              		.loc 2 242 0
 1218 0044 7B69     		ldr	r3, [r7, #20]
 1219 0046 0133     		adds	r3, r3, #1
 1220 0048 7B61     		str	r3, [r7, #20]
 1221              	.L66:
 1222              	.LBE11:
 238:core/Stream.cpp ****     int c = timedRead();
 1223              		.loc 2 238 0
 1224 004a 7A69     		ldr	r2, [r7, #20]
 1225 004c 3B68     		ldr	r3, [r7]
 1226 004e 9A42     		cmp	r2, r3
 1227 0050 E6D3     		bcc	.L68
 1228              	.L67:
 243:core/Stream.cpp ****   }
 244:core/Stream.cpp ****   return index; // return number of characters, not including null terminator
 1229              		.loc 2 244 0
ARM GAS  C:\Users\Bruger\AppData\Local\Temp\ccFtAoMj.s 			page 29


 1230 0052 7B69     		ldr	r3, [r7, #20]
 1231              	.L65:
 1232              	.LBE10:
 245:core/Stream.cpp **** }
 1233              		.loc 2 245 0
 1234 0054 1846     		mov	r0, r3
 1235 0056 1837     		adds	r7, r7, #24
 1236              		.cfi_def_cfa_offset 8
 1237 0058 BD46     		mov	sp, r7
 1238              		.cfi_def_cfa_register 13
 1239              		@ sp needed
 1240 005a 80BD     		pop	{r7, pc}
 1241              		.cfi_endproc
 1242              	.LFE160:
 1243              		.fnend
 1244              		.size	_ZN6Stream14readBytesUntilEcPcj, .-_ZN6Stream14readBytesUntilEcPcj
 1245              		.section	.text._ZN6Stream10readStringEv,"ax",%progbits
 1246              		.align	2
 1247              		.global	_ZN6Stream10readStringEv
 1248              		.thumb
 1249              		.thumb_func
 1250              		.type	_ZN6Stream10readStringEv, %function
 1251              	_ZN6Stream10readStringEv:
 1252              		.fnstart
 1253              	.LFB161:
 246:core/Stream.cpp **** 
 247:core/Stream.cpp **** String Stream::readString()
 248:core/Stream.cpp **** {
 1254              		.loc 2 248 0
 1255              		.cfi_startproc
 1256              		.cfi_personality 0,__gxx_personality_v0
 1257              		.cfi_lsda 0,.LLSDA161
 1258              		@ args = 0, pretend = 0, frame = 16
 1259              		@ frame_needed = 1, uses_anonymous_args = 0
 1260 0000 80B5     		push	{r7, lr}
 1261              		.save {r7, lr}
 1262              		.cfi_def_cfa_offset 8
 1263              		.cfi_offset 7, -8
 1264              		.cfi_offset 14, -4
 1265              		.pad #16
 1266 0002 84B0     		sub	sp, sp, #16
 1267              		.cfi_def_cfa_offset 24
 1268              		.setfp r7, sp, #0
 1269 0004 00AF     		add	r7, sp, #0
 1270              		.cfi_def_cfa_register 7
 1271 0006 7860     		str	r0, [r7, #4]
 1272 0008 3960     		str	r1, [r7]
 1273              	.LBB12:
 249:core/Stream.cpp ****   String ret;
 1274              		.loc 2 249 0
 1275 000a 7868     		ldr	r0, [r7, #4]
 1276 000c 1049     		ldr	r1, .L76
 1277              	.LEHB0:
 1278 000e FFF7FEFF 		bl	_ZN6StringC1EPKc
 1279              	.LEHE0:
 250:core/Stream.cpp ****   int c = timedRead();
 1280              		.loc 2 250 0
ARM GAS  C:\Users\Bruger\AppData\Local\Temp\ccFtAoMj.s 			page 30


 1281 0012 3868     		ldr	r0, [r7]
 1282              	.LEHB1:
 1283 0014 FFF7FEFF 		bl	_ZN6Stream9timedReadEv
 1284 0018 0346     		mov	r3, r0
 1285 001a FB60     		str	r3, [r7, #12]
 251:core/Stream.cpp ****   while (c >= 0)
 1286              		.loc 2 251 0
 1287 001c 0AE0     		b	.L70
 1288              	.L71:
 252:core/Stream.cpp ****   {
 253:core/Stream.cpp ****     ret += (char)c;
 1289              		.loc 2 253 0
 1290 001e FB68     		ldr	r3, [r7, #12]
 1291 0020 DBB2     		uxtb	r3, r3
 1292 0022 7868     		ldr	r0, [r7, #4]
 1293 0024 1946     		mov	r1, r3
 1294 0026 FFF7FEFF 		bl	_ZN6StringpLEc
 254:core/Stream.cpp ****     c = timedRead();
 1295              		.loc 2 254 0
 1296 002a 3868     		ldr	r0, [r7]
 1297 002c FFF7FEFF 		bl	_ZN6Stream9timedReadEv
 1298              	.LEHE1:
 1299 0030 0346     		mov	r3, r0
 1300 0032 FB60     		str	r3, [r7, #12]
 1301              	.L70:
 251:core/Stream.cpp ****   while (c >= 0)
 1302              		.loc 2 251 0
 1303 0034 FB68     		ldr	r3, [r7, #12]
 1304 0036 002B     		cmp	r3, #0
 1305 0038 F1DA     		bge	.L71
 255:core/Stream.cpp ****   }
 256:core/Stream.cpp ****   return ret;
 1306              		.loc 2 256 0
 1307 003a 04E0     		b	.L75
 1308              	.L74:
 1309 003c 7868     		ldr	r0, [r7, #4]
 1310 003e FFF7FEFF 		bl	_ZN6StringD1Ev
 1311              	.LEHB2:
 1312 0042 FFF7FEFF 		bl	__cxa_end_cleanup
 1313              	.LEHE2:
 1314              	.L75:
 1315              	.LBE12:
 257:core/Stream.cpp **** }
 1316              		.loc 2 257 0
 1317 0046 7868     		ldr	r0, [r7, #4]
 1318 0048 1037     		adds	r7, r7, #16
 1319              		.cfi_def_cfa_offset 8
 1320 004a BD46     		mov	sp, r7
 1321              		.cfi_def_cfa_register 13
 1322              		@ sp needed
 1323 004c 80BD     		pop	{r7, pc}
 1324              	.L77:
 1325 004e 00BF     		.align	2
 1326              	.L76:
 1327 0050 00000000 		.word	.LC0
 1328              		.cfi_endproc
 1329              	.LFE161:
ARM GAS  C:\Users\Bruger\AppData\Local\Temp\ccFtAoMj.s 			page 31


 1330              		.global	__gxx_personality_v0
 1331              		.personality	__gxx_personality_v0
 1332              		.handlerdata
 1333              	.LLSDA161:
 1334 000c FF       		.byte	0xff
 1335 000d FF       		.byte	0xff
 1336 000e 01       		.byte	0x1
 1337 000f 0C       		.uleb128 .LLSDACSE161-.LLSDACSB161
 1338              	.LLSDACSB161:
 1339 0010 0E       		.uleb128 .LEHB0-.LFB161
 1340 0011 04       		.uleb128 .LEHE0-.LEHB0
 1341 0012 00       		.uleb128 0
 1342 0013 00       		.uleb128 0
 1343 0014 14       		.uleb128 .LEHB1-.LFB161
 1344 0015 1C       		.uleb128 .LEHE1-.LEHB1
 1345 0016 3C       		.uleb128 .L74-.LFB161
 1346 0017 00       		.uleb128 0
 1347 0018 42       		.uleb128 .LEHB2-.LFB161
 1348 0019 04       		.uleb128 .LEHE2-.LEHB2
 1349 001a 00       		.uleb128 0
 1350 001b 00       		.uleb128 0
 1351              	.LLSDACSE161:
 1352              		.section	.text._ZN6Stream10readStringEv
 1353              		.fnend
 1354              		.size	_ZN6Stream10readStringEv, .-_ZN6Stream10readStringEv
 1355              		.section	.text._ZN6Stream15readStringUntilEc,"ax",%progbits
 1356              		.align	2
 1357              		.global	_ZN6Stream15readStringUntilEc
 1358              		.thumb
 1359              		.thumb_func
 1360              		.type	_ZN6Stream15readStringUntilEc, %function
 1361              	_ZN6Stream15readStringUntilEc:
 1362              		.fnstart
 1363              	.LFB162:
 258:core/Stream.cpp **** 
 259:core/Stream.cpp **** String Stream::readStringUntil(char terminator)
 260:core/Stream.cpp **** {
 1364              		.loc 2 260 0
 1365              		.cfi_startproc
 1366              		.cfi_personality 0,__gxx_personality_v0
 1367              		.cfi_lsda 0,.LLSDA162
 1368              		@ args = 0, pretend = 0, frame = 24
 1369              		@ frame_needed = 1, uses_anonymous_args = 0
 1370 0000 80B5     		push	{r7, lr}
 1371              		.save {r7, lr}
 1372              		.cfi_def_cfa_offset 8
 1373              		.cfi_offset 7, -8
 1374              		.cfi_offset 14, -4
 1375              		.pad #24
 1376 0002 86B0     		sub	sp, sp, #24
 1377              		.cfi_def_cfa_offset 32
 1378              		.setfp r7, sp, #0
 1379 0004 00AF     		add	r7, sp, #0
 1380              		.cfi_def_cfa_register 7
 1381 0006 F860     		str	r0, [r7, #12]
 1382 0008 B960     		str	r1, [r7, #8]
 1383 000a 1346     		mov	r3, r2
ARM GAS  C:\Users\Bruger\AppData\Local\Temp\ccFtAoMj.s 			page 32


 1384 000c FB71     		strb	r3, [r7, #7]
 1385              	.LBB13:
 261:core/Stream.cpp ****   String ret;
 1386              		.loc 2 261 0
 1387 000e F868     		ldr	r0, [r7, #12]
 1388 0010 1249     		ldr	r1, .L86
 1389              	.LEHB3:
 1390 0012 FFF7FEFF 		bl	_ZN6StringC1EPKc
 1391              	.LEHE3:
 262:core/Stream.cpp ****   int c = timedRead();
 1392              		.loc 2 262 0
 1393 0016 B868     		ldr	r0, [r7, #8]
 1394              	.LEHB4:
 1395 0018 FFF7FEFF 		bl	_ZN6Stream9timedReadEv
 1396 001c 0346     		mov	r3, r0
 1397 001e 7B61     		str	r3, [r7, #20]
 263:core/Stream.cpp ****   while (c >= 0 && c != terminator)
 1398              		.loc 2 263 0
 1399 0020 0AE0     		b	.L79
 1400              	.L81:
 264:core/Stream.cpp ****   {
 265:core/Stream.cpp ****     ret += (char)c;
 1401              		.loc 2 265 0
 1402 0022 7B69     		ldr	r3, [r7, #20]
 1403 0024 DBB2     		uxtb	r3, r3
 1404 0026 F868     		ldr	r0, [r7, #12]
 1405 0028 1946     		mov	r1, r3
 1406 002a FFF7FEFF 		bl	_ZN6StringpLEc
 266:core/Stream.cpp ****     c = timedRead();
 1407              		.loc 2 266 0
 1408 002e B868     		ldr	r0, [r7, #8]
 1409 0030 FFF7FEFF 		bl	_ZN6Stream9timedReadEv
 1410              	.LEHE4:
 1411 0034 0346     		mov	r3, r0
 1412 0036 7B61     		str	r3, [r7, #20]
 1413              	.L79:
 263:core/Stream.cpp ****   while (c >= 0 && c != terminator)
 1414              		.loc 2 263 0
 1415 0038 7B69     		ldr	r3, [r7, #20]
 1416 003a 002B     		cmp	r3, #0
 1417 003c 03DB     		blt	.L80
 263:core/Stream.cpp ****   while (c >= 0 && c != terminator)
 1418              		.loc 2 263 0 is_stmt 0 discriminator 1
 1419 003e FA79     		ldrb	r2, [r7, #7]	@ zero_extendqisi2
 1420 0040 7B69     		ldr	r3, [r7, #20]
 1421 0042 9A42     		cmp	r2, r3
 1422 0044 EDD1     		bne	.L81
 1423              	.L80:
 267:core/Stream.cpp ****   }
 268:core/Stream.cpp ****   return ret;
 1424              		.loc 2 268 0 is_stmt 1
 1425 0046 04E0     		b	.L85
 1426              	.L84:
 1427 0048 F868     		ldr	r0, [r7, #12]
 1428 004a FFF7FEFF 		bl	_ZN6StringD1Ev
 1429              	.LEHB5:
 1430 004e FFF7FEFF 		bl	__cxa_end_cleanup
ARM GAS  C:\Users\Bruger\AppData\Local\Temp\ccFtAoMj.s 			page 33


 1431              	.LEHE5:
 1432              	.L85:
 1433              	.LBE13:
 269:core/Stream.cpp **** }
 1434              		.loc 2 269 0
 1435 0052 F868     		ldr	r0, [r7, #12]
 1436 0054 1837     		adds	r7, r7, #24
 1437              		.cfi_def_cfa_offset 8
 1438 0056 BD46     		mov	sp, r7
 1439              		.cfi_def_cfa_register 13
 1440              		@ sp needed
 1441 0058 80BD     		pop	{r7, pc}
 1442              	.L87:
 1443 005a 00BF     		.align	2
 1444              	.L86:
 1445 005c 00000000 		.word	.LC0
 1446              		.cfi_endproc
 1447              	.LFE162:
 1448              		.personality	__gxx_personality_v0
 1449              		.handlerdata
 1450              	.LLSDA162:
 1451 000c FF       		.byte	0xff
 1452 000d FF       		.byte	0xff
 1453 000e 01       		.byte	0x1
 1454 000f 0C       		.uleb128 .LLSDACSE162-.LLSDACSB162
 1455              	.LLSDACSB162:
 1456 0010 12       		.uleb128 .LEHB3-.LFB162
 1457 0011 04       		.uleb128 .LEHE3-.LEHB3
 1458 0012 00       		.uleb128 0
 1459 0013 00       		.uleb128 0
 1460 0014 18       		.uleb128 .LEHB4-.LFB162
 1461 0015 1C       		.uleb128 .LEHE4-.LEHB4
 1462 0016 48       		.uleb128 .L84-.LFB162
 1463 0017 00       		.uleb128 0
 1464 0018 4E       		.uleb128 .LEHB5-.LFB162
 1465 0019 04       		.uleb128 .LEHE5-.LEHB5
 1466 001a 00       		.uleb128 0
 1467 001b 00       		.uleb128 0
 1468              	.LLSDACSE162:
 1469              		.section	.text._ZN6Stream15readStringUntilEc
 1470              		.fnend
 1471              		.size	_ZN6Stream15readStringUntilEc, .-_ZN6Stream15readStringUntilEc
 1472              		.section	.rodata
 1473              		.type	_ZL2SS, %object
 1474              		.size	_ZL2SS, 1
 1475              	_ZL2SS:
 1476 0001 0A       		.byte	10
 1477              		.type	_ZL4MOSI, %object
 1478              		.size	_ZL4MOSI, 1
 1479              	_ZL4MOSI:
 1480 0002 0B       		.byte	11
 1481              		.type	_ZL4MISO, %object
 1482              		.size	_ZL4MISO, 1
 1483              	_ZL4MISO:
 1484 0003 0C       		.byte	12
 1485              		.type	_ZL3SCK, %object
 1486              		.size	_ZL3SCK, 1
ARM GAS  C:\Users\Bruger\AppData\Local\Temp\ccFtAoMj.s 			page 34


 1487              	_ZL3SCK:
 1488 0004 0D       		.byte	13
 1489              		.type	_ZL3SDA, %object
 1490              		.size	_ZL3SDA, 1
 1491              	_ZL3SDA:
 1492 0005 15       		.byte	21
 1493              		.type	_ZL3SCL, %object
 1494              		.size	_ZL3SCL, 1
 1495              	_ZL3SCL:
 1496 0006 14       		.byte	20
 1497 0007 00       		.text
 1498              	.Letext0:
 1499              		.file 3 "c:\\program files (x86)\\cypress\\psoc creator\\4.0\\psoc creator\\import\\gnu\\arm\\4.9.
 1500              		.file 4 "c:\\program files (x86)\\cypress\\psoc creator\\4.0\\psoc creator\\import\\gnu\\arm\\4.9.
 1501              		.file 5 "c:\\program files (x86)\\cypress\\psoc creator\\4.0\\psoc creator\\import\\gnu\\arm\\4.9.
 1502              		.file 6 "core\\Print.h"
 1503              		.file 7 "core\\Stream.h"
 1504              		.file 8 ".\\core/pins_arduino.h"
 1505              		.file 9 "<built-in>"
 1506              		.file 10 "Generated_Source\\PSoC5/core_cm3.h"