ARM GAS  C:\Users\Bruger\AppData\Local\Temp\ccOx4GEO.s 			page 1


   1              		.syntax unified
   2              		.cpu cortex-m3
   3              		.fpu softvfp
   4              		.eabi_attribute 20, 1
   5              		.eabi_attribute 21, 1
   6              		.eabi_attribute 23, 3
   7              		.eabi_attribute 24, 1
   8              		.eabi_attribute 25, 1
   9              		.eabi_attribute 26, 1
  10              		.eabi_attribute 30, 6
  11              		.eabi_attribute 34, 1
  12              		.eabi_attribute 18, 4
  13              		.thumb
  14              		.file	"UARTClass.cpp"
  15              		.text
  16              	.Ltext0:
  17              		.cfi_sections	.debug_frame
  18              		.section	.text._ZN5PrintC2Ev,"axG",%progbits,_ZN5PrintC5Ev,comdat
  19              		.align	2
  20              		.weak	_ZN5PrintC2Ev
  21              		.thumb
  22              		.thumb_func
  23              		.type	_ZN5PrintC2Ev, %function
  24              	_ZN5PrintC2Ev:
  25              		.fnstart
  26              	.LFB116:
  27              		.file 1 "core\\Print.h"
   1:core/Print.h  **** /*
   2:core/Print.h  ****   Print.h - Base class that provides print() and println()
   3:core/Print.h  ****   Copyright (c) 2008 David A. Mellis.  All right reserved.
   4:core/Print.h  **** 
   5:core/Print.h  ****   This library is free software; you can redistribute it and/or
   6:core/Print.h  ****   modify it under the terms of the GNU Lesser General Public
   7:core/Print.h  ****   License as published by the Free Software Foundation; either
   8:core/Print.h  ****   version 2.1 of the License, or (at your option) any later version.
   9:core/Print.h  **** 
  10:core/Print.h  ****   This library is distributed in the hope that it will be useful,
  11:core/Print.h  ****   but WITHOUT ANY WARRANTY; without even the implied warranty of
  12:core/Print.h  ****   MERCHANTABILITY or FITNESS FOR A PARTICULAR PURPOSE.  See the GNU
  13:core/Print.h  ****   Lesser General Public License for more details.
  14:core/Print.h  **** 
  15:core/Print.h  ****   You should have received a copy of the GNU Lesser General Public
  16:core/Print.h  ****   License along with this library; if not, write to the Free Software
  17:core/Print.h  ****   Foundation, Inc., 51 Franklin St, Fifth Floor, Boston, MA  02110-1301  USA
  18:core/Print.h  **** */
  19:core/Print.h  **** 
  20:core/Print.h  **** #ifndef Print_h
  21:core/Print.h  **** #define Print_h
  22:core/Print.h  **** 
  23:core/Print.h  **** #include <inttypes.h>
  24:core/Print.h  **** #include <stdio.h> // for size_t
  25:core/Print.h  **** 
  26:core/Print.h  **** #include "WString.h"
  27:core/Print.h  **** #include "Printable.h"
  28:core/Print.h  **** 
  29:core/Print.h  **** #define DEC 10
  30:core/Print.h  **** #define HEX 16
ARM GAS  C:\Users\Bruger\AppData\Local\Temp\ccOx4GEO.s 			page 2


  31:core/Print.h  **** #define OCT 8
  32:core/Print.h  **** #define BIN 2
  33:core/Print.h  **** 
  34:core/Print.h  **** class Print
  35:core/Print.h  **** {
  36:core/Print.h  ****   private:
  37:core/Print.h  ****     int write_error;
  38:core/Print.h  ****     size_t printNumber(unsigned long, uint8_t);
  39:core/Print.h  ****     size_t printFloat(double, uint8_t);
  40:core/Print.h  ****   protected:
  41:core/Print.h  ****     void setWriteError(int err = 1) { write_error = err; }
  42:core/Print.h  ****   public:
  43:core/Print.h  ****     Print() : write_error(0) {}
  28              		.loc 1 43 0
  29              		.cfi_startproc
  30              		@ args = 0, pretend = 0, frame = 8
  31              		@ frame_needed = 1, uses_anonymous_args = 0
  32              		@ link register save eliminated.
  33 0000 80B4     		push	{r7}
  34              		.cfi_def_cfa_offset 4
  35              		.cfi_offset 7, -4
  36 0002 83B0     		sub	sp, sp, #12
  37              		.cfi_def_cfa_offset 16
  38 0004 00AF     		add	r7, sp, #0
  39              		.cfi_def_cfa_register 7
  40 0006 7860     		str	r0, [r7, #4]
  41              	.LBB2:
  42              		.loc 1 43 0
  43 0008 7B68     		ldr	r3, [r7, #4]
  44 000a 064A     		ldr	r2, .L4
  45 000c 1A60     		str	r2, [r3]
  46 000e 7B68     		ldr	r3, [r7, #4]
  47 0010 0022     		movs	r2, #0
  48 0012 5A60     		str	r2, [r3, #4]
  49              	.LBE2:
  50 0014 7B68     		ldr	r3, [r7, #4]
  51 0016 1846     		mov	r0, r3
  52 0018 0C37     		adds	r7, r7, #12
  53              		.cfi_def_cfa_offset 4
  54 001a BD46     		mov	sp, r7
  55              		.cfi_def_cfa_register 13
  56              		@ sp needed
  57 001c 5DF8047B 		ldr	r7, [sp], #4
  58              		.cfi_restore 7
  59              		.cfi_def_cfa_offset 0
  60 0020 7047     		bx	lr
  61              	.L5:
  62 0022 00BF     		.align	2
  63              	.L4:
  64 0024 08000000 		.word	_ZTV5Print+8
  65              		.cfi_endproc
  66              	.LFE116:
  67              		.cantunwind
  68              		.fnend
  69              		.size	_ZN5PrintC2Ev, .-_ZN5PrintC2Ev
  70              		.weak	_ZN5PrintC1Ev
  71              		.thumb_set _ZN5PrintC1Ev,_ZN5PrintC2Ev
ARM GAS  C:\Users\Bruger\AppData\Local\Temp\ccOx4GEO.s 			page 3


  72              		.section	.text._ZN6StreamC2Ev,"axG",%progbits,_ZN6StreamC5Ev,comdat
  73              		.align	2
  74              		.weak	_ZN6StreamC2Ev
  75              		.thumb
  76              		.thumb_func
  77              		.type	_ZN6StreamC2Ev, %function
  78              	_ZN6StreamC2Ev:
  79              		.fnstart
  80              	.LFB129:
  81              		.file 2 "core\\Stream.h"
   1:core/Stream.h **** /*
   2:core/Stream.h ****   Stream.h - base class for character-based streams.
   3:core/Stream.h ****   Copyright (c) 2010 David A. Mellis.  All right reserved.
   4:core/Stream.h **** 
   5:core/Stream.h ****   This library is free software; you can redistribute it and/or
   6:core/Stream.h ****   modify it under the terms of the GNU Lesser General Public
   7:core/Stream.h ****   License as published by the Free Software Foundation; either
   8:core/Stream.h ****   version 2.1 of the License, or (at your option) any later version.
   9:core/Stream.h **** 
  10:core/Stream.h ****   This library is distributed in the hope that it will be useful,
  11:core/Stream.h ****   but WITHOUT ANY WARRANTY; without even the implied warranty of
  12:core/Stream.h ****   MERCHANTABILITY or FITNESS FOR A PARTICULAR PURPOSE.  See the GNU
  13:core/Stream.h ****   Lesser General Public License for more details.
  14:core/Stream.h **** 
  15:core/Stream.h ****   You should have received a copy of the GNU Lesser General Public
  16:core/Stream.h ****   License along with this library; if not, write to the Free Software
  17:core/Stream.h ****   Foundation, Inc., 51 Franklin St, Fifth Floor, Boston, MA  02110-1301  USA
  18:core/Stream.h **** 
  19:core/Stream.h ****   parsing functions based on TextFinder library by Michael Margolis
  20:core/Stream.h **** */
  21:core/Stream.h **** 
  22:core/Stream.h **** #ifndef Stream_h
  23:core/Stream.h **** #define Stream_h
  24:core/Stream.h **** 
  25:core/Stream.h **** #include <inttypes.h>
  26:core/Stream.h **** #include "Print.h"
  27:core/Stream.h **** 
  28:core/Stream.h **** // compatability macros for testing
  29:core/Stream.h **** /*
  30:core/Stream.h **** #define   getInt()            parseInt()
  31:core/Stream.h **** #define   getInt(skipChar)    parseInt(skipchar)
  32:core/Stream.h **** #define   getFloat()          parseFloat()
  33:core/Stream.h **** #define   getFloat(skipChar)  parseFloat(skipChar)
  34:core/Stream.h **** #define   getString( pre_string, post_string, buffer, length)
  35:core/Stream.h **** readBytesBetween( pre_string, terminator, buffer, length)
  36:core/Stream.h **** */
  37:core/Stream.h **** 
  38:core/Stream.h **** class Stream : public Print
  39:core/Stream.h **** {
  40:core/Stream.h ****   protected:
  41:core/Stream.h ****     unsigned long _timeout;      // number of milliseconds to wait for the next char before abortin
  42:core/Stream.h ****     unsigned long _startMillis;  // used for timeout measurement
  43:core/Stream.h ****     int timedRead();    // private method to read stream with timeout
  44:core/Stream.h ****     int timedPeek();    // private method to peek stream with timeout
  45:core/Stream.h ****     int peekNextDigit(); // returns the next numeric digit in the stream or -1 if timeout
  46:core/Stream.h **** 
  47:core/Stream.h ****   public:
ARM GAS  C:\Users\Bruger\AppData\Local\Temp\ccOx4GEO.s 			page 4


  48:core/Stream.h ****     ~Stream(){}
  49:core/Stream.h ****     virtual int available() = 0;
  50:core/Stream.h ****     virtual int read() = 0;
  51:core/Stream.h ****     virtual int peek() = 0;
  52:core/Stream.h ****     virtual void flush() = 0;
  53:core/Stream.h **** 
  54:core/Stream.h ****     Stream() {_timeout=1000;}
  82              		.loc 2 54 0
  83              		.cfi_startproc
  84              		@ args = 0, pretend = 0, frame = 8
  85              		@ frame_needed = 1, uses_anonymous_args = 0
  86 0000 80B5     		push	{r7, lr}
  87              		.cfi_def_cfa_offset 8
  88              		.cfi_offset 7, -8
  89              		.cfi_offset 14, -4
  90 0002 82B0     		sub	sp, sp, #8
  91              		.cfi_def_cfa_offset 16
  92 0004 00AF     		add	r7, sp, #0
  93              		.cfi_def_cfa_register 7
  94 0006 7860     		str	r0, [r7, #4]
  95              	.LBB3:
  96              		.loc 2 54 0
  97 0008 7B68     		ldr	r3, [r7, #4]
  98 000a 1846     		mov	r0, r3
  99 000c FFF7FEFF 		bl	_ZN5PrintC2Ev
 100 0010 7B68     		ldr	r3, [r7, #4]
 101 0012 054A     		ldr	r2, .L9
 102 0014 1A60     		str	r2, [r3]
 103 0016 7B68     		ldr	r3, [r7, #4]
 104 0018 4FF47A72 		mov	r2, #1000
 105 001c 9A60     		str	r2, [r3, #8]
 106              	.LBE3:
 107 001e 7B68     		ldr	r3, [r7, #4]
 108 0020 1846     		mov	r0, r3
 109 0022 0837     		adds	r7, r7, #8
 110              		.cfi_def_cfa_offset 8
 111 0024 BD46     		mov	sp, r7
 112              		.cfi_def_cfa_register 13
 113              		@ sp needed
 114 0026 80BD     		pop	{r7, pc}
 115              	.L10:
 116              		.align	2
 117              	.L9:
 118 0028 08000000 		.word	_ZTV6Stream+8
 119              		.cfi_endproc
 120              	.LFE129:
 121              		.cantunwind
 122              		.fnend
 123              		.size	_ZN6StreamC2Ev, .-_ZN6StreamC2Ev
 124              		.weak	_ZN6StreamC1Ev
 125              		.thumb_set _ZN6StreamC1Ev,_ZN6StreamC2Ev
 126              		.section	.text._ZN14HardwareSerialC2Ev,"axG",%progbits,_ZN14HardwareSerialC5Ev,comdat
 127              		.align	2
 128              		.weak	_ZN14HardwareSerialC2Ev
 129              		.thumb
 130              		.thumb_func
 131              		.type	_ZN14HardwareSerialC2Ev, %function
ARM GAS  C:\Users\Bruger\AppData\Local\Temp\ccOx4GEO.s 			page 5


 132              	_ZN14HardwareSerialC2Ev:
 133              		.fnstart
 134              	.LFB138:
 135              		.file 3 "core\\HardwareSerial.h"
   1:core/HardwareSerial.h **** /*
   2:core/HardwareSerial.h ****   Copyright (c) 2011 Arduino.  All right reserved.
   3:core/HardwareSerial.h **** 
   4:core/HardwareSerial.h ****   This library is free software; you can redistribute it and/or
   5:core/HardwareSerial.h ****   modify it under the terms of the GNU Lesser General Public
   6:core/HardwareSerial.h ****   License as published by the Free Software Foundation; either
   7:core/HardwareSerial.h ****   version 2.1 of the License, or (at your option) any later version.
   8:core/HardwareSerial.h **** 
   9:core/HardwareSerial.h ****   This library is distributed in the hope that it will be useful,
  10:core/HardwareSerial.h ****   but WITHOUT ANY WARRANTY; without even the implied warranty of
  11:core/HardwareSerial.h ****   MERCHANTABILITY or FITNESS FOR A PARTICULAR PURPOSE. 
  12:core/HardwareSerial.h ****   See the GNU Lesser General Public License for more details.
  13:core/HardwareSerial.h **** 
  14:core/HardwareSerial.h ****   You should have received a copy of the GNU Lesser General Public
  15:core/HardwareSerial.h ****   License along with this library; if not, write to the Free Software
  16:core/HardwareSerial.h ****   Foundation, Inc., 51 Franklin St, Fifth Floor, Boston, MA  02110-1301  USA
  17:core/HardwareSerial.h **** */
  18:core/HardwareSerial.h **** 
  19:core/HardwareSerial.h **** #ifndef HardwareSerial_h
  20:core/HardwareSerial.h **** #define HardwareSerial_h
  21:core/HardwareSerial.h **** 
  22:core/HardwareSerial.h **** #include <inttypes.h>
  23:core/HardwareSerial.h **** 
  24:core/HardwareSerial.h **** #include "Stream.h"
  25:core/HardwareSerial.h **** 
  26:core/HardwareSerial.h **** class HardwareSerial : public Stream
  27:core/HardwareSerial.h **** {
  28:core/HardwareSerial.h ****   public:
  29:core/HardwareSerial.h ****     HardwareSerial(){}
 136              		.loc 3 29 0
 137              		.cfi_startproc
 138              		@ args = 0, pretend = 0, frame = 8
 139              		@ frame_needed = 1, uses_anonymous_args = 0
 140 0000 80B5     		push	{r7, lr}
 141              		.cfi_def_cfa_offset 8
 142              		.cfi_offset 7, -8
 143              		.cfi_offset 14, -4
 144 0002 82B0     		sub	sp, sp, #8
 145              		.cfi_def_cfa_offset 16
 146 0004 00AF     		add	r7, sp, #0
 147              		.cfi_def_cfa_register 7
 148 0006 7860     		str	r0, [r7, #4]
 149              	.LBB4:
 150              		.loc 3 29 0
 151 0008 7B68     		ldr	r3, [r7, #4]
 152 000a 1846     		mov	r0, r3
 153 000c FFF7FEFF 		bl	_ZN6StreamC2Ev
 154 0010 7B68     		ldr	r3, [r7, #4]
 155 0012 034A     		ldr	r2, .L14
 156 0014 1A60     		str	r2, [r3]
 157              	.LBE4:
 158 0016 7B68     		ldr	r3, [r7, #4]
 159 0018 1846     		mov	r0, r3
ARM GAS  C:\Users\Bruger\AppData\Local\Temp\ccOx4GEO.s 			page 6


 160 001a 0837     		adds	r7, r7, #8
 161              		.cfi_def_cfa_offset 8
 162 001c BD46     		mov	sp, r7
 163              		.cfi_def_cfa_register 13
 164              		@ sp needed
 165 001e 80BD     		pop	{r7, pc}
 166              	.L15:
 167              		.align	2
 168              	.L14:
 169 0020 08000000 		.word	_ZTV14HardwareSerial+8
 170              		.cfi_endproc
 171              	.LFE138:
 172              		.cantunwind
 173              		.fnend
 174              		.size	_ZN14HardwareSerialC2Ev, .-_ZN14HardwareSerialC2Ev
 175              		.weak	_ZN14HardwareSerialC1Ev
 176              		.thumb_set _ZN14HardwareSerialC1Ev,_ZN14HardwareSerialC2Ev
 177              		.section	.text._ZN9UARTClasscvbEv,"axG",%progbits,_ZN9UARTClasscvbEv,comdat
 178              		.align	2
 179              		.weak	_ZN9UARTClasscvbEv
 180              		.thumb
 181              		.thumb_func
 182              		.type	_ZN9UARTClasscvbEv, %function
 183              	_ZN9UARTClasscvbEv:
 184              		.fnstart
 185              	.LFB146:
 186              		.file 4 "core\\UARTClass.h"
   1:core/UARTClass.h **** /*
   2:core/UARTClass.h ****   Copyright (c) 2011 Arduino.  All right reserved.
   3:core/UARTClass.h **** 
   4:core/UARTClass.h ****   This library is free software; you can redistribute it and/or
   5:core/UARTClass.h ****   modify it under the terms of the GNU Lesser General Public
   6:core/UARTClass.h ****   License as published by the Free Software Foundation; either
   7:core/UARTClass.h ****   version 2.1 of the License, or (at your option) any later version.
   8:core/UARTClass.h **** 
   9:core/UARTClass.h ****   This library is distributed in the hope that it will be useful,
  10:core/UARTClass.h ****   but WITHOUT ANY WARRANTY; without even the implied warranty of
  11:core/UARTClass.h ****   MERCHANTABILITY or FITNESS FOR A PARTICULAR PURPOSE. 
  12:core/UARTClass.h ****   See the GNU Lesser General Public License for more details.
  13:core/UARTClass.h **** 
  14:core/UARTClass.h ****   You should have received a copy of the GNU Lesser General Public
  15:core/UARTClass.h ****   License along with this library; if not, write to the Free Software
  16:core/UARTClass.h ****   Foundation, Inc., 51 Franklin St, Fifth Floor, Boston, MA  02110-1301  USA
  17:core/UARTClass.h **** */
  18:core/UARTClass.h **** 
  19:core/UARTClass.h **** #ifndef _UART_CLASS_
  20:core/UARTClass.h **** #define _UART_CLASS_
  21:core/UARTClass.h **** 
  22:core/UARTClass.h **** #include "HardwareSerial.h"
  23:core/UARTClass.h **** #include <stdbool.h>
  24:core/UARTClass.h **** #include <Project.h>
  25:core/UARTClass.h **** 
  26:core/UARTClass.h **** struct SerialHelperFuncs
  27:core/UARTClass.h **** {
  28:core/UARTClass.h ****   int16_t (*bufferSize)(void);
  29:core/UARTClass.h ****   bool (*portEnable)(void);
  30:core/UARTClass.h ****   void (*portDisable)(void);
ARM GAS  C:\Users\Bruger\AppData\Local\Temp\ccOx4GEO.s 			page 7


  31:core/UARTClass.h ****   void (*clockAdjust)(uint16_t newDivider);
  32:core/UARTClass.h ****   void (*sendData)(const uint8_t* buffer, uint16_t size);
  33:core/UARTClass.h ****   uint16_t (*getData)(uint8_t* buffer, uint16_t size);
  34:core/UARTClass.h ****   char (*peekData)(void);
  35:core/UARTClass.h ****   void (*blockForWriteComplete)(void);
  36:core/UARTClass.h ****   uint8_t (*blockForReadyToWrite)(void);
  37:core/UARTClass.h **** };
  38:core/UARTClass.h ****   
  39:core/UARTClass.h **** 
  40:core/UARTClass.h **** class UARTClass : public HardwareSerial
  41:core/UARTClass.h **** {
  42:core/UARTClass.h ****   public:
  43:core/UARTClass.h ****     UARTClass(bool isUSB, SerialHelperFuncs *helpers);
  44:core/UARTClass.h ****     ~UARTClass(){}
  45:core/UARTClass.h ****     void begin(const uint32_t dwBaudRate);
  46:core/UARTClass.h ****     void end(void);
  47:core/UARTClass.h ****     int available(void);
  48:core/UARTClass.h ****     int peek(void);
  49:core/UARTClass.h ****     int read(void);
  50:core/UARTClass.h ****     void flush(void);
  51:core/UARTClass.h ****     uint8_t buffer(void);
  52:core/UARTClass.h ****     size_t write(const uint8_t c);
  53:core/UARTClass.h ****     using Print::write; // pull in write(str) and write(buf, size) from Print
  54:core/UARTClass.h **** 
  55:core/UARTClass.h ****     operator bool() { return _portIsActive; };
 187              		.loc 4 55 0
 188              		.cfi_startproc
 189              		@ args = 0, pretend = 0, frame = 8
 190              		@ frame_needed = 1, uses_anonymous_args = 0
 191              		@ link register save eliminated.
 192 0000 80B4     		push	{r7}
 193              		.cfi_def_cfa_offset 4
 194              		.cfi_offset 7, -4
 195 0002 83B0     		sub	sp, sp, #12
 196              		.cfi_def_cfa_offset 16
 197 0004 00AF     		add	r7, sp, #0
 198              		.cfi_def_cfa_register 7
 199 0006 7860     		str	r0, [r7, #4]
 200              		.loc 4 55 0
 201 0008 7B68     		ldr	r3, [r7, #4]
 202 000a 1B7E     		ldrb	r3, [r3, #24]	@ zero_extendqisi2
 203 000c 1846     		mov	r0, r3
 204 000e 0C37     		adds	r7, r7, #12
 205              		.cfi_def_cfa_offset 4
 206 0010 BD46     		mov	sp, r7
 207              		.cfi_def_cfa_register 13
 208              		@ sp needed
 209 0012 5DF8047B 		ldr	r7, [sp], #4
 210              		.cfi_restore 7
 211              		.cfi_def_cfa_offset 0
 212 0016 7047     		bx	lr
 213              		.cfi_endproc
 214              	.LFE146:
 215              		.cantunwind
 216              		.fnend
 217              		.size	_ZN9UARTClasscvbEv, .-_ZN9UARTClasscvbEv
 218              		.section	.text._ZN9UARTClassC2EbP17SerialHelperFuncs,"ax",%progbits
ARM GAS  C:\Users\Bruger\AppData\Local\Temp\ccOx4GEO.s 			page 8


 219              		.align	2
 220              		.global	_ZN9UARTClassC2EbP17SerialHelperFuncs
 221              		.thumb
 222              		.thumb_func
 223              		.type	_ZN9UARTClassC2EbP17SerialHelperFuncs, %function
 224              	_ZN9UARTClassC2EbP17SerialHelperFuncs:
 225              		.fnstart
 226              	.LFB148:
 227              		.file 5 "core\\UARTClass.cpp"
   1:core/UARTClass.cpp **** /*
   2:core/UARTClass.cpp ****   Copyright (c) 2011 Arduino.  All right reserved.
   3:core/UARTClass.cpp **** 
   4:core/UARTClass.cpp ****   This library is free software; you can redistribute it and/or
   5:core/UARTClass.cpp ****   modify it under the terms of the GNU Lesser General Public
   6:core/UARTClass.cpp ****   License as published by the Free Software Foundation; either
   7:core/UARTClass.cpp ****   version 2.1 of the License, or (at your option) any later version.
   8:core/UARTClass.cpp **** 
   9:core/UARTClass.cpp ****   This library is distributed in the hope that it will be useful,
  10:core/UARTClass.cpp ****   but WITHOUT ANY WARRANTY; without even the implied warranty of
  11:core/UARTClass.cpp ****   MERCHANTABILITY or FITNESS FOR A PARTICULAR PURPOSE.
  12:core/UARTClass.cpp ****   See the GNU Lesser General Public License for more details.
  13:core/UARTClass.cpp **** 
  14:core/UARTClass.cpp ****   You should have received a copy of the GNU Lesser General Public
  15:core/UARTClass.cpp ****   License along with this library; if not, write to the Free Software
  16:core/UARTClass.cpp ****   Foundation, Inc., 51 Franklin St, Fifth Floor, Boston, MA  02110-1301  USA
  17:core/UARTClass.cpp **** */
  18:core/UARTClass.cpp **** 
  19:core/UARTClass.cpp **** #include <stdlib.h>
  20:core/UARTClass.cpp **** #include <stdio.h>
  21:core/UARTClass.cpp **** #include <string.h>
  22:core/UARTClass.cpp **** #include "Arduino.h"
  23:core/UARTClass.cpp **** #include "UARTClass.h"
  24:core/UARTClass.cpp **** #include <Project.h>
  25:core/UARTClass.cpp **** 
  26:core/UARTClass.cpp **** // Constructors ////////////////////////////////////////////////////////////////
  27:core/UARTClass.cpp **** 
  28:core/UARTClass.cpp **** UARTClass::UARTClass(bool isUSB, SerialHelperFuncs *helpers)
 228              		.loc 5 28 0
 229              		.cfi_startproc
 230              		@ args = 0, pretend = 0, frame = 16
 231              		@ frame_needed = 1, uses_anonymous_args = 0
 232 0000 80B5     		push	{r7, lr}
 233              		.cfi_def_cfa_offset 8
 234              		.cfi_offset 7, -8
 235              		.cfi_offset 14, -4
 236 0002 84B0     		sub	sp, sp, #16
 237              		.cfi_def_cfa_offset 24
 238 0004 00AF     		add	r7, sp, #0
 239              		.cfi_def_cfa_register 7
 240 0006 F860     		str	r0, [r7, #12]
 241 0008 0B46     		mov	r3, r1
 242 000a 7A60     		str	r2, [r7, #4]
 243 000c FB72     		strb	r3, [r7, #11]
 244              	.LBB5:
 245              		.loc 5 28 0
 246 000e FB68     		ldr	r3, [r7, #12]
 247 0010 1846     		mov	r0, r3
ARM GAS  C:\Users\Bruger\AppData\Local\Temp\ccOx4GEO.s 			page 9


 248 0012 FFF7FEFF 		bl	_ZN14HardwareSerialC2Ev
 249 0016 FB68     		ldr	r3, [r7, #12]
 250 0018 114A     		ldr	r2, .L21
 251 001a 1A60     		str	r2, [r3]
  29:core/UARTClass.cpp **** {
  30:core/UARTClass.cpp ****   _isUSB = isUSB;
 252              		.loc 5 30 0
 253 001c FB68     		ldr	r3, [r7, #12]
 254 001e FA7A     		ldrb	r2, [r7, #11]
 255 0020 1A74     		strb	r2, [r3, #16]
  31:core/UARTClass.cpp ****   _myHelpers = helpers;
 256              		.loc 5 31 0
 257 0022 FB68     		ldr	r3, [r7, #12]
 258 0024 7A68     		ldr	r2, [r7, #4]
 259 0026 DA61     		str	r2, [r3, #28]
  32:core/UARTClass.cpp ****   _portIsActive = false;
 260              		.loc 5 32 0
 261 0028 FB68     		ldr	r3, [r7, #12]
 262 002a 0022     		movs	r2, #0
 263 002c 1A76     		strb	r2, [r3, #24]
  33:core/UARTClass.cpp ****   _appBuffSize = 0;
 264              		.loc 5 33 0
 265 002e FB68     		ldr	r3, [r7, #12]
 266 0030 0022     		movs	r2, #0
 267 0032 83F86020 		strb	r2, [r3, #96]
  34:core/UARTClass.cpp ****   _appBuffIndex = 0;
 268              		.loc 5 34 0
 269 0036 FB68     		ldr	r3, [r7, #12]
 270 0038 0022     		movs	r2, #0
 271 003a 83F86120 		strb	r2, [r3, #97]
  35:core/UARTClass.cpp ****   _timeout = 10;
 272              		.loc 5 35 0
 273 003e FB68     		ldr	r3, [r7, #12]
 274 0040 0A22     		movs	r2, #10
 275 0042 A3F86220 		strh	r2, [r3, #98]	@ movhi
  36:core/UARTClass.cpp ****   if (_isUSB)
 276              		.loc 5 36 0
 277 0046 FB68     		ldr	r3, [r7, #12]
 278 0048 1B7C     		ldrb	r3, [r3, #16]	@ zero_extendqisi2
 279 004a 002B     		cmp	r3, #0
 280 004c 02D0     		beq	.L19
  37:core/UARTClass.cpp ****   {
  38:core/UARTClass.cpp ****     _portIsActive = true;
 281              		.loc 5 38 0
 282 004e FB68     		ldr	r3, [r7, #12]
 283 0050 0122     		movs	r2, #1
 284 0052 1A76     		strb	r2, [r3, #24]
 285              	.L19:
 286              	.LBE5:
  39:core/UARTClass.cpp ****   }
  40:core/UARTClass.cpp **** }
 287              		.loc 5 40 0
 288 0054 FB68     		ldr	r3, [r7, #12]
 289 0056 1846     		mov	r0, r3
 290 0058 1037     		adds	r7, r7, #16
 291              		.cfi_def_cfa_offset 8
 292 005a BD46     		mov	sp, r7
ARM GAS  C:\Users\Bruger\AppData\Local\Temp\ccOx4GEO.s 			page 10


 293              		.cfi_def_cfa_register 13
 294              		@ sp needed
 295 005c 80BD     		pop	{r7, pc}
 296              	.L22:
 297 005e 00BF     		.align	2
 298              	.L21:
 299 0060 08000000 		.word	_ZTV9UARTClass+8
 300              		.cfi_endproc
 301              	.LFE148:
 302              		.cantunwind
 303              		.fnend
 304              		.size	_ZN9UARTClassC2EbP17SerialHelperFuncs, .-_ZN9UARTClassC2EbP17SerialHelperFuncs
 305              		.global	_ZN9UARTClassC1EbP17SerialHelperFuncs
 306              		.thumb_set _ZN9UARTClassC1EbP17SerialHelperFuncs,_ZN9UARTClassC2EbP17SerialHelperFuncs
 307              		.section	.text._ZN9UARTClass5beginEm,"ax",%progbits
 308              		.align	2
 309              		.global	_ZN9UARTClass5beginEm
 310              		.thumb
 311              		.thumb_func
 312              		.type	_ZN9UARTClass5beginEm, %function
 313              	_ZN9UARTClass5beginEm:
 314              		.fnstart
 315              	.LFB150:
  41:core/UARTClass.cpp **** 
  42:core/UARTClass.cpp **** // Public Methods //////////////////////////////////////////////////////////////
  43:core/UARTClass.cpp **** 
  44:core/UARTClass.cpp **** void UARTClass::begin(const uint32_t dwBaudRate)
  45:core/UARTClass.cpp **** {
 316              		.loc 5 45 0
 317              		.cfi_startproc
 318              		@ args = 0, pretend = 0, frame = 8
 319              		@ frame_needed = 1, uses_anonymous_args = 0
 320 0000 80B5     		push	{r7, lr}
 321              		.save {r7, lr}
 322              		.cfi_def_cfa_offset 8
 323              		.cfi_offset 7, -8
 324              		.cfi_offset 14, -4
 325              		.pad #8
 326 0002 82B0     		sub	sp, sp, #8
 327              		.cfi_def_cfa_offset 16
 328              		.setfp r7, sp, #0
 329 0004 00AF     		add	r7, sp, #0
 330              		.cfi_def_cfa_register 7
 331 0006 7860     		str	r0, [r7, #4]
 332 0008 3960     		str	r1, [r7]
  46:core/UARTClass.cpp ****   if (!_isUSB)
 333              		.loc 5 46 0
 334 000a 7B68     		ldr	r3, [r7, #4]
 335 000c 1B7C     		ldrb	r3, [r3, #16]	@ zero_extendqisi2
 336 000e 83F00103 		eor	r3, r3, #1
 337 0012 DBB2     		uxtb	r3, r3
 338 0014 002B     		cmp	r3, #0
 339 0016 12D0     		beq	.L23
  47:core/UARTClass.cpp ****   {
  48:core/UARTClass.cpp ****     _portIsActive = _myHelpers->portEnable();
 340              		.loc 5 48 0
 341 0018 7B68     		ldr	r3, [r7, #4]
ARM GAS  C:\Users\Bruger\AppData\Local\Temp\ccOx4GEO.s 			page 11


 342 001a DB69     		ldr	r3, [r3, #28]
 343 001c 5B68     		ldr	r3, [r3, #4]
 344 001e 9847     		blx	r3
 345 0020 0346     		mov	r3, r0
 346 0022 1A46     		mov	r2, r3
 347 0024 7B68     		ldr	r3, [r7, #4]
 348 0026 1A76     		strb	r2, [r3, #24]
  49:core/UARTClass.cpp ****     _myHelpers->clockAdjust(24000000/(8*dwBaudRate));
 349              		.loc 5 49 0
 350 0028 7B68     		ldr	r3, [r7, #4]
 351 002a DB69     		ldr	r3, [r3, #28]
 352 002c DB68     		ldr	r3, [r3, #12]
 353 002e 3A68     		ldr	r2, [r7]
 354 0030 D200     		lsls	r2, r2, #3
 355 0032 0449     		ldr	r1, .L25
 356 0034 B1FBF2F2 		udiv	r2, r1, r2
 357 0038 92B2     		uxth	r2, r2
 358 003a 1046     		mov	r0, r2
 359 003c 9847     		blx	r3
 360              	.L23:
  50:core/UARTClass.cpp ****   }
  51:core/UARTClass.cpp **** }
 361              		.loc 5 51 0
 362 003e 0837     		adds	r7, r7, #8
 363              		.cfi_def_cfa_offset 8
 364 0040 BD46     		mov	sp, r7
 365              		.cfi_def_cfa_register 13
 366              		@ sp needed
 367 0042 80BD     		pop	{r7, pc}
 368              	.L26:
 369              		.align	2
 370              	.L25:
 371 0044 00366E01 		.word	24000000
 372              		.cfi_endproc
 373              	.LFE150:
 374              		.fnend
 375              		.size	_ZN9UARTClass5beginEm, .-_ZN9UARTClass5beginEm
 376              		.section	.text._ZN9UARTClass3endEv,"ax",%progbits
 377              		.align	2
 378              		.global	_ZN9UARTClass3endEv
 379              		.thumb
 380              		.thumb_func
 381              		.type	_ZN9UARTClass3endEv, %function
 382              	_ZN9UARTClass3endEv:
 383              		.fnstart
 384              	.LFB151:
  52:core/UARTClass.cpp **** 
  53:core/UARTClass.cpp **** void UARTClass::end( void )
  54:core/UARTClass.cpp **** {
 385              		.loc 5 54 0
 386              		.cfi_startproc
 387              		@ args = 0, pretend = 0, frame = 8
 388              		@ frame_needed = 1, uses_anonymous_args = 0
 389 0000 80B5     		push	{r7, lr}
 390              		.save {r7, lr}
 391              		.cfi_def_cfa_offset 8
 392              		.cfi_offset 7, -8
ARM GAS  C:\Users\Bruger\AppData\Local\Temp\ccOx4GEO.s 			page 12


 393              		.cfi_offset 14, -4
 394              		.pad #8
 395 0002 82B0     		sub	sp, sp, #8
 396              		.cfi_def_cfa_offset 16
 397              		.setfp r7, sp, #0
 398 0004 00AF     		add	r7, sp, #0
 399              		.cfi_def_cfa_register 7
 400 0006 7860     		str	r0, [r7, #4]
  55:core/UARTClass.cpp ****   if (!_isUSB)
 401              		.loc 5 55 0
 402 0008 7B68     		ldr	r3, [r7, #4]
 403 000a 1B7C     		ldrb	r3, [r3, #16]	@ zero_extendqisi2
 404 000c 83F00103 		eor	r3, r3, #1
 405 0010 DBB2     		uxtb	r3, r3
 406 0012 002B     		cmp	r3, #0
 407 0014 06D0     		beq	.L27
  56:core/UARTClass.cpp ****   {
  57:core/UARTClass.cpp ****     _portIsActive = false;
 408              		.loc 5 57 0
 409 0016 7B68     		ldr	r3, [r7, #4]
 410 0018 0022     		movs	r2, #0
 411 001a 1A76     		strb	r2, [r3, #24]
  58:core/UARTClass.cpp ****     _myHelpers->portDisable();
 412              		.loc 5 58 0
 413 001c 7B68     		ldr	r3, [r7, #4]
 414 001e DB69     		ldr	r3, [r3, #28]
 415 0020 9B68     		ldr	r3, [r3, #8]
 416 0022 9847     		blx	r3
 417              	.L27:
  59:core/UARTClass.cpp ****   }
  60:core/UARTClass.cpp **** }
 418              		.loc 5 60 0
 419 0024 0837     		adds	r7, r7, #8
 420              		.cfi_def_cfa_offset 8
 421 0026 BD46     		mov	sp, r7
 422              		.cfi_def_cfa_register 13
 423              		@ sp needed
 424 0028 80BD     		pop	{r7, pc}
 425              		.cfi_endproc
 426              	.LFE151:
 427              		.fnend
 428              		.size	_ZN9UARTClass3endEv, .-_ZN9UARTClass3endEv
 429 002a 00BF     		.section	.text._ZN9UARTClass9availableEv,"ax",%progbits
 430              		.align	2
 431              		.global	_ZN9UARTClass9availableEv
 432              		.thumb
 433              		.thumb_func
 434              		.type	_ZN9UARTClass9availableEv, %function
 435              	_ZN9UARTClass9availableEv:
 436              		.fnstart
 437              	.LFB152:
  61:core/UARTClass.cpp **** 
  62:core/UARTClass.cpp **** int UARTClass::available( void )
  63:core/UARTClass.cpp **** {
 438              		.loc 5 63 0
 439              		.cfi_startproc
 440              		@ args = 0, pretend = 0, frame = 8
ARM GAS  C:\Users\Bruger\AppData\Local\Temp\ccOx4GEO.s 			page 13


 441              		@ frame_needed = 1, uses_anonymous_args = 0
 442 0000 80B5     		push	{r7, lr}
 443              		.save {r7, lr}
 444              		.cfi_def_cfa_offset 8
 445              		.cfi_offset 7, -8
 446              		.cfi_offset 14, -4
 447              		.pad #8
 448 0002 82B0     		sub	sp, sp, #8
 449              		.cfi_def_cfa_offset 16
 450              		.setfp r7, sp, #0
 451 0004 00AF     		add	r7, sp, #0
 452              		.cfi_def_cfa_register 7
 453 0006 7860     		str	r0, [r7, #4]
  64:core/UARTClass.cpp ****   buffer();
 454              		.loc 5 64 0
 455 0008 7868     		ldr	r0, [r7, #4]
 456 000a FFF7FEFF 		bl	_ZN9UARTClass6bufferEv
  65:core/UARTClass.cpp ****   return _appBuffSize;
 457              		.loc 5 65 0
 458 000e 7B68     		ldr	r3, [r7, #4]
 459 0010 93F86030 		ldrb	r3, [r3, #96]	@ zero_extendqisi2
 460 0014 5BB2     		sxtb	r3, r3
  66:core/UARTClass.cpp **** }
 461              		.loc 5 66 0
 462 0016 1846     		mov	r0, r3
 463 0018 0837     		adds	r7, r7, #8
 464              		.cfi_def_cfa_offset 8
 465 001a BD46     		mov	sp, r7
 466              		.cfi_def_cfa_register 13
 467              		@ sp needed
 468 001c 80BD     		pop	{r7, pc}
 469              		.cfi_endproc
 470              	.LFE152:
 471              		.fnend
 472              		.size	_ZN9UARTClass9availableEv, .-_ZN9UARTClass9availableEv
 473 001e 00BF     		.section	.text._ZN9UARTClass4peekEv,"ax",%progbits
 474              		.align	2
 475              		.global	_ZN9UARTClass4peekEv
 476              		.thumb
 477              		.thumb_func
 478              		.type	_ZN9UARTClass4peekEv, %function
 479              	_ZN9UARTClass4peekEv:
 480              		.fnstart
 481              	.LFB153:
  67:core/UARTClass.cpp **** 
  68:core/UARTClass.cpp **** int UARTClass::peek( void )
  69:core/UARTClass.cpp **** {
 482              		.loc 5 69 0
 483              		.cfi_startproc
 484              		@ args = 0, pretend = 0, frame = 8
 485              		@ frame_needed = 1, uses_anonymous_args = 0
 486 0000 80B5     		push	{r7, lr}
 487              		.save {r7, lr}
 488              		.cfi_def_cfa_offset 8
 489              		.cfi_offset 7, -8
 490              		.cfi_offset 14, -4
 491              		.pad #8
ARM GAS  C:\Users\Bruger\AppData\Local\Temp\ccOx4GEO.s 			page 14


 492 0002 82B0     		sub	sp, sp, #8
 493              		.cfi_def_cfa_offset 16
 494              		.setfp r7, sp, #0
 495 0004 00AF     		add	r7, sp, #0
 496              		.cfi_def_cfa_register 7
 497 0006 7860     		str	r0, [r7, #4]
  70:core/UARTClass.cpp ****   buffer();
 498              		.loc 5 70 0
 499 0008 7868     		ldr	r0, [r7, #4]
 500 000a FFF7FEFF 		bl	_ZN9UARTClass6bufferEv
  71:core/UARTClass.cpp ****   if (_appBuffSize > 0)
 501              		.loc 5 71 0
 502 000e 7B68     		ldr	r3, [r7, #4]
 503 0010 93F86030 		ldrb	r3, [r3, #96]	@ zero_extendqisi2
 504 0014 5BB2     		sxtb	r3, r3
 505 0016 002B     		cmp	r3, #0
 506 0018 08DD     		ble	.L32
  72:core/UARTClass.cpp ****   {
  73:core/UARTClass.cpp ****     return _appBuffer[_appBuffIndex];
 507              		.loc 5 73 0
 508 001a 7B68     		ldr	r3, [r7, #4]
 509 001c 93F86130 		ldrb	r3, [r3, #97]	@ zero_extendqisi2
 510 0020 5BB2     		sxtb	r3, r3
 511 0022 7A68     		ldr	r2, [r7, #4]
 512 0024 1344     		add	r3, r3, r2
 513 0026 93F82030 		ldrb	r3, [r3, #32]	@ zero_extendqisi2
 514 002a 01E0     		b	.L33
 515              	.L32:
  74:core/UARTClass.cpp ****   }
  75:core/UARTClass.cpp ****   else
  76:core/UARTClass.cpp ****   {
  77:core/UARTClass.cpp ****     return -1;
 516              		.loc 5 77 0
 517 002c 4FF0FF33 		mov	r3, #-1
 518              	.L33:
  78:core/UARTClass.cpp ****   }
  79:core/UARTClass.cpp **** }
 519              		.loc 5 79 0
 520 0030 1846     		mov	r0, r3
 521 0032 0837     		adds	r7, r7, #8
 522              		.cfi_def_cfa_offset 8
 523 0034 BD46     		mov	sp, r7
 524              		.cfi_def_cfa_register 13
 525              		@ sp needed
 526 0036 80BD     		pop	{r7, pc}
 527              		.cfi_endproc
 528              	.LFE153:
 529              		.fnend
 530              		.size	_ZN9UARTClass4peekEv, .-_ZN9UARTClass4peekEv
 531              		.section	.text._ZN9UARTClass4readEv,"ax",%progbits
 532              		.align	2
 533              		.global	_ZN9UARTClass4readEv
 534              		.thumb
 535              		.thumb_func
 536              		.type	_ZN9UARTClass4readEv, %function
 537              	_ZN9UARTClass4readEv:
 538              		.fnstart
ARM GAS  C:\Users\Bruger\AppData\Local\Temp\ccOx4GEO.s 			page 15


 539              	.LFB154:
  80:core/UARTClass.cpp **** 
  81:core/UARTClass.cpp **** int UARTClass::read( void )
  82:core/UARTClass.cpp **** {
 540              		.loc 5 82 0
 541              		.cfi_startproc
 542              		@ args = 0, pretend = 0, frame = 16
 543              		@ frame_needed = 1, uses_anonymous_args = 0
 544 0000 80B5     		push	{r7, lr}
 545              		.save {r7, lr}
 546              		.cfi_def_cfa_offset 8
 547              		.cfi_offset 7, -8
 548              		.cfi_offset 14, -4
 549              		.pad #16
 550 0002 84B0     		sub	sp, sp, #16
 551              		.cfi_def_cfa_offset 24
 552              		.setfp r7, sp, #0
 553 0004 00AF     		add	r7, sp, #0
 554              		.cfi_def_cfa_register 7
 555 0006 7860     		str	r0, [r7, #4]
 556              	.LBB6:
  83:core/UARTClass.cpp ****   buffer();
 557              		.loc 5 83 0
 558 0008 7868     		ldr	r0, [r7, #4]
 559 000a FFF7FEFF 		bl	_ZN9UARTClass6bufferEv
 560              	.LBB7:
  84:core/UARTClass.cpp ****   if (_appBuffSize > 0)
 561              		.loc 5 84 0
 562 000e 7B68     		ldr	r3, [r7, #4]
 563 0010 93F86030 		ldrb	r3, [r3, #96]	@ zero_extendqisi2
 564 0014 5BB2     		sxtb	r3, r3
 565 0016 002B     		cmp	r3, #0
 566 0018 24DD     		ble	.L35
 567              	.LBB8:
  85:core/UARTClass.cpp ****   {
  86:core/UARTClass.cpp ****     int temp = _appBuffer[_appBuffIndex++];
 568              		.loc 5 86 0
 569 001a 7B68     		ldr	r3, [r7, #4]
 570 001c 93F86130 		ldrb	r3, [r3, #97]	@ zero_extendqisi2
 571 0020 DBB2     		uxtb	r3, r3
 572 0022 DAB2     		uxtb	r2, r3
 573 0024 0132     		adds	r2, r2, #1
 574 0026 D2B2     		uxtb	r2, r2
 575 0028 D1B2     		uxtb	r1, r2
 576 002a 7A68     		ldr	r2, [r7, #4]
 577 002c 82F86110 		strb	r1, [r2, #97]
 578 0030 5BB2     		sxtb	r3, r3
 579 0032 7A68     		ldr	r2, [r7, #4]
 580 0034 1344     		add	r3, r3, r2
 581 0036 93F82030 		ldrb	r3, [r3, #32]	@ zero_extendqisi2
 582 003a FB60     		str	r3, [r7, #12]
  87:core/UARTClass.cpp ****     if (_appBuffIndex == _appBuffSize)
 583              		.loc 5 87 0
 584 003c 7B68     		ldr	r3, [r7, #4]
 585 003e 93F86120 		ldrb	r2, [r3, #97]	@ zero_extendqisi2
 586 0042 7B68     		ldr	r3, [r7, #4]
 587 0044 93F86030 		ldrb	r3, [r3, #96]	@ zero_extendqisi2
ARM GAS  C:\Users\Bruger\AppData\Local\Temp\ccOx4GEO.s 			page 16


 588 0048 52B2     		sxtb	r2, r2
 589 004a 5BB2     		sxtb	r3, r3
 590 004c 9A42     		cmp	r2, r3
 591 004e 07D1     		bne	.L36
  88:core/UARTClass.cpp ****     {
  89:core/UARTClass.cpp ****       _appBuffIndex = 0;
 592              		.loc 5 89 0
 593 0050 7B68     		ldr	r3, [r7, #4]
 594 0052 0022     		movs	r2, #0
 595 0054 83F86120 		strb	r2, [r3, #97]
  90:core/UARTClass.cpp ****       _appBuffSize = 0;
 596              		.loc 5 90 0
 597 0058 7B68     		ldr	r3, [r7, #4]
 598 005a 0022     		movs	r2, #0
 599 005c 83F86020 		strb	r2, [r3, #96]
 600              	.L36:
  91:core/UARTClass.cpp ****     }
  92:core/UARTClass.cpp ****     return temp;
 601              		.loc 5 92 0
 602 0060 FB68     		ldr	r3, [r7, #12]
 603 0062 01E0     		b	.L37
 604              	.L35:
 605              	.LBE8:
  93:core/UARTClass.cpp ****   }
  94:core/UARTClass.cpp ****   else
  95:core/UARTClass.cpp ****   {
  96:core/UARTClass.cpp ****     return -1;
 606              		.loc 5 96 0
 607 0064 4FF0FF33 		mov	r3, #-1
 608              	.L37:
 609              	.LBE7:
 610              	.LBE6:
  97:core/UARTClass.cpp ****   }
  98:core/UARTClass.cpp **** }
 611              		.loc 5 98 0
 612 0068 1846     		mov	r0, r3
 613 006a 1037     		adds	r7, r7, #16
 614              		.cfi_def_cfa_offset 8
 615 006c BD46     		mov	sp, r7
 616              		.cfi_def_cfa_register 13
 617              		@ sp needed
 618 006e 80BD     		pop	{r7, pc}
 619              		.cfi_endproc
 620              	.LFE154:
 621              		.fnend
 622              		.size	_ZN9UARTClass4readEv, .-_ZN9UARTClass4readEv
 623              		.section	.text._ZN9UARTClass5flushEv,"ax",%progbits
 624              		.align	2
 625              		.global	_ZN9UARTClass5flushEv
 626              		.thumb
 627              		.thumb_func
 628              		.type	_ZN9UARTClass5flushEv, %function
 629              	_ZN9UARTClass5flushEv:
 630              		.fnstart
 631              	.LFB155:
  99:core/UARTClass.cpp **** 
 100:core/UARTClass.cpp **** void UARTClass::flush( void )
ARM GAS  C:\Users\Bruger\AppData\Local\Temp\ccOx4GEO.s 			page 17


 101:core/UARTClass.cpp **** {
 632              		.loc 5 101 0
 633              		.cfi_startproc
 634              		@ args = 0, pretend = 0, frame = 8
 635              		@ frame_needed = 1, uses_anonymous_args = 0
 636 0000 80B5     		push	{r7, lr}
 637              		.save {r7, lr}
 638              		.cfi_def_cfa_offset 8
 639              		.cfi_offset 7, -8
 640              		.cfi_offset 14, -4
 641              		.pad #8
 642 0002 82B0     		sub	sp, sp, #8
 643              		.cfi_def_cfa_offset 16
 644              		.setfp r7, sp, #0
 645 0004 00AF     		add	r7, sp, #0
 646              		.cfi_def_cfa_register 7
 647 0006 7860     		str	r0, [r7, #4]
 102:core/UARTClass.cpp ****   if (!_isUSB)
 648              		.loc 5 102 0
 649 0008 7B68     		ldr	r3, [r7, #4]
 650 000a 1B7C     		ldrb	r3, [r3, #16]	@ zero_extendqisi2
 651 000c 83F00103 		eor	r3, r3, #1
 652 0010 DBB2     		uxtb	r3, r3
 653 0012 002B     		cmp	r3, #0
 654 0014 03D0     		beq	.L38
 103:core/UARTClass.cpp ****   {
 104:core/UARTClass.cpp ****     _myHelpers->blockForWriteComplete();
 655              		.loc 5 104 0
 656 0016 7B68     		ldr	r3, [r7, #4]
 657 0018 DB69     		ldr	r3, [r3, #28]
 658 001a DB69     		ldr	r3, [r3, #28]
 659 001c 9847     		blx	r3
 660              	.L38:
 105:core/UARTClass.cpp ****   }
 106:core/UARTClass.cpp **** }
 661              		.loc 5 106 0
 662 001e 0837     		adds	r7, r7, #8
 663              		.cfi_def_cfa_offset 8
 664 0020 BD46     		mov	sp, r7
 665              		.cfi_def_cfa_register 13
 666              		@ sp needed
 667 0022 80BD     		pop	{r7, pc}
 668              		.cfi_endproc
 669              	.LFE155:
 670              		.fnend
 671              		.size	_ZN9UARTClass5flushEv, .-_ZN9UARTClass5flushEv
 672              		.section	.text._ZN9UARTClass6bufferEv,"ax",%progbits
 673              		.align	2
 674              		.global	_ZN9UARTClass6bufferEv
 675              		.thumb
 676              		.thumb_func
 677              		.type	_ZN9UARTClass6bufferEv, %function
 678              	_ZN9UARTClass6bufferEv:
 679              		.fnstart
 680              	.LFB156:
 107:core/UARTClass.cpp **** 
 108:core/UARTClass.cpp **** uint8_t UARTClass::buffer(void)
ARM GAS  C:\Users\Bruger\AppData\Local\Temp\ccOx4GEO.s 			page 18


 109:core/UARTClass.cpp **** {
 681              		.loc 5 109 0
 682              		.cfi_startproc
 683              		@ args = 0, pretend = 0, frame = 16
 684              		@ frame_needed = 1, uses_anonymous_args = 0
 685 0000 80B5     		push	{r7, lr}
 686              		.save {r7, lr}
 687              		.cfi_def_cfa_offset 8
 688              		.cfi_offset 7, -8
 689              		.cfi_offset 14, -4
 690              		.pad #16
 691 0002 84B0     		sub	sp, sp, #16
 692              		.cfi_def_cfa_offset 24
 693              		.setfp r7, sp, #0
 694 0004 00AF     		add	r7, sp, #0
 695              		.cfi_def_cfa_register 7
 696 0006 7860     		str	r0, [r7, #4]
 697              	.LBB9:
 110:core/UARTClass.cpp ****   uint8_t dataBufferSize = _myHelpers->bufferSize();
 698              		.loc 5 110 0
 699 0008 7B68     		ldr	r3, [r7, #4]
 700 000a DB69     		ldr	r3, [r3, #28]
 701 000c 1B68     		ldr	r3, [r3]
 702 000e 9847     		blx	r3
 703 0010 0346     		mov	r3, r0
 704 0012 9BB2     		uxth	r3, r3
 705 0014 FB73     		strb	r3, [r7, #15]
 111:core/UARTClass.cpp **** 
 112:core/UARTClass.cpp ****   if (dataBufferSize > 0)
 706              		.loc 5 112 0
 707 0016 FB7B     		ldrb	r3, [r7, #15]	@ zero_extendqisi2
 708 0018 002B     		cmp	r3, #0
 709 001a 19D0     		beq	.L41
 113:core/UARTClass.cpp ****   {
 114:core/UARTClass.cpp ****     _myHelpers->getData((_appBuffer+_appBuffSize), dataBufferSize);
 710              		.loc 5 114 0
 711 001c 7B68     		ldr	r3, [r7, #4]
 712 001e DB69     		ldr	r3, [r3, #28]
 713 0020 5B69     		ldr	r3, [r3, #20]
 714 0022 7A68     		ldr	r2, [r7, #4]
 715 0024 92F86020 		ldrb	r2, [r2, #96]	@ zero_extendqisi2
 716 0028 52B2     		sxtb	r2, r2
 717 002a 2032     		adds	r2, r2, #32
 718 002c 7968     		ldr	r1, [r7, #4]
 719 002e 1144     		add	r1, r1, r2
 720 0030 FA7B     		ldrb	r2, [r7, #15]	@ zero_extendqisi2
 721 0032 92B2     		uxth	r2, r2
 722 0034 0846     		mov	r0, r1
 723 0036 1146     		mov	r1, r2
 724 0038 9847     		blx	r3
 115:core/UARTClass.cpp ****     _appBuffSize += dataBufferSize;
 725              		.loc 5 115 0
 726 003a 7B68     		ldr	r3, [r7, #4]
 727 003c 93F86030 		ldrb	r3, [r3, #96]	@ zero_extendqisi2
 728 0040 DAB2     		uxtb	r2, r3
 729 0042 FB7B     		ldrb	r3, [r7, #15]
 730 0044 1344     		add	r3, r3, r2
ARM GAS  C:\Users\Bruger\AppData\Local\Temp\ccOx4GEO.s 			page 19


 731 0046 DBB2     		uxtb	r3, r3
 732 0048 DAB2     		uxtb	r2, r3
 733 004a 7B68     		ldr	r3, [r7, #4]
 734 004c 83F86020 		strb	r2, [r3, #96]
 735              	.L41:
 116:core/UARTClass.cpp ****   }
 117:core/UARTClass.cpp ****   return dataBufferSize;
 736              		.loc 5 117 0
 737 0050 FB7B     		ldrb	r3, [r7, #15]	@ zero_extendqisi2
 738              	.LBE9:
 118:core/UARTClass.cpp **** }
 739              		.loc 5 118 0
 740 0052 1846     		mov	r0, r3
 741 0054 1037     		adds	r7, r7, #16
 742              		.cfi_def_cfa_offset 8
 743 0056 BD46     		mov	sp, r7
 744              		.cfi_def_cfa_register 13
 745              		@ sp needed
 746 0058 80BD     		pop	{r7, pc}
 747              		.cfi_endproc
 748              	.LFE156:
 749              		.fnend
 750              		.size	_ZN9UARTClass6bufferEv, .-_ZN9UARTClass6bufferEv
 751 005a 00BF     		.section	.text._ZN9UARTClass5writeEh,"ax",%progbits
 752              		.align	2
 753              		.global	_ZN9UARTClass5writeEh
 754              		.thumb
 755              		.thumb_func
 756              		.type	_ZN9UARTClass5writeEh, %function
 757              	_ZN9UARTClass5writeEh:
 758              		.fnstart
 759              	.LFB157:
 119:core/UARTClass.cpp **** 
 120:core/UARTClass.cpp **** size_t UARTClass::write( const uint8_t uc_data )
 121:core/UARTClass.cpp **** {
 760              		.loc 5 121 0
 761              		.cfi_startproc
 762              		@ args = 0, pretend = 0, frame = 8
 763              		@ frame_needed = 1, uses_anonymous_args = 0
 764 0000 80B5     		push	{r7, lr}
 765              		.save {r7, lr}
 766              		.cfi_def_cfa_offset 8
 767              		.cfi_offset 7, -8
 768              		.cfi_offset 14, -4
 769              		.pad #8
 770 0002 82B0     		sub	sp, sp, #8
 771              		.cfi_def_cfa_offset 16
 772              		.setfp r7, sp, #0
 773 0004 00AF     		add	r7, sp, #0
 774              		.cfi_def_cfa_register 7
 775 0006 7860     		str	r0, [r7, #4]
 776 0008 0B46     		mov	r3, r1
 777 000a FB70     		strb	r3, [r7, #3]
 122:core/UARTClass.cpp ****   if (!_portIsActive) return 0;
 778              		.loc 5 122 0
 779 000c 7B68     		ldr	r3, [r7, #4]
 780 000e 1B7E     		ldrb	r3, [r3, #24]	@ zero_extendqisi2
ARM GAS  C:\Users\Bruger\AppData\Local\Temp\ccOx4GEO.s 			page 20


 781 0010 83F00103 		eor	r3, r3, #1
 782 0014 DBB2     		uxtb	r3, r3
 783 0016 002B     		cmp	r3, #0
 784 0018 01D0     		beq	.L44
 785              		.loc 5 122 0 is_stmt 0 discriminator 1
 786 001a 0023     		movs	r3, #0
 787 001c 14E0     		b	.L45
 788              	.L44:
 123:core/UARTClass.cpp ****   while (_myHelpers->blockForReadyToWrite() == 0)
 789              		.loc 5 123 0 is_stmt 1
 790 001e 00BF     		nop
 791              	.L46:
 792              		.loc 5 123 0 is_stmt 0 discriminator 1
 793 0020 7B68     		ldr	r3, [r7, #4]
 794 0022 DB69     		ldr	r3, [r3, #28]
 795 0024 1B6A     		ldr	r3, [r3, #32]
 796 0026 9847     		blx	r3
 797 0028 0346     		mov	r3, r0
 798 002a 002B     		cmp	r3, #0
 799 002c 0CBF     		ite	eq
 800 002e 0123     		moveq	r3, #1
 801 0030 0023     		movne	r3, #0
 802 0032 DBB2     		uxtb	r3, r3
 803 0034 002B     		cmp	r3, #0
 804 0036 F3D1     		bne	.L46
 124:core/UARTClass.cpp ****   { /* wait for the port to be ready */  }
 125:core/UARTClass.cpp ****   _myHelpers->sendData(const_cast<uint8_t*>(&uc_data), 1);
 805              		.loc 5 125 0 is_stmt 1
 806 0038 7B68     		ldr	r3, [r7, #4]
 807 003a DB69     		ldr	r3, [r3, #28]
 808 003c 1B69     		ldr	r3, [r3, #16]
 809 003e FA1C     		adds	r2, r7, #3
 810 0040 1046     		mov	r0, r2
 811 0042 0121     		movs	r1, #1
 812 0044 9847     		blx	r3
 126:core/UARTClass.cpp ****   return 1;
 813              		.loc 5 126 0
 814 0046 0123     		movs	r3, #1
 815              	.L45:
 127:core/UARTClass.cpp **** }
 816              		.loc 5 127 0
 817 0048 1846     		mov	r0, r3
 818 004a 0837     		adds	r7, r7, #8
 819              		.cfi_def_cfa_offset 8
 820 004c BD46     		mov	sp, r7
 821              		.cfi_def_cfa_register 13
 822              		@ sp needed
 823 004e 80BD     		pop	{r7, pc}
 824              		.cfi_endproc
 825              	.LFE157:
 826              		.fnend
 827              		.size	_ZN9UARTClass5writeEh, .-_ZN9UARTClass5writeEh
 828              		.global	_ZTV9UARTClass
 829              		.section	.rodata
 830              		.align	3
 831              		.type	_ZTV9UARTClass, %object
 832              		.size	_ZTV9UARTClass, 44
ARM GAS  C:\Users\Bruger\AppData\Local\Temp\ccOx4GEO.s 			page 21


 833              	_ZTV9UARTClass:
 834 0000 00000000 		.word	0
 835 0004 00000000 		.word	_ZTI9UARTClass
 836 0008 00000000 		.word	_ZN9UARTClass5writeEh
 837 000c 00000000 		.word	_ZN5Print5writeEPKhj
 838 0010 00000000 		.word	_ZN9UARTClass9availableEv
 839 0014 00000000 		.word	_ZN9UARTClass4readEv
 840 0018 00000000 		.word	_ZN9UARTClass4peekEv
 841 001c 00000000 		.word	_ZN9UARTClass5flushEv
 842 0020 00000000 		.word	_ZN9UARTClass5beginEm
 843 0024 00000000 		.word	_ZN9UARTClass3endEv
 844 0028 00000000 		.word	_ZN9UARTClasscvbEv
 845              		.weak	_ZTV14HardwareSerial
 846              		.section	.rodata._ZTV14HardwareSerial,"aG",%progbits,_ZTV14HardwareSerial,comdat
 847              		.align	3
 848              		.type	_ZTV14HardwareSerial, %object
 849              		.size	_ZTV14HardwareSerial, 44
 850              	_ZTV14HardwareSerial:
 851 0000 00000000 		.word	0
 852 0004 00000000 		.word	_ZTI14HardwareSerial
 853 0008 00000000 		.word	__cxa_pure_virtual
 854 000c 00000000 		.word	_ZN5Print5writeEPKhj
 855 0010 00000000 		.word	__cxa_pure_virtual
 856 0014 00000000 		.word	__cxa_pure_virtual
 857 0018 00000000 		.word	__cxa_pure_virtual
 858 001c 00000000 		.word	__cxa_pure_virtual
 859 0020 00000000 		.word	__cxa_pure_virtual
 860 0024 00000000 		.word	__cxa_pure_virtual
 861 0028 00000000 		.word	__cxa_pure_virtual
 862              		.weak	_ZTV6Stream
 863 002c 00000000 		.section	.rodata._ZTV6Stream,"aG",%progbits,_ZTV6Stream,comdat
 864              		.align	3
 865              		.type	_ZTV6Stream, %object
 866              		.size	_ZTV6Stream, 32
 867              	_ZTV6Stream:
 868 0000 00000000 		.word	0
 869 0004 00000000 		.word	_ZTI6Stream
 870 0008 00000000 		.word	__cxa_pure_virtual
 871 000c 00000000 		.word	_ZN5Print5writeEPKhj
 872 0010 00000000 		.word	__cxa_pure_virtual
 873 0014 00000000 		.word	__cxa_pure_virtual
 874 0018 00000000 		.word	__cxa_pure_virtual
 875 001c 00000000 		.word	__cxa_pure_virtual
 876              		.global	_ZTI9UARTClass
 877              		.section	.rodata
 878              		.align	2
 879              		.type	_ZTI9UARTClass, %object
 880              		.size	_ZTI9UARTClass, 12
 881              	_ZTI9UARTClass:
 882 002c 08000000 		.word	_ZTVN10__cxxabiv120__si_class_type_infoE+8
 883 0030 00000000 		.word	_ZTS9UARTClass
 884 0034 00000000 		.word	_ZTI14HardwareSerial
 885              		.global	_ZTS9UARTClass
 886              		.align	2
 887              		.type	_ZTS9UARTClass, %object
 888              		.size	_ZTS9UARTClass, 11
 889              	_ZTS9UARTClass:
ARM GAS  C:\Users\Bruger\AppData\Local\Temp\ccOx4GEO.s 			page 22


 890 0038 39554152 		.ascii	"9UARTClass\000"
 890      54436C61 
 890      737300
 891              		.weak	_ZTS14HardwareSerial
 892              		.section	.rodata._ZTS14HardwareSerial,"aG",%progbits,_ZTS14HardwareSerial,comdat
 893              		.align	2
 894              		.type	_ZTS14HardwareSerial, %object
 895              		.size	_ZTS14HardwareSerial, 17
 896              	_ZTS14HardwareSerial:
 897 0000 31344861 		.ascii	"14HardwareSerial\000"
 897      72647761 
 897      72655365 
 897      7269616C 
 897      00
 898              		.weak	_ZTI14HardwareSerial
 899 0011 000000   		.section	.rodata._ZTI14HardwareSerial,"aG",%progbits,_ZTI14HardwareSerial,comdat
 900              		.align	2
 901              		.type	_ZTI14HardwareSerial, %object
 902              		.size	_ZTI14HardwareSerial, 12
 903              	_ZTI14HardwareSerial:
 904 0000 08000000 		.word	_ZTVN10__cxxabiv120__si_class_type_infoE+8
 905 0004 00000000 		.word	_ZTS14HardwareSerial
 906 0008 00000000 		.word	_ZTI6Stream
 907              		.weak	_ZTS6Stream
 908              		.section	.rodata._ZTS6Stream,"aG",%progbits,_ZTS6Stream,comdat
 909              		.align	2
 910              		.type	_ZTS6Stream, %object
 911              		.size	_ZTS6Stream, 8
 912              	_ZTS6Stream:
 913 0000 36537472 		.ascii	"6Stream\000"
 913      65616D00 
 914              		.weak	_ZTI6Stream
 915              		.section	.rodata._ZTI6Stream,"aG",%progbits,_ZTI6Stream,comdat
 916              		.align	2
 917              		.type	_ZTI6Stream, %object
 918              		.size	_ZTI6Stream, 12
 919              	_ZTI6Stream:
 920 0000 08000000 		.word	_ZTVN10__cxxabiv120__si_class_type_infoE+8
 921 0004 00000000 		.word	_ZTS6Stream
 922 0008 00000000 		.word	_ZTI5Print
 923              		.section	.rodata
 924              		.type	_ZL2SS, %object
 925              		.size	_ZL2SS, 1
 926              	_ZL2SS:
 927 0043 0A       		.byte	10
 928              		.type	_ZL4MOSI, %object
 929              		.size	_ZL4MOSI, 1
 930              	_ZL4MOSI:
 931 0044 0B       		.byte	11
 932              		.type	_ZL4MISO, %object
 933              		.size	_ZL4MISO, 1
 934              	_ZL4MISO:
 935 0045 0C       		.byte	12
 936              		.type	_ZL3SCK, %object
 937              		.size	_ZL3SCK, 1
 938              	_ZL3SCK:
 939 0046 0D       		.byte	13
ARM GAS  C:\Users\Bruger\AppData\Local\Temp\ccOx4GEO.s 			page 23


 940              		.type	_ZL3SDA, %object
 941              		.size	_ZL3SDA, 1
 942              	_ZL3SDA:
 943 0047 15       		.byte	21
 944              		.type	_ZL3SCL, %object
 945              		.size	_ZL3SCL, 1
 946              	_ZL3SCL:
 947 0048 14       		.byte	20
 948 0049 00000000 		.text
 948      000000
 949              	.Letext0:
 950              		.file 6 "c:\\program files (x86)\\cypress\\psoc creator\\4.0\\psoc creator\\import\\gnu\\arm\\4.9.
 951              		.file 7 "c:\\program files (x86)\\cypress\\psoc creator\\4.0\\psoc creator\\import\\gnu\\arm\\4.9.
 952              		.file 8 "c:\\program files (x86)\\cypress\\psoc creator\\4.0\\psoc creator\\import\\gnu\\arm\\4.9.
 953              		.file 9 "core\\WString.h"
 954              		.file 10 ".\\core/pins_arduino.h"
 955              		.file 11 "<built-in>"
 956              		.file 12 "Generated_Source\\PSoC5/core_cm3.h"