ARM GAS  C:\Users\Bruger\AppData\Local\Temp\ccjLt6bf.s 			page 1


   1              		.syntax unified
   2              		.cpu cortex-m3
   3              		.fpu softvfp
   4              		.eabi_attribute 20, 1
   5              		.eabi_attribute 21, 1
   6              		.eabi_attribute 23, 3
   7              		.eabi_attribute 24, 1
   8              		.eabi_attribute 25, 1
   9              		.eabi_attribute 26, 1
  10              		.eabi_attribute 30, 6
  11              		.eabi_attribute 34, 1
  12              		.eabi_attribute 18, 4
  13              		.thumb
  14              		.file	"WString.cpp"
  15              		.text
  16              	.Ltext0:
  17              		.cfi_sections	.debug_frame
  18              		.section	.text._ZN6StringC2EPKc,"ax",%progbits
  19              		.align	2
  20              		.global	_ZN6StringC2EPKc
  21              		.thumb
  22              		.thumb_func
  23              		.type	_ZN6StringC2EPKc, %function
  24              	_ZN6StringC2EPKc:
  25              		.fnstart
  26              	.LFB52:
  27              		.file 1 "core\\WString.cpp"
   1:core/WString.cpp **** /*
   2:core/WString.cpp ****   WString.cpp - String library for Wiring & Arduino
   3:core/WString.cpp ****   ...mostly rewritten by Paul Stoffregen...
   4:core/WString.cpp ****   Copyright (c) 2009-10 Hernando Barragan.  All rights reserved.
   5:core/WString.cpp ****   Copyright 2011, Paul Stoffregen, paul@pjrc.com
   6:core/WString.cpp **** 
   7:core/WString.cpp ****   This library is free software; you can redistribute it and/or
   8:core/WString.cpp ****   modify it under the terms of the GNU Lesser General Public
   9:core/WString.cpp ****   License as published by the Free Software Foundation; either
  10:core/WString.cpp ****   version 2.1 of the License, or (at your option) any later version.
  11:core/WString.cpp **** 
  12:core/WString.cpp ****   This library is distributed in the hope that it will be useful,
  13:core/WString.cpp ****   but WITHOUT ANY WARRANTY; without even the implied warranty of
  14:core/WString.cpp ****   MERCHANTABILITY or FITNESS FOR A PARTICULAR PURPOSE.  See the GNU
  15:core/WString.cpp ****   Lesser General Public License for more details.
  16:core/WString.cpp **** 
  17:core/WString.cpp ****   You should have received a copy of the GNU Lesser General Public
  18:core/WString.cpp ****   License along with this library; if not, write to the Free Software
  19:core/WString.cpp ****   Foundation, Inc., 51 Franklin St, Fifth Floor, Boston, MA  02110-1301  USA
  20:core/WString.cpp **** */
  21:core/WString.cpp **** 
  22:core/WString.cpp **** #include "WString.h"
  23:core/WString.cpp **** #include "itoa.h"
  24:core/WString.cpp **** #include <avr/dtostrf.h>
  25:core/WString.cpp **** #include <stdlib.h>
  26:core/WString.cpp **** 
  27:core/WString.cpp **** /*********************************************/
  28:core/WString.cpp **** /*  Constructors                             */
  29:core/WString.cpp **** /*********************************************/
  30:core/WString.cpp **** 
ARM GAS  C:\Users\Bruger\AppData\Local\Temp\ccjLt6bf.s 			page 2


  31:core/WString.cpp **** String::String(const char *cstr)
  28              		.loc 1 31 0
  29              		.cfi_startproc
  30              		@ args = 0, pretend = 0, frame = 8
  31              		@ frame_needed = 1, uses_anonymous_args = 0
  32 0000 80B5     		push	{r7, lr}
  33              		.save {r7, lr}
  34              		.cfi_def_cfa_offset 8
  35              		.cfi_offset 7, -8
  36              		.cfi_offset 14, -4
  37              		.pad #8
  38 0002 82B0     		sub	sp, sp, #8
  39              		.cfi_def_cfa_offset 16
  40              		.setfp r7, sp, #0
  41 0004 00AF     		add	r7, sp, #0
  42              		.cfi_def_cfa_register 7
  43 0006 7860     		str	r0, [r7, #4]
  44 0008 3960     		str	r1, [r7]
  45              	.LBB2:
  32:core/WString.cpp **** {
  33:core/WString.cpp **** 	init();
  46              		.loc 1 33 0
  47 000a 7868     		ldr	r0, [r7, #4]
  48 000c FFF7FEFF 		bl	_ZN6String4initEv
  34:core/WString.cpp **** 	if (cstr) copy(cstr, strlen(cstr));
  49              		.loc 1 34 0
  50 0010 3B68     		ldr	r3, [r7]
  51 0012 002B     		cmp	r3, #0
  52 0014 08D0     		beq	.L2
  53              		.loc 1 34 0 is_stmt 0 discriminator 1
  54 0016 3868     		ldr	r0, [r7]
  55 0018 FFF7FEFF 		bl	strlen
  56 001c 0346     		mov	r3, r0
  57 001e 7868     		ldr	r0, [r7, #4]
  58 0020 3968     		ldr	r1, [r7]
  59 0022 1A46     		mov	r2, r3
  60 0024 FFF7FEFF 		bl	_ZN6String4copyEPKcj
  61              	.L2:
  62              	.LBE2:
  35:core/WString.cpp **** }
  63              		.loc 1 35 0 is_stmt 1
  64 0028 7B68     		ldr	r3, [r7, #4]
  65 002a 1846     		mov	r0, r3
  66 002c 0837     		adds	r7, r7, #8
  67              		.cfi_def_cfa_offset 8
  68 002e BD46     		mov	sp, r7
  69              		.cfi_def_cfa_register 13
  70              		@ sp needed
  71 0030 80BD     		pop	{r7, pc}
  72              		.cfi_endproc
  73              	.LFE52:
  74              		.fnend
  75              		.size	_ZN6StringC2EPKc, .-_ZN6StringC2EPKc
  76              		.global	_ZN6StringC1EPKc
  77              		.thumb_set _ZN6StringC1EPKc,_ZN6StringC2EPKc
  78 0032 00BF     		.section	.text._ZN6StringC2ERKS_,"ax",%progbits
  79              		.align	2
ARM GAS  C:\Users\Bruger\AppData\Local\Temp\ccjLt6bf.s 			page 3


  80              		.global	_ZN6StringC2ERKS_
  81              		.thumb
  82              		.thumb_func
  83              		.type	_ZN6StringC2ERKS_, %function
  84              	_ZN6StringC2ERKS_:
  85              		.fnstart
  86              	.LFB55:
  36:core/WString.cpp **** 
  37:core/WString.cpp **** String::String(const String &value)
  87              		.loc 1 37 0
  88              		.cfi_startproc
  89              		@ args = 0, pretend = 0, frame = 8
  90              		@ frame_needed = 1, uses_anonymous_args = 0
  91 0000 80B5     		push	{r7, lr}
  92              		.save {r7, lr}
  93              		.cfi_def_cfa_offset 8
  94              		.cfi_offset 7, -8
  95              		.cfi_offset 14, -4
  96              		.pad #8
  97 0002 82B0     		sub	sp, sp, #8
  98              		.cfi_def_cfa_offset 16
  99              		.setfp r7, sp, #0
 100 0004 00AF     		add	r7, sp, #0
 101              		.cfi_def_cfa_register 7
 102 0006 7860     		str	r0, [r7, #4]
 103 0008 3960     		str	r1, [r7]
 104              	.LBB3:
  38:core/WString.cpp **** {
  39:core/WString.cpp **** 	init();
 105              		.loc 1 39 0
 106 000a 7868     		ldr	r0, [r7, #4]
 107 000c FFF7FEFF 		bl	_ZN6String4initEv
  40:core/WString.cpp **** 	*this = value;
 108              		.loc 1 40 0
 109 0010 7868     		ldr	r0, [r7, #4]
 110 0012 3968     		ldr	r1, [r7]
 111 0014 FFF7FEFF 		bl	_ZN6StringaSERKS_
 112              	.LBE3:
  41:core/WString.cpp **** }
 113              		.loc 1 41 0
 114 0018 7B68     		ldr	r3, [r7, #4]
 115 001a 1846     		mov	r0, r3
 116 001c 0837     		adds	r7, r7, #8
 117              		.cfi_def_cfa_offset 8
 118 001e BD46     		mov	sp, r7
 119              		.cfi_def_cfa_register 13
 120              		@ sp needed
 121 0020 80BD     		pop	{r7, pc}
 122              		.cfi_endproc
 123              	.LFE55:
 124              		.fnend
 125              		.size	_ZN6StringC2ERKS_, .-_ZN6StringC2ERKS_
 126              		.global	_ZN6StringC1ERKS_
 127              		.thumb_set _ZN6StringC1ERKS_,_ZN6StringC2ERKS_
 128 0022 00BF     		.section	.text._ZN6StringC2EPK19__FlashStringHelper,"ax",%progbits
 129              		.align	2
 130              		.global	_ZN6StringC2EPK19__FlashStringHelper
ARM GAS  C:\Users\Bruger\AppData\Local\Temp\ccjLt6bf.s 			page 4


 131              		.thumb
 132              		.thumb_func
 133              		.type	_ZN6StringC2EPK19__FlashStringHelper, %function
 134              	_ZN6StringC2EPK19__FlashStringHelper:
 135              		.fnstart
 136              	.LFB58:
  42:core/WString.cpp **** 
  43:core/WString.cpp **** String::String(const __FlashStringHelper *pstr)
 137              		.loc 1 43 0
 138              		.cfi_startproc
 139              		@ args = 0, pretend = 0, frame = 8
 140              		@ frame_needed = 1, uses_anonymous_args = 0
 141 0000 80B5     		push	{r7, lr}
 142              		.save {r7, lr}
 143              		.cfi_def_cfa_offset 8
 144              		.cfi_offset 7, -8
 145              		.cfi_offset 14, -4
 146              		.pad #8
 147 0002 82B0     		sub	sp, sp, #8
 148              		.cfi_def_cfa_offset 16
 149              		.setfp r7, sp, #0
 150 0004 00AF     		add	r7, sp, #0
 151              		.cfi_def_cfa_register 7
 152 0006 7860     		str	r0, [r7, #4]
 153 0008 3960     		str	r1, [r7]
 154              	.LBB4:
  44:core/WString.cpp **** {
  45:core/WString.cpp **** 	init();
 155              		.loc 1 45 0
 156 000a 7868     		ldr	r0, [r7, #4]
 157 000c FFF7FEFF 		bl	_ZN6String4initEv
  46:core/WString.cpp **** 	*this = pstr;
 158              		.loc 1 46 0
 159 0010 7868     		ldr	r0, [r7, #4]
 160 0012 3968     		ldr	r1, [r7]
 161 0014 FFF7FEFF 		bl	_ZN6StringaSEPK19__FlashStringHelper
 162              	.LBE4:
  47:core/WString.cpp **** }
 163              		.loc 1 47 0
 164 0018 7B68     		ldr	r3, [r7, #4]
 165 001a 1846     		mov	r0, r3
 166 001c 0837     		adds	r7, r7, #8
 167              		.cfi_def_cfa_offset 8
 168 001e BD46     		mov	sp, r7
 169              		.cfi_def_cfa_register 13
 170              		@ sp needed
 171 0020 80BD     		pop	{r7, pc}
 172              		.cfi_endproc
 173              	.LFE58:
 174              		.fnend
 175              		.size	_ZN6StringC2EPK19__FlashStringHelper, .-_ZN6StringC2EPK19__FlashStringHelper
 176              		.global	_ZN6StringC1EPK19__FlashStringHelper
 177              		.thumb_set _ZN6StringC1EPK19__FlashStringHelper,_ZN6StringC2EPK19__FlashStringHelper
 178 0022 00BF     		.section	.text._ZN6StringC2Ec,"ax",%progbits
 179              		.align	2
 180              		.global	_ZN6StringC2Ec
 181              		.thumb
ARM GAS  C:\Users\Bruger\AppData\Local\Temp\ccjLt6bf.s 			page 5


 182              		.thumb_func
 183              		.type	_ZN6StringC2Ec, %function
 184              	_ZN6StringC2Ec:
 185              		.fnstart
 186              	.LFB61:
  48:core/WString.cpp **** 
  49:core/WString.cpp **** #ifdef __GXX_EXPERIMENTAL_CXX0X__
  50:core/WString.cpp **** String::String(String &&rval)
  51:core/WString.cpp **** {
  52:core/WString.cpp **** 	init();
  53:core/WString.cpp **** 	move(rval);
  54:core/WString.cpp **** }
  55:core/WString.cpp **** String::String(StringSumHelper &&rval)
  56:core/WString.cpp **** {
  57:core/WString.cpp **** 	init();
  58:core/WString.cpp **** 	move(rval);
  59:core/WString.cpp **** }
  60:core/WString.cpp **** #endif
  61:core/WString.cpp **** 
  62:core/WString.cpp **** String::String(char c)
 187              		.loc 1 62 0
 188              		.cfi_startproc
 189              		@ args = 0, pretend = 0, frame = 16
 190              		@ frame_needed = 1, uses_anonymous_args = 0
 191 0000 80B5     		push	{r7, lr}
 192              		.save {r7, lr}
 193              		.cfi_def_cfa_offset 8
 194              		.cfi_offset 7, -8
 195              		.cfi_offset 14, -4
 196              		.pad #16
 197 0002 84B0     		sub	sp, sp, #16
 198              		.cfi_def_cfa_offset 24
 199              		.setfp r7, sp, #0
 200 0004 00AF     		add	r7, sp, #0
 201              		.cfi_def_cfa_register 7
 202 0006 7860     		str	r0, [r7, #4]
 203 0008 0B46     		mov	r3, r1
 204 000a FB70     		strb	r3, [r7, #3]
 205              	.LBB5:
 206              	.LBB6:
  63:core/WString.cpp **** {
  64:core/WString.cpp **** 	init();
 207              		.loc 1 64 0
 208 000c 7868     		ldr	r0, [r7, #4]
 209 000e FFF7FEFF 		bl	_ZN6String4initEv
  65:core/WString.cpp **** 	char buf[2];
  66:core/WString.cpp **** 	buf[0] = c;
 210              		.loc 1 66 0
 211 0012 FB78     		ldrb	r3, [r7, #3]
 212 0014 3B73     		strb	r3, [r7, #12]
  67:core/WString.cpp **** 	buf[1] = 0;
 213              		.loc 1 67 0
 214 0016 0023     		movs	r3, #0
 215 0018 7B73     		strb	r3, [r7, #13]
  68:core/WString.cpp **** 	*this = buf;
 216              		.loc 1 68 0
 217 001a 07F10C03 		add	r3, r7, #12
ARM GAS  C:\Users\Bruger\AppData\Local\Temp\ccjLt6bf.s 			page 6


 218 001e 7868     		ldr	r0, [r7, #4]
 219 0020 1946     		mov	r1, r3
 220 0022 FFF7FEFF 		bl	_ZN6StringaSEPKc
 221              	.LBE6:
 222              	.LBE5:
  69:core/WString.cpp **** }
 223              		.loc 1 69 0
 224 0026 7B68     		ldr	r3, [r7, #4]
 225 0028 1846     		mov	r0, r3
 226 002a 1037     		adds	r7, r7, #16
 227              		.cfi_def_cfa_offset 8
 228 002c BD46     		mov	sp, r7
 229              		.cfi_def_cfa_register 13
 230              		@ sp needed
 231 002e 80BD     		pop	{r7, pc}
 232              		.cfi_endproc
 233              	.LFE61:
 234              		.fnend
 235              		.size	_ZN6StringC2Ec, .-_ZN6StringC2Ec
 236              		.global	_ZN6StringC1Ec
 237              		.thumb_set _ZN6StringC1Ec,_ZN6StringC2Ec
 238              		.section	.text._ZN6StringC2Ehh,"ax",%progbits
 239              		.align	2
 240              		.global	_ZN6StringC2Ehh
 241              		.thumb
 242              		.thumb_func
 243              		.type	_ZN6StringC2Ehh, %function
 244              	_ZN6StringC2Ehh:
 245              		.fnstart
 246              	.LFB64:
  70:core/WString.cpp **** 
  71:core/WString.cpp **** String::String(unsigned char value, unsigned char base)
 247              		.loc 1 71 0
 248              		.cfi_startproc
 249              		@ args = 0, pretend = 0, frame = 24
 250              		@ frame_needed = 1, uses_anonymous_args = 0
 251 0000 80B5     		push	{r7, lr}
 252              		.save {r7, lr}
 253              		.cfi_def_cfa_offset 8
 254              		.cfi_offset 7, -8
 255              		.cfi_offset 14, -4
 256              		.pad #24
 257 0002 86B0     		sub	sp, sp, #24
 258              		.cfi_def_cfa_offset 32
 259              		.setfp r7, sp, #0
 260 0004 00AF     		add	r7, sp, #0
 261              		.cfi_def_cfa_register 7
 262 0006 7860     		str	r0, [r7, #4]
 263 0008 0B46     		mov	r3, r1
 264 000a FB70     		strb	r3, [r7, #3]
 265 000c 1346     		mov	r3, r2
 266 000e BB70     		strb	r3, [r7, #2]
 267              	.LBB7:
 268              	.LBB8:
  72:core/WString.cpp **** {
  73:core/WString.cpp **** 	init();
 269              		.loc 1 73 0
ARM GAS  C:\Users\Bruger\AppData\Local\Temp\ccjLt6bf.s 			page 7


 270 0010 7868     		ldr	r0, [r7, #4]
 271 0012 FFF7FEFF 		bl	_ZN6String4initEv
  74:core/WString.cpp **** 	char buf[1 + 8 * sizeof(unsigned char)];
  75:core/WString.cpp **** 	utoa((long unsigned int)value, buf, (int)base);
 272              		.loc 1 75 0
 273 0016 F978     		ldrb	r1, [r7, #3]	@ zero_extendqisi2
 274 0018 BB78     		ldrb	r3, [r7, #2]	@ zero_extendqisi2
 275 001a 07F10C02 		add	r2, r7, #12
 276 001e 0846     		mov	r0, r1
 277 0020 1146     		mov	r1, r2
 278 0022 1A46     		mov	r2, r3
 279 0024 FFF7FEFF 		bl	_Z4utoamPci
  76:core/WString.cpp **** 	*this = buf;
 280              		.loc 1 76 0
 281 0028 07F10C03 		add	r3, r7, #12
 282 002c 7868     		ldr	r0, [r7, #4]
 283 002e 1946     		mov	r1, r3
 284 0030 FFF7FEFF 		bl	_ZN6StringaSEPKc
 285              	.LBE8:
 286              	.LBE7:
  77:core/WString.cpp **** }
 287              		.loc 1 77 0
 288 0034 7B68     		ldr	r3, [r7, #4]
 289 0036 1846     		mov	r0, r3
 290 0038 1837     		adds	r7, r7, #24
 291              		.cfi_def_cfa_offset 8
 292 003a BD46     		mov	sp, r7
 293              		.cfi_def_cfa_register 13
 294              		@ sp needed
 295 003c 80BD     		pop	{r7, pc}
 296              		.cfi_endproc
 297              	.LFE64:
 298              		.fnend
 299              		.size	_ZN6StringC2Ehh, .-_ZN6StringC2Ehh
 300              		.global	_ZN6StringC1Ehh
 301              		.thumb_set _ZN6StringC1Ehh,_ZN6StringC2Ehh
 302 003e 00BF     		.section	.text._ZN6StringC2Eih,"ax",%progbits
 303              		.align	2
 304              		.global	_ZN6StringC2Eih
 305              		.thumb
 306              		.thumb_func
 307              		.type	_ZN6StringC2Eih, %function
 308              	_ZN6StringC2Eih:
 309              		.fnstart
 310              	.LFB67:
  78:core/WString.cpp **** 
  79:core/WString.cpp **** String::String(int value, unsigned char base)
 311              		.loc 1 79 0
 312              		.cfi_startproc
 313              		@ args = 0, pretend = 0, frame = 56
 314              		@ frame_needed = 1, uses_anonymous_args = 0
 315 0000 80B5     		push	{r7, lr}
 316              		.save {r7, lr}
 317              		.cfi_def_cfa_offset 8
 318              		.cfi_offset 7, -8
 319              		.cfi_offset 14, -4
 320              		.pad #56
ARM GAS  C:\Users\Bruger\AppData\Local\Temp\ccjLt6bf.s 			page 8


 321 0002 8EB0     		sub	sp, sp, #56
 322              		.cfi_def_cfa_offset 64
 323              		.setfp r7, sp, #0
 324 0004 00AF     		add	r7, sp, #0
 325              		.cfi_def_cfa_register 7
 326 0006 F860     		str	r0, [r7, #12]
 327 0008 B960     		str	r1, [r7, #8]
 328 000a 1346     		mov	r3, r2
 329 000c FB71     		strb	r3, [r7, #7]
 330              	.LBB9:
 331              	.LBB10:
  80:core/WString.cpp **** {
  81:core/WString.cpp **** 	init();
 332              		.loc 1 81 0
 333 000e F868     		ldr	r0, [r7, #12]
 334 0010 FFF7FEFF 		bl	_ZN6String4initEv
  82:core/WString.cpp **** 	char buf[2 + 8 * sizeof(int)];
  83:core/WString.cpp **** 	itoa(value, buf, base);
 335              		.loc 1 83 0
 336 0014 FB79     		ldrb	r3, [r7, #7]	@ zero_extendqisi2
 337 0016 07F11402 		add	r2, r7, #20
 338 001a B868     		ldr	r0, [r7, #8]
 339 001c 1146     		mov	r1, r2
 340 001e 1A46     		mov	r2, r3
 341 0020 FFF7FEFF 		bl	itoa
  84:core/WString.cpp **** 	*this = buf;
 342              		.loc 1 84 0
 343 0024 07F11403 		add	r3, r7, #20
 344 0028 F868     		ldr	r0, [r7, #12]
 345 002a 1946     		mov	r1, r3
 346 002c FFF7FEFF 		bl	_ZN6StringaSEPKc
 347              	.LBE10:
 348              	.LBE9:
  85:core/WString.cpp **** }
 349              		.loc 1 85 0
 350 0030 FB68     		ldr	r3, [r7, #12]
 351 0032 1846     		mov	r0, r3
 352 0034 3837     		adds	r7, r7, #56
 353              		.cfi_def_cfa_offset 8
 354 0036 BD46     		mov	sp, r7
 355              		.cfi_def_cfa_register 13
 356              		@ sp needed
 357 0038 80BD     		pop	{r7, pc}
 358              		.cfi_endproc
 359              	.LFE67:
 360              		.fnend
 361              		.size	_ZN6StringC2Eih, .-_ZN6StringC2Eih
 362              		.global	_ZN6StringC1Eih
 363              		.thumb_set _ZN6StringC1Eih,_ZN6StringC2Eih
 364 003a 00BF     		.section	.text._ZN6StringC2Ejh,"ax",%progbits
 365              		.align	2
 366              		.global	_ZN6StringC2Ejh
 367              		.thumb
 368              		.thumb_func
 369              		.type	_ZN6StringC2Ejh, %function
 370              	_ZN6StringC2Ejh:
 371              		.fnstart
ARM GAS  C:\Users\Bruger\AppData\Local\Temp\ccjLt6bf.s 			page 9


 372              	.LFB70:
  86:core/WString.cpp **** 
  87:core/WString.cpp **** String::String(unsigned int value, unsigned char base)
 373              		.loc 1 87 0
 374              		.cfi_startproc
 375              		@ args = 0, pretend = 0, frame = 56
 376              		@ frame_needed = 1, uses_anonymous_args = 0
 377 0000 80B5     		push	{r7, lr}
 378              		.save {r7, lr}
 379              		.cfi_def_cfa_offset 8
 380              		.cfi_offset 7, -8
 381              		.cfi_offset 14, -4
 382              		.pad #56
 383 0002 8EB0     		sub	sp, sp, #56
 384              		.cfi_def_cfa_offset 64
 385              		.setfp r7, sp, #0
 386 0004 00AF     		add	r7, sp, #0
 387              		.cfi_def_cfa_register 7
 388 0006 F860     		str	r0, [r7, #12]
 389 0008 B960     		str	r1, [r7, #8]
 390 000a 1346     		mov	r3, r2
 391 000c FB71     		strb	r3, [r7, #7]
 392              	.LBB11:
 393              	.LBB12:
  88:core/WString.cpp **** {
  89:core/WString.cpp **** 	init();
 394              		.loc 1 89 0
 395 000e F868     		ldr	r0, [r7, #12]
 396 0010 FFF7FEFF 		bl	_ZN6String4initEv
  90:core/WString.cpp **** 	char buf[1 + 8 * sizeof(unsigned int)];
  91:core/WString.cpp **** 	utoa(value, buf, base);
 397              		.loc 1 91 0
 398 0014 FB79     		ldrb	r3, [r7, #7]	@ zero_extendqisi2
 399 0016 07F11402 		add	r2, r7, #20
 400 001a B868     		ldr	r0, [r7, #8]
 401 001c 1146     		mov	r1, r2
 402 001e 1A46     		mov	r2, r3
 403 0020 FFF7FEFF 		bl	utoa
  92:core/WString.cpp **** 	*this = buf;
 404              		.loc 1 92 0
 405 0024 07F11403 		add	r3, r7, #20
 406 0028 F868     		ldr	r0, [r7, #12]
 407 002a 1946     		mov	r1, r3
 408 002c FFF7FEFF 		bl	_ZN6StringaSEPKc
 409              	.LBE12:
 410              	.LBE11:
  93:core/WString.cpp **** }
 411              		.loc 1 93 0
 412 0030 FB68     		ldr	r3, [r7, #12]
 413 0032 1846     		mov	r0, r3
 414 0034 3837     		adds	r7, r7, #56
 415              		.cfi_def_cfa_offset 8
 416 0036 BD46     		mov	sp, r7
 417              		.cfi_def_cfa_register 13
 418              		@ sp needed
 419 0038 80BD     		pop	{r7, pc}
 420              		.cfi_endproc
ARM GAS  C:\Users\Bruger\AppData\Local\Temp\ccjLt6bf.s 			page 10


 421              	.LFE70:
 422              		.fnend
 423              		.size	_ZN6StringC2Ejh, .-_ZN6StringC2Ejh
 424              		.global	_ZN6StringC1Ejh
 425              		.thumb_set _ZN6StringC1Ejh,_ZN6StringC2Ejh
 426 003a 00BF     		.section	.text._ZN6StringC2Elh,"ax",%progbits
 427              		.align	2
 428              		.global	_ZN6StringC2Elh
 429              		.thumb
 430              		.thumb_func
 431              		.type	_ZN6StringC2Elh, %function
 432              	_ZN6StringC2Elh:
 433              		.fnstart
 434              	.LFB73:
  94:core/WString.cpp **** 
  95:core/WString.cpp **** String::String(long value, unsigned char base)
 435              		.loc 1 95 0
 436              		.cfi_startproc
 437              		@ args = 0, pretend = 0, frame = 56
 438              		@ frame_needed = 1, uses_anonymous_args = 0
 439 0000 80B5     		push	{r7, lr}
 440              		.save {r7, lr}
 441              		.cfi_def_cfa_offset 8
 442              		.cfi_offset 7, -8
 443              		.cfi_offset 14, -4
 444              		.pad #56
 445 0002 8EB0     		sub	sp, sp, #56
 446              		.cfi_def_cfa_offset 64
 447              		.setfp r7, sp, #0
 448 0004 00AF     		add	r7, sp, #0
 449              		.cfi_def_cfa_register 7
 450 0006 F860     		str	r0, [r7, #12]
 451 0008 B960     		str	r1, [r7, #8]
 452 000a 1346     		mov	r3, r2
 453 000c FB71     		strb	r3, [r7, #7]
 454              	.LBB13:
 455              	.LBB14:
  96:core/WString.cpp **** {
  97:core/WString.cpp **** 	init();
 456              		.loc 1 97 0
 457 000e F868     		ldr	r0, [r7, #12]
 458 0010 FFF7FEFF 		bl	_ZN6String4initEv
  98:core/WString.cpp **** 	char buf[2 + 8 * sizeof(long)];
  99:core/WString.cpp **** 	ltoa(value, buf, base);
 459              		.loc 1 99 0
 460 0014 FB79     		ldrb	r3, [r7, #7]	@ zero_extendqisi2
 461 0016 07F11402 		add	r2, r7, #20
 462 001a B868     		ldr	r0, [r7, #8]
 463 001c 1146     		mov	r1, r2
 464 001e 1A46     		mov	r2, r3
 465 0020 FFF7FEFF 		bl	_Z4ltoalPci
 100:core/WString.cpp **** 	*this = buf;
 466              		.loc 1 100 0
 467 0024 07F11403 		add	r3, r7, #20
 468 0028 F868     		ldr	r0, [r7, #12]
 469 002a 1946     		mov	r1, r3
 470 002c FFF7FEFF 		bl	_ZN6StringaSEPKc
ARM GAS  C:\Users\Bruger\AppData\Local\Temp\ccjLt6bf.s 			page 11


 471              	.LBE14:
 472              	.LBE13:
 101:core/WString.cpp **** }
 473              		.loc 1 101 0
 474 0030 FB68     		ldr	r3, [r7, #12]
 475 0032 1846     		mov	r0, r3
 476 0034 3837     		adds	r7, r7, #56
 477              		.cfi_def_cfa_offset 8
 478 0036 BD46     		mov	sp, r7
 479              		.cfi_def_cfa_register 13
 480              		@ sp needed
 481 0038 80BD     		pop	{r7, pc}
 482              		.cfi_endproc
 483              	.LFE73:
 484              		.fnend
 485              		.size	_ZN6StringC2Elh, .-_ZN6StringC2Elh
 486              		.global	_ZN6StringC1Elh
 487              		.thumb_set _ZN6StringC1Elh,_ZN6StringC2Elh
 488 003a 00BF     		.section	.text._ZN6StringC2Emh,"ax",%progbits
 489              		.align	2
 490              		.global	_ZN6StringC2Emh
 491              		.thumb
 492              		.thumb_func
 493              		.type	_ZN6StringC2Emh, %function
 494              	_ZN6StringC2Emh:
 495              		.fnstart
 496              	.LFB76:
 102:core/WString.cpp **** 
 103:core/WString.cpp **** String::String(unsigned long value, unsigned char base)
 497              		.loc 1 103 0
 498              		.cfi_startproc
 499              		@ args = 0, pretend = 0, frame = 56
 500              		@ frame_needed = 1, uses_anonymous_args = 0
 501 0000 80B5     		push	{r7, lr}
 502              		.save {r7, lr}
 503              		.cfi_def_cfa_offset 8
 504              		.cfi_offset 7, -8
 505              		.cfi_offset 14, -4
 506              		.pad #56
 507 0002 8EB0     		sub	sp, sp, #56
 508              		.cfi_def_cfa_offset 64
 509              		.setfp r7, sp, #0
 510 0004 00AF     		add	r7, sp, #0
 511              		.cfi_def_cfa_register 7
 512 0006 F860     		str	r0, [r7, #12]
 513 0008 B960     		str	r1, [r7, #8]
 514 000a 1346     		mov	r3, r2
 515 000c FB71     		strb	r3, [r7, #7]
 516              	.LBB15:
 517              	.LBB16:
 104:core/WString.cpp **** {
 105:core/WString.cpp **** 	init();
 518              		.loc 1 105 0
 519 000e F868     		ldr	r0, [r7, #12]
 520 0010 FFF7FEFF 		bl	_ZN6String4initEv
 106:core/WString.cpp **** 	char buf[1 + 8 * sizeof(unsigned long)];
 107:core/WString.cpp **** 	ultoa(value, buf, base);
ARM GAS  C:\Users\Bruger\AppData\Local\Temp\ccjLt6bf.s 			page 12


 521              		.loc 1 107 0
 522 0014 FB79     		ldrb	r3, [r7, #7]	@ zero_extendqisi2
 523 0016 07F11402 		add	r2, r7, #20
 524 001a B868     		ldr	r0, [r7, #8]
 525 001c 1146     		mov	r1, r2
 526 001e 1A46     		mov	r2, r3
 527 0020 FFF7FEFF 		bl	_Z5ultoamPci
 108:core/WString.cpp **** 	*this = buf;
 528              		.loc 1 108 0
 529 0024 07F11403 		add	r3, r7, #20
 530 0028 F868     		ldr	r0, [r7, #12]
 531 002a 1946     		mov	r1, r3
 532 002c FFF7FEFF 		bl	_ZN6StringaSEPKc
 533              	.LBE16:
 534              	.LBE15:
 109:core/WString.cpp **** }
 535              		.loc 1 109 0
 536 0030 FB68     		ldr	r3, [r7, #12]
 537 0032 1846     		mov	r0, r3
 538 0034 3837     		adds	r7, r7, #56
 539              		.cfi_def_cfa_offset 8
 540 0036 BD46     		mov	sp, r7
 541              		.cfi_def_cfa_register 13
 542              		@ sp needed
 543 0038 80BD     		pop	{r7, pc}
 544              		.cfi_endproc
 545              	.LFE76:
 546              		.fnend
 547              		.size	_ZN6StringC2Emh, .-_ZN6StringC2Emh
 548              		.global	_ZN6StringC1Emh
 549              		.thumb_set _ZN6StringC1Emh,_ZN6StringC2Emh
 550              		.global	__aeabi_f2d
 551 003a 00BF     		.section	.text._ZN6StringC2Efh,"ax",%progbits
 552              		.align	2
 553              		.global	_ZN6StringC2Efh
 554              		.thumb
 555              		.thumb_func
 556              		.type	_ZN6StringC2Efh, %function
 557              	_ZN6StringC2Efh:
 558              		.fnstart
 559              	.LFB79:
 110:core/WString.cpp **** 
 111:core/WString.cpp **** String::String(float value, unsigned char decimalPlaces)
 560              		.loc 1 111 0
 561              		.cfi_startproc
 562              		@ args = 0, pretend = 0, frame = 56
 563              		@ frame_needed = 1, uses_anonymous_args = 0
 564 0000 90B5     		push	{r4, r7, lr}
 565              		.save {r4, r7, lr}
 566              		.cfi_def_cfa_offset 12
 567              		.cfi_offset 4, -12
 568              		.cfi_offset 7, -8
 569              		.cfi_offset 14, -4
 570              		.pad #68
 571 0002 91B0     		sub	sp, sp, #68
 572              		.cfi_def_cfa_offset 80
 573              		.setfp r7, sp, #8
ARM GAS  C:\Users\Bruger\AppData\Local\Temp\ccjLt6bf.s 			page 13


 574 0004 02AF     		add	r7, sp, #8
 575              		.cfi_def_cfa 7, 72
 576 0006 F860     		str	r0, [r7, #12]
 577 0008 B960     		str	r1, [r7, #8]	@ float
 578 000a 1346     		mov	r3, r2
 579 000c FB71     		strb	r3, [r7, #7]
 580              	.LBB17:
 581              	.LBB18:
 112:core/WString.cpp **** {
 113:core/WString.cpp **** 	init();
 582              		.loc 1 113 0
 583 000e F868     		ldr	r0, [r7, #12]
 584 0010 FFF7FEFF 		bl	_ZN6String4initEv
 114:core/WString.cpp **** 	char buf[33];
 115:core/WString.cpp **** 	*this = dtostrf(value, (decimalPlaces + 2), decimalPlaces, buf);
 585              		.loc 1 115 0
 586 0014 B868     		ldr	r0, [r7, #8]	@ float
 587 0016 FFF7FEFF 		bl	__aeabi_f2d
 588 001a FB79     		ldrb	r3, [r7, #7]
 589 001c 0233     		adds	r3, r3, #2
 590 001e DBB2     		uxtb	r3, r3
 591 0020 DBB2     		uxtb	r3, r3
 592 0022 5AB2     		sxtb	r2, r3
 593 0024 FC79     		ldrb	r4, [r7, #7]	@ zero_extendqisi2
 594 0026 07F11403 		add	r3, r7, #20
 595 002a 0093     		str	r3, [sp]
 596 002c 2346     		mov	r3, r4
 597 002e FFF7FEFF 		bl	_Z7dtostrfdahPc
 598 0032 0346     		mov	r3, r0
 599 0034 F868     		ldr	r0, [r7, #12]
 600 0036 1946     		mov	r1, r3
 601 0038 FFF7FEFF 		bl	_ZN6StringaSEPKc
 602              	.LBE18:
 603              	.LBE17:
 116:core/WString.cpp **** }
 604              		.loc 1 116 0
 605 003c FB68     		ldr	r3, [r7, #12]
 606 003e 1846     		mov	r0, r3
 607 0040 3C37     		adds	r7, r7, #60
 608              		.cfi_def_cfa_offset 12
 609 0042 BD46     		mov	sp, r7
 610              		.cfi_def_cfa_register 13
 611              		@ sp needed
 612 0044 90BD     		pop	{r4, r7, pc}
 613              		.cfi_endproc
 614              	.LFE79:
 615              		.fnend
 616              		.size	_ZN6StringC2Efh, .-_ZN6StringC2Efh
 617              		.global	_ZN6StringC1Efh
 618              		.thumb_set _ZN6StringC1Efh,_ZN6StringC2Efh
 619 0046 00BF     		.section	.text._ZN6StringC2Edh,"ax",%progbits
 620              		.align	2
 621              		.global	_ZN6StringC2Edh
 622              		.thumb
 623              		.thumb_func
 624              		.type	_ZN6StringC2Edh, %function
 625              	_ZN6StringC2Edh:
ARM GAS  C:\Users\Bruger\AppData\Local\Temp\ccjLt6bf.s 			page 14


 626              		.fnstart
 627              	.LFB82:
 117:core/WString.cpp **** 
 118:core/WString.cpp **** String::String(double value, unsigned char decimalPlaces)
 628              		.loc 1 118 0
 629              		.cfi_startproc
 630              		@ args = 4, pretend = 0, frame = 56
 631              		@ frame_needed = 1, uses_anonymous_args = 0
 632 0000 90B5     		push	{r4, r7, lr}
 633              		.save {r4, r7, lr}
 634              		.cfi_def_cfa_offset 12
 635              		.cfi_offset 4, -12
 636              		.cfi_offset 7, -8
 637              		.cfi_offset 14, -4
 638              		.pad #68
 639 0002 91B0     		sub	sp, sp, #68
 640              		.cfi_def_cfa_offset 80
 641              		.setfp r7, sp, #8
 642 0004 02AF     		add	r7, sp, #8
 643              		.cfi_def_cfa 7, 72
 644 0006 F860     		str	r0, [r7, #12]
 645 0008 C7E90023 		strd	r2, [r7]
 646              	.LBB19:
 647              	.LBB20:
 119:core/WString.cpp **** {
 120:core/WString.cpp **** 	init();
 648              		.loc 1 120 0
 649 000c F868     		ldr	r0, [r7, #12]
 650 000e FFF7FEFF 		bl	_ZN6String4initEv
 121:core/WString.cpp **** 	char buf[33];
 122:core/WString.cpp **** 	*this = dtostrf(value, (decimalPlaces + 2), decimalPlaces, buf);
 651              		.loc 1 122 0
 652 0012 97F84830 		ldrb	r3, [r7, #72]
 653 0016 0233     		adds	r3, r3, #2
 654 0018 DBB2     		uxtb	r3, r3
 655 001a DBB2     		uxtb	r3, r3
 656 001c 5AB2     		sxtb	r2, r3
 657 001e 97F84840 		ldrb	r4, [r7, #72]	@ zero_extendqisi2
 658 0022 07F11403 		add	r3, r7, #20
 659 0026 0093     		str	r3, [sp]
 660 0028 D7E90001 		ldrd	r0, [r7]
 661 002c 2346     		mov	r3, r4
 662 002e FFF7FEFF 		bl	_Z7dtostrfdahPc
 663 0032 0346     		mov	r3, r0
 664 0034 F868     		ldr	r0, [r7, #12]
 665 0036 1946     		mov	r1, r3
 666 0038 FFF7FEFF 		bl	_ZN6StringaSEPKc
 667              	.LBE20:
 668              	.LBE19:
 123:core/WString.cpp **** }
 669              		.loc 1 123 0
 670 003c FB68     		ldr	r3, [r7, #12]
 671 003e 1846     		mov	r0, r3
 672 0040 3C37     		adds	r7, r7, #60
 673              		.cfi_def_cfa_offset 12
 674 0042 BD46     		mov	sp, r7
 675              		.cfi_def_cfa_register 13
ARM GAS  C:\Users\Bruger\AppData\Local\Temp\ccjLt6bf.s 			page 15


 676              		@ sp needed
 677 0044 90BD     		pop	{r4, r7, pc}
 678              		.cfi_endproc
 679              	.LFE82:
 680              		.fnend
 681              		.size	_ZN6StringC2Edh, .-_ZN6StringC2Edh
 682              		.global	_ZN6StringC1Edh
 683              		.thumb_set _ZN6StringC1Edh,_ZN6StringC2Edh
 684 0046 00BF     		.section	.text._ZN6StringD2Ev,"ax",%progbits
 685              		.align	2
 686              		.global	_ZN6StringD2Ev
 687              		.thumb
 688              		.thumb_func
 689              		.type	_ZN6StringD2Ev, %function
 690              	_ZN6StringD2Ev:
 691              		.fnstart
 692              	.LFB85:
 124:core/WString.cpp **** 
 125:core/WString.cpp **** String::~String()
 693              		.loc 1 125 0
 694              		.cfi_startproc
 695              		@ args = 0, pretend = 0, frame = 8
 696              		@ frame_needed = 1, uses_anonymous_args = 0
 697 0000 80B5     		push	{r7, lr}
 698              		.cfi_def_cfa_offset 8
 699              		.cfi_offset 7, -8
 700              		.cfi_offset 14, -4
 701 0002 82B0     		sub	sp, sp, #8
 702              		.cfi_def_cfa_offset 16
 703 0004 00AF     		add	r7, sp, #0
 704              		.cfi_def_cfa_register 7
 705 0006 7860     		str	r0, [r7, #4]
 706              	.LBB21:
 126:core/WString.cpp **** {
 127:core/WString.cpp **** 	free(buffer);
 707              		.loc 1 127 0
 708 0008 7B68     		ldr	r3, [r7, #4]
 709 000a 1B68     		ldr	r3, [r3]
 710 000c 1846     		mov	r0, r3
 711 000e FFF7FEFF 		bl	free
 712              	.LBE21:
 128:core/WString.cpp **** }
 713              		.loc 1 128 0
 714 0012 7B68     		ldr	r3, [r7, #4]
 715 0014 1846     		mov	r0, r3
 716 0016 0837     		adds	r7, r7, #8
 717              		.cfi_def_cfa_offset 8
 718 0018 BD46     		mov	sp, r7
 719              		.cfi_def_cfa_register 13
 720              		@ sp needed
 721 001a 80BD     		pop	{r7, pc}
 722              		.cfi_endproc
 723              	.LFE85:
 724              		.cantunwind
 725              		.fnend
 726              		.size	_ZN6StringD2Ev, .-_ZN6StringD2Ev
 727              		.global	_ZN6StringD1Ev
ARM GAS  C:\Users\Bruger\AppData\Local\Temp\ccjLt6bf.s 			page 16


 728              		.thumb_set _ZN6StringD1Ev,_ZN6StringD2Ev
 729              		.section	.text._ZN6String4initEv,"axG",%progbits,_ZN6String4initEv,comdat
 730              		.align	2
 731              		.weak	_ZN6String4initEv
 732              		.thumb
 733              		.thumb_func
 734              		.type	_ZN6String4initEv, %function
 735              	_ZN6String4initEv:
 736              		.fnstart
 737              	.LFB87:
 129:core/WString.cpp **** 
 130:core/WString.cpp **** /*********************************************/
 131:core/WString.cpp **** /*  Memory Management                        */
 132:core/WString.cpp **** /*********************************************/
 133:core/WString.cpp **** 
 134:core/WString.cpp **** inline void String::init(void)
 135:core/WString.cpp **** {
 738              		.loc 1 135 0
 739              		.cfi_startproc
 740              		@ args = 0, pretend = 0, frame = 8
 741              		@ frame_needed = 1, uses_anonymous_args = 0
 742              		@ link register save eliminated.
 743 0000 80B4     		push	{r7}
 744              		.cfi_def_cfa_offset 4
 745              		.cfi_offset 7, -4
 746 0002 83B0     		sub	sp, sp, #12
 747              		.cfi_def_cfa_offset 16
 748 0004 00AF     		add	r7, sp, #0
 749              		.cfi_def_cfa_register 7
 750 0006 7860     		str	r0, [r7, #4]
 136:core/WString.cpp **** 	buffer = NULL;
 751              		.loc 1 136 0
 752 0008 7B68     		ldr	r3, [r7, #4]
 753 000a 0022     		movs	r2, #0
 754 000c 1A60     		str	r2, [r3]
 137:core/WString.cpp **** 	capacity = 0;
 755              		.loc 1 137 0
 756 000e 7B68     		ldr	r3, [r7, #4]
 757 0010 0022     		movs	r2, #0
 758 0012 5A60     		str	r2, [r3, #4]
 138:core/WString.cpp **** 	len = 0;
 759              		.loc 1 138 0
 760 0014 7B68     		ldr	r3, [r7, #4]
 761 0016 0022     		movs	r2, #0
 762 0018 9A60     		str	r2, [r3, #8]
 139:core/WString.cpp **** }
 763              		.loc 1 139 0
 764 001a 0C37     		adds	r7, r7, #12
 765              		.cfi_def_cfa_offset 4
 766 001c BD46     		mov	sp, r7
 767              		.cfi_def_cfa_register 13
 768              		@ sp needed
 769 001e 5DF8047B 		ldr	r7, [sp], #4
 770              		.cfi_restore 7
 771              		.cfi_def_cfa_offset 0
 772 0022 7047     		bx	lr
 773              		.cfi_endproc
ARM GAS  C:\Users\Bruger\AppData\Local\Temp\ccjLt6bf.s 			page 17


 774              	.LFE87:
 775              		.cantunwind
 776              		.fnend
 777              		.size	_ZN6String4initEv, .-_ZN6String4initEv
 778              		.section	.text._ZN6String10invalidateEv,"ax",%progbits
 779              		.align	2
 780              		.global	_ZN6String10invalidateEv
 781              		.thumb
 782              		.thumb_func
 783              		.type	_ZN6String10invalidateEv, %function
 784              	_ZN6String10invalidateEv:
 785              		.fnstart
 786              	.LFB88:
 140:core/WString.cpp **** 
 141:core/WString.cpp **** void String::invalidate(void)
 142:core/WString.cpp **** {
 787              		.loc 1 142 0
 788              		.cfi_startproc
 789              		@ args = 0, pretend = 0, frame = 8
 790              		@ frame_needed = 1, uses_anonymous_args = 0
 791 0000 80B5     		push	{r7, lr}
 792              		.cfi_def_cfa_offset 8
 793              		.cfi_offset 7, -8
 794              		.cfi_offset 14, -4
 795 0002 82B0     		sub	sp, sp, #8
 796              		.cfi_def_cfa_offset 16
 797 0004 00AF     		add	r7, sp, #0
 798              		.cfi_def_cfa_register 7
 799 0006 7860     		str	r0, [r7, #4]
 143:core/WString.cpp **** 	if (buffer) free(buffer);
 800              		.loc 1 143 0
 801 0008 7B68     		ldr	r3, [r7, #4]
 802 000a 1B68     		ldr	r3, [r3]
 803 000c 002B     		cmp	r3, #0
 804 000e 04D0     		beq	.L39
 805              		.loc 1 143 0 is_stmt 0 discriminator 1
 806 0010 7B68     		ldr	r3, [r7, #4]
 807 0012 1B68     		ldr	r3, [r3]
 808 0014 1846     		mov	r0, r3
 809 0016 FFF7FEFF 		bl	free
 810              	.L39:
 144:core/WString.cpp **** 	buffer = NULL;
 811              		.loc 1 144 0 is_stmt 1
 812 001a 7B68     		ldr	r3, [r7, #4]
 813 001c 0022     		movs	r2, #0
 814 001e 1A60     		str	r2, [r3]
 145:core/WString.cpp **** 	capacity = len = 0;
 815              		.loc 1 145 0
 816 0020 7B68     		ldr	r3, [r7, #4]
 817 0022 0022     		movs	r2, #0
 818 0024 9A60     		str	r2, [r3, #8]
 819 0026 7B68     		ldr	r3, [r7, #4]
 820 0028 9A68     		ldr	r2, [r3, #8]
 821 002a 7B68     		ldr	r3, [r7, #4]
 822 002c 5A60     		str	r2, [r3, #4]
 146:core/WString.cpp **** }
 823              		.loc 1 146 0
ARM GAS  C:\Users\Bruger\AppData\Local\Temp\ccjLt6bf.s 			page 18


 824 002e 0837     		adds	r7, r7, #8
 825              		.cfi_def_cfa_offset 8
 826 0030 BD46     		mov	sp, r7
 827              		.cfi_def_cfa_register 13
 828              		@ sp needed
 829 0032 80BD     		pop	{r7, pc}
 830              		.cfi_endproc
 831              	.LFE88:
 832              		.cantunwind
 833              		.fnend
 834              		.size	_ZN6String10invalidateEv, .-_ZN6String10invalidateEv
 835              		.section	.text._ZN6String7reserveEj,"ax",%progbits
 836              		.align	2
 837              		.global	_ZN6String7reserveEj
 838              		.thumb
 839              		.thumb_func
 840              		.type	_ZN6String7reserveEj, %function
 841              	_ZN6String7reserveEj:
 842              		.fnstart
 843              	.LFB89:
 147:core/WString.cpp **** 
 148:core/WString.cpp **** unsigned char String::reserve(unsigned int size)
 149:core/WString.cpp **** {
 844              		.loc 1 149 0
 845              		.cfi_startproc
 846              		@ args = 0, pretend = 0, frame = 8
 847              		@ frame_needed = 1, uses_anonymous_args = 0
 848 0000 80B5     		push	{r7, lr}
 849              		.cfi_def_cfa_offset 8
 850              		.cfi_offset 7, -8
 851              		.cfi_offset 14, -4
 852 0002 82B0     		sub	sp, sp, #8
 853              		.cfi_def_cfa_offset 16
 854 0004 00AF     		add	r7, sp, #0
 855              		.cfi_def_cfa_register 7
 856 0006 7860     		str	r0, [r7, #4]
 857 0008 3960     		str	r1, [r7]
 150:core/WString.cpp **** 	if (buffer && capacity >= size) return 1;
 858              		.loc 1 150 0
 859 000a 7B68     		ldr	r3, [r7, #4]
 860 000c 1B68     		ldr	r3, [r3]
 861 000e 002B     		cmp	r3, #0
 862 0010 06D0     		beq	.L41
 863              		.loc 1 150 0 is_stmt 0 discriminator 1
 864 0012 7B68     		ldr	r3, [r7, #4]
 865 0014 5A68     		ldr	r2, [r3, #4]
 866 0016 3B68     		ldr	r3, [r7]
 867 0018 9A42     		cmp	r2, r3
 868 001a 01D3     		bcc	.L41
 869              		.loc 1 150 0 discriminator 2
 870 001c 0123     		movs	r3, #1
 871 001e 16E0     		b	.L42
 872              	.L41:
 151:core/WString.cpp **** 	if (changeBuffer(size)) {
 873              		.loc 1 151 0 is_stmt 1
 874 0020 7868     		ldr	r0, [r7, #4]
 875 0022 3968     		ldr	r1, [r7]
ARM GAS  C:\Users\Bruger\AppData\Local\Temp\ccjLt6bf.s 			page 19


 876 0024 FFF7FEFF 		bl	_ZN6String12changeBufferEj
 877 0028 0346     		mov	r3, r0
 878 002a 002B     		cmp	r3, #0
 879 002c 14BF     		ite	ne
 880 002e 0123     		movne	r3, #1
 881 0030 0023     		moveq	r3, #0
 882 0032 DBB2     		uxtb	r3, r3
 883 0034 002B     		cmp	r3, #0
 884 0036 09D0     		beq	.L43
 152:core/WString.cpp **** 		if (len == 0) buffer[0] = 0;
 885              		.loc 1 152 0
 886 0038 7B68     		ldr	r3, [r7, #4]
 887 003a 9B68     		ldr	r3, [r3, #8]
 888 003c 002B     		cmp	r3, #0
 889 003e 03D1     		bne	.L44
 890              		.loc 1 152 0 is_stmt 0 discriminator 1
 891 0040 7B68     		ldr	r3, [r7, #4]
 892 0042 1B68     		ldr	r3, [r3]
 893 0044 0022     		movs	r2, #0
 894 0046 1A70     		strb	r2, [r3]
 895              	.L44:
 153:core/WString.cpp **** 		return 1;
 896              		.loc 1 153 0 is_stmt 1
 897 0048 0123     		movs	r3, #1
 898 004a 00E0     		b	.L42
 899              	.L43:
 154:core/WString.cpp **** 	}
 155:core/WString.cpp **** 	return 0;
 900              		.loc 1 155 0
 901 004c 0023     		movs	r3, #0
 902              	.L42:
 156:core/WString.cpp **** }
 903              		.loc 1 156 0
 904 004e 1846     		mov	r0, r3
 905 0050 0837     		adds	r7, r7, #8
 906              		.cfi_def_cfa_offset 8
 907 0052 BD46     		mov	sp, r7
 908              		.cfi_def_cfa_register 13
 909              		@ sp needed
 910 0054 80BD     		pop	{r7, pc}
 911              		.cfi_endproc
 912              	.LFE89:
 913              		.cantunwind
 914              		.fnend
 915              		.size	_ZN6String7reserveEj, .-_ZN6String7reserveEj
 916 0056 00BF     		.section	.text._ZN6String12changeBufferEj,"ax",%progbits
 917              		.align	2
 918              		.global	_ZN6String12changeBufferEj
 919              		.thumb
 920              		.thumb_func
 921              		.type	_ZN6String12changeBufferEj, %function
 922              	_ZN6String12changeBufferEj:
 923              		.fnstart
 924              	.LFB90:
 157:core/WString.cpp **** 
 158:core/WString.cpp **** unsigned char String::changeBuffer(unsigned int maxStrLen)
 159:core/WString.cpp **** {
ARM GAS  C:\Users\Bruger\AppData\Local\Temp\ccjLt6bf.s 			page 20


 925              		.loc 1 159 0
 926              		.cfi_startproc
 927              		@ args = 0, pretend = 0, frame = 16
 928              		@ frame_needed = 1, uses_anonymous_args = 0
 929 0000 80B5     		push	{r7, lr}
 930              		.cfi_def_cfa_offset 8
 931              		.cfi_offset 7, -8
 932              		.cfi_offset 14, -4
 933 0002 84B0     		sub	sp, sp, #16
 934              		.cfi_def_cfa_offset 24
 935 0004 00AF     		add	r7, sp, #0
 936              		.cfi_def_cfa_register 7
 937 0006 7860     		str	r0, [r7, #4]
 938 0008 3960     		str	r1, [r7]
 939              	.LBB22:
 160:core/WString.cpp **** 	char *newbuffer = (char *)realloc(buffer, maxStrLen + 1);
 940              		.loc 1 160 0
 941 000a 7B68     		ldr	r3, [r7, #4]
 942 000c 1A68     		ldr	r2, [r3]
 943 000e 3B68     		ldr	r3, [r7]
 944 0010 0133     		adds	r3, r3, #1
 945 0012 1046     		mov	r0, r2
 946 0014 1946     		mov	r1, r3
 947 0016 FFF7FEFF 		bl	realloc
 948 001a F860     		str	r0, [r7, #12]
 161:core/WString.cpp **** 	if (newbuffer) {
 949              		.loc 1 161 0
 950 001c FB68     		ldr	r3, [r7, #12]
 951 001e 002B     		cmp	r3, #0
 952 0020 07D0     		beq	.L46
 162:core/WString.cpp **** 		buffer = newbuffer;
 953              		.loc 1 162 0
 954 0022 7B68     		ldr	r3, [r7, #4]
 955 0024 FA68     		ldr	r2, [r7, #12]
 956 0026 1A60     		str	r2, [r3]
 163:core/WString.cpp **** 		capacity = maxStrLen;
 957              		.loc 1 163 0
 958 0028 7B68     		ldr	r3, [r7, #4]
 959 002a 3A68     		ldr	r2, [r7]
 960 002c 5A60     		str	r2, [r3, #4]
 164:core/WString.cpp **** 		return 1;
 961              		.loc 1 164 0
 962 002e 0123     		movs	r3, #1
 963 0030 00E0     		b	.L47
 964              	.L46:
 165:core/WString.cpp **** 	}
 166:core/WString.cpp **** 	return 0;
 965              		.loc 1 166 0
 966 0032 0023     		movs	r3, #0
 967              	.L47:
 968              	.LBE22:
 167:core/WString.cpp **** }
 969              		.loc 1 167 0
 970 0034 1846     		mov	r0, r3
 971 0036 1037     		adds	r7, r7, #16
 972              		.cfi_def_cfa_offset 8
 973 0038 BD46     		mov	sp, r7
ARM GAS  C:\Users\Bruger\AppData\Local\Temp\ccjLt6bf.s 			page 21


 974              		.cfi_def_cfa_register 13
 975              		@ sp needed
 976 003a 80BD     		pop	{r7, pc}
 977              		.cfi_endproc
 978              	.LFE90:
 979              		.cantunwind
 980              		.fnend
 981              		.size	_ZN6String12changeBufferEj, .-_ZN6String12changeBufferEj
 982              		.section	.text._ZN6String4copyEPKcj,"ax",%progbits
 983              		.align	2
 984              		.global	_ZN6String4copyEPKcj
 985              		.thumb
 986              		.thumb_func
 987              		.type	_ZN6String4copyEPKcj, %function
 988              	_ZN6String4copyEPKcj:
 989              		.fnstart
 990              	.LFB91:
 168:core/WString.cpp **** 
 169:core/WString.cpp **** /*********************************************/
 170:core/WString.cpp **** /*  Copy and Move                            */
 171:core/WString.cpp **** /*********************************************/
 172:core/WString.cpp **** 
 173:core/WString.cpp **** String & String::copy(const char *cstr, unsigned int length)
 174:core/WString.cpp **** {
 991              		.loc 1 174 0
 992              		.cfi_startproc
 993              		@ args = 0, pretend = 0, frame = 16
 994              		@ frame_needed = 1, uses_anonymous_args = 0
 995 0000 80B5     		push	{r7, lr}
 996              		.cfi_def_cfa_offset 8
 997              		.cfi_offset 7, -8
 998              		.cfi_offset 14, -4
 999 0002 84B0     		sub	sp, sp, #16
 1000              		.cfi_def_cfa_offset 24
 1001 0004 00AF     		add	r7, sp, #0
 1002              		.cfi_def_cfa_register 7
 1003 0006 F860     		str	r0, [r7, #12]
 1004 0008 B960     		str	r1, [r7, #8]
 1005 000a 7A60     		str	r2, [r7, #4]
 175:core/WString.cpp **** 	if (!reserve(length)) {
 1006              		.loc 1 175 0
 1007 000c F868     		ldr	r0, [r7, #12]
 1008 000e 7968     		ldr	r1, [r7, #4]
 1009 0010 FFF7FEFF 		bl	_ZN6String7reserveEj
 1010 0014 0346     		mov	r3, r0
 1011 0016 002B     		cmp	r3, #0
 1012 0018 0CBF     		ite	eq
 1013 001a 0123     		moveq	r3, #1
 1014 001c 0023     		movne	r3, #0
 1015 001e DBB2     		uxtb	r3, r3
 1016 0020 002B     		cmp	r3, #0
 1017 0022 04D0     		beq	.L49
 176:core/WString.cpp **** 		invalidate();
 1018              		.loc 1 176 0
 1019 0024 F868     		ldr	r0, [r7, #12]
 1020 0026 FFF7FEFF 		bl	_ZN6String10invalidateEv
 177:core/WString.cpp **** 		return *this;
ARM GAS  C:\Users\Bruger\AppData\Local\Temp\ccjLt6bf.s 			page 22


 1021              		.loc 1 177 0
 1022 002a FB68     		ldr	r3, [r7, #12]
 1023 002c 09E0     		b	.L50
 1024              	.L49:
 178:core/WString.cpp **** 	}
 179:core/WString.cpp **** 	len = length;
 1025              		.loc 1 179 0
 1026 002e FB68     		ldr	r3, [r7, #12]
 1027 0030 7A68     		ldr	r2, [r7, #4]
 1028 0032 9A60     		str	r2, [r3, #8]
 180:core/WString.cpp **** 	strcpy(buffer, cstr);
 1029              		.loc 1 180 0
 1030 0034 FB68     		ldr	r3, [r7, #12]
 1031 0036 1B68     		ldr	r3, [r3]
 1032 0038 1846     		mov	r0, r3
 1033 003a B968     		ldr	r1, [r7, #8]
 1034 003c FFF7FEFF 		bl	strcpy
 181:core/WString.cpp **** 	return *this;
 1035              		.loc 1 181 0
 1036 0040 FB68     		ldr	r3, [r7, #12]
 1037              	.L50:
 182:core/WString.cpp **** }
 1038              		.loc 1 182 0
 1039 0042 1846     		mov	r0, r3
 1040 0044 1037     		adds	r7, r7, #16
 1041              		.cfi_def_cfa_offset 8
 1042 0046 BD46     		mov	sp, r7
 1043              		.cfi_def_cfa_register 13
 1044              		@ sp needed
 1045 0048 80BD     		pop	{r7, pc}
 1046              		.cfi_endproc
 1047              	.LFE91:
 1048              		.cantunwind
 1049              		.fnend
 1050              		.size	_ZN6String4copyEPKcj, .-_ZN6String4copyEPKcj
 1051 004a 00BF     		.section	.text._ZN6String4copyEPK19__FlashStringHelperj,"ax",%progbits
 1052              		.align	2
 1053              		.global	_ZN6String4copyEPK19__FlashStringHelperj
 1054              		.thumb
 1055              		.thumb_func
 1056              		.type	_ZN6String4copyEPK19__FlashStringHelperj, %function
 1057              	_ZN6String4copyEPK19__FlashStringHelperj:
 1058              		.fnstart
 1059              	.LFB92:
 183:core/WString.cpp **** 
 184:core/WString.cpp **** String & String::copy(const __FlashStringHelper *pstr, unsigned int length)
 185:core/WString.cpp **** {
 1060              		.loc 1 185 0
 1061              		.cfi_startproc
 1062              		@ args = 0, pretend = 0, frame = 16
 1063              		@ frame_needed = 1, uses_anonymous_args = 0
 1064 0000 80B5     		push	{r7, lr}
 1065              		.cfi_def_cfa_offset 8
 1066              		.cfi_offset 7, -8
 1067              		.cfi_offset 14, -4
 1068 0002 84B0     		sub	sp, sp, #16
 1069              		.cfi_def_cfa_offset 24
ARM GAS  C:\Users\Bruger\AppData\Local\Temp\ccjLt6bf.s 			page 23


 1070 0004 00AF     		add	r7, sp, #0
 1071              		.cfi_def_cfa_register 7
 1072 0006 F860     		str	r0, [r7, #12]
 1073 0008 B960     		str	r1, [r7, #8]
 1074 000a 7A60     		str	r2, [r7, #4]
 186:core/WString.cpp **** 	if (!reserve(length)) {
 1075              		.loc 1 186 0
 1076 000c F868     		ldr	r0, [r7, #12]
 1077 000e 7968     		ldr	r1, [r7, #4]
 1078 0010 FFF7FEFF 		bl	_ZN6String7reserveEj
 1079 0014 0346     		mov	r3, r0
 1080 0016 002B     		cmp	r3, #0
 1081 0018 0CBF     		ite	eq
 1082 001a 0123     		moveq	r3, #1
 1083 001c 0023     		movne	r3, #0
 1084 001e DBB2     		uxtb	r3, r3
 1085 0020 002B     		cmp	r3, #0
 1086 0022 04D0     		beq	.L52
 187:core/WString.cpp **** 		invalidate();
 1087              		.loc 1 187 0
 1088 0024 F868     		ldr	r0, [r7, #12]
 1089 0026 FFF7FEFF 		bl	_ZN6String10invalidateEv
 188:core/WString.cpp **** 		return *this;
 1090              		.loc 1 188 0
 1091 002a FB68     		ldr	r3, [r7, #12]
 1092 002c 09E0     		b	.L53
 1093              	.L52:
 189:core/WString.cpp **** 	}
 190:core/WString.cpp **** 	len = length;
 1094              		.loc 1 190 0
 1095 002e FB68     		ldr	r3, [r7, #12]
 1096 0030 7A68     		ldr	r2, [r7, #4]
 1097 0032 9A60     		str	r2, [r3, #8]
 191:core/WString.cpp **** 	strcpy_P(buffer, (PGM_P)pstr);
 1098              		.loc 1 191 0
 1099 0034 FB68     		ldr	r3, [r7, #12]
 1100 0036 1B68     		ldr	r3, [r3]
 1101 0038 1846     		mov	r0, r3
 1102 003a B968     		ldr	r1, [r7, #8]
 1103 003c FFF7FEFF 		bl	strcpy
 192:core/WString.cpp **** 	return *this;
 1104              		.loc 1 192 0
 1105 0040 FB68     		ldr	r3, [r7, #12]
 1106              	.L53:
 193:core/WString.cpp **** }
 1107              		.loc 1 193 0
 1108 0042 1846     		mov	r0, r3
 1109 0044 1037     		adds	r7, r7, #16
 1110              		.cfi_def_cfa_offset 8
 1111 0046 BD46     		mov	sp, r7
 1112              		.cfi_def_cfa_register 13
 1113              		@ sp needed
 1114 0048 80BD     		pop	{r7, pc}
 1115              		.cfi_endproc
 1116              	.LFE92:
 1117              		.cantunwind
 1118              		.fnend
ARM GAS  C:\Users\Bruger\AppData\Local\Temp\ccjLt6bf.s 			page 24


 1119              		.size	_ZN6String4copyEPK19__FlashStringHelperj, .-_ZN6String4copyEPK19__FlashStringHelperj
 1120 004a 00BF     		.section	.text._ZN6StringaSERKS_,"ax",%progbits
 1121              		.align	2
 1122              		.global	_ZN6StringaSERKS_
 1123              		.thumb
 1124              		.thumb_func
 1125              		.type	_ZN6StringaSERKS_, %function
 1126              	_ZN6StringaSERKS_:
 1127              		.fnstart
 1128              	.LFB93:
 194:core/WString.cpp **** 
 195:core/WString.cpp **** #ifdef __GXX_EXPERIMENTAL_CXX0X__
 196:core/WString.cpp **** void String::move(String &rhs)
 197:core/WString.cpp **** {
 198:core/WString.cpp **** 	if (buffer) {
 199:core/WString.cpp **** 		if (capacity >= rhs.len) {
 200:core/WString.cpp **** 			strcpy(buffer, rhs.buffer);
 201:core/WString.cpp **** 			len = rhs.len;
 202:core/WString.cpp **** 			rhs.len = 0;
 203:core/WString.cpp **** 			return;
 204:core/WString.cpp **** 		} else {
 205:core/WString.cpp **** 			free(buffer);
 206:core/WString.cpp **** 		}
 207:core/WString.cpp **** 	}
 208:core/WString.cpp **** 	buffer = rhs.buffer;
 209:core/WString.cpp **** 	capacity = rhs.capacity;
 210:core/WString.cpp **** 	len = rhs.len;
 211:core/WString.cpp **** 	rhs.buffer = NULL;
 212:core/WString.cpp **** 	rhs.capacity = 0;
 213:core/WString.cpp **** 	rhs.len = 0;
 214:core/WString.cpp **** }
 215:core/WString.cpp **** #endif
 216:core/WString.cpp **** 
 217:core/WString.cpp **** String & String::operator = (const String &rhs)
 218:core/WString.cpp **** {
 1129              		.loc 1 218 0
 1130              		.cfi_startproc
 1131              		@ args = 0, pretend = 0, frame = 8
 1132              		@ frame_needed = 1, uses_anonymous_args = 0
 1133 0000 80B5     		push	{r7, lr}
 1134              		.cfi_def_cfa_offset 8
 1135              		.cfi_offset 7, -8
 1136              		.cfi_offset 14, -4
 1137 0002 82B0     		sub	sp, sp, #8
 1138              		.cfi_def_cfa_offset 16
 1139 0004 00AF     		add	r7, sp, #0
 1140              		.cfi_def_cfa_register 7
 1141 0006 7860     		str	r0, [r7, #4]
 1142 0008 3960     		str	r1, [r7]
 219:core/WString.cpp **** 	if (this == &rhs) return *this;
 1143              		.loc 1 219 0
 1144 000a 7A68     		ldr	r2, [r7, #4]
 1145 000c 3B68     		ldr	r3, [r7]
 1146 000e 9A42     		cmp	r2, r3
 1147 0010 01D1     		bne	.L55
 1148              		.loc 1 219 0 is_stmt 0 discriminator 1
 1149 0012 7B68     		ldr	r3, [r7, #4]
ARM GAS  C:\Users\Bruger\AppData\Local\Temp\ccjLt6bf.s 			page 25


 1150 0014 11E0     		b	.L56
 1151              	.L55:
 220:core/WString.cpp **** 	
 221:core/WString.cpp **** 	if (rhs.buffer) copy(rhs.buffer, rhs.len);
 1152              		.loc 1 221 0 is_stmt 1
 1153 0016 3B68     		ldr	r3, [r7]
 1154 0018 1B68     		ldr	r3, [r3]
 1155 001a 002B     		cmp	r3, #0
 1156 001c 09D0     		beq	.L57
 1157              		.loc 1 221 0 is_stmt 0 discriminator 1
 1158 001e 3B68     		ldr	r3, [r7]
 1159 0020 1A68     		ldr	r2, [r3]
 1160 0022 3B68     		ldr	r3, [r7]
 1161 0024 9B68     		ldr	r3, [r3, #8]
 1162 0026 7868     		ldr	r0, [r7, #4]
 1163 0028 1146     		mov	r1, r2
 1164 002a 1A46     		mov	r2, r3
 1165 002c FFF7FEFF 		bl	_ZN6String4copyEPKcj
 1166 0030 02E0     		b	.L58
 1167              	.L57:
 222:core/WString.cpp **** 	else invalidate();
 1168              		.loc 1 222 0 is_stmt 1
 1169 0032 7868     		ldr	r0, [r7, #4]
 1170 0034 FFF7FEFF 		bl	_ZN6String10invalidateEv
 1171              	.L58:
 223:core/WString.cpp **** 	
 224:core/WString.cpp **** 	return *this;
 1172              		.loc 1 224 0
 1173 0038 7B68     		ldr	r3, [r7, #4]
 1174              	.L56:
 225:core/WString.cpp **** }
 1175              		.loc 1 225 0
 1176 003a 1846     		mov	r0, r3
 1177 003c 0837     		adds	r7, r7, #8
 1178              		.cfi_def_cfa_offset 8
 1179 003e BD46     		mov	sp, r7
 1180              		.cfi_def_cfa_register 13
 1181              		@ sp needed
 1182 0040 80BD     		pop	{r7, pc}
 1183              		.cfi_endproc
 1184              	.LFE93:
 1185              		.cantunwind
 1186              		.fnend
 1187              		.size	_ZN6StringaSERKS_, .-_ZN6StringaSERKS_
 1188 0042 00BF     		.section	.text._ZN6StringaSEPKc,"ax",%progbits
 1189              		.align	2
 1190              		.global	_ZN6StringaSEPKc
 1191              		.thumb
 1192              		.thumb_func
 1193              		.type	_ZN6StringaSEPKc, %function
 1194              	_ZN6StringaSEPKc:
 1195              		.fnstart
 1196              	.LFB94:
 226:core/WString.cpp **** 
 227:core/WString.cpp **** #ifdef __GXX_EXPERIMENTAL_CXX0X__
 228:core/WString.cpp **** String & String::operator = (String &&rval)
 229:core/WString.cpp **** {
ARM GAS  C:\Users\Bruger\AppData\Local\Temp\ccjLt6bf.s 			page 26


 230:core/WString.cpp **** 	if (this != &rval) move(rval);
 231:core/WString.cpp **** 	return *this;
 232:core/WString.cpp **** }
 233:core/WString.cpp **** 
 234:core/WString.cpp **** String & String::operator = (StringSumHelper &&rval)
 235:core/WString.cpp **** {
 236:core/WString.cpp **** 	if (this != &rval) move(rval);
 237:core/WString.cpp **** 	return *this;
 238:core/WString.cpp **** }
 239:core/WString.cpp **** #endif
 240:core/WString.cpp **** 
 241:core/WString.cpp **** String & String::operator = (const char *cstr)
 242:core/WString.cpp **** {
 1197              		.loc 1 242 0
 1198              		.cfi_startproc
 1199              		@ args = 0, pretend = 0, frame = 8
 1200              		@ frame_needed = 1, uses_anonymous_args = 0
 1201 0000 80B5     		push	{r7, lr}
 1202              		.cfi_def_cfa_offset 8
 1203              		.cfi_offset 7, -8
 1204              		.cfi_offset 14, -4
 1205 0002 82B0     		sub	sp, sp, #8
 1206              		.cfi_def_cfa_offset 16
 1207 0004 00AF     		add	r7, sp, #0
 1208              		.cfi_def_cfa_register 7
 1209 0006 7860     		str	r0, [r7, #4]
 1210 0008 3960     		str	r1, [r7]
 243:core/WString.cpp **** 	if (cstr) copy(cstr, strlen(cstr));
 1211              		.loc 1 243 0
 1212 000a 3B68     		ldr	r3, [r7]
 1213 000c 002B     		cmp	r3, #0
 1214 000e 09D0     		beq	.L60
 1215              		.loc 1 243 0 is_stmt 0 discriminator 1
 1216 0010 3868     		ldr	r0, [r7]
 1217 0012 FFF7FEFF 		bl	strlen
 1218 0016 0346     		mov	r3, r0
 1219 0018 7868     		ldr	r0, [r7, #4]
 1220 001a 3968     		ldr	r1, [r7]
 1221 001c 1A46     		mov	r2, r3
 1222 001e FFF7FEFF 		bl	_ZN6String4copyEPKcj
 1223 0022 02E0     		b	.L61
 1224              	.L60:
 244:core/WString.cpp **** 	else invalidate();
 1225              		.loc 1 244 0 is_stmt 1
 1226 0024 7868     		ldr	r0, [r7, #4]
 1227 0026 FFF7FEFF 		bl	_ZN6String10invalidateEv
 1228              	.L61:
 245:core/WString.cpp **** 	
 246:core/WString.cpp **** 	return *this;
 1229              		.loc 1 246 0
 1230 002a 7B68     		ldr	r3, [r7, #4]
 247:core/WString.cpp **** }
 1231              		.loc 1 247 0
 1232 002c 1846     		mov	r0, r3
 1233 002e 0837     		adds	r7, r7, #8
 1234              		.cfi_def_cfa_offset 8
 1235 0030 BD46     		mov	sp, r7
ARM GAS  C:\Users\Bruger\AppData\Local\Temp\ccjLt6bf.s 			page 27


 1236              		.cfi_def_cfa_register 13
 1237              		@ sp needed
 1238 0032 80BD     		pop	{r7, pc}
 1239              		.cfi_endproc
 1240              	.LFE94:
 1241              		.cantunwind
 1242              		.fnend
 1243              		.size	_ZN6StringaSEPKc, .-_ZN6StringaSEPKc
 1244              		.section	.text._ZN6StringaSEPK19__FlashStringHelper,"ax",%progbits
 1245              		.align	2
 1246              		.global	_ZN6StringaSEPK19__FlashStringHelper
 1247              		.thumb
 1248              		.thumb_func
 1249              		.type	_ZN6StringaSEPK19__FlashStringHelper, %function
 1250              	_ZN6StringaSEPK19__FlashStringHelper:
 1251              		.fnstart
 1252              	.LFB95:
 248:core/WString.cpp **** 
 249:core/WString.cpp **** String & String::operator = (const __FlashStringHelper *pstr)
 250:core/WString.cpp **** {
 1253              		.loc 1 250 0
 1254              		.cfi_startproc
 1255              		@ args = 0, pretend = 0, frame = 8
 1256              		@ frame_needed = 1, uses_anonymous_args = 0
 1257 0000 80B5     		push	{r7, lr}
 1258              		.cfi_def_cfa_offset 8
 1259              		.cfi_offset 7, -8
 1260              		.cfi_offset 14, -4
 1261 0002 82B0     		sub	sp, sp, #8
 1262              		.cfi_def_cfa_offset 16
 1263 0004 00AF     		add	r7, sp, #0
 1264              		.cfi_def_cfa_register 7
 1265 0006 7860     		str	r0, [r7, #4]
 1266 0008 3960     		str	r1, [r7]
 251:core/WString.cpp **** 	if (pstr) copy(pstr, strlen_P((PGM_P)pstr));
 1267              		.loc 1 251 0
 1268 000a 3B68     		ldr	r3, [r7]
 1269 000c 002B     		cmp	r3, #0
 1270 000e 09D0     		beq	.L64
 1271              		.loc 1 251 0 is_stmt 0 discriminator 1
 1272 0010 3868     		ldr	r0, [r7]
 1273 0012 FFF7FEFF 		bl	strlen
 1274 0016 0346     		mov	r3, r0
 1275 0018 7868     		ldr	r0, [r7, #4]
 1276 001a 3968     		ldr	r1, [r7]
 1277 001c 1A46     		mov	r2, r3
 1278 001e FFF7FEFF 		bl	_ZN6String4copyEPK19__FlashStringHelperj
 1279 0022 02E0     		b	.L65
 1280              	.L64:
 252:core/WString.cpp **** 	else invalidate();
 1281              		.loc 1 252 0 is_stmt 1
 1282 0024 7868     		ldr	r0, [r7, #4]
 1283 0026 FFF7FEFF 		bl	_ZN6String10invalidateEv
 1284              	.L65:
 253:core/WString.cpp **** 
 254:core/WString.cpp **** 	return *this;
 1285              		.loc 1 254 0
ARM GAS  C:\Users\Bruger\AppData\Local\Temp\ccjLt6bf.s 			page 28


 1286 002a 7B68     		ldr	r3, [r7, #4]
 255:core/WString.cpp **** }
 1287              		.loc 1 255 0
 1288 002c 1846     		mov	r0, r3
 1289 002e 0837     		adds	r7, r7, #8
 1290              		.cfi_def_cfa_offset 8
 1291 0030 BD46     		mov	sp, r7
 1292              		.cfi_def_cfa_register 13
 1293              		@ sp needed
 1294 0032 80BD     		pop	{r7, pc}
 1295              		.cfi_endproc
 1296              	.LFE95:
 1297              		.cantunwind
 1298              		.fnend
 1299              		.size	_ZN6StringaSEPK19__FlashStringHelper, .-_ZN6StringaSEPK19__FlashStringHelper
 1300              		.section	.text._ZN6String6concatERKS_,"ax",%progbits
 1301              		.align	2
 1302              		.global	_ZN6String6concatERKS_
 1303              		.thumb
 1304              		.thumb_func
 1305              		.type	_ZN6String6concatERKS_, %function
 1306              	_ZN6String6concatERKS_:
 1307              		.fnstart
 1308              	.LFB96:
 256:core/WString.cpp **** 
 257:core/WString.cpp **** /*********************************************/
 258:core/WString.cpp **** /*  concat                                   */
 259:core/WString.cpp **** /*********************************************/
 260:core/WString.cpp **** 
 261:core/WString.cpp **** unsigned char String::concat(const String &s)
 262:core/WString.cpp **** {
 1309              		.loc 1 262 0
 1310              		.cfi_startproc
 1311              		@ args = 0, pretend = 0, frame = 8
 1312              		@ frame_needed = 1, uses_anonymous_args = 0
 1313 0000 80B5     		push	{r7, lr}
 1314              		.save {r7, lr}
 1315              		.cfi_def_cfa_offset 8
 1316              		.cfi_offset 7, -8
 1317              		.cfi_offset 14, -4
 1318              		.pad #8
 1319 0002 82B0     		sub	sp, sp, #8
 1320              		.cfi_def_cfa_offset 16
 1321              		.setfp r7, sp, #0
 1322 0004 00AF     		add	r7, sp, #0
 1323              		.cfi_def_cfa_register 7
 1324 0006 7860     		str	r0, [r7, #4]
 1325 0008 3960     		str	r1, [r7]
 263:core/WString.cpp **** 	return concat(s.buffer, s.len);
 1326              		.loc 1 263 0
 1327 000a 3B68     		ldr	r3, [r7]
 1328 000c 1A68     		ldr	r2, [r3]
 1329 000e 3B68     		ldr	r3, [r7]
 1330 0010 9B68     		ldr	r3, [r3, #8]
 1331 0012 7868     		ldr	r0, [r7, #4]
 1332 0014 1146     		mov	r1, r2
 1333 0016 1A46     		mov	r2, r3
ARM GAS  C:\Users\Bruger\AppData\Local\Temp\ccjLt6bf.s 			page 29


 1334 0018 FFF7FEFF 		bl	_ZN6String6concatEPKcj
 1335 001c 0346     		mov	r3, r0
 264:core/WString.cpp **** }
 1336              		.loc 1 264 0
 1337 001e 1846     		mov	r0, r3
 1338 0020 0837     		adds	r7, r7, #8
 1339              		.cfi_def_cfa_offset 8
 1340 0022 BD46     		mov	sp, r7
 1341              		.cfi_def_cfa_register 13
 1342              		@ sp needed
 1343 0024 80BD     		pop	{r7, pc}
 1344              		.cfi_endproc
 1345              	.LFE96:
 1346              		.fnend
 1347              		.size	_ZN6String6concatERKS_, .-_ZN6String6concatERKS_
 1348 0026 00BF     		.section	.text._ZN6String6concatEPKcj,"ax",%progbits
 1349              		.align	2
 1350              		.global	_ZN6String6concatEPKcj
 1351              		.thumb
 1352              		.thumb_func
 1353              		.type	_ZN6String6concatEPKcj, %function
 1354              	_ZN6String6concatEPKcj:
 1355              		.fnstart
 1356              	.LFB97:
 265:core/WString.cpp **** 
 266:core/WString.cpp **** unsigned char String::concat(const char *cstr, unsigned int length)
 267:core/WString.cpp **** {
 1357              		.loc 1 267 0
 1358              		.cfi_startproc
 1359              		@ args = 0, pretend = 0, frame = 24
 1360              		@ frame_needed = 1, uses_anonymous_args = 0
 1361 0000 80B5     		push	{r7, lr}
 1362              		.cfi_def_cfa_offset 8
 1363              		.cfi_offset 7, -8
 1364              		.cfi_offset 14, -4
 1365 0002 86B0     		sub	sp, sp, #24
 1366              		.cfi_def_cfa_offset 32
 1367 0004 00AF     		add	r7, sp, #0
 1368              		.cfi_def_cfa_register 7
 1369 0006 F860     		str	r0, [r7, #12]
 1370 0008 B960     		str	r1, [r7, #8]
 1371 000a 7A60     		str	r2, [r7, #4]
 1372              	.LBB23:
 268:core/WString.cpp **** 	unsigned int newlen = len + length;
 1373              		.loc 1 268 0
 1374 000c FB68     		ldr	r3, [r7, #12]
 1375 000e 9A68     		ldr	r2, [r3, #8]
 1376 0010 7B68     		ldr	r3, [r7, #4]
 1377 0012 1344     		add	r3, r3, r2
 1378 0014 7B61     		str	r3, [r7, #20]
 269:core/WString.cpp **** 	if (!cstr) return 0;
 1379              		.loc 1 269 0
 1380 0016 BB68     		ldr	r3, [r7, #8]
 1381 0018 002B     		cmp	r3, #0
 1382 001a 01D1     		bne	.L70
 1383              		.loc 1 269 0 is_stmt 0 discriminator 1
 1384 001c 0023     		movs	r3, #0
ARM GAS  C:\Users\Bruger\AppData\Local\Temp\ccjLt6bf.s 			page 30


 1385 001e 1FE0     		b	.L71
 1386              	.L70:
 270:core/WString.cpp **** 	if (length == 0) return 1;
 1387              		.loc 1 270 0 is_stmt 1
 1388 0020 7B68     		ldr	r3, [r7, #4]
 1389 0022 002B     		cmp	r3, #0
 1390 0024 01D1     		bne	.L72
 1391              		.loc 1 270 0 is_stmt 0 discriminator 1
 1392 0026 0123     		movs	r3, #1
 1393 0028 1AE0     		b	.L71
 1394              	.L72:
 271:core/WString.cpp **** 	if (!reserve(newlen)) return 0;
 1395              		.loc 1 271 0 is_stmt 1
 1396 002a F868     		ldr	r0, [r7, #12]
 1397 002c 7969     		ldr	r1, [r7, #20]
 1398 002e FFF7FEFF 		bl	_ZN6String7reserveEj
 1399 0032 0346     		mov	r3, r0
 1400 0034 002B     		cmp	r3, #0
 1401 0036 0CBF     		ite	eq
 1402 0038 0123     		moveq	r3, #1
 1403 003a 0023     		movne	r3, #0
 1404 003c DBB2     		uxtb	r3, r3
 1405 003e 002B     		cmp	r3, #0
 1406 0040 01D0     		beq	.L73
 1407              		.loc 1 271 0 is_stmt 0 discriminator 1
 1408 0042 0023     		movs	r3, #0
 1409 0044 0CE0     		b	.L71
 1410              	.L73:
 272:core/WString.cpp **** 	strcpy(buffer + len, cstr);
 1411              		.loc 1 272 0 is_stmt 1
 1412 0046 FB68     		ldr	r3, [r7, #12]
 1413 0048 1A68     		ldr	r2, [r3]
 1414 004a FB68     		ldr	r3, [r7, #12]
 1415 004c 9B68     		ldr	r3, [r3, #8]
 1416 004e 1344     		add	r3, r3, r2
 1417 0050 1846     		mov	r0, r3
 1418 0052 B968     		ldr	r1, [r7, #8]
 1419 0054 FFF7FEFF 		bl	strcpy
 273:core/WString.cpp **** 	len = newlen;
 1420              		.loc 1 273 0
 1421 0058 FB68     		ldr	r3, [r7, #12]
 1422 005a 7A69     		ldr	r2, [r7, #20]
 1423 005c 9A60     		str	r2, [r3, #8]
 274:core/WString.cpp **** 	return 1;
 1424              		.loc 1 274 0
 1425 005e 0123     		movs	r3, #1
 1426              	.L71:
 1427              	.LBE23:
 275:core/WString.cpp **** }
 1428              		.loc 1 275 0
 1429 0060 1846     		mov	r0, r3
 1430 0062 1837     		adds	r7, r7, #24
 1431              		.cfi_def_cfa_offset 8
 1432 0064 BD46     		mov	sp, r7
 1433              		.cfi_def_cfa_register 13
 1434              		@ sp needed
 1435 0066 80BD     		pop	{r7, pc}
ARM GAS  C:\Users\Bruger\AppData\Local\Temp\ccjLt6bf.s 			page 31


 1436              		.cfi_endproc
 1437              	.LFE97:
 1438              		.cantunwind
 1439              		.fnend
 1440              		.size	_ZN6String6concatEPKcj, .-_ZN6String6concatEPKcj
 1441              		.section	.text._ZN6String6concatEPKc,"ax",%progbits
 1442              		.align	2
 1443              		.global	_ZN6String6concatEPKc
 1444              		.thumb
 1445              		.thumb_func
 1446              		.type	_ZN6String6concatEPKc, %function
 1447              	_ZN6String6concatEPKc:
 1448              		.fnstart
 1449              	.LFB98:
 276:core/WString.cpp **** 
 277:core/WString.cpp **** unsigned char String::concat(const char *cstr)
 278:core/WString.cpp **** {
 1450              		.loc 1 278 0
 1451              		.cfi_startproc
 1452              		@ args = 0, pretend = 0, frame = 8
 1453              		@ frame_needed = 1, uses_anonymous_args = 0
 1454 0000 80B5     		push	{r7, lr}
 1455              		.cfi_def_cfa_offset 8
 1456              		.cfi_offset 7, -8
 1457              		.cfi_offset 14, -4
 1458 0002 82B0     		sub	sp, sp, #8
 1459              		.cfi_def_cfa_offset 16
 1460 0004 00AF     		add	r7, sp, #0
 1461              		.cfi_def_cfa_register 7
 1462 0006 7860     		str	r0, [r7, #4]
 1463 0008 3960     		str	r1, [r7]
 279:core/WString.cpp **** 	if (!cstr) return 0;
 1464              		.loc 1 279 0
 1465 000a 3B68     		ldr	r3, [r7]
 1466 000c 002B     		cmp	r3, #0
 1467 000e 01D1     		bne	.L75
 1468              		.loc 1 279 0 is_stmt 0 discriminator 1
 1469 0010 0023     		movs	r3, #0
 1470 0012 09E0     		b	.L76
 1471              	.L75:
 280:core/WString.cpp **** 	return concat(cstr, strlen(cstr));
 1472              		.loc 1 280 0 is_stmt 1
 1473 0014 3868     		ldr	r0, [r7]
 1474 0016 FFF7FEFF 		bl	strlen
 1475 001a 0346     		mov	r3, r0
 1476 001c 7868     		ldr	r0, [r7, #4]
 1477 001e 3968     		ldr	r1, [r7]
 1478 0020 1A46     		mov	r2, r3
 1479 0022 FFF7FEFF 		bl	_ZN6String6concatEPKcj
 1480 0026 0346     		mov	r3, r0
 1481              	.L76:
 281:core/WString.cpp **** }
 1482              		.loc 1 281 0
 1483 0028 1846     		mov	r0, r3
 1484 002a 0837     		adds	r7, r7, #8
 1485              		.cfi_def_cfa_offset 8
 1486 002c BD46     		mov	sp, r7
ARM GAS  C:\Users\Bruger\AppData\Local\Temp\ccjLt6bf.s 			page 32


 1487              		.cfi_def_cfa_register 13
 1488              		@ sp needed
 1489 002e 80BD     		pop	{r7, pc}
 1490              		.cfi_endproc
 1491              	.LFE98:
 1492              		.cantunwind
 1493              		.fnend
 1494              		.size	_ZN6String6concatEPKc, .-_ZN6String6concatEPKc
 1495              		.section	.text._ZN6String6concatEc,"ax",%progbits
 1496              		.align	2
 1497              		.global	_ZN6String6concatEc
 1498              		.thumb
 1499              		.thumb_func
 1500              		.type	_ZN6String6concatEc, %function
 1501              	_ZN6String6concatEc:
 1502              		.fnstart
 1503              	.LFB99:
 282:core/WString.cpp **** 
 283:core/WString.cpp **** unsigned char String::concat(char c)
 284:core/WString.cpp **** {
 1504              		.loc 1 284 0
 1505              		.cfi_startproc
 1506              		@ args = 0, pretend = 0, frame = 16
 1507              		@ frame_needed = 1, uses_anonymous_args = 0
 1508 0000 80B5     		push	{r7, lr}
 1509              		.cfi_def_cfa_offset 8
 1510              		.cfi_offset 7, -8
 1511              		.cfi_offset 14, -4
 1512 0002 84B0     		sub	sp, sp, #16
 1513              		.cfi_def_cfa_offset 24
 1514 0004 00AF     		add	r7, sp, #0
 1515              		.cfi_def_cfa_register 7
 1516 0006 7860     		str	r0, [r7, #4]
 1517 0008 0B46     		mov	r3, r1
 1518 000a FB70     		strb	r3, [r7, #3]
 1519              	.LBB24:
 285:core/WString.cpp **** 	char buf[2];
 286:core/WString.cpp **** 	buf[0] = c;
 1520              		.loc 1 286 0
 1521 000c FB78     		ldrb	r3, [r7, #3]
 1522 000e 3B73     		strb	r3, [r7, #12]
 287:core/WString.cpp **** 	buf[1] = 0;
 1523              		.loc 1 287 0
 1524 0010 0023     		movs	r3, #0
 1525 0012 7B73     		strb	r3, [r7, #13]
 288:core/WString.cpp **** 	return concat(buf, 1);
 1526              		.loc 1 288 0
 1527 0014 07F10C03 		add	r3, r7, #12
 1528 0018 7868     		ldr	r0, [r7, #4]
 1529 001a 1946     		mov	r1, r3
 1530 001c 0122     		movs	r2, #1
 1531 001e FFF7FEFF 		bl	_ZN6String6concatEPKcj
 1532 0022 0346     		mov	r3, r0
 1533              	.LBE24:
 289:core/WString.cpp **** }
 1534              		.loc 1 289 0
 1535 0024 1846     		mov	r0, r3
ARM GAS  C:\Users\Bruger\AppData\Local\Temp\ccjLt6bf.s 			page 33


 1536 0026 1037     		adds	r7, r7, #16
 1537              		.cfi_def_cfa_offset 8
 1538 0028 BD46     		mov	sp, r7
 1539              		.cfi_def_cfa_register 13
 1540              		@ sp needed
 1541 002a 80BD     		pop	{r7, pc}
 1542              		.cfi_endproc
 1543              	.LFE99:
 1544              		.cantunwind
 1545              		.fnend
 1546              		.size	_ZN6String6concatEc, .-_ZN6String6concatEc
 1547              		.section	.text._ZN6String6concatEh,"ax",%progbits
 1548              		.align	2
 1549              		.global	_ZN6String6concatEh
 1550              		.thumb
 1551              		.thumb_func
 1552              		.type	_ZN6String6concatEh, %function
 1553              	_ZN6String6concatEh:
 1554              		.fnstart
 1555              	.LFB100:
 290:core/WString.cpp **** 
 291:core/WString.cpp **** unsigned char String::concat(unsigned char num)
 292:core/WString.cpp **** {
 1556              		.loc 1 292 0
 1557              		.cfi_startproc
 1558              		@ args = 0, pretend = 0, frame = 16
 1559              		@ frame_needed = 1, uses_anonymous_args = 0
 1560 0000 80B5     		push	{r7, lr}
 1561              		.save {r7, lr}
 1562              		.cfi_def_cfa_offset 8
 1563              		.cfi_offset 7, -8
 1564              		.cfi_offset 14, -4
 1565              		.pad #16
 1566 0002 84B0     		sub	sp, sp, #16
 1567              		.cfi_def_cfa_offset 24
 1568              		.setfp r7, sp, #0
 1569 0004 00AF     		add	r7, sp, #0
 1570              		.cfi_def_cfa_register 7
 1571 0006 7860     		str	r0, [r7, #4]
 1572 0008 0B46     		mov	r3, r1
 1573 000a FB70     		strb	r3, [r7, #3]
 1574              	.LBB25:
 293:core/WString.cpp **** 	char buf[1 + 3 * sizeof(unsigned char)];
 294:core/WString.cpp **** 	itoa(num, buf, 10);
 1575              		.loc 1 294 0
 1576 000c FA78     		ldrb	r2, [r7, #3]	@ zero_extendqisi2
 1577 000e 07F10C03 		add	r3, r7, #12
 1578 0012 1046     		mov	r0, r2
 1579 0014 1946     		mov	r1, r3
 1580 0016 0A22     		movs	r2, #10
 1581 0018 FFF7FEFF 		bl	itoa
 295:core/WString.cpp **** 	return concat(buf, strlen(buf));
 1582              		.loc 1 295 0
 1583 001c 07F10C03 		add	r3, r7, #12
 1584 0020 1846     		mov	r0, r3
 1585 0022 FFF7FEFF 		bl	strlen
 1586 0026 0246     		mov	r2, r0
ARM GAS  C:\Users\Bruger\AppData\Local\Temp\ccjLt6bf.s 			page 34


 1587 0028 07F10C03 		add	r3, r7, #12
 1588 002c 7868     		ldr	r0, [r7, #4]
 1589 002e 1946     		mov	r1, r3
 1590 0030 FFF7FEFF 		bl	_ZN6String6concatEPKcj
 1591 0034 0346     		mov	r3, r0
 1592              	.LBE25:
 296:core/WString.cpp **** }
 1593              		.loc 1 296 0
 1594 0036 1846     		mov	r0, r3
 1595 0038 1037     		adds	r7, r7, #16
 1596              		.cfi_def_cfa_offset 8
 1597 003a BD46     		mov	sp, r7
 1598              		.cfi_def_cfa_register 13
 1599              		@ sp needed
 1600 003c 80BD     		pop	{r7, pc}
 1601              		.cfi_endproc
 1602              	.LFE100:
 1603              		.fnend
 1604              		.size	_ZN6String6concatEh, .-_ZN6String6concatEh
 1605 003e 00BF     		.section	.text._ZN6String6concatEi,"ax",%progbits
 1606              		.align	2
 1607              		.global	_ZN6String6concatEi
 1608              		.thumb
 1609              		.thumb_func
 1610              		.type	_ZN6String6concatEi, %function
 1611              	_ZN6String6concatEi:
 1612              		.fnstart
 1613              	.LFB101:
 297:core/WString.cpp **** 
 298:core/WString.cpp **** unsigned char String::concat(int num)
 299:core/WString.cpp **** {
 1614              		.loc 1 299 0
 1615              		.cfi_startproc
 1616              		@ args = 0, pretend = 0, frame = 24
 1617              		@ frame_needed = 1, uses_anonymous_args = 0
 1618 0000 80B5     		push	{r7, lr}
 1619              		.save {r7, lr}
 1620              		.cfi_def_cfa_offset 8
 1621              		.cfi_offset 7, -8
 1622              		.cfi_offset 14, -4
 1623              		.pad #24
 1624 0002 86B0     		sub	sp, sp, #24
 1625              		.cfi_def_cfa_offset 32
 1626              		.setfp r7, sp, #0
 1627 0004 00AF     		add	r7, sp, #0
 1628              		.cfi_def_cfa_register 7
 1629 0006 7860     		str	r0, [r7, #4]
 1630 0008 3960     		str	r1, [r7]
 1631              	.LBB26:
 300:core/WString.cpp **** 	char buf[2 + 3 * sizeof(int)];
 301:core/WString.cpp **** 	itoa(num, buf, 10);
 1632              		.loc 1 301 0
 1633 000a 07F10803 		add	r3, r7, #8
 1634 000e 3868     		ldr	r0, [r7]
 1635 0010 1946     		mov	r1, r3
 1636 0012 0A22     		movs	r2, #10
 1637 0014 FFF7FEFF 		bl	itoa
ARM GAS  C:\Users\Bruger\AppData\Local\Temp\ccjLt6bf.s 			page 35


 302:core/WString.cpp **** 	return concat(buf, strlen(buf));
 1638              		.loc 1 302 0
 1639 0018 07F10803 		add	r3, r7, #8
 1640 001c 1846     		mov	r0, r3
 1641 001e FFF7FEFF 		bl	strlen
 1642 0022 0246     		mov	r2, r0
 1643 0024 07F10803 		add	r3, r7, #8
 1644 0028 7868     		ldr	r0, [r7, #4]
 1645 002a 1946     		mov	r1, r3
 1646 002c FFF7FEFF 		bl	_ZN6String6concatEPKcj
 1647 0030 0346     		mov	r3, r0
 1648              	.LBE26:
 303:core/WString.cpp **** }
 1649              		.loc 1 303 0
 1650 0032 1846     		mov	r0, r3
 1651 0034 1837     		adds	r7, r7, #24
 1652              		.cfi_def_cfa_offset 8
 1653 0036 BD46     		mov	sp, r7
 1654              		.cfi_def_cfa_register 13
 1655              		@ sp needed
 1656 0038 80BD     		pop	{r7, pc}
 1657              		.cfi_endproc
 1658              	.LFE101:
 1659              		.fnend
 1660              		.size	_ZN6String6concatEi, .-_ZN6String6concatEi
 1661 003a 00BF     		.section	.text._ZN6String6concatEj,"ax",%progbits
 1662              		.align	2
 1663              		.global	_ZN6String6concatEj
 1664              		.thumb
 1665              		.thumb_func
 1666              		.type	_ZN6String6concatEj, %function
 1667              	_ZN6String6concatEj:
 1668              		.fnstart
 1669              	.LFB102:
 304:core/WString.cpp **** 
 305:core/WString.cpp **** unsigned char String::concat(unsigned int num)
 306:core/WString.cpp **** {
 1670              		.loc 1 306 0
 1671              		.cfi_startproc
 1672              		@ args = 0, pretend = 0, frame = 24
 1673              		@ frame_needed = 1, uses_anonymous_args = 0
 1674 0000 80B5     		push	{r7, lr}
 1675              		.save {r7, lr}
 1676              		.cfi_def_cfa_offset 8
 1677              		.cfi_offset 7, -8
 1678              		.cfi_offset 14, -4
 1679              		.pad #24
 1680 0002 86B0     		sub	sp, sp, #24
 1681              		.cfi_def_cfa_offset 32
 1682              		.setfp r7, sp, #0
 1683 0004 00AF     		add	r7, sp, #0
 1684              		.cfi_def_cfa_register 7
 1685 0006 7860     		str	r0, [r7, #4]
 1686 0008 3960     		str	r1, [r7]
 1687              	.LBB27:
 307:core/WString.cpp **** 	char buf[1 + 3 * sizeof(unsigned int)];
 308:core/WString.cpp **** 	utoa(num, buf, 10);
ARM GAS  C:\Users\Bruger\AppData\Local\Temp\ccjLt6bf.s 			page 36


 1688              		.loc 1 308 0
 1689 000a 07F10803 		add	r3, r7, #8
 1690 000e 3868     		ldr	r0, [r7]
 1691 0010 1946     		mov	r1, r3
 1692 0012 0A22     		movs	r2, #10
 1693 0014 FFF7FEFF 		bl	utoa
 309:core/WString.cpp **** 	return concat(buf, strlen(buf));
 1694              		.loc 1 309 0
 1695 0018 07F10803 		add	r3, r7, #8
 1696 001c 1846     		mov	r0, r3
 1697 001e FFF7FEFF 		bl	strlen
 1698 0022 0246     		mov	r2, r0
 1699 0024 07F10803 		add	r3, r7, #8
 1700 0028 7868     		ldr	r0, [r7, #4]
 1701 002a 1946     		mov	r1, r3
 1702 002c FFF7FEFF 		bl	_ZN6String6concatEPKcj
 1703 0030 0346     		mov	r3, r0
 1704              	.LBE27:
 310:core/WString.cpp **** }
 1705              		.loc 1 310 0
 1706 0032 1846     		mov	r0, r3
 1707 0034 1837     		adds	r7, r7, #24
 1708              		.cfi_def_cfa_offset 8
 1709 0036 BD46     		mov	sp, r7
 1710              		.cfi_def_cfa_register 13
 1711              		@ sp needed
 1712 0038 80BD     		pop	{r7, pc}
 1713              		.cfi_endproc
 1714              	.LFE102:
 1715              		.fnend
 1716              		.size	_ZN6String6concatEj, .-_ZN6String6concatEj
 1717 003a 00BF     		.section	.text._ZN6String6concatEl,"ax",%progbits
 1718              		.align	2
 1719              		.global	_ZN6String6concatEl
 1720              		.thumb
 1721              		.thumb_func
 1722              		.type	_ZN6String6concatEl, %function
 1723              	_ZN6String6concatEl:
 1724              		.fnstart
 1725              	.LFB103:
 311:core/WString.cpp **** 
 312:core/WString.cpp **** unsigned char String::concat(long num)
 313:core/WString.cpp **** {
 1726              		.loc 1 313 0
 1727              		.cfi_startproc
 1728              		@ args = 0, pretend = 0, frame = 24
 1729              		@ frame_needed = 1, uses_anonymous_args = 0
 1730 0000 80B5     		push	{r7, lr}
 1731              		.save {r7, lr}
 1732              		.cfi_def_cfa_offset 8
 1733              		.cfi_offset 7, -8
 1734              		.cfi_offset 14, -4
 1735              		.pad #24
 1736 0002 86B0     		sub	sp, sp, #24
 1737              		.cfi_def_cfa_offset 32
 1738              		.setfp r7, sp, #0
 1739 0004 00AF     		add	r7, sp, #0
ARM GAS  C:\Users\Bruger\AppData\Local\Temp\ccjLt6bf.s 			page 37


 1740              		.cfi_def_cfa_register 7
 1741 0006 7860     		str	r0, [r7, #4]
 1742 0008 3960     		str	r1, [r7]
 1743              	.LBB28:
 314:core/WString.cpp **** 	char buf[2 + 3 * sizeof(long)];
 315:core/WString.cpp **** 	ltoa(num, buf, 10);
 1744              		.loc 1 315 0
 1745 000a 07F10803 		add	r3, r7, #8
 1746 000e 3868     		ldr	r0, [r7]
 1747 0010 1946     		mov	r1, r3
 1748 0012 0A22     		movs	r2, #10
 1749 0014 FFF7FEFF 		bl	_Z4ltoalPci
 316:core/WString.cpp **** 	return concat(buf, strlen(buf));
 1750              		.loc 1 316 0
 1751 0018 07F10803 		add	r3, r7, #8
 1752 001c 1846     		mov	r0, r3
 1753 001e FFF7FEFF 		bl	strlen
 1754 0022 0246     		mov	r2, r0
 1755 0024 07F10803 		add	r3, r7, #8
 1756 0028 7868     		ldr	r0, [r7, #4]
 1757 002a 1946     		mov	r1, r3
 1758 002c FFF7FEFF 		bl	_ZN6String6concatEPKcj
 1759 0030 0346     		mov	r3, r0
 1760              	.LBE28:
 317:core/WString.cpp **** }
 1761              		.loc 1 317 0
 1762 0032 1846     		mov	r0, r3
 1763 0034 1837     		adds	r7, r7, #24
 1764              		.cfi_def_cfa_offset 8
 1765 0036 BD46     		mov	sp, r7
 1766              		.cfi_def_cfa_register 13
 1767              		@ sp needed
 1768 0038 80BD     		pop	{r7, pc}
 1769              		.cfi_endproc
 1770              	.LFE103:
 1771              		.fnend
 1772              		.size	_ZN6String6concatEl, .-_ZN6String6concatEl
 1773 003a 00BF     		.section	.text._ZN6String6concatEm,"ax",%progbits
 1774              		.align	2
 1775              		.global	_ZN6String6concatEm
 1776              		.thumb
 1777              		.thumb_func
 1778              		.type	_ZN6String6concatEm, %function
 1779              	_ZN6String6concatEm:
 1780              		.fnstart
 1781              	.LFB104:
 318:core/WString.cpp **** 
 319:core/WString.cpp **** unsigned char String::concat(unsigned long num)
 320:core/WString.cpp **** {
 1782              		.loc 1 320 0
 1783              		.cfi_startproc
 1784              		@ args = 0, pretend = 0, frame = 24
 1785              		@ frame_needed = 1, uses_anonymous_args = 0
 1786 0000 80B5     		push	{r7, lr}
 1787              		.save {r7, lr}
 1788              		.cfi_def_cfa_offset 8
 1789              		.cfi_offset 7, -8
ARM GAS  C:\Users\Bruger\AppData\Local\Temp\ccjLt6bf.s 			page 38


 1790              		.cfi_offset 14, -4
 1791              		.pad #24
 1792 0002 86B0     		sub	sp, sp, #24
 1793              		.cfi_def_cfa_offset 32
 1794              		.setfp r7, sp, #0
 1795 0004 00AF     		add	r7, sp, #0
 1796              		.cfi_def_cfa_register 7
 1797 0006 7860     		str	r0, [r7, #4]
 1798 0008 3960     		str	r1, [r7]
 1799              	.LBB29:
 321:core/WString.cpp **** 	char buf[1 + 3 * sizeof(unsigned long)];
 322:core/WString.cpp **** 	ultoa(num, buf, 10);
 1800              		.loc 1 322 0
 1801 000a 07F10803 		add	r3, r7, #8
 1802 000e 3868     		ldr	r0, [r7]
 1803 0010 1946     		mov	r1, r3
 1804 0012 0A22     		movs	r2, #10
 1805 0014 FFF7FEFF 		bl	_Z5ultoamPci
 323:core/WString.cpp **** 	return concat(buf, strlen(buf));
 1806              		.loc 1 323 0
 1807 0018 07F10803 		add	r3, r7, #8
 1808 001c 1846     		mov	r0, r3
 1809 001e FFF7FEFF 		bl	strlen
 1810 0022 0246     		mov	r2, r0
 1811 0024 07F10803 		add	r3, r7, #8
 1812 0028 7868     		ldr	r0, [r7, #4]
 1813 002a 1946     		mov	r1, r3
 1814 002c FFF7FEFF 		bl	_ZN6String6concatEPKcj
 1815 0030 0346     		mov	r3, r0
 1816              	.LBE29:
 324:core/WString.cpp **** }
 1817              		.loc 1 324 0
 1818 0032 1846     		mov	r0, r3
 1819 0034 1837     		adds	r7, r7, #24
 1820              		.cfi_def_cfa_offset 8
 1821 0036 BD46     		mov	sp, r7
 1822              		.cfi_def_cfa_register 13
 1823              		@ sp needed
 1824 0038 80BD     		pop	{r7, pc}
 1825              		.cfi_endproc
 1826              	.LFE104:
 1827              		.fnend
 1828              		.size	_ZN6String6concatEm, .-_ZN6String6concatEm
 1829 003a 00BF     		.section	.text._ZN6String6concatEf,"ax",%progbits
 1830              		.align	2
 1831              		.global	_ZN6String6concatEf
 1832              		.thumb
 1833              		.thumb_func
 1834              		.type	_ZN6String6concatEf, %function
 1835              	_ZN6String6concatEf:
 1836              		.fnstart
 1837              	.LFB105:
 325:core/WString.cpp **** 
 326:core/WString.cpp **** unsigned char String::concat(float num)
 327:core/WString.cpp **** {
 1838              		.loc 1 327 0
 1839              		.cfi_startproc
ARM GAS  C:\Users\Bruger\AppData\Local\Temp\ccjLt6bf.s 			page 39


 1840              		@ args = 0, pretend = 0, frame = 32
 1841              		@ frame_needed = 1, uses_anonymous_args = 0
 1842 0000 80B5     		push	{r7, lr}
 1843              		.save {r7, lr}
 1844              		.cfi_def_cfa_offset 8
 1845              		.cfi_offset 7, -8
 1846              		.cfi_offset 14, -4
 1847              		.pad #40
 1848 0002 8AB0     		sub	sp, sp, #40
 1849              		.cfi_def_cfa_offset 48
 1850              		.setfp r7, sp, #8
 1851 0004 02AF     		add	r7, sp, #8
 1852              		.cfi_def_cfa 7, 40
 1853 0006 7860     		str	r0, [r7, #4]
 1854 0008 3960     		str	r1, [r7]	@ float
 1855              	.LBB30:
 328:core/WString.cpp **** 	char buf[20];
 329:core/WString.cpp **** 	char* string = dtostrf(num, 4, 2, buf);
 1856              		.loc 1 329 0
 1857 000a 3868     		ldr	r0, [r7]	@ float
 1858 000c FFF7FEFF 		bl	__aeabi_f2d
 1859 0010 07F10803 		add	r3, r7, #8
 1860 0014 0093     		str	r3, [sp]
 1861 0016 0422     		movs	r2, #4
 1862 0018 0223     		movs	r3, #2
 1863 001a FFF7FEFF 		bl	_Z7dtostrfdahPc
 1864 001e 0346     		mov	r3, r0
 1865 0020 FB61     		str	r3, [r7, #28]
 330:core/WString.cpp **** 	return concat(string, strlen(string));
 1866              		.loc 1 330 0
 1867 0022 F869     		ldr	r0, [r7, #28]
 1868 0024 FFF7FEFF 		bl	strlen
 1869 0028 0346     		mov	r3, r0
 1870 002a 7868     		ldr	r0, [r7, #4]
 1871 002c F969     		ldr	r1, [r7, #28]
 1872 002e 1A46     		mov	r2, r3
 1873 0030 FFF7FEFF 		bl	_ZN6String6concatEPKcj
 1874 0034 0346     		mov	r3, r0
 1875              	.LBE30:
 331:core/WString.cpp **** }
 1876              		.loc 1 331 0
 1877 0036 1846     		mov	r0, r3
 1878 0038 2037     		adds	r7, r7, #32
 1879              		.cfi_def_cfa_offset 8
 1880 003a BD46     		mov	sp, r7
 1881              		.cfi_def_cfa_register 13
 1882              		@ sp needed
 1883 003c 80BD     		pop	{r7, pc}
 1884              		.cfi_endproc
 1885              	.LFE105:
 1886              		.fnend
 1887              		.size	_ZN6String6concatEf, .-_ZN6String6concatEf
 1888 003e 00BF     		.section	.text._ZN6String6concatEd,"ax",%progbits
 1889              		.align	2
 1890              		.global	_ZN6String6concatEd
 1891              		.thumb
 1892              		.thumb_func
ARM GAS  C:\Users\Bruger\AppData\Local\Temp\ccjLt6bf.s 			page 40


 1893              		.type	_ZN6String6concatEd, %function
 1894              	_ZN6String6concatEd:
 1895              		.fnstart
 1896              	.LFB106:
 332:core/WString.cpp **** 
 333:core/WString.cpp **** unsigned char String::concat(double num)
 334:core/WString.cpp **** {
 1897              		.loc 1 334 0
 1898              		.cfi_startproc
 1899              		@ args = 0, pretend = 0, frame = 40
 1900              		@ frame_needed = 1, uses_anonymous_args = 0
 1901 0000 80B5     		push	{r7, lr}
 1902              		.save {r7, lr}
 1903              		.cfi_def_cfa_offset 8
 1904              		.cfi_offset 7, -8
 1905              		.cfi_offset 14, -4
 1906              		.pad #48
 1907 0002 8CB0     		sub	sp, sp, #48
 1908              		.cfi_def_cfa_offset 56
 1909              		.setfp r7, sp, #8
 1910 0004 02AF     		add	r7, sp, #8
 1911              		.cfi_def_cfa 7, 48
 1912 0006 F860     		str	r0, [r7, #12]
 1913 0008 C7E90023 		strd	r2, [r7]
 1914              	.LBB31:
 335:core/WString.cpp **** 	char buf[20];
 336:core/WString.cpp **** 	char* string = dtostrf(num, 4, 2, buf);
 1915              		.loc 1 336 0
 1916 000c 07F11003 		add	r3, r7, #16
 1917 0010 0093     		str	r3, [sp]
 1918 0012 D7E90001 		ldrd	r0, [r7]
 1919 0016 0422     		movs	r2, #4
 1920 0018 0223     		movs	r3, #2
 1921 001a FFF7FEFF 		bl	_Z7dtostrfdahPc
 1922 001e 0346     		mov	r3, r0
 1923 0020 7B62     		str	r3, [r7, #36]
 337:core/WString.cpp **** 	return concat(string, strlen(string));
 1924              		.loc 1 337 0
 1925 0022 786A     		ldr	r0, [r7, #36]
 1926 0024 FFF7FEFF 		bl	strlen
 1927 0028 0346     		mov	r3, r0
 1928 002a F868     		ldr	r0, [r7, #12]
 1929 002c 796A     		ldr	r1, [r7, #36]
 1930 002e 1A46     		mov	r2, r3
 1931 0030 FFF7FEFF 		bl	_ZN6String6concatEPKcj
 1932 0034 0346     		mov	r3, r0
 1933              	.LBE31:
 338:core/WString.cpp **** }
 1934              		.loc 1 338 0
 1935 0036 1846     		mov	r0, r3
 1936 0038 2837     		adds	r7, r7, #40
 1937              		.cfi_def_cfa_offset 8
 1938 003a BD46     		mov	sp, r7
 1939              		.cfi_def_cfa_register 13
 1940              		@ sp needed
 1941 003c 80BD     		pop	{r7, pc}
 1942              		.cfi_endproc
ARM GAS  C:\Users\Bruger\AppData\Local\Temp\ccjLt6bf.s 			page 41


 1943              	.LFE106:
 1944              		.fnend
 1945              		.size	_ZN6String6concatEd, .-_ZN6String6concatEd
 1946 003e 00BF     		.section	.text._ZN6String6concatEPK19__FlashStringHelper,"ax",%progbits
 1947              		.align	2
 1948              		.global	_ZN6String6concatEPK19__FlashStringHelper
 1949              		.thumb
 1950              		.thumb_func
 1951              		.type	_ZN6String6concatEPK19__FlashStringHelper, %function
 1952              	_ZN6String6concatEPK19__FlashStringHelper:
 1953              		.fnstart
 1954              	.LFB107:
 339:core/WString.cpp **** 
 340:core/WString.cpp **** unsigned char String::concat(const __FlashStringHelper * str)
 341:core/WString.cpp **** {
 1955              		.loc 1 341 0
 1956              		.cfi_startproc
 1957              		@ args = 0, pretend = 0, frame = 16
 1958              		@ frame_needed = 1, uses_anonymous_args = 0
 1959 0000 80B5     		push	{r7, lr}
 1960              		.cfi_def_cfa_offset 8
 1961              		.cfi_offset 7, -8
 1962              		.cfi_offset 14, -4
 1963 0002 84B0     		sub	sp, sp, #16
 1964              		.cfi_def_cfa_offset 24
 1965 0004 00AF     		add	r7, sp, #0
 1966              		.cfi_def_cfa_register 7
 1967 0006 7860     		str	r0, [r7, #4]
 1968 0008 3960     		str	r1, [r7]
 1969              	.LBB32:
 342:core/WString.cpp **** 	if (!str) return 0;
 1970              		.loc 1 342 0
 1971 000a 3B68     		ldr	r3, [r7]
 1972 000c 002B     		cmp	r3, #0
 1973 000e 01D1     		bne	.L94
 1974              		.loc 1 342 0 is_stmt 0 discriminator 1
 1975 0010 0023     		movs	r3, #0
 1976 0012 29E0     		b	.L95
 1977              	.L94:
 343:core/WString.cpp **** 	int length = strlen_P((const char *) str);
 1978              		.loc 1 343 0 is_stmt 1
 1979 0014 3868     		ldr	r0, [r7]
 1980 0016 FFF7FEFF 		bl	strlen
 1981 001a 0346     		mov	r3, r0
 1982 001c FB60     		str	r3, [r7, #12]
 344:core/WString.cpp **** 	if (length == 0) return 1;
 1983              		.loc 1 344 0
 1984 001e FB68     		ldr	r3, [r7, #12]
 1985 0020 002B     		cmp	r3, #0
 1986 0022 01D1     		bne	.L96
 1987              		.loc 1 344 0 is_stmt 0 discriminator 1
 1988 0024 0123     		movs	r3, #1
 1989 0026 1FE0     		b	.L95
 1990              	.L96:
 345:core/WString.cpp **** 	unsigned int newlen = len + length;
 1991              		.loc 1 345 0 is_stmt 1
 1992 0028 7B68     		ldr	r3, [r7, #4]
ARM GAS  C:\Users\Bruger\AppData\Local\Temp\ccjLt6bf.s 			page 42


 1993 002a 9A68     		ldr	r2, [r3, #8]
 1994 002c FB68     		ldr	r3, [r7, #12]
 1995 002e 1344     		add	r3, r3, r2
 1996 0030 BB60     		str	r3, [r7, #8]
 346:core/WString.cpp **** 	if (!reserve(newlen)) return 0;
 1997              		.loc 1 346 0
 1998 0032 7868     		ldr	r0, [r7, #4]
 1999 0034 B968     		ldr	r1, [r7, #8]
 2000 0036 FFF7FEFF 		bl	_ZN6String7reserveEj
 2001 003a 0346     		mov	r3, r0
 2002 003c 002B     		cmp	r3, #0
 2003 003e 0CBF     		ite	eq
 2004 0040 0123     		moveq	r3, #1
 2005 0042 0023     		movne	r3, #0
 2006 0044 DBB2     		uxtb	r3, r3
 2007 0046 002B     		cmp	r3, #0
 2008 0048 01D0     		beq	.L97
 2009              		.loc 1 346 0 is_stmt 0 discriminator 1
 2010 004a 0023     		movs	r3, #0
 2011 004c 0CE0     		b	.L95
 2012              	.L97:
 347:core/WString.cpp **** 	strcpy_P(buffer + len, (const char *) str);
 2013              		.loc 1 347 0 is_stmt 1
 2014 004e 7B68     		ldr	r3, [r7, #4]
 2015 0050 1A68     		ldr	r2, [r3]
 2016 0052 7B68     		ldr	r3, [r7, #4]
 2017 0054 9B68     		ldr	r3, [r3, #8]
 2018 0056 1344     		add	r3, r3, r2
 2019 0058 1846     		mov	r0, r3
 2020 005a 3968     		ldr	r1, [r7]
 2021 005c FFF7FEFF 		bl	strcpy
 348:core/WString.cpp **** 	len = newlen;
 2022              		.loc 1 348 0
 2023 0060 7B68     		ldr	r3, [r7, #4]
 2024 0062 BA68     		ldr	r2, [r7, #8]
 2025 0064 9A60     		str	r2, [r3, #8]
 349:core/WString.cpp **** 	return 1;
 2026              		.loc 1 349 0
 2027 0066 0123     		movs	r3, #1
 2028              	.L95:
 2029              	.LBE32:
 350:core/WString.cpp **** }
 2030              		.loc 1 350 0
 2031 0068 1846     		mov	r0, r3
 2032 006a 1037     		adds	r7, r7, #16
 2033              		.cfi_def_cfa_offset 8
 2034 006c BD46     		mov	sp, r7
 2035              		.cfi_def_cfa_register 13
 2036              		@ sp needed
 2037 006e 80BD     		pop	{r7, pc}
 2038              		.cfi_endproc
 2039              	.LFE107:
 2040              		.cantunwind
 2041              		.fnend
 2042              		.size	_ZN6String6concatEPK19__FlashStringHelper, .-_ZN6String6concatEPK19__FlashStringHelper
 2043              		.section	.text._ZplRK15StringSumHelperRK6String,"ax",%progbits
 2044              		.align	2
ARM GAS  C:\Users\Bruger\AppData\Local\Temp\ccjLt6bf.s 			page 43


 2045              		.global	_ZplRK15StringSumHelperRK6String
 2046              		.thumb
 2047              		.thumb_func
 2048              		.type	_ZplRK15StringSumHelperRK6String, %function
 2049              	_ZplRK15StringSumHelperRK6String:
 2050              		.fnstart
 2051              	.LFB108:
 351:core/WString.cpp **** 
 352:core/WString.cpp **** /*********************************************/
 353:core/WString.cpp **** /*  Concatenate                              */
 354:core/WString.cpp **** /*********************************************/
 355:core/WString.cpp **** 
 356:core/WString.cpp **** StringSumHelper & operator + (const StringSumHelper &lhs, const String &rhs)
 357:core/WString.cpp **** {
 2052              		.loc 1 357 0
 2053              		.cfi_startproc
 2054              		@ args = 0, pretend = 0, frame = 16
 2055              		@ frame_needed = 1, uses_anonymous_args = 0
 2056 0000 80B5     		push	{r7, lr}
 2057              		.cfi_def_cfa_offset 8
 2058              		.cfi_offset 7, -8
 2059              		.cfi_offset 14, -4
 2060 0002 84B0     		sub	sp, sp, #16
 2061              		.cfi_def_cfa_offset 24
 2062 0004 00AF     		add	r7, sp, #0
 2063              		.cfi_def_cfa_register 7
 2064 0006 7860     		str	r0, [r7, #4]
 2065 0008 3960     		str	r1, [r7]
 2066              	.LBB33:
 358:core/WString.cpp **** 	StringSumHelper &a = const_cast<StringSumHelper&>(lhs);
 2067              		.loc 1 358 0
 2068 000a 7B68     		ldr	r3, [r7, #4]
 2069 000c FB60     		str	r3, [r7, #12]
 359:core/WString.cpp **** 	if (!a.concat(rhs.buffer, rhs.len)) a.invalidate();
 2070              		.loc 1 359 0
 2071 000e F968     		ldr	r1, [r7, #12]
 2072 0010 3B68     		ldr	r3, [r7]
 2073 0012 1A68     		ldr	r2, [r3]
 2074 0014 3B68     		ldr	r3, [r7]
 2075 0016 9B68     		ldr	r3, [r3, #8]
 2076 0018 0846     		mov	r0, r1
 2077 001a 1146     		mov	r1, r2
 2078 001c 1A46     		mov	r2, r3
 2079 001e FFF7FEFF 		bl	_ZN6String6concatEPKcj
 2080 0022 0346     		mov	r3, r0
 2081 0024 002B     		cmp	r3, #0
 2082 0026 0CBF     		ite	eq
 2083 0028 0123     		moveq	r3, #1
 2084 002a 0023     		movne	r3, #0
 2085 002c DBB2     		uxtb	r3, r3
 2086 002e 002B     		cmp	r3, #0
 2087 0030 03D0     		beq	.L99
 2088              		.loc 1 359 0 is_stmt 0 discriminator 1
 2089 0032 FB68     		ldr	r3, [r7, #12]
 2090 0034 1846     		mov	r0, r3
 2091 0036 FFF7FEFF 		bl	_ZN6String10invalidateEv
 2092              	.L99:
ARM GAS  C:\Users\Bruger\AppData\Local\Temp\ccjLt6bf.s 			page 44


 360:core/WString.cpp **** 	return a;
 2093              		.loc 1 360 0 is_stmt 1
 2094 003a FB68     		ldr	r3, [r7, #12]
 2095              	.LBE33:
 361:core/WString.cpp **** }
 2096              		.loc 1 361 0
 2097 003c 1846     		mov	r0, r3
 2098 003e 1037     		adds	r7, r7, #16
 2099              		.cfi_def_cfa_offset 8
 2100 0040 BD46     		mov	sp, r7
 2101              		.cfi_def_cfa_register 13
 2102              		@ sp needed
 2103 0042 80BD     		pop	{r7, pc}
 2104              		.cfi_endproc
 2105              	.LFE108:
 2106              		.cantunwind
 2107              		.fnend
 2108              		.size	_ZplRK15StringSumHelperRK6String, .-_ZplRK15StringSumHelperRK6String
 2109              		.section	.text._ZplRK15StringSumHelperPKc,"ax",%progbits
 2110              		.align	2
 2111              		.global	_ZplRK15StringSumHelperPKc
 2112              		.thumb
 2113              		.thumb_func
 2114              		.type	_ZplRK15StringSumHelperPKc, %function
 2115              	_ZplRK15StringSumHelperPKc:
 2116              		.fnstart
 2117              	.LFB109:
 362:core/WString.cpp **** 
 363:core/WString.cpp **** StringSumHelper & operator + (const StringSumHelper &lhs, const char *cstr)
 364:core/WString.cpp **** {
 2118              		.loc 1 364 0
 2119              		.cfi_startproc
 2120              		@ args = 0, pretend = 0, frame = 16
 2121              		@ frame_needed = 1, uses_anonymous_args = 0
 2122 0000 90B5     		push	{r4, r7, lr}
 2123              		.cfi_def_cfa_offset 12
 2124              		.cfi_offset 4, -12
 2125              		.cfi_offset 7, -8
 2126              		.cfi_offset 14, -4
 2127 0002 85B0     		sub	sp, sp, #20
 2128              		.cfi_def_cfa_offset 32
 2129 0004 00AF     		add	r7, sp, #0
 2130              		.cfi_def_cfa_register 7
 2131 0006 7860     		str	r0, [r7, #4]
 2132 0008 3960     		str	r1, [r7]
 2133              	.LBB34:
 365:core/WString.cpp **** 	StringSumHelper &a = const_cast<StringSumHelper&>(lhs);
 2134              		.loc 1 365 0
 2135 000a 7B68     		ldr	r3, [r7, #4]
 2136 000c FB60     		str	r3, [r7, #12]
 366:core/WString.cpp **** 	if (!cstr || !a.concat(cstr, strlen(cstr))) a.invalidate();
 2137              		.loc 1 366 0
 2138 000e 3B68     		ldr	r3, [r7]
 2139 0010 002B     		cmp	r3, #0
 2140 0012 0CD0     		beq	.L102
 2141              		.loc 1 366 0 is_stmt 0 discriminator 2
 2142 0014 FC68     		ldr	r4, [r7, #12]
ARM GAS  C:\Users\Bruger\AppData\Local\Temp\ccjLt6bf.s 			page 45


 2143 0016 3868     		ldr	r0, [r7]
 2144 0018 FFF7FEFF 		bl	strlen
 2145 001c 0346     		mov	r3, r0
 2146 001e 2046     		mov	r0, r4
 2147 0020 3968     		ldr	r1, [r7]
 2148 0022 1A46     		mov	r2, r3
 2149 0024 FFF7FEFF 		bl	_ZN6String6concatEPKcj
 2150 0028 0346     		mov	r3, r0
 2151 002a 002B     		cmp	r3, #0
 2152 002c 01D1     		bne	.L103
 2153              	.L102:
 2154              		.loc 1 366 0 discriminator 3
 2155 002e 0123     		movs	r3, #1
 2156 0030 00E0     		b	.L104
 2157              	.L103:
 2158              		.loc 1 366 0 discriminator 4
 2159 0032 0023     		movs	r3, #0
 2160              	.L104:
 2161              		.loc 1 366 0 discriminator 6
 2162 0034 002B     		cmp	r3, #0
 2163 0036 03D0     		beq	.L105
 2164              		.loc 1 366 0 discriminator 7
 2165 0038 FB68     		ldr	r3, [r7, #12]
 2166 003a 1846     		mov	r0, r3
 2167 003c FFF7FEFF 		bl	_ZN6String10invalidateEv
 2168              	.L105:
 367:core/WString.cpp **** 	return a;
 2169              		.loc 1 367 0 is_stmt 1
 2170 0040 FB68     		ldr	r3, [r7, #12]
 2171              	.LBE34:
 368:core/WString.cpp **** }
 2172              		.loc 1 368 0
 2173 0042 1846     		mov	r0, r3
 2174 0044 1437     		adds	r7, r7, #20
 2175              		.cfi_def_cfa_offset 12
 2176 0046 BD46     		mov	sp, r7
 2177              		.cfi_def_cfa_register 13
 2178              		@ sp needed
 2179 0048 90BD     		pop	{r4, r7, pc}
 2180              		.cfi_endproc
 2181              	.LFE109:
 2182              		.cantunwind
 2183              		.fnend
 2184              		.size	_ZplRK15StringSumHelperPKc, .-_ZplRK15StringSumHelperPKc
 2185 004a 00BF     		.section	.text._ZplRK15StringSumHelperc,"ax",%progbits
 2186              		.align	2
 2187              		.global	_ZplRK15StringSumHelperc
 2188              		.thumb
 2189              		.thumb_func
 2190              		.type	_ZplRK15StringSumHelperc, %function
 2191              	_ZplRK15StringSumHelperc:
 2192              		.fnstart
 2193              	.LFB110:
 369:core/WString.cpp **** 
 370:core/WString.cpp **** StringSumHelper & operator + (const StringSumHelper &lhs, char c)
 371:core/WString.cpp **** {
 2194              		.loc 1 371 0
ARM GAS  C:\Users\Bruger\AppData\Local\Temp\ccjLt6bf.s 			page 46


 2195              		.cfi_startproc
 2196              		@ args = 0, pretend = 0, frame = 16
 2197              		@ frame_needed = 1, uses_anonymous_args = 0
 2198 0000 80B5     		push	{r7, lr}
 2199              		.cfi_def_cfa_offset 8
 2200              		.cfi_offset 7, -8
 2201              		.cfi_offset 14, -4
 2202 0002 84B0     		sub	sp, sp, #16
 2203              		.cfi_def_cfa_offset 24
 2204 0004 00AF     		add	r7, sp, #0
 2205              		.cfi_def_cfa_register 7
 2206 0006 7860     		str	r0, [r7, #4]
 2207 0008 0B46     		mov	r3, r1
 2208 000a FB70     		strb	r3, [r7, #3]
 2209              	.LBB35:
 372:core/WString.cpp **** 	StringSumHelper &a = const_cast<StringSumHelper&>(lhs);
 2210              		.loc 1 372 0
 2211 000c 7B68     		ldr	r3, [r7, #4]
 2212 000e FB60     		str	r3, [r7, #12]
 373:core/WString.cpp **** 	if (!a.concat(c)) a.invalidate();
 2213              		.loc 1 373 0
 2214 0010 FA68     		ldr	r2, [r7, #12]
 2215 0012 FB78     		ldrb	r3, [r7, #3]	@ zero_extendqisi2
 2216 0014 1046     		mov	r0, r2
 2217 0016 1946     		mov	r1, r3
 2218 0018 FFF7FEFF 		bl	_ZN6String6concatEc
 2219 001c 0346     		mov	r3, r0
 2220 001e 002B     		cmp	r3, #0
 2221 0020 0CBF     		ite	eq
 2222 0022 0123     		moveq	r3, #1
 2223 0024 0023     		movne	r3, #0
 2224 0026 DBB2     		uxtb	r3, r3
 2225 0028 002B     		cmp	r3, #0
 2226 002a 03D0     		beq	.L108
 2227              		.loc 1 373 0 is_stmt 0 discriminator 1
 2228 002c FB68     		ldr	r3, [r7, #12]
 2229 002e 1846     		mov	r0, r3
 2230 0030 FFF7FEFF 		bl	_ZN6String10invalidateEv
 2231              	.L108:
 374:core/WString.cpp **** 	return a;
 2232              		.loc 1 374 0 is_stmt 1
 2233 0034 FB68     		ldr	r3, [r7, #12]
 2234              	.LBE35:
 375:core/WString.cpp **** }
 2235              		.loc 1 375 0
 2236 0036 1846     		mov	r0, r3
 2237 0038 1037     		adds	r7, r7, #16
 2238              		.cfi_def_cfa_offset 8
 2239 003a BD46     		mov	sp, r7
 2240              		.cfi_def_cfa_register 13
 2241              		@ sp needed
 2242 003c 80BD     		pop	{r7, pc}
 2243              		.cfi_endproc
 2244              	.LFE110:
 2245              		.cantunwind
 2246              		.fnend
 2247              		.size	_ZplRK15StringSumHelperc, .-_ZplRK15StringSumHelperc
ARM GAS  C:\Users\Bruger\AppData\Local\Temp\ccjLt6bf.s 			page 47


 2248 003e 00BF     		.section	.text._ZplRK15StringSumHelperh,"ax",%progbits
 2249              		.align	2
 2250              		.global	_ZplRK15StringSumHelperh
 2251              		.thumb
 2252              		.thumb_func
 2253              		.type	_ZplRK15StringSumHelperh, %function
 2254              	_ZplRK15StringSumHelperh:
 2255              		.fnstart
 2256              	.LFB111:
 376:core/WString.cpp **** 
 377:core/WString.cpp **** StringSumHelper & operator + (const StringSumHelper &lhs, unsigned char num)
 378:core/WString.cpp **** {
 2257              		.loc 1 378 0
 2258              		.cfi_startproc
 2259              		@ args = 0, pretend = 0, frame = 16
 2260              		@ frame_needed = 1, uses_anonymous_args = 0
 2261 0000 80B5     		push	{r7, lr}
 2262              		.save {r7, lr}
 2263              		.cfi_def_cfa_offset 8
 2264              		.cfi_offset 7, -8
 2265              		.cfi_offset 14, -4
 2266              		.pad #16
 2267 0002 84B0     		sub	sp, sp, #16
 2268              		.cfi_def_cfa_offset 24
 2269              		.setfp r7, sp, #0
 2270 0004 00AF     		add	r7, sp, #0
 2271              		.cfi_def_cfa_register 7
 2272 0006 7860     		str	r0, [r7, #4]
 2273 0008 0B46     		mov	r3, r1
 2274 000a FB70     		strb	r3, [r7, #3]
 2275              	.LBB36:
 379:core/WString.cpp **** 	StringSumHelper &a = const_cast<StringSumHelper&>(lhs);
 2276              		.loc 1 379 0
 2277 000c 7B68     		ldr	r3, [r7, #4]
 2278 000e FB60     		str	r3, [r7, #12]
 380:core/WString.cpp **** 	if (!a.concat(num)) a.invalidate();
 2279              		.loc 1 380 0
 2280 0010 FA68     		ldr	r2, [r7, #12]
 2281 0012 FB78     		ldrb	r3, [r7, #3]	@ zero_extendqisi2
 2282 0014 1046     		mov	r0, r2
 2283 0016 1946     		mov	r1, r3
 2284 0018 FFF7FEFF 		bl	_ZN6String6concatEh
 2285 001c 0346     		mov	r3, r0
 2286 001e 002B     		cmp	r3, #0
 2287 0020 0CBF     		ite	eq
 2288 0022 0123     		moveq	r3, #1
 2289 0024 0023     		movne	r3, #0
 2290 0026 DBB2     		uxtb	r3, r3
 2291 0028 002B     		cmp	r3, #0
 2292 002a 03D0     		beq	.L111
 2293              		.loc 1 380 0 is_stmt 0 discriminator 1
 2294 002c FB68     		ldr	r3, [r7, #12]
 2295 002e 1846     		mov	r0, r3
 2296 0030 FFF7FEFF 		bl	_ZN6String10invalidateEv
 2297              	.L111:
 381:core/WString.cpp **** 	return a;
 2298              		.loc 1 381 0 is_stmt 1
ARM GAS  C:\Users\Bruger\AppData\Local\Temp\ccjLt6bf.s 			page 48


 2299 0034 FB68     		ldr	r3, [r7, #12]
 2300              	.LBE36:
 382:core/WString.cpp **** }
 2301              		.loc 1 382 0
 2302 0036 1846     		mov	r0, r3
 2303 0038 1037     		adds	r7, r7, #16
 2304              		.cfi_def_cfa_offset 8
 2305 003a BD46     		mov	sp, r7
 2306              		.cfi_def_cfa_register 13
 2307              		@ sp needed
 2308 003c 80BD     		pop	{r7, pc}
 2309              		.cfi_endproc
 2310              	.LFE111:
 2311              		.fnend
 2312              		.size	_ZplRK15StringSumHelperh, .-_ZplRK15StringSumHelperh
 2313 003e 00BF     		.section	.text._ZplRK15StringSumHelperi,"ax",%progbits
 2314              		.align	2
 2315              		.global	_ZplRK15StringSumHelperi
 2316              		.thumb
 2317              		.thumb_func
 2318              		.type	_ZplRK15StringSumHelperi, %function
 2319              	_ZplRK15StringSumHelperi:
 2320              		.fnstart
 2321              	.LFB112:
 383:core/WString.cpp **** 
 384:core/WString.cpp **** StringSumHelper & operator + (const StringSumHelper &lhs, int num)
 385:core/WString.cpp **** {
 2322              		.loc 1 385 0
 2323              		.cfi_startproc
 2324              		@ args = 0, pretend = 0, frame = 16
 2325              		@ frame_needed = 1, uses_anonymous_args = 0
 2326 0000 80B5     		push	{r7, lr}
 2327              		.save {r7, lr}
 2328              		.cfi_def_cfa_offset 8
 2329              		.cfi_offset 7, -8
 2330              		.cfi_offset 14, -4
 2331              		.pad #16
 2332 0002 84B0     		sub	sp, sp, #16
 2333              		.cfi_def_cfa_offset 24
 2334              		.setfp r7, sp, #0
 2335 0004 00AF     		add	r7, sp, #0
 2336              		.cfi_def_cfa_register 7
 2337 0006 7860     		str	r0, [r7, #4]
 2338 0008 3960     		str	r1, [r7]
 2339              	.LBB37:
 386:core/WString.cpp **** 	StringSumHelper &a = const_cast<StringSumHelper&>(lhs);
 2340              		.loc 1 386 0
 2341 000a 7B68     		ldr	r3, [r7, #4]
 2342 000c FB60     		str	r3, [r7, #12]
 387:core/WString.cpp **** 	if (!a.concat(num)) a.invalidate();
 2343              		.loc 1 387 0
 2344 000e FB68     		ldr	r3, [r7, #12]
 2345 0010 1846     		mov	r0, r3
 2346 0012 3968     		ldr	r1, [r7]
 2347 0014 FFF7FEFF 		bl	_ZN6String6concatEi
 2348 0018 0346     		mov	r3, r0
 2349 001a 002B     		cmp	r3, #0
ARM GAS  C:\Users\Bruger\AppData\Local\Temp\ccjLt6bf.s 			page 49


 2350 001c 0CBF     		ite	eq
 2351 001e 0123     		moveq	r3, #1
 2352 0020 0023     		movne	r3, #0
 2353 0022 DBB2     		uxtb	r3, r3
 2354 0024 002B     		cmp	r3, #0
 2355 0026 03D0     		beq	.L114
 2356              		.loc 1 387 0 is_stmt 0 discriminator 1
 2357 0028 FB68     		ldr	r3, [r7, #12]
 2358 002a 1846     		mov	r0, r3
 2359 002c FFF7FEFF 		bl	_ZN6String10invalidateEv
 2360              	.L114:
 388:core/WString.cpp **** 	return a;
 2361              		.loc 1 388 0 is_stmt 1
 2362 0030 FB68     		ldr	r3, [r7, #12]
 2363              	.LBE37:
 389:core/WString.cpp **** }
 2364              		.loc 1 389 0
 2365 0032 1846     		mov	r0, r3
 2366 0034 1037     		adds	r7, r7, #16
 2367              		.cfi_def_cfa_offset 8
 2368 0036 BD46     		mov	sp, r7
 2369              		.cfi_def_cfa_register 13
 2370              		@ sp needed
 2371 0038 80BD     		pop	{r7, pc}
 2372              		.cfi_endproc
 2373              	.LFE112:
 2374              		.fnend
 2375              		.size	_ZplRK15StringSumHelperi, .-_ZplRK15StringSumHelperi
 2376 003a 00BF     		.section	.text._ZplRK15StringSumHelperj,"ax",%progbits
 2377              		.align	2
 2378              		.global	_ZplRK15StringSumHelperj
 2379              		.thumb
 2380              		.thumb_func
 2381              		.type	_ZplRK15StringSumHelperj, %function
 2382              	_ZplRK15StringSumHelperj:
 2383              		.fnstart
 2384              	.LFB113:
 390:core/WString.cpp **** 
 391:core/WString.cpp **** StringSumHelper & operator + (const StringSumHelper &lhs, unsigned int num)
 392:core/WString.cpp **** {
 2385              		.loc 1 392 0
 2386              		.cfi_startproc
 2387              		@ args = 0, pretend = 0, frame = 16
 2388              		@ frame_needed = 1, uses_anonymous_args = 0
 2389 0000 80B5     		push	{r7, lr}
 2390              		.save {r7, lr}
 2391              		.cfi_def_cfa_offset 8
 2392              		.cfi_offset 7, -8
 2393              		.cfi_offset 14, -4
 2394              		.pad #16
 2395 0002 84B0     		sub	sp, sp, #16
 2396              		.cfi_def_cfa_offset 24
 2397              		.setfp r7, sp, #0
 2398 0004 00AF     		add	r7, sp, #0
 2399              		.cfi_def_cfa_register 7
 2400 0006 7860     		str	r0, [r7, #4]
 2401 0008 3960     		str	r1, [r7]
ARM GAS  C:\Users\Bruger\AppData\Local\Temp\ccjLt6bf.s 			page 50


 2402              	.LBB38:
 393:core/WString.cpp **** 	StringSumHelper &a = const_cast<StringSumHelper&>(lhs);
 2403              		.loc 1 393 0
 2404 000a 7B68     		ldr	r3, [r7, #4]
 2405 000c FB60     		str	r3, [r7, #12]
 394:core/WString.cpp **** 	if (!a.concat(num)) a.invalidate();
 2406              		.loc 1 394 0
 2407 000e FB68     		ldr	r3, [r7, #12]
 2408 0010 1846     		mov	r0, r3
 2409 0012 3968     		ldr	r1, [r7]
 2410 0014 FFF7FEFF 		bl	_ZN6String6concatEj
 2411 0018 0346     		mov	r3, r0
 2412 001a 002B     		cmp	r3, #0
 2413 001c 0CBF     		ite	eq
 2414 001e 0123     		moveq	r3, #1
 2415 0020 0023     		movne	r3, #0
 2416 0022 DBB2     		uxtb	r3, r3
 2417 0024 002B     		cmp	r3, #0
 2418 0026 03D0     		beq	.L117
 2419              		.loc 1 394 0 is_stmt 0 discriminator 1
 2420 0028 FB68     		ldr	r3, [r7, #12]
 2421 002a 1846     		mov	r0, r3
 2422 002c FFF7FEFF 		bl	_ZN6String10invalidateEv
 2423              	.L117:
 395:core/WString.cpp **** 	return a;
 2424              		.loc 1 395 0 is_stmt 1
 2425 0030 FB68     		ldr	r3, [r7, #12]
 2426              	.LBE38:
 396:core/WString.cpp **** }
 2427              		.loc 1 396 0
 2428 0032 1846     		mov	r0, r3
 2429 0034 1037     		adds	r7, r7, #16
 2430              		.cfi_def_cfa_offset 8
 2431 0036 BD46     		mov	sp, r7
 2432              		.cfi_def_cfa_register 13
 2433              		@ sp needed
 2434 0038 80BD     		pop	{r7, pc}
 2435              		.cfi_endproc
 2436              	.LFE113:
 2437              		.fnend
 2438              		.size	_ZplRK15StringSumHelperj, .-_ZplRK15StringSumHelperj
 2439 003a 00BF     		.section	.text._ZplRK15StringSumHelperl,"ax",%progbits
 2440              		.align	2
 2441              		.global	_ZplRK15StringSumHelperl
 2442              		.thumb
 2443              		.thumb_func
 2444              		.type	_ZplRK15StringSumHelperl, %function
 2445              	_ZplRK15StringSumHelperl:
 2446              		.fnstart
 2447              	.LFB114:
 397:core/WString.cpp **** 
 398:core/WString.cpp **** StringSumHelper & operator + (const StringSumHelper &lhs, long num)
 399:core/WString.cpp **** {
 2448              		.loc 1 399 0
 2449              		.cfi_startproc
 2450              		@ args = 0, pretend = 0, frame = 16
 2451              		@ frame_needed = 1, uses_anonymous_args = 0
ARM GAS  C:\Users\Bruger\AppData\Local\Temp\ccjLt6bf.s 			page 51


 2452 0000 80B5     		push	{r7, lr}
 2453              		.save {r7, lr}
 2454              		.cfi_def_cfa_offset 8
 2455              		.cfi_offset 7, -8
 2456              		.cfi_offset 14, -4
 2457              		.pad #16
 2458 0002 84B0     		sub	sp, sp, #16
 2459              		.cfi_def_cfa_offset 24
 2460              		.setfp r7, sp, #0
 2461 0004 00AF     		add	r7, sp, #0
 2462              		.cfi_def_cfa_register 7
 2463 0006 7860     		str	r0, [r7, #4]
 2464 0008 3960     		str	r1, [r7]
 2465              	.LBB39:
 400:core/WString.cpp **** 	StringSumHelper &a = const_cast<StringSumHelper&>(lhs);
 2466              		.loc 1 400 0
 2467 000a 7B68     		ldr	r3, [r7, #4]
 2468 000c FB60     		str	r3, [r7, #12]
 401:core/WString.cpp **** 	if (!a.concat(num)) a.invalidate();
 2469              		.loc 1 401 0
 2470 000e FB68     		ldr	r3, [r7, #12]
 2471 0010 1846     		mov	r0, r3
 2472 0012 3968     		ldr	r1, [r7]
 2473 0014 FFF7FEFF 		bl	_ZN6String6concatEl
 2474 0018 0346     		mov	r3, r0
 2475 001a 002B     		cmp	r3, #0
 2476 001c 0CBF     		ite	eq
 2477 001e 0123     		moveq	r3, #1
 2478 0020 0023     		movne	r3, #0
 2479 0022 DBB2     		uxtb	r3, r3
 2480 0024 002B     		cmp	r3, #0
 2481 0026 03D0     		beq	.L120
 2482              		.loc 1 401 0 is_stmt 0 discriminator 1
 2483 0028 FB68     		ldr	r3, [r7, #12]
 2484 002a 1846     		mov	r0, r3
 2485 002c FFF7FEFF 		bl	_ZN6String10invalidateEv
 2486              	.L120:
 402:core/WString.cpp **** 	return a;
 2487              		.loc 1 402 0 is_stmt 1
 2488 0030 FB68     		ldr	r3, [r7, #12]
 2489              	.LBE39:
 403:core/WString.cpp **** }
 2490              		.loc 1 403 0
 2491 0032 1846     		mov	r0, r3
 2492 0034 1037     		adds	r7, r7, #16
 2493              		.cfi_def_cfa_offset 8
 2494 0036 BD46     		mov	sp, r7
 2495              		.cfi_def_cfa_register 13
 2496              		@ sp needed
 2497 0038 80BD     		pop	{r7, pc}
 2498              		.cfi_endproc
 2499              	.LFE114:
 2500              		.fnend
 2501              		.size	_ZplRK15StringSumHelperl, .-_ZplRK15StringSumHelperl
 2502 003a 00BF     		.section	.text._ZplRK15StringSumHelperm,"ax",%progbits
 2503              		.align	2
 2504              		.global	_ZplRK15StringSumHelperm
ARM GAS  C:\Users\Bruger\AppData\Local\Temp\ccjLt6bf.s 			page 52


 2505              		.thumb
 2506              		.thumb_func
 2507              		.type	_ZplRK15StringSumHelperm, %function
 2508              	_ZplRK15StringSumHelperm:
 2509              		.fnstart
 2510              	.LFB115:
 404:core/WString.cpp **** 
 405:core/WString.cpp **** StringSumHelper & operator + (const StringSumHelper &lhs, unsigned long num)
 406:core/WString.cpp **** {
 2511              		.loc 1 406 0
 2512              		.cfi_startproc
 2513              		@ args = 0, pretend = 0, frame = 16
 2514              		@ frame_needed = 1, uses_anonymous_args = 0
 2515 0000 80B5     		push	{r7, lr}
 2516              		.save {r7, lr}
 2517              		.cfi_def_cfa_offset 8
 2518              		.cfi_offset 7, -8
 2519              		.cfi_offset 14, -4
 2520              		.pad #16
 2521 0002 84B0     		sub	sp, sp, #16
 2522              		.cfi_def_cfa_offset 24
 2523              		.setfp r7, sp, #0
 2524 0004 00AF     		add	r7, sp, #0
 2525              		.cfi_def_cfa_register 7
 2526 0006 7860     		str	r0, [r7, #4]
 2527 0008 3960     		str	r1, [r7]
 2528              	.LBB40:
 407:core/WString.cpp **** 	StringSumHelper &a = const_cast<StringSumHelper&>(lhs);
 2529              		.loc 1 407 0
 2530 000a 7B68     		ldr	r3, [r7, #4]
 2531 000c FB60     		str	r3, [r7, #12]
 408:core/WString.cpp **** 	if (!a.concat(num)) a.invalidate();
 2532              		.loc 1 408 0
 2533 000e FB68     		ldr	r3, [r7, #12]
 2534 0010 1846     		mov	r0, r3
 2535 0012 3968     		ldr	r1, [r7]
 2536 0014 FFF7FEFF 		bl	_ZN6String6concatEm
 2537 0018 0346     		mov	r3, r0
 2538 001a 002B     		cmp	r3, #0
 2539 001c 0CBF     		ite	eq
 2540 001e 0123     		moveq	r3, #1
 2541 0020 0023     		movne	r3, #0
 2542 0022 DBB2     		uxtb	r3, r3
 2543 0024 002B     		cmp	r3, #0
 2544 0026 03D0     		beq	.L123
 2545              		.loc 1 408 0 is_stmt 0 discriminator 1
 2546 0028 FB68     		ldr	r3, [r7, #12]
 2547 002a 1846     		mov	r0, r3
 2548 002c FFF7FEFF 		bl	_ZN6String10invalidateEv
 2549              	.L123:
 409:core/WString.cpp **** 	return a;
 2550              		.loc 1 409 0 is_stmt 1
 2551 0030 FB68     		ldr	r3, [r7, #12]
 2552              	.LBE40:
 410:core/WString.cpp **** }
 2553              		.loc 1 410 0
 2554 0032 1846     		mov	r0, r3
ARM GAS  C:\Users\Bruger\AppData\Local\Temp\ccjLt6bf.s 			page 53


 2555 0034 1037     		adds	r7, r7, #16
 2556              		.cfi_def_cfa_offset 8
 2557 0036 BD46     		mov	sp, r7
 2558              		.cfi_def_cfa_register 13
 2559              		@ sp needed
 2560 0038 80BD     		pop	{r7, pc}
 2561              		.cfi_endproc
 2562              	.LFE115:
 2563              		.fnend
 2564              		.size	_ZplRK15StringSumHelperm, .-_ZplRK15StringSumHelperm
 2565 003a 00BF     		.section	.text._ZplRK15StringSumHelperf,"ax",%progbits
 2566              		.align	2
 2567              		.global	_ZplRK15StringSumHelperf
 2568              		.thumb
 2569              		.thumb_func
 2570              		.type	_ZplRK15StringSumHelperf, %function
 2571              	_ZplRK15StringSumHelperf:
 2572              		.fnstart
 2573              	.LFB116:
 411:core/WString.cpp **** 
 412:core/WString.cpp **** StringSumHelper & operator + (const StringSumHelper &lhs, float num)
 413:core/WString.cpp **** {
 2574              		.loc 1 413 0
 2575              		.cfi_startproc
 2576              		@ args = 0, pretend = 0, frame = 16
 2577              		@ frame_needed = 1, uses_anonymous_args = 0
 2578 0000 80B5     		push	{r7, lr}
 2579              		.save {r7, lr}
 2580              		.cfi_def_cfa_offset 8
 2581              		.cfi_offset 7, -8
 2582              		.cfi_offset 14, -4
 2583              		.pad #16
 2584 0002 84B0     		sub	sp, sp, #16
 2585              		.cfi_def_cfa_offset 24
 2586              		.setfp r7, sp, #0
 2587 0004 00AF     		add	r7, sp, #0
 2588              		.cfi_def_cfa_register 7
 2589 0006 7860     		str	r0, [r7, #4]
 2590 0008 3960     		str	r1, [r7]	@ float
 2591              	.LBB41:
 414:core/WString.cpp **** 	StringSumHelper &a = const_cast<StringSumHelper&>(lhs);
 2592              		.loc 1 414 0
 2593 000a 7B68     		ldr	r3, [r7, #4]
 2594 000c FB60     		str	r3, [r7, #12]
 415:core/WString.cpp **** 	if (!a.concat(num)) a.invalidate();
 2595              		.loc 1 415 0
 2596 000e FB68     		ldr	r3, [r7, #12]
 2597 0010 1846     		mov	r0, r3
 2598 0012 3968     		ldr	r1, [r7]	@ float
 2599 0014 FFF7FEFF 		bl	_ZN6String6concatEf
 2600 0018 0346     		mov	r3, r0
 2601 001a 002B     		cmp	r3, #0
 2602 001c 0CBF     		ite	eq
 2603 001e 0123     		moveq	r3, #1
 2604 0020 0023     		movne	r3, #0
 2605 0022 DBB2     		uxtb	r3, r3
 2606 0024 002B     		cmp	r3, #0
ARM GAS  C:\Users\Bruger\AppData\Local\Temp\ccjLt6bf.s 			page 54


 2607 0026 03D0     		beq	.L126
 2608              		.loc 1 415 0 is_stmt 0 discriminator 1
 2609 0028 FB68     		ldr	r3, [r7, #12]
 2610 002a 1846     		mov	r0, r3
 2611 002c FFF7FEFF 		bl	_ZN6String10invalidateEv
 2612              	.L126:
 416:core/WString.cpp **** 	return a;
 2613              		.loc 1 416 0 is_stmt 1
 2614 0030 FB68     		ldr	r3, [r7, #12]
 2615              	.LBE41:
 417:core/WString.cpp **** }
 2616              		.loc 1 417 0
 2617 0032 1846     		mov	r0, r3
 2618 0034 1037     		adds	r7, r7, #16
 2619              		.cfi_def_cfa_offset 8
 2620 0036 BD46     		mov	sp, r7
 2621              		.cfi_def_cfa_register 13
 2622              		@ sp needed
 2623 0038 80BD     		pop	{r7, pc}
 2624              		.cfi_endproc
 2625              	.LFE116:
 2626              		.fnend
 2627              		.size	_ZplRK15StringSumHelperf, .-_ZplRK15StringSumHelperf
 2628 003a 00BF     		.section	.text._ZplRK15StringSumHelperd,"ax",%progbits
 2629              		.align	2
 2630              		.global	_ZplRK15StringSumHelperd
 2631              		.thumb
 2632              		.thumb_func
 2633              		.type	_ZplRK15StringSumHelperd, %function
 2634              	_ZplRK15StringSumHelperd:
 2635              		.fnstart
 2636              	.LFB117:
 418:core/WString.cpp **** 
 419:core/WString.cpp **** StringSumHelper & operator + (const StringSumHelper &lhs, double num)
 420:core/WString.cpp **** {
 2637              		.loc 1 420 0
 2638              		.cfi_startproc
 2639              		@ args = 0, pretend = 0, frame = 24
 2640              		@ frame_needed = 1, uses_anonymous_args = 0
 2641 0000 80B5     		push	{r7, lr}
 2642              		.save {r7, lr}
 2643              		.cfi_def_cfa_offset 8
 2644              		.cfi_offset 7, -8
 2645              		.cfi_offset 14, -4
 2646              		.pad #24
 2647 0002 86B0     		sub	sp, sp, #24
 2648              		.cfi_def_cfa_offset 32
 2649              		.setfp r7, sp, #0
 2650 0004 00AF     		add	r7, sp, #0
 2651              		.cfi_def_cfa_register 7
 2652 0006 F860     		str	r0, [r7, #12]
 2653 0008 C7E90023 		strd	r2, [r7]
 2654              	.LBB42:
 421:core/WString.cpp **** 	StringSumHelper &a = const_cast<StringSumHelper&>(lhs);
 2655              		.loc 1 421 0
 2656 000c FB68     		ldr	r3, [r7, #12]
 2657 000e 7B61     		str	r3, [r7, #20]
ARM GAS  C:\Users\Bruger\AppData\Local\Temp\ccjLt6bf.s 			page 55


 422:core/WString.cpp **** 	if (!a.concat(num)) a.invalidate();
 2658              		.loc 1 422 0
 2659 0010 7B69     		ldr	r3, [r7, #20]
 2660 0012 1846     		mov	r0, r3
 2661 0014 D7E90023 		ldrd	r2, [r7]
 2662 0018 FFF7FEFF 		bl	_ZN6String6concatEd
 2663 001c 0346     		mov	r3, r0
 2664 001e 002B     		cmp	r3, #0
 2665 0020 0CBF     		ite	eq
 2666 0022 0123     		moveq	r3, #1
 2667 0024 0023     		movne	r3, #0
 2668 0026 DBB2     		uxtb	r3, r3
 2669 0028 002B     		cmp	r3, #0
 2670 002a 03D0     		beq	.L129
 2671              		.loc 1 422 0 is_stmt 0 discriminator 1
 2672 002c 7B69     		ldr	r3, [r7, #20]
 2673 002e 1846     		mov	r0, r3
 2674 0030 FFF7FEFF 		bl	_ZN6String10invalidateEv
 2675              	.L129:
 423:core/WString.cpp **** 	return a;
 2676              		.loc 1 423 0 is_stmt 1
 2677 0034 7B69     		ldr	r3, [r7, #20]
 2678              	.LBE42:
 424:core/WString.cpp **** }
 2679              		.loc 1 424 0
 2680 0036 1846     		mov	r0, r3
 2681 0038 1837     		adds	r7, r7, #24
 2682              		.cfi_def_cfa_offset 8
 2683 003a BD46     		mov	sp, r7
 2684              		.cfi_def_cfa_register 13
 2685              		@ sp needed
 2686 003c 80BD     		pop	{r7, pc}
 2687              		.cfi_endproc
 2688              	.LFE117:
 2689              		.fnend
 2690              		.size	_ZplRK15StringSumHelperd, .-_ZplRK15StringSumHelperd
 2691 003e 00BF     		.section	.text._ZplRK15StringSumHelperPK19__FlashStringHelper,"ax",%progbits
 2692              		.align	2
 2693              		.global	_ZplRK15StringSumHelperPK19__FlashStringHelper
 2694              		.thumb
 2695              		.thumb_func
 2696              		.type	_ZplRK15StringSumHelperPK19__FlashStringHelper, %function
 2697              	_ZplRK15StringSumHelperPK19__FlashStringHelper:
 2698              		.fnstart
 2699              	.LFB118:
 425:core/WString.cpp **** 
 426:core/WString.cpp **** StringSumHelper & operator + (const StringSumHelper &lhs, const __FlashStringHelper *rhs)
 427:core/WString.cpp **** {
 2700              		.loc 1 427 0
 2701              		.cfi_startproc
 2702              		@ args = 0, pretend = 0, frame = 16
 2703              		@ frame_needed = 1, uses_anonymous_args = 0
 2704 0000 80B5     		push	{r7, lr}
 2705              		.cfi_def_cfa_offset 8
 2706              		.cfi_offset 7, -8
 2707              		.cfi_offset 14, -4
 2708 0002 84B0     		sub	sp, sp, #16
ARM GAS  C:\Users\Bruger\AppData\Local\Temp\ccjLt6bf.s 			page 56


 2709              		.cfi_def_cfa_offset 24
 2710 0004 00AF     		add	r7, sp, #0
 2711              		.cfi_def_cfa_register 7
 2712 0006 7860     		str	r0, [r7, #4]
 2713 0008 3960     		str	r1, [r7]
 2714              	.LBB43:
 428:core/WString.cpp **** 	StringSumHelper &a = const_cast<StringSumHelper&>(lhs);
 2715              		.loc 1 428 0
 2716 000a 7B68     		ldr	r3, [r7, #4]
 2717 000c FB60     		str	r3, [r7, #12]
 429:core/WString.cpp **** 	if (!a.concat(rhs))	a.invalidate();
 2718              		.loc 1 429 0
 2719 000e FB68     		ldr	r3, [r7, #12]
 2720 0010 1846     		mov	r0, r3
 2721 0012 3968     		ldr	r1, [r7]
 2722 0014 FFF7FEFF 		bl	_ZN6String6concatEPK19__FlashStringHelper
 2723 0018 0346     		mov	r3, r0
 2724 001a 002B     		cmp	r3, #0
 2725 001c 0CBF     		ite	eq
 2726 001e 0123     		moveq	r3, #1
 2727 0020 0023     		movne	r3, #0
 2728 0022 DBB2     		uxtb	r3, r3
 2729 0024 002B     		cmp	r3, #0
 2730 0026 03D0     		beq	.L132
 2731              		.loc 1 429 0 is_stmt 0 discriminator 1
 2732 0028 FB68     		ldr	r3, [r7, #12]
 2733 002a 1846     		mov	r0, r3
 2734 002c FFF7FEFF 		bl	_ZN6String10invalidateEv
 2735              	.L132:
 430:core/WString.cpp **** 	return a;
 2736              		.loc 1 430 0 is_stmt 1
 2737 0030 FB68     		ldr	r3, [r7, #12]
 2738              	.LBE43:
 431:core/WString.cpp **** }
 2739              		.loc 1 431 0
 2740 0032 1846     		mov	r0, r3
 2741 0034 1037     		adds	r7, r7, #16
 2742              		.cfi_def_cfa_offset 8
 2743 0036 BD46     		mov	sp, r7
 2744              		.cfi_def_cfa_register 13
 2745              		@ sp needed
 2746 0038 80BD     		pop	{r7, pc}
 2747              		.cfi_endproc
 2748              	.LFE118:
 2749              		.cantunwind
 2750              		.fnend
 2751              		.size	_ZplRK15StringSumHelperPK19__FlashStringHelper, .-_ZplRK15StringSumHelperPK19__FlashStringHe
 2752 003a 00BF     		.section	.text._ZNK6String9compareToERKS_,"ax",%progbits
 2753              		.align	2
 2754              		.global	_ZNK6String9compareToERKS_
 2755              		.thumb
 2756              		.thumb_func
 2757              		.type	_ZNK6String9compareToERKS_, %function
 2758              	_ZNK6String9compareToERKS_:
 2759              		.fnstart
 2760              	.LFB119:
 432:core/WString.cpp **** 
ARM GAS  C:\Users\Bruger\AppData\Local\Temp\ccjLt6bf.s 			page 57


 433:core/WString.cpp **** /*********************************************/
 434:core/WString.cpp **** /*  Comparison                               */
 435:core/WString.cpp **** /*********************************************/
 436:core/WString.cpp **** 
 437:core/WString.cpp **** int String::compareTo(const String &s) const
 438:core/WString.cpp **** {
 2761              		.loc 1 438 0
 2762              		.cfi_startproc
 2763              		@ args = 0, pretend = 0, frame = 8
 2764              		@ frame_needed = 1, uses_anonymous_args = 0
 2765 0000 80B5     		push	{r7, lr}
 2766              		.cfi_def_cfa_offset 8
 2767              		.cfi_offset 7, -8
 2768              		.cfi_offset 14, -4
 2769 0002 82B0     		sub	sp, sp, #8
 2770              		.cfi_def_cfa_offset 16
 2771 0004 00AF     		add	r7, sp, #0
 2772              		.cfi_def_cfa_register 7
 2773 0006 7860     		str	r0, [r7, #4]
 2774 0008 3960     		str	r1, [r7]
 439:core/WString.cpp **** 	if (!buffer || !s.buffer) {
 2775              		.loc 1 439 0
 2776 000a 7B68     		ldr	r3, [r7, #4]
 2777 000c 1B68     		ldr	r3, [r3]
 2778 000e 002B     		cmp	r3, #0
 2779 0010 03D0     		beq	.L135
 2780              		.loc 1 439 0 is_stmt 0 discriminator 1
 2781 0012 3B68     		ldr	r3, [r7]
 2782 0014 1B68     		ldr	r3, [r3]
 2783 0016 002B     		cmp	r3, #0
 2784 0018 1AD1     		bne	.L136
 2785              	.L135:
 440:core/WString.cpp **** 		if (s.buffer && s.len > 0) return 0 - *(unsigned char *)s.buffer;
 2786              		.loc 1 440 0 is_stmt 1
 2787 001a 3B68     		ldr	r3, [r7]
 2788 001c 1B68     		ldr	r3, [r3]
 2789 001e 002B     		cmp	r3, #0
 2790 0020 08D0     		beq	.L137
 2791              		.loc 1 440 0 is_stmt 0 discriminator 1
 2792 0022 3B68     		ldr	r3, [r7]
 2793 0024 9B68     		ldr	r3, [r3, #8]
 2794 0026 002B     		cmp	r3, #0
 2795 0028 04D0     		beq	.L137
 2796              		.loc 1 440 0 discriminator 2
 2797 002a 3B68     		ldr	r3, [r7]
 2798 002c 1B68     		ldr	r3, [r3]
 2799 002e 1B78     		ldrb	r3, [r3]	@ zero_extendqisi2
 2800 0030 5B42     		negs	r3, r3
 2801 0032 16E0     		b	.L138
 2802              	.L137:
 441:core/WString.cpp **** 		if (buffer && len > 0) return *(unsigned char *)buffer;
 2803              		.loc 1 441 0 is_stmt 1
 2804 0034 7B68     		ldr	r3, [r7, #4]
 2805 0036 1B68     		ldr	r3, [r3]
 2806 0038 002B     		cmp	r3, #0
 2807 003a 07D0     		beq	.L139
 2808              		.loc 1 441 0 is_stmt 0 discriminator 1
ARM GAS  C:\Users\Bruger\AppData\Local\Temp\ccjLt6bf.s 			page 58


 2809 003c 7B68     		ldr	r3, [r7, #4]
 2810 003e 9B68     		ldr	r3, [r3, #8]
 2811 0040 002B     		cmp	r3, #0
 2812 0042 03D0     		beq	.L139
 2813              		.loc 1 441 0 discriminator 2
 2814 0044 7B68     		ldr	r3, [r7, #4]
 2815 0046 1B68     		ldr	r3, [r3]
 2816 0048 1B78     		ldrb	r3, [r3]	@ zero_extendqisi2
 2817 004a 0AE0     		b	.L138
 2818              	.L139:
 442:core/WString.cpp **** 		return 0;
 2819              		.loc 1 442 0 is_stmt 1
 2820 004c 0023     		movs	r3, #0
 2821 004e 08E0     		b	.L138
 2822              	.L136:
 443:core/WString.cpp **** 	}
 444:core/WString.cpp **** 	return strcmp(buffer, s.buffer);
 2823              		.loc 1 444 0
 2824 0050 7B68     		ldr	r3, [r7, #4]
 2825 0052 1A68     		ldr	r2, [r3]
 2826 0054 3B68     		ldr	r3, [r7]
 2827 0056 1B68     		ldr	r3, [r3]
 2828 0058 1046     		mov	r0, r2
 2829 005a 1946     		mov	r1, r3
 2830 005c FFF7FEFF 		bl	strcmp
 2831 0060 0346     		mov	r3, r0
 2832              	.L138:
 445:core/WString.cpp **** }
 2833              		.loc 1 445 0
 2834 0062 1846     		mov	r0, r3
 2835 0064 0837     		adds	r7, r7, #8
 2836              		.cfi_def_cfa_offset 8
 2837 0066 BD46     		mov	sp, r7
 2838              		.cfi_def_cfa_register 13
 2839              		@ sp needed
 2840 0068 80BD     		pop	{r7, pc}
 2841              		.cfi_endproc
 2842              	.LFE119:
 2843              		.cantunwind
 2844              		.fnend
 2845              		.size	_ZNK6String9compareToERKS_, .-_ZNK6String9compareToERKS_
 2846 006a 00BF     		.section	.text._ZNK6String6equalsERKS_,"ax",%progbits
 2847              		.align	2
 2848              		.global	_ZNK6String6equalsERKS_
 2849              		.thumb
 2850              		.thumb_func
 2851              		.type	_ZNK6String6equalsERKS_, %function
 2852              	_ZNK6String6equalsERKS_:
 2853              		.fnstart
 2854              	.LFB120:
 446:core/WString.cpp **** 
 447:core/WString.cpp **** unsigned char String::equals(const String &s2) const
 448:core/WString.cpp **** {
 2855              		.loc 1 448 0
 2856              		.cfi_startproc
 2857              		@ args = 0, pretend = 0, frame = 8
 2858              		@ frame_needed = 1, uses_anonymous_args = 0
ARM GAS  C:\Users\Bruger\AppData\Local\Temp\ccjLt6bf.s 			page 59


 2859 0000 80B5     		push	{r7, lr}
 2860              		.cfi_def_cfa_offset 8
 2861              		.cfi_offset 7, -8
 2862              		.cfi_offset 14, -4
 2863 0002 82B0     		sub	sp, sp, #8
 2864              		.cfi_def_cfa_offset 16
 2865 0004 00AF     		add	r7, sp, #0
 2866              		.cfi_def_cfa_register 7
 2867 0006 7860     		str	r0, [r7, #4]
 2868 0008 3960     		str	r1, [r7]
 449:core/WString.cpp **** 	return (len == s2.len && compareTo(s2) == 0);
 2869              		.loc 1 449 0
 2870 000a 7B68     		ldr	r3, [r7, #4]
 2871 000c 9A68     		ldr	r2, [r3, #8]
 2872 000e 3B68     		ldr	r3, [r7]
 2873 0010 9B68     		ldr	r3, [r3, #8]
 2874 0012 9A42     		cmp	r2, r3
 2875 0014 08D1     		bne	.L141
 2876              		.loc 1 449 0 is_stmt 0 discriminator 1
 2877 0016 7868     		ldr	r0, [r7, #4]
 2878 0018 3968     		ldr	r1, [r7]
 2879 001a FFF7FEFF 		bl	_ZNK6String9compareToERKS_
 2880 001e 0346     		mov	r3, r0
 2881 0020 002B     		cmp	r3, #0
 2882 0022 01D1     		bne	.L141
 2883              		.loc 1 449 0 discriminator 3
 2884 0024 0123     		movs	r3, #1
 2885 0026 00E0     		b	.L142
 2886              	.L141:
 2887              		.loc 1 449 0 discriminator 4
 2888 0028 0023     		movs	r3, #0
 2889              	.L142:
 450:core/WString.cpp **** }
 2890              		.loc 1 450 0 is_stmt 1 discriminator 6
 2891 002a 1846     		mov	r0, r3
 2892 002c 0837     		adds	r7, r7, #8
 2893              		.cfi_def_cfa_offset 8
 2894 002e BD46     		mov	sp, r7
 2895              		.cfi_def_cfa_register 13
 2896              		@ sp needed
 2897 0030 80BD     		pop	{r7, pc}
 2898              		.cfi_endproc
 2899              	.LFE120:
 2900              		.cantunwind
 2901              		.fnend
 2902              		.size	_ZNK6String6equalsERKS_, .-_ZNK6String6equalsERKS_
 2903 0032 00BF     		.section	.text._ZNK6String6equalsEPKc,"ax",%progbits
 2904              		.align	2
 2905              		.global	_ZNK6String6equalsEPKc
 2906              		.thumb
 2907              		.thumb_func
 2908              		.type	_ZNK6String6equalsEPKc, %function
 2909              	_ZNK6String6equalsEPKc:
 2910              		.fnstart
 2911              	.LFB121:
 451:core/WString.cpp **** 
 452:core/WString.cpp **** unsigned char String::equals(const char *cstr) const
ARM GAS  C:\Users\Bruger\AppData\Local\Temp\ccjLt6bf.s 			page 60


 453:core/WString.cpp **** {
 2912              		.loc 1 453 0
 2913              		.cfi_startproc
 2914              		@ args = 0, pretend = 0, frame = 8
 2915              		@ frame_needed = 1, uses_anonymous_args = 0
 2916 0000 80B5     		push	{r7, lr}
 2917              		.cfi_def_cfa_offset 8
 2918              		.cfi_offset 7, -8
 2919              		.cfi_offset 14, -4
 2920 0002 82B0     		sub	sp, sp, #8
 2921              		.cfi_def_cfa_offset 16
 2922 0004 00AF     		add	r7, sp, #0
 2923              		.cfi_def_cfa_register 7
 2924 0006 7860     		str	r0, [r7, #4]
 2925 0008 3960     		str	r1, [r7]
 454:core/WString.cpp **** 	if (len == 0) return (cstr == NULL || *cstr == 0);
 2926              		.loc 1 454 0
 2927 000a 7B68     		ldr	r3, [r7, #4]
 2928 000c 9B68     		ldr	r3, [r3, #8]
 2929 000e 002B     		cmp	r3, #0
 2930 0010 0AD1     		bne	.L145
 2931              		.loc 1 454 0 is_stmt 0 discriminator 1
 2932 0012 3B68     		ldr	r3, [r7]
 2933 0014 002B     		cmp	r3, #0
 2934 0016 03D0     		beq	.L146
 2935              		.loc 1 454 0 discriminator 3
 2936 0018 3B68     		ldr	r3, [r7]
 2937 001a 1B78     		ldrb	r3, [r3]	@ zero_extendqisi2
 2938 001c 002B     		cmp	r3, #0
 2939 001e 01D1     		bne	.L147
 2940              	.L146:
 2941              		.loc 1 454 0 discriminator 4
 2942 0020 0123     		movs	r3, #1
 2943 0022 00E0     		b	.L148
 2944              	.L147:
 2945              		.loc 1 454 0 discriminator 5
 2946 0024 0023     		movs	r3, #0
 2947              	.L148:
 2948              		.loc 1 454 0 discriminator 7
 2949 0026 17E0     		b	.L149
 2950              	.L145:
 455:core/WString.cpp **** 	if (cstr == NULL) return buffer[0] == 0;
 2951              		.loc 1 455 0 is_stmt 1
 2952 0028 3B68     		ldr	r3, [r7]
 2953 002a 002B     		cmp	r3, #0
 2954 002c 08D1     		bne	.L150
 2955              		.loc 1 455 0 is_stmt 0 discriminator 1
 2956 002e 7B68     		ldr	r3, [r7, #4]
 2957 0030 1B68     		ldr	r3, [r3]
 2958 0032 1B78     		ldrb	r3, [r3]	@ zero_extendqisi2
 2959 0034 002B     		cmp	r3, #0
 2960 0036 0CBF     		ite	eq
 2961 0038 0123     		moveq	r3, #1
 2962 003a 0023     		movne	r3, #0
 2963 003c DBB2     		uxtb	r3, r3
 2964 003e 0BE0     		b	.L149
 2965              	.L150:
ARM GAS  C:\Users\Bruger\AppData\Local\Temp\ccjLt6bf.s 			page 61


 456:core/WString.cpp **** 	return strcmp(buffer, cstr) == 0;
 2966              		.loc 1 456 0 is_stmt 1
 2967 0040 7B68     		ldr	r3, [r7, #4]
 2968 0042 1B68     		ldr	r3, [r3]
 2969 0044 1846     		mov	r0, r3
 2970 0046 3968     		ldr	r1, [r7]
 2971 0048 FFF7FEFF 		bl	strcmp
 2972 004c 0346     		mov	r3, r0
 2973 004e 002B     		cmp	r3, #0
 2974 0050 0CBF     		ite	eq
 2975 0052 0123     		moveq	r3, #1
 2976 0054 0023     		movne	r3, #0
 2977 0056 DBB2     		uxtb	r3, r3
 2978              	.L149:
 457:core/WString.cpp **** }
 2979              		.loc 1 457 0
 2980 0058 1846     		mov	r0, r3
 2981 005a 0837     		adds	r7, r7, #8
 2982              		.cfi_def_cfa_offset 8
 2983 005c BD46     		mov	sp, r7
 2984              		.cfi_def_cfa_register 13
 2985              		@ sp needed
 2986 005e 80BD     		pop	{r7, pc}
 2987              		.cfi_endproc
 2988              	.LFE121:
 2989              		.cantunwind
 2990              		.fnend
 2991              		.size	_ZNK6String6equalsEPKc, .-_ZNK6String6equalsEPKc
 2992              		.section	.text._ZNK6StringltERKS_,"ax",%progbits
 2993              		.align	2
 2994              		.global	_ZNK6StringltERKS_
 2995              		.thumb
 2996              		.thumb_func
 2997              		.type	_ZNK6StringltERKS_, %function
 2998              	_ZNK6StringltERKS_:
 2999              		.fnstart
 3000              	.LFB122:
 458:core/WString.cpp **** 
 459:core/WString.cpp **** unsigned char String::operator<(const String &rhs) const
 460:core/WString.cpp **** {
 3001              		.loc 1 460 0
 3002              		.cfi_startproc
 3003              		@ args = 0, pretend = 0, frame = 8
 3004              		@ frame_needed = 1, uses_anonymous_args = 0
 3005 0000 80B5     		push	{r7, lr}
 3006              		.cfi_def_cfa_offset 8
 3007              		.cfi_offset 7, -8
 3008              		.cfi_offset 14, -4
 3009 0002 82B0     		sub	sp, sp, #8
 3010              		.cfi_def_cfa_offset 16
 3011 0004 00AF     		add	r7, sp, #0
 3012              		.cfi_def_cfa_register 7
 3013 0006 7860     		str	r0, [r7, #4]
 3014 0008 3960     		str	r1, [r7]
 461:core/WString.cpp **** 	return compareTo(rhs) < 0;
 3015              		.loc 1 461 0
 3016 000a 7868     		ldr	r0, [r7, #4]
ARM GAS  C:\Users\Bruger\AppData\Local\Temp\ccjLt6bf.s 			page 62


 3017 000c 3968     		ldr	r1, [r7]
 3018 000e FFF7FEFF 		bl	_ZNK6String9compareToERKS_
 3019 0012 0346     		mov	r3, r0
 3020 0014 DB0F     		lsrs	r3, r3, #31
 3021 0016 DBB2     		uxtb	r3, r3
 462:core/WString.cpp **** }
 3022              		.loc 1 462 0
 3023 0018 1846     		mov	r0, r3
 3024 001a 0837     		adds	r7, r7, #8
 3025              		.cfi_def_cfa_offset 8
 3026 001c BD46     		mov	sp, r7
 3027              		.cfi_def_cfa_register 13
 3028              		@ sp needed
 3029 001e 80BD     		pop	{r7, pc}
 3030              		.cfi_endproc
 3031              	.LFE122:
 3032              		.cantunwind
 3033              		.fnend
 3034              		.size	_ZNK6StringltERKS_, .-_ZNK6StringltERKS_
 3035              		.section	.text._ZNK6StringgtERKS_,"ax",%progbits
 3036              		.align	2
 3037              		.global	_ZNK6StringgtERKS_
 3038              		.thumb
 3039              		.thumb_func
 3040              		.type	_ZNK6StringgtERKS_, %function
 3041              	_ZNK6StringgtERKS_:
 3042              		.fnstart
 3043              	.LFB123:
 463:core/WString.cpp **** 
 464:core/WString.cpp **** unsigned char String::operator>(const String &rhs) const
 465:core/WString.cpp **** {
 3044              		.loc 1 465 0
 3045              		.cfi_startproc
 3046              		@ args = 0, pretend = 0, frame = 8
 3047              		@ frame_needed = 1, uses_anonymous_args = 0
 3048 0000 80B5     		push	{r7, lr}
 3049              		.cfi_def_cfa_offset 8
 3050              		.cfi_offset 7, -8
 3051              		.cfi_offset 14, -4
 3052 0002 82B0     		sub	sp, sp, #8
 3053              		.cfi_def_cfa_offset 16
 3054 0004 00AF     		add	r7, sp, #0
 3055              		.cfi_def_cfa_register 7
 3056 0006 7860     		str	r0, [r7, #4]
 3057 0008 3960     		str	r1, [r7]
 466:core/WString.cpp **** 	return compareTo(rhs) > 0;
 3058              		.loc 1 466 0
 3059 000a 7868     		ldr	r0, [r7, #4]
 3060 000c 3968     		ldr	r1, [r7]
 3061 000e FFF7FEFF 		bl	_ZNK6String9compareToERKS_
 3062 0012 0346     		mov	r3, r0
 3063 0014 002B     		cmp	r3, #0
 3064 0016 CCBF     		ite	gt
 3065 0018 0123     		movgt	r3, #1
 3066 001a 0023     		movle	r3, #0
 3067 001c DBB2     		uxtb	r3, r3
 467:core/WString.cpp **** }
ARM GAS  C:\Users\Bruger\AppData\Local\Temp\ccjLt6bf.s 			page 63


 3068              		.loc 1 467 0
 3069 001e 1846     		mov	r0, r3
 3070 0020 0837     		adds	r7, r7, #8
 3071              		.cfi_def_cfa_offset 8
 3072 0022 BD46     		mov	sp, r7
 3073              		.cfi_def_cfa_register 13
 3074              		@ sp needed
 3075 0024 80BD     		pop	{r7, pc}
 3076              		.cfi_endproc
 3077              	.LFE123:
 3078              		.cantunwind
 3079              		.fnend
 3080              		.size	_ZNK6StringgtERKS_, .-_ZNK6StringgtERKS_
 3081 0026 00BF     		.section	.text._ZNK6StringleERKS_,"ax",%progbits
 3082              		.align	2
 3083              		.global	_ZNK6StringleERKS_
 3084              		.thumb
 3085              		.thumb_func
 3086              		.type	_ZNK6StringleERKS_, %function
 3087              	_ZNK6StringleERKS_:
 3088              		.fnstart
 3089              	.LFB124:
 468:core/WString.cpp **** 
 469:core/WString.cpp **** unsigned char String::operator<=(const String &rhs) const
 470:core/WString.cpp **** {
 3090              		.loc 1 470 0
 3091              		.cfi_startproc
 3092              		@ args = 0, pretend = 0, frame = 8
 3093              		@ frame_needed = 1, uses_anonymous_args = 0
 3094 0000 80B5     		push	{r7, lr}
 3095              		.cfi_def_cfa_offset 8
 3096              		.cfi_offset 7, -8
 3097              		.cfi_offset 14, -4
 3098 0002 82B0     		sub	sp, sp, #8
 3099              		.cfi_def_cfa_offset 16
 3100 0004 00AF     		add	r7, sp, #0
 3101              		.cfi_def_cfa_register 7
 3102 0006 7860     		str	r0, [r7, #4]
 3103 0008 3960     		str	r1, [r7]
 471:core/WString.cpp **** 	return compareTo(rhs) <= 0;
 3104              		.loc 1 471 0
 3105 000a 7868     		ldr	r0, [r7, #4]
 3106 000c 3968     		ldr	r1, [r7]
 3107 000e FFF7FEFF 		bl	_ZNK6String9compareToERKS_
 3108 0012 0346     		mov	r3, r0
 3109 0014 002B     		cmp	r3, #0
 3110 0016 D4BF     		ite	le
 3111 0018 0123     		movle	r3, #1
 3112 001a 0023     		movgt	r3, #0
 3113 001c DBB2     		uxtb	r3, r3
 472:core/WString.cpp **** }
 3114              		.loc 1 472 0
 3115 001e 1846     		mov	r0, r3
 3116 0020 0837     		adds	r7, r7, #8
 3117              		.cfi_def_cfa_offset 8
 3118 0022 BD46     		mov	sp, r7
 3119              		.cfi_def_cfa_register 13
ARM GAS  C:\Users\Bruger\AppData\Local\Temp\ccjLt6bf.s 			page 64


 3120              		@ sp needed
 3121 0024 80BD     		pop	{r7, pc}
 3122              		.cfi_endproc
 3123              	.LFE124:
 3124              		.cantunwind
 3125              		.fnend
 3126              		.size	_ZNK6StringleERKS_, .-_ZNK6StringleERKS_
 3127 0026 00BF     		.section	.text._ZNK6StringgeERKS_,"ax",%progbits
 3128              		.align	2
 3129              		.global	_ZNK6StringgeERKS_
 3130              		.thumb
 3131              		.thumb_func
 3132              		.type	_ZNK6StringgeERKS_, %function
 3133              	_ZNK6StringgeERKS_:
 3134              		.fnstart
 3135              	.LFB125:
 473:core/WString.cpp **** 
 474:core/WString.cpp **** unsigned char String::operator>=(const String &rhs) const
 475:core/WString.cpp **** {
 3136              		.loc 1 475 0
 3137              		.cfi_startproc
 3138              		@ args = 0, pretend = 0, frame = 8
 3139              		@ frame_needed = 1, uses_anonymous_args = 0
 3140 0000 80B5     		push	{r7, lr}
 3141              		.cfi_def_cfa_offset 8
 3142              		.cfi_offset 7, -8
 3143              		.cfi_offset 14, -4
 3144 0002 82B0     		sub	sp, sp, #8
 3145              		.cfi_def_cfa_offset 16
 3146 0004 00AF     		add	r7, sp, #0
 3147              		.cfi_def_cfa_register 7
 3148 0006 7860     		str	r0, [r7, #4]
 3149 0008 3960     		str	r1, [r7]
 476:core/WString.cpp **** 	return compareTo(rhs) >= 0;
 3150              		.loc 1 476 0
 3151 000a 7868     		ldr	r0, [r7, #4]
 3152 000c 3968     		ldr	r1, [r7]
 3153 000e FFF7FEFF 		bl	_ZNK6String9compareToERKS_
 3154 0012 0346     		mov	r3, r0
 3155 0014 DB43     		mvns	r3, r3
 3156 0016 DB0F     		lsrs	r3, r3, #31
 3157 0018 DBB2     		uxtb	r3, r3
 477:core/WString.cpp **** }
 3158              		.loc 1 477 0
 3159 001a 1846     		mov	r0, r3
 3160 001c 0837     		adds	r7, r7, #8
 3161              		.cfi_def_cfa_offset 8
 3162 001e BD46     		mov	sp, r7
 3163              		.cfi_def_cfa_register 13
 3164              		@ sp needed
 3165 0020 80BD     		pop	{r7, pc}
 3166              		.cfi_endproc
 3167              	.LFE125:
 3168              		.cantunwind
 3169              		.fnend
 3170              		.size	_ZNK6StringgeERKS_, .-_ZNK6StringgeERKS_
 3171 0022 00BF     		.section	.text._ZNK6String16equalsIgnoreCaseERKS_,"ax",%progbits
ARM GAS  C:\Users\Bruger\AppData\Local\Temp\ccjLt6bf.s 			page 65


 3172              		.align	2
 3173              		.global	_ZNK6String16equalsIgnoreCaseERKS_
 3174              		.thumb
 3175              		.thumb_func
 3176              		.type	_ZNK6String16equalsIgnoreCaseERKS_, %function
 3177              	_ZNK6String16equalsIgnoreCaseERKS_:
 3178              		.fnstart
 3179              	.LFB126:
 478:core/WString.cpp **** 
 479:core/WString.cpp **** unsigned char String::equalsIgnoreCase( const String &s2 ) const
 480:core/WString.cpp **** {
 3180              		.loc 1 480 0
 3181              		.cfi_startproc
 3182              		@ args = 0, pretend = 0, frame = 16
 3183              		@ frame_needed = 1, uses_anonymous_args = 0
 3184 0000 90B5     		push	{r4, r7, lr}
 3185              		.cfi_def_cfa_offset 12
 3186              		.cfi_offset 4, -12
 3187              		.cfi_offset 7, -8
 3188              		.cfi_offset 14, -4
 3189 0002 85B0     		sub	sp, sp, #20
 3190              		.cfi_def_cfa_offset 32
 3191 0004 00AF     		add	r7, sp, #0
 3192              		.cfi_def_cfa_register 7
 3193 0006 7860     		str	r0, [r7, #4]
 3194 0008 3960     		str	r1, [r7]
 3195              	.LBB44:
 481:core/WString.cpp **** 	if (this == &s2) return 1;
 3196              		.loc 1 481 0
 3197 000a 7A68     		ldr	r2, [r7, #4]
 3198 000c 3B68     		ldr	r3, [r7]
 3199 000e 9A42     		cmp	r2, r3
 3200 0010 01D1     		bne	.L160
 3201              		.loc 1 481 0 is_stmt 0 discriminator 1
 3202 0012 0123     		movs	r3, #1
 3203 0014 32E0     		b	.L161
 3204              	.L160:
 482:core/WString.cpp **** 	if (len != s2.len) return 0;
 3205              		.loc 1 482 0 is_stmt 1
 3206 0016 7B68     		ldr	r3, [r7, #4]
 3207 0018 9A68     		ldr	r2, [r3, #8]
 3208 001a 3B68     		ldr	r3, [r7]
 3209 001c 9B68     		ldr	r3, [r3, #8]
 3210 001e 9A42     		cmp	r2, r3
 3211 0020 01D0     		beq	.L162
 3212              		.loc 1 482 0 is_stmt 0 discriminator 1
 3213 0022 0023     		movs	r3, #0
 3214 0024 2AE0     		b	.L161
 3215              	.L162:
 483:core/WString.cpp **** 	if (len == 0) return 1;
 3216              		.loc 1 483 0 is_stmt 1
 3217 0026 7B68     		ldr	r3, [r7, #4]
 3218 0028 9B68     		ldr	r3, [r3, #8]
 3219 002a 002B     		cmp	r3, #0
 3220 002c 01D1     		bne	.L163
 3221              		.loc 1 483 0 is_stmt 0 discriminator 1
 3222 002e 0123     		movs	r3, #1
ARM GAS  C:\Users\Bruger\AppData\Local\Temp\ccjLt6bf.s 			page 66


 3223 0030 24E0     		b	.L161
 3224              	.L163:
 484:core/WString.cpp **** 	const char *p1 = buffer;
 3225              		.loc 1 484 0 is_stmt 1
 3226 0032 7B68     		ldr	r3, [r7, #4]
 3227 0034 1B68     		ldr	r3, [r3]
 3228 0036 FB60     		str	r3, [r7, #12]
 485:core/WString.cpp **** 	const char *p2 = s2.buffer;
 3229              		.loc 1 485 0
 3230 0038 3B68     		ldr	r3, [r7]
 3231 003a 1B68     		ldr	r3, [r3]
 3232 003c BB60     		str	r3, [r7, #8]
 486:core/WString.cpp **** 	while (*p1) {
 3233              		.loc 1 486 0
 3234 003e 18E0     		b	.L164
 3235              	.L165:
 487:core/WString.cpp **** 		if (tolower(*p1++) != tolower(*p2++)) return 0;
 3236              		.loc 1 487 0
 3237 0040 FB68     		ldr	r3, [r7, #12]
 3238 0042 5A1C     		adds	r2, r3, #1
 3239 0044 FA60     		str	r2, [r7, #12]
 3240 0046 1B78     		ldrb	r3, [r3]	@ zero_extendqisi2
 3241 0048 1846     		mov	r0, r3
 3242 004a FFF7FEFF 		bl	tolower
 3243 004e 0446     		mov	r4, r0
 3244 0050 BB68     		ldr	r3, [r7, #8]
 3245 0052 5A1C     		adds	r2, r3, #1
 3246 0054 BA60     		str	r2, [r7, #8]
 3247 0056 1B78     		ldrb	r3, [r3]	@ zero_extendqisi2
 3248 0058 1846     		mov	r0, r3
 3249 005a FFF7FEFF 		bl	tolower
 3250 005e 0346     		mov	r3, r0
 3251 0060 9C42     		cmp	r4, r3
 3252 0062 14BF     		ite	ne
 3253 0064 0123     		movne	r3, #1
 3254 0066 0023     		moveq	r3, #0
 3255 0068 DBB2     		uxtb	r3, r3
 3256 006a 002B     		cmp	r3, #0
 3257 006c 01D0     		beq	.L164
 3258              		.loc 1 487 0 is_stmt 0 discriminator 1
 3259 006e 0023     		movs	r3, #0
 3260 0070 04E0     		b	.L161
 3261              	.L164:
 486:core/WString.cpp **** 	while (*p1) {
 3262              		.loc 1 486 0 is_stmt 1
 3263 0072 FB68     		ldr	r3, [r7, #12]
 3264 0074 1B78     		ldrb	r3, [r3]	@ zero_extendqisi2
 3265 0076 002B     		cmp	r3, #0
 3266 0078 E2D1     		bne	.L165
 488:core/WString.cpp **** 	} 
 489:core/WString.cpp **** 	return 1;
 3267              		.loc 1 489 0
 3268 007a 0123     		movs	r3, #1
 3269              	.L161:
 3270              	.LBE44:
 490:core/WString.cpp **** }
 3271              		.loc 1 490 0
ARM GAS  C:\Users\Bruger\AppData\Local\Temp\ccjLt6bf.s 			page 67


 3272 007c 1846     		mov	r0, r3
 3273 007e 1437     		adds	r7, r7, #20
 3274              		.cfi_def_cfa_offset 12
 3275 0080 BD46     		mov	sp, r7
 3276              		.cfi_def_cfa_register 13
 3277              		@ sp needed
 3278 0082 90BD     		pop	{r4, r7, pc}
 3279              		.cfi_endproc
 3280              	.LFE126:
 3281              		.cantunwind
 3282              		.fnend
 3283              		.size	_ZNK6String16equalsIgnoreCaseERKS_, .-_ZNK6String16equalsIgnoreCaseERKS_
 3284              		.section	.text._ZNK6String10startsWithERKS_,"ax",%progbits
 3285              		.align	2
 3286              		.global	_ZNK6String10startsWithERKS_
 3287              		.thumb
 3288              		.thumb_func
 3289              		.type	_ZNK6String10startsWithERKS_, %function
 3290              	_ZNK6String10startsWithERKS_:
 3291              		.fnstart
 3292              	.LFB127:
 491:core/WString.cpp **** 
 492:core/WString.cpp **** unsigned char String::startsWith( const String &s2 ) const
 493:core/WString.cpp **** {
 3293              		.loc 1 493 0
 3294              		.cfi_startproc
 3295              		@ args = 0, pretend = 0, frame = 8
 3296              		@ frame_needed = 1, uses_anonymous_args = 0
 3297 0000 80B5     		push	{r7, lr}
 3298              		.cfi_def_cfa_offset 8
 3299              		.cfi_offset 7, -8
 3300              		.cfi_offset 14, -4
 3301 0002 82B0     		sub	sp, sp, #8
 3302              		.cfi_def_cfa_offset 16
 3303 0004 00AF     		add	r7, sp, #0
 3304              		.cfi_def_cfa_register 7
 3305 0006 7860     		str	r0, [r7, #4]
 3306 0008 3960     		str	r1, [r7]
 494:core/WString.cpp **** 	if (len < s2.len) return 0;
 3307              		.loc 1 494 0
 3308 000a 7B68     		ldr	r3, [r7, #4]
 3309 000c 9A68     		ldr	r2, [r3, #8]
 3310 000e 3B68     		ldr	r3, [r7]
 3311 0010 9B68     		ldr	r3, [r3, #8]
 3312 0012 9A42     		cmp	r2, r3
 3313 0014 01D2     		bcs	.L167
 3314              		.loc 1 494 0 is_stmt 0 discriminator 1
 3315 0016 0023     		movs	r3, #0
 3316 0018 05E0     		b	.L168
 3317              	.L167:
 495:core/WString.cpp **** 	return startsWith(s2, 0);
 3318              		.loc 1 495 0 is_stmt 1
 3319 001a 7868     		ldr	r0, [r7, #4]
 3320 001c 3968     		ldr	r1, [r7]
 3321 001e 0022     		movs	r2, #0
 3322 0020 FFF7FEFF 		bl	_ZNK6String10startsWithERKS_j
 3323 0024 0346     		mov	r3, r0
ARM GAS  C:\Users\Bruger\AppData\Local\Temp\ccjLt6bf.s 			page 68


 3324              	.L168:
 496:core/WString.cpp **** }
 3325              		.loc 1 496 0
 3326 0026 1846     		mov	r0, r3
 3327 0028 0837     		adds	r7, r7, #8
 3328              		.cfi_def_cfa_offset 8
 3329 002a BD46     		mov	sp, r7
 3330              		.cfi_def_cfa_register 13
 3331              		@ sp needed
 3332 002c 80BD     		pop	{r7, pc}
 3333              		.cfi_endproc
 3334              	.LFE127:
 3335              		.cantunwind
 3336              		.fnend
 3337              		.size	_ZNK6String10startsWithERKS_, .-_ZNK6String10startsWithERKS_
 3338 002e 00BF     		.section	.text._ZNK6String10startsWithERKS_j,"ax",%progbits
 3339              		.align	2
 3340              		.global	_ZNK6String10startsWithERKS_j
 3341              		.thumb
 3342              		.thumb_func
 3343              		.type	_ZNK6String10startsWithERKS_j, %function
 3344              	_ZNK6String10startsWithERKS_j:
 3345              		.fnstart
 3346              	.LFB128:
 497:core/WString.cpp **** 
 498:core/WString.cpp **** unsigned char String::startsWith( const String &s2, unsigned int offset ) const
 499:core/WString.cpp **** {
 3347              		.loc 1 499 0
 3348              		.cfi_startproc
 3349              		@ args = 0, pretend = 0, frame = 16
 3350              		@ frame_needed = 1, uses_anonymous_args = 0
 3351 0000 80B5     		push	{r7, lr}
 3352              		.cfi_def_cfa_offset 8
 3353              		.cfi_offset 7, -8
 3354              		.cfi_offset 14, -4
 3355 0002 84B0     		sub	sp, sp, #16
 3356              		.cfi_def_cfa_offset 24
 3357 0004 00AF     		add	r7, sp, #0
 3358              		.cfi_def_cfa_register 7
 3359 0006 F860     		str	r0, [r7, #12]
 3360 0008 B960     		str	r1, [r7, #8]
 3361 000a 7A60     		str	r2, [r7, #4]
 500:core/WString.cpp **** 	if (offset > len - s2.len || !buffer || !s2.buffer) return 0;
 3362              		.loc 1 500 0
 3363 000c FB68     		ldr	r3, [r7, #12]
 3364 000e 9A68     		ldr	r2, [r3, #8]
 3365 0010 BB68     		ldr	r3, [r7, #8]
 3366 0012 9B68     		ldr	r3, [r3, #8]
 3367 0014 D21A     		subs	r2, r2, r3
 3368 0016 7B68     		ldr	r3, [r7, #4]
 3369 0018 9A42     		cmp	r2, r3
 3370 001a 07D3     		bcc	.L170
 3371              		.loc 1 500 0 is_stmt 0 discriminator 2
 3372 001c FB68     		ldr	r3, [r7, #12]
 3373 001e 1B68     		ldr	r3, [r3]
 3374 0020 002B     		cmp	r3, #0
 3375 0022 03D0     		beq	.L170
ARM GAS  C:\Users\Bruger\AppData\Local\Temp\ccjLt6bf.s 			page 69


 3376              		.loc 1 500 0 discriminator 4
 3377 0024 BB68     		ldr	r3, [r7, #8]
 3378 0026 1B68     		ldr	r3, [r3]
 3379 0028 002B     		cmp	r3, #0
 3380 002a 01D1     		bne	.L171
 3381              	.L170:
 3382              		.loc 1 500 0 discriminator 5
 3383 002c 0023     		movs	r3, #0
 3384 002e 12E0     		b	.L172
 3385              	.L171:
 501:core/WString.cpp **** 	return strncmp( &buffer[offset], s2.buffer, s2.len ) == 0;
 3386              		.loc 1 501 0 is_stmt 1
 3387 0030 FB68     		ldr	r3, [r7, #12]
 3388 0032 1A68     		ldr	r2, [r3]
 3389 0034 7B68     		ldr	r3, [r7, #4]
 3390 0036 D118     		adds	r1, r2, r3
 3391 0038 BB68     		ldr	r3, [r7, #8]
 3392 003a 1A68     		ldr	r2, [r3]
 3393 003c BB68     		ldr	r3, [r7, #8]
 3394 003e 9B68     		ldr	r3, [r3, #8]
 3395 0040 0846     		mov	r0, r1
 3396 0042 1146     		mov	r1, r2
 3397 0044 1A46     		mov	r2, r3
 3398 0046 FFF7FEFF 		bl	strncmp
 3399 004a 0346     		mov	r3, r0
 3400 004c 002B     		cmp	r3, #0
 3401 004e 0CBF     		ite	eq
 3402 0050 0123     		moveq	r3, #1
 3403 0052 0023     		movne	r3, #0
 3404 0054 DBB2     		uxtb	r3, r3
 3405              	.L172:
 502:core/WString.cpp **** }
 3406              		.loc 1 502 0
 3407 0056 1846     		mov	r0, r3
 3408 0058 1037     		adds	r7, r7, #16
 3409              		.cfi_def_cfa_offset 8
 3410 005a BD46     		mov	sp, r7
 3411              		.cfi_def_cfa_register 13
 3412              		@ sp needed
 3413 005c 80BD     		pop	{r7, pc}
 3414              		.cfi_endproc
 3415              	.LFE128:
 3416              		.cantunwind
 3417              		.fnend
 3418              		.size	_ZNK6String10startsWithERKS_j, .-_ZNK6String10startsWithERKS_j
 3419 005e 00BF     		.section	.text._ZNK6String8endsWithERKS_,"ax",%progbits
 3420              		.align	2
 3421              		.global	_ZNK6String8endsWithERKS_
 3422              		.thumb
 3423              		.thumb_func
 3424              		.type	_ZNK6String8endsWithERKS_, %function
 3425              	_ZNK6String8endsWithERKS_:
 3426              		.fnstart
 3427              	.LFB129:
 503:core/WString.cpp **** 
 504:core/WString.cpp **** unsigned char String::endsWith( const String &s2 ) const
 505:core/WString.cpp **** {
ARM GAS  C:\Users\Bruger\AppData\Local\Temp\ccjLt6bf.s 			page 70


 3428              		.loc 1 505 0
 3429              		.cfi_startproc
 3430              		@ args = 0, pretend = 0, frame = 8
 3431              		@ frame_needed = 1, uses_anonymous_args = 0
 3432 0000 80B5     		push	{r7, lr}
 3433              		.cfi_def_cfa_offset 8
 3434              		.cfi_offset 7, -8
 3435              		.cfi_offset 14, -4
 3436 0002 82B0     		sub	sp, sp, #8
 3437              		.cfi_def_cfa_offset 16
 3438 0004 00AF     		add	r7, sp, #0
 3439              		.cfi_def_cfa_register 7
 3440 0006 7860     		str	r0, [r7, #4]
 3441 0008 3960     		str	r1, [r7]
 506:core/WString.cpp **** 	if ( len < s2.len || !buffer || !s2.buffer) return 0;
 3442              		.loc 1 506 0
 3443 000a 7B68     		ldr	r3, [r7, #4]
 3444 000c 9A68     		ldr	r2, [r3, #8]
 3445 000e 3B68     		ldr	r3, [r7]
 3446 0010 9B68     		ldr	r3, [r3, #8]
 3447 0012 9A42     		cmp	r2, r3
 3448 0014 07D3     		bcc	.L174
 3449              		.loc 1 506 0 is_stmt 0 discriminator 2
 3450 0016 7B68     		ldr	r3, [r7, #4]
 3451 0018 1B68     		ldr	r3, [r3]
 3452 001a 002B     		cmp	r3, #0
 3453 001c 03D0     		beq	.L174
 3454              		.loc 1 506 0 discriminator 4
 3455 001e 3B68     		ldr	r3, [r7]
 3456 0020 1B68     		ldr	r3, [r3]
 3457 0022 002B     		cmp	r3, #0
 3458 0024 01D1     		bne	.L175
 3459              	.L174:
 3460              		.loc 1 506 0 discriminator 5
 3461 0026 0023     		movs	r3, #0
 3462 0028 13E0     		b	.L176
 3463              	.L175:
 507:core/WString.cpp **** 	return strcmp(&buffer[len - s2.len], s2.buffer) == 0;
 3464              		.loc 1 507 0 is_stmt 1
 3465 002a 7B68     		ldr	r3, [r7, #4]
 3466 002c 1A68     		ldr	r2, [r3]
 3467 002e 7B68     		ldr	r3, [r7, #4]
 3468 0030 9968     		ldr	r1, [r3, #8]
 3469 0032 3B68     		ldr	r3, [r7]
 3470 0034 9B68     		ldr	r3, [r3, #8]
 3471 0036 CB1A     		subs	r3, r1, r3
 3472 0038 1A44     		add	r2, r2, r3
 3473 003a 3B68     		ldr	r3, [r7]
 3474 003c 1B68     		ldr	r3, [r3]
 3475 003e 1046     		mov	r0, r2
 3476 0040 1946     		mov	r1, r3
 3477 0042 FFF7FEFF 		bl	strcmp
 3478 0046 0346     		mov	r3, r0
 3479 0048 002B     		cmp	r3, #0
 3480 004a 0CBF     		ite	eq
 3481 004c 0123     		moveq	r3, #1
 3482 004e 0023     		movne	r3, #0
ARM GAS  C:\Users\Bruger\AppData\Local\Temp\ccjLt6bf.s 			page 71


 3483 0050 DBB2     		uxtb	r3, r3
 3484              	.L176:
 508:core/WString.cpp **** }
 3485              		.loc 1 508 0
 3486 0052 1846     		mov	r0, r3
 3487 0054 0837     		adds	r7, r7, #8
 3488              		.cfi_def_cfa_offset 8
 3489 0056 BD46     		mov	sp, r7
 3490              		.cfi_def_cfa_register 13
 3491              		@ sp needed
 3492 0058 80BD     		pop	{r7, pc}
 3493              		.cfi_endproc
 3494              	.LFE129:
 3495              		.cantunwind
 3496              		.fnend
 3497              		.size	_ZNK6String8endsWithERKS_, .-_ZNK6String8endsWithERKS_
 3498 005a 00BF     		.section	.text._ZNK6String6charAtEj,"ax",%progbits
 3499              		.align	2
 3500              		.global	_ZNK6String6charAtEj
 3501              		.thumb
 3502              		.thumb_func
 3503              		.type	_ZNK6String6charAtEj, %function
 3504              	_ZNK6String6charAtEj:
 3505              		.fnstart
 3506              	.LFB130:
 509:core/WString.cpp **** 
 510:core/WString.cpp **** /*********************************************/
 511:core/WString.cpp **** /*  Character Access                         */
 512:core/WString.cpp **** /*********************************************/
 513:core/WString.cpp **** 
 514:core/WString.cpp **** char String::charAt(unsigned int loc) const
 515:core/WString.cpp **** {
 3507              		.loc 1 515 0
 3508              		.cfi_startproc
 3509              		@ args = 0, pretend = 0, frame = 8
 3510              		@ frame_needed = 1, uses_anonymous_args = 0
 3511 0000 80B5     		push	{r7, lr}
 3512              		.cfi_def_cfa_offset 8
 3513              		.cfi_offset 7, -8
 3514              		.cfi_offset 14, -4
 3515 0002 82B0     		sub	sp, sp, #8
 3516              		.cfi_def_cfa_offset 16
 3517 0004 00AF     		add	r7, sp, #0
 3518              		.cfi_def_cfa_register 7
 3519 0006 7860     		str	r0, [r7, #4]
 3520 0008 3960     		str	r1, [r7]
 516:core/WString.cpp **** 	return operator[](loc);
 3521              		.loc 1 516 0
 3522 000a 7868     		ldr	r0, [r7, #4]
 3523 000c 3968     		ldr	r1, [r7]
 3524 000e FFF7FEFF 		bl	_ZNK6StringixEj
 3525 0012 0346     		mov	r3, r0
 517:core/WString.cpp **** }
 3526              		.loc 1 517 0
 3527 0014 1846     		mov	r0, r3
 3528 0016 0837     		adds	r7, r7, #8
 3529              		.cfi_def_cfa_offset 8
ARM GAS  C:\Users\Bruger\AppData\Local\Temp\ccjLt6bf.s 			page 72


 3530 0018 BD46     		mov	sp, r7
 3531              		.cfi_def_cfa_register 13
 3532              		@ sp needed
 3533 001a 80BD     		pop	{r7, pc}
 3534              		.cfi_endproc
 3535              	.LFE130:
 3536              		.cantunwind
 3537              		.fnend
 3538              		.size	_ZNK6String6charAtEj, .-_ZNK6String6charAtEj
 3539              		.section	.text._ZN6String9setCharAtEjc,"ax",%progbits
 3540              		.align	2
 3541              		.global	_ZN6String9setCharAtEjc
 3542              		.thumb
 3543              		.thumb_func
 3544              		.type	_ZN6String9setCharAtEjc, %function
 3545              	_ZN6String9setCharAtEjc:
 3546              		.fnstart
 3547              	.LFB131:
 518:core/WString.cpp **** 
 519:core/WString.cpp **** void String::setCharAt(unsigned int loc, char c) 
 520:core/WString.cpp **** {
 3548              		.loc 1 520 0
 3549              		.cfi_startproc
 3550              		@ args = 0, pretend = 0, frame = 16
 3551              		@ frame_needed = 1, uses_anonymous_args = 0
 3552              		@ link register save eliminated.
 3553 0000 80B4     		push	{r7}
 3554              		.cfi_def_cfa_offset 4
 3555              		.cfi_offset 7, -4
 3556 0002 85B0     		sub	sp, sp, #20
 3557              		.cfi_def_cfa_offset 24
 3558 0004 00AF     		add	r7, sp, #0
 3559              		.cfi_def_cfa_register 7
 3560 0006 F860     		str	r0, [r7, #12]
 3561 0008 B960     		str	r1, [r7, #8]
 3562 000a 1346     		mov	r3, r2
 3563 000c FB71     		strb	r3, [r7, #7]
 521:core/WString.cpp **** 	if (loc < len) buffer[loc] = c;
 3564              		.loc 1 521 0
 3565 000e FB68     		ldr	r3, [r7, #12]
 3566 0010 9A68     		ldr	r2, [r3, #8]
 3567 0012 BB68     		ldr	r3, [r7, #8]
 3568 0014 9A42     		cmp	r2, r3
 3569 0016 05D9     		bls	.L179
 3570              		.loc 1 521 0 is_stmt 0 discriminator 1
 3571 0018 FB68     		ldr	r3, [r7, #12]
 3572 001a 1A68     		ldr	r2, [r3]
 3573 001c BB68     		ldr	r3, [r7, #8]
 3574 001e 1344     		add	r3, r3, r2
 3575 0020 FA79     		ldrb	r2, [r7, #7]
 3576 0022 1A70     		strb	r2, [r3]
 3577              	.L179:
 522:core/WString.cpp **** }
 3578              		.loc 1 522 0 is_stmt 1
 3579 0024 1437     		adds	r7, r7, #20
 3580              		.cfi_def_cfa_offset 4
 3581 0026 BD46     		mov	sp, r7
ARM GAS  C:\Users\Bruger\AppData\Local\Temp\ccjLt6bf.s 			page 73


 3582              		.cfi_def_cfa_register 13
 3583              		@ sp needed
 3584 0028 5DF8047B 		ldr	r7, [sp], #4
 3585              		.cfi_restore 7
 3586              		.cfi_def_cfa_offset 0
 3587 002c 7047     		bx	lr
 3588              		.cfi_endproc
 3589              	.LFE131:
 3590              		.cantunwind
 3591              		.fnend
 3592              		.size	_ZN6String9setCharAtEjc, .-_ZN6String9setCharAtEjc
 3593 002e 00BF     		.section	.text._ZN6StringixEj,"ax",%progbits
 3594              		.align	2
 3595              		.global	_ZN6StringixEj
 3596              		.thumb
 3597              		.thumb_func
 3598              		.type	_ZN6StringixEj, %function
 3599              	_ZN6StringixEj:
 3600              		.fnstart
 3601              	.LFB132:
 523:core/WString.cpp **** 
 524:core/WString.cpp **** char & String::operator[](unsigned int index)
 525:core/WString.cpp **** {
 3602              		.loc 1 525 0
 3603              		.cfi_startproc
 3604              		@ args = 0, pretend = 0, frame = 8
 3605              		@ frame_needed = 1, uses_anonymous_args = 0
 3606              		@ link register save eliminated.
 3607 0000 80B4     		push	{r7}
 3608              		.cfi_def_cfa_offset 4
 3609              		.cfi_offset 7, -4
 3610 0002 83B0     		sub	sp, sp, #12
 3611              		.cfi_def_cfa_offset 16
 3612 0004 00AF     		add	r7, sp, #0
 3613              		.cfi_def_cfa_register 7
 3614 0006 7860     		str	r0, [r7, #4]
 3615 0008 3960     		str	r1, [r7]
 3616              	.LBB45:
 526:core/WString.cpp **** 	static char dummy_writable_char;
 527:core/WString.cpp **** 	if (index >= len || !buffer) {
 3617              		.loc 1 527 0
 3618 000a 7B68     		ldr	r3, [r7, #4]
 3619 000c 9A68     		ldr	r2, [r3, #8]
 3620 000e 3B68     		ldr	r3, [r7]
 3621 0010 9A42     		cmp	r2, r3
 3622 0012 03D9     		bls	.L182
 3623              		.loc 1 527 0 is_stmt 0 discriminator 1
 3624 0014 7B68     		ldr	r3, [r7, #4]
 3625 0016 1B68     		ldr	r3, [r3]
 3626 0018 002B     		cmp	r3, #0
 3627 001a 04D1     		bne	.L183
 3628              	.L182:
 528:core/WString.cpp **** 		dummy_writable_char = 0;
 3629              		.loc 1 528 0 is_stmt 1
 3630 001c 074B     		ldr	r3, .L185
 3631 001e 0022     		movs	r2, #0
 3632 0020 1A70     		strb	r2, [r3]
ARM GAS  C:\Users\Bruger\AppData\Local\Temp\ccjLt6bf.s 			page 74


 529:core/WString.cpp **** 		return dummy_writable_char;
 3633              		.loc 1 529 0
 3634 0022 064B     		ldr	r3, .L185
 3635 0024 03E0     		b	.L184
 3636              	.L183:
 530:core/WString.cpp **** 	}
 531:core/WString.cpp **** 	return buffer[index];
 3637              		.loc 1 531 0
 3638 0026 7B68     		ldr	r3, [r7, #4]
 3639 0028 1A68     		ldr	r2, [r3]
 3640 002a 3B68     		ldr	r3, [r7]
 3641 002c 1344     		add	r3, r3, r2
 3642              	.L184:
 3643              	.LBE45:
 532:core/WString.cpp **** }
 3644              		.loc 1 532 0
 3645 002e 1846     		mov	r0, r3
 3646 0030 0C37     		adds	r7, r7, #12
 3647              		.cfi_def_cfa_offset 4
 3648 0032 BD46     		mov	sp, r7
 3649              		.cfi_def_cfa_register 13
 3650              		@ sp needed
 3651 0034 5DF8047B 		ldr	r7, [sp], #4
 3652              		.cfi_restore 7
 3653              		.cfi_def_cfa_offset 0
 3654 0038 7047     		bx	lr
 3655              	.L186:
 3656 003a 00BF     		.align	2
 3657              	.L185:
 3658 003c 00000000 		.word	_ZZN6StringixEjE19dummy_writable_char
 3659              		.cfi_endproc
 3660              	.LFE132:
 3661              		.cantunwind
 3662              		.fnend
 3663              		.size	_ZN6StringixEj, .-_ZN6StringixEj
 3664              		.section	.text._ZNK6StringixEj,"ax",%progbits
 3665              		.align	2
 3666              		.global	_ZNK6StringixEj
 3667              		.thumb
 3668              		.thumb_func
 3669              		.type	_ZNK6StringixEj, %function
 3670              	_ZNK6StringixEj:
 3671              		.fnstart
 3672              	.LFB133:
 533:core/WString.cpp **** 
 534:core/WString.cpp **** char String::operator[]( unsigned int index ) const
 535:core/WString.cpp **** {
 3673              		.loc 1 535 0
 3674              		.cfi_startproc
 3675              		@ args = 0, pretend = 0, frame = 8
 3676              		@ frame_needed = 1, uses_anonymous_args = 0
 3677              		@ link register save eliminated.
 3678 0000 80B4     		push	{r7}
 3679              		.cfi_def_cfa_offset 4
 3680              		.cfi_offset 7, -4
 3681 0002 83B0     		sub	sp, sp, #12
 3682              		.cfi_def_cfa_offset 16
ARM GAS  C:\Users\Bruger\AppData\Local\Temp\ccjLt6bf.s 			page 75


 3683 0004 00AF     		add	r7, sp, #0
 3684              		.cfi_def_cfa_register 7
 3685 0006 7860     		str	r0, [r7, #4]
 3686 0008 3960     		str	r1, [r7]
 536:core/WString.cpp **** 	if (index >= len || !buffer) return 0;
 3687              		.loc 1 536 0
 3688 000a 7B68     		ldr	r3, [r7, #4]
 3689 000c 9A68     		ldr	r2, [r3, #8]
 3690 000e 3B68     		ldr	r3, [r7]
 3691 0010 9A42     		cmp	r2, r3
 3692 0012 03D9     		bls	.L188
 3693              		.loc 1 536 0 is_stmt 0 discriminator 2
 3694 0014 7B68     		ldr	r3, [r7, #4]
 3695 0016 1B68     		ldr	r3, [r3]
 3696 0018 002B     		cmp	r3, #0
 3697 001a 01D1     		bne	.L189
 3698              	.L188:
 3699              		.loc 1 536 0 discriminator 3
 3700 001c 0023     		movs	r3, #0
 3701 001e 04E0     		b	.L190
 3702              	.L189:
 537:core/WString.cpp **** 	return buffer[index];
 3703              		.loc 1 537 0 is_stmt 1
 3704 0020 7B68     		ldr	r3, [r7, #4]
 3705 0022 1A68     		ldr	r2, [r3]
 3706 0024 3B68     		ldr	r3, [r7]
 3707 0026 1344     		add	r3, r3, r2
 3708 0028 1B78     		ldrb	r3, [r3]	@ zero_extendqisi2
 3709              	.L190:
 538:core/WString.cpp **** }
 3710              		.loc 1 538 0
 3711 002a 1846     		mov	r0, r3
 3712 002c 0C37     		adds	r7, r7, #12
 3713              		.cfi_def_cfa_offset 4
 3714 002e BD46     		mov	sp, r7
 3715              		.cfi_def_cfa_register 13
 3716              		@ sp needed
 3717 0030 5DF8047B 		ldr	r7, [sp], #4
 3718              		.cfi_restore 7
 3719              		.cfi_def_cfa_offset 0
 3720 0034 7047     		bx	lr
 3721              		.cfi_endproc
 3722              	.LFE133:
 3723              		.cantunwind
 3724              		.fnend
 3725              		.size	_ZNK6StringixEj, .-_ZNK6StringixEj
 3726 0036 00BF     		.section	.text._ZNK6String8getBytesEPhjj,"ax",%progbits
 3727              		.align	2
 3728              		.global	_ZNK6String8getBytesEPhjj
 3729              		.thumb
 3730              		.thumb_func
 3731              		.type	_ZNK6String8getBytesEPhjj, %function
 3732              	_ZNK6String8getBytesEPhjj:
 3733              		.fnstart
 3734              	.LFB134:
 539:core/WString.cpp **** 
 540:core/WString.cpp **** void String::getBytes(unsigned char *buf, unsigned int bufsize, unsigned int index) const
ARM GAS  C:\Users\Bruger\AppData\Local\Temp\ccjLt6bf.s 			page 76


 541:core/WString.cpp **** {
 3735              		.loc 1 541 0
 3736              		.cfi_startproc
 3737              		@ args = 0, pretend = 0, frame = 24
 3738              		@ frame_needed = 1, uses_anonymous_args = 0
 3739 0000 80B5     		push	{r7, lr}
 3740              		.cfi_def_cfa_offset 8
 3741              		.cfi_offset 7, -8
 3742              		.cfi_offset 14, -4
 3743 0002 86B0     		sub	sp, sp, #24
 3744              		.cfi_def_cfa_offset 32
 3745 0004 00AF     		add	r7, sp, #0
 3746              		.cfi_def_cfa_register 7
 3747 0006 F860     		str	r0, [r7, #12]
 3748 0008 B960     		str	r1, [r7, #8]
 3749 000a 7A60     		str	r2, [r7, #4]
 3750 000c 3B60     		str	r3, [r7]
 3751              	.LBB46:
 542:core/WString.cpp **** 	if (!bufsize || !buf) return;
 3752              		.loc 1 542 0
 3753 000e 7B68     		ldr	r3, [r7, #4]
 3754 0010 002B     		cmp	r3, #0
 3755 0012 02D0     		beq	.L192
 3756              		.loc 1 542 0 is_stmt 0 discriminator 1
 3757 0014 BB68     		ldr	r3, [r7, #8]
 3758 0016 002B     		cmp	r3, #0
 3759 0018 00D1     		bne	.L193
 3760              	.L192:
 3761              		.loc 1 542 0
 3762 001a 25E0     		b	.L191
 3763              	.L193:
 543:core/WString.cpp **** 	if (index >= len) {
 3764              		.loc 1 543 0 is_stmt 1
 3765 001c FB68     		ldr	r3, [r7, #12]
 3766 001e 9A68     		ldr	r2, [r3, #8]
 3767 0020 3B68     		ldr	r3, [r7]
 3768 0022 9A42     		cmp	r2, r3
 3769 0024 03D8     		bhi	.L195
 544:core/WString.cpp **** 		buf[0] = 0;
 3770              		.loc 1 544 0
 3771 0026 BB68     		ldr	r3, [r7, #8]
 3772 0028 0022     		movs	r2, #0
 3773 002a 1A70     		strb	r2, [r3]
 545:core/WString.cpp **** 		return;
 3774              		.loc 1 545 0
 3775 002c 1CE0     		b	.L191
 3776              	.L195:
 546:core/WString.cpp **** 	}
 547:core/WString.cpp **** 	unsigned int n = bufsize - 1;
 3777              		.loc 1 547 0
 3778 002e 7B68     		ldr	r3, [r7, #4]
 3779 0030 013B     		subs	r3, r3, #1
 3780 0032 7B61     		str	r3, [r7, #20]
 548:core/WString.cpp **** 	if (n > len - index) n = len - index;
 3781              		.loc 1 548 0
 3782 0034 FB68     		ldr	r3, [r7, #12]
 3783 0036 9A68     		ldr	r2, [r3, #8]
ARM GAS  C:\Users\Bruger\AppData\Local\Temp\ccjLt6bf.s 			page 77


 3784 0038 3B68     		ldr	r3, [r7]
 3785 003a D21A     		subs	r2, r2, r3
 3786 003c 7B69     		ldr	r3, [r7, #20]
 3787 003e 9A42     		cmp	r2, r3
 3788 0040 04D2     		bcs	.L196
 3789              		.loc 1 548 0 is_stmt 0 discriminator 1
 3790 0042 FB68     		ldr	r3, [r7, #12]
 3791 0044 9A68     		ldr	r2, [r3, #8]
 3792 0046 3B68     		ldr	r3, [r7]
 3793 0048 D31A     		subs	r3, r2, r3
 3794 004a 7B61     		str	r3, [r7, #20]
 3795              	.L196:
 549:core/WString.cpp **** 	strncpy((char *)buf, buffer + index, n);
 3796              		.loc 1 549 0 is_stmt 1
 3797 004c FB68     		ldr	r3, [r7, #12]
 3798 004e 1A68     		ldr	r2, [r3]
 3799 0050 3B68     		ldr	r3, [r7]
 3800 0052 1344     		add	r3, r3, r2
 3801 0054 B868     		ldr	r0, [r7, #8]
 3802 0056 1946     		mov	r1, r3
 3803 0058 7A69     		ldr	r2, [r7, #20]
 3804 005a FFF7FEFF 		bl	strncpy
 550:core/WString.cpp **** 	buf[n] = 0;
 3805              		.loc 1 550 0
 3806 005e BA68     		ldr	r2, [r7, #8]
 3807 0060 7B69     		ldr	r3, [r7, #20]
 3808 0062 1344     		add	r3, r3, r2
 3809 0064 0022     		movs	r2, #0
 3810 0066 1A70     		strb	r2, [r3]
 3811              	.L191:
 3812              	.LBE46:
 551:core/WString.cpp **** }
 3813              		.loc 1 551 0
 3814 0068 1837     		adds	r7, r7, #24
 3815              		.cfi_def_cfa_offset 8
 3816 006a BD46     		mov	sp, r7
 3817              		.cfi_def_cfa_register 13
 3818              		@ sp needed
 3819 006c 80BD     		pop	{r7, pc}
 3820              		.cfi_endproc
 3821              	.LFE134:
 3822              		.cantunwind
 3823              		.fnend
 3824              		.size	_ZNK6String8getBytesEPhjj, .-_ZNK6String8getBytesEPhjj
 3825 006e 00BF     		.section	.text._ZNK6String7indexOfEc,"ax",%progbits
 3826              		.align	2
 3827              		.global	_ZNK6String7indexOfEc
 3828              		.thumb
 3829              		.thumb_func
 3830              		.type	_ZNK6String7indexOfEc, %function
 3831              	_ZNK6String7indexOfEc:
 3832              		.fnstart
 3833              	.LFB135:
 552:core/WString.cpp **** 
 553:core/WString.cpp **** /*********************************************/
 554:core/WString.cpp **** /*  Search                                   */
 555:core/WString.cpp **** /*********************************************/
ARM GAS  C:\Users\Bruger\AppData\Local\Temp\ccjLt6bf.s 			page 78


 556:core/WString.cpp **** 
 557:core/WString.cpp **** int String::indexOf(char c) const
 558:core/WString.cpp **** {
 3834              		.loc 1 558 0
 3835              		.cfi_startproc
 3836              		@ args = 0, pretend = 0, frame = 8
 3837              		@ frame_needed = 1, uses_anonymous_args = 0
 3838 0000 80B5     		push	{r7, lr}
 3839              		.cfi_def_cfa_offset 8
 3840              		.cfi_offset 7, -8
 3841              		.cfi_offset 14, -4
 3842 0002 82B0     		sub	sp, sp, #8
 3843              		.cfi_def_cfa_offset 16
 3844 0004 00AF     		add	r7, sp, #0
 3845              		.cfi_def_cfa_register 7
 3846 0006 7860     		str	r0, [r7, #4]
 3847 0008 0B46     		mov	r3, r1
 3848 000a FB70     		strb	r3, [r7, #3]
 559:core/WString.cpp **** 	return indexOf(c, 0);
 3849              		.loc 1 559 0
 3850 000c FB78     		ldrb	r3, [r7, #3]	@ zero_extendqisi2
 3851 000e 7868     		ldr	r0, [r7, #4]
 3852 0010 1946     		mov	r1, r3
 3853 0012 0022     		movs	r2, #0
 3854 0014 FFF7FEFF 		bl	_ZNK6String7indexOfEcj
 3855 0018 0346     		mov	r3, r0
 560:core/WString.cpp **** }
 3856              		.loc 1 560 0
 3857 001a 1846     		mov	r0, r3
 3858 001c 0837     		adds	r7, r7, #8
 3859              		.cfi_def_cfa_offset 8
 3860 001e BD46     		mov	sp, r7
 3861              		.cfi_def_cfa_register 13
 3862              		@ sp needed
 3863 0020 80BD     		pop	{r7, pc}
 3864              		.cfi_endproc
 3865              	.LFE135:
 3866              		.cantunwind
 3867              		.fnend
 3868              		.size	_ZNK6String7indexOfEc, .-_ZNK6String7indexOfEc
 3869 0022 00BF     		.section	.text._ZNK6String7indexOfEcj,"ax",%progbits
 3870              		.align	2
 3871              		.global	_ZNK6String7indexOfEcj
 3872              		.thumb
 3873              		.thumb_func
 3874              		.type	_ZNK6String7indexOfEcj, %function
 3875              	_ZNK6String7indexOfEcj:
 3876              		.fnstart
 3877              	.LFB136:
 561:core/WString.cpp **** 
 562:core/WString.cpp **** int String::indexOf( char ch, unsigned int fromIndex ) const
 563:core/WString.cpp **** {
 3878              		.loc 1 563 0
 3879              		.cfi_startproc
 3880              		@ args = 0, pretend = 0, frame = 24
 3881              		@ frame_needed = 1, uses_anonymous_args = 0
 3882 0000 80B5     		push	{r7, lr}
ARM GAS  C:\Users\Bruger\AppData\Local\Temp\ccjLt6bf.s 			page 79


 3883              		.cfi_def_cfa_offset 8
 3884              		.cfi_offset 7, -8
 3885              		.cfi_offset 14, -4
 3886 0002 86B0     		sub	sp, sp, #24
 3887              		.cfi_def_cfa_offset 32
 3888 0004 00AF     		add	r7, sp, #0
 3889              		.cfi_def_cfa_register 7
 3890 0006 F860     		str	r0, [r7, #12]
 3891 0008 0B46     		mov	r3, r1
 3892 000a 7A60     		str	r2, [r7, #4]
 3893 000c FB72     		strb	r3, [r7, #11]
 3894              	.LBB47:
 564:core/WString.cpp **** 	if (fromIndex >= len) return -1;
 3895              		.loc 1 564 0
 3896 000e FB68     		ldr	r3, [r7, #12]
 3897 0010 9A68     		ldr	r2, [r3, #8]
 3898 0012 7B68     		ldr	r3, [r7, #4]
 3899 0014 9A42     		cmp	r2, r3
 3900 0016 02D8     		bhi	.L200
 3901              		.loc 1 564 0 is_stmt 0 discriminator 1
 3902 0018 4FF0FF33 		mov	r3, #-1
 3903 001c 13E0     		b	.L201
 3904              	.L200:
 565:core/WString.cpp **** 	const char* temp = strchr(buffer + fromIndex, ch);
 3905              		.loc 1 565 0 is_stmt 1
 3906 001e FB68     		ldr	r3, [r7, #12]
 3907 0020 1A68     		ldr	r2, [r3]
 3908 0022 7B68     		ldr	r3, [r7, #4]
 3909 0024 1A44     		add	r2, r2, r3
 3910 0026 FB7A     		ldrb	r3, [r7, #11]	@ zero_extendqisi2
 3911 0028 1046     		mov	r0, r2
 3912 002a 1946     		mov	r1, r3
 3913 002c FFF7FEFF 		bl	strchr
 3914 0030 7861     		str	r0, [r7, #20]
 566:core/WString.cpp **** 	if (temp == NULL) return -1;
 3915              		.loc 1 566 0
 3916 0032 7B69     		ldr	r3, [r7, #20]
 3917 0034 002B     		cmp	r3, #0
 3918 0036 02D1     		bne	.L202
 3919              		.loc 1 566 0 is_stmt 0 discriminator 1
 3920 0038 4FF0FF33 		mov	r3, #-1
 3921 003c 03E0     		b	.L201
 3922              	.L202:
 567:core/WString.cpp **** 	return temp - buffer;
 3923              		.loc 1 567 0 is_stmt 1
 3924 003e 7B69     		ldr	r3, [r7, #20]
 3925 0040 FA68     		ldr	r2, [r7, #12]
 3926 0042 1268     		ldr	r2, [r2]
 3927 0044 9B1A     		subs	r3, r3, r2
 3928              	.L201:
 3929              	.LBE47:
 568:core/WString.cpp **** }
 3930              		.loc 1 568 0
 3931 0046 1846     		mov	r0, r3
 3932 0048 1837     		adds	r7, r7, #24
 3933              		.cfi_def_cfa_offset 8
 3934 004a BD46     		mov	sp, r7
ARM GAS  C:\Users\Bruger\AppData\Local\Temp\ccjLt6bf.s 			page 80


 3935              		.cfi_def_cfa_register 13
 3936              		@ sp needed
 3937 004c 80BD     		pop	{r7, pc}
 3938              		.cfi_endproc
 3939              	.LFE136:
 3940              		.cantunwind
 3941              		.fnend
 3942              		.size	_ZNK6String7indexOfEcj, .-_ZNK6String7indexOfEcj
 3943 004e 00BF     		.section	.text._ZNK6String7indexOfERKS_,"ax",%progbits
 3944              		.align	2
 3945              		.global	_ZNK6String7indexOfERKS_
 3946              		.thumb
 3947              		.thumb_func
 3948              		.type	_ZNK6String7indexOfERKS_, %function
 3949              	_ZNK6String7indexOfERKS_:
 3950              		.fnstart
 3951              	.LFB137:
 569:core/WString.cpp **** 
 570:core/WString.cpp **** int String::indexOf(const String &s2) const
 571:core/WString.cpp **** {
 3952              		.loc 1 571 0
 3953              		.cfi_startproc
 3954              		@ args = 0, pretend = 0, frame = 8
 3955              		@ frame_needed = 1, uses_anonymous_args = 0
 3956 0000 80B5     		push	{r7, lr}
 3957              		.cfi_def_cfa_offset 8
 3958              		.cfi_offset 7, -8
 3959              		.cfi_offset 14, -4
 3960 0002 82B0     		sub	sp, sp, #8
 3961              		.cfi_def_cfa_offset 16
 3962 0004 00AF     		add	r7, sp, #0
 3963              		.cfi_def_cfa_register 7
 3964 0006 7860     		str	r0, [r7, #4]
 3965 0008 3960     		str	r1, [r7]
 572:core/WString.cpp **** 	return indexOf(s2, 0);
 3966              		.loc 1 572 0
 3967 000a 7868     		ldr	r0, [r7, #4]
 3968 000c 3968     		ldr	r1, [r7]
 3969 000e 0022     		movs	r2, #0
 3970 0010 FFF7FEFF 		bl	_ZNK6String7indexOfERKS_j
 3971 0014 0346     		mov	r3, r0
 573:core/WString.cpp **** }
 3972              		.loc 1 573 0
 3973 0016 1846     		mov	r0, r3
 3974 0018 0837     		adds	r7, r7, #8
 3975              		.cfi_def_cfa_offset 8
 3976 001a BD46     		mov	sp, r7
 3977              		.cfi_def_cfa_register 13
 3978              		@ sp needed
 3979 001c 80BD     		pop	{r7, pc}
 3980              		.cfi_endproc
 3981              	.LFE137:
 3982              		.cantunwind
 3983              		.fnend
 3984              		.size	_ZNK6String7indexOfERKS_, .-_ZNK6String7indexOfERKS_
 3985 001e 00BF     		.section	.text._ZNK6String7indexOfERKS_j,"ax",%progbits
 3986              		.align	2
ARM GAS  C:\Users\Bruger\AppData\Local\Temp\ccjLt6bf.s 			page 81


 3987              		.global	_ZNK6String7indexOfERKS_j
 3988              		.thumb
 3989              		.thumb_func
 3990              		.type	_ZNK6String7indexOfERKS_j, %function
 3991              	_ZNK6String7indexOfERKS_j:
 3992              		.fnstart
 3993              	.LFB138:
 574:core/WString.cpp **** 
 575:core/WString.cpp **** int String::indexOf(const String &s2, unsigned int fromIndex) const
 576:core/WString.cpp **** {
 3994              		.loc 1 576 0
 3995              		.cfi_startproc
 3996              		@ args = 0, pretend = 0, frame = 24
 3997              		@ frame_needed = 1, uses_anonymous_args = 0
 3998 0000 80B5     		push	{r7, lr}
 3999              		.cfi_def_cfa_offset 8
 4000              		.cfi_offset 7, -8
 4001              		.cfi_offset 14, -4
 4002 0002 86B0     		sub	sp, sp, #24
 4003              		.cfi_def_cfa_offset 32
 4004 0004 00AF     		add	r7, sp, #0
 4005              		.cfi_def_cfa_register 7
 4006 0006 F860     		str	r0, [r7, #12]
 4007 0008 B960     		str	r1, [r7, #8]
 4008 000a 7A60     		str	r2, [r7, #4]
 4009              	.LBB48:
 577:core/WString.cpp **** 	if (fromIndex >= len) return -1;
 4010              		.loc 1 577 0
 4011 000c FB68     		ldr	r3, [r7, #12]
 4012 000e 9A68     		ldr	r2, [r3, #8]
 4013 0010 7B68     		ldr	r3, [r7, #4]
 4014 0012 9A42     		cmp	r2, r3
 4015 0014 02D8     		bhi	.L206
 4016              		.loc 1 577 0 is_stmt 0 discriminator 1
 4017 0016 4FF0FF33 		mov	r3, #-1
 4018 001a 14E0     		b	.L207
 4019              	.L206:
 578:core/WString.cpp **** 	const char *found = strstr(buffer + fromIndex, s2.buffer);
 4020              		.loc 1 578 0 is_stmt 1
 4021 001c FB68     		ldr	r3, [r7, #12]
 4022 001e 1A68     		ldr	r2, [r3]
 4023 0020 7B68     		ldr	r3, [r7, #4]
 4024 0022 1A44     		add	r2, r2, r3
 4025 0024 BB68     		ldr	r3, [r7, #8]
 4026 0026 1B68     		ldr	r3, [r3]
 4027 0028 1046     		mov	r0, r2
 4028 002a 1946     		mov	r1, r3
 4029 002c FFF7FEFF 		bl	strstr
 4030 0030 7861     		str	r0, [r7, #20]
 579:core/WString.cpp **** 	if (found == NULL) return -1;
 4031              		.loc 1 579 0
 4032 0032 7B69     		ldr	r3, [r7, #20]
 4033 0034 002B     		cmp	r3, #0
 4034 0036 02D1     		bne	.L208
 4035              		.loc 1 579 0 is_stmt 0 discriminator 1
 4036 0038 4FF0FF33 		mov	r3, #-1
 4037 003c 03E0     		b	.L207
ARM GAS  C:\Users\Bruger\AppData\Local\Temp\ccjLt6bf.s 			page 82


 4038              	.L208:
 580:core/WString.cpp **** 	return found - buffer;
 4039              		.loc 1 580 0 is_stmt 1
 4040 003e 7B69     		ldr	r3, [r7, #20]
 4041 0040 FA68     		ldr	r2, [r7, #12]
 4042 0042 1268     		ldr	r2, [r2]
 4043 0044 9B1A     		subs	r3, r3, r2
 4044              	.L207:
 4045              	.LBE48:
 581:core/WString.cpp **** }
 4046              		.loc 1 581 0
 4047 0046 1846     		mov	r0, r3
 4048 0048 1837     		adds	r7, r7, #24
 4049              		.cfi_def_cfa_offset 8
 4050 004a BD46     		mov	sp, r7
 4051              		.cfi_def_cfa_register 13
 4052              		@ sp needed
 4053 004c 80BD     		pop	{r7, pc}
 4054              		.cfi_endproc
 4055              	.LFE138:
 4056              		.cantunwind
 4057              		.fnend
 4058              		.size	_ZNK6String7indexOfERKS_j, .-_ZNK6String7indexOfERKS_j
 4059 004e 00BF     		.section	.text._ZNK6String11lastIndexOfEc,"ax",%progbits
 4060              		.align	2
 4061              		.global	_ZNK6String11lastIndexOfEc
 4062              		.thumb
 4063              		.thumb_func
 4064              		.type	_ZNK6String11lastIndexOfEc, %function
 4065              	_ZNK6String11lastIndexOfEc:
 4066              		.fnstart
 4067              	.LFB139:
 582:core/WString.cpp **** 
 583:core/WString.cpp **** int String::lastIndexOf( char theChar ) const
 584:core/WString.cpp **** {
 4068              		.loc 1 584 0
 4069              		.cfi_startproc
 4070              		@ args = 0, pretend = 0, frame = 8
 4071              		@ frame_needed = 1, uses_anonymous_args = 0
 4072 0000 80B5     		push	{r7, lr}
 4073              		.cfi_def_cfa_offset 8
 4074              		.cfi_offset 7, -8
 4075              		.cfi_offset 14, -4
 4076 0002 82B0     		sub	sp, sp, #8
 4077              		.cfi_def_cfa_offset 16
 4078 0004 00AF     		add	r7, sp, #0
 4079              		.cfi_def_cfa_register 7
 4080 0006 7860     		str	r0, [r7, #4]
 4081 0008 0B46     		mov	r3, r1
 4082 000a FB70     		strb	r3, [r7, #3]
 585:core/WString.cpp **** 	return lastIndexOf(theChar, len - 1);
 4083              		.loc 1 585 0
 4084 000c 7B68     		ldr	r3, [r7, #4]
 4085 000e 9B68     		ldr	r3, [r3, #8]
 4086 0010 013B     		subs	r3, r3, #1
 4087 0012 FA78     		ldrb	r2, [r7, #3]	@ zero_extendqisi2
 4088 0014 7868     		ldr	r0, [r7, #4]
ARM GAS  C:\Users\Bruger\AppData\Local\Temp\ccjLt6bf.s 			page 83


 4089 0016 1146     		mov	r1, r2
 4090 0018 1A46     		mov	r2, r3
 4091 001a FFF7FEFF 		bl	_ZNK6String11lastIndexOfEcj
 4092 001e 0346     		mov	r3, r0
 586:core/WString.cpp **** }
 4093              		.loc 1 586 0
 4094 0020 1846     		mov	r0, r3
 4095 0022 0837     		adds	r7, r7, #8
 4096              		.cfi_def_cfa_offset 8
 4097 0024 BD46     		mov	sp, r7
 4098              		.cfi_def_cfa_register 13
 4099              		@ sp needed
 4100 0026 80BD     		pop	{r7, pc}
 4101              		.cfi_endproc
 4102              	.LFE139:
 4103              		.cantunwind
 4104              		.fnend
 4105              		.size	_ZNK6String11lastIndexOfEc, .-_ZNK6String11lastIndexOfEc
 4106              		.section	.text._ZNK6String11lastIndexOfEcj,"ax",%progbits
 4107              		.align	2
 4108              		.global	_ZNK6String11lastIndexOfEcj
 4109              		.thumb
 4110              		.thumb_func
 4111              		.type	_ZNK6String11lastIndexOfEcj, %function
 4112              	_ZNK6String11lastIndexOfEcj:
 4113              		.fnstart
 4114              	.LFB140:
 587:core/WString.cpp **** 
 588:core/WString.cpp **** int String::lastIndexOf(char ch, unsigned int fromIndex) const
 589:core/WString.cpp **** {
 4115              		.loc 1 589 0
 4116              		.cfi_startproc
 4117              		@ args = 0, pretend = 0, frame = 24
 4118              		@ frame_needed = 1, uses_anonymous_args = 0
 4119 0000 80B5     		push	{r7, lr}
 4120              		.cfi_def_cfa_offset 8
 4121              		.cfi_offset 7, -8
 4122              		.cfi_offset 14, -4
 4123 0002 86B0     		sub	sp, sp, #24
 4124              		.cfi_def_cfa_offset 32
 4125 0004 00AF     		add	r7, sp, #0
 4126              		.cfi_def_cfa_register 7
 4127 0006 F860     		str	r0, [r7, #12]
 4128 0008 0B46     		mov	r3, r1
 4129 000a 7A60     		str	r2, [r7, #4]
 4130 000c FB72     		strb	r3, [r7, #11]
 4131              	.LBB49:
 590:core/WString.cpp **** 	if (fromIndex >= len) return -1;
 4132              		.loc 1 590 0
 4133 000e FB68     		ldr	r3, [r7, #12]
 4134 0010 9A68     		ldr	r2, [r3, #8]
 4135 0012 7B68     		ldr	r3, [r7, #4]
 4136 0014 9A42     		cmp	r2, r3
 4137 0016 02D8     		bhi	.L212
 4138              		.loc 1 590 0 is_stmt 0 discriminator 1
 4139 0018 4FF0FF33 		mov	r3, #-1
 4140 001c 26E0     		b	.L213
ARM GAS  C:\Users\Bruger\AppData\Local\Temp\ccjLt6bf.s 			page 84


 4141              	.L212:
 591:core/WString.cpp **** 	char tempchar = buffer[fromIndex + 1];
 4142              		.loc 1 591 0 is_stmt 1
 4143 001e FB68     		ldr	r3, [r7, #12]
 4144 0020 1A68     		ldr	r2, [r3]
 4145 0022 7B68     		ldr	r3, [r7, #4]
 4146 0024 0133     		adds	r3, r3, #1
 4147 0026 1344     		add	r3, r3, r2
 4148 0028 1B78     		ldrb	r3, [r3]
 4149 002a FB75     		strb	r3, [r7, #23]
 592:core/WString.cpp **** 	buffer[fromIndex + 1] = '\0';
 4150              		.loc 1 592 0
 4151 002c FB68     		ldr	r3, [r7, #12]
 4152 002e 1A68     		ldr	r2, [r3]
 4153 0030 7B68     		ldr	r3, [r7, #4]
 4154 0032 0133     		adds	r3, r3, #1
 4155 0034 1344     		add	r3, r3, r2
 4156 0036 0022     		movs	r2, #0
 4157 0038 1A70     		strb	r2, [r3]
 593:core/WString.cpp **** 	char* temp = strrchr( buffer, ch );
 4158              		.loc 1 593 0
 4159 003a FB68     		ldr	r3, [r7, #12]
 4160 003c 1A68     		ldr	r2, [r3]
 4161 003e FB7A     		ldrb	r3, [r7, #11]	@ zero_extendqisi2
 4162 0040 1046     		mov	r0, r2
 4163 0042 1946     		mov	r1, r3
 4164 0044 FFF7FEFF 		bl	strrchr
 4165 0048 3861     		str	r0, [r7, #16]
 594:core/WString.cpp **** 	buffer[fromIndex + 1] = tempchar;
 4166              		.loc 1 594 0
 4167 004a FB68     		ldr	r3, [r7, #12]
 4168 004c 1A68     		ldr	r2, [r3]
 4169 004e 7B68     		ldr	r3, [r7, #4]
 4170 0050 0133     		adds	r3, r3, #1
 4171 0052 1344     		add	r3, r3, r2
 4172 0054 FA7D     		ldrb	r2, [r7, #23]
 4173 0056 1A70     		strb	r2, [r3]
 595:core/WString.cpp **** 	if (temp == NULL) return -1;
 4174              		.loc 1 595 0
 4175 0058 3B69     		ldr	r3, [r7, #16]
 4176 005a 002B     		cmp	r3, #0
 4177 005c 02D1     		bne	.L214
 4178              		.loc 1 595 0 is_stmt 0 discriminator 1
 4179 005e 4FF0FF33 		mov	r3, #-1
 4180 0062 03E0     		b	.L213
 4181              	.L214:
 596:core/WString.cpp **** 	return temp - buffer;
 4182              		.loc 1 596 0 is_stmt 1
 4183 0064 3B69     		ldr	r3, [r7, #16]
 4184 0066 FA68     		ldr	r2, [r7, #12]
 4185 0068 1268     		ldr	r2, [r2]
 4186 006a 9B1A     		subs	r3, r3, r2
 4187              	.L213:
 4188              	.LBE49:
 597:core/WString.cpp **** }
 4189              		.loc 1 597 0
 4190 006c 1846     		mov	r0, r3
ARM GAS  C:\Users\Bruger\AppData\Local\Temp\ccjLt6bf.s 			page 85


 4191 006e 1837     		adds	r7, r7, #24
 4192              		.cfi_def_cfa_offset 8
 4193 0070 BD46     		mov	sp, r7
 4194              		.cfi_def_cfa_register 13
 4195              		@ sp needed
 4196 0072 80BD     		pop	{r7, pc}
 4197              		.cfi_endproc
 4198              	.LFE140:
 4199              		.cantunwind
 4200              		.fnend
 4201              		.size	_ZNK6String11lastIndexOfEcj, .-_ZNK6String11lastIndexOfEcj
 4202              		.section	.text._ZNK6String11lastIndexOfERKS_,"ax",%progbits
 4203              		.align	2
 4204              		.global	_ZNK6String11lastIndexOfERKS_
 4205              		.thumb
 4206              		.thumb_func
 4207              		.type	_ZNK6String11lastIndexOfERKS_, %function
 4208              	_ZNK6String11lastIndexOfERKS_:
 4209              		.fnstart
 4210              	.LFB141:
 598:core/WString.cpp **** 
 599:core/WString.cpp **** int String::lastIndexOf(const String &s2) const
 600:core/WString.cpp **** {
 4211              		.loc 1 600 0
 4212              		.cfi_startproc
 4213              		@ args = 0, pretend = 0, frame = 8
 4214              		@ frame_needed = 1, uses_anonymous_args = 0
 4215 0000 80B5     		push	{r7, lr}
 4216              		.cfi_def_cfa_offset 8
 4217              		.cfi_offset 7, -8
 4218              		.cfi_offset 14, -4
 4219 0002 82B0     		sub	sp, sp, #8
 4220              		.cfi_def_cfa_offset 16
 4221 0004 00AF     		add	r7, sp, #0
 4222              		.cfi_def_cfa_register 7
 4223 0006 7860     		str	r0, [r7, #4]
 4224 0008 3960     		str	r1, [r7]
 601:core/WString.cpp **** 	return lastIndexOf(s2, len - s2.len);
 4225              		.loc 1 601 0
 4226 000a 7B68     		ldr	r3, [r7, #4]
 4227 000c 9A68     		ldr	r2, [r3, #8]
 4228 000e 3B68     		ldr	r3, [r7]
 4229 0010 9B68     		ldr	r3, [r3, #8]
 4230 0012 D31A     		subs	r3, r2, r3
 4231 0014 7868     		ldr	r0, [r7, #4]
 4232 0016 3968     		ldr	r1, [r7]
 4233 0018 1A46     		mov	r2, r3
 4234 001a FFF7FEFF 		bl	_ZNK6String11lastIndexOfERKS_j
 4235 001e 0346     		mov	r3, r0
 602:core/WString.cpp **** }
 4236              		.loc 1 602 0
 4237 0020 1846     		mov	r0, r3
 4238 0022 0837     		adds	r7, r7, #8
 4239              		.cfi_def_cfa_offset 8
 4240 0024 BD46     		mov	sp, r7
 4241              		.cfi_def_cfa_register 13
 4242              		@ sp needed
ARM GAS  C:\Users\Bruger\AppData\Local\Temp\ccjLt6bf.s 			page 86


 4243 0026 80BD     		pop	{r7, pc}
 4244              		.cfi_endproc
 4245              	.LFE141:
 4246              		.cantunwind
 4247              		.fnend
 4248              		.size	_ZNK6String11lastIndexOfERKS_, .-_ZNK6String11lastIndexOfERKS_
 4249              		.section	.text._ZNK6String11lastIndexOfERKS_j,"ax",%progbits
 4250              		.align	2
 4251              		.global	_ZNK6String11lastIndexOfERKS_j
 4252              		.thumb
 4253              		.thumb_func
 4254              		.type	_ZNK6String11lastIndexOfERKS_j, %function
 4255              	_ZNK6String11lastIndexOfERKS_j:
 4256              		.fnstart
 4257              	.LFB142:
 603:core/WString.cpp **** 
 604:core/WString.cpp **** int String::lastIndexOf(const String &s2, unsigned int fromIndex) const
 605:core/WString.cpp **** {
 4258              		.loc 1 605 0
 4259              		.cfi_startproc
 4260              		@ args = 0, pretend = 0, frame = 24
 4261              		@ frame_needed = 1, uses_anonymous_args = 0
 4262 0000 80B5     		push	{r7, lr}
 4263              		.cfi_def_cfa_offset 8
 4264              		.cfi_offset 7, -8
 4265              		.cfi_offset 14, -4
 4266 0002 86B0     		sub	sp, sp, #24
 4267              		.cfi_def_cfa_offset 32
 4268 0004 00AF     		add	r7, sp, #0
 4269              		.cfi_def_cfa_register 7
 4270 0006 F860     		str	r0, [r7, #12]
 4271 0008 B960     		str	r1, [r7, #8]
 4272 000a 7A60     		str	r2, [r7, #4]
 4273              	.LBB50:
 606:core/WString.cpp ****   	if (s2.len == 0 || len == 0 || s2.len > len) return -1;
 4274              		.loc 1 606 0
 4275 000c BB68     		ldr	r3, [r7, #8]
 4276 000e 9B68     		ldr	r3, [r3, #8]
 4277 0010 002B     		cmp	r3, #0
 4278 0012 09D0     		beq	.L218
 4279              		.loc 1 606 0 is_stmt 0 discriminator 2
 4280 0014 FB68     		ldr	r3, [r7, #12]
 4281 0016 9B68     		ldr	r3, [r3, #8]
 4282 0018 002B     		cmp	r3, #0
 4283 001a 05D0     		beq	.L218
 4284              		.loc 1 606 0 discriminator 4
 4285 001c BB68     		ldr	r3, [r7, #8]
 4286 001e 9A68     		ldr	r2, [r3, #8]
 4287 0020 FB68     		ldr	r3, [r7, #12]
 4288 0022 9B68     		ldr	r3, [r3, #8]
 4289 0024 9A42     		cmp	r2, r3
 4290 0026 02D9     		bls	.L219
 4291              	.L218:
 4292              		.loc 1 606 0 discriminator 5
 4293 0028 4FF0FF33 		mov	r3, #-1
 4294 002c 32E0     		b	.L220
 4295              	.L219:
ARM GAS  C:\Users\Bruger\AppData\Local\Temp\ccjLt6bf.s 			page 87


 607:core/WString.cpp **** 	if (fromIndex >= len) fromIndex = len - 1;
 4296              		.loc 1 607 0 is_stmt 1
 4297 002e FB68     		ldr	r3, [r7, #12]
 4298 0030 9A68     		ldr	r2, [r3, #8]
 4299 0032 7B68     		ldr	r3, [r7, #4]
 4300 0034 9A42     		cmp	r2, r3
 4301 0036 03D8     		bhi	.L221
 4302              		.loc 1 607 0 is_stmt 0 discriminator 1
 4303 0038 FB68     		ldr	r3, [r7, #12]
 4304 003a 9B68     		ldr	r3, [r3, #8]
 4305 003c 013B     		subs	r3, r3, #1
 4306 003e 7B60     		str	r3, [r7, #4]
 4307              	.L221:
 608:core/WString.cpp **** 	int found = -1;
 4308              		.loc 1 608 0 is_stmt 1
 4309 0040 4FF0FF33 		mov	r3, #-1
 4310 0044 7B61     		str	r3, [r7, #20]
 4311              	.LBB51:
 609:core/WString.cpp **** 	for (char *p = buffer; p <= buffer + fromIndex; p++) {
 4312              		.loc 1 609 0
 4313 0046 FB68     		ldr	r3, [r7, #12]
 4314 0048 1B68     		ldr	r3, [r3]
 4315 004a 3B61     		str	r3, [r7, #16]
 4316 004c 1AE0     		b	.L222
 4317              	.L226:
 610:core/WString.cpp **** 		p = strstr(p, s2.buffer);
 4318              		.loc 1 610 0
 4319 004e BB68     		ldr	r3, [r7, #8]
 4320 0050 1B68     		ldr	r3, [r3]
 4321 0052 3869     		ldr	r0, [r7, #16]
 4322 0054 1946     		mov	r1, r3
 4323 0056 FFF7FEFF 		bl	strstr
 4324 005a 3861     		str	r0, [r7, #16]
 611:core/WString.cpp **** 		if (!p) break;
 4325              		.loc 1 611 0
 4326 005c 3B69     		ldr	r3, [r7, #16]
 4327 005e 002B     		cmp	r3, #0
 4328 0060 00D1     		bne	.L223
 4329 0062 16E0     		b	.L224
 4330              	.L223:
 612:core/WString.cpp **** 		if ((unsigned int)(p - buffer) <= fromIndex) found = p - buffer;
 4331              		.loc 1 612 0
 4332 0064 3B69     		ldr	r3, [r7, #16]
 4333 0066 FA68     		ldr	r2, [r7, #12]
 4334 0068 1268     		ldr	r2, [r2]
 4335 006a 9B1A     		subs	r3, r3, r2
 4336 006c 1A46     		mov	r2, r3
 4337 006e 7B68     		ldr	r3, [r7, #4]
 4338 0070 9A42     		cmp	r2, r3
 4339 0072 04D8     		bhi	.L225
 4340              		.loc 1 612 0 is_stmt 0 discriminator 1
 4341 0074 3B69     		ldr	r3, [r7, #16]
 4342 0076 FA68     		ldr	r2, [r7, #12]
 4343 0078 1268     		ldr	r2, [r2]
 4344 007a 9B1A     		subs	r3, r3, r2
 4345 007c 7B61     		str	r3, [r7, #20]
 4346              	.L225:
ARM GAS  C:\Users\Bruger\AppData\Local\Temp\ccjLt6bf.s 			page 88


 609:core/WString.cpp **** 		p = strstr(p, s2.buffer);
 4347              		.loc 1 609 0 is_stmt 1 discriminator 2
 4348 007e 3B69     		ldr	r3, [r7, #16]
 4349 0080 0133     		adds	r3, r3, #1
 4350 0082 3B61     		str	r3, [r7, #16]
 4351              	.L222:
 609:core/WString.cpp **** 		p = strstr(p, s2.buffer);
 4352              		.loc 1 609 0 is_stmt 0 discriminator 1
 4353 0084 FB68     		ldr	r3, [r7, #12]
 4354 0086 1A68     		ldr	r2, [r3]
 4355 0088 7B68     		ldr	r3, [r7, #4]
 4356 008a 1A44     		add	r2, r2, r3
 4357 008c 3B69     		ldr	r3, [r7, #16]
 4358 008e 9A42     		cmp	r2, r3
 4359 0090 DDD2     		bcs	.L226
 4360              	.L224:
 4361              	.LBE51:
 613:core/WString.cpp **** 	}
 614:core/WString.cpp **** 	return found;
 4362              		.loc 1 614 0 is_stmt 1
 4363 0092 7B69     		ldr	r3, [r7, #20]
 4364              	.L220:
 4365              	.LBE50:
 615:core/WString.cpp **** }
 4366              		.loc 1 615 0
 4367 0094 1846     		mov	r0, r3
 4368 0096 1837     		adds	r7, r7, #24
 4369              		.cfi_def_cfa_offset 8
 4370 0098 BD46     		mov	sp, r7
 4371              		.cfi_def_cfa_register 13
 4372              		@ sp needed
 4373 009a 80BD     		pop	{r7, pc}
 4374              		.cfi_endproc
 4375              	.LFE142:
 4376              		.cantunwind
 4377              		.fnend
 4378              		.size	_ZNK6String11lastIndexOfERKS_j, .-_ZNK6String11lastIndexOfERKS_j
 4379              		.section	.rodata
 4380              		.align	2
 4381              	.LC0:
 4382 0000 00       		.ascii	"\000"
 4383 0001 000000   		.section	.text._ZNK6String9substringEjj,"ax",%progbits
 4384              		.align	2
 4385              		.global	_ZNK6String9substringEjj
 4386              		.thumb
 4387              		.thumb_func
 4388              		.type	_ZNK6String9substringEjj, %function
 4389              	_ZNK6String9substringEjj:
 4390              		.fnstart
 4391              	.LFB143:
 616:core/WString.cpp **** 
 617:core/WString.cpp **** String String::substring(unsigned int left, unsigned int right) const
 618:core/WString.cpp **** {
 4392              		.loc 1 618 0
 4393              		.cfi_startproc
 4394              		@ args = 0, pretend = 0, frame = 24
 4395              		@ frame_needed = 1, uses_anonymous_args = 0
ARM GAS  C:\Users\Bruger\AppData\Local\Temp\ccjLt6bf.s 			page 89


 4396 0000 80B5     		push	{r7, lr}
 4397              		.save {r7, lr}
 4398              		.cfi_def_cfa_offset 8
 4399              		.cfi_offset 7, -8
 4400              		.cfi_offset 14, -4
 4401              		.pad #24
 4402 0002 86B0     		sub	sp, sp, #24
 4403              		.cfi_def_cfa_offset 32
 4404              		.setfp r7, sp, #0
 4405 0004 00AF     		add	r7, sp, #0
 4406              		.cfi_def_cfa_register 7
 4407 0006 F860     		str	r0, [r7, #12]
 4408 0008 B960     		str	r1, [r7, #8]
 4409 000a 7A60     		str	r2, [r7, #4]
 4410 000c 3B60     		str	r3, [r7]
 4411              	.LBB52:
 4412              	.LBB53:
 619:core/WString.cpp **** 	if (left > right) {
 4413              		.loc 1 619 0
 4414 000e 7A68     		ldr	r2, [r7, #4]
 4415 0010 3B68     		ldr	r3, [r7]
 4416 0012 9A42     		cmp	r2, r3
 4417 0014 05D9     		bls	.L228
 4418              	.LBB54:
 620:core/WString.cpp **** 		unsigned int temp = right;
 4419              		.loc 1 620 0
 4420 0016 3B68     		ldr	r3, [r7]
 4421 0018 7B61     		str	r3, [r7, #20]
 621:core/WString.cpp **** 		right = left;
 4422              		.loc 1 621 0
 4423 001a 7B68     		ldr	r3, [r7, #4]
 4424 001c 3B60     		str	r3, [r7]
 622:core/WString.cpp **** 		left = temp;
 4425              		.loc 1 622 0
 4426 001e 7B69     		ldr	r3, [r7, #20]
 4427 0020 7B60     		str	r3, [r7, #4]
 4428              	.L228:
 4429              	.LBE54:
 4430              	.LBE53:
 623:core/WString.cpp **** 	}
 624:core/WString.cpp **** 	String out;
 4431              		.loc 1 624 0
 4432 0022 F868     		ldr	r0, [r7, #12]
 4433 0024 1749     		ldr	r1, .L232
 4434 0026 FFF7FEFF 		bl	_ZN6StringC2EPKc
 625:core/WString.cpp **** 	if (left >= len) return out;
 4435              		.loc 1 625 0
 4436 002a BB68     		ldr	r3, [r7, #8]
 4437 002c 9A68     		ldr	r2, [r3, #8]
 4438 002e 7B68     		ldr	r3, [r7, #4]
 4439 0030 9A42     		cmp	r2, r3
 4440 0032 00D8     		bhi	.L229
 4441 0034 22E0     		b	.L227
 4442              	.L229:
 626:core/WString.cpp **** 	if (right > len) right = len;
 4443              		.loc 1 626 0
 4444 0036 BB68     		ldr	r3, [r7, #8]
ARM GAS  C:\Users\Bruger\AppData\Local\Temp\ccjLt6bf.s 			page 90


 4445 0038 9A68     		ldr	r2, [r3, #8]
 4446 003a 3B68     		ldr	r3, [r7]
 4447 003c 9A42     		cmp	r2, r3
 4448 003e 02D2     		bcs	.L231
 4449              		.loc 1 626 0 is_stmt 0 discriminator 1
 4450 0040 BB68     		ldr	r3, [r7, #8]
 4451 0042 9B68     		ldr	r3, [r3, #8]
 4452 0044 3B60     		str	r3, [r7]
 4453              	.L231:
 627:core/WString.cpp **** 	char temp = buffer[right];  // save the replaced character
 4454              		.loc 1 627 0 is_stmt 1
 4455 0046 BB68     		ldr	r3, [r7, #8]
 4456 0048 1A68     		ldr	r2, [r3]
 4457 004a 3B68     		ldr	r3, [r7]
 4458 004c 1344     		add	r3, r3, r2
 4459 004e 1B78     		ldrb	r3, [r3]
 4460 0050 FB74     		strb	r3, [r7, #19]
 628:core/WString.cpp **** 	buffer[right] = '\0';	
 4461              		.loc 1 628 0
 4462 0052 BB68     		ldr	r3, [r7, #8]
 4463 0054 1A68     		ldr	r2, [r3]
 4464 0056 3B68     		ldr	r3, [r7]
 4465 0058 1344     		add	r3, r3, r2
 4466 005a 0022     		movs	r2, #0
 4467 005c 1A70     		strb	r2, [r3]
 629:core/WString.cpp **** 	out = buffer + left;  // pointer arithmetic
 4468              		.loc 1 629 0
 4469 005e BB68     		ldr	r3, [r7, #8]
 4470 0060 1A68     		ldr	r2, [r3]
 4471 0062 7B68     		ldr	r3, [r7, #4]
 4472 0064 1344     		add	r3, r3, r2
 4473 0066 F868     		ldr	r0, [r7, #12]
 4474 0068 1946     		mov	r1, r3
 4475 006a FFF7FEFF 		bl	_ZN6StringaSEPKc
 630:core/WString.cpp **** 	buffer[right] = temp;  //restore character
 4476              		.loc 1 630 0
 4477 006e BB68     		ldr	r3, [r7, #8]
 4478 0070 1A68     		ldr	r2, [r3]
 4479 0072 3B68     		ldr	r3, [r7]
 4480 0074 1344     		add	r3, r3, r2
 4481 0076 FA7C     		ldrb	r2, [r7, #19]
 4482 0078 1A70     		strb	r2, [r3]
 631:core/WString.cpp **** 	return out;
 4483              		.loc 1 631 0
 4484 007a 00BF     		nop
 4485              	.L227:
 4486              	.LBE52:
 632:core/WString.cpp **** }
 4487              		.loc 1 632 0
 4488 007c F868     		ldr	r0, [r7, #12]
 4489 007e 1837     		adds	r7, r7, #24
 4490              		.cfi_def_cfa_offset 8
 4491 0080 BD46     		mov	sp, r7
 4492              		.cfi_def_cfa_register 13
 4493              		@ sp needed
 4494 0082 80BD     		pop	{r7, pc}
 4495              	.L233:
ARM GAS  C:\Users\Bruger\AppData\Local\Temp\ccjLt6bf.s 			page 91


 4496              		.align	2
 4497              	.L232:
 4498 0084 00000000 		.word	.LC0
 4499              		.cfi_endproc
 4500              	.LFE143:
 4501              		.fnend
 4502              		.size	_ZNK6String9substringEjj, .-_ZNK6String9substringEjj
 4503              		.section	.text._ZN6String7replaceEcc,"ax",%progbits
 4504              		.align	2
 4505              		.global	_ZN6String7replaceEcc
 4506              		.thumb
 4507              		.thumb_func
 4508              		.type	_ZN6String7replaceEcc, %function
 4509              	_ZN6String7replaceEcc:
 4510              		.fnstart
 4511              	.LFB144:
 633:core/WString.cpp **** 
 634:core/WString.cpp **** /*********************************************/
 635:core/WString.cpp **** /*  Modification                             */
 636:core/WString.cpp **** /*********************************************/
 637:core/WString.cpp **** 
 638:core/WString.cpp **** void String::replace(char find, char replace)
 639:core/WString.cpp **** {
 4512              		.loc 1 639 0
 4513              		.cfi_startproc
 4514              		@ args = 0, pretend = 0, frame = 16
 4515              		@ frame_needed = 1, uses_anonymous_args = 0
 4516              		@ link register save eliminated.
 4517 0000 80B4     		push	{r7}
 4518              		.cfi_def_cfa_offset 4
 4519              		.cfi_offset 7, -4
 4520 0002 85B0     		sub	sp, sp, #20
 4521              		.cfi_def_cfa_offset 24
 4522 0004 00AF     		add	r7, sp, #0
 4523              		.cfi_def_cfa_register 7
 4524 0006 7860     		str	r0, [r7, #4]
 4525 0008 0B46     		mov	r3, r1
 4526 000a FB70     		strb	r3, [r7, #3]
 4527 000c 1346     		mov	r3, r2
 4528 000e BB70     		strb	r3, [r7, #2]
 4529              	.LBB55:
 640:core/WString.cpp **** 	if (!buffer) return;
 4530              		.loc 1 640 0
 4531 0010 7B68     		ldr	r3, [r7, #4]
 4532 0012 1B68     		ldr	r3, [r3]
 4533 0014 002B     		cmp	r3, #0
 4534 0016 00D1     		bne	.L235
 4535 0018 12E0     		b	.L234
 4536              	.L235:
 4537              	.LBB56:
 641:core/WString.cpp **** 	for (char *p = buffer; *p; p++) {
 4538              		.loc 1 641 0
 4539 001a 7B68     		ldr	r3, [r7, #4]
 4540 001c 1B68     		ldr	r3, [r3]
 4541 001e FB60     		str	r3, [r7, #12]
 4542 0020 0AE0     		b	.L237
 4543              	.L239:
ARM GAS  C:\Users\Bruger\AppData\Local\Temp\ccjLt6bf.s 			page 92


 642:core/WString.cpp **** 		if (*p == find) *p = replace;
 4544              		.loc 1 642 0
 4545 0022 FB68     		ldr	r3, [r7, #12]
 4546 0024 1B78     		ldrb	r3, [r3]	@ zero_extendqisi2
 4547 0026 FA78     		ldrb	r2, [r7, #3]	@ zero_extendqisi2
 4548 0028 9A42     		cmp	r2, r3
 4549 002a 02D1     		bne	.L238
 4550              		.loc 1 642 0 is_stmt 0 discriminator 1
 4551 002c FB68     		ldr	r3, [r7, #12]
 4552 002e BA78     		ldrb	r2, [r7, #2]
 4553 0030 1A70     		strb	r2, [r3]
 4554              	.L238:
 641:core/WString.cpp **** 	for (char *p = buffer; *p; p++) {
 4555              		.loc 1 641 0 is_stmt 1 discriminator 2
 4556 0032 FB68     		ldr	r3, [r7, #12]
 4557 0034 0133     		adds	r3, r3, #1
 4558 0036 FB60     		str	r3, [r7, #12]
 4559              	.L237:
 641:core/WString.cpp **** 	for (char *p = buffer; *p; p++) {
 4560              		.loc 1 641 0 is_stmt 0 discriminator 1
 4561 0038 FB68     		ldr	r3, [r7, #12]
 4562 003a 1B78     		ldrb	r3, [r3]	@ zero_extendqisi2
 4563 003c 002B     		cmp	r3, #0
 4564 003e F0D1     		bne	.L239
 4565              	.L234:
 4566              	.LBE56:
 4567              	.LBE55:
 643:core/WString.cpp **** 	}
 644:core/WString.cpp **** }
 4568              		.loc 1 644 0 is_stmt 1
 4569 0040 1437     		adds	r7, r7, #20
 4570              		.cfi_def_cfa_offset 4
 4571 0042 BD46     		mov	sp, r7
 4572              		.cfi_def_cfa_register 13
 4573              		@ sp needed
 4574 0044 5DF8047B 		ldr	r7, [sp], #4
 4575              		.cfi_restore 7
 4576              		.cfi_def_cfa_offset 0
 4577 0048 7047     		bx	lr
 4578              		.cfi_endproc
 4579              	.LFE144:
 4580              		.cantunwind
 4581              		.fnend
 4582              		.size	_ZN6String7replaceEcc, .-_ZN6String7replaceEcc
 4583 004a 00BF     		.section	.text._ZN6String7replaceERKS_S1_,"ax",%progbits
 4584              		.align	2
 4585              		.global	_ZN6String7replaceERKS_S1_
 4586              		.thumb
 4587              		.thumb_func
 4588              		.type	_ZN6String7replaceERKS_S1_, %function
 4589              	_ZN6String7replaceERKS_S1_:
 4590              		.fnstart
 4591              	.LFB145:
 645:core/WString.cpp **** 
 646:core/WString.cpp **** void String::replace(const String& find, const String& replace)
 647:core/WString.cpp **** {
 4592              		.loc 1 647 0
ARM GAS  C:\Users\Bruger\AppData\Local\Temp\ccjLt6bf.s 			page 93


 4593              		.cfi_startproc
 4594              		@ args = 0, pretend = 0, frame = 48
 4595              		@ frame_needed = 1, uses_anonymous_args = 0
 4596 0000 80B5     		push	{r7, lr}
 4597              		.cfi_def_cfa_offset 8
 4598              		.cfi_offset 7, -8
 4599              		.cfi_offset 14, -4
 4600 0002 8CB0     		sub	sp, sp, #48
 4601              		.cfi_def_cfa_offset 56
 4602 0004 00AF     		add	r7, sp, #0
 4603              		.cfi_def_cfa_register 7
 4604 0006 F860     		str	r0, [r7, #12]
 4605 0008 B960     		str	r1, [r7, #8]
 4606 000a 7A60     		str	r2, [r7, #4]
 4607              	.LBB57:
 648:core/WString.cpp **** 	if (len == 0 || find.len == 0) return;
 4608              		.loc 1 648 0
 4609 000c FB68     		ldr	r3, [r7, #12]
 4610 000e 9B68     		ldr	r3, [r3, #8]
 4611 0010 002B     		cmp	r3, #0
 4612 0012 03D0     		beq	.L241
 4613              		.loc 1 648 0 is_stmt 0 discriminator 1
 4614 0014 BB68     		ldr	r3, [r7, #8]
 4615 0016 9B68     		ldr	r3, [r3, #8]
 4616 0018 002B     		cmp	r3, #0
 4617 001a 00D1     		bne	.L242
 4618              	.L241:
 4619              		.loc 1 648 0
 4620 001c EBE0     		b	.L240
 4621              	.L242:
 649:core/WString.cpp **** 	int diff = replace.len - find.len;
 4622              		.loc 1 649 0 is_stmt 1
 4623 001e 7B68     		ldr	r3, [r7, #4]
 4624 0020 9A68     		ldr	r2, [r3, #8]
 4625 0022 BB68     		ldr	r3, [r7, #8]
 4626 0024 9B68     		ldr	r3, [r3, #8]
 4627 0026 D31A     		subs	r3, r2, r3
 4628 0028 FB61     		str	r3, [r7, #28]
 650:core/WString.cpp **** 	char *readFrom = buffer;
 4629              		.loc 1 650 0
 4630 002a FB68     		ldr	r3, [r7, #12]
 4631 002c 1B68     		ldr	r3, [r3]
 4632 002e FB62     		str	r3, [r7, #44]
 4633              	.LBB58:
 651:core/WString.cpp **** 	char *foundAt;
 652:core/WString.cpp **** 	if (diff == 0) {
 4634              		.loc 1 652 0
 4635 0030 FB69     		ldr	r3, [r7, #28]
 4636 0032 002B     		cmp	r3, #0
 4637 0034 1ED1     		bne	.L244
 653:core/WString.cpp **** 		while ((foundAt = strstr(readFrom, find.buffer)) != NULL) {
 4638              		.loc 1 653 0
 4639 0036 0DE0     		b	.L245
 4640              	.L246:
 654:core/WString.cpp **** 			memcpy(foundAt, replace.buffer, replace.len);
 4641              		.loc 1 654 0
 4642 0038 7B68     		ldr	r3, [r7, #4]
ARM GAS  C:\Users\Bruger\AppData\Local\Temp\ccjLt6bf.s 			page 94


 4643 003a 1A68     		ldr	r2, [r3]
 4644 003c 7B68     		ldr	r3, [r7, #4]
 4645 003e 9B68     		ldr	r3, [r3, #8]
 4646 0040 B869     		ldr	r0, [r7, #24]
 4647 0042 1146     		mov	r1, r2
 4648 0044 1A46     		mov	r2, r3
 4649 0046 FFF7FEFF 		bl	memcpy
 655:core/WString.cpp **** 			readFrom = foundAt + replace.len;
 4650              		.loc 1 655 0
 4651 004a 7B68     		ldr	r3, [r7, #4]
 4652 004c 9B68     		ldr	r3, [r3, #8]
 4653 004e BA69     		ldr	r2, [r7, #24]
 4654 0050 1344     		add	r3, r3, r2
 4655 0052 FB62     		str	r3, [r7, #44]
 4656              	.L245:
 653:core/WString.cpp **** 		while ((foundAt = strstr(readFrom, find.buffer)) != NULL) {
 4657              		.loc 1 653 0
 4658 0054 BB68     		ldr	r3, [r7, #8]
 4659 0056 1B68     		ldr	r3, [r3]
 4660 0058 F86A     		ldr	r0, [r7, #44]
 4661 005a 1946     		mov	r1, r3
 4662 005c FFF7FEFF 		bl	strstr
 4663 0060 B861     		str	r0, [r7, #24]
 4664 0062 BB69     		ldr	r3, [r7, #24]
 4665 0064 002B     		cmp	r3, #0
 4666 0066 14BF     		ite	ne
 4667 0068 0123     		movne	r3, #1
 4668 006a 0023     		moveq	r3, #0
 4669 006c DBB2     		uxtb	r3, r3
 4670 006e 002B     		cmp	r3, #0
 4671 0070 E2D1     		bne	.L246
 4672 0072 C0E0     		b	.L240
 4673              	.L244:
 4674              	.LBB59:
 4675              	.LBB60:
 656:core/WString.cpp **** 		}
 657:core/WString.cpp **** 	} else if (diff < 0) {
 4676              		.loc 1 657 0
 4677 0074 FB69     		ldr	r3, [r7, #28]
 4678 0076 002B     		cmp	r3, #0
 4679 0078 3DDA     		bge	.L247
 4680              	.LBB61:
 658:core/WString.cpp **** 		char *writeTo = buffer;
 4681              		.loc 1 658 0
 4682 007a FB68     		ldr	r3, [r7, #12]
 4683 007c 1B68     		ldr	r3, [r3]
 4684 007e BB62     		str	r3, [r7, #40]
 659:core/WString.cpp **** 		while ((foundAt = strstr(readFrom, find.buffer)) != NULL) {
 4685              		.loc 1 659 0
 4686 0080 25E0     		b	.L248
 4687              	.L249:
 4688              	.LBB62:
 660:core/WString.cpp **** 			unsigned int n = foundAt - readFrom;
 4689              		.loc 1 660 0
 4690 0082 BA69     		ldr	r2, [r7, #24]
 4691 0084 FB6A     		ldr	r3, [r7, #44]
 4692 0086 D31A     		subs	r3, r2, r3
ARM GAS  C:\Users\Bruger\AppData\Local\Temp\ccjLt6bf.s 			page 95


 4693 0088 7B61     		str	r3, [r7, #20]
 661:core/WString.cpp **** 			memcpy(writeTo, readFrom, n);
 4694              		.loc 1 661 0
 4695 008a B86A     		ldr	r0, [r7, #40]
 4696 008c F96A     		ldr	r1, [r7, #44]
 4697 008e 7A69     		ldr	r2, [r7, #20]
 4698 0090 FFF7FEFF 		bl	memcpy
 662:core/WString.cpp **** 			writeTo += n;
 4699              		.loc 1 662 0
 4700 0094 BA6A     		ldr	r2, [r7, #40]
 4701 0096 7B69     		ldr	r3, [r7, #20]
 4702 0098 1344     		add	r3, r3, r2
 4703 009a BB62     		str	r3, [r7, #40]
 663:core/WString.cpp **** 			memcpy(writeTo, replace.buffer, replace.len);
 4704              		.loc 1 663 0
 4705 009c 7B68     		ldr	r3, [r7, #4]
 4706 009e 1A68     		ldr	r2, [r3]
 4707 00a0 7B68     		ldr	r3, [r7, #4]
 4708 00a2 9B68     		ldr	r3, [r3, #8]
 4709 00a4 B86A     		ldr	r0, [r7, #40]
 4710 00a6 1146     		mov	r1, r2
 4711 00a8 1A46     		mov	r2, r3
 4712 00aa FFF7FEFF 		bl	memcpy
 664:core/WString.cpp **** 			writeTo += replace.len;
 4713              		.loc 1 664 0
 4714 00ae 7B68     		ldr	r3, [r7, #4]
 4715 00b0 9B68     		ldr	r3, [r3, #8]
 4716 00b2 BA6A     		ldr	r2, [r7, #40]
 4717 00b4 1344     		add	r3, r3, r2
 4718 00b6 BB62     		str	r3, [r7, #40]
 665:core/WString.cpp **** 			readFrom = foundAt + find.len;
 4719              		.loc 1 665 0
 4720 00b8 BB68     		ldr	r3, [r7, #8]
 4721 00ba 9B68     		ldr	r3, [r3, #8]
 4722 00bc BA69     		ldr	r2, [r7, #24]
 4723 00be 1344     		add	r3, r3, r2
 4724 00c0 FB62     		str	r3, [r7, #44]
 666:core/WString.cpp **** 			len += diff;
 4725              		.loc 1 666 0
 4726 00c2 FB68     		ldr	r3, [r7, #12]
 4727 00c4 9A68     		ldr	r2, [r3, #8]
 4728 00c6 FB69     		ldr	r3, [r7, #28]
 4729 00c8 1A44     		add	r2, r2, r3
 4730 00ca FB68     		ldr	r3, [r7, #12]
 4731 00cc 9A60     		str	r2, [r3, #8]
 4732              	.L248:
 4733              	.LBE62:
 659:core/WString.cpp **** 			unsigned int n = foundAt - readFrom;
 4734              		.loc 1 659 0
 4735 00ce BB68     		ldr	r3, [r7, #8]
 4736 00d0 1B68     		ldr	r3, [r3]
 4737 00d2 F86A     		ldr	r0, [r7, #44]
 4738 00d4 1946     		mov	r1, r3
 4739 00d6 FFF7FEFF 		bl	strstr
 4740 00da B861     		str	r0, [r7, #24]
 4741 00dc BB69     		ldr	r3, [r7, #24]
 4742 00de 002B     		cmp	r3, #0
ARM GAS  C:\Users\Bruger\AppData\Local\Temp\ccjLt6bf.s 			page 96


 4743 00e0 14BF     		ite	ne
 4744 00e2 0123     		movne	r3, #1
 4745 00e4 0023     		moveq	r3, #0
 4746 00e6 DBB2     		uxtb	r3, r3
 4747 00e8 002B     		cmp	r3, #0
 4748 00ea CAD1     		bne	.L249
 667:core/WString.cpp **** 		}
 668:core/WString.cpp **** 		strcpy(writeTo, readFrom);
 4749              		.loc 1 668 0
 4750 00ec B86A     		ldr	r0, [r7, #40]
 4751 00ee F96A     		ldr	r1, [r7, #44]
 4752 00f0 FFF7FEFF 		bl	strcpy
 4753              	.LBE61:
 4754 00f4 7FE0     		b	.L240
 4755              	.L247:
 4756              	.LBB63:
 669:core/WString.cpp **** 	} else {
 670:core/WString.cpp **** 		unsigned int size = len; // compute size needed for result
 4757              		.loc 1 670 0
 4758 00f6 FB68     		ldr	r3, [r7, #12]
 4759 00f8 9B68     		ldr	r3, [r3, #8]
 4760 00fa 7B62     		str	r3, [r7, #36]
 671:core/WString.cpp **** 		while ((foundAt = strstr(readFrom, find.buffer)) != NULL) {
 4761              		.loc 1 671 0
 4762 00fc 08E0     		b	.L250
 4763              	.L251:
 672:core/WString.cpp **** 			readFrom = foundAt + find.len;
 4764              		.loc 1 672 0
 4765 00fe BB68     		ldr	r3, [r7, #8]
 4766 0100 9B68     		ldr	r3, [r3, #8]
 4767 0102 BA69     		ldr	r2, [r7, #24]
 4768 0104 1344     		add	r3, r3, r2
 4769 0106 FB62     		str	r3, [r7, #44]
 673:core/WString.cpp **** 			size += diff;
 4770              		.loc 1 673 0
 4771 0108 FB69     		ldr	r3, [r7, #28]
 4772 010a 7A6A     		ldr	r2, [r7, #36]
 4773 010c 1344     		add	r3, r3, r2
 4774 010e 7B62     		str	r3, [r7, #36]
 4775              	.L250:
 671:core/WString.cpp **** 		while ((foundAt = strstr(readFrom, find.buffer)) != NULL) {
 4776              		.loc 1 671 0
 4777 0110 BB68     		ldr	r3, [r7, #8]
 4778 0112 1B68     		ldr	r3, [r3]
 4779 0114 F86A     		ldr	r0, [r7, #44]
 4780 0116 1946     		mov	r1, r3
 4781 0118 FFF7FEFF 		bl	strstr
 4782 011c B861     		str	r0, [r7, #24]
 4783 011e BB69     		ldr	r3, [r7, #24]
 4784 0120 002B     		cmp	r3, #0
 4785 0122 14BF     		ite	ne
 4786 0124 0123     		movne	r3, #1
 4787 0126 0023     		moveq	r3, #0
 4788 0128 DBB2     		uxtb	r3, r3
 4789 012a 002B     		cmp	r3, #0
 4790 012c E7D1     		bne	.L251
 674:core/WString.cpp **** 		}
ARM GAS  C:\Users\Bruger\AppData\Local\Temp\ccjLt6bf.s 			page 97


 675:core/WString.cpp **** 		if (size == len) return;
 4791              		.loc 1 675 0
 4792 012e FB68     		ldr	r3, [r7, #12]
 4793 0130 9A68     		ldr	r2, [r3, #8]
 4794 0132 7B6A     		ldr	r3, [r7, #36]
 4795 0134 9A42     		cmp	r2, r3
 4796 0136 00D1     		bne	.L252
 4797              		.loc 1 675 0 is_stmt 0 discriminator 3
 4798 0138 5DE0     		b	.L240
 4799              	.L252:
 676:core/WString.cpp **** 		if (size > capacity && !changeBuffer(size)) return; // XXX: tell user!
 4800              		.loc 1 676 0 is_stmt 1
 4801 013a FB68     		ldr	r3, [r7, #12]
 4802 013c 5A68     		ldr	r2, [r3, #4]
 4803 013e 7B6A     		ldr	r3, [r7, #36]
 4804 0140 9A42     		cmp	r2, r3
 4805 0142 08D2     		bcs	.L253
 4806              		.loc 1 676 0 is_stmt 0 discriminator 1
 4807 0144 F868     		ldr	r0, [r7, #12]
 4808 0146 796A     		ldr	r1, [r7, #36]
 4809 0148 FFF7FEFF 		bl	_ZN6String12changeBufferEj
 4810 014c 0346     		mov	r3, r0
 4811 014e 002B     		cmp	r3, #0
 4812 0150 01D1     		bne	.L253
 4813              		.loc 1 676 0 discriminator 3
 4814 0152 0123     		movs	r3, #1
 4815 0154 00E0     		b	.L254
 4816              	.L253:
 4817              		.loc 1 676 0 discriminator 4
 4818 0156 0023     		movs	r3, #0
 4819              	.L254:
 4820              		.loc 1 676 0 discriminator 6
 4821 0158 002B     		cmp	r3, #0
 4822 015a 00D0     		beq	.L255
 4823              		.loc 1 676 0 discriminator 4
 4824 015c 4BE0     		b	.L240
 4825              	.L255:
 677:core/WString.cpp **** 		int index = len - 1;
 4826              		.loc 1 677 0 is_stmt 1
 4827 015e FB68     		ldr	r3, [r7, #12]
 4828 0160 9B68     		ldr	r3, [r3, #8]
 4829 0162 013B     		subs	r3, r3, #1
 4830 0164 3B62     		str	r3, [r7, #32]
 678:core/WString.cpp **** 		while (index >= 0 && (index = lastIndexOf(find, index)) >= 0) {
 4831              		.loc 1 678 0
 4832 0166 34E0     		b	.L256
 4833              	.L259:
 679:core/WString.cpp **** 			readFrom = buffer + index + find.len;
 4834              		.loc 1 679 0
 4835 0168 FB68     		ldr	r3, [r7, #12]
 4836 016a 1A68     		ldr	r2, [r3]
 4837 016c BB68     		ldr	r3, [r7, #8]
 4838 016e 9968     		ldr	r1, [r3, #8]
 4839 0170 3B6A     		ldr	r3, [r7, #32]
 4840 0172 0B44     		add	r3, r3, r1
 4841 0174 1344     		add	r3, r3, r2
 4842 0176 FB62     		str	r3, [r7, #44]
ARM GAS  C:\Users\Bruger\AppData\Local\Temp\ccjLt6bf.s 			page 98


 680:core/WString.cpp **** 			memmove(readFrom + diff, readFrom, len - (readFrom - buffer));
 4843              		.loc 1 680 0
 4844 0178 FB69     		ldr	r3, [r7, #28]
 4845 017a FA6A     		ldr	r2, [r7, #44]
 4846 017c D118     		adds	r1, r2, r3
 4847 017e FB68     		ldr	r3, [r7, #12]
 4848 0180 9B68     		ldr	r3, [r3, #8]
 4849 0182 FA68     		ldr	r2, [r7, #12]
 4850 0184 1268     		ldr	r2, [r2]
 4851 0186 1046     		mov	r0, r2
 4852 0188 FA6A     		ldr	r2, [r7, #44]
 4853 018a 821A     		subs	r2, r0, r2
 4854 018c 1344     		add	r3, r3, r2
 4855 018e 0846     		mov	r0, r1
 4856 0190 F96A     		ldr	r1, [r7, #44]
 4857 0192 1A46     		mov	r2, r3
 4858 0194 FFF7FEFF 		bl	memmove
 681:core/WString.cpp **** 			len += diff;
 4859              		.loc 1 681 0
 4860 0198 FB68     		ldr	r3, [r7, #12]
 4861 019a 9A68     		ldr	r2, [r3, #8]
 4862 019c FB69     		ldr	r3, [r7, #28]
 4863 019e 1A44     		add	r2, r2, r3
 4864 01a0 FB68     		ldr	r3, [r7, #12]
 4865 01a2 9A60     		str	r2, [r3, #8]
 682:core/WString.cpp **** 			buffer[len] = 0;
 4866              		.loc 1 682 0
 4867 01a4 FB68     		ldr	r3, [r7, #12]
 4868 01a6 1A68     		ldr	r2, [r3]
 4869 01a8 FB68     		ldr	r3, [r7, #12]
 4870 01aa 9B68     		ldr	r3, [r3, #8]
 4871 01ac 1344     		add	r3, r3, r2
 4872 01ae 0022     		movs	r2, #0
 4873 01b0 1A70     		strb	r2, [r3]
 683:core/WString.cpp **** 			memcpy(buffer + index, replace.buffer, replace.len);
 4874              		.loc 1 683 0
 4875 01b2 FB68     		ldr	r3, [r7, #12]
 4876 01b4 1A68     		ldr	r2, [r3]
 4877 01b6 3B6A     		ldr	r3, [r7, #32]
 4878 01b8 D118     		adds	r1, r2, r3
 4879 01ba 7B68     		ldr	r3, [r7, #4]
 4880 01bc 1A68     		ldr	r2, [r3]
 4881 01be 7B68     		ldr	r3, [r7, #4]
 4882 01c0 9B68     		ldr	r3, [r3, #8]
 4883 01c2 0846     		mov	r0, r1
 4884 01c4 1146     		mov	r1, r2
 4885 01c6 1A46     		mov	r2, r3
 4886 01c8 FFF7FEFF 		bl	memcpy
 684:core/WString.cpp **** 			index--;
 4887              		.loc 1 684 0
 4888 01cc 3B6A     		ldr	r3, [r7, #32]
 4889 01ce 013B     		subs	r3, r3, #1
 4890 01d0 3B62     		str	r3, [r7, #32]
 4891              	.L256:
 678:core/WString.cpp **** 			readFrom = buffer + index + find.len;
 4892              		.loc 1 678 0
 4893 01d2 3B6A     		ldr	r3, [r7, #32]
ARM GAS  C:\Users\Bruger\AppData\Local\Temp\ccjLt6bf.s 			page 99


 4894 01d4 002B     		cmp	r3, #0
 4895 01d6 0BDB     		blt	.L257
 678:core/WString.cpp **** 			readFrom = buffer + index + find.len;
 4896              		.loc 1 678 0 is_stmt 0 discriminator 1
 4897 01d8 3B6A     		ldr	r3, [r7, #32]
 4898 01da F868     		ldr	r0, [r7, #12]
 4899 01dc B968     		ldr	r1, [r7, #8]
 4900 01de 1A46     		mov	r2, r3
 4901 01e0 FFF7FEFF 		bl	_ZNK6String11lastIndexOfERKS_j
 4902 01e4 3862     		str	r0, [r7, #32]
 4903 01e6 3B6A     		ldr	r3, [r7, #32]
 4904 01e8 002B     		cmp	r3, #0
 4905 01ea 01DB     		blt	.L257
 678:core/WString.cpp **** 			readFrom = buffer + index + find.len;
 4906              		.loc 1 678 0 discriminator 3
 4907 01ec 0123     		movs	r3, #1
 4908 01ee 00E0     		b	.L258
 4909              	.L257:
 678:core/WString.cpp **** 			readFrom = buffer + index + find.len;
 4910              		.loc 1 678 0 discriminator 4
 4911 01f0 0023     		movs	r3, #0
 4912              	.L258:
 678:core/WString.cpp **** 			readFrom = buffer + index + find.len;
 4913              		.loc 1 678 0 discriminator 6
 4914 01f2 002B     		cmp	r3, #0
 4915 01f4 B8D1     		bne	.L259
 4916              	.L240:
 4917              	.LBE63:
 4918              	.LBE60:
 4919              	.LBE59:
 4920              	.LBE58:
 4921              	.LBE57:
 685:core/WString.cpp **** 		}
 686:core/WString.cpp **** 	}
 687:core/WString.cpp **** }
 4922              		.loc 1 687 0 is_stmt 1
 4923 01f6 3037     		adds	r7, r7, #48
 4924              		.cfi_def_cfa_offset 8
 4925 01f8 BD46     		mov	sp, r7
 4926              		.cfi_def_cfa_register 13
 4927              		@ sp needed
 4928 01fa 80BD     		pop	{r7, pc}
 4929              		.cfi_endproc
 4930              	.LFE145:
 4931              		.cantunwind
 4932              		.fnend
 4933              		.size	_ZN6String7replaceERKS_S1_, .-_ZN6String7replaceERKS_S1_
 4934              		.section	.text._ZN6String6removeEj,"ax",%progbits
 4935              		.align	2
 4936              		.global	_ZN6String6removeEj
 4937              		.thumb
 4938              		.thumb_func
 4939              		.type	_ZN6String6removeEj, %function
 4940              	_ZN6String6removeEj:
 4941              		.fnstart
 4942              	.LFB146:
 688:core/WString.cpp **** 
ARM GAS  C:\Users\Bruger\AppData\Local\Temp\ccjLt6bf.s 			page 100


 689:core/WString.cpp **** void String::remove(unsigned int index){
 4943              		.loc 1 689 0
 4944              		.cfi_startproc
 4945              		@ args = 0, pretend = 0, frame = 8
 4946              		@ frame_needed = 1, uses_anonymous_args = 0
 4947 0000 80B5     		push	{r7, lr}
 4948              		.cfi_def_cfa_offset 8
 4949              		.cfi_offset 7, -8
 4950              		.cfi_offset 14, -4
 4951 0002 82B0     		sub	sp, sp, #8
 4952              		.cfi_def_cfa_offset 16
 4953 0004 00AF     		add	r7, sp, #0
 4954              		.cfi_def_cfa_register 7
 4955 0006 7860     		str	r0, [r7, #4]
 4956 0008 3960     		str	r1, [r7]
 690:core/WString.cpp **** 	// Pass the biggest integer as the count. The remove method
 691:core/WString.cpp **** 	// below will take care of truncating it at the end of the
 692:core/WString.cpp **** 	// string.
 693:core/WString.cpp **** 	remove(index, (unsigned int)-1);
 4957              		.loc 1 693 0
 4958 000a 7868     		ldr	r0, [r7, #4]
 4959 000c 3968     		ldr	r1, [r7]
 4960 000e 4FF0FF32 		mov	r2, #-1
 4961 0012 FFF7FEFF 		bl	_ZN6String6removeEjj
 694:core/WString.cpp **** }
 4962              		.loc 1 694 0
 4963 0016 0837     		adds	r7, r7, #8
 4964              		.cfi_def_cfa_offset 8
 4965 0018 BD46     		mov	sp, r7
 4966              		.cfi_def_cfa_register 13
 4967              		@ sp needed
 4968 001a 80BD     		pop	{r7, pc}
 4969              		.cfi_endproc
 4970              	.LFE146:
 4971              		.cantunwind
 4972              		.fnend
 4973              		.size	_ZN6String6removeEj, .-_ZN6String6removeEj
 4974              		.section	.text._ZN6String6removeEjj,"ax",%progbits
 4975              		.align	2
 4976              		.global	_ZN6String6removeEjj
 4977              		.thumb
 4978              		.thumb_func
 4979              		.type	_ZN6String6removeEjj, %function
 4980              	_ZN6String6removeEjj:
 4981              		.fnstart
 4982              	.LFB147:
 695:core/WString.cpp **** 
 696:core/WString.cpp **** void String::remove(unsigned int index, unsigned int count){
 4983              		.loc 1 696 0
 4984              		.cfi_startproc
 4985              		@ args = 0, pretend = 0, frame = 24
 4986              		@ frame_needed = 1, uses_anonymous_args = 0
 4987 0000 80B5     		push	{r7, lr}
 4988              		.cfi_def_cfa_offset 8
 4989              		.cfi_offset 7, -8
 4990              		.cfi_offset 14, -4
 4991 0002 86B0     		sub	sp, sp, #24
ARM GAS  C:\Users\Bruger\AppData\Local\Temp\ccjLt6bf.s 			page 101


 4992              		.cfi_def_cfa_offset 32
 4993 0004 00AF     		add	r7, sp, #0
 4994              		.cfi_def_cfa_register 7
 4995 0006 F860     		str	r0, [r7, #12]
 4996 0008 B960     		str	r1, [r7, #8]
 4997 000a 7A60     		str	r2, [r7, #4]
 4998              	.LBB64:
 697:core/WString.cpp **** 	if (index >= len) { return; }
 4999              		.loc 1 697 0
 5000 000c FB68     		ldr	r3, [r7, #12]
 5001 000e 9A68     		ldr	r2, [r3, #8]
 5002 0010 BB68     		ldr	r3, [r7, #8]
 5003 0012 9A42     		cmp	r2, r3
 5004 0014 00D8     		bhi	.L262
 5005 0016 2FE0     		b	.L261
 5006              	.L262:
 698:core/WString.cpp **** 	if (count <= 0) { return; }
 5007              		.loc 1 698 0
 5008 0018 7B68     		ldr	r3, [r7, #4]
 5009 001a 002B     		cmp	r3, #0
 5010 001c 00D1     		bne	.L264
 5011              		.loc 1 698 0 is_stmt 0 discriminator 2
 5012 001e 2BE0     		b	.L261
 5013              	.L264:
 699:core/WString.cpp **** 	if (count > len - index) { count = len - index; }
 5014              		.loc 1 699 0 is_stmt 1
 5015 0020 FB68     		ldr	r3, [r7, #12]
 5016 0022 9A68     		ldr	r2, [r3, #8]
 5017 0024 BB68     		ldr	r3, [r7, #8]
 5018 0026 D21A     		subs	r2, r2, r3
 5019 0028 7B68     		ldr	r3, [r7, #4]
 5020 002a 9A42     		cmp	r2, r3
 5021 002c 04D2     		bcs	.L265
 5022              		.loc 1 699 0 is_stmt 0 discriminator 1
 5023 002e FB68     		ldr	r3, [r7, #12]
 5024 0030 9A68     		ldr	r2, [r3, #8]
 5025 0032 BB68     		ldr	r3, [r7, #8]
 5026 0034 D31A     		subs	r3, r2, r3
 5027 0036 7B60     		str	r3, [r7, #4]
 5028              	.L265:
 700:core/WString.cpp **** 	char *writeTo = buffer + index;
 5029              		.loc 1 700 0 is_stmt 1
 5030 0038 FB68     		ldr	r3, [r7, #12]
 5031 003a 1A68     		ldr	r2, [r3]
 5032 003c BB68     		ldr	r3, [r7, #8]
 5033 003e 1344     		add	r3, r3, r2
 5034 0040 7B61     		str	r3, [r7, #20]
 701:core/WString.cpp **** 	len = len - count;
 5035              		.loc 1 701 0
 5036 0042 FB68     		ldr	r3, [r7, #12]
 5037 0044 9A68     		ldr	r2, [r3, #8]
 5038 0046 7B68     		ldr	r3, [r7, #4]
 5039 0048 D21A     		subs	r2, r2, r3
 5040 004a FB68     		ldr	r3, [r7, #12]
 5041 004c 9A60     		str	r2, [r3, #8]
 702:core/WString.cpp **** 	strncpy(writeTo, buffer + index + count,len - index);
 5042              		.loc 1 702 0
ARM GAS  C:\Users\Bruger\AppData\Local\Temp\ccjLt6bf.s 			page 102


 5043 004e FB68     		ldr	r3, [r7, #12]
 5044 0050 1A68     		ldr	r2, [r3]
 5045 0052 B968     		ldr	r1, [r7, #8]
 5046 0054 7B68     		ldr	r3, [r7, #4]
 5047 0056 0B44     		add	r3, r3, r1
 5048 0058 D118     		adds	r1, r2, r3
 5049 005a FB68     		ldr	r3, [r7, #12]
 5050 005c 9A68     		ldr	r2, [r3, #8]
 5051 005e BB68     		ldr	r3, [r7, #8]
 5052 0060 D31A     		subs	r3, r2, r3
 5053 0062 7869     		ldr	r0, [r7, #20]
 5054 0064 1A46     		mov	r2, r3
 5055 0066 FFF7FEFF 		bl	strncpy
 703:core/WString.cpp **** 	buffer[len] = 0;
 5056              		.loc 1 703 0
 5057 006a FB68     		ldr	r3, [r7, #12]
 5058 006c 1A68     		ldr	r2, [r3]
 5059 006e FB68     		ldr	r3, [r7, #12]
 5060 0070 9B68     		ldr	r3, [r3, #8]
 5061 0072 1344     		add	r3, r3, r2
 5062 0074 0022     		movs	r2, #0
 5063 0076 1A70     		strb	r2, [r3]
 5064              	.L261:
 5065              	.LBE64:
 704:core/WString.cpp **** }
 5066              		.loc 1 704 0
 5067 0078 1837     		adds	r7, r7, #24
 5068              		.cfi_def_cfa_offset 8
 5069 007a BD46     		mov	sp, r7
 5070              		.cfi_def_cfa_register 13
 5071              		@ sp needed
 5072 007c 80BD     		pop	{r7, pc}
 5073              		.cfi_endproc
 5074              	.LFE147:
 5075              		.cantunwind
 5076              		.fnend
 5077              		.size	_ZN6String6removeEjj, .-_ZN6String6removeEjj
 5078 007e 00BF     		.section	.text._ZN6String11toLowerCaseEv,"ax",%progbits
 5079              		.align	2
 5080              		.global	_ZN6String11toLowerCaseEv
 5081              		.thumb
 5082              		.thumb_func
 5083              		.type	_ZN6String11toLowerCaseEv, %function
 5084              	_ZN6String11toLowerCaseEv:
 5085              		.fnstart
 5086              	.LFB148:
 705:core/WString.cpp **** 
 706:core/WString.cpp **** void String::toLowerCase(void)
 707:core/WString.cpp **** {
 5087              		.loc 1 707 0
 5088              		.cfi_startproc
 5089              		@ args = 0, pretend = 0, frame = 16
 5090              		@ frame_needed = 1, uses_anonymous_args = 0
 5091 0000 80B5     		push	{r7, lr}
 5092              		.cfi_def_cfa_offset 8
 5093              		.cfi_offset 7, -8
 5094              		.cfi_offset 14, -4
ARM GAS  C:\Users\Bruger\AppData\Local\Temp\ccjLt6bf.s 			page 103


 5095 0002 84B0     		sub	sp, sp, #16
 5096              		.cfi_def_cfa_offset 24
 5097 0004 00AF     		add	r7, sp, #0
 5098              		.cfi_def_cfa_register 7
 5099 0006 7860     		str	r0, [r7, #4]
 5100              	.LBB65:
 708:core/WString.cpp **** 	if (!buffer) return;
 5101              		.loc 1 708 0
 5102 0008 7B68     		ldr	r3, [r7, #4]
 5103 000a 1B68     		ldr	r3, [r3]
 5104 000c 002B     		cmp	r3, #0
 5105 000e 00D1     		bne	.L267
 5106 0010 13E0     		b	.L266
 5107              	.L267:
 5108              	.LBB66:
 709:core/WString.cpp **** 	for (char *p = buffer; *p; p++) {
 5109              		.loc 1 709 0
 5110 0012 7B68     		ldr	r3, [r7, #4]
 5111 0014 1B68     		ldr	r3, [r3]
 5112 0016 FB60     		str	r3, [r7, #12]
 5113 0018 0BE0     		b	.L269
 5114              	.L270:
 710:core/WString.cpp **** 		*p = tolower(*p);
 5115              		.loc 1 710 0 discriminator 3
 5116 001a FB68     		ldr	r3, [r7, #12]
 5117 001c 1B78     		ldrb	r3, [r3]	@ zero_extendqisi2
 5118 001e 1846     		mov	r0, r3
 5119 0020 FFF7FEFF 		bl	tolower
 5120 0024 0346     		mov	r3, r0
 5121 0026 DAB2     		uxtb	r2, r3
 5122 0028 FB68     		ldr	r3, [r7, #12]
 5123 002a 1A70     		strb	r2, [r3]
 709:core/WString.cpp **** 	for (char *p = buffer; *p; p++) {
 5124              		.loc 1 709 0 discriminator 3
 5125 002c FB68     		ldr	r3, [r7, #12]
 5126 002e 0133     		adds	r3, r3, #1
 5127 0030 FB60     		str	r3, [r7, #12]
 5128              	.L269:
 709:core/WString.cpp **** 	for (char *p = buffer; *p; p++) {
 5129              		.loc 1 709 0 is_stmt 0 discriminator 1
 5130 0032 FB68     		ldr	r3, [r7, #12]
 5131 0034 1B78     		ldrb	r3, [r3]	@ zero_extendqisi2
 5132 0036 002B     		cmp	r3, #0
 5133 0038 EFD1     		bne	.L270
 5134              	.L266:
 5135              	.LBE66:
 5136              	.LBE65:
 711:core/WString.cpp **** 	}
 712:core/WString.cpp **** }
 5137              		.loc 1 712 0 is_stmt 1
 5138 003a 1037     		adds	r7, r7, #16
 5139              		.cfi_def_cfa_offset 8
 5140 003c BD46     		mov	sp, r7
 5141              		.cfi_def_cfa_register 13
 5142              		@ sp needed
 5143 003e 80BD     		pop	{r7, pc}
 5144              		.cfi_endproc
ARM GAS  C:\Users\Bruger\AppData\Local\Temp\ccjLt6bf.s 			page 104


 5145              	.LFE148:
 5146              		.cantunwind
 5147              		.fnend
 5148              		.size	_ZN6String11toLowerCaseEv, .-_ZN6String11toLowerCaseEv
 5149              		.section	.text._ZN6String11toUpperCaseEv,"ax",%progbits
 5150              		.align	2
 5151              		.global	_ZN6String11toUpperCaseEv
 5152              		.thumb
 5153              		.thumb_func
 5154              		.type	_ZN6String11toUpperCaseEv, %function
 5155              	_ZN6String11toUpperCaseEv:
 5156              		.fnstart
 5157              	.LFB149:
 713:core/WString.cpp **** 
 714:core/WString.cpp **** void String::toUpperCase(void)
 715:core/WString.cpp **** {
 5158              		.loc 1 715 0
 5159              		.cfi_startproc
 5160              		@ args = 0, pretend = 0, frame = 16
 5161              		@ frame_needed = 1, uses_anonymous_args = 0
 5162 0000 80B5     		push	{r7, lr}
 5163              		.cfi_def_cfa_offset 8
 5164              		.cfi_offset 7, -8
 5165              		.cfi_offset 14, -4
 5166 0002 84B0     		sub	sp, sp, #16
 5167              		.cfi_def_cfa_offset 24
 5168 0004 00AF     		add	r7, sp, #0
 5169              		.cfi_def_cfa_register 7
 5170 0006 7860     		str	r0, [r7, #4]
 5171              	.LBB67:
 716:core/WString.cpp **** 	if (!buffer) return;
 5172              		.loc 1 716 0
 5173 0008 7B68     		ldr	r3, [r7, #4]
 5174 000a 1B68     		ldr	r3, [r3]
 5175 000c 002B     		cmp	r3, #0
 5176 000e 00D1     		bne	.L272
 5177 0010 13E0     		b	.L271
 5178              	.L272:
 5179              	.LBB68:
 717:core/WString.cpp **** 	for (char *p = buffer; *p; p++) {
 5180              		.loc 1 717 0
 5181 0012 7B68     		ldr	r3, [r7, #4]
 5182 0014 1B68     		ldr	r3, [r3]
 5183 0016 FB60     		str	r3, [r7, #12]
 5184 0018 0BE0     		b	.L274
 5185              	.L275:
 718:core/WString.cpp **** 		*p = toupper(*p);
 5186              		.loc 1 718 0 discriminator 3
 5187 001a FB68     		ldr	r3, [r7, #12]
 5188 001c 1B78     		ldrb	r3, [r3]	@ zero_extendqisi2
 5189 001e 1846     		mov	r0, r3
 5190 0020 FFF7FEFF 		bl	toupper
 5191 0024 0346     		mov	r3, r0
 5192 0026 DAB2     		uxtb	r2, r3
 5193 0028 FB68     		ldr	r3, [r7, #12]
 5194 002a 1A70     		strb	r2, [r3]
 717:core/WString.cpp **** 	for (char *p = buffer; *p; p++) {
ARM GAS  C:\Users\Bruger\AppData\Local\Temp\ccjLt6bf.s 			page 105


 5195              		.loc 1 717 0 discriminator 3
 5196 002c FB68     		ldr	r3, [r7, #12]
 5197 002e 0133     		adds	r3, r3, #1
 5198 0030 FB60     		str	r3, [r7, #12]
 5199              	.L274:
 717:core/WString.cpp **** 	for (char *p = buffer; *p; p++) {
 5200              		.loc 1 717 0 is_stmt 0 discriminator 1
 5201 0032 FB68     		ldr	r3, [r7, #12]
 5202 0034 1B78     		ldrb	r3, [r3]	@ zero_extendqisi2
 5203 0036 002B     		cmp	r3, #0
 5204 0038 EFD1     		bne	.L275
 5205              	.L271:
 5206              	.LBE68:
 5207              	.LBE67:
 719:core/WString.cpp **** 	}
 720:core/WString.cpp **** }
 5208              		.loc 1 720 0 is_stmt 1
 5209 003a 1037     		adds	r7, r7, #16
 5210              		.cfi_def_cfa_offset 8
 5211 003c BD46     		mov	sp, r7
 5212              		.cfi_def_cfa_register 13
 5213              		@ sp needed
 5214 003e 80BD     		pop	{r7, pc}
 5215              		.cfi_endproc
 5216              	.LFE149:
 5217              		.cantunwind
 5218              		.fnend
 5219              		.size	_ZN6String11toUpperCaseEv, .-_ZN6String11toUpperCaseEv
 5220              		.section	.text._ZN6String4trimEv,"ax",%progbits
 5221              		.align	2
 5222              		.global	_ZN6String4trimEv
 5223              		.thumb
 5224              		.thumb_func
 5225              		.type	_ZN6String4trimEv, %function
 5226              	_ZN6String4trimEv:
 5227              		.fnstart
 5228              	.LFB150:
 721:core/WString.cpp **** 
 722:core/WString.cpp **** void String::trim(void)
 723:core/WString.cpp **** {
 5229              		.loc 1 723 0
 5230              		.cfi_startproc
 5231              		@ args = 0, pretend = 0, frame = 16
 5232              		@ frame_needed = 1, uses_anonymous_args = 0
 5233 0000 80B5     		push	{r7, lr}
 5234              		.cfi_def_cfa_offset 8
 5235              		.cfi_offset 7, -8
 5236              		.cfi_offset 14, -4
 5237 0002 84B0     		sub	sp, sp, #16
 5238              		.cfi_def_cfa_offset 24
 5239 0004 00AF     		add	r7, sp, #0
 5240              		.cfi_def_cfa_register 7
 5241 0006 7860     		str	r0, [r7, #4]
 5242              	.LBB69:
 724:core/WString.cpp **** 	if (!buffer || len == 0) return;
 5243              		.loc 1 724 0
 5244 0008 7B68     		ldr	r3, [r7, #4]
ARM GAS  C:\Users\Bruger\AppData\Local\Temp\ccjLt6bf.s 			page 106


 5245 000a 1B68     		ldr	r3, [r3]
 5246 000c 002B     		cmp	r3, #0
 5247 000e 03D0     		beq	.L277
 5248              		.loc 1 724 0 is_stmt 0 discriminator 1
 5249 0010 7B68     		ldr	r3, [r7, #4]
 5250 0012 9B68     		ldr	r3, [r3, #8]
 5251 0014 002B     		cmp	r3, #0
 5252 0016 00D1     		bne	.L278
 5253              	.L277:
 5254              		.loc 1 724 0
 5255 0018 42E0     		b	.L276
 5256              	.L278:
 725:core/WString.cpp **** 	char *begin = buffer;
 5257              		.loc 1 725 0 is_stmt 1
 5258 001a 7B68     		ldr	r3, [r7, #4]
 5259 001c 1B68     		ldr	r3, [r3]
 5260 001e FB60     		str	r3, [r7, #12]
 726:core/WString.cpp **** 	while (isspace(*begin)) begin++;
 5261              		.loc 1 726 0
 5262 0020 02E0     		b	.L280
 5263              	.L281:
 5264              		.loc 1 726 0 is_stmt 0 discriminator 2
 5265 0022 FB68     		ldr	r3, [r7, #12]
 5266 0024 0133     		adds	r3, r3, #1
 5267 0026 FB60     		str	r3, [r7, #12]
 5268              	.L280:
 5269              		.loc 1 726 0 discriminator 1
 5270 0028 FB68     		ldr	r3, [r7, #12]
 5271 002a 1B78     		ldrb	r3, [r3]	@ zero_extendqisi2
 5272 002c 1846     		mov	r0, r3
 5273 002e FFF7FEFF 		bl	isspace
 5274 0032 0346     		mov	r3, r0
 5275 0034 002B     		cmp	r3, #0
 5276 0036 F4D1     		bne	.L281
 727:core/WString.cpp **** 	char *end = buffer + len - 1;
 5277              		.loc 1 727 0 is_stmt 1
 5278 0038 7B68     		ldr	r3, [r7, #4]
 5279 003a 1A68     		ldr	r2, [r3]
 5280 003c 7B68     		ldr	r3, [r7, #4]
 5281 003e 9B68     		ldr	r3, [r3, #8]
 5282 0040 013B     		subs	r3, r3, #1
 5283 0042 1344     		add	r3, r3, r2
 5284 0044 BB60     		str	r3, [r7, #8]
 728:core/WString.cpp **** 	while (isspace(*end) && end >= begin) end--;
 5285              		.loc 1 728 0
 5286 0046 02E0     		b	.L282
 5287              	.L284:
 5288              		.loc 1 728 0 is_stmt 0 discriminator 3
 5289 0048 BB68     		ldr	r3, [r7, #8]
 5290 004a 013B     		subs	r3, r3, #1
 5291 004c BB60     		str	r3, [r7, #8]
 5292              	.L282:
 5293              		.loc 1 728 0 discriminator 1
 5294 004e BB68     		ldr	r3, [r7, #8]
 5295 0050 1B78     		ldrb	r3, [r3]	@ zero_extendqisi2
 5296 0052 1846     		mov	r0, r3
 5297 0054 FFF7FEFF 		bl	isspace
ARM GAS  C:\Users\Bruger\AppData\Local\Temp\ccjLt6bf.s 			page 107


 5298 0058 0346     		mov	r3, r0
 5299 005a 002B     		cmp	r3, #0
 5300 005c 03D0     		beq	.L283
 5301              		.loc 1 728 0 discriminator 2
 5302 005e BA68     		ldr	r2, [r7, #8]
 5303 0060 FB68     		ldr	r3, [r7, #12]
 5304 0062 9A42     		cmp	r2, r3
 5305 0064 F0D2     		bcs	.L284
 5306              	.L283:
 729:core/WString.cpp **** 	len = end + 1 - begin;
 5307              		.loc 1 729 0 is_stmt 1
 5308 0066 BB68     		ldr	r3, [r7, #8]
 5309 0068 0133     		adds	r3, r3, #1
 5310 006a 1A46     		mov	r2, r3
 5311 006c FB68     		ldr	r3, [r7, #12]
 5312 006e D31A     		subs	r3, r2, r3
 5313 0070 1A46     		mov	r2, r3
 5314 0072 7B68     		ldr	r3, [r7, #4]
 5315 0074 9A60     		str	r2, [r3, #8]
 730:core/WString.cpp **** 	if (begin > buffer) memcpy(buffer, begin, len);
