ARM GAS  C:\Users\Bruger\AppData\Local\Temp\ccjLt6bf.s 			page 1


   1              		.syntax unified
   2              		.cpu cortex-m3
   3              		.fpu softvfp
   4              		.eabi_attribute 20, 1
   5              		.eabi_attribute 21, 1
   6              		.eabi_attribute 23, 3
   7              		.eabi_attribute 24, 1
   8              		.eabi_attribute 25, 1
   9              		.eabi_attribute 26, 1
  10              		.eabi_attribute 30, 6
  11              		.eabi_attribute 34, 1
  12              		.eabi_attribute 18, 4
  13              		.thumb
  14              		.file	"WString.cpp"
  15              		.text
  16              	.Ltext0:
  17              		.cfi_sections	.debug_frame
  18              		.section	.text._ZN6StringC2EPKc,"ax",%progbits
  19              		.align	2
  20              		.global	_ZN6StringC2EPKc
  21              		.thumb
  22              		.thumb_func
  23              		.type	_ZN6StringC2EPKc, %function
  24              	_ZN6StringC2EPKc:
  25              		.fnstart
  26              	.LFB52:
  27              		.file 1 "core\\WString.cpp"
   1:core/WString.cpp **** /*
   2:core/WString.cpp ****   WString.cpp - String library for Wiring & Arduino
   3:core/WString.cpp ****   ...mostly rewritten by Paul Stoffregen...
   4:core/WString.cpp ****   Copyright (c) 2009-10 Hernando Barragan.  All rights reserved.
   5:core/WString.cpp ****   Copyright 2011, Paul Stoffregen, paul@pjrc.com
   6:core/WString.cpp **** 
   7:core/WString.cpp ****   This library is free software; you can redistribute it and/or
   8:core/WString.cpp ****   modify it under the terms of the GNU Lesser General Public
   9:core/WString.cpp ****   License as published by the Free Software Foundation; either
  10:core/WString.cpp ****   version 2.1 of the License, or (at your option) any later version.
  11:core/WString.cpp **** 
  12:core/WString.cpp ****   This library is distributed in the hope that it will be useful,
  13:core/WString.cpp ****   but WITHOUT ANY WARRANTY; without even the implied warranty of
  14:core/WString.cpp ****   MERCHANTABILITY or FITNESS FOR A PARTICULAR PURPOSE.  See the GNU
  15:core/WString.cpp ****   Lesser General Public License for more details.
  16:core/WString.cpp **** 
  17:core/WString.cpp ****   You should have received a copy of the GNU Lesser General Public
  18:core/WString.cpp ****   License along with this library; if not, write to the Free Software
  19:core/WString.cpp ****   Foundation, Inc., 51 Franklin St, Fifth Floor, Boston, MA  02110-1301  USA
  20:core/WString.cpp **** */
  21:core/WString.cpp **** 
  22:core/WString.cpp **** #include "WString.h"
  23:core/WString.cpp **** #include "itoa.h"
  24:core/WString.cpp **** #include <avr/dtostrf.h>
  25:core/WString.cpp **** #include <stdlib.h>
  26:core/WString.cpp **** 
  27:core/WString.cpp **** /*********************************************/
  28:core/WString.cpp **** /*  Constructors                             */
  29:core/WString.cpp **** /*********************************************/
  30:core/WString.cpp **** 
ARM GAS  C:\Users\Bruger\AppData\Local\Temp\ccjLt6bf.s 			page 2


  31:core/WString.cpp **** String::String(const char *cstr)
  28              		.loc 1 31 0
  29              		.cfi_startproc
  30              		@ args = 0, pretend = 0, frame = 8
  31              		@ frame_needed = 1, uses_anonymous_args = 0
  32 0000 80B5     		push	{r7, lr}
  33              		.save {r7, lr}
  34              		.cfi_def_cfa_offset 8
  35              		.cfi_offset 7, -8
  36              		.cfi_offset 14, -4
  37              		.pad #8
  38 0002 82B0     		sub	sp, sp, #8
  39              		.cfi_def_cfa_offset 16
  40              		.setfp r7, sp, #0
  41 0004 00AF     		add	r7, sp, #0
  42              		.cfi_def_cfa_register 7
  43 0006 7860     		str	r0, [r7, #4]
  44 0008 3960     		str	r1, [r7]
  45              	.LBB2:
  32:core/WString.cpp **** {
  33:core/WString.cpp **** 	init();
  46              		.loc 1 33 0
  47 000a 7868     		ldr	r0, [r7, #4]
  48 000c FFF7FEFF 		bl	_ZN6String4initEv
  34:core/WString.cpp **** 	if (cstr) copy(cstr, strlen(cstr));
  49              		.loc 1 34 0
  50 0010 3B68     		ldr	r3, [r7]
  51 0012 002B     		cmp	r3, #0
  52 0014 08D0     		beq	.L2
  53              		.loc 1 34 0 is_stmt 0 discriminator 1
  54 0016 3868     		ldr	r0, [r7]
  55 0018 FFF7FEFF 		bl	strlen
  56 001c 0346     		mov	r3, r0
  57 001e 7868     		ldr	r0, [r7, #4]
  58 0020 3968     		ldr	r1, [r7]
  59 0022 1A46     		mov	r2, r3
  60 0024 FFF7FEFF 		bl	_ZN6String4copyEPKcj
  61              	.L2:
  62              	.LBE2:
  35:core/WString.cpp **** }
  63              		.loc 1 35 0 is_stmt 1
  64 0028 7B68     		ldr	r3, [r7, #4]
  65 002a 1846     		mov	r0, r3
  66 002c 0837     		adds	r7, r7, #8
  67              		.cfi_def_cfa_offset 8
  68 002e BD46     		mov	sp, r7
  69              		.cfi_def_cfa_register 13
  70              		@ sp needed
  71 0030 80BD     		pop	{r7, pc}
  72              		.cfi_endproc
  73              	.LFE52:
  74              		.fnend
  75              		.size	_ZN6StringC2EPKc, .-_ZN6StringC2EPKc
  76              		.global	_ZN6StringC1EPKc
  77              		.thumb_set _ZN6StringC1EPKc,_ZN6StringC2EPKc
  78 0032 00BF     		.section	.text._ZN6StringC2ERKS_,"ax",%progbits
  79              		.align	2
ARM GAS  C:\Users\Bruger\AppData\Local\Temp\ccjLt6bf.s 			page 3


  80              		.global	_ZN6StringC2ERKS_
  81              		.thumb
  82              		.thumb_func
  83              		.type	_ZN6StringC2ERKS_, %function
  84              	_ZN6StringC2ERKS_:
  85              		.fnstart
  86              	.LFB55:
  36:core/WString.cpp **** 
  37:core/WString.cpp **** String::String(const String &value)
  87              		.loc 1 37 0
  88              		.cfi_startproc
  89              		@ args = 0, pretend = 0, frame = 8
  90              		@ frame_needed = 1, uses_anonymous_args = 0
  91 0000 80B5     		push	{r7, lr}
  92              		.save {r7, lr}
  93              		.cfi_def_cfa_offset 8
  94              		.cfi_offset 7, -8
  95              		.cfi_offset 14, -4
  96              		.pad #8
  97 0002 82B0     		sub	sp, sp, #8
  98              		.cfi_def_cfa_offset 16
  99              		.setfp r7, sp, #0
 100 0004 00AF     		add	r7, sp, #0
 101              		.cfi_def_cfa_register 7
 102 0006 7860     		str	r0, [r7, #4]
 103 0008 3960     		str	r1, [r7]
 104              	.LBB3:
  38:core/WString.cpp **** {
  39:core/WString.cpp **** 	init();
 105              		.loc 1 39 0
 106 000a 7868     		ldr	r0, [r7, #4]
 107 000c FFF7FEFF 		bl	_ZN6String4initEv
  40:core/WString.cpp **** 	*this = value;
 108              		.loc 1 40 0
 109 0010 7868     		ldr	r0, [r7, #4]
 110 0012 3968     		ldr	r1, [r7]
 111 0014 FFF7FEFF 		bl	_ZN6StringaSERKS_
 112              	.LBE3:
  41:core/WString.cpp **** }
 113              		.loc 1 41 0
 114 0018 7B68     		ldr	r3, [r7, #4]
 115 001a 1846     		mov	r0, r3
 116 001c 0837     		adds	r7, r7, #8
 117              		.cfi_def_cfa_offset 8
 118 001e BD46     		mov	sp, r7
 119              		.cfi_def_cfa_register 13
 120              		@ sp needed
 121 0020 80BD     		pop	{r7, pc}
 122              		.cfi_endproc
 123              	.LFE55:
 124              		.fnend
 125              		.size	_ZN6StringC2ERKS_, .-_ZN6StringC2ERKS_
 126              		.global	_ZN6StringC1ERKS_
 127              		.thumb_set _ZN6StringC1ERKS_,_ZN6StringC2ERKS_
 128 0022 00BF     		.section	.text._ZN6StringC2EPK19__FlashStringHelper,"ax",%progbits
 129              		.align	2
 130              		.global	_ZN6StringC2EPK19__FlashStringHelper
ARM GAS  C:\Users\Bruger\AppData\Local\Temp\ccjLt6bf.s 			page 4


 131              		.thumb
 132              		.thumb_func
 133              		.type	_ZN6StringC2EPK19__FlashStringHelper, %function
 134              	_ZN6StringC2EPK19__FlashStringHelper:
 135              		.fnstart
 136              	.LFB58:
  42:core/WString.cpp **** 
  43:core/WString.cpp **** String::String(const __FlashStringHelper *pstr)
 137              		.loc 1 43 0
 138              		.cfi_startproc
 139              		@ args = 0, pretend = 0, frame = 8
 140              		@ frame_needed = 1, uses_anonymous_args = 0
 141 0000 80B5     		push	{r7, lr}
 142              		.save {r7, lr}
 143              		.cfi_def_cfa_offset 8
 144              		.cfi_offset 7, -8
 145              		.cfi_offset 14, -4
 146              		.pad #8
 147 0002 82B0     		sub	sp, sp, #8
 148              		.cfi_def_cfa_offset 16
 149              		.setfp r7, sp, #0
 150 0004 00AF     		add	r7, sp, #0
 151              		.cfi_def_cfa_register 7
 152 0006 7860     		str	r0, [r7, #4]
 153 0008 3960     		str	r1, [r7]
 154              	.LBB4:
  44:core/WString.cpp **** {
  45:core/WString.cpp **** 	init();
 155              		.loc 1 45 0
 156 000a 7868     		ldr	r0, [r7, #4]
 157 000c FFF7FEFF 		bl	_ZN6String4initEv
  46:core/WString.cpp **** 	*this = pstr;
 158              		.loc 1 46 0
 159 0010 7868     		ldr	r0, [r7, #4]
 160 0012 3968     		ldr	r1, [r7]
 161 0014 FFF7FEFF 		bl	_ZN6StringaSEPK19__FlashStringHelper
 162              	.LBE4:
  47:core/WString.cpp **** }
 163              		.loc 1 47 0
 164 0018 7B68     		ldr	r3, [r7, #4]
 165 001a 1846     		mov	r0, r3
 166 001c 0837     		adds	r7, r7, #8
 167              		.cfi_def_cfa_offset 8
 168 001e BD46     		mov	sp, r7
 169              		.cfi_def_cfa_register 13
 170              		@ sp needed
 171 0020 80BD     		pop	{r7, pc}
 172              		.cfi_endproc
 173              	.LFE58:
 174              		.fnend
 175              		.size	_ZN6StringC2EPK19__FlashStringHelper, .-_ZN6StringC2EPK19__FlashStringHelper
 176              		.global	_ZN6StringC1EPK19__FlashStringHelper
 177              		.thumb_set _ZN6StringC1EPK19__FlashStringHelper,_ZN6StringC2EPK19__FlashStringHelper
 178 0022 00BF     		.section	.text._ZN6StringC2Ec,"ax",%progbits
 179              		.align	2
 180              		.global	_ZN6StringC2Ec
 181              		.thumb
ARM GAS  C:\Users\Bruger\AppData\Local\Temp\ccjLt6bf.s 			page 5


 182              		.thumb_func
 183              		.type	_ZN6StringC2Ec, %function
 184              	_ZN6StringC2Ec:
 185              		.fnstart
 186              	.LFB61:
  48:core/WString.cpp **** 
  49:core/WString.cpp **** #ifdef __GXX_EXPERIMENTAL_CXX0X__
  50:core/WString.cpp **** String::String(String &&rval)
  51:core/WString.cpp **** {
  52:core/WString.cpp **** 	init();
  53:core/WString.cpp **** 	move(rval);
  54:core/WString.cpp **** }
  55:core/WString.cpp **** String::String(StringSumHelper &&rval)
  56:core/WString.cpp **** {
  57:core/WString.cpp **** 	init();
  58:core/WString.cpp **** 	move(rval);
  59:core/WString.cpp **** }
  60:core/WString.cpp **** #endif
  61:core/WString.cpp **** 
  62:core/WString.cpp **** String::String(char c)
 187              		.loc 1 62 0
 188              		.cfi_startproc
 189              		@ args = 0, pretend = 0, frame = 16
 190              		@ frame_needed = 1, uses_anonymous_args = 0
 191 0000 80B5     		push	{r7, lr}
 192              		.save {r7, lr}
 193              		.cfi_def_cfa_offset 8
 194              		.cfi_offset 7, -8
 195              		.cfi_offset 14, -4
 196              		.pad #16
 197 0002 84B0     		sub	sp, sp, #16
 198              		.cfi_def_cfa_offset 24
 199              		.setfp r7, sp, #0
 200 0004 00AF     		add	r7, sp, #0
 201              		.cfi_def_cfa_register 7
 202 0006 7860     		str	r0, [r7, #4]
 203 0008 0B46     		mov	r3, r1
 204 000a FB70     		strb	r3, [r7, #3]
 205              	.LBB5:
 206              	.LBB6:
  63:core/WString.cpp **** {
  64:core/WString.cpp **** 	init();
 207              		.loc 1 64 0
 208 000c 7868     		ldr	r0, [r7, #4]
 209 000e FFF7FEFF 		bl	_ZN6String4initEv
  65:core/WString.cpp **** 	char buf[2];
  66:core/WString.cpp **** 	buf[0] = c;
 210              		.loc 1 66 0
 211 0012 FB78     		ldrb	r3, [r7, #3]
 212 0014 3B73     		strb	r3, [r7, #12]
  67:core/WString.cpp **** 	buf[1] = 0;
 213              		.loc 1 67 0
 214 0016 0023     		movs	r3, #0
 215 0018 7B73     		strb	r3, [r7, #13]
  68:core/WString.cpp **** 	*this = buf;
 216              		.loc 1 68 0
 217 001a 07F10C03 		add	r3, r7, #12
ARM GAS  C:\Users\Bruger\AppData\Local\Temp\ccjLt6bf.s 			page 6


 218 001e 7868     		ldr	r0, [r7, #4]
 219 0020 1946     		mov	r1, r3
 220 0022 FFF7FEFF 		bl	_ZN6StringaSEPKc
 221              	.LBE6:
 222              	.LBE5:
  69:core/WString.cpp **** }
 223              		.loc 1 69 0
 224 0026 7B68     		ldr	r3, [r7, #4]
 225 0028 1846     		mov	r0, r3
 226 002a 1037     		adds	r7, r7, #16
 227              		.cfi_def_cfa_offset 8
 228 002c BD46     		mov	sp, r7
 229              		.cfi_def_cfa_register 13
 230              		@ sp needed
 231 002e 80BD     		pop	{r7, pc}
 232              		.cfi_endproc
 233              	.LFE61:
 234              		.fnend
 235              		.size	_ZN6StringC2Ec, .-_ZN6StringC2Ec
 236              		.global	_ZN6StringC1Ec
 237              		.thumb_set _ZN6StringC1Ec,_ZN6StringC2Ec
 238              		.section	.text._ZN6StringC2Ehh,"ax",%progbits
 239              		.align	2
 240              		.global	_ZN6StringC2Ehh
 241              		.thumb
 242              		.thumb_func
 243              		.type	_ZN6StringC2Ehh, %function
 244              	_ZN6StringC2Ehh:
 245              		.fnstart
 246              	.LFB64:
  70:core/WString.cpp **** 
  71:core/WString.cpp **** String::String(unsigned char value, unsigned char base)
 247              		.loc 1 71 0
 248              		.cfi_startproc
 249              		@ args = 0, pretend = 0, frame = 24
 250              		@ frame_needed = 1, uses_anonymous_args = 0
 251 0000 80B5     		push	{r7, lr}
 252              		.save {r7, lr}
 253              		.cfi_def_cfa_offset 8
 254              		.cfi_offset 7, -8
 255              		.cfi_offset 14, -4
 256              		.pad #24
 257 0002 86B0     		sub	sp, sp, #24
 258              		.cfi_def_cfa_offset 32
 259              		.setfp r7, sp, #0
 260 0004 00AF     		add	r7, sp, #0
 261              		.cfi_def_cfa_register 7
 262 0006 7860     		str	r0, [r7, #4]
 263 0008 0B46     		mov	r3, r1
 264 000a FB70     		strb	r3, [r7, #3]
 265 000c 1346     		mov	r3, r2
 266 000e BB70     		strb	r3, [r7, #2]
 267              	.LBB7:
 268              	.LBB8:
  72:core/WString.cpp **** {
  73:core/WString.cpp **** 	init();
 269              		.loc 1 73 0
ARM GAS  C:\Users\Bruger\AppData\Local\Temp\ccjLt6bf.s 			page 7


 270 0010 7868     		ldr	r0, [r7, #4]
 271 0012 FFF7FEFF 		bl	_ZN6String4initEv
  74:core/WString.cpp **** 	char buf[1 + 8 * sizeof(unsigned char)];
  75:core/WString.cpp **** 	utoa((long unsigned int)value, buf, (int)base);
 272              		.loc 1 75 0
 273 0016 F978     		ldrb	r1, [r7, #3]	@ zero_extendqisi2
 274 0018 BB78     		ldrb	r3, [r7, #2]	@ zero_extendqisi2
 275 001a 07F10C02 		add	r2, r7, #12
 276 001e 0846     		mov	r0, r1
 277 0020 1146     		mov	r1, r2
 278 0022 1A46     		mov	r2, r3
 279 0024 FFF7FEFF 		bl	_Z4utoamPci
  76:core/WString.cpp **** 	*this = buf;
 280              		.loc 1 76 0
 281 0028 07F10C03 		add	r3, r7, #12
 282 002c 7868     		ldr	r0, [r7, #4]
 283 002e 1946     		mov	r1, r3
 284 0030 FFF7FEFF 		bl	_ZN6StringaSEPKc
 285              	.LBE8:
 286              	.LBE7:
  77:core/WString.cpp **** }
 287              		.loc 1 77 0
 288 0034 7B68     		ldr	r3, [r7, #4]
 289 0036 1846     		mov	r0, r3
 290 0038 1837     		adds	r7, r7, #24
 291              		.cfi_def_cfa_offset 8
 292 003a BD46     		mov	sp, r7
 293              		.cfi_def_cfa_register 13
 294              		@ sp needed
 295 003c 80BD     		pop	{r7, pc}
 296              		.cfi_endproc
 297              	.LFE64:
 298              		.fnend
 299              		.size	_ZN6StringC2Ehh, .-_ZN6StringC2Ehh
 300              		.global	_ZN6StringC1Ehh
 301              		.thumb_set _ZN6StringC1Ehh,_ZN6StringC2Ehh
 302 003e 00BF     		.section	.text._ZN6StringC2Eih,"ax",%progbits
 303              		.align	2
 304              		.global	_ZN6StringC2Eih
 305              		.thumb
 306              		.thumb_func
 307              		.type	_ZN6StringC2Eih, %function
 308              	_ZN6StringC2Eih:
 309              		.fnstart
 310              	.LFB67:
  78:core/WString.cpp **** 
  79:core/WString.cpp **** String::String(int value, unsigned char base)
 311              		.loc 1 79 0
 312              		.cfi_startproc
 313              		@ args = 0, pretend = 0, frame = 56
 314              		@ frame_needed = 1, uses_anonymous_args = 0
 315 0000 80B5     		push	{r7, lr}
 316              		.save {r7, lr}
 317              		.cfi_def_cfa_offset 8
 318              		.cfi_offset 7, -8
 319              		.cfi_offset 14, -4
 320              		.pad #56
ARM GAS  C:\Users\Bruger\AppData\Local\Temp\ccjLt6bf.s 			page 8


 321 0002 8EB0     		sub	sp, sp, #56
 322              		.cfi_def_cfa_offset 64
 323              		.setfp r7, sp, #0
 324 0004 00AF     		add	r7, sp, #0
 325              		.cfi_def_cfa_register 7
 326 0006 F860     		str	r0, [r7, #12]
 327 0008 B960     		str	r1, [r7, #8]
 328 000a 1346     		mov	r3, r2
 329 000c FB71     		strb	r3, [r7, #7]
 330              	.LBB9:
 331              	.LBB10:
  80:core/WString.cpp **** {
  81:core/WString.cpp **** 	init();
 332              		.loc 1 81 0
 333 000e F868     		ldr	r0, [r7, #12]
 334 0010 FFF7FEFF 		bl	_ZN6String4initEv
  82:core/WString.cpp **** 	char buf[2 + 8 * sizeof(int)];
  83:core/WString.cpp **** 	itoa(value, buf, base);
 335              		.loc 1 83 0
 336 0014 FB79     		ldrb	r3, [r7, #7]	@ zero_extendqisi2
 337 0016 07F11402 		add	r2, r7, #20
 338 001a B868     		ldr	r0, [r7, #8]
 339 001c 1146     		mov	r1, r2
 340 001e 1A46     		mov	r2, r3
 341 0020 FFF7FEFF 		bl	itoa
  84:core/WString.cpp **** 	*this = buf;
 342              		.loc 1 84 0
 343 0024 07F11403 		add	r3, r7, #20
 344 0028 F868     		ldr	r0, [r7, #12]
 345 002a 1946     		mov	r1, r3
 346 002c FFF7FEFF 		bl	_ZN6StringaSEPKc
 347              	.LBE10:
 348              	.LBE9:
  85:core/WString.cpp **** }
 349              		.loc 1 85 0
 350 0030 FB68     		ldr	r3, [r7, #12]
 351 0032 1846     		mov	r0, r3
 352 0034 3837     		adds	r7, r7, #56
 353              		.cfi_def_cfa_offset 8
 354 0036 BD46     		mov	sp, r7
 355              		.cfi_def_cfa_register 13
 356              		@ sp needed
 357 0038 80BD     		pop	{r7, pc}
 358              		.cfi_endproc
 359              	.LFE67:
 360              		.fnend
 361              		.size	_ZN6StringC2Eih, .-_ZN6StringC2Eih
 362              		.global	_ZN6StringC1Eih
 363              		.thumb_set _ZN6StringC1Eih,_ZN6StringC2Eih
 364 003a 00BF     		.section	.text._ZN6StringC2Ejh,"ax",%progbits
 365              		.align	2
 366              		.global	_ZN6StringC2Ejh
 367              		.thumb
 368              		.thumb_func
 369              		.type	_ZN6StringC2Ejh, %function
 370              	_ZN6StringC2Ejh:
 371              		.fnstart
ARM GAS  C:\Users\Bruger\AppData\Local\Temp\ccjLt6bf.s 			page 9


 372              	.LFB70:
  86:core/WString.cpp **** 
  87:core/WString.cpp **** String::String(unsigned int value, unsigned char base)
 373              		.loc 1 87 0
 374              		.cfi_startproc
 375              		@ args = 0, pretend = 0, frame = 56
 376              		@ frame_needed = 1, uses_anonymous_args = 0
 377 0000 80B5     		push	{r7, lr}
 378              		.save {r7, lr}
 379              		.cfi_def_cfa_offset 8
 380              		.cfi_offset 7, -8
 381              		.cfi_offset 14, -4
 382              		.pad #56
 383 0002 8EB0     		sub	sp, sp, #56
 384              		.cfi_def_cfa_offset 64
 385              		.setfp r7, sp, #0
 386 0004 00AF     		add	r7, sp, #0
 387              		.cfi_def_cfa_register 7
 388 0006 F860     		str	r0, [r7, #12]
 389 0008 B960     		str	r1, [r7, #8]
 390 000a 1346     		mov	r3, r2
 391 000c FB71     		strb	r3, [r7, #7]
 392              	.LBB11:
 393              	.LBB12:
  88:core/WString.cpp **** {
  89:core/WString.cpp **** 	init();
 394              		.loc 1 89 0
 395 000e F868     		ldr	r0, [r7, #12]
 396 0010 FFF7FEFF 		bl	_ZN6String4initEv
  90:core/WString.cpp **** 	char buf[1 + 8 * sizeof(unsigned int)];
  91:core/WString.cpp **** 	utoa(value, buf, base);
 397              		.loc 1 91 0
 398 0014 FB79     		ldrb	r3, [r7, #7]	@ zero_extendqisi2
 399 0016 07F11402 		add	r2, r7, #20
 400 001a B868     		ldr	r0, [r7, #8]
 401 001c 1146     		mov	r1, r2
 402 001e 1A46     		mov	r2, r3
 403 0020 FFF7FEFF 		bl	utoa
  92:core/WString.cpp **** 	*this = buf;
 404              		.loc 1 92 0
 405 0024 07F11403 		add	r3, r7, #20
 406 0028 F868     		ldr	r0, [r7, #12]
 407 002a 1946     		mov	r1, r3
 408 002c FFF7FEFF 		bl	_ZN6StringaSEPKc
 409              	.LBE12:
 410              	.LBE11:
  93:core/WString.cpp **** }
 411              		.loc 1 93 0
 412 0030 FB68     		ldr	r3, [r7, #12]
 413 0032 1846     		mov	r0, r3
 414 0034 3837     		adds	r7, r7, #56
 415              		.cfi_def_cfa_offset 8
 416 0036 BD46     		mov	sp, r7
 417              		.cfi_def_cfa_register 13
 418              		@ sp needed
 419 0038 80BD     		pop	{r7, pc}
 420              		.cfi_endproc
ARM GAS  C:\Users\Bruger\AppData\Local\Temp\ccjLt6bf.s 			page 10


 421              	.LFE70:
 422              		.fnend
 423              		.size	_ZN6StringC2Ejh, .-_ZN6StringC2Ejh
 424              		.global	_ZN6StringC1Ejh
 425              		.thumb_set _ZN6StringC1Ejh,_ZN6StringC2Ejh
 426 003a 00BF     		.section	.text._ZN6StringC2Elh,"ax",%progbits
 427              		.align	2
 428              		.global	_ZN6StringC2Elh
 429              		.thumb
 430              		.thumb_func
 431              		.type	_ZN6StringC2Elh, %function
 432              	_ZN6StringC2Elh:
 433              		.fnstart
 434              	.LFB73:
  94:core/WString.cpp **** 
  95:core/WString.cpp **** String::String(long value, unsigned char base)
 435              		.loc 1 95 0
 436              		.cfi_startproc
 437              		@ args = 0, pretend = 0, frame = 56
 438              		@ frame_needed = 1, uses_anonymous_args = 0
 439 0000 80B5     		push	{r7, lr}
 440              		.save {r7, lr}
 441              		.cfi_def_cfa_offset 8
 442              		.cfi_offset 7, -8
 443              		.cfi_offset 14, -4
 444              		.pad #56
 445 0002 8EB0     		sub	sp, sp, #56
 446              		.cfi_def_cfa_offset 64
 447              		.setfp r7, sp, #0
 448 0004 00AF     		add	r7, sp, #0
 449              		.cfi_def_cfa_register 7
 450 0006 F860     		str	r0, [r7, #12]
 451 0008 B960     		str	r1, [r7, #8]
 452 000a 1346     		mov	r3, r2
 453 000c FB71     		strb	r3, [r7, #7]
 454              	.LBB13:
 455              	.LBB14:
  96:core/WString.cpp **** {
  97:core/WString.cpp **** 	init();
 456              		.loc 1 97 0
 457 000e F868     		ldr	r0, [r7, #12]
 458 0010 FFF7FEFF 		bl	_ZN6String4initEv
  98:core/WString.cpp **** 	char buf[2 + 8 * sizeof(long)];
  99:core/WString.cpp **** 	ltoa(value, buf, base);
 459              		.loc 1 99 0
 460 0014 FB79     		ldrb	r3, [r7, #7]	@ zero_extendqisi2
 461 0016 07F11402 		add	r2, r7, #20
 462 001a B868     		ldr	r0, [r7, #8]
 463 001c 1146     		mov	r1, r2
 464 001e 1A46     		mov	r2, r3
 465 0020 FFF7FEFF 		bl	_Z4ltoalPci
 100:core/WString.cpp **** 	*this = buf;
 466              		.loc 1 100 0
 467 0024 07F11403 		add	r3, r7, #20
 468 0028 F868     		ldr	r0, [r7, #12]
 469 002a 1946     		mov	r1, r3
 470 002c FFF7FEFF 		bl	_ZN6StringaSEPKc
ARM GAS  C:\Users\Bruger\AppData\Local\Temp\ccjLt6bf.s 			page 11


 471              	.LBE14:
 472              	.LBE13:
 101:core/WString.cpp **** }
 473              		.loc 1 101 0
 474 0030 FB68     		ldr	r3, [r7, #12]
 475 0032 1846     		mov	r0, r3
 476 0034 3837     		adds	r7, r7, #56
 477              		.cfi_def_cfa_offset 8
 478 0036 BD46     		mov	sp, r7
 479              		.cfi_def_cfa_register 13
 480              		@ sp needed
 481 0038 80BD     		pop	{r7, pc}
 482              		.cfi_endproc
 483              	.LFE73:
 484              		.fnend
 485              		.size	_ZN6StringC2Elh, .-_ZN6StringC2Elh
 486              		.global	_ZN6StringC1Elh
 487              		.thumb_set _ZN6StringC1Elh,_ZN6StringC2Elh
 488 003a 00BF     		.section	.text._ZN6StringC2Emh,"ax",%progbits
 489              		.align	2
 490              		.global	_ZN6StringC2Emh
 491              		.thumb
 492              		.thumb_func
 493              		.type	_ZN6StringC2Emh, %function
 494              	_ZN6StringC2Emh:
 495              		.fnstart
 496              	.LFB76:
 102:core/WString.cpp **** 
 103:core/WString.cpp **** String::String(unsigned long value, unsigned char base)
 497              		.loc 1 103 0
 498              		.cfi_startproc
 499              		@ args = 0, pretend = 0, frame = 56
 500              		@ frame_needed = 1, uses_anonymous_args = 0
 501 0000 80B5     		push	{r7, lr}
 502              		.save {r7, lr}
 503              		.cfi_def_cfa_offset 8
 504              		.cfi_offset 7, -8
 505              		.cfi_offset 14, -4
 506              		.pad #56
 507 0002 8EB0     		sub	sp, sp, #56
 508              		.cfi_def_cfa_offset 64
 509              		.setfp r7, sp, #0
 510 0004 00AF     		add	r7, sp, #0
 511              		.cfi_def_cfa_register 7
 512 0006 F860     		str	r0, [r7, #12]
 513 0008 B960     		str	r1, [r7, #8]
 514 000a 1346     		mov	r3, r2
 515 000c FB71     		strb	r3, [r7, #7]
 516              	.LBB15:
 517              	.LBB16:
 104:core/WString.cpp **** {
 105:core/WString.cpp **** 	init();
 518              		.loc 1 105 0
 519 000e F868     		ldr	r0, [r7, #12]
 520 0010 FFF7FEFF 		bl	_ZN6String4initEv
 106:core/WString.cpp **** 	char buf[1 + 8 * sizeof(unsigned long)];
 107:core/WString.cpp **** 	ultoa(value, buf, base);
ARM GAS  C:\Users\Bruger\AppData\Local\Temp\ccjLt6bf.s 			page 12


 521              		.loc 1 107 0
 522 0014 FB79     		ldrb	r3, [r7, #7]	@ zero_extendqisi2
 523 0016 07F11402 		add	r2, r7, #20
 524 001a B868     		ldr	r0, [r7, #8]
 525 001c 1146     		mov	r1, r2
 526 001e 1A46     		mov	r2, r3
 527 0020 FFF7FEFF 		bl	_Z5ultoamPci
 108:core/WString.cpp **** 	*this = buf;
 528              		.loc 1 108 0
 529 0024 07F11403 		add	r3, r7, #20
 530 0028 F868     		ldr	r0, [r7, #12]
 531 002a 1946     		mov	r1, r3
 532 002c FFF7FEFF 		bl	_ZN6StringaSEPKc
 533              	.LBE16:
 534              	.LBE15:
 109:core/WString.cpp **** }
 535              		.loc 1 109 0
 536 0030 FB68     		ldr	r3, [r7, #12]
 537 0032 1846     		mov	r0, r3
 538 0034 3837     		adds	r7, r7, #56
 539              		.cfi_def_cfa_offset 8
 540 0036 BD46     		mov	sp, r7
 541              		.cfi_def_cfa_register 13
 542              		@ sp needed
 543 0038 80BD     		pop	{r7, pc}
 544              		.cfi_endproc
 545              	.LFE76:
 546              		.fnend
 547              		.size	_ZN6StringC2Emh, .-_ZN6StringC2Emh
 548              		.global	_ZN6StringC1Emh
 549              		.thumb_set _ZN6StringC1Emh,_ZN6StringC2Emh
 550              		.global	__aeabi_f2d
 551 003a 00BF     		.section	.text._ZN6StringC2Efh,"ax",%progbits
 552              		.align	2
 553              		.global	_ZN6StringC2Efh
 554              		.thumb
 555              		.thumb_func
 556              		.type	_ZN6StringC2Efh, %function
 557              	_ZN6StringC2Efh:
 558              		.fnstart
 559              	.LFB79:
 110:core/WString.cpp **** 
 111:core/WString.cpp **** String::String(float value, unsigned char decimalPlaces)
 560              		.loc 1 111 0
 561              		.cfi_startproc
 562              		@ args = 0, pretend = 0, frame = 56
 563              		@ frame_needed = 1, uses_anonymous_args = 0
 564 0000 90B5     		push	{r4, r7, lr}
 565              		.save {r4, r7, lr}
 566              		.cfi_def_cfa_offset 12
 567              		.cfi_offset 4, -12
 568              		.cfi_offset 7, -8
 569              		.cfi_offset 14, -4
 570              		.pad #68
 571 0002 91B0     		sub	sp, sp, #68
 572              		.cfi_def_cfa_offset 80
 573              		.setfp r7, sp, #8
ARM GAS  C:\Users\Bruger\AppData\Local\Temp\ccjLt6bf.s 			page 13


 574 0004 02AF     		add	r7, sp, #8
 575              		.cfi_def_cfa 7, 72
 576 0006 F860     		str	r0, [r7, #12]
 577 0008 B960     		str	r1, [r7, #8]	@ float
 578 000a 1346     		mov	r3, r2
 579 000c FB71     		strb	r3, [r7, #7]
 580              	.LBB17:
 581              	.LBB18:
 112:core/WString.cpp **** {
 113:core/WString.cpp **** 	init();
 582              		.loc 1 113 0
 583 000e F868     		ldr	r0, [r7, #12]
 584 0010 FFF7FEFF 		bl	_ZN6String4initEv
 114:core/WString.cpp **** 	char buf[33];
 115:core/WString.cpp **** 	*this = dtostrf(value, (decimalPlaces + 2), decimalPlaces, buf);
 585              		.loc 1 115 0
 586 0014 B868     		ldr	r0, [r7, #8]	@ float
 587 0016 FFF7FEFF 		bl	__aeabi_f2d
 588 001a FB79     		ldrb	r3, [r7, #7]
 589 001c 0233     		adds	r3, r3, #2
 590 001e DBB2     		uxtb	r3, r3
 591 0020 DBB2     		uxtb	r3, r3
 592 0022 5AB2     		sxtb	r2, r3
 593 0024 FC79     		ldrb	r4, [r7, #7]	@ zero_extendqisi2
 594 0026 07F11403 		add	r3, r7, #20
 595 002a 0093     		str	r3, [sp]
 596 002c 2346     		mov	r3, r4
 597 002e FFF7FEFF 		bl	_Z7dtostrfdahPc
 598 0032 0346     		mov	r3, r0
 599 0034 F868     		ldr	r0, [r7, #12]
 600 0036 1946     		mov	r1, r3
 601 0038 FFF7FEFF 		bl	_ZN6StringaSEPKc
 602              	.LBE18:
 603              	.LBE17:
 116:core/WString.cpp **** }
 604              		.loc 1 116 0
 605 003c FB68     		ldr	r3, [r7, #12]
 606 003e 1846     		mov	r0, r3
 607 0040 3C37     		adds	r7, r7, #60
 608              		.cfi_def_cfa_offset 12
 609 0042 BD46     		mov	sp, r7
 610              		.cfi_def_cfa_register 13
 611              		@ sp needed
 612 0044 90BD     		pop	{r4, r7, pc}
 613              		.cfi_endproc
 614              	.LFE79:
 615              		.fnend
 616              		.size	_ZN6StringC2Efh, .-_ZN6StringC2Efh
 617              		.global	_ZN6StringC1Efh
 618              		.thumb_set _ZN6StringC1Efh,_ZN6StringC2Efh
 619 0046 00BF     		.section	.text._ZN6StringC2Edh,"ax",%progbits
 620              		.align	2
 621              		.global	_ZN6StringC2Edh
 622              		.thumb
 623              		.thumb_func
 624              		.type	_ZN6StringC2Edh, %function
 625              	_ZN6StringC2Edh:
ARM GAS  C:\Users\Bruger\AppData\Local\Temp\ccjLt6bf.s 			page 14


 626              		.fnstart
 627              	.LFB82:
 117:core/WString.cpp **** 
 118:core/WString.cpp **** String::String(double value, unsigned char decimalPlaces)
 628              		.loc 1 118 0
 629              		.cfi_startproc
 630              		@ args = 4, pretend = 0, frame = 56
 631              		@ frame_needed = 1, uses_anonymous_args = 0
 632 0000 90B5     		push	{r4, r7, lr}
 633              		.save {r4, r7, lr}
 634              		.cfi_def_cfa_offset 12
 635              		.cfi_offset 4, -12
 636              		.cfi_offset 7, -8
 637              		.cfi_offset 14, -4
 638              		.pad #68
 639 0002 91B0     		sub	sp, sp, #68
 640              		.cfi_def_cfa_offset 80
 641              		.setfp r7, sp, #8
 642 0004 02AF     		add	r7, sp, #8
 643              		.cfi_def_cfa 7, 72
 644 0006 F860     		str	r0, [r7, #12]
 645 0008 C7E90023 		strd	r2, [r7]
 646              	.LBB19:
 647              	.LBB20:
 119:core/WString.cpp **** {
 120:core/WString.cpp **** 	init();
 648              		.loc 1 120 0
 649 000c F868     		ldr	r0, [r7, #12]
 650 000e FFF7FEFF 		bl	_ZN6String4initEv
 121:core/WString.cpp **** 	char buf[33];
 122:core/WString.cpp **** 	*this = dtostrf(value, (decimalPlaces + 2), decimalPlaces, buf);
 651              		.loc 1 122 0
 652 0012 97F84830 		ldrb	r3, [r7, #72]
 653 0016 0233     		adds	r3, r3, #2
 654 0018 DBB2     		uxtb	r3, r3
 655 001a DBB2     		uxtb	r3, r3
 656 001c 5AB2     		sxtb	r2, r3
 657 001e 97F84840 		ldrb	r4, [r7, #72]	@ zero_extendqisi2
 658 0022 07F11403 		add	r3, r7, #20
 659 0026 0093     		str	r3, [sp]
 660 0028 D7E90001 		ldrd	r0, [r7]
 661 002c 2346     		mov	r3, r4
 662 002e FFF7FEFF 		bl	_Z7dtostrfdahPc
 663 0032 0346     		mov	r3, r0
 664 0034 F868     		ldr	r0, [r7, #12]
 665 0036 1946     		mov	r1, r3
 666 0038 FFF7FEFF 		bl	_ZN6StringaSEPKc
 667              	.LBE20:
 668              	.LBE19:
 123:core/WString.cpp **** }
 669              		.loc 1 123 0
 670 003c FB68     		ldr	r3, [r7, #12]
 671 003e 1846     		mov	r0, r3
 672 0040 3C37     		adds	r7, r7, #60
 673              		.cfi_def_cfa_offset 12
 674 0042 BD46     		mov	sp, r7
 675              		.cfi_def_cfa_register 13
ARM GAS  C:\Users\Bruger\AppData\Local\Temp\ccjLt6bf.s 			page 15


 676              		@ sp needed
 677 0044 90BD     		pop	{r4, r7, pc}
 678              		.cfi_endproc
 679              	.LFE82:
 680              		.fnend
 681              		.size	_ZN6StringC2Edh, .-_ZN6StringC2Edh
 682              		.global	_ZN6StringC1Edh
 683              		.thumb_set _ZN6StringC1Edh,_ZN6StringC2Edh
 684 0046 00BF     		.section	.text._ZN6StringD2Ev,"ax",%progbits
 685              		.align	2
 686              		.global	_ZN6StringD2Ev
 687              		.thumb
 688              		.thumb_func
 689              		.type	_ZN6StringD2Ev, %function
 690              	_ZN6StringD2Ev:
 691              		.fnstart
 692              	.LFB85:
 124:core/WString.cpp **** 
 125:core/WString.cpp **** String::~String()
 693              		.loc 1 125 0
 694              		.cfi_startproc
 695              		@ args = 0, pretend = 0, frame = 8
 696              		@ frame_needed = 1, uses_anonymous_args = 0
 697 0000 80B5     		push	{r7, lr}
 698              		.cfi_def_cfa_offset 8
 699              		.cfi_offset 7, -8
 700              		.cfi_offset 14, -4
 701 0002 82B0     		sub	sp, sp, #8
 702              		.cfi_def_cfa_offset 16
 703 0004 00AF     		add	r7, sp, #0
 704              		.cfi_def_cfa_register 7
 705 0006 7860     		str	r0, [r7, #4]
 706              	.LBB21:
 126:core/WString.cpp **** {
 127:core/WString.cpp **** 	free(buffer);
 707              		.loc 1 127 0
 708 0008 7B68     		ldr	r3, [r7, #4]
 709 000a 1B68     		ldr	r3, [r3]
 710 000c 1846     		mov	r0, r3
 711 000e FFF7FEFF 		bl	free
 712              	.LBE21:
 128:core/WString.cpp **** }
 713              		.loc 1 128 0
 714 0012 7B68     		ldr	r3, [r7, #4]
 715 0014 1846     		mov	r0, r3
 716 0016 0837     		adds	r7, r7, #8
 717              		.cfi_def_cfa_offset 8
 718 0018 BD46     		mov	sp, r7
 719              		.cfi_def_cfa_register 13
 720              		@ sp needed
 721 001a 80BD     		pop	{r7, pc}
 722              		.cfi_endproc
 723              	.LFE85:
 724              		.cantunwind
 725              		.fnend
 726              		.size	_ZN6StringD2Ev, .-_ZN6StringD2Ev
 727              		.global	_ZN6StringD1Ev
ARM GAS  C:\Users\Bruger\AppData\Local\Temp\ccjLt6bf.s 			page 16


 728              		.thumb_set _ZN6StringD1Ev,_ZN6StringD2Ev
 729              		.section	.text._ZN6String4initEv,"axG",%progbits,_ZN6String4initEv,comdat
 730              		.align	2
 731              		.weak	_ZN6String4initEv
 732              		.thumb
 733              		.thumb_func
 734              		.type	_ZN6String4initEv, %function
 735              	_ZN6String4initEv:
 736              		.fnstart
 737              	.LFB87:
 129:core/WString.cpp **** 
 130:core/WString.cpp **** /*********************************************/
 131:core/WString.cpp **** /*  Memory Management                        */
 132:core/WString.cpp **** /*********************************************/
 133:core/WString.cpp **** 
 134:core/WString.cpp **** inline void String::init(void)
 135:core/WString.cpp **** {
 738              		.loc 1 135 0
 739              		.cfi_startproc
 740              		@ args = 0, pretend = 0, frame = 8
 741              		@ frame_needed = 1, uses_anonymous_args = 0
 742              		@ link register save eliminated.
 743 0000 80B4     		push	{r7}
 744              		.cfi_def_cfa_offset 4
 745              		.cfi_offset 7, -4
 746 0002 83B0     		sub	sp, sp, #12
 747              		.cfi_def_cfa_offset 16
 748 0004 00AF     		add	r7, sp, #0
 749              		.cfi_def_cfa_register 7
 750 0006 7860     		str	r0, [r7, #4]
 136:core/WString.cpp **** 	buffer = NULL;
 751              		.loc 1 136 0
 752 0008 7B68     		ldr	r3, [r7, #4]
 753 000a 0022     		movs	r2, #0
 754 000c 1A60     		str	r2, [r3]
 137:core/WString.cpp **** 	capacity = 0;
 755              		.loc 1 137 0
 756 000e 7B68     		ldr	r3, [r7, #4]
 757 0010 0022     		movs	r2, #0
 758 0012 5A60     		str	r2, [r3, #4]
 138:core/WString.cpp **** 	len = 0;
 759              		.loc 1 138 0
 760 0014 7B68     		ldr	r3, [r7, #4]
 761 0016 0022     		movs	r2, #0
 762 0018 9A60     		str	r2, [r3, #8]
 139:core/WString.cpp **** }
 763              		.loc 1 139 0
 764 001a 0C37     		adds	r7, r7, #12
 765              		.cfi_def_cfa_offset 4
 766 001c BD46     		mov	sp, r7
 767              		.cfi_def_cfa_register 13
 768              		@ sp needed
 769 001e 5DF8047B 		ldr	r7, [sp], #4
 770              		.cfi_restore 7
 771              		.cfi_def_cfa_offset 0
 772 0022 7047     		bx	lr
 773              		.cfi_endproc
ARM GAS  C:\Users\Bruger\AppData\Local\Temp\ccjLt6bf.s 			page 17


 774              	.LFE87:
 775              		.cantunwind
 776              		.fnend
 777              		.size	_ZN6String4initEv, .-_ZN6String4initEv
 778              		.section	.text._ZN6String10invalidateEv,"ax",%progbits
 779              		.align	2
 780              		.global	_ZN6String10invalidateEv
 781              		.thumb
 782              		.thumb_func
 783              		.type	_ZN6String10invalidateEv, %function
 784              	_ZN6String10invalidateEv:
 785              		.fnstart
 786              	.LFB88:
 140:core/WString.cpp **** 
 141:core/WString.cpp **** void String::invalidate(void)
 142:core/WString.cpp **** {
 787              		.loc 1 142 0
 788              		.cfi_startproc
 789              		@ args = 0, pretend = 0, frame = 8
 790              		@ frame_needed = 1, uses_anonymous_args = 0
 791 0000 80B5     		push	{r7, lr}
 792              		.cfi_def_cfa_offset 8
 793              		.cfi_offset 7, -8
 794              		.cfi_offset 14, -4
 795 0002 82B0     		sub	sp, sp, #8
 796              		.cfi_def_cfa_offset 16
 797 0004 00AF     		add	r7, sp, #0
 798              		.cfi_def_cfa_register 7
 799 0006 7860     		str	r0, [r7, #4]
 143:core/WString.cpp **** 	if (buffer) free(buffer);
 800              		.loc 1 143 0
 801 0008 7B68     		ldr	r3, [r7, #4]
 802 000a 1B68     		ldr	r3, [r3]
 803 000c 002B     		cmp	r3, #0
 804 000e 04D0     		beq	.L39
 805              		.loc 1 143 0 is_stmt 0 discriminator 1
 806 0010 7B68     		ldr	r3, [r7, #4]
 807 0012 1B68     		ldr	r3, [r3]
 808 0014 1846     		mov	r0, r3
 809 0016 FFF7FEFF 		bl	free
 810              	.L39:
 144:core/WString.cpp **** 	buffer = NULL;
 811              		.loc 1 144 0 is_stmt 1
 812 001a 7B68     		ldr	r3, [r7, #4]
 813 001c 0022     		movs	r2, #0
 814 001e 1A60     		str	r2, [r3]
 145:core/WString.cpp **** 	capacity = len = 0;
 815              		.loc 1 145 0
 816 0020 7B68     		ldr	r3, [r7, #4]
 817 0022 0022     		movs	r2, #0
 818 0024 9A60     		str	r2, [r3, #8]
 819 0026 7B68     		ldr	r3, [r7, #4]
 820 0028 9A68     		ldr	r2, [r3, #8]
 821 002a 7B68     		ldr	r3, [r7, #4]
 822 002c 5A60     		str	r2, [r3, #4]
 146:core/WString.cpp **** }
 823              		.loc 1 146 0
ARM GAS  C:\Users\Bruger\AppData\Local\Temp\ccjLt6bf.s 			page 18


 824 002e 0837     		adds	r7, r7, #8
 825              		.cfi_def_cfa_offset 8
 826 0030 BD46     		mov	sp, r7
 827              		.cfi_def_cfa_register 13
 828              		@ sp needed
 829 0032 80BD     		pop	{r7, pc}
 830              		.cfi_endproc
 831              	.LFE88:
 832              		.cantunwind
 833              		.fnend
 834              		.size	_ZN6String10invalidateEv, .-_ZN6String10invalidateEv
 835              		.section	.text._ZN6String7reserveEj,"ax",%progbits
 836              		.align	2
 837              		.global	_ZN6String7reserveEj
 838              		.thumb
 839              		.thumb_func
 840              		.type	_ZN6String7reserveEj, %function
 841              	_ZN6String7reserveEj:
 842              		.fnstart
 843              	.LFB89:
 147:core/WString.cpp **** 
 148:core/WString.cpp **** unsigned char String::reserve(unsigned int size)
 149:core/WString.cpp **** {
 844              		.loc 1 149 0
 845              		.cfi_startproc
 846              		@ args = 0, pretend = 0, frame = 8
 847              		@ frame_needed = 1, uses_anonymous_args = 0
 848 0000 80B5     		push	{r7, lr}
 849              		.cfi_def_cfa_offset 8
 850              		.cfi_offset 7, -8
 851              		.cfi_offset 14, -4
 852 0002 82B0     		sub	sp, sp, #8
 853              		.cfi_def_cfa_offset 16
 854 0004 00AF     		add	r7, sp, #0
 855              		.cfi_def_cfa_register 7
 856 0006 7860     		str	r0, [r7, #4]
 857 0008 3960     		str	r1, [r7]
 150:core/WString.cpp **** 	if (buffer && capacity >= size) return 1;
 858              		.loc 1 150 0
 859 000a 7B68     		ldr	r3, [r7, #4]
 860 000c 1B68     		ldr	r3, [r3]
 861 000e 002B     		cmp	r3, #0
 862 0010 06D0     		beq	.L41
 863              		.loc 1 150 0 is_stmt 0 discriminator 1
 864 0012 7B68     		ldr	r3, [r7, #4]
 865 0014 5A68     		ldr	r2, [r3, #4]
 866 0016 3B68     		ldr	r3, [r7]
 867 0018 9A42     		cmp	r2, r3
 868 001a 01D3     		bcc	.L41
 869              		.loc 1 150 0 discriminator 2
 870 001c 0123     		movs	r3, #1
 871 001e 16E0     		b	.L42
 872              	.L41:
 151:core/WString.cpp **** 	if (changeBuffer(size)) {
 873              		.loc 1 151 0 is_stmt 1
 874 0020 7868     		ldr	r0, [r7, #4]
 875 0022 3968     		ldr	r1, [r7]
ARM GAS  C:\Users\Bruger\AppData\Local\Temp\ccjLt6bf.s 			page 19


 876 0024 FFF7FEFF 		bl	_ZN6String12changeBufferEj
 877 0028 0346     		mov	r3, r0
 878 002a 002B     		cmp	r3, #0
 879 002c 14BF     		ite	ne
 880 002e 0123     		movne	r3, #1
 881 0030 0023     		moveq	r3, #0
 882 0032 DBB2     		uxtb	r3, r3
 883 0034 002B     		cmp	r3, #0
 884 0036 09D0     		beq	.L43
 152:core/WString.cpp **** 		if (len == 0) buffer[0] = 0;
 885              		.loc 1 152 0
 886 0038 7B68     		ldr	r3, [r7, #4]
 887 003a 9B68     		ldr	r3, [r3, #8]
 888 003c 002B     		cmp	r3, #0
 889 003e 03D1     		bne	.L44
 890              		.loc 1 152 0 is_stmt 0 discriminator 1
 891 0040 7B68     		ldr	r3, [r7, #4]
 892 0042 1B68     		ldr	r3, [r3]
 893 0044 0022     		movs	r2, #0
 894 0046 1A70     		strb	r2, [r3]
 895              	.L44:
 153:core/WString.cpp **** 		return 1;
 896              		.loc 1 153 0 is_stmt 1
 897 0048 0123     		movs	r3, #1
 898 004a 00E0     		b	.L42
 899              	.L43:
 154:core/WString.cpp **** 	}
 155:core/WString.cpp **** 	return 0;
 900              		.loc 1 155 0
 901 004c 0023     		movs	r3, #0
 902              	.L42:
 156:core/WString.cpp **** }
 903              		.loc 1 156 0
 904 004e 1846     		mov	r0, r3
 905 0050 0837     		adds	r7, r7, #8
 906              		.cfi_def_cfa_offset 8
 907 0052 BD46     		mov	sp, r7
 908              		.cfi_def_cfa_register 13
 909              		@ sp needed
 910 0054 80BD     		pop	{r7, pc}
 911              		.cfi_endproc
 912              	.LFE89:
 913              		.cantunwind
 914              		.fnend
 915              		.size	_ZN6String7reserveEj, .-_ZN6String7reserveEj
 916 0056 00BF     		.section	.text._ZN6String12changeBufferEj,"ax",%progbits
 917              		.align	2
 918              		.global	_ZN6String12changeBufferEj
 919              		.thumb
 920              		.thumb_func
 921              		.type	_ZN6String12changeBufferEj, %function
 922              	_ZN6String12changeBufferEj:
 923              		.fnstart
 924              	.LFB90:
 157:core/WString.cpp **** 
 158:core/WString.cpp **** unsigned char String::changeBuffer(unsigned int maxStrLen)
 159:core/WString.cpp **** {
ARM GAS  C:\Users\Bruger\AppData\Local\Temp\ccjLt6bf.s 			page 20


 925              		.loc 1 159 0
 926              		.cfi_startproc
 927              		@ args = 0, pretend = 0, frame = 16
 928              		@ frame_needed = 1, uses_anonymous_args = 0
 929 0000 80B5     		push	{r7, lr}
 930              		.cfi_def_cfa_offset 8
 931              		.cfi_offset 7, -8
 932              		.cfi_offset 14, -4
 933 0002 84B0     		sub	sp, sp, #16
 934              		.cfi_def_cfa_offset 24
 935 0004 00AF     		add	r7, sp, #0
 936              		.cfi_def_cfa_register 7
 937 0006 7860     		str	r0, [r7, #4]
 938 0008 3960     		str	r1, [r7]
 939              	.LBB22:
 160:core/WString.cpp **** 	char *newbuffer = (char *)realloc(buffer, maxStrLen + 1);
 940              		.loc 1 160 0
 941 000a 7B68     		ldr	r3, [r7, #4]
 942 000c 1A68     		ldr	r2, [r3]
 943 000e 3B68     		ldr	r3, [r7]
 944 0010 0133     		adds	r3, r3, #1
 945 0012 1046     		mov	r0, r2
 946 0014 1946     		mov	r1, r3
 947 0016 FFF7FEFF 		bl	realloc
 948 001a F860     		str	r0, [r7, #12]
 161:core/WString.cpp **** 	if (newbuffer) {
 949              		.loc 1 161 0
 950 001c FB68     		ldr	r3, [r7, #12]
 951 001e 002B     		cmp	r3, #0
 952 0020 07D0     		beq	.L46
 162:core/WString.cpp **** 		buffer = newbuffer;
 953              		.loc 1 162 0
 954 0022 7B68     		ldr	r3, [r7, #4]
 955 0024 FA68     		ldr	r2, [r7, #12]
 956 0026 1A60     		str	r2, [r3]
 163:core/WString.cpp **** 		capacity = maxStrLen;
 957              		.loc 1 163 0
 958 0028 7B68     		ldr	r3, [r7, #4]
 959 002a 3A68     		ldr	r2, [r7]
 960 002c 5A60     		str	r2, [r3, #4]
 164:core/WString.cpp **** 		return 1;
 961              		.loc 1 164 0
 962 002e 0123     		movs	r3, #1
 963 0030 00E0     		b	.L47
 964              	.L46:
 165:core/WString.cpp **** 	}
 166:core/WString.cpp **** 	return 0;
 965              		.loc 1 166 0
 966 0032 0023     		movs	r3, #0
 967              	.L47:
 968              	.LBE22:
 167:core/WString.cpp **** }
 969              		.loc 1 167 0
 970 0034 1846     		mov	r0, r3
 971 0036 1037     		adds	r7, r7, #16
 972              		.cfi_def_cfa_offset 8
 973 0038 BD46     		mov	sp, r7
ARM GAS  C:\Users\Bruger\AppData\Local\Temp\ccjLt6bf.s 			page 21


 974              		.cfi_def_cfa_register 13
 975              		@ sp needed
 976 003a 80BD     		pop	{r7, pc}
 977              		.cfi_endproc
 978              	.LFE90:
 979              		.cantunwind
 980              		.fnend
 981              		.size	_ZN6String12changeBufferEj, .-_ZN6String12changeBufferEj
 982              		.section	.text._ZN6String4copyEPKcj,"ax",%progbits
 983              		.align	2
 984              		.global	_ZN6String4copyEPKcj
 985              		.thumb
 986              		.thumb_func
 987              		.type	_ZN6String4copyEPKcj, %function
 988              	_ZN6String4copyEPKcj:
 989              		.fnstart
 990              	.LFB91:
 168:core/WString.cpp **** 
 169:core/WString.cpp **** /*********************************************/
 170:core/WString.cpp **** /*  Copy and Move                            */
 171:core/WString.cpp **** /*********************************************/
 172:core/WString.cpp **** 
 173:core/WString.cpp **** String & String::copy(const char *cstr, unsigned int length)
 174:core/WString.cpp **** {
 991              		.loc 1 174 0
 992              		.cfi_startproc
 993              		@ args = 0, pretend = 0, frame = 16
 994              		@ frame_needed = 1, uses_anonymous_args = 0
 995 0000 80B5     		push	{r7, lr}
 996              		.cfi_def_cfa_offset 8
 997              		.cfi_offset 7, -8
 998              		.cfi_offset 14, -4
 999 0002 84B0     		sub	sp, sp, #16
 1000              		.cfi_def_cfa_offset 24
 1001 0004 00AF     		add	r7, sp, #0
 1002              		.cfi_def_cfa_register 7
 1003 0006 F860     		str	r0, [r7, #12]
 1004 0008 B960     		str	r1, [r7, #8]
 1005 000a 7A60     		str	r2, [r7, #4]
 175:core/WString.cpp **** 	if (!reserve(length)) {
 1006              		.loc 1 175 0
 1007 000c F868     		ldr	r0, [r7, #12]
 1008 000e 7968     		ldr	r1, [r7, #4]
 1009 0010 FFF7FEFF 		bl	_ZN6String7reserveEj
 1010 0014 0346     		mov	r3, r0
 1011 0016 002B     		cmp	r3, #0
 1012 0018 0CBF     		ite	eq
 1013 001a 0123     		moveq	r3, #1
 1014 001c 0023     		movne	r3, #0
 1015 001e DBB2     		uxtb	r3, r3
 1016 0020 002B     		cmp	r3, #0
 1017 0022 04D0     		beq	.L49
 176:core/WString.cpp **** 		invalidate();
 1018              		.loc 1 176 0
 1019 0024 F868     		ldr	r0, [r7, #12]
 1020 0026 FFF7FEFF 		bl	_ZN6String10invalidateEv
 177:core/WString.cpp **** 		return *this;
ARM GAS  C:\Users\Bruger\AppData\Local\Temp\ccjLt6bf.s 			page 22


 1021              		.loc 1 177 0
 1022 002a FB68     		ldr	r3, [r7, #12]
 1023 002c 09E0     		b	.L50
 1024              	.L49:
 178:core/WString.cpp **** 	}
 179:core/WString.cpp **** 	len = length;
 1025              		.loc 1 179 0
 1026 002e FB68     		ldr	r3, [r7, #12]
 1027 0030 7A68     		ldr	r2, [r7, #4]
 1028 0032 9A60     		str	r2, [r3, #8]
 180:core/WString.cpp **** 	strcpy(buffer, cstr);
 1029              		.loc 1 180 0
 1030 0034 FB68     		ldr	r3, [r7, #12]
 1031 0036 1B68     		ldr	r3, [r3]
 1032 0038 1846     		mov	r0, r3
 1033 003a B968     		ldr	r1, [r7, #8]
 1034 003c FFF7FEFF 		bl	strcpy
 181:core/WString.cpp **** 	return *this;
 1035              		.loc 1 181 0
 1036 0040 FB68     		ldr	r3, [r7, #12]
 1037              	.L50:
 182:core/WString.cpp **** }
 1038              		.loc 1 182 0
 1039 0042 1846     		mov	r0, r3
 1040 0044 1037     		adds	r7, r7, #16
 1041              		.cfi_def_cfa_offset 8
 1042 0046 BD46     		mov	sp, r7
 1043              		.cfi_def_cfa_register 13
 1044              		@ sp needed
 1045 0048 80BD     		pop	{r7, pc}
 1046              		.cfi_endproc
 1047              	.LFE91:
 1048              		.cantunwind
 1049              		.fnend
 1050              		.size	_ZN6String4copyEPKcj, .-_ZN6String4copyEPKcj
 1051 004a 00BF     		.section	.text._ZN6String4copyEPK19__FlashStringHelperj,"ax",%progbits
 1052              		.align	2
 1053              		.global	_ZN6String4copyEPK19__FlashStringHelperj
 1054              		.thumb
 1055              		.thumb_func
 1056              		.type	_ZN6String4copyEPK19__FlashStringHelperj, %function
 1057              	_ZN6String4copyEPK19__FlashStringHelperj:
 1058              		.fnstart
 1059              	.LFB92:
 183:core/WString.cpp **** 
 184:core/WString.cpp **** String & String::copy(const __FlashStringHelper *pstr, unsigned int length)
 185:core/WString.cpp **** {
 1060              		.loc 1 185 0
 1061              		.cfi_startproc
 1062              		@ args = 0, pretend = 0, frame = 16
 1063              		@ frame_needed = 1, uses_anonymous_args = 0
 1064 0000 80B5     		push	{r7, lr}
 1065              		.cfi_def_cfa_offset 8
 1066              		.cfi_offset 7, -8
 1067              		.cfi_offset 14, -4
 1068 0002 84B0     		sub	sp, sp, #16
 1069              		.cfi_def_cfa_offset 24
ARM GAS  C:\Users\Bruger\AppData\Local\Temp\ccjLt6bf.s 			page 23


 1070 0004 00AF     		add	r7, sp, #0
 1071              		.cfi_def_cfa_register 7
 1072 0006 F860     		str	r0, [r7, #12]
 1073 0008 B960     		str	r1, [r7, #8]
 1074 000a 7A60     		str	r2, [r7, #4]
 186:core/WString.cpp **** 	if (!reserve(length)) {
 1075              		.loc 1 186 0
 1076 000c F868     		ldr	r0, [r7, #12]
 1077 000e 7968     		ldr	r1, [r7, #4]
 1078 0010 FFF7FEFF 		bl	_ZN6String7reserveEj
 1079 0014 0346     		mov	r3, r0
 1080 0016 002B     		cmp	r3, #0
 1081 0018 0CBF     		ite	eq
 1082 001a 0123     		moveq	r3, #1
 1083 001c 0023     		movne	r3, #0
 1084 001e DBB2     		uxtb	r3, r3
 1085 0020 002B     		cmp	r3, #0
 1086 0022 04D0     		beq	.L52
 187:core/WString.cpp **** 		invalidate();
 1087              		.loc 1 187 0
 1088 0024 F868     		ldr	r0, [r7, #12]
 1089 0026 FFF7FEFF 		bl	_ZN6String10invalidateEv
 188:core/WString.cpp **** 		return *this;
 1090              		.loc 1 188 0
 1091 002a FB68     		ldr	r3, [r7, #12]
 1092 002c 09E0     		b	.L53
 1093              	.L52:
 189:core/WString.cpp **** 	}
 190:core/WString.cpp **** 	len = length;
 1094              		.loc 1 190 0
 1095 002e FB68     		ldr	r3, [r7, #12]
 1096 0030 7A68     		ldr	r2, [r7, #4]
 1097 0032 9A60     		str	r2, [r3, #8]
 191:core/WString.cpp **** 	strcpy_P(buffer, (PGM_P)pstr);
 1098              		.loc 1 191 0
 1099 0034 FB68     		ldr	r3, [r7, #12]
 1100 0036 1B68     		ldr	r3, [r3]
 1101 0038 1846     		mov	r0, r3
 1102 003a B968     		ldr	r1, [r7, #8]
 1103 003c FFF7FEFF 		bl	strcpy
 192:core/WString.cpp **** 	return *this;
 1104              		.loc 1 192 0
 1105 0040 FB68     		ldr	r3, [r7, #12]
 1106              	.L53:
 193:core/WString.cpp **** }
 1107              		.loc 1 193 0
 1108 0042 1846     		mov	r0, r3
 1109 0044 1037     		adds	r7, r7, #16
 1110              		.cfi_def_cfa_offset 8
 1111 0046 BD46     		mov	sp, r7
 1112              		.cfi_def_cfa_register 13
 1113              		@ sp needed
 1114 0048 80BD     		pop	{r7, pc}
 1115              		.cfi_endproc
 1116              	.LFE92:
 1117              		.cantunwind
 1118              		.fnend
ARM GAS  C:\Users\Bruger\AppData\Local\Temp\ccjLt6bf.s 			page 24


 1119              		.size	_ZN6String4copyEPK19__FlashStringHelperj, .-_ZN6String4copyEPK19__FlashStringHelperj
 1120 004a 00BF     		.section	.text._ZN6StringaSERKS_,"ax",%progbits
 1121              		.align	2
 1122              		.global	_ZN6StringaSERKS_
 1123              		.thumb
 1124              		.thumb_func
 1125              		.type	_ZN6StringaSERKS_, %function
 1126              	_ZN6StringaSERKS_:
 1127              		.fnstart
 1128              	.LFB93:
 194:core/WString.cpp **** 
 195:core/WString.cpp **** #ifdef __GXX_EXPERIMENTAL_CXX0X__
 196:core/WString.cpp **** void String::move(String &rhs)
 197:core/WString.cpp **** {
 198:core/WString.cpp **** 	if (buffer) {
 199:core/WString.cpp **** 		if (capacity >= rhs.len) {
 200:core/WString.cpp **** 			strcpy(buffer, rhs.buffer);
 201:core/WString.cpp **** 			len = rhs.len;
 202:core/WString.cpp **** 			rhs.len = 0;
 203:core/WString.cpp **** 			return;
 204:core/WString.cpp **** 		} else {
 205:core/WString.cpp **** 			free(buffer);
 206:core/WString.cpp **** 		}
 207:core/WString.cpp **** 	}
 208:core/WString.cpp **** 	buffer = rhs.buffer;
 209:core/WString.cpp **** 	capacity = rhs.capacity;
 210:core/WString.cpp **** 	len = rhs.len;
 211:core/WString.cpp **** 	rhs.buffer = NULL;
 212:core/WString.cpp **** 	rhs.capacity = 0;
 213:core/WString.cpp **** 	rhs.len = 0;
 214:core/WString.cpp **** }
 215:core/WString.cpp **** #endif
 216:core/WString.cpp **** 
 217:core/WString.cpp **** String & String::operator = (const String &rhs)
 218:core/WString.cpp **** {
 1129              		.loc 1 218 0
 1130              		.cfi_startproc
 1131              		@ args = 0, pretend = 0, frame = 8
 1132              		@ frame_needed = 1, uses_anonymous_args = 0
 1133 0000 80B5     		push	{r7, lr}
 1134              		.cfi_def_cfa_offset 8
 1135              		.cfi_offset 7, -8
 1136              		.cfi_offset 14, -4
 1137 0002 82B0     		sub	sp, sp, #8
 1138              		.cfi_def_cfa_offset 16
 1139 0004 00AF     		add	r7, sp, #0
 1140              		.cfi_def_cfa_register 7
 1141 0006 7860     		str	r0, [r7, #4]
 1142 0008 3960     		str	r1, [r7]
 219:core/WString.cpp **** 	if (this == &rhs) return *this;
 1143              		.loc 1 219 0
 1144 000a 7A68     		ldr	r2, [r7, #4]
 1145 000c 3B68     		ldr	r3, [r7]
 1146 000e 9A42     		cmp	r2, r3
 1147 0010 01D1     		bne	.L55
 1148              		.loc 1 219 0 is_stmt 0 discriminator 1
 1149 0012 7B68     		ldr	r3, [r7, #4]
ARM GAS  C:\Users\Bruger\AppData\Local\Temp\ccjLt6bf.s 			page 25


 1150 0014 11E0     		b	.L56
 1151              	.L55:
 220:core/WString.cpp **** 	
 221:core/WString.cpp **** 	if (rhs.buffer) copy(rhs.buffer, rhs.len);
 1152              		.loc 1 221 0 is_stmt 1
 1153 0016 3B68     		ldr	r3, [r7]
 1154 0018 1B68     		ldr	r3, [r3]
 1155 001a 002B     		cmp	r3, #0
 1156 001c 09D0     		beq	.L57
 1157              		.loc 1 221 0 is_stmt 0 discriminator 1
 1158 001e 3B68     		ldr	r3, [r7]
 1159 0020 1A68     		ldr	r2, [r3]
 1160 0022 3B68     		ldr	r3, [r7]
 1161 0024 9B68     		ldr	r3, [r3, #8]
 1162 0026 7868     		ldr	r0, [r7, #4]
 1163 0028 1146     		mov	r1, r2
 1164 002a 1A46     		mov	r2, r3
 1165 002c FFF7FEFF 		bl	_ZN6String4copyEPKcj
 1166 0030 02E0     		b	.L58
 1167              	.L57:
 222:core/WString.cpp **** 	else invalidate();
 1168              		.loc 1 222 0 is_stmt 1
 1169 0032 7868     		ldr	r0, [r7, #4]
 1170 0034 FFF7FEFF 		bl	_ZN6String10invalidateEv
 1171              	.L58:
 223:core/WString.cpp **** 	
 224:core/WString.cpp **** 	return *this;
 1172              		.loc 1 224 0
 1173 0038 7B68     		ldr	r3, [r7, #4]
 1174              	.L56:
 225:core/WString.cpp **** }
 1175              		.loc 1 225 0
 1176 003a 1846     		mov	r0, r3
 1177 003c 0837     		adds	r7, r7, #8
 1178              		.cfi_def_cfa_offset 8
 1179 003e BD46     		mov	sp, r7
 1180              		.cfi_def_cfa_register 13
 1181              		@ sp needed
 1182 0040 80BD     		pop	{r7, pc}
 1183              		.cfi_endproc
 1184              	.LFE93:
 1185              		.cantunwind
 1186              		.fnend
 1187              		.size	_ZN6StringaSERKS_, .-_ZN6StringaSERKS_
 1188 0042 00BF     		.section	.text._ZN6StringaSEPKc,"ax",%progbits
 1189              		.align	2
 1190              		.global	_ZN6StringaSEPKc
 1191              		.thumb
 1192              		.thumb_func
 1193              		.type	_ZN6StringaSEPKc, %function
 1194              	_ZN6StringaSEPKc:
 1195              		.fnstart
 1196              	.LFB94:
 226:core/WString.cpp **** 
 227:core/WString.cpp **** #ifdef __GXX_EXPERIMENTAL_CXX0X__
 228:core/WString.cpp **** String & String::operator = (String &&rval)
 229:core/WString.cpp **** {
ARM GAS  C:\Users\Bruger\AppData\Local\Temp\ccjLt6bf.s 			page 26


 230:core/WString.cpp **** 	if (this != &rval) move(rval);
 231:core/WString.cpp **** 	return *this;
 232:core/WString.cpp **** }
 233:core/WString.cpp **** 
 234:core/WString.cpp **** String & String::operator = (StringSumHelper &&rval)
 235:core/WString.cpp **** {
 236:core/WString.cpp **** 	if (this != &rval) move(rval);
 237:core/WString.cpp **** 	return *this;
 238:core/WString.cpp **** }
 239:core/WString.cpp **** #endif
 240:core/WString.cpp **** 
 241:core/WString.cpp **** String & String::operator = (const char *cstr)
 242:core/WString.cpp **** {
 1197              		.loc 1 242 0
 1198              		.cfi_startproc
 1199              		@ args = 0, pretend = 0, frame = 8
 1200              		@ frame_needed = 1, uses_anonymous_args = 0
 1201 0000 80B5     		push	{r7, lr}
 1202              		.cfi_def_cfa_offset 8
 1203              		.cfi_offset 7, -8
 1204              		.cfi_offset 14, -4
 1205 0002 82B0     		sub	sp, sp, #8
 1206              		.cfi_def_cfa_offset 16
 1207 0004 00AF     		add	r7, sp, #0
 1208              		.cfi_def_cfa_register 7
 1209 0006 7860     		str	r0, [r7, #4]
 1210 0008 3960     		str	r1, [r7]
 243:core/WString.cpp **** 	if (cstr) copy(cstr, strlen(cstr));
 1211              		.loc 1 243 0
 1212 000a 3B68     		ldr	r3, [r7]
 1213 000c 002B     		cmp	r3, #0
 1214 000e 09D0     		beq	.L60
 1215              		.loc 1 243 0 is_stmt 0 discriminator 1
 1216 0010 3868     		ldr	r0, [r7]
 1217 0012 FFF7FEFF 		bl	strlen
 1218 0016 0346     		mov	r3, r0
 1219 0018 7868     		ldr	r0, [r7, #4]
 1220 001a 3968     		ldr	r1, [r7]
 1221 001c 1A46     		mov	r2, r3
 1222 001e FFF7FEFF 		bl	_ZN6String4copyEPKcj
 1223 0022 02E0     		b	.L61
 1224              	.L60:
 244:core/WString.cpp **** 	else invalidate();
 1225              		.loc 1 244 0 is_stmt 1
 1226 0024 7868     		ldr	r0, [r7, #4]
 1227 0026 FFF7FEFF 		bl	_ZN6String10invalidateEv
 1228              	.L61:
 245:core/WString.cpp **** 	
 246:core/WString.cpp **** 	return *this;
 1229              		.loc 1 246 0
 1230 002a 7B68     		ldr	r3, [r7, #4]
 247:core/WString.cpp **** }
 1231              		.loc 1 247 0
 1232 002c 1846     		mov	r0, r3
 1233 002e 0837     		adds	r7, r7, #8
 1234              		.cfi_def_cfa_offset 8
 1235 0030 BD46     		mov	sp, r7
ARM GAS  C:\Users\Bruger\AppData\Local\Temp\ccjLt6bf.s 			page 27


 1236              		.cfi_def_cfa_register 13
 1237              		@ sp needed
 1238 0032 80BD     		pop	{r7, pc}
 1239              		.cfi_endproc
 1240              	.LFE94:
 1241              		.cantunwind
 1242              		.fnend
 1243              		.size	_ZN6StringaSEPKc, .-_ZN6StringaSEPKc
 1244              		.section	.text._ZN6StringaSEPK19__FlashStringHelper,"ax",%progbits
 1245              		.align	2
 1246              		.global	_ZN6StringaSEPK19__FlashStringHelper
 1247              		.thumb
 1248              		.thumb_func
 1249              		.type	_ZN6StringaSEPK19__FlashStringHelper, %function
 1250              	_ZN6StringaSEPK19__FlashStringHelper:
 1251              		.fnstart
 1252              	.LFB95:
 248:core/WString.cpp **** 
 249:core/WString.cpp **** String & String::operator = (const __FlashStringHelper *pstr)
 250:core/WString.cpp **** {
 1253              		.loc 1 250 0
 1254              		.cfi_startproc
 1255              		@ args = 0, pretend = 0, frame = 8
 1256              		@ frame_needed = 1, uses_anonymous_args = 0
 1257 0000 80B5     		push	{r7, lr}
 1258              		.cfi_def_cfa_offset 8
 1259              		.cfi_offset 7, -8
 1260              		.cfi_offset 14, -4
 1261 0002 82B0     		sub	sp, sp, #8
 1262              		.cfi_def_cfa_offset 16
 1263 0004 00AF     		add	r7, sp, #0
 1264              		.cfi_def_cfa_register 7
 1265 0006 7860     		str	r0, [r7, #4]
 1266 0008 3960     		str	r1, [r7]
 251:core/WString.cpp **** 	if (pstr) copy(pstr, strlen_P((PGM_P)pstr));
 1267              		.loc 1 251 0
 1268 000a 3B68     		ldr	r3, [r7]
 1269 000c 002B     		cmp	r3, #0
 1270 000e 09D0     		beq	.L64
 1271              		.loc 1 251 0 is_stmt 0 discriminator 1
 1272 0010 3868     		ldr	r0, [r7]
 1273 0012 FFF7FEFF 		bl	strlen
 1274 0016 0346     		mov	r3, r0
 1275 0018 7868     		ldr	r0, [r7, #4]
 1276 001a 3968     		ldr	r1, [r7]
 1277 001c 1A46     		mov	r2, r3
 1278 001e FFF7FEFF 		bl	_ZN6String4copyEPK19__FlashStringHelperj
 1279 0022 02E0     		b	.L65
 1280              	.L64:
 252:core/WString.cpp **** 	else invalidate();
 1281              		.loc 1 252 0 is_stmt 1
 1282 0024 7868     		ldr	r0, [r7, #4]
 1283 0026 FFF7FEFF 		bl	_ZN6String10invalidateEv
 1284              	.L65:
 253:core/WString.cpp **** 
 254:core/WString.cpp **** 	return *this;
 1285              		.loc 1 254 0
ARM GAS  C:\Users\Bruger\AppData\Local\Temp\ccjLt6bf.s 			page 28


 1286 002a 7B68     		ldr	r3, [r7, #4]
 255:core/WString.cpp **** }
 1287              		.loc 1 255 0
 1288 002c 1846     		mov	r0, r3
 1289 002e 0837     		adds	r7, r7, #8
 1290              		.cfi_def_cfa_offset 8
 1291 0030 BD46     		mov	sp, r7
 1292              		.cfi_def_cfa_register 13
 1293              		@ sp needed
 1294 0032 80BD     		pop	{r7, pc}
 1295              		.cfi_endproc
 1296              	.LFE95:
 1297              		.cantunwind
 1298              		.fnend
 1299              		.size	_ZN6StringaSEPK19__FlashStringHelper, .-_ZN6StringaSEPK19__FlashStringHelper
 1300              		.section	.text._ZN6String6concatERKS_,"ax",%progbits
 1301              		.align	2
 1302              		.global	_ZN6String6concatERKS_
 1303              		.thumb
 1304              		.thumb_func
 1305              		.type	_ZN6String6concatERKS_, %function
 1306              	_ZN6String6concatERKS_:
 1307              		.fnstart
 1308              	.LFB96:
 256:core/WString.cpp **** 
 257:core/WString.cpp **** /*********************************************/
 258:core/WString.cpp **** /*  concat                                   */
 259:core/WString.cpp **** /*********************************************/
 260:core/WString.cpp **** 
 261:core/WString.cpp **** unsigned char String::concat(const String &s)
 262:core/WString.cpp **** {
 1309              		.loc 1 262 0
 1310              		.cfi_startproc
 1311              		@ args = 0, pretend = 0, frame = 8
 1312              		@ frame_needed = 1, uses_anonymous_args = 0
 1313 0000 80B5     		push	{r7, lr}
 1314              		.save {r7, lr}
 1315              		.cfi_def_cfa_offset 8
 1316              		.cfi_offset 7, -8
 1317              		.cfi_offset 14, -4
 1318              		.pad #8
 1319 0002 82B0     		sub	sp, sp, #8
 1320              		.cfi_def_cfa_offset 16
 1321              		.setfp r7, sp, #0
 1322 0004 00AF     		add	r7, sp, #0
 1323              		.cfi_def_cfa_register 7
 1324 0006 7860     		str	r0, [r7, #4]
 1325 0008 3960     		str	r1, [r7]
 263:core/WString.cpp **** 	return concat(s.buffer, s.len);
 1326              		.loc 1 263 0
 1327 000a 3B68     		ldr	r3, [r7]
 1328 000c 1A68     		ldr	r2, [r3]
 1329 000e 3B68     		ldr	r3, [r7]
 1330 0010 9B68     		ldr	r3, [r3, #8]
 1331 0012 7868     		ldr	r0, [r7, #4]
 1332 0014 1146     		mov	r1, r2
 1333 0016 1A46     		mov	r2, r3
ARM GAS  C:\Users\Bruger\AppData\Local\Temp\ccjLt6bf.s 			page 29


 1334 0018 FFF7FEFF 		bl	_ZN6String6concatEPKcj
 1335 001c 0346     		mov	r3, r0
 264:core/WString.cpp **** }
 1336              		.loc 1 264 0
 1337 001e 1846     		mov	r0, r3
 1338 0020 0837     		adds	r7, r7, #8
 1339              		.cfi_def_cfa_offset 8
 1340 0022 BD46     		mov	sp, r7
 1341              		.cfi_def_cfa_register 13
 1342              		@ sp needed
 1343 0024 80BD     		pop	{r7, pc}
 1344              		.cfi_endproc
 1345              	.LFE96:
 1346              		.fnend
 1347              		.size	_ZN6String6concatERKS_, .-_ZN6String6concatERKS_
 1348 0026 00BF     		.section	.text._ZN6String6concatEPKcj,"ax",%progbits
 1349              		.align	2
 1350              		.global	_ZN6String6concatEPKcj
 1351              		.thumb
 1352              		.thumb_func
 1353              		.type	_ZN6String6concatEPKcj, %function
 1354              	_ZN6String6concatEPKcj:
 1355              		.fnstart
 1356              	.LFB97:
 265:core/WString.cpp **** 
 266:core/WString.cpp **** unsigned char String::concat(const char *cstr, unsigned int length)
 267:core/WString.cpp **** {
 1357              		.loc 1 267 0
 1358              		.cfi_startproc
 1359              		@ args = 0, pretend = 0, frame = 24
 1360              		@ frame_needed = 1, uses_anonymous_args = 0
 1361 0000 80B5     		push	{r7, lr}
 1362              		.cfi_def_cfa_offset 8
 1363              		.cfi_offset 7, -8
 1364              		.cfi_offset 14, -4
 1365 0002 86B0     		sub	sp, sp, #24
 1366              		.cfi_def_cfa_offset 32
 1367 0004 00AF     		add	r7, sp, #0
 1368              		.cfi_def_cfa_register 7
 1369 0006 F860     		str	r0, [r7, #12]
 1370 0008 B960     		str	r1, [r7, #8]
 1371 000a 7A60     		str	r2, [r7, #4]
 1372              	.LBB23:
 268:core/WString.cpp **** 	unsigned int newlen = len + length;
 1373              		.loc 1 268 0
 1374 000c FB68     		ldr	r3, [r7, #12]
 1375 000e 9A68     		ldr	r2, [r3, #8]
 1376 0010 7B68     		ldr	r3, [r7, #4]
 1377 0012 1344     		add	r3, r3, r2
 1378 0014 7B61     		str	r3, [r7, #20]
 269:core/WString.cpp **** 	if (!cstr) return 0;
 1379              		.loc 1 269 0
 1380 0016 BB68     		ldr	r3, [r7, #8]
 1381 0018 002B     		cmp	r3, #0
 1382 001a 01D1     		bne	.L70
 1383              		.loc 1 269 0 is_stmt 0 discriminator 1
 1384 001c 0023     		movs	r3, #0
ARM GAS  C:\Users\Bruger\AppData\Local\Temp\ccjLt6bf.s 			page 30


 1385 001e 1FE0     		b	.L71
 1386              	.L70:
 270:core/WString.cpp **** 	if (length == 0) return 1;
 1387              		.loc 1 270 0 is_stmt 1
 1388 0020 7B68     		ldr	r3, [r7, #4]
 1389 0022 002B     		cmp	r3, #0
 1390 0024 01D1     		bne	.L72
 1391              		.loc 1 270 0 is_stmt 0 discriminator 1
 1392 0026 0123     		movs	r3, #1
 1393 0028 1AE0     		b	.L71
 1394              	.L72:
 271:core/WString.cpp **** 	if (!reserve(newlen)) return 0;
 1395              		.loc 1 271 0 is_stmt 1
 1396 002a F868     		ldr	r0, [r7, #12]
 1397 002c 7969     		ldr	r1, [r7, #20]
 1398 002e FFF7FEFF 		bl	_ZN6String7reserveEj
 1399 0032 0346     		mov	r3, r0
 1400 0034 002B     		cmp	r3, #0
 1401 0036 0CBF     		ite	eq
 1402 0038 0123     		moveq	r3, #1
 1403 003a 0023     		movne	r3, #0
 1404 003c DBB2     		uxtb	r3, r3
 1405 003e 002B     		cmp	r3, #0
 1406 0040 01D0     		beq	.L73
 1407              		.loc 1 271 0 is_stmt 0 discriminator 1
 1408 0042 0023     		movs	r3, #0
 1409 0044 0CE0     		b	.L71
 1410              	.L73:
 272:core/WString.cpp **** 	strcpy(buffer + len, cstr);
 1411              		.loc 1 272 0 is_stmt 1
 1412 0046 FB68     		ldr	r3, [r7, #12]
 1413 0048 1A68     		ldr	r2, [r3]
 1414 004a FB68     		ldr	r3, [r7, #12]
 1415 004c 9B68     		ldr	r3, [r3, #8]
 1416 004e 1344     		add	r3, r3, r2
 1417 0050 1846     		mov	r0, r3
 1418 0052 B968     		ldr	r1, [r7, #8]
 1419 0054 FFF7FEFF 		bl	strcpy
 273:core/WString.cpp **** 	len = newlen;
 1420              		.loc 1 273 0
 1421 0058 FB68     		ldr	r3, [r7, #12]
 1422 005a 7A69     		ldr	r2, [r7, #20]
 1423 005c 9A60     		str	r2, [r3, #8]
 274:core/WString.cpp **** 	return 1;
 1424              		.loc 1 274 0
 1425 005e 0123     		movs	r3, #1
 1426              	.L71:
 1427              	.LBE23:
 275:core/WString.cpp **** }
 1428              		.loc 1 275 0
 1429 0060 1846     		mov	r0, r3
 1430 0062 1837     		adds	r7, r7, #24
 1431              		.cfi_def_cfa_offset 8
 1432 0064 BD46     		mov	sp, r7
 1433              		.cfi_def_cfa_register 13
 1434              		@ sp needed
 1435 0066 80BD     		pop	{r7, pc}
ARM GAS  C:\Users\Bruger\AppData\Local\Temp\ccjLt6bf.s 			page 31


 1436              		.cfi_endproc
 1437              	.LFE97:
 1438              		.cantunwind
 1439              		.fnend
 1440              		.size	_ZN6String6concatEPKcj, .-_ZN6String6concatEPKcj
 1441              		.section	.text._ZN6String6concatEPKc,"ax",%progbits
 1442              		.align	2
 1443              		.global	_ZN6String6concatEPKc
 1444              		.thumb
 1445              		.thumb_func
 1446              		.type	_ZN6String6concatEPKc, %function
 1447              	_ZN6String6concatEPKc:
 1448              		.fnstart
 1449              	.LFB98:
 276:core/WString.cpp **** 
 277:core/WString.cpp **** unsigned char String::concat(const char *cstr)
 278:core/WString.cpp **** {
 1450              		.loc 1 278 0
 1451              		.cfi_startproc
 1452              		@ args = 0, pretend = 0, frame = 8
 1453              		@ frame_needed = 1, uses_anonymous_args = 0
 1454 0000 80B5     		push	{r7, lr}
 1455              		.cfi_def_cfa_offset 8
 1456              		.cfi_offset 7, -8
 1457              		.cfi_offset 14, -4
 1458 0002 82B0     		sub	sp, sp, #8
 1459              		.cfi_def_cfa_offset 16
 1460 0004 00AF     		add	r7, sp, #0
 1461              		.cfi_def_cfa_register 7
 1462 0006 7860     		str	r0, [r7, #4]
 1463 0008 3960     		str	r1, [r7]
 279:core/WString.cpp **** 	if (!cstr) return 0;
 1464              		.loc 1 279 0
 1465 000a 3B68     		ldr	r3, [r7]
 1466 000c 002B     		cmp	r3, #0
 1467 000e 01D1     		bne	.L75
 1468              		.loc 1 279 0 is_stmt 0 discriminator 1
 1469 0010 0023     		movs	r3, #0
 1470 0012 09E0     		b	.L76
 1471              	.L75:
 280:core/WString.cpp **** 	return concat(cstr, strlen(cstr));
 1472              		.loc 1 280 0 is_stmt 1
 1473 0014 3868     		ldr	r0, [r7]
 1474 0016 FFF7FEFF 		bl	strlen
 1475 001a 0346     		mov	r3, r0
 1476 001c 7868     		ldr	r0, [r7, #4]
 1477 001e 3968     		ldr	r1, [r7]
 1478 0020 1A46     		mov	r2, r3
 1479 0022 FFF7FEFF 		bl	_ZN6String6concatEPKcj
 1480 0026 0346     		mov	r3, r0
 1481              	.L76:
 281:core/WString.cpp **** }
 1482              		.loc 1 281 0
 1483 0028 1846     		mov	r0, r3
 1484 002a 0837     		adds	r7, r7, #8
 1485              		.cfi_def_cfa_offset 8
 1486 002c BD46     		mov	sp, r7
ARM GAS  C:\Users\Bruger\AppData\Local\Temp\ccjLt6bf.s 			page 32


 1487              		.cfi_def_cfa_register 13
 1488              		@ sp needed
 1489 002e 80BD     		pop	{r7, pc}
 1490              		.cfi_endproc
 1491              	.LFE98:
 1492              		.cantunwind
 1493              		.fnend
 1494              		.size	_ZN6String6concatEPKc, .-_ZN6String6concatEPKc
 1495              		.section	.text._ZN6String6concatEc,"ax",%progbits
 1496              		.align	2
 1497              		.global	_ZN6String6concatEc
 1498              		.thumb
 1499              		.thumb_func
 1500              		.type	_ZN6String6concatEc, %function
 1501              	_ZN6String6concatEc:
 1502              		.fnstart
 1503              	.LFB99:
 282:core/WString.cpp **** 
 283:core/WString.cpp **** unsigned char String::concat(char c)
 284:core/WString.cpp **** {
 1504              		.loc 1 284 0
 1505              		.cfi_startproc
 1506              		@ args = 0, pretend = 0, frame = 16
 1507              		@ frame_needed = 1, uses_anonymous_args = 0
 1508 0000 80B5     		push	{r7, lr}
 1509              		.cfi_def_cfa_offset 8
 1510              		.cfi_offset 7, -8
 1511              		.cfi_offset 14, -4
 1512 0002 84B0     		sub	sp, sp, #16
 1513              		.cfi_def_cfa_offset 24
 1514 0004 00AF     		add	r7, sp, #0
 1515              		.cfi_def_cfa_register 7
 1516 0006 7860     		str	r0, [r7, #4]
 1517 0008 0B46     		mov	r3, r1
 1518 000a FB70     		strb	r3, [r7, #3]
 1519              	.LBB24:
 285:core/WString.cpp **** 	char buf[2];
 286:core/WString.cpp **** 	buf[0] = c;
 1520              		.loc 1 286 0
 1521 000c FB78     		ldrb	r3, [r7, #3]
 1522 000e 3B73     		strb	r3, [r7, #12]
 287:core/WString.cpp **** 	buf[1] = 0;
 1523              		.loc 1 287 0
 1524 0010 0023     		movs	r3, #0
 1525 0012 7B73     		strb	r3, [r7, #13]
 288:core/WString.cpp **** 	return concat(buf, 1);
 1526              		.loc 1 288 0
 1527 0014 07F10C03 		add	r3, r7, #12
 1528 0018 7868     		ldr	r0, [r7, #4]
 1529 001a 1946     		mov	r1, r3
 1530 001c 0122     		movs	r2, #1
 1531 001e FFF7FEFF 		bl	_ZN6String6concatEPKcj
 1532 0022 0346     		mov	r3, r0
 1533              	.LBE24:
 289:core/WString.cpp **** }
 1534              		.loc 1 289 0
 1535 0024 1846     		mov	r0, r3
ARM GAS  C:\Users\Bruger\AppData\Local\Temp\ccjLt6bf.s 			page 33


 1536 0026 1037     		adds	r7, r7, #16
 1537              		.cfi_def_cfa_offset 8
 1538 0028 BD46     		mov	sp, r7
 1539              		.cfi_def_cfa_register 13
 1540              		@ sp needed
 1541 002a 80BD     		pop	{r7, pc}
 1542              		.cfi_endproc
 1543              	.LFE99:
 1544              		.cantunwind
 1545              		.fnend
 1546              		.size	_ZN6String6concatEc, .-_ZN6String6concatEc
 1547              		.section	.text._ZN6String6concatEh,"ax",%progbits
 1548              		.align	2
 1549              		.global	_ZN6String6concatEh
 1550              		.thumb
 1551              		.thumb_func
 1552              		.type	_ZN6String6concatEh, %function
 1553              	_ZN6String6concatEh:
 1554              		.fnstart
 1555              	.LFB100:
 290:core/WString.cpp **** 
 291:core/WString.cpp **** unsigned char String::concat(unsigned char num)
 292:core/WString.cpp **** {
 1556              		.loc 1 292 0
 1557              		.cfi_startproc
 1558              		@ args = 0, pretend = 0, frame = 16
 1559              		@ frame_needed = 1, uses_anonymous_args = 0
 1560 0000 80B5     		push	{r7, lr}
 1561              		.save {r7, lr}
 1562              		.cfi_def_cfa_offset 8
 1563              		.cfi_offset 7, -8
 1564              		.cfi_offset 14, -4
 1565              		.pad #16
 1566 0002 84B0     		sub	sp, sp, #16
 1567              		.cfi_def_cfa_offset 24
 1568              		.setfp r7, sp, #0
 1569 0004 00AF     		add	r7, sp, #0
 1570              		.cfi_def_cfa_register 7
 1571 0006 7860     		str	r0, [r7, #4]
 1572 0008 0B46     		mov	r3, r1
 1573 000a FB70     		strb	r3, [r7, #3]
 1574              	.LBB25:
 293:core/WString.cpp **** 	char buf[1 + 3 * sizeof(unsigned char)];
 294:core/WString.cpp **** 	itoa(num, buf, 10);
 1575              		.loc 1 294 0
 1576 000c FA78     		ldrb	r2, [r7, #3]	@ zero_extendqisi2
 1577 000e 07F10C03 		add	r3, r7, #12
 1578 0012 1046     		mov	r0, r2
 1579 0014 1946     		mov	r1, r3
 1580 0016 0A22     		movs	r2, #10
 1581 0018 FFF7FEFF 		bl	itoa
 295:core/WString.cpp **** 	return concat(buf, strlen(buf));
 1582              		.loc 1 295 0
 1583 001c 07F10C03 		add	r3, r7, #12
 1584 0020 1846     		mov	r0, r3
 1585 0022 FFF7FEFF 		bl	strlen
 1586 0026 0246     		mov	r2, r0
ARM GAS  C:\Users\Bruger\AppData\Local\Temp\ccjLt6bf.s 			page 34


 1587 0028 07F10C03 		add	r3, r7, #12
 1588 002c 7868     		ldr	r0, [r7, #4]
 1589 002e 1946     		mov	r1, r3
 1590 0030 FFF7FEFF 		bl	_ZN6String6concatEPKcj
 1591 0034 0346     		mov	r3, r0
 1592              	.LBE25:
 296:core/WString.cpp **** }
 1593              		.loc 1 296 0
 1594 0036 1846     		mov	r0, r3
 1595 0038 1037     		adds	r7, r7, #16
 1596              		.cfi_def_cfa_offset 8
 1597 003a BD46     		mov	sp, r7
 1598              		.cfi_def_cfa_register 13
 1599              		@ sp needed
 1600 003c 80BD     		pop	{r7, pc}
 1601              		.cfi_endproc
 1602              	.LFE100:
 1603              		.fnend
 1604              		.size	_ZN6String6concatEh, .-_ZN6String6concatEh
 1605 003e 00BF     		.section	.text._ZN6String6concatEi,"ax",%progbits
 1606              		.align	2
 1607              		.global	_ZN6String6concatEi
 1608              		.thumb
 1609              		.thumb_func
 1610              		.type	_ZN6String6concatEi, %function
 1611              	_ZN6String6concatEi:
 1612              		.fnstart
 1613              	.LFB101:
 297:core/WString.cpp **** 
 298:core/WString.cpp **** unsigned char String::concat(int num)
 299:core/WString.cpp **** {
 1614              		.loc 1 299 0
 1615              		.cfi_startproc
 1616              		@ args = 0, pretend = 0, frame = 24
 1617              		@ frame_needed = 1, uses_anonymous_args = 0
 1618 0000 80B5     		push	{r7, lr}
 1619              		.save {r7, lr}
 1620              		.cfi_def_cfa_offset 8
 1621              		.cfi_offset 7, -8
 1622              		.cfi_offset 14, -4
 1623              		.pad #24
 1624 0002 86B0     		sub	sp, sp, #24
 1625              		.cfi_def_cfa_offset 32
 1626              		.setfp r7, sp, #0
 1627 0004 00AF     		add	r7, sp, #0
 1628              		.cfi_def_cfa_register 7
 1629 0006 7860     		str	r0, [r7, #4]
 1630 0008 3960     		str	r1, [r7]
 1631              	.LBB26:
 300:core/WString.cpp **** 	char buf[2 + 3 * sizeof(int)];
 301:core/WString.cpp **** 	itoa(num, buf, 10);
 1632              		.loc 1 301 0
 1633 000a 07F10803 		add	r3, r7, #8
 1634 000e 3868     		ldr	r0, [r7]
 1635 0010 1946     		mov	r1, r3
 1636 0012 0A22     		movs	r2, #10
 1637 0014 FFF7FEFF 		bl	itoa
ARM GAS  C:\Users\Bruger\AppData\Local\Temp\ccjLt6bf.s 			page 35


 302:core/WString.cpp **** 	return concat(buf, strlen(buf));
 1638              		.loc 1 302 0
 1639 0018 07F10803 		add	r3, r7, #8
 1640 001c 1846     		mov	r0, r3
 1641 001e FFF7FEFF 		bl	strlen
 1642 0022 0246     		mov	r2, r0
 1643 0024 07F10803 		add	r3, r7, #8
 1644 0028 7868     		ldr	r0, [r7, #4]
 1645 002a 1946     		mov	r1, r3
 1646 002c FFF7FEFF 		bl	_ZN6String6concatEPKcj
 1647 0030 0346     		mov	r3, r0
 1648              	.LBE26:
 303:core/WString.cpp **** }
 1649              		.loc 1 303 0
 1650 0032 1846     		mov	r0, r3
 1651 0034 1837     		adds	r7, r7, #24
 1652              		.cfi_def_cfa_offset 8
 1653 0036 BD46     		mov	sp, r7
 1654              		.cfi_def_cfa_register 13
 1655              		@ sp needed
 1656 0038 80BD     		pop	{r7, pc}
 1657              		.cfi_endproc
 1658              	.LFE101:
 1659              		.fnend
 1660              		.size	_ZN6String6concatEi, .-_ZN6String6concatEi
 1661 003a 00BF     		.section	.text._ZN6String6concatEj,"ax",%progbits
 1662              		.align	2
 1663              		.global	_ZN6String6concatEj
 1664              		.thumb
 1665              		.thumb_func
 1666              		.type	_ZN6String6concatEj, %function
 1667              	_ZN6String6concatEj:
 1668              		.fnstart
 1669              	.LFB102:
 304:core/WString.cpp **** 
 305:core/WString.cpp **** unsigned char String::concat(unsigned int num)
 306:core/WString.cpp **** {
 1670              		.loc 1 306 0
 1671              		.cfi_startproc
 1672              		@ args = 0, pretend = 0, frame = 24
 1673              		@ frame_needed = 1, uses_anonymous_args = 0
 1674 0000 80B5     		push	{r7, lr}
 1675              		.save {r7, lr}
 1676              		.cfi_def_cfa_offset 8
 1677              		.cfi_offset 7, -8
 1678              		.cfi_offset 14, -4
 1679              		.pad #24
 1680 0002 86B0     		sub	sp, sp, #24
 1681              		.cfi_def_cfa_offset 32
 1682              		.setfp r7, sp, #0
 1683 0004 00AF     		add	r7, sp, #0
 1684              		.cfi_def_cfa_register 7
 1685 0006 7860     		str	r0, [r7, #4]
 1686 0008 3960     		str	r1, [r7]
 1687              	.LBB27:
 307:core/WString.cpp **** 	char buf[1 + 3 * sizeof(unsigned int)];
 308:core/WString.cpp **** 	utoa(num, buf, 10);
ARM GAS  C:\Users\Bruger\AppData\Local\Temp\ccjLt6bf.s 			page 36


 1688              		.loc 1 308 0
 1689 000a 07F10803 		add	r3, r7, #8
 1690 000e 3868     		ldr	r0, [r7]
 1691 0010 1946     		mov	r1, r3
 1692 0012 0A22     		movs	r2, #10
 1693 0014 FFF7FEFF 		bl	utoa
 309:core/WString.cpp **** 	return concat(buf, strlen(buf));
 1694              		.loc 1 309 0
 1695 0018 07F10803 		add	r3, r7, #8
 1696 001c 1846     		mov	r0, r3
 1697 001e FFF7FEFF 		bl	strlen
 1698 0022 0246     		mov	r2, r0
 1699 0024 07F10803 		add	r3, r7, #8
 1700 0028 7868     		ldr	r0, [r7, #4]
 1701 002a 1946     		mov	r1, r3
 1702 002c FFF7FEFF 		bl	_ZN6String6concatEPKcj
 1703 0030 0346     		mov	r3, r0
 1704              	.LBE27:
 310:core/WString.cpp **** }
 1705              		.loc 1 310 0
 1706 0032 1846     		mov	r0, r3
 1707 0034 1837     		adds	r7, r7, #24
 1708              		.cfi_def_cfa_offset 8
 1709 0036 BD46     		mov	sp, r7
 1710              		.cfi_def_cfa_register 13
 1711              		@ sp needed
 1712 0038 80BD     		pop	{r7, pc}
 1713              		.cfi_endproc
 1714              	.LFE102:
 1715              		.fnend
 1716              		.size	_ZN6String6concatEj, .-_ZN6String6concatEj
 1717 003a 00BF     		.section	.text._ZN6String6concatEl,"ax",%progbits
 1718              		.align	2
 1719              		.global	_ZN6String6concatEl
 1720              		.thumb
 1721              		.thumb_func
 1722              		.type	_ZN6String6concatEl, %function
 1723              	_ZN6String6concatEl:
 1724              		.fnstart
 1725              	.LFB103:
 311:core/WString.cpp **** 
 312:core/WString.cpp **** unsigned char String::concat(long num)
 313:core/WString.cpp **** {
 1726              		.loc 1 313 0
 1727              		.cfi_startproc
 1728              		@ args = 0, pretend = 0, frame = 24
 1729              		@ frame_needed = 1, uses_anonymous_args = 0
 1730 0000 80B5     		push	{r7, lr}
 1731              		.save {r7, lr}
 1732              		.cfi_def_cfa_offset 8
 1733              		.cfi_offset 7, -8
 1734              		.cfi_offset 14, -4
 1735              		.pad #24
 1736 0002 86B0     		sub	sp, sp, #24
 1737              		.cfi_def_cfa_offset 32
 1738              		.setfp r7, sp, #0
 1739 0004 00AF     		add	r7, sp, #0
ARM GAS  C:\Users\Bruger\AppData\Local\Temp\ccjLt6bf.s 			page 37


 1740              		.cfi_def_cfa_register 7
 1741 0006 7860     		str	r0, [r7, #4]
 1742 0008 3960     		str	r1, [r7]
 1743              	.LBB28:
 314:core/WString.cpp **** 	char buf[2 + 3 * sizeof(long)];
 315:core/WString.cpp **** 	ltoa(num, buf, 10);
 1744              		.loc 1 315 0
 1745 000a 07F10803 		add	r3, r7, #8
 1746 000e 3868     		ldr	r0, [r7]
 1747 0010 1946     		mov	r1, r3
 1748 0012 0A22     		movs	r2, #10
 1749 0014 FFF7FEFF 		bl	_Z4ltoalPci
 316:core/WString.cpp **** 	return concat(buf, strlen(buf));
 1750              		.loc 1 316 0
 1751 0018 07F10803 		add	r3, r7, #8
 1752 001c 1846     		mov	r0, r3
 1753 001e FFF7FEFF 		bl	strlen
 1754 0022 0246     		mov	r2, r0
 1755 0024 07F10803 		add	r3, r7, #8
 1756 0028 7868     		ldr	r0, [r7, #4]
 1757 002a 1946     		mov	r1, r3
 1758 002c FFF7FEFF 		bl	_ZN6String6concatEPKcj
 1759 0030 0346     		mov	r3, r0
 1760              	.LBE28:
 317:core/WString.cpp **** }
 1761              		.loc 1 317 0
 1762 0032 1846     		mov	r0, r3
 1763 0034 1837     		adds	r7, r7, #24
 1764              		.cfi_def_cfa_offset 8
 1765 0036 BD46     		mov	sp, r7
 1766              		.cfi_def_cfa_register 13
 1767              		@ sp needed
 1768 0038 80BD     		pop	{r7, pc}
 1769              		.cfi_endproc
 1770              	.LFE103:
 1771              		.fnend
 1772              		.size	_ZN6String6concatEl, .-_ZN6String6concatEl
 1773 003a 00BF     		.section	.text._ZN6String6concatEm,"ax",%progbits
 1774              		.align	2
 1775              		.global	_ZN6String6concatEm
 1776              		.thumb
 1777              		.thumb_func
 1778              		.type	_ZN6String6concatEm, %function
 1779              	_ZN6String6concatEm:
 1780              		.fnstart
 1781              	.LFB104:
 318:core/WString.cpp **** 
 319:core/WString.cpp **** unsigned char String::concat(unsigned long num)
 320:core/WString.cpp **** {
 1782              		.loc 1 320 0
 1783              		.cfi_startproc
 1784              		@ args = 0, pretend = 0, frame = 24
 1785              		@ frame_needed = 1, uses_anonymous_args = 0
 1786 0000 80B5     		push	{r7, lr}
 1787              		.save {r7, lr}
 1788              		.cfi_def_cfa_offset 8
 1789              		.cfi_offset 7, -8
ARM GAS  C:\Users\Bruger\AppData\Local\Temp\ccjLt6bf.s 			page 38


 1790              		.cfi_offset 14, -4
 1791              		.pad #24
 1792 0002 86B0     		sub	sp, sp, #24
 1793              		.cfi_def_cfa_offset 32
 1794              		.setfp r7, sp, #0
 1795 0004 00AF     		add	r7, sp, #0
 1796              		.cfi_def_cfa_register 7
 1797 0006 7860     		str	r0, [r7, #4]
 1798 0008 3960     		str	r1, [r7]
 1799              	.LBB29:
 321:core/WString.cpp **** 	char buf[1 + 3 * sizeof(unsigned long)];
 322:core/WString.cpp **** 	ultoa(num, buf, 10);
 1800              		.loc 1 322 0
 1801 000a 07F10803 		add	r3, r7, #8
 1802 000e 3868     		ldr	r0, [r7]
 1803 0010 1946     		mov	r1, r3
 1804 0012 0A22     		movs	r2, #10
 1805 0014 FFF7FEFF 		bl	_Z5ultoamPci
 323:core/WString.cpp **** 	return concat(buf, strlen(buf));
 1806              		.loc 1 323 0
 1807 0018 07F10803 		add	r3, r7, #8
 1808 001c 1846     		mov	r0, r3
 1809 001e FFF7FEFF 		bl	strlen
 1810 0022 0246     		mov	r2, r0
 1811 0024 07F10803 		add	r3, r7, #8
 1812 0028 7868     		ldr	r0, [r7, #4]
 1813 002a 1946     		mov	r1, r3
 1814 002c FFF7FEFF 		bl	_ZN6String6concatEPKcj
 1815 0030 0346     		mov	r3, r0
 1816              	.LBE29:
 324:core/WString.cpp **** }
 1817              		.loc 1 324 0
 1818 0032 1846     		mov	r0, r3
 1819 0034 1837     		adds	r7, r7, #24
 1820              		.cfi_def_cfa_offset 8
 1821 0036 BD46     		mov	sp, r7
 1822              		.cfi_def_cfa_register 13
 1823              		@ sp needed
 1824 0038 80BD     		pop	{r7, pc}
 1825              		.cfi_endproc
 1826              	.LFE104:
 1827              		.fnend
 1828              		.size	_ZN6String6concatEm, .-_ZN6String6concatEm
 1829 003a 00BF     		.section	.text._ZN6String6concatEf,"ax",%progbits
 1830              		.align	2
 1831              		.global	_ZN6String6concatEf
 1832              		.thumb
 1833              		.thumb_func
 1834              		.type	_ZN6String6concatEf, %function
 1835              	_ZN6String6concatEf:
 1836              		.fnstart
 1837              	.LFB105:
 325:core/WString.cpp **** 
 326:core/WString.cpp **** unsigned char String::concat(float num)
 327:core/WString.cpp **** {
 1838              		.loc 1 327 0
 1839              		.cfi_startproc
ARM GAS  C:\Users\Bruger\AppData\Local\Temp\ccjLt6bf.s 			page 39


 1840              		@ args = 0, pretend = 0, frame = 32
 1841              		@ frame_needed = 1, uses_anonymous_args = 0
 1842 0000 80B5     		push	{r7, lr}
 1843              		.save {r7, lr}
 1844              		.cfi_def_cfa_offset 8
 1845              		.cfi_offset 7, -8
 1846              		.cfi_offset 14, -4
 1847              		.pad #40
 1848 0002 8AB0     		sub	sp, sp, #40
 1849              		.cfi_def_cfa_offset 48
 1850              		.setfp r7, sp, #8
 1851 0004 02AF     		add	r7, sp, #8
 1852              		.cfi_def_cfa 7, 40
 1853 0006 7860     		str	r0, [r7, #4]
 1854 0008 3960     		str	r1, [r7]	@ float
 1855              	.LBB30:
 328:core/WString.cpp **** 	char buf[20];
 329:core/WString.cpp **** 	char* string = dtostrf(num, 4, 2, buf);
 1856              		.loc 1 329 0
 1857 000a 3868     		ldr	r0, [r7]	@ float
 1858 000c FFF7FEFF 		bl	__aeabi_f2d
 1859 0010 07F10803 		add	r3, r7, #8
 1860 0014 0093     		str	r3, [sp]
 1861 0016 0422     		movs	r2, #4
 1862 0018 0223     		movs	r3, #2
 1863 001a FFF7FEFF 		bl	_Z7dtostrfdahPc
 1864 001e 0346     		mov	r3, r0
 1865 0020 FB61     		str	r3, [r7, #28]
 330:core/WString.cpp **** 	return concat(string, strlen(string));
 1866              		.loc 1 330 0
 1867 0022 F869     		ldr	r0, [r7, #28]
 1868 0024 FFF7FEFF 		bl	strlen
 1869 0028 0346     		mov	r3, r0
 1870 002a 7868     		ldr	r0, [r7, #4]
 1871 002c F969     		ldr	r1, [r7, #28]
 1872 002e 1A46     		mov	r2, r3
 1873 0030 FFF7FEFF 		bl	_ZN6String6concatEPKcj
 1874 0034 0346     		mov	r3, r0
 1875              	.LBE30:
 331:core/WString.cpp **** }
 1876              		.loc 1 331 0
 1877 0036 1846     		mov	r0, r3
 1878 0038 2037     		adds	r7, r7, #32
 1879              		.cfi_def_cfa_offset 8
 1880 003a BD46     		mov	sp, r7
 1881              		.cfi_def_cfa_register 13
 1882              		@ sp needed
 1883 003c 80BD     		pop	{r7, pc}
 1884              		.cfi_endproc
 1885              	.LFE105:
 1886              		.fnend
 1887              		.size	_ZN6String6concatEf, .-_ZN6String6concatEf
 1888 003e 00BF     		.section	.text._ZN6String6concatEd,"ax",%progbits
 1889              		.align	2
 1890              		.global	_ZN6String6concatEd
 1891              		.thumb
 1892              		.thumb_func
ARM GAS  C:\Users\Bruger\AppData\Local\Temp\ccjLt6bf.s 			page 40


 1893              		.type	_ZN6String6concatEd, %function
 1894              	_ZN6String6concatEd:
 1895              		.fnstart
 1896              	.LFB106:
 332:core/WString.cpp **** 
 333:core/WString.cpp **** unsigned char String::concat(double num)
 334:core/WString.cpp **** {
 1897              		.loc 1 334 0
 1898              		.cfi_startproc
 1899              		@ args = 0, pretend = 0, frame = 40
 1900              		@ frame_needed = 1, uses_anonymous_args = 0
 1901 0000 80B5     		push	{r7, lr}
 1902              		.save {r7, lr}
 1903              		.cfi_def_cfa_offset 8
 1904              		.cfi_offset 7, -8
 1905              		.cfi_offset 14, -4
 1906              		.pad #48
 1907 0002 8CB0     		sub	sp, sp, #48
 1908              		.cfi_def_cfa_offset 56
 1909              		.setfp r7, sp, #8
 1910 0004 02AF     		add	r7, sp, #8
 1911              		.cfi_def_cfa 7, 48
 1912 0006 F860     		str	r0, [r7, #12]
 1913 0008 C7E90023 		strd	r2, [r7]
 1914              	.LBB31:
 335:core/WString.cpp **** 	char buf[20];
 336:core/WString.cpp **** 	char* string = dtostrf(num, 4, 2, buf);
 1915              		.loc 1 336 0
 1916 000c 07F11003 		add	r3, r7, #16
 1917 0010 0093     		str	r3, [sp]
 1918 0012 D7E90001 		ldrd	r0, [r7]
 1919 0016 0422     		movs	r2, #4
 1920 0018 0223     		movs	r3, #2
 1921 001a FFF7FEFF 		bl	_Z7dtostrfdahPc
 1922 001e 0346     		mov	r3, r0
 1923 0020 7B62     		str	r3, [r7, #36]
 337:core/WString.cpp **** 	return concat(string, strlen(string));
 1924              		.loc 1 337 0
 1925 0022 786A     		ldr	r0, [r7, #36]
 1926 0024 FFF7FEFF 		bl	strlen
 1927 0028 0346     		mov	r3, r0
 1928 002a F868     		ldr	r0, [r7, #12]
 1929 002c 796A     		ldr	r1, [r7, #36]
 1930 002e 1A46     		mov	r2, r3
 1931 0030 FFF7FEFF 		bl	_ZN6String6concatEPKcj
 1932 0034 0346     		mov	r3, r0
 1933              	.LBE31:
 338:core/WString.cpp **** }
 1934              		.loc 1 338 0
 1935 0036 1846     		mov	r0, r3
 1936 0038 2837     		adds	r7, r7, #40
 1937              		.cfi_def_cfa_offset 8
 1938 003a BD46     		mov	sp, r7
 1939              		.cfi_def_cfa_register 13
 1940              		@ sp needed
 1941 003c 80BD     		pop	{r7, pc}
 1942              		.cfi_endproc
ARM GAS  C:\Users\Bruger\AppData\Local\Temp\ccjLt6bf.s 			page 41


 1943              	.LFE106:
 1944              		.fnend
 1945              		.size	_ZN6String6concatEd, .-_ZN6String6concatEd
 1946 003e 00BF     		.section	.text._ZN6String6concatEPK19__FlashStringHelper,"ax",%progbits
 1947              		.align	2
 1948              		.global	_ZN6String6concatEPK19__FlashStringHelper
 1949              		.thumb
 1950              		.thumb_func
 1951              		.type	_ZN6String6concatEPK19__FlashStringHelper, %function
 1952              	_ZN6String6concatEPK19__FlashStringHelper:
 1953              		.fnstart
 1954              	.LFB107:
 339:core/WString.cpp **** 
 340:core/WString.cpp **** unsigned char String::concat(const __FlashStringHelper * str)
 341:core/WString.cpp **** {
 1955              		.loc 1 341 0
 1956              		.cfi_startproc
 1957              		@ args = 0, pretend = 0, frame = 16
 1958              		@ frame_needed = 1, uses_anonymous_args = 0
 1959 0000 80B5     		push	{r7, lr}
 1960              		.cfi_def_cfa_offset 8
 1961              		.cfi_offset 7, -8
 1962              		.cfi_offset 14, -4
 1963 0002 84B0     		sub	sp, sp, #16
 1964              		.cfi_def_cfa_offset 24
 1965 0004 00AF     		add	r7, sp, #0
 1966              		.cfi_def_cfa_register 7
 1967 0006 7860     		str	r0, [r7, #4]
 1968 0008 3960     		str	r1, [r7]
 1969              	.LBB32:
 342:core/WString.cpp **** 	if (!str) return 0;
 1970              		.loc 1 342 0
 1971 000a 3B68     		ldr	r3, [r7]
 1972 000c 002B     		cmp	r3, #0
 1973 000e 01D1     		bne	.L94
 1974              		.loc 1 342 0 is_stmt 0 discriminator 1
 1975 0010 0023     		movs	r3, #0
 1976 0012 29E0     		b	.L95
 1977              	.L94:
 343:core/WString.cpp **** 	int length = strlen_P((const char *) str);
 1978              		.loc 1 343 0 is_stmt 1
 1979 0014 3868     		ldr	r0, [r7]
 1980 0016 FFF7FEFF 		bl	strlen
 1981 001a 0346     		mov	r3, r0
 1982 001c FB60     		str	r3, [r7, #12]
 344:core/WString.cpp **** 	if (length == 0) return 1;
 1983              		.loc 1 344 0
 1984 001e FB68     		ldr	r3, [r7, #12]
 1985 0020 002B     		cmp	r3, #0
 1986 0022 01D1     		bne	.L96
 1987              		.loc 1 344 0 is_stmt 0 discriminator 1
 1988 0024 0123     		movs	r3, #1
 1989 0026 1FE0     		b	.L95
 1990              	.L96:
 345:core/WString.cpp **** 	unsigned int newlen = len + length;
 1991              		.loc 1 345 0 is_stmt 1
 1992 0028 7B68     		ldr	r3, [r7, #4]
ARM GAS  C:\Users\Bruger\AppData\Local\Temp\ccjLt6bf.s 			page 42


 1993 002a 9A68     		ldr	r2, [r3, #8]
 1994 002c FB68     		ldr	r3, [r7, #12]
 1995 002e 1344     		add	r3, r3, r2
 1996 0030 BB60     		str	r3, [r7, #8]
 346:core/WString.cpp **** 	if (!reserve(newlen)) return 0;
 1997              		.loc 1 346 0
 1998 0032 7868     		ldr	r0, [r7, #4]
 1999 0034 B968     		ldr	r1, [r7, #8]
 2000 0036 FFF7FEFF 		bl	_ZN6String7reserveEj
 2001 003a 0346     		mov	r3, r0
 2002 003c 002B     		cmp	r3, #0
 2003 003e 0CBF     		ite	eq
 2004 0040 0123     		moveq	r3, #1
 2005 0042 0023     		movne	r3, #0
 2006 0044 DBB2     		uxtb	r3, r3
 2007 0046 002B     		cmp	r3, #0
 2008 0048 01D0     		beq	.L97
 2009              		.loc 1 346 0 is_stmt 0 discriminator 1
 2010 004a 0023     		movs	r3, #0
 2011 004c 0CE0     		b	.L95
 2012              	.L97:
 347:core/WString.cpp **** 	strcpy_P(buffer + len, (const char *) str);
 2013              		.loc 1 347 0 is_stmt 1
 2014 004e 7B68     		ldr	r3, [r7, #4]
 2015 0050 1A68     		ldr	r2, [r3]
 2016 0052 7B68     		ldr	r3, [r7, #4]
 2017 0054 9B68     		ldr	r3, [r3, #8]
 2018 0056 1344     		add	r3, r3, r2
 2019 0058 1846     		mov	r0, r3
 2020 005a 3968     		ldr	r1, [r7]
 2021 005c FFF7FEFF 		bl	strcpy
 348:core/WString.cpp **** 	len = newlen;
 2022              		.loc 1 348 0
 2023 0060 7B68     		ldr	r3, [r7, #4]
 2024 0062 BA68     		ldr	r2, [r7, #8]
 2025 0064 9A60     		str	r2, [r3, #8]
 349:core/WString.cpp **** 	return 1;
 2026              		.loc 1 349 0
 2027 0066 0123     		movs	r3, #1
 2028              	.L95:
 2029              	.LBE32:
 350:core/WString.cpp **** }
 2030              		.loc 1 350 0
 2031 0068 1846     		mov	r0, r3
 2032 006a 1037     		adds	r7, r7, #16
 2033              		.cfi_def_cfa_offset 8
 2034 006c BD46     		mov	sp, r7
 2035              		.cfi_def_cfa_register 13
 2036              		@ sp needed
 2037 006e 80BD     		pop	{r7, pc}
 2038              		.cfi_endproc
 2039              	.LFE107:
 2040              		.cantunwind
 2041              		.fnend
 2042              		.size	_ZN6String6concatEPK19__FlashStringHelper, .-_ZN6String6concatEPK19__FlashStringHelper
 2043              		.section	.text._ZplRK15StringSumHelperRK6String,"ax",%progbits
 2044              		.align	2
ARM GAS  C:\Users\Bruger\AppData\Local\Temp\ccjLt6bf.s 			page 43


 2045              		.global	_ZplRK15StringSumHelperRK6String
 2046              		.thumb
 2047              		.thumb_func
 2048              		.type	_ZplRK15StringSumHelperRK6String, %function
 2049              	_ZplRK15StringSumHelperRK6String:
 2050              		.fnstart
 2051              	.LFB108:
 351:core/WString.cpp **** 
 352:core/WString.cpp **** /*********************************************/
 353:core/WString.cpp **** /*  Concatenate                              */
 354:core/WString.cpp **** /*********************************************/
 355:core/WString.cpp **** 
 356:core/WString.cpp **** StringSumHelper & operator + (const StringSumHelper &lhs, const String &rhs)
 357:core/WString.cpp **** {
 2052              		.loc 1 357 0
 2053              		.cfi_startproc
 2054              		@ args = 0, pretend = 0, frame = 16
 2055              		@ frame_needed = 1, uses_anonymous_args = 0
 2056 0000 80B5     		push	{r7, lr}
 2057              		.cfi_def_cfa_offset 8
 2058              		.cfi_offset 7, -8
 2059              		.cfi_offset 14, -4
 2060 0002 84B0     		sub	sp, sp, #16
 2061              		.cfi_def_cfa_offset 24
 2062 0004 00AF     		add	r7, sp, #0
 2063              		.cfi_def_cfa_register 7
 2064 0006 7860     		str	r0, [r7, #4]
 2065 0008 3960     		str	r1, [r7]
 2066              	.LBB33:
 358:core/WString.cpp **** 	StringSumHelper &a = const_cast<StringSumHelper&>(lhs);
 2067              		.loc 1 358 0
 2068 000a 7B68     		ldr	r3, [r7, #4]
 2069 000c FB60     		str	r3, [r7, #12]
 359:core/WString.cpp **** 	if (!a.concat(rhs.buffer, rhs.len)) a.invalidate();
 2070              		.loc 1 359 0
 2071 000e F968     		ldr	r1, [r7, #12]
 2072 0010 3B68     		ldr	r3, [r7]
 2073 0012 1A68     		ldr	r2, [r3]
 2074 0014 3B68     		ldr	r3, [r7]
 2075 0016 9B68     		ldr	r3, [r3, #8]
 2076 0018 0846     		mov	r0, r1
 2077 001a 1146     		mov	r1, r2
 2078 001c 1A46     		mov	r2, r3
 2079 001e FFF7FEFF 		bl	_ZN6String6concatEPKcj
 2080 0022 0346     		mov	r3, r0
 2081 0024 002B     		cmp	r3, #0
 2082 0026 0CBF     		ite	eq
 2083 0028 0123     		moveq	r3, #1
 2084 002a 0023     		movne	r3, #0
 2085 002c DBB2     		uxtb	r3, r3
 2086 002e 002B     		cmp	r3, #0
 2087 0030 03D0     		beq	.L99
 2088              		.loc 1 359 0 is_stmt 0 discriminator 1
 2089 0032 FB68     		ldr	r3, [r7, #12]
 2090 0034 1846     		mov	r0, r3
 2091 0036 FFF7FEFF 		bl	_ZN6String10invalidateEv
 2092              	.L99:
ARM GAS  C:\Users\Bruger\AppData\Local\Temp\ccjLt6bf.s 			page 44


 360:core/WString.cpp **** 	return a;
 2093              		.loc 1 360 0 is_stmt 1
 2094 003a FB68     		ldr	r3, [r7, #12]
 2095              	.LBE33:
 361:core/WString.cpp **** }
 2096              		.loc 1 361 0
 2097 003c 1846     		mov	r0, r3
 2098 003e 1037     		adds	r7, r7, #16
 2099              		.cfi_def_cfa_offset 8
 2100 0040 BD46     		mov	sp, r7
 2101              		.cfi_def_cfa_register 13
 2102              		@ sp needed
 2103 0042 80BD     		pop	{r7, pc}
 2104              		.cfi_endproc
 2105              	.LFE108:
 2106              		.cantunwind
 2107              		.fnend
 2108              		.size	_ZplRK15StringSumHelperRK6String, .-_ZplRK15StringSumHelperRK6String
 2109              		.section	.text._ZplRK15StringSumHelperPKc,"ax",%progbits
 2110              		.align	2
 2111              		.global	_ZplRK15StringSumHelperPKc
 2112              		.thumb
 2113              		.thumb_func
 2114              		.type	_ZplRK15StringSumHelperPKc, %function
 2115              	_ZplRK15StringSumHelperPKc:
 2116              		.fnstart
 2117              	.LFB109:
 362:core/WString.cpp **** 
 363:core/WString.cpp **** StringSumHelper & operator + (const StringSumHelper &lhs, const char *cstr)
 364:core/WString.cpp **** {
 2118              		.loc 1 364 0
 2119              		.cfi_startproc
 2120              		@ args = 0, pretend = 0, frame = 16
 2121              		@ frame_needed = 1, uses_anonymous_args = 0
 2122 0000 90B5     		push	{r4, r7, lr}
 2123              		.cfi_def_cfa_offset 12
 2124              		.cfi_offset 4, -12
 2125              		.cfi_offset 7, -8
 2126              		.cfi_offset 14, -4
 2127 0002 85B0     		sub	sp, sp, #20
 2128              		.cfi_def_cfa_offset 32
 2129 0004 00AF     		add	r7, sp, #0
 2130              		.cfi_def_cfa_register 7
 2131 0006 7860     		str	r0, [r7, #4]
 2132 0008 3960     		str	r1, [r7]
 2133              	.LBB34:
 365:core/WString.cpp **** 	StringSumHelper &a = const_cast<StringSumHelper&>(lhs);
 2134              		.loc 1 365 0
 2135 000a 7B68     		ldr	r3, [r7, #4]
 2136 000c FB60     		str	r3, [r7, #12]
 366:core/WString.cpp **** 	if (!cstr || !a.concat(cstr, strlen(cstr))) a.invalidate();
 2137              		.loc 1 366 0
 2138 000e 3B68     		ldr	r3, [r7]
 2139 0010 002B     		cmp	r3, #0
 2140 0012 0CD0     		beq	.L102
 2141              		.loc 1 366 0 is_stmt 0 discriminator 2
 2142 0014 FC68     		ldr	r4, [r7, #12]
ARM GAS  C:\Users\Bruger\AppData\Local\Temp\ccjLt6bf.s 			page 45


 2143 0016 3868     		ldr	r0, [r7]
 2144 0018 FFF7FEFF 		bl	strlen
 2145 001c 0346     		mov	r3, r0
 2146 001e 2046     		mov	r0, r4
 2147 0020 3968     		ldr	r1, [r7]
 2148 0022 1A46     		mov	r2, r3
 2149 0024 FFF7FEFF 		bl	_ZN6String6concatEPKcj
 2150 0028 0346     		mov	r3, r0
 2151 002a 002B     		cmp	r3, #0
 2152 002c 01D1     		bne	.L103
 2153              	.L102:
 2154              		.loc 1 366 0 discriminator 3
 2155 002e 0123     		movs	r3, #1
 2156 0030 00E0     		b	.L104
 2157              	.L103:
 2158              		.loc 1 366 0 discriminator 4
 2159 0032 0023     		movs	r3, #0
 2160              	.L104:
 2161              		.loc 1 366 0 discriminator 6
 2162 0034 002B     		cmp	r3, #0
 2163 0036 03D0     		beq	.L105
 2164              		.loc 1 366 0 discriminator 7
 2165 0038 FB68     		ldr	r3, [r7, #12]
 2166 003a 1846     		mov	r0, r3
 2167 003c FFF7FEFF 		bl	_ZN6String10invalidateEv
 2168              	.L105:
 367:core/WString.cpp **** 	return a;
 2169              		.loc 1 367 0 is_stmt 1
 2170 0040 FB68     		ldr	r3, [r7, #12]
 2171              	.LBE34:
 368:core/WString.cpp **** }
 2172              		.loc 1 368 0
 2173 0042 1846     		mov	r0, r3
 2174 0044 1437     		adds	r7, r7, #20
 2175              		.cfi_def_cfa_offset 12
 2176 0046 BD46     		mov	sp, r7
 2177              		.cfi_def_cfa_register 13
 2178              		@ sp needed
 2179 0048 90BD     		pop	{r4, r7, pc}
 2180              		.cfi_endproc
 2181              	.LFE109:
 2182              		.cantunwind
 2183              		.fnend
 2184              		.size	_ZplRK15StringSumHelperPKc, .-_ZplRK15StringSumHelperPKc
 2185 004a 00BF     		.section	.text._ZplRK15StringSumHelperc,"ax",%progbits
 2186              		.align	2
 2187              		.global	_ZplRK15StringSumHelperc
 2188              		.thumb
 2189              		.thumb_func
 2190              		.type	_ZplRK15StringSumHelperc, %function
 2191              	_ZplRK15StringSumHelperc:
 2192              		.fnstart
 2193              	.LFB110:
 369:core/WString.cpp **** 
 370:core/WString.cpp **** StringSumHelper & operator + (const StringSumHelper &lhs, char c)
 371:core/WString.cpp **** {
 2194              		.loc 1 371 0
ARM GAS  C:\Users\Bruger\AppData\Local\Temp\ccjLt6bf.s 			page 46


 2195              		.cfi_startproc
 2196              		@ args = 0, pretend = 0, frame = 16
 2197              		@ frame_needed = 1, uses_anonymous_args = 0
 2198 0000 80B5     		push	{r7, lr}
 2199              		.cfi_def_cfa_offset 8
 2200              		.cfi_offset 7, -8
 2201              		.cfi_offset 14, -4
 2202 0002 84B0     		sub	sp, sp, #16
 2203              		.cfi_def_cfa_offset 24
 2204 0004 00AF     		add	r7, sp, #0
 2205              		.cfi_def_cfa_register 7
 2206 0006 7860     		str	r0, [r7, #4]
 2207 0008 0B46     		mov	r3, r1
 2208 000a FB70     		strb	r3, [r7, #3]
 2209              	.LBB35:
 372:core/WString.cpp **** 	StringSumHelper &a = const_cast<StringSumHelper&>(lhs);
 2210              		.loc 1 372 0
 2211 000c 7B68     		ldr	r3, [r7, #4]
 2212 000e FB60     		str	r3, [r7, #12]
 373:core/WString.cpp **** 	if (!a.concat(c)) a.invalidate();
 2213              		.loc 1 373 0
 2214 0010 FA68     		ldr	r2, [r7, #12]
 2215 0012 FB78     		ldrb	r3, [r7, #3]	@ zero_extendqisi2
 2216 0014 1046     		mov	r0, r2
 2217 0016 1946     		mov	r1, r3
 2218 0018 FFF7FEFF 		bl	_ZN6String6concatEc
 2219 001c 0346     		mov	r3, r0
 2220 001e 002B     		cmp	r3, #0
 2221 0020 0CBF     		ite	eq
 2222 0022 0123     		moveq	r3, #1
 2223 0024 0023     		movne	r3, #0
 2224 0026 DBB2     		uxtb	r3, r3
 2225 0028 002B     		cmp	r3, #0
 2226 002a 03D0     		beq	.L108
 2227              		.loc 1 373 0 is_stmt 0 discriminator 1
 2228 002c FB68     		ldr	r3, [r7, #12]
 2229 002e 1846     		mov	r0, r3
 2230 0030 FFF7FEFF 		bl	_ZN6String10invalidateEv
 2231              	.L108:
 374:core/WString.cpp **** 	return a;
 2232              		.loc 1 374 0 is_stmt 1
 2233 0034 FB68     		ldr	r3, [r7, #12]
 2234              	.LBE35:
 375:core/WString.cpp **** }
 2235              		.loc 1 375 0
 2236 0036 1846     		mov	r0, r3
 2237 0038 1037     		adds	r7, r7, #16
 2238              		.cfi_def_cfa_offset 8
 2239 003a BD46     		mov	sp, r7
 2240              		.cfi_def_cfa_register 13
 2241              		@ sp needed
 2242 003c 80BD     		pop	{r7, pc}
 2243              		.cfi_endproc
 2244              	.LFE110:
 2245              		.cantunwind
 2246              		.fnend
 2247              		.size	_ZplRK15StringSumHelperc, .-_ZplRK15StringSumHelperc
ARM GAS  C:\Users\Bruger\AppData\Local\Temp\ccjLt6bf.s 			page 47


 2248 003e 00BF     		.section	.text._ZplRK15StringSumHelperh,"ax",%progbits
 2249              		.align	2
 2250              		.global	_ZplRK15StringSumHelperh
 2251              		.thumb
 2252              		.thumb_func
 2253              		.type	_ZplRK15StringSumHelperh, %function
 2254              	_ZplRK15StringSumHelperh:
 2255              		.fnstart
 2256              	.LFB111:
 376:core/WString.cpp **** 
 377:core/WString.cpp **** StringSumHelper & operator + (const StringSumHelper &lhs, unsigned char num)
 378:core/WString.cpp **** {
 2257              		.loc 1 378 0
 2258              		.cfi_startproc
 2259              		@ args = 0, pretend = 0, frame = 16
 2260              		@ frame_needed = 1, uses_anonymous_args = 0
 2261 0000 80B5     		push	{r7, lr}
 2262              		.save {r7, lr}
 2263              		.cfi_def_cfa_offset 8
 2264              		.cfi_offset 7, -8
 2265              		.cfi_offset 14, -4
 2266              		.pad #16
 2267 0002 84B0     		sub	sp, sp, #16
 2268              		.cfi_def_cfa_offset 24
 2269              		.setfp r7, sp, #0
 2270 0004 00AF     		add	r7, sp, #0
 2271              		.cfi_def_cfa_register 7
 2272 0006 7860     		str	r0, [r7, #4]
 2273 0008 0B46     		mov	r3, r1
 2274 000a FB70     		strb	r3, [r7, #3]
 2275              	.LBB36:
 379:core/WString.cpp **** 	StringSumHelper &a = const_cast<StringSumHelper&>(lhs);
 2276              		.loc 1 379 0
 2277 000c 7B68     		ldr	r3, [r7, #4]
 2278 000e FB60     		str	r3, [r7, #12]
 380:core/WString.cpp **** 	if (!a.concat(num)) a.invalidate();
 2279              		.loc 1 380 0
 2280 0010 FA68     		ldr	r2, [r7, #12]
 2281 0012 FB78     		ldrb	r3, [r7, #3]	@ zero_extendqisi2
 2282 0014 1046     		mov	r0, r2
 2283 0016 1946     		mov	r1, r3
 2284 0018 FFF7FEFF 		bl	_ZN6String6concatEh
 2285 001c 0346     		mov	r3, r0
 2286 001e 002B     		cmp	r3, #0
 2287 0020 0CBF     		ite	eq
 2288 0022 0123     		moveq	r3, #1
 2289 0024 0023     		movne	r3, #0
 2290 0026 DBB2     		uxtb	r3, r3
 2291 0028 002B     		cmp	r3, #0
 2292 002a 03D0     		beq	.L111
 2293              		.loc 1 380 0 is_stmt 0 discriminator 1
 2294 002c FB68     		ldr	r3, [r7, #12]
 2295 002e 1846     		mov	r0, r3
 2296 0030 FFF7FEFF 		bl	_ZN6String10invalidateEv
 2297              	.L111:
 381:core/WString.cpp **** 	return a;
 2298              		.loc 1 381 0 is_stmt 1
ARM GAS  C:\Users\Bruger\AppData\Local\Temp\ccjLt6bf.s 			page 48


 2299 0034 FB68     		ldr	r3, [r7, #12]
 2300              	.LBE36:
 382:core/WString.cpp **** }
 2301              		.loc 1 382 0
 2302 0036 1846     		mov	r0, r3
 2303 0038 1037     		adds	r7, r7, #16
 2304              		.cfi_def_cfa_offset 8
 2305 003a BD46     		mov	sp, r7
 2306              		.cfi_def_cfa_register 13
 2307              		@ sp needed
 2308 003c 80BD     		pop	{r7, pc}
 2309              		.cfi_endproc
 2310              	.LFE111:
 2311              		.fnend
 2312              		.size	_ZplRK15StringSumHelperh, .-_ZplRK15StringSumHelperh
 2313 003e 00BF     		.section	.text._ZplRK15StringSumHelperi,"ax",%progbits
 2314              		.align	2
 2315              		.global	_ZplRK15StringSumHelperi
 2316              		.thumb
 2317              		.thumb_func
 2318              		.type	_ZplRK15StringSumHelperi, %function
 2319              	_ZplRK15StringSumHelperi:
 2320              		.fnstart
 2321              	.LFB112:
 383:core/WString.cpp **** 
 384:core/WString.cpp **** StringSumHelper & operator + (const StringSumHelper &lhs, int num)
 385:core/WString.cpp **** {
 2322              		.loc 1 385 0
 2323              		.cfi_startproc
 2324              		@ args = 0, pretend = 0, frame = 16
 2325              		@ frame_needed = 1, uses_anonymous_args = 0
 2326 0000 80B5     		push	{r7, lr}
 2327              		.save {r7, lr}
 2328              		.cfi_def_cfa_offset 8
 2329              		.cfi_offset 7, -8
 2330              		.cfi_offset 14, -4
 2331              		.pad #16
 2332 0002 84B0     		sub	sp, sp, #16
 2333              		.cfi_def_cfa_offset 24
 2334              		.setfp r7, sp, #0
 2335 0004 00AF     		add	r7, sp, #0
 2336              		.cfi_def_cfa_register 7
 2337 0006 7860     		str	r0, [r7, #4]
 2338 0008 3960     		str	r1, [r7]
 2339              	.LBB37:
 386:core/WString.cpp **** 	StringSumHelper &a = const_cast<StringSumHelper&>(lhs);
 2340              		.loc 1 386 0
 2341 000a 7B68     		ldr	r3, [r7, #4]
 2342 000c FB60     		str	r3, [r7, #12]
 387:core/WString.cpp **** 	if (!a.concat(num)) a.invalidate();
 2343              		.loc 1 387 0
 2344 000e FB68     		ldr	r3, [r7, #12]
 2345 0010 1846     		mov	r0, r3
 2346 0012 3968     		ldr	r1, [r7]
 2347 0014 FFF7FEFF 		bl	_ZN6String6concatEi
 2348 0018 0346     		mov	r3, r0
 2349 001a 002B     		cmp	r3, #0
ARM GAS  C:\Users\Bruger\AppData\Local\Temp\ccjLt6bf.s 			page 49


 2350 001c 0CBF     		ite	eq
 2351 001e 0123     		moveq	r3, #1
 2352 0020 0023     		movne	r3, #0
 2353 0022 DBB2     		uxtb	r3, r3
 2354 0024 002B     		cmp	r3, #0
 2355 0026 03D0     		beq	.L114
 2356              		.loc 1 387 0 is_stmt 0 discriminator 1
 2357 0028 FB68     		ldr	r3, [r7, #12]
 2358 002a 1846     		mov	r0, r3
 2359 002c FFF7FEFF 		bl	_ZN6String10invalidateEv
 2360              	.L114:
 388:core/WString.cpp **** 	return a;
 2361              		.loc 1 388 0 is_stmt 1
 2362 0030 FB68     		ldr	r3, [r7, #12]
 2363              	.LBE37:
 389:core/WString.cpp **** }
 2364              		.loc 1 389 0
 2365 0032 1846     		mov	r0, r3
 2366 0034 1037     		adds	r7, r7, #16
 2367              		.cfi_def_cfa_offset 8
 2368 0036 BD46     		mov	sp, r7
 2369              		.cfi_def_cfa_register 13
 2370              		@ sp needed
 2371 0038 80BD     		pop	{r7, pc}
 2372              		.cfi_endproc
 2373              	.LFE112:
 2374              		.fnend
 2375              		.size	_ZplRK15StringSumHelperi, .-_ZplRK15StringSumHelperi
 2376 003a 00BF     		.section	.text._ZplRK15StringSumHelperj,"ax",%progbits
 2377              		.align	2
 2378              		.global	_ZplRK15StringSumHelperj
 2379              		.thumb
 2380              		.thumb_func
 2381              		.type	_ZplRK15StringSumHelperj, %function
 2382              	_ZplRK15StringSumHelperj:
 2383              		.fnstart
 2384              	.LFB113:
 390:core/WString.cpp **** 
 391:core/WString.cpp **** StringSumHelper & operator + (const StringSumHelper &lhs, unsigned int num)
 392:core/WString.cpp **** {
 2385              		.loc 1 392 0
 2386              		.cfi_startproc
 2387              		@ args = 0, pretend = 0, frame = 16
 2388              		@ frame_needed = 1, uses_anonymous_args = 0
 2389 0000 80B5     		push	{r7, lr}
 2390              		.save {r7, lr}
 2391              		.cfi_def_cfa_offset 8
 2392              		.cfi_offset 7, -8
 2393              		.cfi_offset 14, -4
 2394              		.pad #16
 2395 0002 84B0     		sub	sp, sp, #16
 2396              		.cfi_def_cfa_offset 24
 2397              		.setfp r7, sp, #0
 2398 0004 00AF     		add	r7, sp, #0
 2399              		.cfi_def_cfa_register 7
 2400 0006 7860     		str	r0, [r7, #4]
 2401 0008 3960     		str	r1, [r7]
ARM GAS  C:\Users\Bruger\AppData\Local\Temp\ccjLt6bf.s 			page 50


 2402              	.LBB38:
 393:core/WString.cpp **** 	StringSumHelper &a = const_cast<StringSumHelper&>(lhs);
 2403              		.loc 1 393 0
 2404 000a 7B68     		ldr	r3, [r7, #4]
 2405 000c FB60     		str	r3, [r7, #12]
 394:core/WString.cpp **** 	if (!a.concat(num)) a.invalidate();
 2406              		.loc 1 394 0
 2407 000e FB68     		ldr	r3, [r7, #12]
 2408 0010 1846     		mov	r0, r3
 2409 0012 3968     		ldr	r1, [r7]
 2410 0014 FFF7FEFF 		bl	_ZN6String6concatEj
 2411 0018 0346     		mov	r3, r0
 2412 001a 002B     		cmp	r3, #0
 2413 001c 0CBF     		ite	eq
 2414 001e 0123     		moveq	r3, #1
 2415 0020 0023     		movne	r3, #0
 2416 0022 DBB2     		uxtb	r3, r3
 2417 0024 002B     		cmp	r3, #0
 2418 0026 03D0     		beq	.L117
 2419              		.loc 1 394 0 is_stmt 0 discriminator 1
 2420 0028 FB68     		ldr	r3, [r7, #12]
 2421 002a 1846     		mov	r0, r3
 2422 002c FFF7FEFF 		bl	_ZN6String10invalidateEv
 2423              	.L117:
 395:core/WString.cpp **** 	return a;
 2424              		.loc 1 395 0 is_stmt 1
 2425 0030 FB68     		ldr	r3, [r7, #12]
 2426              	.LBE38:
 396:core/WString.cpp **** }
 2427              		.loc 1 396 0
 2428 0032 1846     		mov	r0, r3
 2429 0034 1037     		adds	r7, r7, #16
 2430              		.cfi_def_cfa_offset 8
 2431 0036 BD46     		mov	sp, r7
 2432              		.cfi_def_cfa_register 13
 2433              		@ sp needed
 2434 0038 80BD     		pop	{r7, pc}
 2435              		.cfi_endproc
 2436              	.LFE113:
 2437              		.fnend
 2438              		.size	_ZplRK15StringSumHelperj, .-_ZplRK15StringSumHelperj
 2439 003a 00BF     		.section	.text._ZplRK15StringSumHelperl,"ax",%progbits
 2440              		.align	2
 2441              		.global	_ZplRK15StringSumHelperl
 2442              		.thumb
 2443              		.thumb_func
 2444              		.type	_ZplRK15StringSumHelperl, %function
 2445              	_ZplRK15StringSumHelperl:
 2446              		.fnstart
 2447              	.LFB114:
 397:core/WString.cpp **** 
 398:core/WString.cpp **** StringSumHelper & operator + (const StringSumHelper &lhs, long num)
 399:core/WString.cpp **** {
 2448              		.loc 1 399 0
 2449              		.cfi_startproc
 2450              		@ args = 0, pretend = 0, frame = 16
 2451              		@ frame_needed = 1, uses_anonymous_args = 0
ARM GAS  C:\Users\Bruger\AppData\Local\Temp\ccjLt6bf.s 			page 51


 2452 0000 80B5     		push	{r7, lr}
 2453              		.save {r7, lr}
 2454              		.cfi_def_cfa_offset 8
 2455              		.cfi_offset 7, -8
 2456              		.cfi_offset 14, -4
 2457              		.pad #16
 2458 0002 84B0     		sub	sp, sp, #16
 2459              		.cfi_def_cfa_offset 24
 2460              		.setfp r7, sp, #0
 2461 0004 00AF     		add	r7, sp, #0
 2462              		.cfi_def_cfa_register 7
 2463 0006 7860     		str	r0, [r7, #4]
 2464 0008 3960     		str	r1, [r7]
 2465              	.LBB39:
 400:core/WString.cpp **** 	StringSumHelper &a = const_cast<StringSumHelper&>(lhs);
 2466              		.loc 1 400 0
 2467 000a 7B68     		ldr	r3, [r7, #4]
 2468 000c FB60     		str	r3, [r7, #12]
 401:core/WString.cpp **** 	if (!a.concat(num)) a.invalidate();
 2469              		.loc 1 401 0
 2470 000e FB68     		ldr	r3, [r7, #12]
 2471 0010 1846     		mov	r0, r3
 2472 0012 3968     		ldr	r1, [r7]
 2473 0014 FFF7FEFF 		bl	_ZN6String6concatEl
 2474 0018 0346     		mov	r3, r0
 2475 001a 002B     		cmp	r3, #0
 2476 001c 0CBF     		ite	eq
 2477 001e 0123     		moveq	r3, #1
 2478 0020 0023     		movne	r3, #0
 2479 0022 DBB2     		uxtb	r3, r3
 2480 0024 002B     		cmp	r3, #0
 2481 0026 03D0     		beq	.L120
 2482              		.loc 1 401 0 is_stmt 0 discriminator 1
 2483 0028 FB68     		ldr	r3, [r7, #12]
 2484 002a 1846     		mov	r0, r3
 2485 002c FFF7FEFF 		bl	_ZN6String10invalidateEv
 2486              	.L120:
 402:core/WString.cpp **** 	return a;
 2487              		.loc 1 402 0 is_stmt 1
 2488 0030 FB68     		ldr	r3, [r7, #12]
 2489              	.LBE39:
 403:core/WString.cpp **** }
 2490              		.loc 1 403 0
 2491 0032 1846     		mov	r0, r3
 2492 0034 1037     		adds	r7, r7, #16
 2493              		.cfi_def_cfa_offset 8
 2494 0036 BD46     		mov	sp, r7
 2495              		.cfi_def_cfa_register 13
 2496              		@ sp needed
 2497 0038 80BD     		pop	{r7, pc}
 2498              		.cfi_endproc
 2499              	.LFE114:
 2500              		.fnend
 2501              		.size	_ZplRK15StringSumHelperl, .-_ZplRK15StringSumHelperl
 2502 003a 00BF     		.section	.text._ZplRK15StringSumHelperm,"ax",%progbits
 2503              		.align	2
 2504              		.global	_ZplRK15StringSumHelperm
ARM GAS  C:\Users\Bruger\AppData\Local\Temp\ccjLt6bf.s 			page 52


 2505              		.thumb
 2506              		.thumb_func
 2507              		.type	_ZplRK15StringSumHelperm, %function
 2508              	_ZplRK15StringSumHelperm:
 2509              		.fnstart
 2510              	.LFB115:
 404:core/WString.cpp **** 
 405:core/WString.cpp **** StringSumHelper & operator + (const StringSumHelper &lhs, unsigned long num)
 406:core/WString.cpp **** {
 2511              		.loc 1 406 0
 2512              		.cfi_startproc
 2513              		@ args = 0, pretend = 0, frame = 16
 2514              		@ frame_needed = 1, uses_anonymous_args = 0
 2515 0000 80B5     		push	{r7, lr}
 2516              		.save {r7, lr}
 2517              		.cfi_def_cfa_offset 8
 2518              		.cfi_offset 7, -8
 2519              		.cfi_offset 14, -4
 2520              		.pad #16
 2521 0002 84B0     		sub	sp, sp, #16
 2522              		.cfi_def_cfa_offset 24
 2523              		.setfp r7, sp, #0
 2524 0004 00AF     		add	r7, sp, #0
 2525              		.cfi_def_cfa_register 7
 2526 0006 7860     		str	r0, [r7, #4]
 2527 0008 3960     		str	r1, [r7]
 2528              	.LBB40:
 407:core/WString.cpp **** 	StringSumHelper &a = const_cast<StringSumHelper&>(lhs);
 2529              		.loc 1 407 0
 2530 000a 7B68     		ldr	r3, [r7, #4]
 2531 000c FB60     		str	r3, [r7, #12]
 408:core/WString.cpp **** 	if (!a.concat(num)) a.invalidate();
 2532              		.loc 1 408 0
 2533 000e FB68     		ldr	r3, [r7, #12]
 2534 0010 1846     		mov	r0, r3
 2535 0012 3968     		ldr	r1, [r7]
 2536 0014 FFF7FEFF 		bl	_ZN6String6concatEm
 2537 0018 0346     		mov	r3, r0
 2538 001a 002B     		cmp	r3, #0
 2539 001c 0CBF     		ite	eq
 2540 001e 0123     		moveq	r3, #1
 2541 0020 0023     		movne	r3, #0
 2542 0022 DBB2     		uxtb	r3, r3
 2543 0024 002B     		cmp	r3, #0
 2544 0026 03D0     		beq	.L123
 2545              		.loc 1 408 0 is_stmt 0 discriminator 1
 2546 0028 FB68     		ldr	r3, [r7, #12]
 2547 002a 1846     		mov	r0, r3
 2548 002c FFF7FEFF 		bl	_ZN6String10invalidateEv
 2549              	.L123:
 409:core/WString.cpp **** 	return a;
 2550              		.loc 1 409 0 is_stmt 1
 2551 0030 FB68     		ldr	r3, [r7, #12]
 2552              	.LBE40:
 410:core/WString.cpp **** }
 2553              		.loc 1 410 0
 2554 0032 1846     		mov	r0, r3
ARM GAS  C:\Users\Bruger\AppData\Local\Temp\ccjLt6bf.s 			page 53


 2555 0034 1037     		adds	r7, r7, #16
 2556              		.cfi_def_cfa_offset 8
 2557 0036 BD46     		mov	sp, r7
 2558              		.cfi_def_cfa_register 13
 2559              		@ sp needed
 2560 0038 80BD     		pop	{r7, pc}
 2561              		.cfi_endproc
 2562              	.LFE115:
 2563              		.fnend
 2564              		.size	_ZplRK15StringSumHelperm, .-_ZplRK15StringSumHelperm
 2565 003a 00BF     		.section	.text._ZplRK15StringSumHelperf,"ax",%progbits
 2566              		.align	2
 2567              		.global	_ZplRK15StringSumHelperf
 2568              		.thumb
 2569              		.thumb_func
 2570              		.type	_ZplRK15StringSumHelperf, %function
 2571              	_ZplRK15StringSumHelperf:
 2572              		.fnstart
 2573              	.LFB116:
 411:core/WString.cpp **** 
 412:core/WString.cpp **** StringSumHelper & operator + (const StringSumHelper &lhs, float num)
 413:core/WString.cpp **** {
 2574              		.loc 1 413 0
 2575              		.cfi_startproc
 2576              		@ args = 0, pretend = 0, frame = 16
 2577              		@ frame_needed = 1, uses_anonymous_args = 0
 2578 0000 80B5     		push	{r7, lr}
 2579              		.save {r7, lr}
 2580              		.cfi_def_cfa_offset 8
 2581              		.cfi_offset 7, -8
 2582              		.cfi_offset 14, -4
 2583              		.pad #16
 2584 0002 84B0     		sub	sp, sp, #16
 2585              		.cfi_def_cfa_offset 24
 2586              		.setfp r7, sp, #0
 2587 0004 00AF     		add	r7, sp, #0
 2588              		.cfi_def_cfa_register 7
 2589 0006 7860     		str	r0, [r7, #4]
 2590 0008 3960     		str	r1, [r7]	@ float
 2591              	.LBB41:
 414:core/WString.cpp **** 	StringSumHelper &a = const_cast<StringSumHelper&>(lhs);
 2592              		.loc 1 414 0
 2593 000a 7B68     		ldr	r3, [r7, #4]
 2594 000c FB60     		str	r3, [r7, #12]
 415:core/WString.cpp **** 	if (!a.concat(num)) a.invalidate();
 2595              		.loc 1 415 0
 2596 000e FB68     		ldr	r3, [r7, #12]
 2597 0010 1846     		mov	r0, r3
 2598 0012 3968     		ldr	r1, [r7]	@ float
 2599 0014 FFF7FEFF 		bl	_ZN6String6concatEf
 2600 0018 0346     		mov	r3, r0
 2601 001a 002B     		cmp	r3, #0
 2602 001c 0CBF     		ite	eq
 2603 001e 0123     		moveq	r3, #1
 2604 0020 0023     		movne	r3, #0
 2605 0022 DBB2     		uxtb	r3, r3
 2606 0024 002B     		cmp	r3, #0
ARM GAS  C:\Users\Bruger\AppData\Local\Temp\ccjLt6bf.s 			page 54


 2607 0026 03D0     		beq	.L126
 2608              		.loc 1 415 0 is_stmt 0 discriminator 1
 2609 0028 FB68     		ldr	r3, [r7, #12]
 2610 002a 1846     		mov	r0, r3
 2611 002c FFF7FEFF 		bl	_ZN6String10invalidateEv
 2612              	.L126:
 416:core/WString.cpp **** 	return a;
 2613              		.loc 1 416 0 is_stmt 1
 2614 0030 FB68     		ldr	r3, [r7, #12]
 2615              	.LBE41:
 417:core/WString.cpp **** }
 2616              		.loc 1 417 0
 2617 0032 1846     		mov	r0, r3
 2618 0034 1037     		adds	r7, r7, #16
 2619              		.cfi_def_cfa_offset 8
 2620 0036 BD46     		mov	sp, r7
 2621              		.cfi_def_cfa_register 13
 2622              		@ sp needed
 2623 0038 80BD     		pop	{r7, pc}
 2624              		.cfi_endproc
 2625              	.LFE116:
 2626              		.fnend
 2627              		.size	_ZplRK15StringSumHelperf, .-_ZplRK15StringSumHelperf
 2628 003a 00BF     		.section	.text._ZplRK15StringSumHelperd,"ax",%progbits
 2629              		.align	2
 2630              		.global	_ZplRK15StringSumHelperd
 2631              		.thumb
 2632              		.thumb_func
 2633              		.type	_ZplRK15StringSumHelperd, %function
 2634              	_ZplRK15StringSumHelperd:
 2635              		.fnstart
 2636              	.LFB117:
 418:core/WString.cpp **** 
 419:core/WString.cpp **** StringSumHelper & operator + (const StringSumHelper &lhs, double num)
 420:core/WString.cpp **** {
 2637              		.loc 1 420 0
 2638              		.cfi_startproc
 2639              		@ args = 0, pretend = 0, frame = 24
 2640              		@ frame_needed = 1, uses_anonymous_args = 0
 2641 0000 80B5     		push	{r7, lr}
 2642              		.save {r7, lr}
 2643              		.cfi_def_cfa_offset 8
 2644              		.cfi_offset 7, -8
 2645              		.cfi_offset 14, -4
 2646              		.pad #24
 2647 0002 86B0     		sub	sp, sp, #24
 2648              		.cfi_def_cfa_offset 32
 2649              		.setfp r7, sp, #0
 2650 0004 00AF     		add	r7, sp, #0
 2651              		.cfi_def_cfa_register 7
 2652 0006 F860     		str	r0, [r7, #12]
 2653 0008 C7E90023 		strd	r2, [r7]
 2654              	.LBB42:
 421:core/WString.cpp **** 	StringSumHelper &a = const_cast<StringSumHelper&>(lhs);
 2655              		.loc 1 421 0
 2656 000c FB68     		ldr	r3, [r7, #12]
 2657 000e 7B61     		str	r3, [r7, #20]
ARM GAS  C:\Users\Bruger\AppData\Local\Temp\ccjLt6bf.s 			page 55


 422:core/WString.cpp **** 	if (!a.concat(num)) a.invalidate();
 2658              		.loc 1 422 0
 2659 0010 7B69     		ldr	r3, [r7, #20]
 2660 0012 1846     		mov	r0, r3
 2661 0014 D7E90023 		ldrd	r2, [r7]
 2662 0018 FFF7FEFF 		bl	_ZN6String6concatEd
 2663 001c 0346     		mov	r3, r0
 2664 001e 002B     		cmp	r3, #0
 2665 0020 0CBF     		ite	eq
 2666 0022 0123     		moveq	r3, #1
 2667 0024 0023     		movne	r3, #0
 2668 0026 DBB2     		uxtb	r3, r3
 2669 0028 002B     		cmp	r3, #0
 2670 002a 03D0     		beq	.L129
 2671              		.loc 1 422 0 is_stmt 0 discriminator 1
 2672 002c 7B69     		ldr	r3, [r7, #20]
 2673 002e 1846     		mov	r0, r3
 2674 0030 FFF7FEFF 		bl	_ZN6String10invalidateEv
 2675              	.L129:
 423:core/WString.cpp **** 	return a;
 2676              		.loc 1 423 0 is_stmt 1
 2677 0034 7B69     		ldr	r3, [r7, #20]
 2678              	.LBE42:
 424:core/WString.cpp **** }
 2679              		.loc 1 424 0
 2680 0036 1846     		mov	r0, r3
 2681 0038 1837     		adds	r7, r7, #24
 2682              		.cfi_def_cfa_offset 8
 2683 003a BD46     		mov	sp, r7
 2684              		.cfi_def_cfa_register 13
 2685              		@ sp needed
 2686 003c 80BD     		pop	{r7, pc}
 2687              		.cfi_endproc
 2688              	.LFE117:
 2689              		.fnend
 2690              		.size	_ZplRK15StringSumHelperd, .-_ZplRK15StringSumHelperd
 2691 003e 00BF     		.section	.text._ZplRK15StringSumHelperPK19__FlashStringHelper,"ax",%progbits
 2692              		.align	2
 2693              		.global	_ZplRK15StringSumHelperPK19__FlashStringHelper
 2694              		.thumb
 2695              		.thumb_func
 2696              		.type	_ZplRK15StringSumHelperPK19__FlashStringHelper, %function
 2697              	_ZplRK15StringSumHelperPK19__FlashStringHelper:
 2698              		.fnstart
 2699              	.LFB118:
 425:core/WString.cpp **** 
 426:core/WString.cpp **** StringSumHelper & operator + (const StringSumHelper &lhs, const __FlashStringHelper *rhs)
 427:core/WString.cpp **** {
 2700              		.loc 1 427 0
 2701              		.cfi_startproc
 2702              		@ args = 0, pretend = 0, frame = 16
 2703              		@ frame_needed = 1, uses_anonymous_args = 0
 2704 0000 80B5     		push	{r7, lr}
 2705              		.cfi_def_cfa_offset 8
 2706              		.cfi_offset 7, -8
 2707              		.cfi_offset 14, -4
 2708 0002 84B0     		sub	sp, sp, #16
ARM GAS  C:\Users\Bruger\AppData\Local\Temp\ccjLt6bf.s 			page 56


 2709              		.cfi_def_cfa_offset 24
 2710 0004 00AF     		add	r7, sp, #0
 2711              		.cfi_def_cfa_register 7
 2712 0006 7860     		str	r0, [r7, #4]
 2713 0008 3960     		str	r1, [r7]
 2714              	.LBB43:
 428:core/WString.cpp **** 	StringSumHelper &a = const_cast<StringSumHelper&>(lhs);
 2715              		.loc 1 428 0
 2716 000a 7B68     		ldr	r3, [r7, #4]
 2717 000c FB60     		str	r3, [r7, #12]
 429:core/WString.cpp **** 	if (!a.concat(rhs))	a.invalidate();
 2718              		.loc 1 429 0
 2719 000e FB68     		ldr	r3, [r7, #12]
 2720 0010 1846     		mov	r0, r3
 2721 0012 3968     		ldr	r1, [r7]
 2722 0014 FFF7FEFF 		bl	_ZN6String6concatEPK19__FlashStringHelper
 2723 0018 0346     		mov	r3, r0
 2724 001a 002B     		cmp	r3, #0
 2725 001c 0CBF     		ite	eq
 2726 001e 0123     		moveq	r3, #1
 2727 0020 0023     		movne	r3, #0
 2728 0022 DBB2     		uxtb	r3, r3
 2729 0024 002B     		cmp	r3, #0
 2730 0026 03D0     		beq	.L132
 2731              		.loc 1 429 0 is_stmt 0 discriminator 1
 2732 0028 FB68     		ldr	r3, [r7, #12]
 2733 002a 1846     		mov	r0, r3
 2734 002c FFF7FEFF 		bl	_ZN6String10invalidateEv
 2735              	.L132:
 430:core/WString.cpp **** 	return a;
 2736              		.loc 1 430 0 is_stmt 1
 2737 0030 FB68     		ldr	r3, [r7, #12]
 2738              	.LBE43:
 431:core/WString.cpp **** }
 2739              		.loc 1 431 0
 2740 0032 1846     		mov	r0, r3
 2741 0034 1037     		adds	r7, r7, #16
 2742              		.cfi_def_cfa_offset 8
 2743 0036 BD46     		mov	sp, r7
 2744              		.cfi_def_cfa_register 13
 2745              		@ sp needed
 2746 0038 80BD     		pop	{r7, pc}
 2747              		.cfi_endproc
 2748              	.LFE118:
 2749              		.cantunwind
 2750              		.fnend
 2751              		.size	_ZplRK15StringSumHelperPK19__FlashStringHelper, .-_ZplRK15StringSumHelperPK19__FlashStringHe
 2752 003a 00BF     		.section	.text._ZNK6String9compareToERKS_,"ax",%progbits
 2753              		.align	2
 2754              		.global	_ZNK6String9compareToERKS_
 2755              		.thumb
 2756              		.thumb_func
 2757              		.type	_ZNK6String9compareToERKS_, %function
 2758              	_ZNK6String9compareToERKS_:
 2759              		.fnstart
 2760              	.LFB119:
 432:core/WString.cpp **** 
ARM GAS  C:\Users\Bruger\AppData\Local\Temp\ccjLt6bf.s 			page 57


 433:core/WString.cpp **** /*********************************************/
 434:core/WString.cpp **** /*  Comparison                               */
 435:core/WString.cpp **** /*********************************************/
 436:core/WString.cpp **** 
 437:core/WString.cpp **** int String::compareTo(const String &s) const
 438:core/WString.cpp **** {
 2761              		.loc 1 438 0
 2762              		.cfi_startproc
 2763              		@ args = 0, pretend = 0, frame = 8
 2764              		@ frame_needed = 1, uses_anonymous_args = 0
 2765 0000 80B5     		push	{r7, lr}
 2766              		.cfi_def_cfa_offset 8
 2767              		.cfi_offset 7, -8
 2768              		.cfi_offset 14, -4
 2769 0002 82B0     		sub	sp, sp, #8
 2770              		.cfi_def_cfa_offset 16
 2771 0004 00AF     		add	r7, sp, #0
 2772              		.cfi_def_cfa_register 7
 2773 0006 7860     		str	r0, [r7, #4]
 2774 0008 3960     		str	r1, [r7]
 439:core/WString.cpp **** 	if (!buffer || !s.buffer) {
 2775              		.loc 1 439 0
 2776 000a 7B68     		ldr	r3, [r7, #4]
 2777 000c 1B68     		ldr	r3, [r3]
 2778 000e 002B     		cmp	r3, #0
 2779 0010 03D0     		beq	.L135
 2780              		.loc 1 439 0 is_stmt 0 discriminator 1
 2781 0012 3B68     		ldr	r3, [r7]
 2782 0014 1B68     		ldr	r3, [r3]
 2783 0016 002B     		cmp	r3, #0
 2784 0018 1AD1     		bne	.L136
 2785              	.L135:
 440:core/WString.cpp **** 		if (s.buffer && s.len > 0) return 0 - *(unsigned char *)s.buffer;
 2786              		.loc 1 440 0 is_stmt 1
 2787 001a 3B68     		ldr	r3, [r7]
 2788 001c 1B68     		ldr	r3, [r3]
 2789 001e 002B     		cmp	r3, #0
 2790 0020 08D0     		beq	.L137
 2791              		.loc 1 440 0 is_stmt 0 discriminator 1
 2792 0022 3B68     		ldr	r3, [r7]
 2793 0024 9B68     		ldr	r3, [r3, #8]
 2794 0026 002B     		cmp	r3, #0
 2795 0028 04D0     		beq	.L137
 2796              		.loc 1 440 0 discriminator 2
 2797 002a 3B68     		ldr	r3, [r7]
 2798 002c 1B68     		ldr	r3, [r3]
 2799 002e 1B78     		ldrb	r3, [r3]	@ zero_extendqisi2
 2800 0030 5B42     		negs	r3, r3
 2801 0032 16E0     		b	.L138
 2802              	.L137:
 441:core/WString.cpp **** 		if (buffer && len > 0) return *(unsigned char *)buffer;
 2803              		.loc 1 441 0 is_stmt 1
 2804 0034 7B68     		ldr	r3, [r7, #4]
 2805 0036 1B68     		ldr	r3, [r3]
 2806 0038 002B     		cmp	r3, #0
 2807 003a 07D0     		beq	.L139
 2808              		.loc 1 441 0 is_stmt 0 discriminator 1
ARM GAS  C:\Users\Bruger\AppData\Local\Temp\ccjLt6bf.s 			page 58


 2809 003c 7B68     		ldr	r3, [r7, #4]
 2810 003e 9B68     		ldr	r3, [r3, #8]
 2811 0040 002B     		cmp	r3, #0
 2812 0042 03D0     		beq	.L139
 2813              		.loc 1 441 0 discriminator 2
 2814 0044 7B68     		ldr	r3, [r7, #4]
 2815 0046 1B68     		ldr	r3, [r3]
 2816 0048 1B78     		ldrb	r3, [r3]	@ zero_extendqisi2
 2817 004a 0AE0     		b	.L138
 2818              	.L139:
 442:core/WString.cpp **** 		return 0;
 2819              		.loc 1 442 0 is_stmt 1
 2820 004c 0023     		movs	r3, #0
 2821 004e 08E0     		b	.L138
 2822              	.L136:
 443:core/WString.cpp **** 	}
 444:core/WString.cpp **** 	return strcmp(buffer, s.buffer);
 2823              		.loc 1 444 0
 2824 0050 7B68     		ldr	r3, [r7, #4]
 2825 0052 1A68     		ldr	r2, [r3]
 2826 0054 3B68     		ldr	r3, [r7]
 2827 0056 1B68     		ldr	r3, [r3]
 2828 0058 1046     		mov	r0, r2
 2829 005a 1946     		mov	r1, r3
 2830 005c FFF7FEFF 		bl	strcmp
 2831 0060 0346     		mov	r3, r0
 2832              	.L138:
 445:core/WString.cpp **** }
 2833              		.loc 1 445 0
 2834 0062 1846     		mov	r0, r3
 2835 0064 0837     		adds	r7, r7, #8
 2836              		.cfi_def_cfa_offset 8
 2837 0066 BD46     		mov	sp, r7
 2838              		.cfi_def_cfa_register 13
 2839              		@ sp needed
 2840 0068 80BD     		pop	{r7, pc}
 2841              		.cfi_endproc
 2842              	.LFE119:
 2843              		.cantunwind
 2844              		.fnend
 2845              		.size	_ZNK6String9compareToERKS_, .-_ZNK6String9compareToERKS_
 2846 006a 00BF     		.section	.text._ZNK6String6equalsERKS_,"ax",%progbits
 2847              		.align	2
 2848              		.global	_ZNK6String6equalsERKS_
 2849              		.thumb
 2850              		.thumb_func
 2851              		.type	_ZNK6String6equalsERKS_, %function
 2852              	_ZNK6String6equalsERKS_:
 2853              		.fnstart
 2854              	.LFB120:
 446:core/WString.cpp **** 
 447:core/WString.cpp **** unsigned char String::equals(const String &s2) const
 448:core/WString.cpp **** {
 2855              		.loc 1 448 0
 2856              		.cfi_startproc
 2857              		@ args = 0, pretend = 0, frame = 8
 2858              		@ frame_needed = 1, uses_anonymous_args = 0
ARM GAS  C:\Users\Bruger\AppData\Local\Temp\ccjLt6bf.s 			page 59


 2859 0000 80B5     		push	{r7, lr}
 2860              		.cfi_def_cfa_offset 8
 2861              		.cfi_offset 7, -8
 2862              		.cfi_offset 14, -4
 2863 0002 82B0     		sub	sp, sp, #8
 2864              		.cfi_def_cfa_offset 16
 2865 0004 00AF     		add	r7, sp, #0
 2866              		.cfi_def_cfa_register 7
 2867 0006 7860     		str	r0, [r7, #4]
 2868 0008 3960     		str	r1, [r7]
 449:core/WString.cpp **** 	return (len == s2.len && compareTo(s2) == 0);
 2869              		.loc 1 449 0
 2870 000a 7B68     		ldr	r3, [r7, #4]
 2871 000c 9A68     		ldr	r2, [r3, #8]
 2872 000e 3B68     		ldr	r3, [r7]
 2873 0010 9B68     		ldr	r3, [r3, #8]
 2874 0012 9A42     		cmp	r2, r3
 2875 0014 08D1     		bne	.L141
 2876              		.loc 1 449 0 is_stmt 0 discriminator 1
 2877 0016 7868     		ldr	r0, [r7, #4]
 2878 0018 3968     		ldr	r1, [r7]
 2879 001a FFF7FEFF 		bl	_ZNK6String9compareToERKS_
 2880 001e 0346     		mov	r3, r0
 2881 0020 002B     		cmp	r3, #0
 2882 0022 01D1     		bne	.L141
 2883              		.loc 1 449 0 discriminator 3
 2884 0024 0123     		movs	r3, #1
 2885 0026 00E0     		b	.L142
 2886              	.L141:
 2887              		.loc 1 449 0 discriminator 4
 2888 0028 0023     		movs	r3, #0
 2889              	.L142:
 450:core/WString.cpp **** }
 2890              		.loc 1 450 0 is_stmt 1 discriminator 6
 2891 002a 1846     		mov	r0, r3
 2892 002c 0837     		adds	r7, r7, #8
 2893              		.cfi_def_cfa_offset 8
 2894 002e BD46     		mov	sp, r7
 2895              		.cfi_def_cfa_register 13
 2896              		@ sp needed
 2897 0030 80BD     		pop	{r7, pc}
 2898              		.cfi_endproc
 2899              	.LFE120:
 2900              		.cantunwind
 2901              		.fnend
 2902              		.size	_ZNK6String6equalsERKS_, .-_ZNK6String6equalsERKS_
 2903 0032 00BF     		.section	.text._ZNK6String6equalsEPKc,"ax",%progbits
 2904              		.align	2
 2905              		.global	_ZNK6String6equalsEPKc
 2906              		.thumb
 2907              		.thumb_func
 2908              		.type	_ZNK6String6equalsEPKc, %function
 2909              	_ZNK6String6equalsEPKc:
 2910              		.fnstart
 2911              	.LFB121:
 451:core/WString.cpp **** 
 452:core/WString.cpp **** unsigned char String::equals(const char *cstr) const
ARM GAS  C:\Users\Bruger\AppData\Local\Temp\ccjLt6bf.s 			page 60


 453:core/WString.cpp **** {
 2912              		.loc 1 453 0
 2913              		.cfi_startproc
 2914              		@ args = 0, pretend = 0, frame = 8
 2915              		@ frame_needed = 1, uses_anonymous_args = 0
 2916 0000 80B5     		push	{r7, lr}
 2917              		.cfi_def_cfa_offset 8
 2918              		.cfi_offset 7, -8
 2919              		.cfi_offset 14, -4
 2920 0002 82B0     		sub	sp, sp, #8
 2921              		.cfi_def_cfa_offset 16
 2922 0004 00AF     		add	r7, sp, #0
 2923              		.cfi_def_cfa_register 7
 2924 0006 7860     		str	r0, [r7, #4]
 2925 0008 3960     		str	r1, [r7]
 454:core/WString.cpp **** 	if (len == 0) return (cstr == NULL || *cstr == 0);
 2926              		.loc 1 454 0
 2927 000a 7B68     		ldr	r3, [r7, #4]
 2928 000c 9B68     		ldr	r3, [r3, #8]
 2929 000e 002B     		cmp	r3, #0
 2930 0010 0AD1     		bne	.L145
 2931              		.loc 1 454 0 is_stmt 0 discriminator 1
 2932 0012 3B68     		ldr	r3, [r7]
 2933 0014 002B     		cmp	r3, #0
 2934 0016 03D0     		beq	.L146
 2935              		.loc 1 454 0 discriminator 3
 2936 0018 3B68     		ldr	r3, [r7]
 2937 001a 1B78     		ldrb	r3, [r3]	@ zero_extendqisi2
 2938 001c 002B     		cmp	r3, #0
 2939 001e 01D1     		bne	.L147
 2940              	.L146:
 2941              		.loc 1 454 0 discriminator 4
 2942 0020 0123     		movs	r3, #1
 2943 0022 00E0     		b	.L148
 2944              	.L147:
 2945              		.loc 1 454 0 discriminator 5
 2946 0024 0023     		movs	r3, #0
 2947              	.L148:
 2948              		.loc 1 454 0 discriminator 7
 2949 0026 17E0     		b	.L149
 2950              	.L145:
 455:core/WString.cpp **** 	if (cstr == NULL) return buffer[0] == 0;
 2951              		.loc 1 455 0 is_stmt 1
 2952 0028 3B68     		ldr	r3, [r7]
 2953 002a 002B     		cmp	r3, #0
 2954 002c 08D1     		bne	.L150
 2955              		.loc 1 455 0 is_stmt 0 discriminator 1
 2956 002e 7B68     		ldr	r3, [r7, #4]
 2957 0030 1B68     		ldr	r3, [r3]
 2958 0032 1B78     		ldrb	r3, [r3]	@ zero_extendqisi2
 2959 0034 002B     		cmp	r3, #0
 2960 0036 0CBF     		ite	eq
 2961 0038 0123     		moveq	r3, #1
 2962 003a 0023     		movne	r3, #0
 2963 003c DBB2     		uxtb	r3, r3
 2964 003e 0BE0     		b	.L149
 2965              	.L150:
ARM GAS  C:\Users\Bruger\AppData\Local\Temp\ccjLt6bf.s 			page 61


 456:core/WString.cpp **** 	return strcmp(buffer, cstr) == 0;
 2966              		.loc 1 456 0 is_stmt 1
 2967 0040 7B68     		ldr	r3, [r7, #4]
 2968 0042 1B68     		ldr	r3, [r3]
 2969 0044 1846     		mov	r0, r3
 2970 0046 3968     		ldr	r1, [r7]
 2971 0048 FFF7FEFF 		bl	strcmp
 2972 004c 0346     		mov	r3, r0
 2973 004e 002B     		cmp	r3, #0
 2974 0050 0CBF     		ite	eq
 2975 0052 0123     		moveq	r3, #1
 2976 0054 0023     		movne	r3, #0
 2977 0056 DBB2     		uxtb	r3, r3
 2978              	.L149:
 457:core/WString.cpp **** }
 2979              		.loc 1 457 0
 2980 0058 1846     		mov	r0, r3
 2981 005a 0837     		adds	r7, r7, #8
 2982              		.cfi_def_cfa_offset 8
 2983 005c BD46     		mov	sp, r7
 2984              		.cfi_def_cfa_register 13
 2985              		@ sp needed
 2986 005e 80BD     		pop	{r7, pc}
 2987              		.cfi_endproc
 2988              	.LFE121:
 2989              		.cantunwind
 2990              		.fnend
 2991              		.size	_ZNK6String6equalsEPKc, .-_ZNK6String6equalsEPKc
 2992              		.section	.text._ZNK6StringltERKS_,"ax",%progbits
 2993              		.align	2
 2994              		.global	_ZNK6StringltERKS_
 2995              		.thumb
 2996              		.thumb_func
 2997              		.type	_ZNK6StringltERKS_, %function
 2998              	_ZNK6StringltERKS_:
 2999              		.fnstart
 3000              	.LFB122:
 458:core/WString.cpp **** 
 459:core/WString.cpp **** unsigned char String::operator<(const String &rhs) const
 460:core/WString.cpp **** {
 3001              		.loc 1 460 0
 3002              		.cfi_startproc
 3003              		@ args = 0, pretend = 0, frame = 8
 3004              		@ frame_needed = 1, uses_anonymous_args = 0
 3005 0000 80B5     		push	{r7, lr}
 3006              		.cfi_def_cfa_offset 8
 3007              		.cfi_offset 7, -8
 3008              		.cfi_offset 14, -4
 3009 0002 82B0     		sub	sp, sp, #8
 3010              		.cfi_def_cfa_offset 16
 3011 0004 00AF     		add	r7, sp, #0
 3012              		.cfi_def_cfa_register 7
 3013 0006 7860     		str	r0, [r7, #4]
 3014 0008 3960     		str	r1, [r7]
 461:core/WString.cpp **** 	return compareTo(rhs) < 0;
 3015              		.loc 1 461 0
 3016 000a 7868     		ldr	r0, [r7, #4]
ARM GAS  C:\Users\Bruger\AppData\Local\Temp\ccjLt6bf.s 			page 62


 3017 000c 3968     		ldr	r1, [r7]
 3018 000e FFF7FEFF 		bl	_ZNK6String9compareToERKS_
 3019 0012 0346     		mov	r3, r0
 3020 0014 DB0F     		lsrs	r3, r3, #31
 3021 0016 DBB2     		uxtb	r3, r3
 462:core/WString.cpp **** }
 3022              		.loc 1 462 0
 3023 0018 1846     		mov	r0, r3
 3024 001a 0837     		adds	r7, r7, #8
 3025              		.cfi_def_cfa_offset 8
 3026 001c BD46     		mov	sp, r7
 3027              		.cfi_def_cfa_register 13
 3028              		@ sp needed
 3029 001e 80BD     		pop	{r7, pc}
 3030              		.cfi_endproc
 3031              	.LFE122:
 3032              		.cantunwind
 3033              		.fnend
 3034              		.size	_ZNK6StringltERKS_, .-_ZNK6StringltERKS_
 3035              		.section	.text._ZNK6StringgtERKS_,"ax",%progbits
 3036              		.align	2
 3037              		.global	_ZNK6StringgtERKS_
 3038              		.thumb
 3039              		.thumb_func
 3040              		.type	_ZNK6StringgtERKS_, %function
 3041              	_ZNK6StringgtERKS_:
 3042              		.fnstart
 3043              	.LFB123:
 463:core/WString.cpp **** 
 464:core/WString.cpp **** unsigned char String::operator>(const String &rhs) const
 465:core/WString.cpp **** {
 3044              		.loc 1 465 0
 3045              		.cfi_startproc
 3046              		@ args = 0, pretend = 0, frame = 8
 3047              		@ frame_needed = 1, uses_anonymous_args = 0
 3048 0000 80B5     		push	{r7, lr}
 3049              		.cfi_def_cfa_offset 8
 3050              		.cfi_offset 7, -8
 3051              		.cfi_offset 14, -4
 3052 0002 82B0     		sub	sp, sp, #8
 3053              		.cfi_def_cfa_offset 16
 3054 0004 00AF     		add	r7, sp, #0
 3055              		.cfi_def_cfa_register 7
 3056 0006 7860     		str	r0, [r7, #4]
 3057 0008 3960     		str	r1, [r7]
 466:core/WString.cpp **** 	return compareTo(rhs) > 0;
 3058              		.loc 1 466 0
 3059 000a 7868     		ldr	r0, [r7, #4]
 3060 000c 3968     		ldr	r1, [r7]
 3061 000e FFF7FEFF 		bl	_ZNK6String9compareToERKS_
 3062 0012 0346     		mov	r3, r0
 3063 0014 002B     		cmp	r3, #0
 3064 0016 CCBF     		ite	gt
 3065 0018 0123     		movgt	r3, #1
 3066 001a 0023     		movle	r3, #0
 3067 001c DBB2     		uxtb	r3, r3
 467:core/WString.cpp **** }
ARM GAS  C:\Users\Bruger\AppData\Local\Temp\ccjLt6bf.s 			page 63


 3068              		.loc 1 467 0
 3069 001e 1846     		mov	r0, r3
 3070 0020 0837     		adds	r7, r7, #8
 3071              		.cfi_def_cfa_offset 8
 3072 0022 BD46     		mov	sp, r7
 3073              		.cfi_def_cfa_register 13
 3074              		@ sp needed
 3075 0024 80BD     		pop	{r7, pc}
 3076              		.cfi_endproc
 3077              	.LFE123:
 3078              		.cantunwind
 3079              		.fnend
 3080              		.size	_ZNK6StringgtERKS_, .-_ZNK6StringgtERKS_
 3081 0026 00BF     		.section	.text._ZNK6StringleERKS_,"ax",%progbits
 3082              		.align	2
 3083              		.global	_ZNK6StringleERKS_
 3084              		.thumb
 3085              		.thumb_func
 3086              		.type	_ZNK6StringleERKS_, %function
 3087              	_ZNK6StringleERKS_:
 3088              		.fnstart
 3089              	.LFB124:
 468:core/WString.cpp **** 
 469:core/WString.cpp **** unsigned char String::operator<=(const String &rhs) const
 470:core/WString.cpp **** {
 3090              		.loc 1 470 0
 3091              		.cfi_startproc
 3092              		@ args = 0, pretend = 0, frame = 8
 3093              		@ frame_needed = 1, uses_anonymous_args = 0
 3094 0000 80B5     		push	{r7, lr}
 3095              		.cfi_def_cfa_offset 8
 3096              		.cfi_offset 7, -8
 3097              		.cfi_offset 14, -4
 3098 0002 82B0     		sub	sp, sp, #8
 3099              		.cfi_def_cfa_offset 16
 3100 0004 00AF     		add	r7, sp, #0
 3101              		.cfi_def_cfa_register 7
 3102 0006 7860     		str	r0, [r7, #4]
 3103 0008 3960     		str	r1, [r7]
 471:core/WString.cpp **** 	return compareTo(rhs) <= 0;
 3104              		.loc 1 471 0
 3105 000a 7868     		ldr	r0, [r7, #4]
 3106 000c 3968     		ldr	r1, [r7]
 3107 000e FFF7FEFF 		bl	_ZNK6String9compareToERKS_
 3108 0012 0346     		mov	r3, r0
 3109 0014 002B     		cmp	r3, #0
 3110 0016 D4BF     		ite	le
 3111 0018 0123     		movle	r3, #1
 3112 001a 0023     		movgt	r3, #0
 3113 001c DBB2     		uxtb	r3, r3
 472:core/WString.cpp **** }
 3114              		.loc 1 472 0
 3115 001e 1846     		mov	r0, r3
 3116 0020 0837     		adds	r7, r7, #8
 3117              		.cfi_def_cfa_offset 8
 3118 0022 BD46     		mov	sp, r7
 3119              		.cfi_def_cfa_register 13
ARM GAS  C:\Users\Bruger\AppData\Local\Temp\ccjLt6bf.s 			page 64


 3120              		@ sp needed
 3121 0024 80BD     		pop	{r7, pc}
 3122              		.cfi_endproc
 3123              	.LFE124:
 3124              		.cantunwind
 3125              		.fnend
 3126              		.size	_ZNK6StringleERKS_, .-_ZNK6StringleERKS_
 3127 0026 00BF     		.section	.text._ZNK6StringgeERKS_,"ax",%progbits
 3128              		.align	2
 3129              		.global	_ZNK6StringgeERKS_
 3130              		.thumb
 3131              		.thumb_func
 3132              		.type	_ZNK6StringgeERKS_, %function
 3133              	_ZNK6StringgeERKS_:
 3134              		.fnstart
 3135              	.LFB125:
 473:core/WString.cpp **** 
 474:core/WString.cpp **** unsigned char String::operator>=(const String &rhs) const
 475:core/WString.cpp **** {
 3136              		.loc 1 475 0
 3137              		.cfi_startproc
 3138              		@ args = 0, pretend = 0, frame = 8
 3139              		@ frame_needed = 1, uses_anonymous_args = 0
 3140 0000 80B5     		push	{r7, lr}
 3141              		.cfi_def_cfa_offset 8
 3142              		.cfi_offset 7, -8
 3143              		.cfi_offset 14, -4
 3144 0002 82B0     		sub	sp, sp, #8
 3145              		.cfi_def_cfa_offset 16
 3146 0004 00AF     		add	r7, sp, #0
 3147              		.cfi_def_cfa_register 7
 3148 0006 7860     		str	r0, [r7, #4]
 3149 0008 3960     		str	r1, [r7]
 476:core/WString.cpp **** 	return compareTo(rhs) >= 0;
 3150              		.loc 1 476 0
 3151 000a 7868     		ldr	r0, [r7, #4]
 3152 000c 3968     		ldr	r1, [r7]
 3153 000e FFF7FEFF 		bl	_ZNK6String9compareToERKS_
 3154 0012 0346     		mov	r3, r0
 3155 0014 DB43     		mvns	r3, r3
 3156 0016 DB0F     		lsrs	r3, r3, #31
 3157 0018 DBB2     		uxtb	r3, r3
 477:core/WString.cpp **** }
 3158              		.loc 1 477 0
 3159 001a 1846     		mov	r0, r3
 3160 001c 0837     		adds	r7, r7, #8
 3161              		.cfi_def_cfa_offset 8
 3162 001e BD46     		mov	sp, r7
 3163              		.cfi_def_cfa_register 13
 3164              		@ sp needed
 3165 0020 80BD     		pop	{r7, pc}
 3166              		.cfi_endproc
 3167              	.LFE125:
 3168              		.cantunwind
 3169              		.fnend
 3170              		.size	_ZNK6StringgeERKS_, .-_ZNK6StringgeERKS_
 3171 0022 00BF     		.section	.text._ZNK6String16equalsIgnoreCaseERKS_,"ax",%progbits
ARM GAS  C:\Users\Bruger\AppData\Local\Temp\ccjLt6bf.s 			page 65


 3172              		.align	2
 3173              		.global	_ZNK6String16equalsIgnoreCaseERKS_
 3174              		.thumb
 3175              		.thumb_func
 3176              		.type	_ZNK6String16equalsIgnoreCaseERKS_, %function
 3177              	_ZNK6String16equalsIgnoreCaseERKS_:
 3178              		.fnstart
 3179              	.LFB126:
 478:core/WString.cpp **** 
 479:core/WString.cpp **** unsigned char String::equalsIgnoreCase( const String &s2 ) const
 480:core/WString.cpp **** {
 3180              		.loc 1 480 0
 3181              		.cfi_startproc
 3182              		@ args = 0, pretend = 0, frame = 16
 3183              		@ frame_needed = 1, uses_anonymous_args = 0
 3184 0000 90B5     		push	{r4, r7, lr}
 3185              		.cfi_def_cfa_offset 12
 3186              		.cfi_offset 4, -12
 3187              		.cfi_offset 7, -8
 3188              		.cfi_offset 14, -4
 3189 0002 85B0     		sub	sp, sp, #20
 3190              		.cfi_def_cfa_offset 32
 3191 0004 00AF     		add	r7, sp, #0
 3192              		.cfi_def_cfa_register 7
 3193 0006 7860     		str	r0, [r7, #4]
 3194 0008 3960     		str	r1, [r7]
 3195              	.LBB44:
 481:core/WString.cpp **** 	if (this == &s2) return 1;
 3196              		.loc 1 481 0
 3197 000a 7A68     		ldr	r2, [r7, #4]
 3198 000c 3B68     		ldr	r3, [r7]
 3199 000e 9A42     		cmp	r2, r3
 3200 0010 01D1     		bne	.L160
 3201              		.loc 1 481 0 is_stmt 0 discriminator 1
 3202 0012 0123     		movs	r3, #1
 3203 0014 32E0     		b	.L161
 3204              	.L160:
 482:core/WString.cpp **** 	if (len != s2.len) return 0;
 3205              		.loc 1 482 0 is_stmt 1
 3206 0016 7B68     		ldr	r3, [r7, #4]
 3207 0018 9A68     		ldr	r2, [r3, #8]
 3208 001a 3B68     		ldr	r3, [r7]
 3209 001c 9B68     		ldr	r3, [r3, #8]
 3210 001e 9A42     		cmp	r2, r3
 3211 0020 01D0     		beq	.L162
 3212              		.loc 1 482 0 is_stmt 0 discriminator 1
 3213 0022 0023     		movs	r3, #0
 3214 0024 2AE0     		b	.L161
 3215              	.L162:
 483:core/WString.cpp **** 	if (len == 0) return 1;
 3216              		.loc 1 483 0 is_stmt 1
 3217 0026 7B68     		ldr	r3, [r7, #4]
 3218 0028 9B68     		ldr	r3, [r3, #8]
 3219 002a 002B     		cmp	r3, #0
 3220 002c 01D1     		bne	.L163
 3221              		.loc 1 483 0 is_stmt 0 discriminator 1
 3222 002e 0123     		movs	r3, #1
ARM GAS  C:\Users\Bruger\AppData\Local\Temp\ccjLt6bf.s 			page 66


 3223 0030 24E0     		b	.L161
 3224              	.L163:
 484:core/WString.cpp **** 	const char *p1 = buffer;
 3225              		.loc 1 484 0 is_stmt 1
 3226 0032 7B68     		ldr	r3, [r7, #4]
 3227 0034 1B68     		ldr	r3, [r3]
 3228 0036 FB60     		str	r3, [r7, #12]
 485:core/WString.cpp **** 	const char *p2 = s2.buffer;
 3229              		.loc 1 485 0
 3230 0038 3B68     		ldr	r3, [r7]
 3231 003a 1B68     		ldr	r3, [r3]
 3232 003c BB60     		str	r3, [r7, #8]
 486:core/WString.cpp **** 	while (*p1) {
 3233              		.loc 1 486 0
 3234 003e 18E0     		b	.L164
 3235              	.L165:
 487:core/WString.cpp **** 		if (tolower(*p1++) != tolower(*p2++)) return 0;
 3236              		.loc 1 487 0
 3237 0040 FB68     		ldr	r3, [r7, #12]
 3238 0042 5A1C     		adds	r2, r3, #1
 3239 0044 FA60     		str	r2, [r7, #12]
 3240 0046 1B78     		ldrb	r3, [r3]	@ zero_extendqisi2
 3241 0048 1846     		mov	r0, r3
 3242 004a FFF7FEFF 		bl	tolower
 3243 004e 0446     		mov	r4, r0
 3244 0050 BB68     		ldr	r3, [r7, #8]
 3245 0052 5A1C     		adds	r2, r3, #1
 3246 0054 BA60     		str	r2, [r7, #8]
 3247 0056 1B78     		ldrb	r3, [r3]	@ zero_extendqisi2
 3248 0058 1846     		mov	r0, r3
 3249 005a FFF7FEFF 		bl	tolower
 3250 005e 0346     		mov	r3, r0
 3251 0060 9C42     		cmp	r4, r3
 3252 0062 14BF     		ite	ne
 3253 0064 0123     		movne	r3, #1
 3254 0066 0023     		moveq	r3, #0
 3255 0068 DBB2     		uxtb	r3, r3
 3256 006a 002B     		cmp	r3, #0
 3257 006c 01D0     		beq	.L164
 3258              		.loc 1 487 0 is_stmt 0 discriminator 1
 3259 006e 0023     		movs	r3, #0
 3260 0070 04E0     		b	.L161
 3261              	.L164:
 486:core/WString.cpp **** 	while (*p1) {
 3262              		.loc 1 486 0 is_stmt 1
 3263 0072 FB68     		ldr	r3, [r7, #12]
 3264 0074 1B78     		ldrb	r3, [r3]	@ zero_extendqisi2
 3265 0076 002B     		cmp	r3, #0
 3266 0078 E2D1     		bne	.L165
 488:core/WString.cpp **** 	} 
 489:core/WString.cpp **** 	return 1;
 3267              		.loc 1 489 0
 3268 007a 0123     		movs	r3, #1
 3269              	.L161:
 3270              	.LBE44:
 490:core/WString.cpp **** }
 3271              		.loc 1 490 0
ARM GAS  C:\Users\Bruger\AppData\Local\Temp\ccjLt6bf.s 			page 67


 3272 007c 1846     		mov	r0, r3
 3273 007e 1437     		adds	r7, r7, #20
 3274              		.cfi_def_cfa_offset 12
 3275 0080 BD46     		mov	sp, r7
 3276              		.cfi_def_cfa_register 13
 3277              		@ sp needed
 3278 0082 90BD     		pop	{r4, r7, pc}
 3279              		.cfi_endproc
 3280              	.LFE126:
 3281              		.cantunwind
 3282              		.fnend
 3283              		.size	_ZNK6String16equalsIgnoreCaseERKS_, .-_ZNK6String16equalsIgnoreCaseERKS_
 3284              		.section	.text._ZNK6String10startsWithERKS_,"ax",%progbits
 3285              		.align	2
 3286              		.global	_ZNK6String10startsWithERKS_
 3287              		.thumb
 3288              		.thumb_func
 3289              		.type	_ZNK6String10startsWithERKS_, %function
 3290              	_ZNK6String10startsWithERKS_:
 3291              		.fnstart
 3292              	.LFB127:
 491:core/WString.cpp **** 
 492:core/WString.cpp **** unsigned char String::startsWith( const String &s2 ) const
 493:core/WString.cpp **** {
 3293              		.loc 1 493 0
 3294              		.cfi_startproc
 3295              		@ args = 0, pretend = 0, frame = 8
 3296              		@ frame_needed = 1, uses_anonymous_args = 0
 3297 0000 80B5     		push	{r7, lr}
 3298              		.cfi_def_cfa_offset 8
 3299              		.cfi_offset 7, -8
 3300              		.cfi_offset 14, -4
 3301 0002 82B0     		sub	sp, sp, #8
 3302              		.cfi_def_cfa_offset 16
 3303 0004 00AF     		add	r7, sp, #0
 3304              		.cfi_def_cfa_register 7
 3305 0006 7860     		str	r0, [r7, #4]
 3306 0008 3960     		str	r1, [r7]
 494:core/WString.cpp **** 	if (len < s2.len) return 0;
 3307              		.loc 1 494 0
 3308 000a 7B68     		ldr	r3, [r7, #4]
 3309 000c 9A68     		ldr	r2, [r3, #8]
 3310 000e 3B68     		ldr	r3, [r7]
 3311 0010 9B68     		ldr	r3, [r3, #8]
 3312 0012 9A42     		cmp	r2, r3
 3313 0014 01D2     		bcs	.L167
 3314              		.loc 1 494 0 is_stmt 0 discriminator 1
 3315 0016 0023     		movs	r3, #0
 3316 0018 05E0     		b	.L168
 3317              	.L167:
 495:core/WString.cpp **** 	return startsWith(s2, 0);
 3318              		.loc 1 495 0 is_stmt 1
 3319 001a 7868     		ldr	r0, [r7, #4]
 3320 001c 3968     		ldr	r1, [r7]
 3321 001e 0022     		movs	r2, #0
 3322 0020 FFF7FEFF 		bl	_ZNK6String10startsWithERKS_j
 3323 0024 0346     		mov	r3, r0
ARM GAS  C:\Users\Bruger\AppData\Local\Temp\ccjLt6bf.s 			page 68


 3324              	.L168:
 496:core/WString.cpp **** }
 3325              		.loc 1 496 0
 3326 0026 1846     		mov	r0, r3
 3327 0028 0837     		adds	r7, r7, #8
 3328              		.cfi_def_cfa_offset 8
 3329 002a BD46     		mov	sp, r7
 3330              		.cfi_def_cfa_register 13
 3331              		@ sp needed
 3332 002c 80BD     		pop	{r7, pc}
 3333              		.cfi_endproc
 3334              	.LFE127:
 3335              		.cantunwind
 3336              		.fnend
 3337              		.size	_ZNK6String10startsWithERKS_, .-_ZNK6String10startsWithERKS_
 3338 002e 00BF     		.section	.text._ZNK6String10startsWithERKS_j,"ax",%progbits
 3339              		.align	2
 3340              		.global	_ZNK6String10startsWithERKS_j
 3341              		.thumb
 3342              		.thumb_func
 3343              		.type	_ZNK6String10startsWithERKS_j, %function
 3344              	_ZNK6String10startsWithERKS_j:
 3345              		.fnstart
 3346              	.LFB128:
 497:core/WString.cpp **** 
 498:core/WString.cpp **** unsigned char String::startsWith( const String &s2, unsigned int offset ) const
 499:core/WString.cpp **** {
 3347              		.loc 1 499 0
 3348              		.cfi_startproc
 3349              		@ args = 0, pretend = 0, frame = 16
 3350              		@ frame_needed = 1, uses_anonymous_args = 0
 3351 0000 80B5     		push	{r7, lr}
 3352              		.cfi_def_cfa_offset 8
 3353              		.cfi_offset 7, -8
 3354              		.cfi_offset 14, -4
 3355 0002 84B0     		sub	sp, sp, #16
 3356              		.cfi_def_cfa_offset 24
 3357 0004 00AF     		add	r7, sp, #0
 3358              		.cfi_def_cfa_register 7
 3359 0006 F860     		str	r0, [r7, #12]
 3360 0008 B960     		str	r1, [r7, #8]
 3361 000a 7A60     		str	r2, [r7, #4]
 500:core/WString.cpp **** 	if (offset > len - s2.len || !buffer || !s2.buffer) return 0;
 3362              		.loc 1 500 0
 3363 000c FB68     		ldr	r3, [r7, #12]
 3364 000e 9A68     		ldr	r2, [r3, #8]
 3365 0010 BB68     		ldr	r3, [r7, #8]
 3366 0012 9B68     		ldr	r3, [r3, #8]
 3367 0014 D21A     		subs	r2, r2, r3
 3368 0016 7B68     		ldr	r3, [r7, #4]
 3369 0018 9A42     		cmp	r2, r3
 3370 001a 07D3     		bcc	.L170
 3371              		.loc 1 500 0 is_stmt 0 discriminator 2
 3372 001c FB68     		ldr	r3, [r7, #12]
 3373 001e 1B68     		ldr	r3, [r3]
 3374 0020 002B     		cmp	r3, #0
 3375 0022 03D0     		beq	.L170
ARM GAS  C:\Users\Bruger\AppData\Local\Temp\ccjLt6bf.s 			page 69


 3376              		.loc 1 500 0 discriminator 4
 3377 0024 BB68     		ldr	r3, [r7, #8]
 3378 0026 1B68     		ldr	r3, [r3]
 3379 0028 002B     		cmp	r3, #0
 3380 002a 01D1     		bne	.L171
 3381              	.L170:
 3382              		.loc 1 500 0 discriminator 5
 3383 002c 0023     		movs	r3, #0
 3384 002e 12E0     		b	.L172
 3385              	.L171:
 501:core/WString.cpp **** 	return strncmp( &buffer[offset], s2.buffer, s2.len ) == 0;
 3386              		.loc 1 501 0 is_stmt 1
 3387 0030 FB68     		ldr	r3, [r7, #12]
 3388 0032 1A68     		ldr	r2, [r3]
 3389 0034 7B68     		ldr	r3, [r7, #4]
 3390 0036 D118     		adds	r1, r2, r3
 3391 0038 BB68     		ldr	r3, [r7, #8]
 3392 003a 1A68     		ldr	r2, [r3]
 3393 003c BB68     		ldr	r3, [r7, #8]
 3394 003e 9B68     		ldr	r3, [r3, #8]
 3395 0040 0846     		mov	r0, r1
 3396 0042 1146     		mov	r1, r2
 3397 0044 1A46     		mov	r2, r3
 3398 0046 FFF7FEFF 		bl	strncmp
 3399 004a 0346     		mov	r3, r0
 3400 004c 002B     		cmp	r3, #0
 3401 004e 0CBF     		ite	eq
 3402 0050 0123     		moveq	r3, #1
 3403 0052 0023     		movne	r3, #0
 3404 0054 DBB2     		uxtb	r3, r3
 3405              	.L172:
 502:core/WString.cpp **** }
 3406              		.loc 1 502 0
 3407 0056 1846     		mov	r0, r3
 3408 0058 1037     		adds	r7, r7, #16
 3409              		.cfi_def_cfa_offset 8
 3410 005a BD46     		mov	sp, r7
 3411              		.cfi_def_cfa_register 13
 3412              		@ sp needed
 3413 005c 80BD     		pop	{r7, pc}
 3414              		.cfi_endproc
 3415              	.LFE128:
 3416              		.cantunwind
 3417              		.fnend
 3418              		.size	_ZNK6String10startsWithERKS_j, .-_ZNK6String10startsWithERKS_j
 3419 005e 00BF     		.section	.text._ZNK6String8endsWithERKS_,"ax",%progbits
 3420              		.align	2
 3421              		.global	_ZNK6String8endsWithERKS_
 3422              		.thumb
 3423              		.thumb_func
 3424              		.type	_ZNK6String8endsWithERKS_, %function
 3425              	_ZNK6String8endsWithERKS_:
 3426              		.fnstart
 3427              	.LFB129:
 503:core/WString.cpp **** 
 504:core/WString.cpp **** unsigned char String::endsWith( const String &s2 ) const
 505:core/WString.cpp **** {
ARM GAS  C:\Users\Bruger\AppData\Local\Temp\ccjLt6bf.s 			page 70


 3428              		.loc 1 505 0
 3429              		.cfi_startproc
 3430              		@ args = 0, pretend = 0, frame = 8
 3431              		@ frame_needed = 1, uses_anonymous_args = 0
 3432 0000 80B5     		push	{r7, lr}
 3433              		.cfi_def_cfa_offset 8
 3434              		.cfi_offset 7, -8
 3435              		.cfi_offset 14, -4
 3436 0002 82B0     		sub	sp, sp, #8
 3437              		.cfi_def_cfa_offset 16
 3438 0004 00AF     		add	r7, sp, #0
 3439              		.cfi_def_cfa_register 7
 3440 0006 7860     		str	r0, [r7, #4]
 3441 0008 3960     		str	r1, [r7]
 506:core/WString.cpp **** 	if ( len < s2.len || !buffer || !s2.buffer) return 0;
 3442              		.loc 1 506 0
 3443 000a 7B68     		ldr	r3, [r7, #4]
 3444 000c 9A68     		ldr	r2, [r3, #8]
 3445 000e 3B68     		ldr	r3, [r7]
 3446 0010 9B68     		ldr	r3, [r3, #8]
 3447 0012 9A42     		cmp	r2, r3
 3448 0014 07D3     		bcc	.L174
 3449              		.loc 1 506 0 is_stmt 0 discriminator 2
 3450 0016 7B68     		ldr	r3, [r7, #4]
 3451 0018 1B68     		ldr	r3, [r3]
 3452 001a 002B     		cmp	r3, #0
 3453 001c 03D0     		beq	.L174
 3454              		.loc 1 506 0 discriminator 4
 3455 001e 3B68     		ldr	r3, [r7]
 3456 0020 1B68     		ldr	r3, [r3]
 3457 0022 002B     		cmp	r3, #0
 3458 0024 01D1     		bne	.L175
 3459              	.L174:
 3460              		.loc 1 506 0 discriminator 5
 3461 0026 0023     		movs	r3, #0
 3462 0028 13E0     		b	.L176
 3463              	.L175:
 507:core/WString.cpp **** 	return strcmp(&buffer[len - s2.len], s2.buffer) == 0;
 3464              		.loc 1 507 0 is_stmt 1
 3465 002a 7B68     		ldr	r3, [r7, #4]
 3466 002c 1A68     		ldr	r2, [r3]
 3467 002e 7B68     		ldr	r3, [r7, #4]
 3468 0030 9968     		ldr	r1, [r3, #8]
 3469 0032 3B68     		ldr	r3, [r7]
 3470 0034 9B68     		ldr	r3, [r3, #8]
 3471 0036 CB1A     		subs	r3, r1, r3
 3472 0038 1A44     		add	r2, r2, r3
 3473 003a 3B68     		ldr	r3, [r7]
 3474 003c 1B68     		ldr	r3, [r3]
 3475 003e 1046     		mov	r0, r2
 3476 0040 1946     		mov	r1, r3
 3477 0042 FFF7FEFF 		bl	strcmp
 3478 0046 0346     		mov	r3, r0
 3479 0048 002B     		cmp	r3, #0
 3480 004a 0CBF     		ite	eq
 3481 004c 0123     		moveq	r3, #1
 3482 004e 0023     		movne	r3, #0
ARM GAS  C:\Users\Bruger\AppData\Local\Temp\ccjLt6bf.s 			page 71


 3483 0050 DBB2     		uxtb	r3, r3
 3484              	.L176:
 508:core/WString.cpp **** }
 3485              		.loc 1 508 0
 3486 0052 1846     		mov	r0, r3
 3487 0054 0837     		adds	r7, r7, #8
 3488              		.cfi_def_cfa_offset 8
 3489 0056 BD46     		mov	sp, r7
 3490              		.cfi_def_cfa_register 13
 3491              		@ sp needed
 3492 0058 80BD     		pop	{r7, pc}
 3493              		.cfi_endproc
 3494              	.LFE129:
 3495              		.cantunwind
 3496              		.fnend
 3497              		.size	_ZNK6String8endsWithERKS_, .-_ZNK6String8endsWithERKS_
 3498 005a 00BF     		.section	.text._ZNK6String6charAtEj,"ax",%progbits
 3499              		.align	2
 3500              		.global	_ZNK6String6charAtEj
 3501              		.thumb
 3502              		.thumb_func
 3503              		.type	_ZNK6String6charAtEj, %function
 3504              	_ZNK6String6charAtEj:
 3505              		.fnstart
 3506              	.LFB130:
 509:core/WString.cpp **** 
 510:core/WString.cpp **** /*********************************************/
 511:core/WString.cpp **** /*  Character Access                         */
 512:core/WString.cpp **** /*********************************************/
 513:core/WString.cpp **** 
 514:core/WString.cpp **** char String::charAt(unsigned int loc) const
 515:core/WString.cpp **** {
 3507              		.loc 1 515 0
 3508              		.cfi_startproc
 3509              		@ args = 0, pretend = 0, frame = 8
 3510              		@ frame_needed = 1, uses_anonymous_args = 0
 3511 0000 80B5     		push	{r7, lr}
 3512              		.cfi_def_cfa_offset 8
 3513              		.cfi_offset 7, -8
 3514              		.cfi_offset 14, -4
 3515 0002 82B0     		sub	sp, sp, #8
 3516              		.cfi_def_cfa_offset 16
 3517 0004 00AF     		add	r7, sp, #0
 3518              		.cfi_def_cfa_register 7
 3519 0006 7860     		str	r0, [r7, #4]
 3520 0008 3960     		str	r1, [r7]
 516:core/WString.cpp **** 	return operator[](loc);
 3521              		.loc 1 516 0
 3522 000a 7868     		ldr	r0, [r7, #4]
 3523 000c 3968     		ldr	r1, [r7]
 3524 000e FFF7FEFF 		bl	_ZNK6StringixEj
 3525 0012 0346     		mov	r3, r0
 517:core/WString.cpp **** }
 3526              		.loc 1 517 0
 3527 0014 1846     		mov	r0, r3
 3528 0016 0837     		adds	r7, r7, #8
 3529              		.cfi_def_cfa_offset 8
ARM GAS  C:\Users\Bruger\AppData\Local\Temp\ccjLt6bf.s 			page 72


 3530 0018 BD46     		mov	sp, r7
 3531              		.cfi_def_cfa_register 13
 3532              		@ sp needed
 3533 001a 80BD     		pop	{r7, pc}
 3534              		.cfi_endproc
 3535              	.LFE130:
 3536              		.cantunwind
 3537              		.fnend
 3538              		.size	_ZNK6String6charAtEj, .-_ZNK6String6charAtEj
 3539              		.section	.text._ZN6String9setCharAtEjc,"ax",%progbits
 3540              		.align	2
 3541              		.global	_ZN6String9setCharAtEjc
 3542              		.thumb
 3543              		.thumb_func
 3544              		.type	_ZN6String9setCharAtEjc, %function
 3545              	_ZN6String9setCharAtEjc:
 3546              		.fnstart
 3547              	.LFB131:
 518:core/WString.cpp **** 
 519:core/WString.cpp **** void String::setCharAt(unsigned int loc, char c) 
 520:core/WString.cpp **** {
 3548              		.loc 1 520 0
 3549              		.cfi_startproc
 3550              		@ args = 0, pretend = 0, frame = 16
 3551              		@ frame_needed = 1, uses_anonymous_args = 0
 3552              		@ link register save eliminated.
 3553 0000 80B4     		push	{r7}
 3554              		.cfi_def_cfa_offset 4
 3555              		.cfi_offset 7, -4
 3556 0002 85B0     		sub	sp, sp, #20
 3557              		.cfi_def_cfa_offset 24
 3558 0004 00AF     		add	r7, sp, #0
 3559              		.cfi_def_cfa_register 7
 3560 0006 F860     		str	r0, [r7, #12]
 3561 0008 B960     		str	r1, [r7, #8]
 3562 000a 1346     		mov	r3, r2
 3563 000c FB71     		strb	r3, [r7, #7]
 521:core/WString.cpp **** 	if (loc < len) buffer[loc] = c;
 3564              		.loc 1 521 0
 3565 000e FB68     		ldr	r3, [r7, #12]
 3566 0010 9A68     		ldr	r2, [r3, #8]
 3567 0012 BB68     		ldr	r3, [r7, #8]
 3568 0014 9A42     		cmp	r2, r3
 3569 0016 05D9     		bls	.L179
 3570              		.loc 1 521 0 is_stmt 0 discriminator 1
 3571 0018 FB68     		ldr	r3, [r7, #12]
 3572 001a 1A68     		ldr	r2, [r3]
 3573 001c BB68     		ldr	r3, [r7, #8]
 3574 001e 1344     		add	r3, r3, r2
 3575 0020 FA79     		ldrb	r2, [r7, #7]
 3576 0022 1A70     		strb	r2, [r3]
 3577              	.L179:
 522:core/WString.cpp **** }
 3578              		.loc 1 522 0 is_stmt 1
 3579 0024 1437     		adds	r7, r7, #20
 3580              		.cfi_def_cfa_offset 4
 3581 0026 BD46     		mov	sp, r7
ARM GAS  C:\Users\Bruger\AppData\Local\Temp\ccjLt6bf.s 			page 73


 3582              		.cfi_def_cfa_register 13
 3583              		@ sp needed
 3584 0028 5DF8047B 		ldr	r7, [sp], #4
 3585              		.cfi_restore 7
 3586              		.cfi_def_cfa_offset 0
 3587 002c 7047     		bx	lr
 3588              		.cfi_endproc
 3589              	.LFE131:
 3590              		.cantunwind
 3591              		.fnend
 3592              		.size	_ZN6String9setCharAtEjc, .-_ZN6String9setCharAtEjc
 3593 002e 00BF     		.section	.text._ZN6StringixEj,"ax",%progbits
 3594              		.align	2
 3595              		.global	_ZN6StringixEj
 3596              		.thumb
 3597              		.thumb_func
 3598              		.type	_ZN6StringixEj, %function
 3599              	_ZN6StringixEj:
 3600              		.fnstart
 3601              	.LFB132:
 523:core/WString.cpp **** 
 524:core/WString.cpp **** char & String::operator[](unsigned int index)
 525:core/WString.cpp **** {
 3602              		.loc 1 525 0
 3603              		.cfi_startproc
 3604              		@ args = 0, pretend = 0, frame = 8
 3605              		@ frame_needed = 1, uses_anonymous_args = 0
 3606              		@ link register save eliminated.
 3607 0000 80B4     		push	{r7}
 3608              		.cfi_def_cfa_offset 4
 3609              		.cfi_offset 7, -4
 3610 0002 83B0     		sub	sp, sp, #12
 3611              		.cfi_def_cfa_offset 16
 3612 0004 00AF     		add	r7, sp, #0
 3613              		.cfi_def_cfa_register 7
 3614 0006 7860     		str	r0, [r7, #4]
 3615 0008 3960     		str	r1, [r7]
 3616              	.LBB45:
 526:core/WString.cpp **** 	static char dummy_writable_char;
 527:core/WString.cpp **** 	if (index >= len || !buffer) {
 3617              		.loc 1 527 0
 3618 000a 7B68     		ldr	r3, [r7, #4]
 3619 000c 9A68     		ldr	r2, [r3, #8]
 3620 000e 3B68     		ldr	r3, [r7]
 3621 0010 9A42     		cmp	r2, r3
 3622 0012 03D9     		bls	.L182
 3623              		.loc 1 527 0 is_stmt 0 discriminator 1
 3624 0014 7B68     		ldr	r3, [r7, #4]
 3625 0016 1B68     		ldr	r3, [r3]
 3626 0018 002B     		cmp	r3, #0
 3627 001a 04D1     		bne	.L183
 3628              	.L182:
 528:core/WString.cpp **** 		dummy_writable_char = 0;
 3629              		.loc 1 528 0 is_stmt 1
 3630 001c 074B     		ldr	r3, .L185
 3631 001e 0022     		movs	r2, #0
 3632 0020 1A70     		strb	r2, [r3]
ARM GAS  C:\Users\Bruger\AppData\Local\Temp\ccjLt6bf.s 			page 74


 529:core/WString.cpp **** 		return dummy_writable_char;
 3633              		.loc 1 529 0
 3634 0022 064B     		ldr	r3, .L185
 3635 0024 03E0     		b	.L184
 3636              	.L183:
 530:core/WString.cpp **** 	}
 531:core/WString.cpp **** 	return buffer[index];
 3637              		.loc 1 531 0
 3638 0026 7B68     		ldr	r3, [r7, #4]
 3639 0028 1A68     		ldr	r2, [r3]
 3640 002a 3B68     		ldr	r3, [r7]
 3641 002c 1344     		add	r3, r3, r2
 3642              	.L184:
 3643              	.LBE45:
 532:core/WString.cpp **** }
 3644              		.loc 1 532 0
 3645 002e 1846     		mov	r0, r3
 3646 0030 0C37     		adds	r7, r7, #12
 3647              		.cfi_def_cfa_offset 4
 3648 0032 BD46     		mov	sp, r7
 3649              		.cfi_def_cfa_register 13
 3650              		@ sp needed
 3651 0034 5DF8047B 		ldr	r7, [sp], #4
 3652              		.cfi_restore 7
 3653              		.cfi_def_cfa_offset 0
 3654 0038 7047     		bx	lr
 3655              	.L186:
 3656 003a 00BF     		.align	2
 3657              	.L185:
 3658 003c 00000000 		.word	_ZZN6StringixEjE19dummy_writable_char
 3659              		.cfi_endproc
 3660              	.LFE132:
 3661              		.cantunwind
 3662              		.fnend
 3663              		.size	_ZN6StringixEj, .-_ZN6StringixEj
 3664              		.section	.text._ZNK6StringixEj,"ax",%progbits
 3665              		.align	2
 3666              		.global	_ZNK6StringixEj
 3667              		.thumb
 3668              		.thumb_func
 3669              		.type	_ZNK6StringixEj, %function
 3670              	_ZNK6StringixEj:
 3671              		.fnstart
 3672              	.LFB133:
 533:core/WString.cpp **** 
 534:core/WString.cpp **** char String::operator[]( unsigned int index ) const
 535:core/WString.cpp **** {
 3673              		.loc 1 535 0
 3674              		.cfi_startproc
 3675              		@ args = 0, pretend = 0, frame = 8
 3676              		@ frame_needed = 1, uses_anonymous_args = 0
 3677              		@ link register save eliminated.
 3678 0000 80B4     		push	{r7}
 3679              		.cfi_def_cfa_offset 4
 3680              		.cfi_offset 7, -4
 3681 0002 83B0     		sub	sp, sp, #12
 3682              		.cfi_def_cfa_offset 16
ARM GAS  C:\Users\Bruger\AppData\Local\Temp\ccjLt6bf.s 			page 75


 3683 0004 00AF     		add	r7, sp, #0
 3684              		.cfi_def_cfa_register 7
 3685 0006 7860     		str	r0, [r7, #4]
 3686 0008 3960     		str	r1, [r7]
 536:core/WString.cpp **** 	if (index >= len || !buffer) return 0;
 3687              		.loc 1 536 0
 3688 000a 7B68     		ldr	r3, [r7, #4]
 3689 000c 9A68     		ldr	r2, [r3, #8]
 3690 000e 3B68     		ldr	r3, [r7]
 3691 0010 9A42     		cmp	r2, r3
 3692 0012 03D9     		bls	.L188
 3693              		.loc 1 536 0 is_stmt 0 discriminator 2
 3694 0014 7B68     		ldr	r3, [r7, #4]
 3695 0016 1B68     		ldr	r3, [r3]
 3696 0018 002B     		cmp	r3, #0
 3697 001a 01D1     		bne	.L189
 3698              	.L188:
 3699              		.loc 1 536 0 discriminator 3
 3700 001c 0023     		movs	r3, #0
 3701 001e 04E0     		b	.L190
 3702              	.L189:
 537:core/WString.cpp **** 	return buffer[index];
 3703              		.loc 1 537 0 is_stmt 1
 3704 0020 7B68     		ldr	r3, [r7, #4]
 3705 0022 1A68     		ldr	r2, [r3]
 3706 0024 3B68     		ldr	r3, [r7]
 3707 0026 1344     		add	r3, r3, r2
 3708 0028 1B78     		ldrb	r3, [r3]	@ zero_extendqisi2
 3709              	.L190:
 538:core/WString.cpp **** }
 3710              		.loc 1 538 0
 3711 002a 1846     		mov	r0, r3
 3712 002c 0C37     		adds	r7, r7, #12
 3713              		.cfi_def_cfa_offset 4
 3714 002e BD46     		mov	sp, r7
 3715              		.cfi_def_cfa_register 13
 3716              		@ sp needed
 3717 0030 5DF8047B 		ldr	r7, [sp], #4
 3718              		.cfi_restore 7
 3719              		.cfi_def_cfa_offset 0
 3720 0034 7047     		bx	lr
 3721              		.cfi_endproc
 3722              	.LFE133:
 3723              		.cantunwind
 3724              		.fnend
 3725              		.size	_ZNK6StringixEj, .-_ZNK6StringixEj
 3726 0036 00BF     		.section	.text._ZNK6String8getBytesEPhjj,"ax",%progbits
 3727              		.align	2
 3728              		.global	_ZNK6String8getBytesEPhjj
 3729              		.thumb
 3730              		.thumb_func
 3731              		.type	_ZNK6String8getBytesEPhjj, %function
 3732              	_ZNK6String8getBytesEPhjj:
 3733              		.fnstart
 3734              	.LFB134:
 539:core/WString.cpp **** 
 540:core/WString.cpp **** void String::getBytes(unsigned char *buf, unsigned int bufsize, unsigned int index) const
ARM GAS  C:\Users\Bruger\AppData\Local\Temp\ccjLt6bf.s 			page 76


 541:core/WString.cpp **** {
 3735              		.loc 1 541 0
 3736              		.cfi_startproc
 3737              		@ args = 0, pretend = 0, frame = 24
 3738              		@ frame_needed = 1, uses_anonymous_args = 0
 3739 0000 80B5     		push	{r7, lr}
 3740              		.cfi_def_cfa_offset 8
 3741              		.cfi_offset 7, -8
 3742              		.cfi_offset 14, -4
 3743 0002 86B0     		sub	sp, sp, #24
 3744              		.cfi_def_cfa_offset 32
 3745 0004 00AF     		add	r7, sp, #0
 3746              		.cfi_def_cfa_register 7
 3747 0006 F860     		str	r0, [r7, #12]
 3748 0008 B960     		str	r1, [r7, #8]
 3749 000a 7A60     		str	r2, [r7, #4]
 3750 000c 3B60     		str	r3, [r7]
 3751              	.LBB46:
 542:core/WString.cpp **** 	if (!bufsize || !buf) return;
 3752              		.loc 1 542 0
 3753 000e 7B68     		ldr	r3, [r7, #4]
 3754 0010 002B     		cmp	r3, #0
 3755 0012 02D0     		beq	.L192
 3756              		.loc 1 542 0 is_stmt 0 discriminator 1
 3757 0014 BB68     		ldr	r3, [r7, #8]
 3758 0016 002B     		cmp	r3, #0
 3759 0018 00D1     		bne	.L193
 3760              	.L192:
 3761              		.loc 1 542 0
 3762 001a 25E0     		b	.L191
 3763              	.L193:
 543:core/WString.cpp **** 	if (index >= len) {
 3764              		.loc 1 543 0 is_stmt 1
 3765 001c FB68     		ldr	r3, [r7, #12]
 3766 001e 9A68     		ldr	r2, [r3, #8]
 3767 0020 3B68     		ldr	r3, [r7]
 3768 0022 9A42     		cmp	r2, r3
 3769 0024 03D8     		bhi	.L195
 544:core/WString.cpp **** 		buf[0] = 0;
 3770              		.loc 1 544 0
 3771 0026 BB68     		ldr	r3, [r7, #8]
 3772 0028 0022     		movs	r2, #0
 3773 002a 1A70     		strb	r2, [r3]
 545:core/WString.cpp **** 		return;
 3774              		.loc 1 545 0
 3775 002c 1CE0     		b	.L191
 3776              	.L195:
 546:core/WString.cpp **** 	}
 547:core/WString.cpp **** 	unsigned int n = bufsize - 1;
 3777              		.loc 1 547 0
 3778 002e 7B68     		ldr	r3, [r7, #4]
 3779 0030 013B     		subs	r3, r3, #1
 3780 0032 7B61     		str	r3, [r7, #20]
 548:core/WString.cpp **** 	if (n > len - index) n = len - index;
 3781              		.loc 1 548 0
 3782 0034 FB68     		ldr	r3, [r7, #12]
 3783 0036 9A68     		ldr	r2, [r3, #8]
ARM GAS  C:\Users\Bruger\AppData\Local\Temp\ccjLt6bf.s 			page 77


 3784 0038 3B68     		ldr	r3, [r7]
 3785 003a D21A     		subs	r2, r2, r3
 3786 003c 7B69     		ldr	r3, [r7, #20]
 3787 003e 9A42     		cmp	r2, r3
 3788 0040 04D2     		bcs	.L196
 3789              		.loc 1 548 0 is_stmt 0 discriminator 1
 3790 0042 FB68     		ldr	r3, [r7, #12]
 3791 0044 9A68     		ldr	r2, [r3, #8]
 3792 0046 3B68     		ldr	r3, [r7]
 3793 0048 D31A     		subs	r3, r2, r3
 3794 004a 7B61     		str	r3, [r7, #20]
 3795              	.L196:
 549:core/WString.cpp **** 	strncpy((char *)buf, buffer + index, n);
 3796              		.loc 1 549 0 is_stmt 1
 3797 004c FB68     		ldr	r3, [r7, #12]
 3798 004e 1A68     		ldr	r2, [r3]
 3799 0050 3B68     		ldr	r3, [r7]
 3800 0052 1344     		add	r3, r3, r2
 3801 0054 B868     		ldr	r0, [r7, #8]
 3802 0056 1946     		mov	r1, r3
 3803 0058 7A69     		ldr	r2, [r7, #20]
 3804 005a FFF7FEFF 		bl	strncpy
 550:core/WString.cpp **** 	buf[n] = 0;
 3805              		.loc 1 550 0
 3806 005e BA68     		ldr	r2, [r7, #8]
 3807 0060 7B69     		ldr	r3, [r7, #20]
 3808 0062 1344     		add	r3, r3, r2
 3809 0064 0022     		movs	r2, #0
 3810 0066 1A70     		strb	r2, [r3]
 3811              	.L191:
 3812              	.LBE46:
 551:core/WString.cpp **** }
 3813              		.loc 1 551 0
 3814 0068 1837     		adds	r7, r7, #24
 3815              		.cfi_def_cfa_offset 8
 3816 006a BD46     		mov	sp, r7
 3817              		.cfi_def_cfa_register 13
 3818              		@ sp needed
 3819 006c 80BD     		pop	{r7, pc}
 3820              		.cfi_endproc
 3821              	.LFE134:
 3822              		.cantunwind
 3823              		.fnend
 3824              		.size	_ZNK6String8getBytesEPhjj, .-_ZNK6String8getBytesEPhjj
 3825 006e 00BF     		.section	.text._ZNK6String7indexOfEc,"ax",%progbits
 3826              		.align	2
 3827              		.global	_ZNK6String7indexOfEc
 3828              		.thumb
 3829              		.thumb_func
 3830              		.type	_ZNK6String7indexOfEc, %function
 3831              	_ZNK6String7indexOfEc:
 3832              		.fnstart
 3833              	.LFB135:
 552:core/WString.cpp **** 
 553:core/WString.cpp **** /*********************************************/
 554:core/WString.cpp **** /*  Search                                   */
 555:core/WString.cpp **** /*********************************************/
ARM GAS  C:\Users\Bruger\AppData\Local\Temp\ccjLt6bf.s 			page 78


 556:core/WString.cpp **** 
 557:core/WString.cpp **** int String::indexOf(char c) const
 558:core/WString.cpp **** {
 3834              		.loc 1 558 0
 3835              		.cfi_startproc
 3836              		@ args = 0, pretend = 0, frame = 8
 3837              		@ frame_needed = 1, uses_anonymous_args = 0
 3838 0000 80B5     		push	{r7, lr}
 3839              		.cfi_def_cfa_offset 8
 3840              		.cfi_offset 7, -8
 3841              		.cfi_offset 14, -4
 3842 0002 82B0     		sub	sp, sp, #8
 3843              		.cfi_def_cfa_offset 16
 3844 0004 00AF     		add	r7, sp, #0
 3845              		.cfi_def_cfa_register 7
 3846 0006 7860     		str	r0, [r7, #4]
 3847 0008 0B46     		mov	r3, r1
 3848 000a FB70     		strb	r3, [r7, #3]
 559:core/WString.cpp **** 	return indexOf(c, 0);
 3849              		.loc 1 559 0
 3850 000c FB78     		ldrb	r3, [r7, #3]	@ zero_extendqisi2
 3851 000e 7868     		ldr	r0, [r7, #4]
 3852 0010 1946     		mov	r1, r3
 3853 0012 0022     		movs	r2, #0
 3854 0014 FFF7FEFF 		bl	_ZNK6String7indexOfEcj
 3855 0018 0346     		mov	r3, r0
 560:core/WString.cpp **** }
 3856              		.loc 1 560 0
 3857 001a 1846     		mov	r0, r3
 3858 001c 0837     		adds	r7, r7, #8
 3859              		.cfi_def_cfa_offset 8
 3860 001e BD46     		mov	sp, r7
 3861              		.cfi_def_cfa_register 13
 3862              		@ sp needed
 3863 0020 80BD     		pop	{r7, pc}
 3864              		.cfi_endproc
 3865              	.LFE135:
 3866              		.cantunwind
 3867              		.fnend
 3868              		.size	_ZNK6String7indexOfEc, .-_ZNK6String7indexOfEc
 3869 0022 00BF     		.section	.text._ZNK6String7indexOfEcj,"ax",%progbits
 3870              		.align	2
 3871              		.global	_ZNK6String7indexOfEcj
 3872              		.thumb
 3873              		.thumb_func
 3874              		.type	_ZNK6String7indexOfEcj, %function
 3875              	_ZNK6String7indexOfEcj:
 3876              		.fnstart
 3877              	.LFB136:
 561:core/WString.cpp **** 
 562:core/WString.cpp **** int String::indexOf( char ch, unsigned int fromIndex ) const
 563:core/WString.cpp **** {
 3878              		.loc 1 563 0
 3879              		.cfi_startproc
 3880              		@ args = 0, pretend = 0, frame = 24
 3881              		@ frame_needed = 1, uses_anonymous_args = 0
 3882 0000 80B5     		push	{r7, lr}
ARM GAS  C:\Users\Bruger\AppData\Local\Temp\ccjLt6bf.s 			page 79


 3883              		.cfi_def_cfa_offset 8
 3884              		.cfi_offset 7, -8
 3885              		.cfi_offset 14, -4
 3886 0002 86B0     		sub	sp, sp, #24
 3887              		.cfi_def_cfa_offset 32
 3888 0004 00AF     		add	r7, sp, #0
 3889              		.cfi_def_cfa_register 7
 3890 0006 F860     		str	r0, [r7, #12]
 3891 0008 0B46     		mov	r3, r1
 3892 000a 7A60     		str	r2, [r7, #4]
 3893 000c FB72     		strb	r3, [r7, #11]
 3894              	.LBB47:
 564:core/WString.cpp **** 	if (fromIndex >= len) return -1;
 3895              		.loc 1 564 0
 3896 000e FB68     		ldr	r3, [r7, #12]
 3897 0010 9A68     		ldr	r2, [r3, #8]
 3898 0012 7B68     		ldr	r3, [r7, #4]
 3899 0014 9A42     		cmp	r2, r3
 3900 0016 02D8     		bhi	.L200
 3901              		.loc 1 564 0 is_stmt 0 discriminator 1
 3902 0018 4FF0FF33 		mov	r3, #-1
 3903 001c 13E0     		b	.L201
 3904              	.L200:
 565:core/WString.cpp **** 	const char* temp = strchr(buffer + fromIndex, ch);
 3905              		.loc 1 565 0 is_stmt 1
 3906 001e FB68     		ldr	r3, [r7, #12]
 3907 0020 1A68     		ldr	r2, [r3]
 3908 0022 7B68     		ldr	r3, [r7, #4]
 3909 0024 1A44     		add	r2, r2, r3
 3910 0026 FB7A     		ldrb	r3, [r7, #11]	@ zero_extendqisi2
 3911 0028 1046     		mov	r0, r2
 3912 002a 1946     		mov	r1, r3
 3913 002c FFF7FEFF 		bl	strchr
 3914 0030 7861     		str	r0, [r7, #20]
 566:core/WString.cpp **** 	if (temp == NULL) return -1;
 3915              		.loc 1 566 0
 3916 0032 7B69     		ldr	r3, [r7, #20]
 3917 0034 002B     		cmp	r3, #0
 3918 0036 02D1     		bne	.L202
 3919              		.loc 1 566 0 is_stmt 0 discriminator 1
 3920 0038 4FF0FF33 		mov	r3, #-1
 3921 003c 03E0     		b	.L201
 3922              	.L202:
 567:core/WString.cpp **** 	return temp - buffer;
 3923              		.loc 1 567 0 is_stmt 1
 3924 003e 7B69     		ldr	r3, [r7, #20]
 3925 0040 FA68     		ldr	r2, [r7, #12]
 3926 0042 1268     		ldr	r2, [r2]
 3927 0044 9B1A     		subs	r3, r3, r2
 3928              	.L201:
 3929              	.LBE47:
 568:core/WString.cpp **** }
 3930              		.loc 1 568 0
 3931 0046 1846     		mov	r0, r3
 3932 0048 1837     		adds	r7, r7, #24
 3933              		.cfi_def_cfa_offset 8
 3934 004a BD46     		mov	sp, r7
ARM GAS  C:\Users\Bruger\AppData\Local\Temp\ccjLt6bf.s 			page 80


 3935              		.cfi_def_cfa_register 13
 3936              		@ sp needed
 3937 004c 80BD     		pop	{r7, pc}
 3938              		.cfi_endproc
 3939              	.LFE136:
 3940              		.cantunwind
 3941              		.fnend
 3942              		.size	_ZNK6String7indexOfEcj, .-_ZNK6String7indexOfEcj
 3943 004e 00BF     		.section	.text._ZNK6String7indexOfERKS_,"ax",%progbits
 3944              		.align	2
 3945              		.global	_ZNK6String7indexOfERKS_
 3946              		.thumb
 3947              		.thumb_func
 3948              		.type	_ZNK6String7indexOfERKS_, %function
 3949              	_ZNK6String7indexOfERKS_:
 3950              		.fnstart
 3951              	.LFB137:
 569:core/WString.cpp **** 
 570:core/WString.cpp **** int String::indexOf(const String &s2) const
 571:core/WString.cpp **** {
 3952              		.loc 1 571 0
 3953              		.cfi_startproc
 3954              		@ args = 0, pretend = 0, frame = 8
 3955              		@ frame_needed = 1, uses_anonymous_args = 0
 3956 0000 80B5     		push	{r7, lr}
 3957              		.cfi_def_cfa_offset 8
 3958              		.cfi_offset 7, -8
 3959              		.cfi_offset 14, -4
 3960 0002 82B0     		sub	sp, sp, #8
 3961              		.cfi_def_cfa_offset 16
 3962 0004 00AF     		add	r7, sp, #0
 3963              		.cfi_def_cfa_register 7
 3964 0006 7860     		str	r0, [r7, #4]
 3965 0008 3960     		str	r1, [r7]
 572:core/WString.cpp **** 	return indexOf(s2, 0);
 3966              		.loc 1 572 0
 3967 000a 7868     		ldr	r0, [r7, #4]
 3968 000c 3968     		ldr	r1, [r7]
 3969 000e 0022     		movs	r2, #0
 3970 0010 FFF7FEFF 		bl	_ZNK6String7indexOfERKS_j
 3971 0014 0346     		mov	r3, r0
 573:core/WString.cpp **** }
 3972              		.loc 1 573 0
 3973 0016 1846     		mov	r0, r3
 3974 0018 0837     		adds	r7, r7, #8
 3975              		.cfi_def_cfa_offset 8
 3976 001a BD46     		mov	sp, r7
 3977              		.cfi_def_cfa_register 13
 3978              		@ sp needed
 3979 001c 80BD     		pop	{r7, pc}
 3980              		.cfi_endproc
 3981              	.LFE137:
 3982              		.cantunwind
 3983              		.fnend
 3984              		.size	_ZNK6String7indexOfERKS_, .-_ZNK6String7indexOfERKS_
 3985 001e 00BF     		.section	.text._ZNK6String7indexOfERKS_j,"ax",%progbits
 3986              		.align	2
ARM GAS  C:\Users\Bruger\AppData\Local\Temp\ccjLt6bf.s 			page 81


 3987              		.global	_ZNK6String7indexOfERKS_j
 3988              		.thumb
 3989              		.thumb_func
 3990              		.type	_ZNK6String7indexOfERKS_j, %function
 3991              	_ZNK6String7indexOfERKS_j:
 3992              		.fnstart
 3993              	.LFB138:
 574:core/WString.cpp **** 
 575:core/WString.cpp **** int String::indexOf(const String &s2, unsigned int fromIndex) const
 576:core/WString.cpp **** {
 3994              		.loc 1 576 0
 3995              		.cfi_startproc
 3996              		@ args = 0, pretend = 0, frame = 24
 3997              		@ frame_needed = 1, uses_anonymous_args = 0
 3998 0000 80B5     		push	{r7, lr}
 3999              		.cfi_def_cfa_offset 8
 4000              		.cfi_offset 7, -8
 4001              		.cfi_offset 14, -4
 4002 0002 86B0     		sub	sp, sp, #24
 4003              		.cfi_def_cfa_offset 32
 4004 0004 00AF     		add	r7, sp, #0
 4005              		.cfi_def_cfa_register 7
 4006 0006 F860     		str	r0, [r7, #12]
 4007 0008 B960     		str	r1, [r7, #8]
 4008 000a 7A60     		str	r2, [r7, #4]
 4009              	.LBB48:
 577:core/WString.cpp **** 	if (fromIndex >= len) return -1;
 4010              		.loc 1 577 0
 4011 000c FB68     		ldr	r3, [r7, #12]
 4012 000e 9A68     		ldr	r2, [r3, #8]
 4013 0010 7B68     		ldr	r3, [r7, #4]
 4014 0012 9A42     		cmp	r2, r3
 4015 0014 02D8     		bhi	.L206
 4016              		.loc 1 577 0 is_stmt 0 discriminator 1
 4017 0016 4FF0FF33 		mov	r3, #-1
 4018 001a 14E0     		b	.L207
 4019              	.L206:
 578:core/WString.cpp **** 	const char *found = strstr(buffer + fromIndex, s2.buffer);
 4020              		.loc 1 578 0 is_stmt 1
 4021 001c FB68     		ldr	r3, [r7, #12]
 4022 001e 1A68     		ldr	r2, [r3]
 4023 0020 7B68     		ldr	r3, [r7, #4]
 4024 0022 1A44     		add	r2, r2, r3
 4025 0024 BB68     		ldr	r3, [r7, #8]
 4026 0026 1B68     		ldr	r3, [r3]
 4027 0028 1046     		mov	r0, r2
 4028 002a 1946     		mov	r1, r3
 4029 002c FFF7FEFF 		bl	strstr
 4030 0030 7861     		str	r0, [r7, #20]
 579:core/WString.cpp **** 	if (found == NULL) return -1;
 4031              		.loc 1 579 0
 4032 0032 7B69     		ldr	r3, [r7, #20]
 4033 0034 002B     		cmp	r3, #0
 4034 0036 02D1     		bne	.L208
 4035              		.loc 1 579 0 is_stmt 0 discriminator 1
 4036 0038 4FF0FF33 		mov	r3, #-1
 4037 003c 03E0     		b	.L207
ARM GAS  C:\Users\Bruger\AppData\Local\Temp\ccjLt6bf.s 			page 82


 4038              	.L208:
 580:core/WString.cpp **** 	return found - buffer;
 4039              		.loc 1 580 0 is_stmt 1
 4040 003e 7B69     		ldr	r3, [r7, #20]
 4041 0040 FA68     		ldr	r2, [r7, #12]
 4042 0042 1268     		ldr	r2, [r2]
 4043 0044 9B1A     		subs	r3, r3, r2
 4044              	.L207:
 4045              	.LBE48:
 581:core/WString.cpp **** }
 4046              		.loc 1 581 0
 4047 0046 1846     		mov	r0, r3
 4048 0048 1837     		adds	r7, r7, #24
 4049              		.cfi_def_cfa_offset 8
 4050 004a BD46     		mov	sp, r7
 4051              		.cfi_def_cfa_register 13
 4052              		@ sp needed
 4053 004c 80BD     		pop	{r7, pc}
 4054              		.cfi_endproc
 4055              	.LFE138:
 4056              		.cantunwind
 4057              		.fnend
 4058              		.size	_ZNK6String7indexOfERKS_j, .-_ZNK6String7indexOfERKS_j
 4059 004e 00BF     		.section	.text._ZNK6String11lastIndexOfEc,"ax",%progbits
 4060              		.align	2
 4061              		.global	_ZNK6String11lastIndexOfEc
 4062              		.thumb
 4063              		.thumb_func
 4064              		.type	_ZNK6String11lastIndexOfEc, %function
 4065              	_ZNK6String11lastIndexOfEc:
 4066              		.fnstart
 4067              	.LFB139:
 582:core/WString.cpp **** 
 583:core/WString.cpp **** int String::lastIndexOf( char theChar ) const
 584:core/WString.cpp **** {
 4068              		.loc 1 584 0
 4069              		.cfi_startproc
 4070              		@ args = 0, pretend = 0, frame = 8
 4071              		@ frame_needed = 1, uses_anonymous_args = 0
 4072 0000 80B5     		push	{r7, lr}
 4073              		.cfi_def_cfa_offset 8
 4074              		.cfi_offset 7, -8
 4075              		.cfi_offset 14, -4
 4076 0002 82B0     		sub	sp, sp, #8
 4077              		.cfi_def_cfa_offset 16
 4078 0004 00AF     		add	r7, sp, #0
 4079              		.cfi_def_cfa_register 7
 4080 0006 7860     		str	r0, [r7, #4]
 4081 0008 0B46     		mov	r3, r1
 4082 000a FB70     		strb	r3, [r7, #3]
 585:core/WString.cpp **** 	return lastIndexOf(theChar, len - 1);
 4083              		.loc 1 585 0
 4084 000c 7B68     		ldr	r3, [r7, #4]
 4085 000e 9B68     		ldr	r3, [r3, #8]
 4086 0010 013B     		subs	r3, r3, #1
 4087 0012 FA78     		ldrb	r2, [r7, #3]	@ zero_extendqisi2
 4088 0014 7868     		ldr	r0, [r7, #4]
ARM GAS  C:\Users\Bruger\AppData\Local\Temp\ccjLt6bf.s 			page 83


 4089 0016 1146     		mov	r1, r2
 4090 0018 1A46     		mov	r2, r3
 4091 001a FFF7FEFF 		bl	_ZNK6String11lastIndexOfEcj
 4092 001e 0346     		mov	r3, r0
 586:core/WString.cpp **** }
 4093              		.loc 1 586 0
 4094 0020 1846     		mov	r0, r3
 4095 0022 0837     		adds	r7, r7, #8
 4096              		.cfi_def_cfa_offset 8
 4097 0024 BD46     		mov	sp, r7
 4098              		.cfi_def_cfa_register 13
 4099              		@ sp needed
 4100 0026 80BD     		pop	{r7, pc}
 4101              		.cfi_endproc
 4102              	.LFE139:
 4103              		.cantunwind
 4104              		.fnend
 4105              		.size	_ZNK6String11lastIndexOfEc, .-_ZNK6String11lastIndexOfEc
 4106              		.section	.text._ZNK6String11lastIndexOfEcj,"ax",%progbits
 4107              		.align	2
 4108              		.global	_ZNK6String11lastIndexOfEcj
 4109              		.thumb
 4110              		.thumb_func
 4111              		.type	_ZNK6String11lastIndexOfEcj, %function
 4112              	_ZNK6String11lastIndexOfEcj:
 4113              		.fnstart
 4114              	.LFB140:
 587:core/WString.cpp **** 
 588:core/WString.cpp **** int String::lastIndexOf(char ch, unsigned int fromIndex) const
 589:core/WString.cpp **** {
 4115              		.loc 1 589 0
 4116              		.cfi_startproc
 4117              		@ args = 0, pretend = 0, frame = 24
 4118              		@ frame_needed = 1, uses_anonymous_args = 0
 4119 0000 80B5     		push	{r7, lr}
 4120              		.cfi_def_cfa_offset 8
 4121              		.cfi_offset 7, -8
 4122              		.cfi_offset 14, -4
 4123 0002 86B0     		sub	sp, sp, #24
 4124              		.cfi_def_cfa_offset 32
 4125 0004 00AF     		add	r7, sp, #0
 4126              		.cfi_def_cfa_register 7
 4127 0006 F860     		str	r0, [r7, #12]
 4128 0008 0B46     		mov	r3, r1
 4129 000a 7A60     		str	r2, [r7, #4]
 4130 000c FB72     		strb	r3, [r7, #11]
 4131              	.LBB49:
 590:core/WString.cpp **** 	if (fromIndex >= len) return -1;
 4132              		.loc 1 590 0
 4133 000e FB68     		ldr	r3, [r7, #12]
 4134 0010 9A68     		ldr	r2, [r3, #8]
 4135 0012 7B68     		ldr	r3, [r7, #4]
 4136 0014 9A42     		cmp	r2, r3
 4137 0016 02D8     		bhi	.L212
 4138              		.loc 1 590 0 is_stmt 0 discriminator 1
 4139 0018 4FF0FF33 		mov	r3, #-1
 4140 001c 26E0     		b	.L213
ARM GAS  C:\Users\Bruger\AppData\Local\Temp\ccjLt6bf.s 			page 84


 4141              	.L212:
 591:core/WString.cpp **** 	char tempchar = buffer[fromIndex + 1];
 4142              		.loc 1 591 0 is_stmt 1
 4143 001e FB68     		ldr	r3, [r7, #12]
 4144 0020 1A68     		ldr	r2, [r3]
 4145 0022 7B68     		ldr	r3, [r7, #4]
 4146 0024 0133     		adds	r3, r3, #1
 4147 0026 1344     		add	r3, r3, r2
 4148 0028 1B78     		ldrb	r3, [r3]
 4149 002a FB75     		strb	r3, [r7, #23]
 592:core/WString.cpp **** 	buffer[fromIndex + 1] = '\0';
 4150              		.loc 1 592 0
 4151 002c FB68     		ldr	r3, [r7, #12]
 4152 002e 1A68     		ldr	r2, [r3]
 4153 0030 7B68     		ldr	r3, [r7, #4]
 4154 0032 0133     		adds	r3, r3, #1
 4155 0034 1344     		add	r3, r3, r2
 4156 0036 0022     		movs	r2, #0
 4157 0038 1A70     		strb	r2, [r3]
 593:core/WString.cpp **** 	char* temp = strrchr( buffer, ch );
 4158              		.loc 1 593 0
 4159 003a FB68     		ldr	r3, [r7, #12]
 4160 003c 1A68     		ldr	r2, [r3]
 4161 003e FB7A     		ldrb	r3, [r7, #11]	@ zero_extendqisi2
 4162 0040 1046     		mov	r0, r2
 4163 0042 1946     		mov	r1, r3
 4164 0044 FFF7FEFF 		bl	strrchr
 4165 0048 3861     		str	r0, [r7, #16]
 594:core/WString.cpp **** 	buffer[fromIndex + 1] = tempchar;
 4166              		.loc 1 594 0
 4167 004a FB68     		ldr	r3, [r7, #12]
 4168 004c 1A68     		ldr	r2, [r3]
 4169 004e 7B68     		ldr	r3, [r7, #4]
 4170 0050 0133     		adds	r3, r3, #1
 4171 0052 1344     		add	r3, r3, r2
 4172 0054 FA7D     		ldrb	r2, [r7, #23]
 4173 0056 1A70     		strb	r2, [r3]
 595:core/WString.cpp **** 	if (temp == NULL) return -1;
 4174              		.loc 1 595 0
 4175 0058 3B69     		ldr	r3, [r7, #16]
 4176 005a 002B     		cmp	r3, #0
 4177 005c 02D1     		bne	.L214
 4178              		.loc 1 595 0 is_stmt 0 discriminator 1
 4179 005e 4FF0FF33 		mov	r3, #-1
 4180 0062 03E0     		b	.L213
 4181              	.L214:
 596:core/WString.cpp **** 	return temp - buffer;
 4182              		.loc 1 596 0 is_stmt 1
 4183 0064 3B69     		ldr	r3, [r7, #16]
 4184 0066 FA68     		ldr	r2, [r7, #12]
 4185 0068 1268     		ldr	r2, [r2]
 4186 006a 9B1A     		subs	r3, r3, r2
 4187              	.L213:
 4188              	.LBE49:
 597:core/WString.cpp **** }
 4189              		.loc 1 597 0
 4190 006c 1846     		mov	r0, r3
ARM GAS  C:\Users\Bruger\AppData\Local\Temp\ccjLt6bf.s 			page 85


 4191 006e 1837     		adds	r7, r7, #24
 4192              		.cfi_def_cfa_offset 8
 4193 0070 BD46     		mov	sp, r7
 4194              		.cfi_def_cfa_register 13
 4195              		@ sp needed
 4196 0072 80BD     		pop	{r7, pc}
 4197              		.cfi_endproc
 4198              	.LFE140:
 4199              		.cantunwind
 4200              		.fnend
 4201              		.size	_ZNK6String11lastIndexOfEcj, .-_ZNK6String11lastIndexOfEcj
 4202              		.section	.text._ZNK6String11lastIndexOfERKS_,"ax",%progbits
 4203              		.align	2
 4204              		.global	_ZNK6String11lastIndexOfERKS_
 4205              		.thumb
 4206              		.thumb_func
 4207              		.type	_ZNK6String11lastIndexOfERKS_, %function
 4208              	_ZNK6String11lastIndexOfERKS_:
 4209              		.fnstart
 4210              	.LFB141:
 598:core/WString.cpp **** 
 599:core/WString.cpp **** int String::lastIndexOf(const String &s2) const
 600:core/WString.cpp **** {
 4211              		.loc 1 600 0
 4212              		.cfi_startproc
 4213              		@ args = 0, pretend = 0, frame = 8
 4214              		@ frame_needed = 1, uses_anonymous_args = 0
 4215 0000 80B5     		push	{r7, lr}
 4216              		.cfi_def_cfa_offset 8
 4217              		.cfi_offset 7, -8
 4218              		.cfi_offset 14, -4
 4219 0002 82B0     		sub	sp, sp, #8
 4220              		.cfi_def_cfa_offset 16
 4221 0004 00AF     		add	r7, sp, #0
 4222              		.cfi_def_cfa_register 7
 4223 0006 7860     		str	r0, [r7, #4]
 4224 0008 3960     		str	r1, [r7]
 601:core/WString.cpp **** 	return lastIndexOf(s2, len - s2.len);
 4225              		.loc 1 601 0
 4226 000a 7B68     		ldr	r3, [r7, #4]
 4227 000c 9A68     		ldr	r2, [r3, #8]
 4228 000e 3B68     		ldr	r3, [r7]
 4229 0010 9B68     		ldr	r3, [r3, #8]
 4230 0012 D31A     		subs	r3, r2, r3
 4231 0014 7868     		ldr	r0, [r7, #4]
 4232 0016 3968     		ldr	r1, [r7]
 4233 0018 1A46     		mov	r2, r3
 4234 001a FFF7FEFF 		bl	_ZNK6String11lastIndexOfERKS_j
 4235 001e 0346     		mov	r3, r0
 602:core/WString.cpp **** }
 4236              		.loc 1 602 0
 4237 0020 1846     		mov	r0, r3
 4238 0022 0837     		adds	r7, r7, #8
 4239              		.cfi_def_cfa_offset 8
 4240 0024 BD46     		mov	sp, r7
 4241              		.cfi_def_cfa_register 13
 4242              		@ sp needed
ARM GAS  C:\Users\Bruger\AppData\Local\Temp\ccjLt6bf.s 			page 86


 4243 0026 80BD     		pop	{r7, pc}
 4244              		.cfi_endproc
 4245              	.LFE141:
 4246              		.cantunwind
 4247              		.fnend
 4248              		.size	_ZNK6String11lastIndexOfERKS_, .-_ZNK6String11lastIndexOfERKS_
 4249              		.section	.text._ZNK6String11lastIndexOfERKS_j,"ax",%progbits
 4250              		.align	2
 4251              		.global	_ZNK6String11lastIndexOfERKS_j
 4252              		.thumb
 4253              		.thumb_func
 4254              		.type	_ZNK6String11lastIndexOfERKS_j, %function
 4255              	_ZNK6String11lastIndexOfERKS_j:
 4256              		.fnstart
 4257              	.LFB142:
 603:core/WString.cpp **** 
 604:core/WString.cpp **** int String::lastIndexOf(const String &s2, unsigned int fromIndex) const
 605:core/WString.cpp **** {
 4258              		.loc 1 605 0
 4259              		.cfi_startproc
 4260              		@ args = 0, pretend = 0, frame = 24
 4261              		@ frame_needed = 1, uses_anonymous_args = 0
 4262 0000 80B5     		push	{r7, lr}
 4263              		.cfi_def_cfa_offset 8
 4264              		.cfi_offset 7, -8
 4265              		.cfi_offset 14, -4
 4266 0002 86B0     		sub	sp, sp, #24
 4267              		.cfi_def_cfa_offset 32
 4268 0004 00AF     		add	r7, sp, #0
 4269              		.cfi_def_cfa_register 7
 4270 0006 F860     		str	r0, [r7, #12]
 4271 0008 B960     		str	r1, [r7, #8]
 4272 000a 7A60     		str	r2, [r7, #4]
 4273              	.LBB50:
 606:core/WString.cpp ****   	if (s2.len == 0 || len == 0 || s2.len > len) return -1;
 4274              		.loc 1 606 0
 4275 000c BB68     		ldr	r3, [r7, #8]
 4276 000e 9B68     		ldr	r3, [r3, #8]
 4277 0010 002B     		cmp	r3, #0
 4278 0012 09D0     		beq	.L218
 4279              		.loc 1 606 0 is_stmt 0 discriminator 2
 4280 0014 FB68     		ldr	r3, [r7, #12]
 4281 0016 9B68     		ldr	r3, [r3, #8]
 4282 0018 002B     		cmp	r3, #0
 4283 001a 05D0     		beq	.L218
 4284              		.loc 1 606 0 discriminator 4
 4285 001c BB68     		ldr	r3, [r7, #8]
 4286 001e 9A68     		ldr	r2, [r3, #8]
 4287 0020 FB68     		ldr	r3, [r7, #12]
 4288 0022 9B68     		ldr	r3, [r3, #8]
 4289 0024 9A42     		cmp	r2, r3
 4290 0026 02D9     		bls	.L219
 4291              	.L218:
 4292              		.loc 1 606 0 discriminator 5
 4293 0028 4FF0FF33 		mov	r3, #-1
 4294 002c 32E0     		b	.L220
 4295              	.L219:
ARM GAS  C:\Users\Bruger\AppData\Local\Temp\ccjLt6bf.s 			page 87


 607:core/WString.cpp **** 	if (fromIndex >= len) fromIndex = len - 1;
 4296              		.loc 1 607 0 is_stmt 1
 4297 002e FB68     		ldr	r3, [r7, #12]
 4298 0030 9A68     		ldr	r2, [r3, #8]
 4299 0032 7B68     		ldr	r3, [r7, #4]
 4300 0034 9A42     		cmp	r2, r3
 4301 0036 03D8     		bhi	.L221
 4302              		.loc 1 607 0 is_stmt 0 discriminator 1
 4303 0038 FB68     		ldr	r3, [r7, #12]
 4304 003a 9B68     		ldr	r3, [r3, #8]
 4305 003c 013B     		subs	r3, r3, #1
 4306 003e 7B60     		str	r3, [r7, #4]
 4307              	.L221:
 608:core/WString.cpp **** 	int found = -1;
 4308              		.loc 1 608 0 is_stmt 1
 4309 0040 4FF0FF33 		mov	r3, #-1
 4310 0044 7B61     		str	r3, [r7, #20]
 4311              	.LBB51:
 609:core/WString.cpp **** 	for (char *p = buffer; p <= buffer + fromIndex; p++) {
 4312              		.loc 1 609 0
 4313 0046 FB68     		ldr	r3, [r7, #12]
 4314 0048 1B68     		ldr	r3, [r3]
 4315 004a 3B61     		str	r3, [r7, #16]
 4316 004c 1AE0     		b	.L222
 4317              	.L226:
 610:core/WString.cpp **** 		p = strstr(p, s2.buffer);
 4318              		.loc 1 610 0
 4319 004e BB68     		ldr	r3, [r7, #8]
 4320 0050 1B68     		ldr	r3, [r3]
 4321 0052 3869     		ldr	r0, [r7, #16]
 4322 0054 1946     		mov	r1, r3
 4323 0056 FFF7FEFF 		bl	strstr
 4324 005a 3861     		str	r0, [r7, #16]
 611:core/WString.cpp **** 		if (!p) break;
 4325              		.loc 1 611 0
 4326 005c 3B69     		ldr	r3, [r7, #16]
 4327 005e 002B     		cmp	r3, #0
 4328 0060 00D1     		bne	.L223
 4329 0062 16E0     		b	.L224
 4330              	.L223:
 612:core/WString.cpp **** 		if ((unsigned int)(p - buffer) <= fromIndex) found = p - buffer;
 4331              		.loc 1 612 0
 4332 0064 3B69     		ldr	r3, [r7, #16]
 4333 0066 FA68     		ldr	r2, [r7, #12]
 4334 0068 1268     		ldr	r2, [r2]
 4335 006a 9B1A     		subs	r3, r3, r2
 4336 006c 1A46     		mov	r2, r3
 4337 006e 7B68     		ldr	r3, [r7, #4]
 4338 0070 9A42     		cmp	r2, r3
 4339 0072 04D8     		bhi	.L225
 4340              		.loc 1 612 0 is_stmt 0 discriminator 1
 4341 0074 3B69     		ldr	r3, [r7, #16]
 4342 0076 FA68     		ldr	r2, [r7, #12]
 4343 0078 1268     		ldr	r2, [r2]
 4344 007a 9B1A     		subs	r3, r3, r2
 4345 007c 7B61     		str	r3, [r7, #20]
 4346              	.L225:
ARM GAS  C:\Users\Bruger\AppData\Local\Temp\ccjLt6bf.s 			page 88


 609:core/WString.cpp **** 		p = strstr(p, s2.buffer);
 4347              		.loc 1 609 0 is_stmt 1 discriminator 2
 4348 007e 3B69     		ldr	r3, [r7, #16]
 4349 0080 0133     		adds	r3, r3, #1
 4350 0082 3B61     		str	r3, [r7, #16]
 4351              	.L222:
 609:core/WString.cpp **** 		p = strstr(p, s2.buffer);
 4352              		.loc 1 609 0 is_stmt 0 discriminator 1
 4353 0084 FB68     		ldr	r3, [r7, #12]
 4354 0086 1A68     		ldr	r2, [r3]
 4355 0088 7B68     		ldr	r3, [r7, #4]
 4356 008a 1A44     		add	r2, r2, r3
 4357 008c 3B69     		ldr	r3, [r7, #16]
 4358 008e 9A42     		cmp	r2, r3
 4359 0090 DDD2     		bcs	.L226
 4360              	.L224:
 4361              	.LBE51:
 613:core/WString.cpp **** 	}
 614:core/WString.cpp **** 	return found;
 4362              		.loc 1 614 0 is_stmt 1
 4363 0092 7B69     		ldr	r3, [r7, #20]
 4364              	.L220:
 4365              	.LBE50:
 615:core/WString.cpp **** }
 4366              		.loc 1 615 0
 4367 0094 1846     		mov	r0, r3
 4368 0096 1837     		adds	r7, r7, #24
 4369              		.cfi_def_cfa_offset 8
 4370 0098 BD46     		mov	sp, r7
 4371              		.cfi_def_cfa_register 13
 4372              		@ sp needed
 4373 009a 80BD     		pop	{r7, pc}
 4374              		.cfi_endproc
 4375              	.LFE142:
 4376              		.cantunwind
 4377              		.fnend
 4378              		.size	_ZNK6String11lastIndexOfERKS_j, .-_ZNK6String11lastIndexOfERKS_j
 4379              		.section	.rodata
 4380              		.align	2
 4381              	.LC0:
 4382 0000 00       		.ascii	"\000"
 4383 0001 000000   		.section	.text._ZNK6String9substringEjj,"ax",%progbits
 4384              		.align	2
 4385              		.global	_ZNK6String9substringEjj
 4386              		.thumb
 4387              		.thumb_func
 4388              		.type	_ZNK6String9substringEjj, %function
 4389              	_ZNK6String9substringEjj:
 4390              		.fnstart
 4391              	.LFB143:
 616:core/WString.cpp **** 
 617:core/WString.cpp **** String String::substring(unsigned int left, unsigned int right) const
 618:core/WString.cpp **** {
 4392              		.loc 1 618 0
 4393              		.cfi_startproc
 4394              		@ args = 0, pretend = 0, frame = 24
 4395              		@ frame_needed = 1, uses_anonymous_args = 0
ARM GAS  C:\Users\Bruger\AppData\Local\Temp\ccjLt6bf.s 			page 89


 4396 0000 80B5     		push	{r7, lr}
 4397              		.save {r7, lr}
 4398              		.cfi_def_cfa_offset 8
 4399              		.cfi_offset 7, -8
 4400              		.cfi_offset 14, -4
 4401              		.pad #24
 4402 0002 86B0     		sub	sp, sp, #24
 4403              		.cfi_def_cfa_offset 32
 4404              		.setfp r7, sp, #0
 4405 0004 00AF     		add	r7, sp, #0
 4406              		.cfi_def_cfa_register 7
 4407 0006 F860     		str	r0, [r7, #12]
 4408 0008 B960     		str	r1, [r7, #8]
 4409 000a 7A60     		str	r2, [r7, #4]
 4410 000c 3B60     		str	r3, [r7]
 4411              	.LBB52:
 4412              	.LBB53:
 619:core/WString.cpp **** 	if (left > right) {
 4413              		.loc 1 619 0
 4414 000e 7A68     		ldr	r2, [r7, #4]
 4415 0010 3B68     		ldr	r3, [r7]
 4416 0012 9A42     		cmp	r2, r3
 4417 0014 05D9     		bls	.L228
 4418              	.LBB54:
 620:core/WString.cpp **** 		unsigned int temp = right;
 4419              		.loc 1 620 0
 4420 0016 3B68     		ldr	r3, [r7]
 4421 0018 7B61     		str	r3, [r7, #20]
 621:core/WString.cpp **** 		right = left;
 4422              		.loc 1 621 0
 4423 001a 7B68     		ldr	r3, [r7, #4]
 4424 001c 3B60     		str	r3, [r7]
 622:core/WString.cpp **** 		left = temp;
 4425              		.loc 1 622 0
 4426 001e 7B69     		ldr	r3, [r7, #20]
 4427 0020 7B60     		str	r3, [r7, #4]
 4428              	.L228:
 4429              	.LBE54:
 4430              	.LBE53:
 623:core/WString.cpp **** 	}
 624:core/WString.cpp **** 	String out;
 4431              		.loc 1 624 0
 4432 0022 F868     		ldr	r0, [r7, #12]
 4433 0024 1749     		ldr	r1, .L232
 4434 0026 FFF7FEFF 		bl	_ZN6StringC2EPKc
 625:core/WString.cpp **** 	if (left >= len) return out;
 4435              		.loc 1 625 0
 4436 002a BB68     		ldr	r3, [r7, #8]
 4437 002c 9A68     		ldr	r2, [r3, #8]
 4438 002e 7B68     		ldr	r3, [r7, #4]
 4439 0030 9A42     		cmp	r2, r3
 4440 0032 00D8     		bhi	.L229
 4441 0034 22E0     		b	.L227
 4442              	.L229:
 626:core/WString.cpp **** 	if (right > len) right = len;
 4443              		.loc 1 626 0
 4444 0036 BB68     		ldr	r3, [r7, #8]
ARM GAS  C:\Users\Bruger\AppData\Local\Temp\ccjLt6bf.s 			page 90


 4445 0038 9A68     		ldr	r2, [r3, #8]
 4446 003a 3B68     		ldr	r3, [r7]
 4447 003c 9A42     		cmp	r2, r3
 4448 003e 02D2     		bcs	.L231
 4449              		.loc 1 626 0 is_stmt 0 discriminator 1
 4450 0040 BB68     		ldr	r3, [r7, #8]
 4451 0042 9B68     		ldr	r3, [r3, #8]
 4452 0044 3B60     		str	r3, [r7]
 4453              	.L231:
 627:core/WString.cpp **** 	char temp = buffer[right];  // save the replaced character
 4454              		.loc 1 627 0 is_stmt 1
 4455 0046 BB68     		ldr	r3, [r7, #8]
 4456 0048 1A68     		ldr	r2, [r3]
 4457 004a 3B68     		ldr	r3, [r7]
 4458 004c 1344     		add	r3, r3, r2
 4459 004e 1B78     		ldrb	r3, [r3]
 4460 0050 FB74     		strb	r3, [r7, #19]
 628:core/WString.cpp **** 	buffer[right] = '\0';	
 4461              		.loc 1 628 0
 4462 0052 BB68     		ldr	r3, [r7, #8]
 4463 0054 1A68     		ldr	r2, [r3]
 4464 0056 3B68     		ldr	r3, [r7]
 4465 0058 1344     		add	r3, r3, r2
 4466 005a 0022     		movs	r2, #0
 4467 005c 1A70     		strb	r2, [r3]
 629:core/WString.cpp **** 	out = buffer + left;  // pointer arithmetic
 4468              		.loc 1 629 0
 4469 005e BB68     		ldr	r3, [r7, #8]
 4470 0060 1A68     		ldr	r2, [r3]
 4471 0062 7B68     		ldr	r3, [r7, #4]
 4472 0064 1344     		add	r3, r3, r2
 4473 0066 F868     		ldr	r0, [r7, #12]
 4474 0068 1946     		mov	r1, r3
 4475 006a FFF7FEFF 		bl	_ZN6StringaSEPKc
 630:core/WString.cpp **** 	buffer[right] = temp;  //restore character
 4476              		.loc 1 630 0
 4477 006e BB68     		ldr	r3, [r7, #8]
 4478 0070 1A68     		ldr	r2, [r3]
 4479 0072 3B68     		ldr	r3, [r7]
 4480 0074 1344     		add	r3, r3, r2
 4481 0076 FA7C     		ldrb	r2, [r7, #19]
 4482 0078 1A70     		strb	r2, [r3]
 631:core/WString.cpp **** 	return out;
 4483              		.loc 1 631 0
 4484 007a 00BF     		nop
 4485              	.L227:
 4486              	.LBE52:
 632:core/WString.cpp **** }
 4487              		.loc 1 632 0
 4488 007c F868     		ldr	r0, [r7, #12]
 4489 007e 1837     		adds	r7, r7, #24
 4490              		.cfi_def_cfa_offset 8
 4491 0080 BD46     		mov	sp, r7
 4492              		.cfi_def_cfa_register 13
 4493              		@ sp needed
 4494 0082 80BD     		pop	{r7, pc}
 4495              	.L233:
ARM GAS  C:\Users\Bruger\AppData\Local\Temp\ccjLt6bf.s 			page 91


 4496              		.align	2
 4497              	.L232:
 4498 0084 00000000 		.word	.LC0
 4499              		.cfi_endproc
 4500              	.LFE143:
 4501              		.fnend
 4502              		.size	_ZNK6String9substringEjj, .-_ZNK6String9substringEjj
 4503              		.section	.text._ZN6String7replaceEcc,"ax",%progbits
 4504              		.align	2
 4505              		.global	_ZN6String7replaceEcc
 4506              		.thumb
 4507              		.thumb_func
 4508              		.type	_ZN6String7replaceEcc, %function
 4509              	_ZN6String7replaceEcc:
 4510              		.fnstart
 4511              	.LFB144:
 633:core/WString.cpp **** 
 634:core/WString.cpp **** /*********************************************/
 635:core/WString.cpp **** /*  Modification                             */
 636:core/WString.cpp **** /*********************************************/
 637:core/WString.cpp **** 
 638:core/WString.cpp **** void String::replace(char find, char replace)
 639:core/WString.cpp **** {
 4512              		.loc 1 639 0
 4513              		.cfi_startproc
 4514              		@ args = 0, pretend = 0, frame = 16
 4515              		@ frame_needed = 1, uses_anonymous_args = 0
 4516              		@ link register save eliminated.
 4517 0000 80B4     		push	{r7}
 4518              		.cfi_def_cfa_offset 4
 4519              		.cfi_offset 7, -4
 4520 0002 85B0     		sub	sp, sp, #20
 4521              		.cfi_def_cfa_offset 24
 4522 0004 00AF     		add	r7, sp, #0
 4523              		.cfi_def_cfa_register 7
 4524 0006 7860     		str	r0, [r7, #4]
 4525 0008 0B46     		mov	r3, r1
 4526 000a FB70     		strb	r3, [r7, #3]
 4527 000c 1346     		mov	r3, r2
 4528 000e BB70     		strb	r3, [r7, #2]
 4529              	.LBB55:
 640:core/WString.cpp **** 	if (!buffer) return;
 4530              		.loc 1 640 0
 4531 0010 7B68     		ldr	r3, [r7, #4]
 4532 0012 1B68     		ldr	r3, [r3]
 4533 0014 002B     		cmp	r3, #0
 4534 0016 00D1     		bne	.L235
 4535 0018 12E0     		b	.L234
 4536              	.L235:
 4537              	.LBB56:
 641:core/WString.cpp **** 	for (char *p = buffer; *p; p++) {
 4538              		.loc 1 641 0
 4539 001a 7B68     		ldr	r3, [r7, #4]
 4540 001c 1B68     		ldr	r3, [r3]
 4541 001e FB60     		str	r3, [r7, #12]
 4542 0020 0AE0     		b	.L237
 4543              	.L239:
ARM GAS  C:\Users\Bruger\AppData\Local\Temp\ccjLt6bf.s 			page 92


 642:core/WString.cpp **** 		if (*p == find) *p = replace;
 4544              		.loc 1 642 0
 4545 0022 FB68     		ldr	r3, [r7, #12]
 4546 0024 1B78     		ldrb	r3, [r3]	@ zero_extendqisi2
 4547 0026 FA78     		ldrb	r2, [r7, #3]	@ zero_extendqisi2
 4548 0028 9A42     		cmp	r2, r3
 4549 002a 02D1     		bne	.L238
 4550              		.loc 1 642 0 is_stmt 0 discriminator 1
 4551 002c FB68     		ldr	r3, [r7, #12]
 4552 002e BA78     		ldrb	r2, [r7, #2]
 4553 0030 1A70     		strb	r2, [r3]
 4554              	.L238:
 641:core/WString.cpp **** 	for (char *p = buffer; *p; p++) {
 4555              		.loc 1 641 0 is_stmt 1 discriminator 2
 4556 0032 FB68     		ldr	r3, [r7, #12]
 4557 0034 0133     		adds	r3, r3, #1
 4558 0036 FB60     		str	r3, [r7, #12]
 4559              	.L237:
 641:core/WString.cpp **** 	for (char *p = buffer; *p; p++) {
 4560              		.loc 1 641 0 is_stmt 0 discriminator 1
 4561 0038 FB68     		ldr	r3, [r7, #12]
 4562 003a 1B78     		ldrb	r3, [r3]	@ zero_extendqisi2
 4563 003c 002B     		cmp	r3, #0
 4564 003e F0D1     		bne	.L239
 4565              	.L234:
 4566              	.LBE56:
 4567              	.LBE55:
 643:core/WString.cpp **** 	}
 644:core/WString.cpp **** }
 4568              		.loc 1 644 0 is_stmt 1
 4569 0040 1437     		adds	r7, r7, #20
 4570              		.cfi_def_cfa_offset 4
 4571 0042 BD46     		mov	sp, r7
 4572              		.cfi_def_cfa_register 13
 4573              		@ sp needed
 4574 0044 5DF8047B 		ldr	r7, [sp], #4
 4575              		.cfi_restore 7
 4576              		.cfi_def_cfa_offset 0
 4577 0048 7047     		bx	lr
 4578              		.cfi_endproc
 4579              	.LFE144:
 4580              		.cantunwind
 4581              		.fnend
 4582              		.size	_ZN6String7replaceEcc, .-_ZN6String7replaceEcc
 4583 004a 00BF     		.section	.text._ZN6String7replaceERKS_S1_,"ax",%progbits
 4584              		.align	2
 4585              		.global	_ZN6String7replaceERKS_S1_
 4586              		.thumb
 4587              		.thumb_func
 4588              		.type	_ZN6String7replaceERKS_S1_, %function
 4589              	_ZN6String7replaceERKS_S1_:
 4590              		.fnstart
 4591              	.LFB145:
 645:core/WString.cpp **** 
 646:core/WString.cpp **** void String::replace(const String& find, const String& replace)
 647:core/WString.cpp **** {
 4592              		.loc 1 647 0
ARM GAS  C:\Users\Bruger\AppData\Local\Temp\ccjLt6bf.s 			page 93


 4593              		.cfi_startproc
 4594              		@ args = 0, pretend = 0, frame = 48
 4595              		@ frame_needed = 1, uses_anonymous_args = 0
 4596 0000 80B5     		push	{r7, lr}
 4597              		.cfi_def_cfa_offset 8
 4598              		.cfi_offset 7, -8
 4599              		.cfi_offset 14, -4
 4600 0002 8CB0     		sub	sp, sp, #48
 4601              		.cfi_def_cfa_offset 56
 4602 0004 00AF     		add	r7, sp, #0
 4603              		.cfi_def_cfa_register 7
 4604 0006 F860     		str	r0, [r7, #12]
 4605 0008 B960     		str	r1, [r7, #8]
 4606 000a 7A60     		str	r2, [r7, #4]
 4607              	.LBB57:
 648:core/WString.cpp **** 	if (len == 0 || find.len == 0) return;
 4608              		.loc 1 648 0
 4609 000c FB68     		ldr	r3, [r7, #12]
 4610 000e 9B68     		ldr	r3, [r3, #8]
 4611 0010 002B     		cmp	r3, #0
 4612 0012 03D0     		beq	.L241
 4613              		.loc 1 648 0 is_stmt 0 discriminator 1
 4614 0014 BB68     		ldr	r3, [r7, #8]
 4615 0016 9B68     		ldr	r3, [r3, #8]
 4616 0018 002B     		cmp	r3, #0
 4617 001a 00D1     		bne	.L242
 4618              	.L241:
 4619              		.loc 1 648 0
 4620 001c EBE0     		b	.L240
 4621              	.L242:
 649:core/WString.cpp **** 	int diff = replace.len - find.len;
 4622              		.loc 1 649 0 is_stmt 1
 4623 001e 7B68     		ldr	r3, [r7, #4]
 4624 0020 9A68     		ldr	r2, [r3, #8]
 4625 0022 BB68     		ldr	r3, [r7, #8]
 4626 0024 9B68     		ldr	r3, [r3, #8]
 4627 0026 D31A     		subs	r3, r2, r3
 4628 0028 FB61     		str	r3, [r7, #28]
 650:core/WString.cpp **** 	char *readFrom = buffer;
 4629              		.loc 1 650 0
 4630 002a FB68     		ldr	r3, [r7, #12]
 4631 002c 1B68     		ldr	r3, [r3]
 4632 002e FB62     		str	r3, [r7, #44]
 4633              	.LBB58:
 651:core/WString.cpp **** 	char *foundAt;
 652:core/WString.cpp **** 	if (diff == 0) {
 4634              		.loc 1 652 0
 4635 0030 FB69     		ldr	r3, [r7, #28]
 4636 0032 002B     		cmp	r3, #0
 4637 0034 1ED1     		bne	.L244
 653:core/WString.cpp **** 		while ((foundAt = strstr(readFrom, find.buffer)) != NULL) {
 4638              		.loc 1 653 0
 4639 0036 0DE0     		b	.L245
 4640              	.L246:
 654:core/WString.cpp **** 			memcpy(foundAt, replace.buffer, replace.len);
 4641              		.loc 1 654 0
 4642 0038 7B68     		ldr	r3, [r7, #4]
ARM GAS  C:\Users\Bruger\AppData\Local\Temp\ccjLt6bf.s 			page 94


 4643 003a 1A68     		ldr	r2, [r3]
 4644 003c 7B68     		ldr	r3, [r7, #4]
 4645 003e 9B68     		ldr	r3, [r3, #8]
 4646 0040 B869     		ldr	r0, [r7, #24]
 4647 0042 1146     		mov	r1, r2
 4648 0044 1A46     		mov	r2, r3
 4649 0046 FFF7FEFF 		bl	memcpy
 655:core/WString.cpp **** 			readFrom = foundAt + replace.len;
 4650              		.loc 1 655 0
 4651 004a 7B68     		ldr	r3, [r7, #4]
 4652 004c 9B68     		ldr	r3, [r3, #8]
 4653 004e BA69     		ldr	r2, [r7, #24]
 4654 0050 1344     		add	r3, r3, r2
 4655 0052 FB62     		str	r3, [r7, #44]
 4656              	.L245:
 653:core/WString.cpp **** 		while ((foundAt = strstr(readFrom, find.buffer)) != NULL) {
 4657              		.loc 1 653 0
 4658 0054 BB68     		ldr	r3, [r7, #8]
 4659 0056 1B68     		ldr	r3, [r3]
 4660 0058 F86A     		ldr	r0, [r7, #44]
 4661 005a 1946     		mov	r1, r3
 4662 005c FFF7FEFF 		bl	strstr
 4663 0060 B861     		str	r0, [r7, #24]
 4664 0062 BB69     		ldr	r3, [r7, #24]
 4665 0064 002B     		cmp	r3, #0
 4666 0066 14BF     		ite	ne
 4667 0068 0123     		movne	r3, #1
 4668 006a 0023     		moveq	r3, #0
 4669 006c DBB2     		uxtb	r3, r3
 4670 006e 002B     		cmp	r3, #0
 4671 0070 E2D1     		bne	.L246
 4672 0072 C0E0     		b	.L240
 4673              	.L244:
 4674              	.LBB59:
 4675              	.LBB60:
 656:core/WString.cpp **** 		}
 657:core/WString.cpp **** 	} else if (diff < 0) {
 4676              		.loc 1 657 0
 4677 0074 FB69     		ldr	r3, [r7, #28]
 4678 0076 002B     		cmp	r3, #0
 4679 0078 3DDA     		bge	.L247
 4680              	.LBB61:
 658:core/WString.cpp **** 		char *writeTo = buffer;
 4681              		.loc 1 658 0
 4682 007a FB68     		ldr	r3, [r7, #12]
 4683 007c 1B68     		ldr	r3, [r3]
 4684 007e BB62     		str	r3, [r7, #40]
 659:core/WString.cpp **** 		while ((foundAt = strstr(readFrom, find.buffer)) != NULL) {
 4685              		.loc 1 659 0
 4686 0080 25E0     		b	.L248
 4687              	.L249:
 4688              	.LBB62:
 660:core/WString.cpp **** 			unsigned int n = foundAt - readFrom;
 4689              		.loc 1 660 0
 4690 0082 BA69     		ldr	r2, [r7, #24]
 4691 0084 FB6A     		ldr	r3, [r7, #44]
 4692 0086 D31A     		subs	r3, r2, r3
ARM GAS  C:\Users\Bruger\AppData\Local\Temp\ccjLt6bf.s 			page 95


 4693 0088 7B61     		str	r3, [r7, #20]
 661:core/WString.cpp **** 			memcpy(writeTo, readFrom, n);
 4694              		.loc 1 661 0
 4695 008a B86A     		ldr	r0, [r7, #40]
 4696 008c F96A     		ldr	r1, [r7, #44]
 4697 008e 7A69     		ldr	r2, [r7, #20]
 4698 0090 FFF7FEFF 		bl	memcpy
 662:core/WString.cpp **** 			writeTo += n;
 4699              		.loc 1 662 0
 4700 0094 BA6A     		ldr	r2, [r7, #40]
 4701 0096 7B69     		ldr	r3, [r7, #20]
 4702 0098 1344     		add	r3, r3, r2
 4703 009a BB62     		str	r3, [r7, #40]
 663:core/WString.cpp **** 			memcpy(writeTo, replace.buffer, replace.len);
 4704              		.loc 1 663 0
 4705 009c 7B68     		ldr	r3, [r7, #4]
 4706 009e 1A68     		ldr	r2, [r3]
 4707 00a0 7B68     		ldr	r3, [r7, #4]
 4708 00a2 9B68     		ldr	r3, [r3, #8]
 4709 00a4 B86A     		ldr	r0, [r7, #40]
 4710 00a6 1146     		mov	r1, r2
 4711 00a8 1A46     		mov	r2, r3
 4712 00aa FFF7FEFF 		bl	memcpy
 664:core/WString.cpp **** 			writeTo += replace.len;
 4713              		.loc 1 664 0
 4714 00ae 7B68     		ldr	r3, [r7, #4]
 4715 00b0 9B68     		ldr	r3, [r3, #8]
 4716 00b2 BA6A     		ldr	r2, [r7, #40]
 4717 00b4 1344     		add	r3, r3, r2
 4718 00b6 BB62     		str	r3, [r7, #40]
 665:core/WString.cpp **** 			readFrom = foundAt + find.len;
 4719              		.loc 1 665 0
 4720 00b8 BB68     		ldr	r3, [r7, #8]
 4721 00ba 9B68     		ldr	r3, [r3, #8]
 4722 00bc BA69     		ldr	r2, [r7, #24]
 4723 00be 1344     		add	r3, r3, r2
 4724 00c0 FB62     		str	r3, [r7, #44]
 666:core/WString.cpp **** 			len += diff;
 4725              		.loc 1 666 0
 4726 00c2 FB68     		ldr	r3, [r7, #12]
 4727 00c4 9A68     		ldr	r2, [r3, #8]
 4728 00c6 FB69     		ldr	r3, [r7, #28]
 4729 00c8 1A44     		add	r2, r2, r3
 4730 00ca FB68     		ldr	r3, [r7, #12]
 4731 00cc 9A60     		str	r2, [r3, #8]
 4732              	.L248:
 4733              	.LBE62:
 659:core/WString.cpp **** 			unsigned int n = foundAt - readFrom;
 4734              		.loc 1 659 0
 4735 00ce BB68     		ldr	r3, [r7, #8]
 4736 00d0 1B68     		ldr	r3, [r3]
 4737 00d2 F86A     		ldr	r0, [r7, #44]
 4738 00d4 1946     		mov	r1, r3
 4739 00d6 FFF7FEFF 		bl	strstr
 4740 00da B861     		str	r0, [r7, #24]
 4741 00dc BB69     		ldr	r3, [r7, #24]
 4742 00de 002B     		cmp	r3, #0
ARM GAS  C:\Users\Bruger\AppData\Local\Temp\ccjLt6bf.s 			page 96


 4743 00e0 14BF     		ite	ne
 4744 00e2 0123     		movne	r3, #1
 4745 00e4 0023     		moveq	r3, #0
 4746 00e6 DBB2     		uxtb	r3, r3
 4747 00e8 002B     		cmp	r3, #0
 4748 00ea CAD1     		bne	.L249
 667:core/WString.cpp **** 		}
 668:core/WString.cpp **** 		strcpy(writeTo, readFrom);
 4749              		.loc 1 668 0
 4750 00ec B86A     		ldr	r0, [r7, #40]
 4751 00ee F96A     		ldr	r1, [r7, #44]
 4752 00f0 FFF7FEFF 		bl	strcpy
 4753              	.LBE61:
 4754 00f4 7FE0     		b	.L240
 4755              	.L247:
 4756              	.LBB63:
 669:core/WString.cpp **** 	} else {
 670:core/WString.cpp **** 		unsigned int size = len; // compute size needed for result
 4757              		.loc 1 670 0
 4758 00f6 FB68     		ldr	r3, [r7, #12]
 4759 00f8 9B68     		ldr	r3, [r3, #8]
 4760 00fa 7B62     		str	r3, [r7, #36]
 671:core/WString.cpp **** 		while ((foundAt = strstr(readFrom, find.buffer)) != NULL) {
 4761              		.loc 1 671 0
 4762 00fc 08E0     		b	.L250
 4763              	.L251:
 672:core/WString.cpp **** 			readFrom = foundAt + find.len;
 4764              		.loc 1 672 0
 4765 00fe BB68     		ldr	r3, [r7, #8]
 4766 0100 9B68     		ldr	r3, [r3, #8]
 4767 0102 BA69     		ldr	r2, [r7, #24]
 4768 0104 1344     		add	r3, r3, r2
 4769 0106 FB62     		str	r3, [r7, #44]
 673:core/WString.cpp **** 			size += diff;
 4770              		.loc 1 673 0
 4771 0108 FB69     		ldr	r3, [r7, #28]
 4772 010a 7A6A     		ldr	r2, [r7, #36]
 4773 010c 1344     		add	r3, r3, r2
 4774 010e 7B62     		str	r3, [r7, #36]
 4775              	.L250:
 671:core/WString.cpp **** 		while ((foundAt = strstr(readFrom, find.buffer)) != NULL) {
 4776              		.loc 1 671 0
 4777 0110 BB68     		ldr	r3, [r7, #8]
 4778 0112 1B68     		ldr	r3, [r3]
 4779 0114 F86A     		ldr	r0, [r7, #44]
 4780 0116 1946     		mov	r1, r3
 4781 0118 FFF7FEFF 		bl	strstr
 4782 011c B861     		str	r0, [r7, #24]
 4783 011e BB69     		ldr	r3, [r7, #24]
 4784 0120 002B     		cmp	r3, #0
 4785 0122 14BF     		ite	ne
 4786 0124 0123     		movne	r3, #1
 4787 0126 0023     		moveq	r3, #0
 4788 0128 DBB2     		uxtb	r3, r3
 4789 012a 002B     		cmp	r3, #0
 4790 012c E7D1     		bne	.L251
 674:core/WString.cpp **** 		}
ARM GAS  C:\Users\Bruger\AppData\Local\Temp\ccjLt6bf.s 			page 97


 675:core/WString.cpp **** 		if (size == len) return;
 4791              		.loc 1 675 0
 4792 012e FB68     		ldr	r3, [r7, #12]
 4793 0130 9A68     		ldr	r2, [r3, #8]
 4794 0132 7B6A     		ldr	r3, [r7, #36]
 4795 0134 9A42     		cmp	r2, r3
 4796 0136 00D1     		bne	.L252
 4797              		.loc 1 675 0 is_stmt 0 discriminator 3
 4798 0138 5DE0     		b	.L240
 4799              	.L252:
 676:core/WString.cpp **** 		if (size > capacity && !changeBuffer(size)) return; // XXX: tell user!
 4800              		.loc 1 676 0 is_stmt 1
 4801 013a FB68     		ldr	r3, [r7, #12]
 4802 013c 5A68     		ldr	r2, [r3, #4]
 4803 013e 7B6A     		ldr	r3, [r7, #36]
 4804 0140 9A42     		cmp	r2, r3
 4805 0142 08D2     		bcs	.L253
 4806              		.loc 1 676 0 is_stmt 0 discriminator 1
 4807 0144 F868     		ldr	r0, [r7, #12]
 4808 0146 796A     		ldr	r1, [r7, #36]
 4809 0148 FFF7FEFF 		bl	_ZN6String12changeBufferEj
 4810 014c 0346     		mov	r3, r0
 4811 014e 002B     		cmp	r3, #0
 4812 0150 01D1     		bne	.L253
 4813              		.loc 1 676 0 discriminator 3
 4814 0152 0123     		movs	r3, #1
 4815 0154 00E0     		b	.L254
 4816              	.L253:
 4817              		.loc 1 676 0 discriminator 4
 4818 0156 0023     		movs	r3, #0
 4819              	.L254:
 4820              		.loc 1 676 0 discriminator 6
 4821 0158 002B     		cmp	r3, #0
 4822 015a 00D0     		beq	.L255
 4823              		.loc 1 676 0 discriminator 4
 4824 015c 4BE0     		b	.L240
 4825              	.L255:
 677:core/WString.cpp **** 		int index = len - 1;
 4826              		.loc 1 677 0 is_stmt 1
 4827 015e FB68     		ldr	r3, [r7, #12]
 4828 0160 9B68     		ldr	r3, [r3, #8]
 4829 0162 013B     		subs	r3, r3, #1
 4830 0164 3B62     		str	r3, [r7, #32]
 678:core/WString.cpp **** 		while (index >= 0 && (index = lastIndexOf(find, index)) >= 0) {
 4831              		.loc 1 678 0
 4832 0166 34E0     		b	.L256
 4833              	.L259:
 679:core/WString.cpp **** 			readFrom = buffer + index + find.len;
 4834              		.loc 1 679 0
 4835 0168 FB68     		ldr	r3, [r7, #12]
 4836 016a 1A68     		ldr	r2, [r3]
 4837 016c BB68     		ldr	r3, [r7, #8]
 4838 016e 9968     		ldr	r1, [r3, #8]
 4839 0170 3B6A     		ldr	r3, [r7, #32]
 4840 0172 0B44     		add	r3, r3, r1
 4841 0174 1344     		add	r3, r3, r2
 4842 0176 FB62     		str	r3, [r7, #44]
ARM GAS  C:\Users\Bruger\AppData\Local\Temp\ccjLt6bf.s 			page 98


 680:core/WString.cpp **** 			memmove(readFrom + diff, readFrom, len - (readFrom - buffer));
 4843              		.loc 1 680 0
 4844 0178 FB69     		ldr	r3, [r7, #28]
 4845 017a FA6A     		ldr	r2, [r7, #44]
 4846 017c D118     		adds	r1, r2, r3
 4847 017e FB68     		ldr	r3, [r7, #12]
 4848 0180 9B68     		ldr	r3, [r3, #8]
 4849 0182 FA68     		ldr	r2, [r7, #12]
 4850 0184 1268     		ldr	r2, [r2]
 4851 0186 1046     		mov	r0, r2
 4852 0188 FA6A     		ldr	r2, [r7, #44]
 4853 018a 821A     		subs	r2, r0, r2
 4854 018c 1344     		add	r3, r3, r2
 4855 018e 0846     		mov	r0, r1
 4856 0190 F96A     		ldr	r1, [r7, #44]
 4857 0192 1A46     		mov	r2, r3
 4858 0194 FFF7FEFF 		bl	memmove
 681:core/WString.cpp **** 			len += diff;
 4859              		.loc 1 681 0
 4860 0198 FB68     		ldr	r3, [r7, #12]
 4861 019a 9A68     		ldr	r2, [r3, #8]
 4862 019c FB69     		ldr	r3, [r7, #28]
 4863 019e 1A44     		add	r2, r2, r3
 4864 01a0 FB68     		ldr	r3, [r7, #12]
 4865 01a2 9A60     		str	r2, [r3, #8]
 682:core/WString.cpp **** 			buffer[len] = 0;
 4866              		.loc 1 682 0
 4867 01a4 FB68     		ldr	r3, [r7, #12]
 4868 01a6 1A68     		ldr	r2, [r3]
 4869 01a8 FB68     		ldr	r3, [r7, #12]
 4870 01aa 9B68     		ldr	r3, [r3, #8]
 4871 01ac 1344     		add	r3, r3, r2
 4872 01ae 0022     		movs	r2, #0
 4873 01b0 1A70     		strb	r2, [r3]
 683:core/WString.cpp **** 			memcpy(buffer + index, replace.buffer, replace.len);
 4874              		.loc 1 683 0
 4875 01b2 FB68     		ldr	r3, [r7, #12]
 4876 01b4 1A68     		ldr	r2, [r3]
 4877 01b6 3B6A     		ldr	r3, [r7, #32]
 4878 01b8 D118     		adds	r1, r2, r3
 4879 01ba 7B68     		ldr	r3, [r7, #4]
 4880 01bc 1A68     		ldr	r2, [r3]
 4881 01be 7B68     		ldr	r3, [r7, #4]
 4882 01c0 9B68     		ldr	r3, [r3, #8]
 4883 01c2 0846     		mov	r0, r1
 4884 01c4 1146     		mov	r1, r2
 4885 01c6 1A46     		mov	r2, r3
 4886 01c8 FFF7FEFF 		bl	memcpy
 684:core/WString.cpp **** 			index--;
 4887              		.loc 1 684 0
 4888 01cc 3B6A     		ldr	r3, [r7, #32]
 4889 01ce 013B     		subs	r3, r3, #1
 4890 01d0 3B62     		str	r3, [r7, #32]
 4891              	.L256:
 678:core/WString.cpp **** 			readFrom = buffer + index + find.len;
 4892              		.loc 1 678 0
 4893 01d2 3B6A     		ldr	r3, [r7, #32]
ARM GAS  C:\Users\Bruger\AppData\Local\Temp\ccjLt6bf.s 			page 99


 4894 01d4 002B     		cmp	r3, #0
 4895 01d6 0BDB     		blt	.L257
 678:core/WString.cpp **** 			readFrom = buffer + index + find.len;
 4896              		.loc 1 678 0 is_stmt 0 discriminator 1
 4897 01d8 3B6A     		ldr	r3, [r7, #32]
 4898 01da F868     		ldr	r0, [r7, #12]
 4899 01dc B968     		ldr	r1, [r7, #8]
 4900 01de 1A46     		mov	r2, r3
 4901 01e0 FFF7FEFF 		bl	_ZNK6String11lastIndexOfERKS_j
 4902 01e4 3862     		str	r0, [r7, #32]
 4903 01e6 3B6A     		ldr	r3, [r7, #32]
 4904 01e8 002B     		cmp	r3, #0
 4905 01ea 01DB     		blt	.L257
 678:core/WString.cpp **** 			readFrom = buffer + index + find.len;
 4906              		.loc 1 678 0 discriminator 3
 4907 01ec 0123     		movs	r3, #1
 4908 01ee 00E0     		b	.L258
 4909              	.L257:
 678:core/WString.cpp **** 			readFrom = buffer + index + find.len;
 4910              		.loc 1 678 0 discriminator 4
 4911 01f0 0023     		movs	r3, #0
 4912              	.L258:
 678:core/WString.cpp **** 			readFrom = buffer + index + find.len;
 4913              		.loc 1 678 0 discriminator 6
 4914 01f2 002B     		cmp	r3, #0
 4915 01f4 B8D1     		bne	.L259
 4916              	.L240:
 4917              	.LBE63:
 4918              	.LBE60:
 4919              	.LBE59:
 4920              	.LBE58:
 4921              	.LBE57:
 685:core/WString.cpp **** 		}
 686:core/WString.cpp **** 	}
 687:core/WString.cpp **** }
 4922              		.loc 1 687 0 is_stmt 1
 4923 01f6 3037     		adds	r7, r7, #48
 4924              		.cfi_def_cfa_offset 8
 4925 01f8 BD46     		mov	sp, r7
 4926              		.cfi_def_cfa_register 13
 4927              		@ sp needed
 4928 01fa 80BD     		pop	{r7, pc}
 4929              		.cfi_endproc
 4930              	.LFE145:
 4931              		.cantunwind
 4932              		.fnend
 4933              		.size	_ZN6String7replaceERKS_S1_, .-_ZN6String7replaceERKS_S1_
 4934              		.section	.text._ZN6String6removeEj,"ax",%progbits
 4935              		.align	2
 4936              		.global	_ZN6String6removeEj
 4937              		.thumb
 4938              		.thumb_func
 4939              		.type	_ZN6String6removeEj, %function
 4940              	_ZN6String6removeEj:
 4941              		.fnstart
 4942              	.LFB146:
 688:core/WString.cpp **** 
ARM GAS  C:\Users\Bruger\AppData\Local\Temp\ccjLt6bf.s 			page 100


 689:core/WString.cpp **** void String::remove(unsigned int index){
 4943              		.loc 1 689 0
 4944              		.cfi_startproc
 4945              		@ args = 0, pretend = 0, frame = 8
 4946              		@ frame_needed = 1, uses_anonymous_args = 0
 4947 0000 80B5     		push	{r7, lr}
 4948              		.cfi_def_cfa_offset 8
 4949              		.cfi_offset 7, -8
 4950              		.cfi_offset 14, -4
 4951 0002 82B0     		sub	sp, sp, #8
 4952              		.cfi_def_cfa_offset 16
 4953 0004 00AF     		add	r7, sp, #0
 4954              		.cfi_def_cfa_register 7
 4955 0006 7860     		str	r0, [r7, #4]
 4956 0008 3960     		str	r1, [r7]
 690:core/WString.cpp **** 	// Pass the biggest integer as the count. The remove method
 691:core/WString.cpp **** 	// below will take care of truncating it at the end of the
 692:core/WString.cpp **** 	// string.
 693:core/WString.cpp **** 	remove(index, (unsigned int)-1);
 4957              		.loc 1 693 0
 4958 000a 7868     		ldr	r0, [r7, #4]
 4959 000c 3968     		ldr	r1, [r7]
 4960 000e 4FF0FF32 		mov	r2, #-1
 4961 0012 FFF7FEFF 		bl	_ZN6String6removeEjj
 694:core/WString.cpp **** }
 4962              		.loc 1 694 0
 4963 0016 0837     		adds	r7, r7, #8
 4964              		.cfi_def_cfa_offset 8
 4965 0018 BD46     		mov	sp, r7
 4966              		.cfi_def_cfa_register 13
 4967              		@ sp needed
 4968 001a 80BD     		pop	{r7, pc}
 4969              		.cfi_endproc
 4970              	.LFE146:
 4971              		.cantunwind
 4972              		.fnend
 4973              		.size	_ZN6String6removeEj, .-_ZN6String6removeEj
 4974              		.section	.text._ZN6String6removeEjj,"ax",%progbits
 4975              		.align	2
 4976              		.global	_ZN6String6removeEjj
 4977              		.thumb
 4978              		.thumb_func
 4979              		.type	_ZN6String6removeEjj, %function
 4980              	_ZN6String6removeEjj:
 4981              		.fnstart
 4982              	.LFB147:
 695:core/WString.cpp **** 
 696:core/WString.cpp **** void String::remove(unsigned int index, unsigned int count){
 4983              		.loc 1 696 0
 4984              		.cfi_startproc
 4985              		@ args = 0, pretend = 0, frame = 24
 4986              		@ frame_needed = 1, uses_anonymous_args = 0
 4987 0000 80B5     		push	{r7, lr}
 4988              		.cfi_def_cfa_offset 8
 4989              		.cfi_offset 7, -8
 4990              		.cfi_offset 14, -4
 4991 0002 86B0     		sub	sp, sp, #24
ARM GAS  C:\Users\Bruger\AppData\Local\Temp\ccjLt6bf.s 			page 101


 4992              		.cfi_def_cfa_offset 32
 4993 0004 00AF     		add	r7, sp, #0
 4994              		.cfi_def_cfa_register 7
 4995 0006 F860     		str	r0, [r7, #12]
 4996 0008 B960     		str	r1, [r7, #8]
 4997 000a 7A60     		str	r2, [r7, #4]
 4998              	.LBB64:
 697:core/WString.cpp **** 	if (index >= len) { return; }
 4999              		.loc 1 697 0
 5000 000c FB68     		ldr	r3, [r7, #12]
 5001 000e 9A68     		ldr	r2, [r3, #8]
 5002 0010 BB68     		ldr	r3, [r7, #8]
 5003 0012 9A42     		cmp	r2, r3
 5004 0014 00D8     		bhi	.L262
 5005 0016 2FE0     		b	.L261
 5006              	.L262:
 698:core/WString.cpp **** 	if (count <= 0) { return; }
 5007              		.loc 1 698 0
 5008 0018 7B68     		ldr	r3, [r7, #4]
 5009 001a 002B     		cmp	r3, #0
 5010 001c 00D1     		bne	.L264
 5011              		.loc 1 698 0 is_stmt 0 discriminator 2
 5012 001e 2BE0     		b	.L261
 5013              	.L264:
 699:core/WString.cpp **** 	if (count > len - index) { count = len - index; }
 5014              		.loc 1 699 0 is_stmt 1
 5015 0020 FB68     		ldr	r3, [r7, #12]
 5016 0022 9A68     		ldr	r2, [r3, #8]
 5017 0024 BB68     		ldr	r3, [r7, #8]
 5018 0026 D21A     		subs	r2, r2, r3
 5019 0028 7B68     		ldr	r3, [r7, #4]
 5020 002a 9A42     		cmp	r2, r3
 5021 002c 04D2     		bcs	.L265
 5022              		.loc 1 699 0 is_stmt 0 discriminator 1
 5023 002e FB68     		ldr	r3, [r7, #12]
 5024 0030 9A68     		ldr	r2, [r3, #8]
 5025 0032 BB68     		ldr	r3, [r7, #8]
 5026 0034 D31A     		subs	r3, r2, r3
 5027 0036 7B60     		str	r3, [r7, #4]
 5028              	.L265:
 700:core/WString.cpp **** 	char *writeTo = buffer + index;
 5029              		.loc 1 700 0 is_stmt 1
 5030 0038 FB68     		ldr	r3, [r7, #12]
 5031 003a 1A68     		ldr	r2, [r3]
 5032 003c BB68     		ldr	r3, [r7, #8]
 5033 003e 1344     		add	r3, r3, r2
 5034 0040 7B61     		str	r3, [r7, #20]
 701:core/WString.cpp **** 	len = len - count;
 5035              		.loc 1 701 0
 5036 0042 FB68     		ldr	r3, [r7, #12]
 5037 0044 9A68     		ldr	r2, [r3, #8]
 5038 0046 7B68     		ldr	r3, [r7, #4]
 5039 0048 D21A     		subs	r2, r2, r3
 5040 004a FB68     		ldr	r3, [r7, #12]
 5041 004c 9A60     		str	r2, [r3, #8]
 702:core/WString.cpp **** 	strncpy(writeTo, buffer + index + count,len - index);
 5042              		.loc 1 702 0
ARM GAS  C:\Users\Bruger\AppData\Local\Temp\ccjLt6bf.s 			page 102


 5043 004e FB68     		ldr	r3, [r7, #12]
 5044 0050 1A68     		ldr	r2, [r3]
 5045 0052 B968     		ldr	r1, [r7, #8]
 5046 0054 7B68     		ldr	r3, [r7, #4]
 5047 0056 0B44     		add	r3, r3, r1
 5048 0058 D118     		adds	r1, r2, r3
 5049 005a FB68     		ldr	r3, [r7, #12]
 5050 005c 9A68     		ldr	r2, [r3, #8]
 5051 005e BB68     		ldr	r3, [r7, #8]
 5052 0060 D31A     		subs	r3, r2, r3
 5053 0062 7869     		ldr	r0, [r7, #20]
 5054 0064 1A46     		mov	r2, r3
 5055 0066 FFF7FEFF 		bl	strncpy
 703:core/WString.cpp **** 	buffer[len] = 0;
 5056              		.loc 1 703 0
 5057 006a FB68     		ldr	r3, [r7, #12]
 5058 006c 1A68     		ldr	r2, [r3]
 5059 006e FB68     		ldr	r3, [r7, #12]
 5060 0070 9B68     		ldr	r3, [r3, #8]
 5061 0072 1344     		add	r3, r3, r2
 5062 0074 0022     		movs	r2, #0
 5063 0076 1A70     		strb	r2, [r3]
 5064              	.L261:
 5065              	.LBE64:
 704:core/WString.cpp **** }
 5066              		.loc 1 704 0
 5067 0078 1837     		adds	r7, r7, #24
 5068              		.cfi_def_cfa_offset 8
 5069 007a BD46     		mov	sp, r7
 5070              		.cfi_def_cfa_register 13
 5071              		@ sp needed
 5072 007c 80BD     		pop	{r7, pc}
 5073              		.cfi_endproc
 5074              	.LFE147:
 5075              		.cantunwind
 5076              		.fnend
 5077              		.size	_ZN6String6removeEjj, .-_ZN6String6removeEjj
 5078 007e 00BF     		.section	.text._ZN6String11toLowerCaseEv,"ax",%progbits
 5079              		.align	2
 5080              		.global	_ZN6String11toLowerCaseEv
 5081              		.thumb
 5082              		.thumb_func
 5083              		.type	_ZN6String11toLowerCaseEv, %function
 5084              	_ZN6String11toLowerCaseEv:
 5085              		.fnstart
 5086              	.LFB148:
 705:core/WString.cpp **** 
 706:core/WString.cpp **** void String::toLowerCase(void)
 707:core/WString.cpp **** {
 5087              		.loc 1 707 0
 5088              		.cfi_startproc
 5089              		@ args = 0, pretend = 0, frame = 16
 5090              		@ frame_needed = 1, uses_anonymous_args = 0
 5091 0000 80B5     		push	{r7, lr}
 5092              		.cfi_def_cfa_offset 8
 5093              		.cfi_offset 7, -8
 5094              		.cfi_offset 14, -4
ARM GAS  C:\Users\Bruger\AppData\Local\Temp\ccjLt6bf.s 			page 103


 5095 0002 84B0     		sub	sp, sp, #16
 5096              		.cfi_def_cfa_offset 24
 5097 0004 00AF     		add	r7, sp, #0
 5098              		.cfi_def_cfa_register 7
 5099 0006 7860     		str	r0, [r7, #4]
 5100              	.LBB65:
 708:core/WString.cpp **** 	if (!buffer) return;
 5101              		.loc 1 708 0
 5102 0008 7B68     		ldr	r3, [r7, #4]
 5103 000a 1B68     		ldr	r3, [r3]
 5104 000c 002B     		cmp	r3, #0
 5105 000e 00D1     		bne	.L267
 5106 0010 13E0     		b	.L266
 5107              	.L267:
 5108              	.LBB66:
 709:core/WString.cpp **** 	for (char *p = buffer; *p; p++) {
 5109              		.loc 1 709 0
 5110 0012 7B68     		ldr	r3, [r7, #4]
 5111 0014 1B68     		ldr	r3, [r3]
 5112 0016 FB60     		str	r3, [r7, #12]
 5113 0018 0BE0     		b	.L269
 5114              	.L270:
 710:core/WString.cpp **** 		*p = tolower(*p);
 5115              		.loc 1 710 0 discriminator 3
 5116 001a FB68     		ldr	r3, [r7, #12]
 5117 001c 1B78     		ldrb	r3, [r3]	@ zero_extendqisi2
 5118 001e 1846     		mov	r0, r3
 5119 0020 FFF7FEFF 		bl	tolower
 5120 0024 0346     		mov	r3, r0
 5121 0026 DAB2     		uxtb	r2, r3
 5122 0028 FB68     		ldr	r3, [r7, #12]
 5123 002a 1A70     		strb	r2, [r3]
 709:core/WString.cpp **** 	for (char *p = buffer; *p; p++) {
 5124              		.loc 1 709 0 discriminator 3
 5125 002c FB68     		ldr	r3, [r7, #12]
 5126 002e 0133     		adds	r3, r3, #1
 5127 0030 FB60     		str	r3, [r7, #12]
 5128              	.L269:
 709:core/WString.cpp **** 	for (char *p = buffer; *p; p++) {
 5129              		.loc 1 709 0 is_stmt 0 discriminator 1
 5130 0032 FB68     		ldr	r3, [r7, #12]
 5131 0034 1B78     		ldrb	r3, [r3]	@ zero_extendqisi2
 5132 0036 002B     		cmp	r3, #0
 5133 0038 EFD1     		bne	.L270
 5134              	.L266:
 5135              	.LBE66:
 5136              	.LBE65:
 711:core/WString.cpp **** 	}
 712:core/WString.cpp **** }
 5137              		.loc 1 712 0 is_stmt 1
 5138 003a 1037     		adds	r7, r7, #16
 5139              		.cfi_def_cfa_offset 8
 5140 003c BD46     		mov	sp, r7
 5141              		.cfi_def_cfa_register 13
 5142              		@ sp needed
 5143 003e 80BD     		pop	{r7, pc}
 5144              		.cfi_endproc
ARM GAS  C:\Users\Bruger\AppData\Local\Temp\ccjLt6bf.s 			page 104


 5145              	.LFE148:
 5146              		.cantunwind
 5147              		.fnend
 5148              		.size	_ZN6String11toLowerCaseEv, .-_ZN6String11toLowerCaseEv
 5149              		.section	.text._ZN6String11toUpperCaseEv,"ax",%progbits
 5150              		.align	2
 5151              		.global	_ZN6String11toUpperCaseEv
 5152              		.thumb
 5153              		.thumb_func
 5154              		.type	_ZN6String11toUpperCaseEv, %function
 5155              	_ZN6String11toUpperCaseEv:
 5156              		.fnstart
 5157              	.LFB149:
 713:core/WString.cpp **** 
 714:core/WString.cpp **** void String::toUpperCase(void)
 715:core/WString.cpp **** {
 5158              		.loc 1 715 0
 5159              		.cfi_startproc
 5160              		@ args = 0, pretend = 0, frame = 16
 5161              		@ frame_needed = 1, uses_anonymous_args = 0
 5162 0000 80B5     		push	{r7, lr}
 5163              		.cfi_def_cfa_offset 8
 5164              		.cfi_offset 7, -8
 5165              		.cfi_offset 14, -4
 5166 0002 84B0     		sub	sp, sp, #16
 5167              		.cfi_def_cfa_offset 24
 5168 0004 00AF     		add	r7, sp, #0
 5169              		.cfi_def_cfa_register 7
 5170 0006 7860     		str	r0, [r7, #4]
 5171              	.LBB67:
 716:core/WString.cpp **** 	if (!buffer) return;
 5172              		.loc 1 716 0
 5173 0008 7B68     		ldr	r3, [r7, #4]
 5174 000a 1B68     		ldr	r3, [r3]
 5175 000c 002B     		cmp	r3, #0
 5176 000e 00D1     		bne	.L272
 5177 0010 13E0     		b	.L271
 5178              	.L272:
 5179              	.LBB68:
 717:core/WString.cpp **** 	for (char *p = buffer; *p; p++) {
 5180              		.loc 1 717 0
 5181 0012 7B68     		ldr	r3, [r7, #4]
 5182 0014 1B68     		ldr	r3, [r3]
 5183 0016 FB60     		str	r3, [r7, #12]
 5184 0018 0BE0     		b	.L274
 5185              	.L275:
 718:core/WString.cpp **** 		*p = toupper(*p);
 5186              		.loc 1 718 0 discriminator 3
 5187 001a FB68     		ldr	r3, [r7, #12]
 5188 001c 1B78     		ldrb	r3, [r3]	@ zero_extendqisi2
 5189 001e 1846     		mov	r0, r3
 5190 0020 FFF7FEFF 		bl	toupper
 5191 0024 0346     		mov	r3, r0
 5192 0026 DAB2     		uxtb	r2, r3
 5193 0028 FB68     		ldr	r3, [r7, #12]
 5194 002a 1A70     		strb	r2, [r3]
 717:core/WString.cpp **** 	for (char *p = buffer; *p; p++) {
ARM GAS  C:\Users\Bruger\AppData\Local\Temp\ccjLt6bf.s 			page 105


 5195              		.loc 1 717 0 discriminator 3
 5196 002c FB68     		ldr	r3, [r7, #12]
 5197 002e 0133     		adds	r3, r3, #1
 5198 0030 FB60     		str	r3, [r7, #12]
 5199              	.L274:
 717:core/WString.cpp **** 	for (char *p = buffer; *p; p++) {
 5200              		.loc 1 717 0 is_stmt 0 discriminator 1
 5201 0032 FB68     		ldr	r3, [r7, #12]
 5202 0034 1B78     		ldrb	r3, [r3]	@ zero_extendqisi2
 5203 0036 002B     		cmp	r3, #0
 5204 0038 EFD1     		bne	.L275
 5205              	.L271:
 5206              	.LBE68:
 5207              	.LBE67:
 719:core/WString.cpp **** 	}
 720:core/WString.cpp **** }
 5208              		.loc 1 720 0 is_stmt 1
 5209 003a 1037     		adds	r7, r7, #16
 5210              		.cfi_def_cfa_offset 8
 5211 003c BD46     		mov	sp, r7
 5212              		.cfi_def_cfa_register 13
 5213              		@ sp needed
 5214 003e 80BD     		pop	{r7, pc}
 5215              		.cfi_endproc
 5216              	.LFE149:
 5217              		.cantunwind
 5218              		.fnend
 5219              		.size	_ZN6String11toUpperCaseEv, .-_ZN6String11toUpperCaseEv
 5220              		.section	.text._ZN6String4trimEv,"ax",%progbits
 5221              		.align	2
 5222              		.global	_ZN6String4trimEv
 5223              		.thumb
 5224              		.thumb_func
 5225              		.type	_ZN6String4trimEv, %function
 5226              	_ZN6String4trimEv:
 5227              		.fnstart
 5228              	.LFB150:
 721:core/WString.cpp **** 
 722:core/WString.cpp **** void String::trim(void)
 723:core/WString.cpp **** {
 5229              		.loc 1 723 0
 5230              		.cfi_startproc
 5231              		@ args = 0, pretend = 0, frame = 16
 5232              		@ frame_needed = 1, uses_anonymous_args = 0
 5233 0000 80B5     		push	{r7, lr}
 5234              		.cfi_def_cfa_offset 8
 5235              		.cfi_offset 7, -8
 5236              		.cfi_offset 14, -4
 5237 0002 84B0     		sub	sp, sp, #16
 5238              		.cfi_def_cfa_offset 24
 5239 0004 00AF     		add	r7, sp, #0
 5240              		.cfi_def_cfa_register 7
 5241 0006 7860     		str	r0, [r7, #4]
 5242              	.LBB69:
 724:core/WString.cpp **** 	if (!buffer || len == 0) return;
 5243              		.loc 1 724 0
 5244 0008 7B68     		ldr	r3, [r7, #4]
ARM GAS  C:\Users\Bruger\AppData\Local\Temp\ccjLt6bf.s 			page 106


 5245 000a 1B68     		ldr	r3, [r3]
 5246 000c 002B     		cmp	r3, #0
 5247 000e 03D0     		beq	.L277
 5248              		.loc 1 724 0 is_stmt 0 discriminator 1
 5249 0010 7B68     		ldr	r3, [r7, #4]
 5250 0012 9B68     		ldr	r3, [r3, #8]
 5251 0014 002B     		cmp	r3, #0
 5252 0016 00D1     		bne	.L278
 5253              	.L277:
 5254              		.loc 1 724 0
 5255 0018 42E0     		b	.L276
 5256              	.L278:
 725:core/WString.cpp **** 	char *begin = buffer;
 5257              		.loc 1 725 0 is_stmt 1
 5258 001a 7B68     		ldr	r3, [r7, #4]
 5259 001c 1B68     		ldr	r3, [r3]
 5260 001e FB60     		str	r3, [r7, #12]
 726:core/WString.cpp **** 	while (isspace(*begin)) begin++;
 5261              		.loc 1 726 0
 5262 0020 02E0     		b	.L280
 5263              	.L281:
 5264              		.loc 1 726 0 is_stmt 0 discriminator 2
 5265 0022 FB68     		ldr	r3, [r7, #12]
 5266 0024 0133     		adds	r3, r3, #1
 5267 0026 FB60     		str	r3, [r7, #12]
 5268              	.L280:
 5269              		.loc 1 726 0 discriminator 1
 5270 0028 FB68     		ldr	r3, [r7, #12]
 5271 002a 1B78     		ldrb	r3, [r3]	@ zero_extendqisi2
 5272 002c 1846     		mov	r0, r3
 5273 002e FFF7FEFF 		bl	isspace
 5274 0032 0346     		mov	r3, r0
 5275 0034 002B     		cmp	r3, #0
 5276 0036 F4D1     		bne	.L281
 727:core/WString.cpp **** 	char *end = buffer + len - 1;
 5277              		.loc 1 727 0 is_stmt 1
 5278 0038 7B68     		ldr	r3, [r7, #4]
 5279 003a 1A68     		ldr	r2, [r3]
 5280 003c 7B68     		ldr	r3, [r7, #4]
 5281 003e 9B68     		ldr	r3, [r3, #8]
 5282 0040 013B     		subs	r3, r3, #1
 5283 0042 1344     		add	r3, r3, r2
 5284 0044 BB60     		str	r3, [r7, #8]
 728:core/WString.cpp **** 	while (isspace(*end) && end >= begin) end--;
 5285              		.loc 1 728 0
 5286 0046 02E0     		b	.L282
 5287              	.L284:
 5288              		.loc 1 728 0 is_stmt 0 discriminator 3
 5289 0048 BB68     		ldr	r3, [r7, #8]
 5290 004a 013B     		subs	r3, r3, #1
 5291 004c BB60     		str	r3, [r7, #8]
 5292              	.L282:
 5293              		.loc 1 728 0 discriminator 1
 5294 004e BB68     		ldr	r3, [r7, #8]
 5295 0050 1B78     		ldrb	r3, [r3]	@ zero_extendqisi2
 5296 0052 1846     		mov	r0, r3
 5297 0054 FFF7FEFF 		bl	isspace
ARM GAS  C:\Users\Bruger\AppData\Local\Temp\ccjLt6bf.s 			page 107


 5298 0058 0346     		mov	r3, r0
 5299 005a 002B     		cmp	r3, #0
 5300 005c 03D0     		beq	.L283
 5301              		.loc 1 728 0 discriminator 2
 5302 005e BA68     		ldr	r2, [r7, #8]
 5303 0060 FB68     		ldr	r3, [r7, #12]
 5304 0062 9A42     		cmp	r2, r3
 5305 0064 F0D2     		bcs	.L284
 5306              	.L283:
 729:core/WString.cpp **** 	len = end + 1 - begin;
 5307              		.loc 1 729 0 is_stmt 1
 5308 0066 BB68     		ldr	r3, [r7, #8]
 5309 0068 0133     		adds	r3, r3, #1
 5310 006a 1A46     		mov	r2, r3
 5311 006c FB68     		ldr	r3, [r7, #12]
 5312 006e D31A     		subs	r3, r2, r3
 5313 0070 1A46     		mov	r2, r3
 5314 0072 7B68     		ldr	r3, [r7, #4]
 5315 0074 9A60     		str	r2, [r3, #8]
 730:core/WString.cpp **** 	if (begin > buffer) memcpy(buffer, begin, len);
 5316              		.loc 1 730 0
 5317 0076 7B68     		ldr	r3, [r7, #4]
 5318 0078 1A68     		ldr	r2, [r3]
 5319 007a FB68     		ldr	r3, [r7, #12]
 5320 007c 9A42     		cmp	r2, r3
 5321 007e 08D2     		bcs	.L285
 5322              		.loc 1 730 0 is_stmt 0 discriminator 1
 5323 0080 7B68     		ldr	r3, [r7, #4]
 5324 0082 1A68     		ldr	r2, [r3]
 5325 0084 7B68     		ldr	r3, [r7, #4]
 5326 0086 9B68     		ldr	r3, [r3, #8]
 5327 0088 1046     		mov	r0, r2
 5328 008a F968     		ldr	r1, [r7, #12]
 5329 008c 1A46     		mov	r2, r3
 5330 008e FFF7FEFF 		bl	memcpy
 5331              	.L285:
 731:core/WString.cpp **** 	buffer[len] = 0;
 5332              		.loc 1 731 0 is_stmt 1
 5333 0092 7B68     		ldr	r3, [r7, #4]
 5334 0094 1A68     		ldr	r2, [r3]
 5335 0096 7B68     		ldr	r3, [r7, #4]
 5336 0098 9B68     		ldr	r3, [r3, #8]
 5337 009a 1344     		add	r3, r3, r2
 5338 009c 0022     		movs	r2, #0
 5339 009e 1A70     		strb	r2, [r3]
 5340              	.L276:
 5341              	.LBE69:
 732:core/WString.cpp **** }
 5342              		.loc 1 732 0
 5343 00a0 1037     		adds	r7, r7, #16
 5344              		.cfi_def_cfa_offset 8
 5345 00a2 BD46     		mov	sp, r7
 5346              		.cfi_def_cfa_register 13
 5347              		@ sp needed
 5348 00a4 80BD     		pop	{r7, pc}
 5349              		.cfi_endproc
 5350              	.LFE150:
ARM GAS  C:\Users\Bruger\AppData\Local\Temp\ccjLt6bf.s 			page 108


 5351              		.cantunwind
 5352              		.fnend
 5353              		.size	_ZN6String4trimEv, .-_ZN6String4trimEv
 5354 00a6 00BF     		.section	.text._ZNK6String5toIntEv,"ax",%progbits
 5355              		.align	2
 5356              		.global	_ZNK6String5toIntEv
 5357              		.thumb
 5358              		.thumb_func
 5359              		.type	_ZNK6String5toIntEv, %function
 5360              	_ZNK6String5toIntEv:
 5361              		.fnstart
 5362              	.LFB151:
 733:core/WString.cpp **** 
 734:core/WString.cpp **** /*********************************************/
 735:core/WString.cpp **** /*  Parsing / Conversion                     */
 736:core/WString.cpp **** /*********************************************/
 737:core/WString.cpp **** 
 738:core/WString.cpp **** long String::toInt(void) const
 739:core/WString.cpp **** {
 5363              		.loc 1 739 0
 5364              		.cfi_startproc
 5365              		@ args = 0, pretend = 0, frame = 8
 5366              		@ frame_needed = 1, uses_anonymous_args = 0
 5367 0000 80B5     		push	{r7, lr}
 5368              		.cfi_def_cfa_offset 8
 5369              		.cfi_offset 7, -8
 5370              		.cfi_offset 14, -4
 5371 0002 82B0     		sub	sp, sp, #8
 5372              		.cfi_def_cfa_offset 16
 5373 0004 00AF     		add	r7, sp, #0
 5374              		.cfi_def_cfa_register 7
 5375 0006 7860     		str	r0, [r7, #4]
 740:core/WString.cpp **** 	if (buffer) return atol(buffer);
 5376              		.loc 1 740 0
 5377 0008 7B68     		ldr	r3, [r7, #4]
 5378 000a 1B68     		ldr	r3, [r3]
 5379 000c 002B     		cmp	r3, #0
 5380 000e 06D0     		beq	.L287
 5381              		.loc 1 740 0 is_stmt 0 discriminator 1
 5382 0010 7B68     		ldr	r3, [r7, #4]
 5383 0012 1B68     		ldr	r3, [r3]
 5384 0014 1846     		mov	r0, r3
 5385 0016 FFF7FEFF 		bl	atol
 5386 001a 0346     		mov	r3, r0
 5387 001c 00E0     		b	.L288
 5388              	.L287:
 741:core/WString.cpp **** 	return 0;
 5389              		.loc 1 741 0 is_stmt 1
 5390 001e 0023     		movs	r3, #0
 5391              	.L288:
 742:core/WString.cpp **** }
 5392              		.loc 1 742 0
 5393 0020 1846     		mov	r0, r3
 5394 0022 0837     		adds	r7, r7, #8
 5395              		.cfi_def_cfa_offset 8
 5396 0024 BD46     		mov	sp, r7
 5397              		.cfi_def_cfa_register 13
ARM GAS  C:\Users\Bruger\AppData\Local\Temp\ccjLt6bf.s 			page 109


 5398              		@ sp needed
 5399 0026 80BD     		pop	{r7, pc}
 5400              		.cfi_endproc
 5401              	.LFE151:
 5402              		.cantunwind
 5403              		.fnend
 5404              		.size	_ZNK6String5toIntEv, .-_ZNK6String5toIntEv
 5405              		.global	__aeabi_d2f
 5406              		.section	.text._ZNK6String7toFloatEv,"ax",%progbits
 5407              		.align	2
 5408              		.global	_ZNK6String7toFloatEv
 5409              		.thumb
 5410              		.thumb_func
 5411              		.type	_ZNK6String7toFloatEv, %function
 5412              	_ZNK6String7toFloatEv:
 5413              		.fnstart
 5414              	.LFB152:
 743:core/WString.cpp **** 
 744:core/WString.cpp **** float String::toFloat(void) const
 745:core/WString.cpp **** {
 5415              		.loc 1 745 0
 5416              		.cfi_startproc
 5417              		@ args = 0, pretend = 0, frame = 8
 5418              		@ frame_needed = 1, uses_anonymous_args = 0
 5419 0000 80B5     		push	{r7, lr}
 5420              		.cfi_def_cfa_offset 8
 5421              		.cfi_offset 7, -8
 5422              		.cfi_offset 14, -4
 5423 0002 82B0     		sub	sp, sp, #8
 5424              		.cfi_def_cfa_offset 16
 5425 0004 00AF     		add	r7, sp, #0
 5426              		.cfi_def_cfa_register 7
 5427 0006 7860     		str	r0, [r7, #4]
 746:core/WString.cpp **** 	if (buffer) return float(atof(buffer));
 5428              		.loc 1 746 0
 5429 0008 7B68     		ldr	r3, [r7, #4]
 5430 000a 1B68     		ldr	r3, [r3]
 5431 000c 002B     		cmp	r3, #0
 5432 000e 0CD0     		beq	.L290
 5433              		.loc 1 746 0 is_stmt 0 discriminator 1
 5434 0010 7B68     		ldr	r3, [r7, #4]
 5435 0012 1B68     		ldr	r3, [r3]
 5436 0014 1846     		mov	r0, r3
 5437 0016 FFF7FEFF 		bl	atof
 5438 001a 0246     		mov	r2, r0
 5439 001c 0B46     		mov	r3, r1
 5440 001e 1046     		mov	r0, r2
 5441 0020 1946     		mov	r1, r3
 5442 0022 FFF7FEFF 		bl	__aeabi_d2f
 5443 0026 0346     		mov	r3, r0
 5444 0028 01E0     		b	.L291
 5445              	.L290:
 747:core/WString.cpp **** 	return 0;
 5446              		.loc 1 747 0 is_stmt 1
 5447 002a 4FF00003 		mov	r3, #0
 5448              	.L291:
 748:core/WString.cpp **** }
ARM GAS  C:\Users\Bruger\AppData\Local\Temp\ccjLt6bf.s 			page 110


 5449              		.loc 1 748 0
 5450 002e 1846     		mov	r0, r3
 5451 0030 0837     		adds	r7, r7, #8
 5452              		.cfi_def_cfa_offset 8
 5453 0032 BD46     		mov	sp, r7
 5454              		.cfi_def_cfa_register 13
 5455              		@ sp needed
 5456 0034 80BD     		pop	{r7, pc}
 5457              		.cfi_endproc
 5458              	.LFE152:
 5459              		.cantunwind
 5460              		.fnend
 5461              		.size	_ZNK6String7toFloatEv, .-_ZNK6String7toFloatEv
 5462 0036 00BF     		.bss
 5463              	_ZZN6StringixEjE19dummy_writable_char:
 5464 0000 00       		.space	1
 5465              		.text
 5466              	.Letext0:
 5467              		.file 2 "core\\WString.h"
 5468              		.file 3 "<built-in>"
 5469              		.section	.debug_info,"",%progbits
 5470              	.Ldebug_info0:
 5471 0000 20280000 		.4byte	0x2820
 5472 0004 0400     		.2byte	0x4
 5473 0006 00000000 		.4byte	.Ldebug_abbrev0
 5474 000a 04       		.byte	0x4
 5475 000b 01       		.uleb128 0x1
 5476 000c 25090000 		.4byte	.LASF187
 5477 0010 04       		.byte	0x4
 5478 0011 82010000 		.4byte	.LASF188
 5479 0015 F90A0000 		.4byte	.LASF189
 5480 0019 00000000 		.4byte	.Ldebug_ranges0+0
 5481 001d 00000000 		.4byte	0
 5482 0021 00000000 		.4byte	.Ldebug_line0
 5483 0025 02       		.uleb128 0x2
 5484 0026 04       		.byte	0x4
 5485 0027 07       		.byte	0x7
 5486 0028 46010000 		.4byte	.LASF0
 5487 002c 03       		.uleb128 0x3
 5488 002d 04       		.byte	0x4
 5489 002e 05       		.byte	0x5
 5490 002f 696E7400 		.ascii	"int\000"
 5491 0033 02       		.uleb128 0x2
 5492 0034 01       		.byte	0x1
 5493 0035 06       		.byte	0x6
 5494 0036 530C0000 		.4byte	.LASF1
 5495 003a 02       		.uleb128 0x2
 5496 003b 01       		.byte	0x1
 5497 003c 08       		.byte	0x8
 5498 003d DB0B0000 		.4byte	.LASF2
 5499 0041 02       		.uleb128 0x2
 5500 0042 02       		.byte	0x2
 5501 0043 05       		.byte	0x5
 5502 0044 CA080000 		.4byte	.LASF3
 5503 0048 02       		.uleb128 0x2
 5504 0049 02       		.byte	0x2
 5505 004a 07       		.byte	0x7
ARM GAS  C:\Users\Bruger\AppData\Local\Temp\ccjLt6bf.s 			page 111


 5506 004b 840C0000 		.4byte	.LASF4
 5507 004f 02       		.uleb128 0x2
 5508 0050 04       		.byte	0x4
 5509 0051 05       		.byte	0x5
 5510 0052 09090000 		.4byte	.LASF5
 5511 0056 02       		.uleb128 0x2
 5512 0057 04       		.byte	0x4
 5513 0058 07       		.byte	0x7
 5514 0059 CB0A0000 		.4byte	.LASF6
 5515 005d 02       		.uleb128 0x2
 5516 005e 08       		.byte	0x8
 5517 005f 05       		.byte	0x5
 5518 0060 E0050000 		.4byte	.LASF7
 5519 0064 02       		.uleb128 0x2
 5520 0065 08       		.byte	0x8
 5521 0066 07       		.byte	0x7
 5522 0067 F1020000 		.4byte	.LASF8
 5523 006b 02       		.uleb128 0x2
 5524 006c 04       		.byte	0x4
 5525 006d 07       		.byte	0x7
 5526 006e C20A0000 		.4byte	.LASF9
 5527 0072 04       		.uleb128 0x4
 5528 0073 04       		.byte	0x4
 5529 0074 05       		.uleb128 0x5
 5530 0075 04       		.byte	0x4
 5531 0076 3A000000 		.4byte	0x3a
 5532 007a 05       		.uleb128 0x5
 5533 007b 04       		.byte	0x4
 5534 007c 80000000 		.4byte	0x80
 5535 0080 02       		.uleb128 0x2
 5536 0081 01       		.byte	0x1
 5537 0082 08       		.byte	0x8
 5538 0083 B9040000 		.4byte	.LASF10
 5539 0087 05       		.uleb128 0x5
 5540 0088 04       		.byte	0x4
 5541 0089 8D000000 		.4byte	0x8d
 5542 008d 06       		.uleb128 0x6
 5543 008e 80000000 		.4byte	0x80
 5544 0092 07       		.uleb128 0x7
 5545 0093 FA000000 		.4byte	.LASF13
 5546 0097 0C       		.byte	0xc
 5547 0098 02       		.byte	0x2
 5548 0099 2D       		.byte	0x2d
 5549 009a B10C0000 		.4byte	0xcb1
 5550 009e 08       		.uleb128 0x8
 5551 009f 11010000 		.4byte	.LASF11
 5552 00a3 02       		.byte	0x2
 5553 00a4 BF       		.byte	0xbf
 5554 00a5 7A000000 		.4byte	0x7a
 5555 00a9 00       		.byte	0
 5556 00aa 02       		.byte	0x2
 5557 00ab 08       		.uleb128 0x8
 5558 00ac F1000000 		.4byte	.LASF12
 5559 00b0 02       		.byte	0x2
 5560 00b1 C0       		.byte	0xc0
 5561 00b2 25000000 		.4byte	0x25
 5562 00b6 04       		.byte	0x4
ARM GAS  C:\Users\Bruger\AppData\Local\Temp\ccjLt6bf.s 			page 112


 5563 00b7 02       		.byte	0x2
 5564 00b8 09       		.uleb128 0x9
 5565 00b9 6C656E00 		.ascii	"len\000"
 5566 00bd 02       		.byte	0x2
 5567 00be C1       		.byte	0xc1
 5568 00bf 25000000 		.4byte	0x25
 5569 00c3 08       		.byte	0x8
 5570 00c4 02       		.byte	0x2
 5571 00c5 0A       		.uleb128 0xa
 5572 00c6 3A080000 		.4byte	.LASF190
 5573 00ca 02       		.byte	0x2
 5574 00cb 32       		.byte	0x32
 5575 00cc B10C0000 		.4byte	0xcb1
 5576 00d0 0B       		.uleb128 0xb
 5577 00d1 670B0000 		.4byte	.LASF132
 5578 00d5 02       		.byte	0x2
 5579 00d6 33       		.byte	0x33
 5580 00d7 B3060000 		.4byte	.LASF191
 5581 00db E3000000 		.4byte	0xe3
 5582 00df E9000000 		.4byte	0xe9
 5583 00e3 0C       		.uleb128 0xc
 5584 00e4 E10C0000 		.4byte	0xce1
 5585 00e8 00       		.byte	0
 5586 00e9 0D       		.uleb128 0xd
 5587 00ea FA000000 		.4byte	.LASF13
 5588 00ee 02       		.byte	0x2
 5589 00ef 3B       		.byte	0x3b
 5590 00f0 F20C0000 		.4byte	0xcf2
 5591 00f4 01       		.byte	0x1
 5592 00f5 FD000000 		.4byte	0xfd
 5593 00f9 08010000 		.4byte	0x108
 5594 00fd 0C       		.uleb128 0xc
 5595 00fe F20C0000 		.4byte	0xcf2
 5596 0102 0E       		.uleb128 0xe
 5597 0103 87000000 		.4byte	0x87
 5598 0107 00       		.byte	0
 5599 0108 0D       		.uleb128 0xd
 5600 0109 FA000000 		.4byte	.LASF13
 5601 010d 02       		.byte	0x2
 5602 010e 3C       		.byte	0x3c
 5603 010f F20C0000 		.4byte	0xcf2
 5604 0113 01       		.byte	0x1
 5605 0114 1C010000 		.4byte	0x11c
 5606 0118 27010000 		.4byte	0x127
 5607 011c 0C       		.uleb128 0xc
 5608 011d F20C0000 		.4byte	0xcf2
 5609 0121 0E       		.uleb128 0xe
 5610 0122 F80C0000 		.4byte	0xcf8
 5611 0126 00       		.byte	0
 5612 0127 0D       		.uleb128 0xd
 5613 0128 FA000000 		.4byte	.LASF13
 5614 012c 02       		.byte	0x2
 5615 012d 3D       		.byte	0x3d
 5616 012e F20C0000 		.4byte	0xcf2
 5617 0132 01       		.byte	0x1
 5618 0133 3B010000 		.4byte	0x13b
 5619 0137 46010000 		.4byte	0x146
ARM GAS  C:\Users\Bruger\AppData\Local\Temp\ccjLt6bf.s 			page 113


 5620 013b 0C       		.uleb128 0xc
 5621 013c F20C0000 		.4byte	0xcf2
 5622 0140 0E       		.uleb128 0xe
 5623 0141 FE0C0000 		.4byte	0xcfe
 5624 0145 00       		.byte	0
 5625 0146 0F       		.uleb128 0xf
 5626 0147 FA000000 		.4byte	.LASF13
 5627 014b 02       		.byte	0x2
 5628 014c 42       		.byte	0x42
 5629 014d F20C0000 		.4byte	0xcf2
 5630 0151 01       		.byte	0x1
 5631 0152 5A010000 		.4byte	0x15a
 5632 0156 65010000 		.4byte	0x165
 5633 015a 0C       		.uleb128 0xc
 5634 015b F20C0000 		.4byte	0xcf2
 5635 015f 0E       		.uleb128 0xe
 5636 0160 80000000 		.4byte	0x80
 5637 0164 00       		.byte	0
 5638 0165 0F       		.uleb128 0xf
 5639 0166 FA000000 		.4byte	.LASF13
 5640 016a 02       		.byte	0x2
 5641 016b 43       		.byte	0x43
 5642 016c F20C0000 		.4byte	0xcf2
 5643 0170 01       		.byte	0x1
 5644 0171 79010000 		.4byte	0x179
 5645 0175 89010000 		.4byte	0x189
 5646 0179 0C       		.uleb128 0xc
 5647 017a F20C0000 		.4byte	0xcf2
 5648 017e 0E       		.uleb128 0xe
 5649 017f 3A000000 		.4byte	0x3a
 5650 0183 0E       		.uleb128 0xe
 5651 0184 3A000000 		.4byte	0x3a
 5652 0188 00       		.byte	0
 5653 0189 0F       		.uleb128 0xf
 5654 018a FA000000 		.4byte	.LASF13
 5655 018e 02       		.byte	0x2
 5656 018f 44       		.byte	0x44
 5657 0190 F20C0000 		.4byte	0xcf2
 5658 0194 01       		.byte	0x1
 5659 0195 9D010000 		.4byte	0x19d
 5660 0199 AD010000 		.4byte	0x1ad
 5661 019d 0C       		.uleb128 0xc
 5662 019e F20C0000 		.4byte	0xcf2
 5663 01a2 0E       		.uleb128 0xe
 5664 01a3 2C000000 		.4byte	0x2c
 5665 01a7 0E       		.uleb128 0xe
 5666 01a8 3A000000 		.4byte	0x3a
 5667 01ac 00       		.byte	0
 5668 01ad 0F       		.uleb128 0xf
 5669 01ae FA000000 		.4byte	.LASF13
 5670 01b2 02       		.byte	0x2
 5671 01b3 45       		.byte	0x45
 5672 01b4 F20C0000 		.4byte	0xcf2
 5673 01b8 01       		.byte	0x1
 5674 01b9 C1010000 		.4byte	0x1c1
 5675 01bd D1010000 		.4byte	0x1d1
 5676 01c1 0C       		.uleb128 0xc
ARM GAS  C:\Users\Bruger\AppData\Local\Temp\ccjLt6bf.s 			page 114


 5677 01c2 F20C0000 		.4byte	0xcf2
 5678 01c6 0E       		.uleb128 0xe
 5679 01c7 25000000 		.4byte	0x25
 5680 01cb 0E       		.uleb128 0xe
 5681 01cc 3A000000 		.4byte	0x3a
 5682 01d0 00       		.byte	0
 5683 01d1 0F       		.uleb128 0xf
 5684 01d2 FA000000 		.4byte	.LASF13
 5685 01d6 02       		.byte	0x2
 5686 01d7 46       		.byte	0x46
 5687 01d8 F20C0000 		.4byte	0xcf2
 5688 01dc 01       		.byte	0x1
 5689 01dd E5010000 		.4byte	0x1e5
 5690 01e1 F5010000 		.4byte	0x1f5
 5691 01e5 0C       		.uleb128 0xc
 5692 01e6 F20C0000 		.4byte	0xcf2
 5693 01ea 0E       		.uleb128 0xe
 5694 01eb 4F000000 		.4byte	0x4f
 5695 01ef 0E       		.uleb128 0xe
 5696 01f0 3A000000 		.4byte	0x3a
 5697 01f4 00       		.byte	0
 5698 01f5 0F       		.uleb128 0xf
 5699 01f6 FA000000 		.4byte	.LASF13
 5700 01fa 02       		.byte	0x2
 5701 01fb 47       		.byte	0x47
 5702 01fc F20C0000 		.4byte	0xcf2
 5703 0200 01       		.byte	0x1
 5704 0201 09020000 		.4byte	0x209
 5705 0205 19020000 		.4byte	0x219
 5706 0209 0C       		.uleb128 0xc
 5707 020a F20C0000 		.4byte	0xcf2
 5708 020e 0E       		.uleb128 0xe
 5709 020f 56000000 		.4byte	0x56
 5710 0213 0E       		.uleb128 0xe
 5711 0214 3A000000 		.4byte	0x3a
 5712 0218 00       		.byte	0
 5713 0219 0F       		.uleb128 0xf
 5714 021a FA000000 		.4byte	.LASF13
 5715 021e 02       		.byte	0x2
 5716 021f 48       		.byte	0x48
 5717 0220 F20C0000 		.4byte	0xcf2
 5718 0224 01       		.byte	0x1
 5719 0225 2D020000 		.4byte	0x22d
 5720 0229 3D020000 		.4byte	0x23d
 5721 022d 0C       		.uleb128 0xc
 5722 022e F20C0000 		.4byte	0xcf2
 5723 0232 0E       		.uleb128 0xe
 5724 0233 0E0D0000 		.4byte	0xd0e
 5725 0237 0E       		.uleb128 0xe
 5726 0238 3A000000 		.4byte	0x3a
 5727 023c 00       		.byte	0
 5728 023d 0F       		.uleb128 0xf
 5729 023e FA000000 		.4byte	.LASF13
 5730 0242 02       		.byte	0x2
 5731 0243 49       		.byte	0x49
 5732 0244 F20C0000 		.4byte	0xcf2
 5733 0248 01       		.byte	0x1
ARM GAS  C:\Users\Bruger\AppData\Local\Temp\ccjLt6bf.s 			page 115


 5734 0249 51020000 		.4byte	0x251
 5735 024d 61020000 		.4byte	0x261
 5736 0251 0C       		.uleb128 0xc
 5737 0252 F20C0000 		.4byte	0xcf2
 5738 0256 0E       		.uleb128 0xe
 5739 0257 150D0000 		.4byte	0xd15
 5740 025b 0E       		.uleb128 0xe
 5741 025c 3A000000 		.4byte	0x3a
 5742 0260 00       		.byte	0
 5743 0261 0D       		.uleb128 0xd
 5744 0262 21030000 		.4byte	.LASF14
 5745 0266 02       		.byte	0x2
 5746 0267 4A       		.byte	0x4a
 5747 0268 72000000 		.4byte	0x72
 5748 026c 01       		.byte	0x1
 5749 026d 75020000 		.4byte	0x275
 5750 0271 80020000 		.4byte	0x280
 5751 0275 0C       		.uleb128 0xc
 5752 0276 F20C0000 		.4byte	0xcf2
 5753 027a 0C       		.uleb128 0xc
 5754 027b 2C000000 		.4byte	0x2c
 5755 027f 00       		.byte	0
 5756 0280 10       		.uleb128 0x10
 5757 0281 BE040000 		.4byte	.LASF15
 5758 0285 02       		.byte	0x2
 5759 0286 50       		.byte	0x50
 5760 0287 40040000 		.4byte	.LASF17
 5761 028b 3A000000 		.4byte	0x3a
 5762 028f 01       		.byte	0x1
 5763 0290 98020000 		.4byte	0x298
 5764 0294 A3020000 		.4byte	0x2a3
 5765 0298 0C       		.uleb128 0xc
 5766 0299 F20C0000 		.4byte	0xcf2
 5767 029d 0E       		.uleb128 0xe
 5768 029e 25000000 		.4byte	0x25
 5769 02a2 00       		.byte	0
 5770 02a3 10       		.uleb128 0x10
 5771 02a4 1E090000 		.4byte	.LASF16
 5772 02a8 02       		.byte	0x2
 5773 02a9 51       		.byte	0x51
 5774 02aa 31010000 		.4byte	.LASF18
 5775 02ae 25000000 		.4byte	0x25
 5776 02b2 01       		.byte	0x1
 5777 02b3 BB020000 		.4byte	0x2bb
 5778 02b7 C1020000 		.4byte	0x2c1
 5779 02bb 0C       		.uleb128 0xc
 5780 02bc E10C0000 		.4byte	0xce1
 5781 02c0 00       		.byte	0
 5782 02c1 10       		.uleb128 0x10
 5783 02c2 DB060000 		.4byte	.LASF19
 5784 02c6 02       		.byte	0x2
 5785 02c7 56       		.byte	0x56
 5786 02c8 0C0D0000 		.4byte	.LASF20
 5787 02cc 1C0D0000 		.4byte	0xd1c
 5788 02d0 01       		.byte	0x1
 5789 02d1 D9020000 		.4byte	0x2d9
 5790 02d5 E4020000 		.4byte	0x2e4
ARM GAS  C:\Users\Bruger\AppData\Local\Temp\ccjLt6bf.s 			page 116


 5791 02d9 0C       		.uleb128 0xc
 5792 02da F20C0000 		.4byte	0xcf2
 5793 02de 0E       		.uleb128 0xe
 5794 02df F80C0000 		.4byte	0xcf8
 5795 02e3 00       		.byte	0
 5796 02e4 10       		.uleb128 0x10
 5797 02e5 DB060000 		.4byte	.LASF19
 5798 02e9 02       		.byte	0x2
 5799 02ea 57       		.byte	0x57
 5800 02eb 38060000 		.4byte	.LASF21
 5801 02ef 1C0D0000 		.4byte	0xd1c
 5802 02f3 01       		.byte	0x1
 5803 02f4 FC020000 		.4byte	0x2fc
 5804 02f8 07030000 		.4byte	0x307
 5805 02fc 0C       		.uleb128 0xc
 5806 02fd F20C0000 		.4byte	0xcf2
 5807 0301 0E       		.uleb128 0xe
 5808 0302 87000000 		.4byte	0x87
 5809 0306 00       		.byte	0
 5810 0307 10       		.uleb128 0x10
 5811 0308 DB060000 		.4byte	.LASF19
 5812 030c 02       		.byte	0x2
 5813 030d 58       		.byte	0x58
 5814 030e F6030000 		.4byte	.LASF22
 5815 0312 1C0D0000 		.4byte	0xd1c
 5816 0316 01       		.byte	0x1
 5817 0317 1F030000 		.4byte	0x31f
 5818 031b 2A030000 		.4byte	0x32a
 5819 031f 0C       		.uleb128 0xc
 5820 0320 F20C0000 		.4byte	0xcf2
 5821 0324 0E       		.uleb128 0xe
 5822 0325 FE0C0000 		.4byte	0xcfe
 5823 0329 00       		.byte	0
 5824 032a 10       		.uleb128 0x10
 5825 032b F10C0000 		.4byte	.LASF23
 5826 032f 02       		.byte	0x2
 5827 0330 63       		.byte	0x63
 5828 0331 C9050000 		.4byte	.LASF24
 5829 0335 3A000000 		.4byte	0x3a
 5830 0339 01       		.byte	0x1
 5831 033a 42030000 		.4byte	0x342
 5832 033e 4D030000 		.4byte	0x34d
 5833 0342 0C       		.uleb128 0xc
 5834 0343 F20C0000 		.4byte	0xcf2
 5835 0347 0E       		.uleb128 0xe
 5836 0348 F80C0000 		.4byte	0xcf8
 5837 034c 00       		.byte	0
 5838 034d 10       		.uleb128 0x10
 5839 034e F10C0000 		.4byte	.LASF23
 5840 0352 02       		.byte	0x2
 5841 0353 64       		.byte	0x64
 5842 0354 DB0C0000 		.4byte	.LASF25
 5843 0358 3A000000 		.4byte	0x3a
 5844 035c 01       		.byte	0x1
 5845 035d 65030000 		.4byte	0x365
 5846 0361 70030000 		.4byte	0x370
 5847 0365 0C       		.uleb128 0xc
ARM GAS  C:\Users\Bruger\AppData\Local\Temp\ccjLt6bf.s 			page 117


 5848 0366 F20C0000 		.4byte	0xcf2
 5849 036a 0E       		.uleb128 0xe
 5850 036b 87000000 		.4byte	0x87
 5851 036f 00       		.byte	0
 5852 0370 10       		.uleb128 0x10
 5853 0371 F10C0000 		.4byte	.LASF23
 5854 0375 02       		.byte	0x2
 5855 0376 65       		.byte	0x65
 5856 0377 8B070000 		.4byte	.LASF26
 5857 037b 3A000000 		.4byte	0x3a
 5858 037f 01       		.byte	0x1
 5859 0380 88030000 		.4byte	0x388
 5860 0384 93030000 		.4byte	0x393
 5861 0388 0C       		.uleb128 0xc
 5862 0389 F20C0000 		.4byte	0xcf2
 5863 038d 0E       		.uleb128 0xe
 5864 038e 80000000 		.4byte	0x80
 5865 0392 00       		.byte	0
 5866 0393 10       		.uleb128 0x10
 5867 0394 F10C0000 		.4byte	.LASF23
 5868 0398 02       		.byte	0x2
 5869 0399 66       		.byte	0x66
 5870 039a C7070000 		.4byte	.LASF27
 5871 039e 3A000000 		.4byte	0x3a
 5872 03a2 01       		.byte	0x1
 5873 03a3 AB030000 		.4byte	0x3ab
 5874 03a7 B6030000 		.4byte	0x3b6
 5875 03ab 0C       		.uleb128 0xc
 5876 03ac F20C0000 		.4byte	0xcf2
 5877 03b0 0E       		.uleb128 0xe
 5878 03b1 3A000000 		.4byte	0x3a
 5879 03b5 00       		.byte	0
 5880 03b6 10       		.uleb128 0x10
 5881 03b7 F10C0000 		.4byte	.LASF23
 5882 03bb 02       		.byte	0x2
 5883 03bc 67       		.byte	0x67
 5884 03bd DB070000 		.4byte	.LASF28
 5885 03c1 3A000000 		.4byte	0x3a
 5886 03c5 01       		.byte	0x1
 5887 03c6 CE030000 		.4byte	0x3ce
 5888 03ca D9030000 		.4byte	0x3d9
 5889 03ce 0C       		.uleb128 0xc
 5890 03cf F20C0000 		.4byte	0xcf2
 5891 03d3 0E       		.uleb128 0xe
 5892 03d4 2C000000 		.4byte	0x2c
 5893 03d8 00       		.byte	0
 5894 03d9 10       		.uleb128 0x10
 5895 03da F10C0000 		.4byte	.LASF23
 5896 03de 02       		.byte	0x2
 5897 03df 68       		.byte	0x68
 5898 03e0 EF070000 		.4byte	.LASF29
 5899 03e4 3A000000 		.4byte	0x3a
 5900 03e8 01       		.byte	0x1
 5901 03e9 F1030000 		.4byte	0x3f1
 5902 03ed FC030000 		.4byte	0x3fc
 5903 03f1 0C       		.uleb128 0xc
 5904 03f2 F20C0000 		.4byte	0xcf2
ARM GAS  C:\Users\Bruger\AppData\Local\Temp\ccjLt6bf.s 			page 118


 5905 03f6 0E       		.uleb128 0xe
 5906 03f7 25000000 		.4byte	0x25
 5907 03fb 00       		.byte	0
 5908 03fc 10       		.uleb128 0x10
 5909 03fd F10C0000 		.4byte	.LASF23
 5910 0401 02       		.byte	0x2
 5911 0402 69       		.byte	0x69
 5912 0403 03080000 		.4byte	.LASF30
 5913 0407 3A000000 		.4byte	0x3a
 5914 040b 01       		.byte	0x1
 5915 040c 14040000 		.4byte	0x414
 5916 0410 1F040000 		.4byte	0x41f
 5917 0414 0C       		.uleb128 0xc
 5918 0415 F20C0000 		.4byte	0xcf2
 5919 0419 0E       		.uleb128 0xe
 5920 041a 4F000000 		.4byte	0x4f
 5921 041e 00       		.byte	0
 5922 041f 10       		.uleb128 0x10
 5923 0420 F10C0000 		.4byte	.LASF23
 5924 0424 02       		.byte	0x2
 5925 0425 6A       		.byte	0x6a
 5926 0426 17080000 		.4byte	.LASF31
 5927 042a 3A000000 		.4byte	0x3a
 5928 042e 01       		.byte	0x1
 5929 042f 37040000 		.4byte	0x437
 5930 0433 42040000 		.4byte	0x442
 5931 0437 0C       		.uleb128 0xc
 5932 0438 F20C0000 		.4byte	0xcf2
 5933 043c 0E       		.uleb128 0xe
 5934 043d 56000000 		.4byte	0x56
 5935 0441 00       		.byte	0
 5936 0442 10       		.uleb128 0x10
 5937 0443 F10C0000 		.4byte	.LASF23
 5938 0447 02       		.byte	0x2
 5939 0448 6B       		.byte	0x6b
 5940 0449 B3070000 		.4byte	.LASF32
 5941 044d 3A000000 		.4byte	0x3a
 5942 0451 01       		.byte	0x1
 5943 0452 5A040000 		.4byte	0x45a
 5944 0456 65040000 		.4byte	0x465
 5945 045a 0C       		.uleb128 0xc
 5946 045b F20C0000 		.4byte	0xcf2
 5947 045f 0E       		.uleb128 0xe
 5948 0460 0E0D0000 		.4byte	0xd0e
 5949 0464 00       		.byte	0
 5950 0465 10       		.uleb128 0x10
 5951 0466 F10C0000 		.4byte	.LASF23
 5952 046a 02       		.byte	0x2
 5953 046b 6C       		.byte	0x6c
 5954 046c 9F070000 		.4byte	.LASF33
 5955 0470 3A000000 		.4byte	0x3a
 5956 0474 01       		.byte	0x1
 5957 0475 7D040000 		.4byte	0x47d
 5958 0479 88040000 		.4byte	0x488
 5959 047d 0C       		.uleb128 0xc
 5960 047e F20C0000 		.4byte	0xcf2
 5961 0482 0E       		.uleb128 0xe
ARM GAS  C:\Users\Bruger\AppData\Local\Temp\ccjLt6bf.s 			page 119


 5962 0483 150D0000 		.4byte	0xd15
 5963 0487 00       		.byte	0
 5964 0488 10       		.uleb128 0x10
 5965 0489 F10C0000 		.4byte	.LASF23
 5966 048d 02       		.byte	0x2
 5967 048e 6D       		.byte	0x6d
 5968 048f 6A0A0000 		.4byte	.LASF34
 5969 0493 3A000000 		.4byte	0x3a
 5970 0497 01       		.byte	0x1
 5971 0498 A0040000 		.4byte	0x4a0
 5972 049c AB040000 		.4byte	0x4ab
 5973 04a0 0C       		.uleb128 0xc
 5974 04a1 F20C0000 		.4byte	0xcf2
 5975 04a5 0E       		.uleb128 0xe
 5976 04a6 FE0C0000 		.4byte	0xcfe
 5977 04aa 00       		.byte	0
 5978 04ab 10       		.uleb128 0x10
 5979 04ac 81040000 		.4byte	.LASF35
 5980 04b0 02       		.byte	0x2
 5981 04b1 71       		.byte	0x71
 5982 04b2 18010000 		.4byte	.LASF36
 5983 04b6 1C0D0000 		.4byte	0xd1c
 5984 04ba 01       		.byte	0x1
 5985 04bb C3040000 		.4byte	0x4c3
 5986 04bf CE040000 		.4byte	0x4ce
 5987 04c3 0C       		.uleb128 0xc
 5988 04c4 F20C0000 		.4byte	0xcf2
 5989 04c8 0E       		.uleb128 0xe
 5990 04c9 F80C0000 		.4byte	0xcf8
 5991 04cd 00       		.byte	0
 5992 04ce 10       		.uleb128 0x10
 5993 04cf 81040000 		.4byte	.LASF35
 5994 04d3 02       		.byte	0x2
 5995 04d4 72       		.byte	0x72
 5996 04d5 71010000 		.4byte	.LASF37
 5997 04d9 1C0D0000 		.4byte	0xd1c
 5998 04dd 01       		.byte	0x1
 5999 04de E6040000 		.4byte	0x4e6
 6000 04e2 F1040000 		.4byte	0x4f1
 6001 04e6 0C       		.uleb128 0xc
 6002 04e7 F20C0000 		.4byte	0xcf2
 6003 04eb 0E       		.uleb128 0xe
 6004 04ec 87000000 		.4byte	0x87
 6005 04f0 00       		.byte	0
 6006 04f1 10       		.uleb128 0x10
 6007 04f2 81040000 		.4byte	.LASF35
 6008 04f6 02       		.byte	0x2
 6009 04f7 73       		.byte	0x73
 6010 04f8 24020000 		.4byte	.LASF38
 6011 04fc 1C0D0000 		.4byte	0xd1c
 6012 0500 01       		.byte	0x1
 6013 0501 09050000 		.4byte	0x509
 6014 0505 14050000 		.4byte	0x514
 6015 0509 0C       		.uleb128 0xc
 6016 050a F20C0000 		.4byte	0xcf2
 6017 050e 0E       		.uleb128 0xe
 6018 050f 80000000 		.4byte	0x80
ARM GAS  C:\Users\Bruger\AppData\Local\Temp\ccjLt6bf.s 			page 120


 6019 0513 00       		.byte	0
 6020 0514 10       		.uleb128 0x10
 6021 0515 81040000 		.4byte	.LASF35
 6022 0519 02       		.byte	0x2
 6023 051a 74       		.byte	0x74
 6024 051b 51020000 		.4byte	.LASF39
 6025 051f 1C0D0000 		.4byte	0xd1c
 6026 0523 01       		.byte	0x1
 6027 0524 2C050000 		.4byte	0x52c
 6028 0528 37050000 		.4byte	0x537
 6029 052c 0C       		.uleb128 0xc
 6030 052d F20C0000 		.4byte	0xcf2
 6031 0531 0E       		.uleb128 0xe
 6032 0532 3A000000 		.4byte	0x3a
 6033 0536 00       		.byte	0
 6034 0537 10       		.uleb128 0x10
 6035 0538 81040000 		.4byte	.LASF35
 6036 053c 02       		.byte	0x2
 6037 053d 75       		.byte	0x75
 6038 053e 60020000 		.4byte	.LASF40
 6039 0542 1C0D0000 		.4byte	0xd1c
 6040 0546 01       		.byte	0x1
 6041 0547 4F050000 		.4byte	0x54f
 6042 054b 5A050000 		.4byte	0x55a
 6043 054f 0C       		.uleb128 0xc
 6044 0550 F20C0000 		.4byte	0xcf2
 6045 0554 0E       		.uleb128 0xe
 6046 0555 2C000000 		.4byte	0x2c
 6047 0559 00       		.byte	0
 6048 055a 10       		.uleb128 0x10
 6049 055b 81040000 		.4byte	.LASF35
 6050 055f 02       		.byte	0x2
 6051 0560 76       		.byte	0x76
 6052 0561 6F020000 		.4byte	.LASF41
 6053 0565 1C0D0000 		.4byte	0xd1c
 6054 0569 01       		.byte	0x1
 6055 056a 72050000 		.4byte	0x572
 6056 056e 7D050000 		.4byte	0x57d
 6057 0572 0C       		.uleb128 0xc
 6058 0573 F20C0000 		.4byte	0xcf2
 6059 0577 0E       		.uleb128 0xe
 6060 0578 25000000 		.4byte	0x25
 6061 057c 00       		.byte	0
 6062 057d 10       		.uleb128 0x10
 6063 057e 81040000 		.4byte	.LASF35
 6064 0582 02       		.byte	0x2
 6065 0583 77       		.byte	0x77
 6066 0584 7E020000 		.4byte	.LASF42
 6067 0588 1C0D0000 		.4byte	0xd1c
 6068 058c 01       		.byte	0x1
 6069 058d 95050000 		.4byte	0x595
 6070 0591 A0050000 		.4byte	0x5a0
 6071 0595 0C       		.uleb128 0xc
 6072 0596 F20C0000 		.4byte	0xcf2
 6073 059a 0E       		.uleb128 0xe
 6074 059b 4F000000 		.4byte	0x4f
 6075 059f 00       		.byte	0
ARM GAS  C:\Users\Bruger\AppData\Local\Temp\ccjLt6bf.s 			page 121


 6076 05a0 10       		.uleb128 0x10
 6077 05a1 81040000 		.4byte	.LASF35
 6078 05a5 02       		.byte	0x2
 6079 05a6 78       		.byte	0x78
 6080 05a7 8D020000 		.4byte	.LASF43
 6081 05ab 1C0D0000 		.4byte	0xd1c
 6082 05af 01       		.byte	0x1
 6083 05b0 B8050000 		.4byte	0x5b8
 6084 05b4 C3050000 		.4byte	0x5c3
 6085 05b8 0C       		.uleb128 0xc
 6086 05b9 F20C0000 		.4byte	0xcf2
 6087 05bd 0E       		.uleb128 0xe
 6088 05be 56000000 		.4byte	0x56
 6089 05c2 00       		.byte	0
 6090 05c3 10       		.uleb128 0x10
 6091 05c4 81040000 		.4byte	.LASF35
 6092 05c8 02       		.byte	0x2
 6093 05c9 79       		.byte	0x79
 6094 05ca 42020000 		.4byte	.LASF44
 6095 05ce 1C0D0000 		.4byte	0xd1c
 6096 05d2 01       		.byte	0x1
 6097 05d3 DB050000 		.4byte	0x5db
 6098 05d7 E6050000 		.4byte	0x5e6
 6099 05db 0C       		.uleb128 0xc
 6100 05dc F20C0000 		.4byte	0xcf2
 6101 05e0 0E       		.uleb128 0xe
 6102 05e1 0E0D0000 		.4byte	0xd0e
 6103 05e5 00       		.byte	0
 6104 05e6 10       		.uleb128 0x10
 6105 05e7 81040000 		.4byte	.LASF35
 6106 05eb 02       		.byte	0x2
 6107 05ec 7A       		.byte	0x7a
 6108 05ed 33020000 		.4byte	.LASF45
 6109 05f1 1C0D0000 		.4byte	0xd1c
 6110 05f5 01       		.byte	0x1
 6111 05f6 FE050000 		.4byte	0x5fe
 6112 05fa 09060000 		.4byte	0x609
 6113 05fe 0C       		.uleb128 0xc
 6114 05ff F20C0000 		.4byte	0xcf2
 6115 0603 0E       		.uleb128 0xe
 6116 0604 150D0000 		.4byte	0xd15
 6117 0608 00       		.byte	0
 6118 0609 10       		.uleb128 0x10
 6119 060a 81040000 		.4byte	.LASF35
 6120 060e 02       		.byte	0x2
 6121 060f 7B       		.byte	0x7b
 6122 0610 C6040000 		.4byte	.LASF46
 6123 0614 1C0D0000 		.4byte	0xd1c
 6124 0618 01       		.byte	0x1
 6125 0619 21060000 		.4byte	0x621
 6126 061d 2C060000 		.4byte	0x62c
 6127 0621 0C       		.uleb128 0xc
 6128 0622 F20C0000 		.4byte	0xcf2
 6129 0626 0E       		.uleb128 0xe
 6130 0627 FE0C0000 		.4byte	0xcfe
 6131 062b 00       		.byte	0
 6132 062c 10       		.uleb128 0x10
ARM GAS  C:\Users\Bruger\AppData\Local\Temp\ccjLt6bf.s 			page 122


 6133 062d 97050000 		.4byte	.LASF47
 6134 0631 02       		.byte	0x2
 6135 0632 8A       		.byte	0x8a
 6136 0633 520A0000 		.4byte	.LASF48
 6137 0637 C5000000 		.4byte	0xc5
 6138 063b 01       		.byte	0x1
 6139 063c 44060000 		.4byte	0x644
 6140 0640 4A060000 		.4byte	0x64a
 6141 0644 0C       		.uleb128 0xc
 6142 0645 E10C0000 		.4byte	0xce1
 6143 0649 00       		.byte	0
 6144 064a 10       		.uleb128 0x10
 6145 064b C00C0000 		.4byte	.LASF49
 6146 064f 02       		.byte	0x2
 6147 0650 8B       		.byte	0x8b
 6148 0651 2D0A0000 		.4byte	.LASF50
 6149 0655 2C000000 		.4byte	0x2c
 6150 0659 01       		.byte	0x1
 6151 065a 62060000 		.4byte	0x662
 6152 065e 6D060000 		.4byte	0x66d
 6153 0662 0C       		.uleb128 0xc
 6154 0663 E10C0000 		.4byte	0xce1
 6155 0667 0E       		.uleb128 0xe
 6156 0668 F80C0000 		.4byte	0xcf8
 6157 066c 00       		.byte	0
 6158 066d 10       		.uleb128 0x10
 6159 066e 7A040000 		.4byte	.LASF51
 6160 0672 02       		.byte	0x2
 6161 0673 8C       		.byte	0x8c
 6162 0674 0C020000 		.4byte	.LASF52
 6163 0678 3A000000 		.4byte	0x3a
 6164 067c 01       		.byte	0x1
 6165 067d 85060000 		.4byte	0x685
 6166 0681 90060000 		.4byte	0x690
 6167 0685 0C       		.uleb128 0xc
 6168 0686 E10C0000 		.4byte	0xce1
 6169 068a 0E       		.uleb128 0xe
 6170 068b F80C0000 		.4byte	0xcf8
 6171 068f 00       		.byte	0
 6172 0690 10       		.uleb128 0x10
 6173 0691 7A040000 		.4byte	.LASF51
 6174 0695 02       		.byte	0x2
 6175 0696 8D       		.byte	0x8d
 6176 0697 9C060000 		.4byte	.LASF53
 6177 069b 3A000000 		.4byte	0x3a
 6178 069f 01       		.byte	0x1
 6179 06a0 A8060000 		.4byte	0x6a8
 6180 06a4 B3060000 		.4byte	0x6b3
 6181 06a8 0C       		.uleb128 0xc
 6182 06a9 E10C0000 		.4byte	0xce1
 6183 06ad 0E       		.uleb128 0xe
 6184 06ae 87000000 		.4byte	0x87
 6185 06b2 00       		.byte	0
 6186 06b3 10       		.uleb128 0x10
 6187 06b4 22070000 		.4byte	.LASF54
 6188 06b8 02       		.byte	0x2
 6189 06b9 8E       		.byte	0x8e
ARM GAS  C:\Users\Bruger\AppData\Local\Temp\ccjLt6bf.s 			page 123


 6190 06ba E90B0000 		.4byte	.LASF55
 6191 06be 3A000000 		.4byte	0x3a
 6192 06c2 01       		.byte	0x1
 6193 06c3 CB060000 		.4byte	0x6cb
 6194 06c7 D6060000 		.4byte	0x6d6
 6195 06cb 0C       		.uleb128 0xc
 6196 06cc E10C0000 		.4byte	0xce1
 6197 06d0 0E       		.uleb128 0xe
 6198 06d1 F80C0000 		.4byte	0xcf8
 6199 06d5 00       		.byte	0
 6200 06d6 10       		.uleb128 0x10
 6201 06d7 22070000 		.4byte	.LASF54
 6202 06db 02       		.byte	0x2
 6203 06dc 8F       		.byte	0x8f
 6204 06dd 5C060000 		.4byte	.LASF56
 6205 06e1 3A000000 		.4byte	0x3a
 6206 06e5 01       		.byte	0x1
 6207 06e6 EE060000 		.4byte	0x6ee
 6208 06ea F9060000 		.4byte	0x6f9
 6209 06ee 0C       		.uleb128 0xc
 6210 06ef E10C0000 		.4byte	0xce1
 6211 06f3 0E       		.uleb128 0xe
 6212 06f4 87000000 		.4byte	0x87
 6213 06f8 00       		.byte	0
 6214 06f9 10       		.uleb128 0x10
 6215 06fa 060A0000 		.4byte	.LASF57
 6216 06fe 02       		.byte	0x2
 6217 06ff 90       		.byte	0x90
 6218 0700 F4060000 		.4byte	.LASF58
 6219 0704 3A000000 		.4byte	0x3a
 6220 0708 01       		.byte	0x1
 6221 0709 11070000 		.4byte	0x711
 6222 070d 1C070000 		.4byte	0x71c
 6223 0711 0C       		.uleb128 0xc
 6224 0712 E10C0000 		.4byte	0xce1
 6225 0716 0E       		.uleb128 0xe
 6226 0717 F80C0000 		.4byte	0xcf8
 6227 071b 00       		.byte	0
 6228 071c 10       		.uleb128 0x10
 6229 071d 060A0000 		.4byte	.LASF57
 6230 0721 02       		.byte	0x2
 6231 0722 91       		.byte	0x91
 6232 0723 B8010000 		.4byte	.LASF59
 6233 0727 3A000000 		.4byte	0x3a
 6234 072b 01       		.byte	0x1
 6235 072c 34070000 		.4byte	0x734
 6236 0730 3F070000 		.4byte	0x73f
 6237 0734 0C       		.uleb128 0xc
 6238 0735 E10C0000 		.4byte	0xce1
 6239 0739 0E       		.uleb128 0xe
 6240 073a 87000000 		.4byte	0x87
 6241 073e 00       		.byte	0
 6242 073f 10       		.uleb128 0x10
 6243 0740 D1060000 		.4byte	.LASF60
 6244 0744 02       		.byte	0x2
 6245 0745 92       		.byte	0x92
 6246 0746 56070000 		.4byte	.LASF61
ARM GAS  C:\Users\Bruger\AppData\Local\Temp\ccjLt6bf.s 			page 124


 6247 074a 3A000000 		.4byte	0x3a
 6248 074e 01       		.byte	0x1
 6249 074f 57070000 		.4byte	0x757
 6250 0753 62070000 		.4byte	0x762
 6251 0757 0C       		.uleb128 0xc
 6252 0758 E10C0000 		.4byte	0xce1
 6253 075c 0E       		.uleb128 0xe
 6254 075d F80C0000 		.4byte	0xcf8
 6255 0761 00       		.byte	0
 6256 0762 10       		.uleb128 0x10
 6257 0763 E5060000 		.4byte	.LASF62
 6258 0767 02       		.byte	0x2
 6259 0768 93       		.byte	0x93
 6260 0769 940A0000 		.4byte	.LASF63
 6261 076d 3A000000 		.4byte	0x3a
 6262 0771 01       		.byte	0x1
 6263 0772 7A070000 		.4byte	0x77a
 6264 0776 85070000 		.4byte	0x785
 6265 077a 0C       		.uleb128 0xc
 6266 077b E10C0000 		.4byte	0xce1
 6267 077f 0E       		.uleb128 0xe
 6268 0780 F80C0000 		.4byte	0xcf8
 6269 0784 00       		.byte	0
 6270 0785 10       		.uleb128 0x10
 6271 0786 51060000 		.4byte	.LASF64
 6272 078a 02       		.byte	0x2
 6273 078b 94       		.byte	0x94
 6274 078c 21050000 		.4byte	.LASF65
 6275 0790 3A000000 		.4byte	0x3a
 6276 0794 01       		.byte	0x1
 6277 0795 9D070000 		.4byte	0x79d
 6278 0799 A8070000 		.4byte	0x7a8
 6279 079d 0C       		.uleb128 0xc
 6280 079e E10C0000 		.4byte	0xce1
 6281 07a2 0E       		.uleb128 0xe
 6282 07a3 F80C0000 		.4byte	0xcf8
 6283 07a7 00       		.byte	0
 6284 07a8 10       		.uleb128 0x10
 6285 07a9 95080000 		.4byte	.LASF66
 6286 07ad 02       		.byte	0x2
 6287 07ae 95       		.byte	0x95
 6288 07af CA090000 		.4byte	.LASF67
 6289 07b3 3A000000 		.4byte	0x3a
 6290 07b7 01       		.byte	0x1
 6291 07b8 C0070000 		.4byte	0x7c0
 6292 07bc CB070000 		.4byte	0x7cb
 6293 07c0 0C       		.uleb128 0xc
 6294 07c1 E10C0000 		.4byte	0xce1
 6295 07c5 0E       		.uleb128 0xe
 6296 07c6 F80C0000 		.4byte	0xcf8
 6297 07ca 00       		.byte	0
 6298 07cb 10       		.uleb128 0x10
 6299 07cc A0080000 		.4byte	.LASF68
 6300 07d0 02       		.byte	0x2
 6301 07d1 96       		.byte	0x96
 6302 07d2 DD090000 		.4byte	.LASF69
 6303 07d6 3A000000 		.4byte	0x3a
ARM GAS  C:\Users\Bruger\AppData\Local\Temp\ccjLt6bf.s 			page 125


 6304 07da 01       		.byte	0x1
 6305 07db E3070000 		.4byte	0x7e3
 6306 07df EE070000 		.4byte	0x7ee
 6307 07e3 0C       		.uleb128 0xc
 6308 07e4 E10C0000 		.4byte	0xce1
 6309 07e8 0E       		.uleb128 0xe
 6310 07e9 F80C0000 		.4byte	0xcf8
 6311 07ed 00       		.byte	0
 6312 07ee 10       		.uleb128 0x10
 6313 07ef 65030000 		.4byte	.LASF70
 6314 07f3 02       		.byte	0x2
 6315 07f4 97       		.byte	0x97
 6316 07f5 EF010000 		.4byte	.LASF71
 6317 07f9 3A000000 		.4byte	0x3a
 6318 07fd 01       		.byte	0x1
 6319 07fe 06080000 		.4byte	0x806
 6320 0802 11080000 		.4byte	0x811
 6321 0806 0C       		.uleb128 0xc
 6322 0807 E10C0000 		.4byte	0xce1
 6323 080b 0E       		.uleb128 0xe
 6324 080c F80C0000 		.4byte	0xcf8
 6325 0810 00       		.byte	0
 6326 0811 10       		.uleb128 0x10
 6327 0812 65030000 		.4byte	.LASF70
 6328 0816 02       		.byte	0x2
 6329 0817 98       		.byte	0x98
 6330 0818 53010000 		.4byte	.LASF72
 6331 081c 3A000000 		.4byte	0x3a
 6332 0820 01       		.byte	0x1
 6333 0821 29080000 		.4byte	0x829
 6334 0825 39080000 		.4byte	0x839
 6335 0829 0C       		.uleb128 0xc
 6336 082a E10C0000 		.4byte	0xce1
 6337 082e 0E       		.uleb128 0xe
 6338 082f F80C0000 		.4byte	0xcf8
 6339 0833 0E       		.uleb128 0xe
 6340 0834 25000000 		.4byte	0x25
 6341 0838 00       		.byte	0
 6342 0839 10       		.uleb128 0x10
 6343 083a 66050000 		.4byte	.LASF73
 6344 083e 02       		.byte	0x2
 6345 083f 99       		.byte	0x99
 6346 0840 21000000 		.4byte	.LASF74
 6347 0844 3A000000 		.4byte	0x3a
 6348 0848 01       		.byte	0x1
 6349 0849 51080000 		.4byte	0x851
 6350 084d 5C080000 		.4byte	0x85c
 6351 0851 0C       		.uleb128 0xc
 6352 0852 E10C0000 		.4byte	0xce1
 6353 0856 0E       		.uleb128 0xe
 6354 0857 F80C0000 		.4byte	0xcf8
 6355 085b 00       		.byte	0
 6356 085c 10       		.uleb128 0x10
 6357 085d 260A0000 		.4byte	.LASF75
 6358 0861 02       		.byte	0x2
 6359 0862 9C       		.byte	0x9c
 6360 0863 93010000 		.4byte	.LASF76
ARM GAS  C:\Users\Bruger\AppData\Local\Temp\ccjLt6bf.s 			page 126


 6361 0867 80000000 		.4byte	0x80
 6362 086b 01       		.byte	0x1
 6363 086c 74080000 		.4byte	0x874
 6364 0870 7F080000 		.4byte	0x87f
 6365 0874 0C       		.uleb128 0xc
 6366 0875 E10C0000 		.4byte	0xce1
 6367 0879 0E       		.uleb128 0xe
 6368 087a 25000000 		.4byte	0x25
 6369 087e 00       		.byte	0
 6370 087f 11       		.uleb128 0x11
 6371 0880 E7020000 		.4byte	.LASF77
 6372 0884 02       		.byte	0x2
 6373 0885 9D       		.byte	0x9d
 6374 0886 70030000 		.4byte	.LASF82
 6375 088a 01       		.byte	0x1
 6376 088b 93080000 		.4byte	0x893
 6377 088f A3080000 		.4byte	0x8a3
 6378 0893 0C       		.uleb128 0xc
 6379 0894 F20C0000 		.4byte	0xcf2
 6380 0898 0E       		.uleb128 0xe
 6381 0899 25000000 		.4byte	0x25
 6382 089d 0E       		.uleb128 0xe
 6383 089e 80000000 		.4byte	0x80
 6384 08a2 00       		.byte	0
 6385 08a3 10       		.uleb128 0x10
 6386 08a4 BF090000 		.4byte	.LASF78
 6387 08a8 02       		.byte	0x2
 6388 08a9 9E       		.byte	0x9e
 6389 08aa 160A0000 		.4byte	.LASF79
 6390 08ae 80000000 		.4byte	0x80
 6391 08b2 01       		.byte	0x1
 6392 08b3 BB080000 		.4byte	0x8bb
 6393 08b7 C6080000 		.4byte	0x8c6
 6394 08bb 0C       		.uleb128 0xc
 6395 08bc E10C0000 		.4byte	0xce1
 6396 08c0 0E       		.uleb128 0xe
 6397 08c1 25000000 		.4byte	0x25
 6398 08c5 00       		.byte	0
 6399 08c6 10       		.uleb128 0x10
 6400 08c7 BF090000 		.4byte	.LASF78
 6401 08cb 02       		.byte	0x2
 6402 08cc 9F       		.byte	0x9f
 6403 08cd 2B080000 		.4byte	.LASF80
 6404 08d1 220D0000 		.4byte	0xd22
 6405 08d5 01       		.byte	0x1
 6406 08d6 DE080000 		.4byte	0x8de
 6407 08da E9080000 		.4byte	0x8e9
 6408 08de 0C       		.uleb128 0xc
 6409 08df F20C0000 		.4byte	0xcf2
 6410 08e3 0E       		.uleb128 0xe
 6411 08e4 25000000 		.4byte	0x25
 6412 08e8 00       		.byte	0
 6413 08e9 11       		.uleb128 0x11
 6414 08ea 09000000 		.4byte	.LASF81
 6415 08ee 02       		.byte	0x2
 6416 08ef A0       		.byte	0xa0
 6417 08f0 7D050000 		.4byte	.LASF83
ARM GAS  C:\Users\Bruger\AppData\Local\Temp\ccjLt6bf.s 			page 127


 6418 08f4 01       		.byte	0x1
 6419 08f5 FD080000 		.4byte	0x8fd
 6420 08f9 12090000 		.4byte	0x912
 6421 08fd 0C       		.uleb128 0xc
 6422 08fe E10C0000 		.4byte	0xce1
 6423 0902 0E       		.uleb128 0xe
 6424 0903 74000000 		.4byte	0x74
 6425 0907 0E       		.uleb128 0xe
 6426 0908 25000000 		.4byte	0x25
 6427 090c 0E       		.uleb128 0xe
 6428 090d 25000000 		.4byte	0x25
 6429 0911 00       		.byte	0
 6430 0912 11       		.uleb128 0x11
 6431 0913 B40C0000 		.4byte	.LASF84
 6432 0917 02       		.byte	0x2
 6433 0918 A1       		.byte	0xa1
 6434 0919 900B0000 		.4byte	.LASF85
 6435 091d 01       		.byte	0x1
 6436 091e 26090000 		.4byte	0x926
 6437 0922 3B090000 		.4byte	0x93b
 6438 0926 0C       		.uleb128 0xc
 6439 0927 E10C0000 		.4byte	0xce1
 6440 092b 0E       		.uleb128 0xe
 6441 092c 7A000000 		.4byte	0x7a
 6442 0930 0E       		.uleb128 0xe
 6443 0931 25000000 		.4byte	0x25
 6444 0935 0E       		.uleb128 0xe
 6445 0936 25000000 		.4byte	0x25
 6446 093a 00       		.byte	0
 6447 093b 10       		.uleb128 0x10
 6448 093c 69070000 		.4byte	.LASF86
 6449 0940 02       		.byte	0x2
 6450 0941 A3       		.byte	0xa3
 6451 0942 81080000 		.4byte	.LASF87
 6452 0946 87000000 		.4byte	0x87
 6453 094a 01       		.byte	0x1
 6454 094b 53090000 		.4byte	0x953
 6455 094f 59090000 		.4byte	0x959
 6456 0953 0C       		.uleb128 0xc
 6457 0954 E10C0000 		.4byte	0xce1
 6458 0958 00       		.byte	0
 6459 0959 10       		.uleb128 0x10
 6460 095a AC0C0000 		.4byte	.LASF88
 6461 095e 02       		.byte	0x2
 6462 095f A6       		.byte	0xa6
 6463 0960 8F030000 		.4byte	.LASF89
 6464 0964 2C000000 		.4byte	0x2c
 6465 0968 01       		.byte	0x1
 6466 0969 71090000 		.4byte	0x971
 6467 096d 7C090000 		.4byte	0x97c
 6468 0971 0C       		.uleb128 0xc
 6469 0972 E10C0000 		.4byte	0xce1
 6470 0976 0E       		.uleb128 0xe
 6471 0977 80000000 		.4byte	0x80
 6472 097b 00       		.byte	0
 6473 097c 10       		.uleb128 0x10
 6474 097d AC0C0000 		.4byte	.LASF88
ARM GAS  C:\Users\Bruger\AppData\Local\Temp\ccjLt6bf.s 			page 128


 6475 0981 02       		.byte	0x2
 6476 0982 A7       		.byte	0xa7
 6477 0983 6F070000 		.4byte	.LASF90
 6478 0987 2C000000 		.4byte	0x2c
 6479 098b 01       		.byte	0x1
 6480 098c 94090000 		.4byte	0x994
 6481 0990 A4090000 		.4byte	0x9a4
 6482 0994 0C       		.uleb128 0xc
 6483 0995 E10C0000 		.4byte	0xce1
 6484 0999 0E       		.uleb128 0xe
 6485 099a 80000000 		.4byte	0x80
 6486 099e 0E       		.uleb128 0xe
 6487 099f 25000000 		.4byte	0x25
 6488 09a3 00       		.byte	0
 6489 09a4 10       		.uleb128 0x10
 6490 09a5 AC0C0000 		.4byte	.LASF88
 6491 09a9 02       		.byte	0x2
 6492 09aa A8       		.byte	0xa8
 6493 09ab D4080000 		.4byte	.LASF91
 6494 09af 2C000000 		.4byte	0x2c
 6495 09b3 01       		.byte	0x1
 6496 09b4 BC090000 		.4byte	0x9bc
 6497 09b8 C7090000 		.4byte	0x9c7
 6498 09bc 0C       		.uleb128 0xc
 6499 09bd E10C0000 		.4byte	0xce1
 6500 09c1 0E       		.uleb128 0xe
 6501 09c2 F80C0000 		.4byte	0xcf8
 6502 09c6 00       		.byte	0
 6503 09c7 10       		.uleb128 0x10
 6504 09c8 AC0C0000 		.4byte	.LASF88
 6505 09cc 02       		.byte	0x2
 6506 09cd A9       		.byte	0xa9
 6507 09ce CA010000 		.4byte	.LASF92
 6508 09d2 2C000000 		.4byte	0x2c
 6509 09d6 01       		.byte	0x1
 6510 09d7 DF090000 		.4byte	0x9df
 6511 09db EF090000 		.4byte	0x9ef
 6512 09df 0C       		.uleb128 0xc
 6513 09e0 E10C0000 		.4byte	0xce1
 6514 09e4 0E       		.uleb128 0xe
 6515 09e5 F80C0000 		.4byte	0xcf8
 6516 09e9 0E       		.uleb128 0xe
 6517 09ea 25000000 		.4byte	0x25
 6518 09ee 00       		.byte	0
 6519 09ef 10       		.uleb128 0x10
 6520 09f0 FC0B0000 		.4byte	.LASF93
 6521 09f4 02       		.byte	0x2
 6522 09f5 AA       		.byte	0xaa
 6523 09f6 180C0000 		.4byte	.LASF94
 6524 09fa 2C000000 		.4byte	0x2c
 6525 09fe 01       		.byte	0x1
 6526 09ff 070A0000 		.4byte	0xa07
 6527 0a03 120A0000 		.4byte	0xa12
 6528 0a07 0C       		.uleb128 0xc
 6529 0a08 E10C0000 		.4byte	0xce1
 6530 0a0c 0E       		.uleb128 0xe
 6531 0a0d 80000000 		.4byte	0x80
ARM GAS  C:\Users\Bruger\AppData\Local\Temp\ccjLt6bf.s 			page 129


 6532 0a11 00       		.byte	0
 6533 0a12 10       		.uleb128 0x10
 6534 0a13 FC0B0000 		.4byte	.LASF93
 6535 0a17 02       		.byte	0x2
 6536 0a18 AB       		.byte	0xab
 6537 0a19 C0030000 		.4byte	.LASF95
 6538 0a1d 2C000000 		.4byte	0x2c
 6539 0a21 01       		.byte	0x1
 6540 0a22 2A0A0000 		.4byte	0xa2a
 6541 0a26 3A0A0000 		.4byte	0xa3a
 6542 0a2a 0C       		.uleb128 0xc
 6543 0a2b E10C0000 		.4byte	0xce1
 6544 0a2f 0E       		.uleb128 0xe
 6545 0a30 80000000 		.4byte	0x80
 6546 0a34 0E       		.uleb128 0xe
 6547 0a35 25000000 		.4byte	0x25
 6548 0a39 00       		.byte	0
 6549 0a3a 10       		.uleb128 0x10
 6550 0a3b FC0B0000 		.4byte	.LASF93
 6551 0a3f 02       		.byte	0x2
 6552 0a40 AC       		.byte	0xac
 6553 0a41 B1020000 		.4byte	.LASF96
 6554 0a45 2C000000 		.4byte	0x2c
 6555 0a49 01       		.byte	0x1
 6556 0a4a 520A0000 		.4byte	0xa52
 6557 0a4e 5D0A0000 		.4byte	0xa5d
 6558 0a52 0C       		.uleb128 0xc
 6559 0a53 E10C0000 		.4byte	0xce1
 6560 0a57 0E       		.uleb128 0xe
 6561 0a58 F80C0000 		.4byte	0xcf8
 6562 0a5c 00       		.byte	0
 6563 0a5d 10       		.uleb128 0x10
 6564 0a5e FC0B0000 		.4byte	.LASF93
 6565 0a62 02       		.byte	0x2
 6566 0a63 AD       		.byte	0xad
 6567 0a64 55040000 		.4byte	.LASF97
 6568 0a68 2C000000 		.4byte	0x2c
 6569 0a6c 01       		.byte	0x1
 6570 0a6d 750A0000 		.4byte	0xa75
 6571 0a71 850A0000 		.4byte	0xa85
 6572 0a75 0C       		.uleb128 0xc
 6573 0a76 E10C0000 		.4byte	0xce1
 6574 0a7a 0E       		.uleb128 0xe
 6575 0a7b F80C0000 		.4byte	0xcf8
 6576 0a7f 0E       		.uleb128 0xe
 6577 0a80 25000000 		.4byte	0x25
 6578 0a84 00       		.byte	0
 6579 0a85 10       		.uleb128 0x10
 6580 0a86 CA0C0000 		.4byte	.LASF98
 6581 0a8a 02       		.byte	0x2
 6582 0a8b AE       		.byte	0xae
 6583 0a8c 34050000 		.4byte	.LASF99
 6584 0a90 92000000 		.4byte	0x92
 6585 0a94 01       		.byte	0x1
 6586 0a95 9D0A0000 		.4byte	0xa9d
 6587 0a99 A80A0000 		.4byte	0xaa8
 6588 0a9d 0C       		.uleb128 0xc
ARM GAS  C:\Users\Bruger\AppData\Local\Temp\ccjLt6bf.s 			page 130


 6589 0a9e E10C0000 		.4byte	0xce1
 6590 0aa2 0E       		.uleb128 0xe
 6591 0aa3 25000000 		.4byte	0x25
 6592 0aa7 00       		.byte	0
 6593 0aa8 10       		.uleb128 0x10
 6594 0aa9 CA0C0000 		.4byte	.LASF98
 6595 0aad 02       		.byte	0x2
 6596 0aae AF       		.byte	0xaf
 6597 0aaf AE0B0000 		.4byte	.LASF100
 6598 0ab3 92000000 		.4byte	0x92
 6599 0ab7 01       		.byte	0x1
 6600 0ab8 C00A0000 		.4byte	0xac0
 6601 0abc D00A0000 		.4byte	0xad0
 6602 0ac0 0C       		.uleb128 0xc
 6603 0ac1 E10C0000 		.4byte	0xce1
 6604 0ac5 0E       		.uleb128 0xe
 6605 0ac6 25000000 		.4byte	0x25
 6606 0aca 0E       		.uleb128 0xe
 6607 0acb 25000000 		.4byte	0x25
 6608 0acf 00       		.byte	0
 6609 0ad0 11       		.uleb128 0x11
 6610 0ad1 49060000 		.4byte	.LASF101
 6611 0ad5 02       		.byte	0x2
 6612 0ad6 B2       		.byte	0xb2
 6613 0ad7 A70A0000 		.4byte	.LASF102
 6614 0adb 01       		.byte	0x1
 6615 0adc E40A0000 		.4byte	0xae4
 6616 0ae0 F40A0000 		.4byte	0xaf4
 6617 0ae4 0C       		.uleb128 0xc
 6618 0ae5 F20C0000 		.4byte	0xcf2
 6619 0ae9 0E       		.uleb128 0xe
 6620 0aea 80000000 		.4byte	0x80
 6621 0aee 0E       		.uleb128 0xe
 6622 0aef 80000000 		.4byte	0x80
 6623 0af3 00       		.byte	0
 6624 0af4 11       		.uleb128 0x11
 6625 0af5 49060000 		.4byte	.LASF101
 6626 0af9 02       		.byte	0x2
 6627 0afa B3       		.byte	0xb3
 6628 0afb 3F030000 		.4byte	.LASF103
 6629 0aff 01       		.byte	0x1
 6630 0b00 080B0000 		.4byte	0xb08
 6631 0b04 180B0000 		.4byte	0xb18
 6632 0b08 0C       		.uleb128 0xc
 6633 0b09 F20C0000 		.4byte	0xcf2
 6634 0b0d 0E       		.uleb128 0xe
 6635 0b0e F80C0000 		.4byte	0xcf8
 6636 0b12 0E       		.uleb128 0xe
 6637 0b13 F80C0000 		.4byte	0xcf8
 6638 0b17 00       		.byte	0
 6639 0b18 11       		.uleb128 0x11
 6640 0b19 D1000000 		.4byte	.LASF104
 6641 0b1d 02       		.byte	0x2
 6642 0b1e B4       		.byte	0xb4
 6643 0b1f C70B0000 		.4byte	.LASF105
 6644 0b23 01       		.byte	0x1
 6645 0b24 2C0B0000 		.4byte	0xb2c
ARM GAS  C:\Users\Bruger\AppData\Local\Temp\ccjLt6bf.s 			page 131


 6646 0b28 370B0000 		.4byte	0xb37
 6647 0b2c 0C       		.uleb128 0xc
 6648 0b2d F20C0000 		.4byte	0xcf2
 6649 0b31 0E       		.uleb128 0xe
 6650 0b32 25000000 		.4byte	0x25
 6651 0b36 00       		.byte	0
 6652 0b37 11       		.uleb128 0x11
 6653 0b38 D1000000 		.4byte	.LASF104
 6654 0b3c 02       		.byte	0x2
 6655 0b3d B5       		.byte	0xb5
 6656 0b3e DC030000 		.4byte	.LASF106
 6657 0b42 01       		.byte	0x1
 6658 0b43 4B0B0000 		.4byte	0xb4b
 6659 0b47 5B0B0000 		.4byte	0xb5b
 6660 0b4b 0C       		.uleb128 0xc
 6661 0b4c F20C0000 		.4byte	0xcf2
 6662 0b50 0E       		.uleb128 0xe
 6663 0b51 25000000 		.4byte	0x25
 6664 0b55 0E       		.uleb128 0xe
 6665 0b56 25000000 		.4byte	0x25
 6666 0b5a 00       		.byte	0
 6667 0b5b 11       		.uleb128 0x11
 6668 0b5c FD080000 		.4byte	.LASF107
 6669 0b60 02       		.byte	0x2
 6670 0b61 B6       		.byte	0xb6
 6671 0b62 760B0000 		.4byte	.LASF108
 6672 0b66 01       		.byte	0x1
 6673 0b67 6F0B0000 		.4byte	0xb6f
 6674 0b6b 750B0000 		.4byte	0xb75
 6675 0b6f 0C       		.uleb128 0xc
 6676 0b70 F20C0000 		.4byte	0xcf2
 6677 0b74 00       		.byte	0
 6678 0b75 11       		.uleb128 0x11
 6679 0b76 12090000 		.4byte	.LASF109
 6680 0b7a 02       		.byte	0x2
 6681 0b7b B7       		.byte	0xb7
 6682 0b7c 4C050000 		.4byte	.LASF110
 6683 0b80 01       		.byte	0x1
 6684 0b81 890B0000 		.4byte	0xb89
 6685 0b85 8F0B0000 		.4byte	0xb8f
 6686 0b89 0C       		.uleb128 0xc
 6687 0b8a F20C0000 		.4byte	0xcf2
 6688 0b8e 00       		.byte	0
 6689 0b8f 11       		.uleb128 0x11
 6690 0b90 86070000 		.4byte	.LASF111
 6691 0b94 02       		.byte	0x2
 6692 0b95 B8       		.byte	0xb8
 6693 0b96 1E0D0000 		.4byte	.LASF112
 6694 0b9a 01       		.byte	0x1
 6695 0b9b A30B0000 		.4byte	0xba3
 6696 0b9f A90B0000 		.4byte	0xba9
 6697 0ba3 0C       		.uleb128 0xc
 6698 0ba4 F20C0000 		.4byte	0xcf2
 6699 0ba8 00       		.byte	0
 6700 0ba9 10       		.uleb128 0x10
 6701 0baa 000A0000 		.4byte	.LASF113
 6702 0bae 02       		.byte	0x2
ARM GAS  C:\Users\Bruger\AppData\Local\Temp\ccjLt6bf.s 			page 132


 6703 0baf BB       		.byte	0xbb
 6704 0bb0 E50A0000 		.4byte	.LASF114
 6705 0bb4 4F000000 		.4byte	0x4f
 6706 0bb8 01       		.byte	0x1
 6707 0bb9 C10B0000 		.4byte	0xbc1
 6708 0bbd C70B0000 		.4byte	0xbc7
 6709 0bc1 0C       		.uleb128 0xc
 6710 0bc2 E10C0000 		.4byte	0xce1
 6711 0bc6 00       		.byte	0
 6712 0bc7 10       		.uleb128 0x10
 6713 0bc8 DD0A0000 		.4byte	.LASF115
 6714 0bcc 02       		.byte	0x2
 6715 0bcd BC       		.byte	0xbc
 6716 0bce A3040000 		.4byte	.LASF116
 6717 0bd2 0E0D0000 		.4byte	0xd0e
 6718 0bd6 01       		.byte	0x1
 6719 0bd7 DF0B0000 		.4byte	0xbdf
 6720 0bdb E50B0000 		.4byte	0xbe5
 6721 0bdf 0C       		.uleb128 0xc
 6722 0be0 E10C0000 		.4byte	0xce1
 6723 0be4 00       		.byte	0
 6724 0be5 11       		.uleb128 0x11
 6725 0be6 BD0A0000 		.4byte	.LASF117
 6726 0bea 02       		.byte	0x2
 6727 0beb C3       		.byte	0xc3
 6728 0bec 0F050000 		.4byte	.LASF118
 6729 0bf0 02       		.byte	0x2
 6730 0bf1 F90B0000 		.4byte	0xbf9
 6731 0bf5 FF0B0000 		.4byte	0xbff
 6732 0bf9 0C       		.uleb128 0xc
 6733 0bfa F20C0000 		.4byte	0xcf2
 6734 0bfe 00       		.byte	0
 6735 0bff 11       		.uleb128 0x11
 6736 0c00 5A030000 		.4byte	.LASF119
 6737 0c04 02       		.byte	0x2
 6738 0c05 C4       		.byte	0xc4
 6739 0c06 1F060000 		.4byte	.LASF120
 6740 0c0a 02       		.byte	0x2
 6741 0c0b 130C0000 		.4byte	0xc13
 6742 0c0f 190C0000 		.4byte	0xc19
 6743 0c13 0C       		.uleb128 0xc
 6744 0c14 F20C0000 		.4byte	0xcf2
 6745 0c18 00       		.byte	0
 6746 0c19 10       		.uleb128 0x10
 6747 0c1a 02050000 		.4byte	.LASF121
 6748 0c1e 02       		.byte	0x2
 6749 0c1f C5       		.byte	0xc5
 6750 0c20 07070000 		.4byte	.LASF122
 6751 0c24 3A000000 		.4byte	0x3a
 6752 0c28 02       		.byte	0x2
 6753 0c29 310C0000 		.4byte	0xc31
 6754 0c2d 3C0C0000 		.4byte	0xc3c
 6755 0c31 0C       		.uleb128 0xc
 6756 0c32 F20C0000 		.4byte	0xcf2
 6757 0c36 0E       		.uleb128 0xe
 6758 0c37 25000000 		.4byte	0x25
 6759 0c3b 00       		.byte	0
ARM GAS  C:\Users\Bruger\AppData\Local\Temp\ccjLt6bf.s 			page 133


 6760 0c3c 10       		.uleb128 0x10
 6761 0c3d F10C0000 		.4byte	.LASF23
 6762 0c41 02       		.byte	0x2
 6763 0c42 C6       		.byte	0xc6
 6764 0c43 8C040000 		.4byte	.LASF123
 6765 0c47 3A000000 		.4byte	0x3a
 6766 0c4b 02       		.byte	0x2
 6767 0c4c 540C0000 		.4byte	0xc54
 6768 0c50 640C0000 		.4byte	0xc64
 6769 0c54 0C       		.uleb128 0xc
 6770 0c55 F20C0000 		.4byte	0xcf2
 6771 0c59 0E       		.uleb128 0xe
 6772 0c5a 87000000 		.4byte	0x87
 6773 0c5e 0E       		.uleb128 0xe
 6774 0c5f 25000000 		.4byte	0x25
 6775 0c63 00       		.byte	0
 6776 0c64 10       		.uleb128 0x10
 6777 0c65 EA010000 		.4byte	.LASF124
 6778 0c69 02       		.byte	0x2
 6779 0c6a C9       		.byte	0xc9
 6780 0c6b 520B0000 		.4byte	.LASF125
 6781 0c6f 1C0D0000 		.4byte	0xd1c
 6782 0c73 02       		.byte	0x2
 6783 0c74 7C0C0000 		.4byte	0xc7c
 6784 0c78 8C0C0000 		.4byte	0xc8c
 6785 0c7c 0C       		.uleb128 0xc
 6786 0c7d F20C0000 		.4byte	0xcf2
 6787 0c81 0E       		.uleb128 0xe
 6788 0c82 87000000 		.4byte	0x87
 6789 0c86 0E       		.uleb128 0xe
 6790 0c87 25000000 		.4byte	0x25
 6791 0c8b 00       		.byte	0
 6792 0c8c 12       		.uleb128 0x12
 6793 0c8d EA010000 		.4byte	.LASF124
 6794 0c91 02       		.byte	0x2
 6795 0c92 CA       		.byte	0xca
 6796 0c93 2D070000 		.4byte	.LASF126
 6797 0c97 1C0D0000 		.4byte	0xd1c
 6798 0c9b 02       		.byte	0x2
 6799 0c9c A00C0000 		.4byte	0xca0
 6800 0ca0 0C       		.uleb128 0xc
 6801 0ca1 F20C0000 		.4byte	0xcf2
 6802 0ca5 0E       		.uleb128 0xe
 6803 0ca6 FE0C0000 		.4byte	0xcfe
 6804 0caa 0E       		.uleb128 0xe
 6805 0cab 25000000 		.4byte	0x25
 6806 0caf 00       		.byte	0
 6807 0cb0 00       		.byte	0
 6808 0cb1 13       		.uleb128 0x13
 6809 0cb2 08       		.byte	0x8
 6810 0cb3 03       		.byte	0x3
 6811 0cb4 00       		.byte	0
 6812 0cb5 D20C0000 		.4byte	0xcd2
 6813 0cb9 14       		.uleb128 0x14
 6814 0cba 3D0C0000 		.4byte	.LASF127
 6815 0cbe 02       		.byte	0x2
 6816 0cbf 32       		.byte	0x32
ARM GAS  C:\Users\Bruger\AppData\Local\Temp\ccjLt6bf.s 			page 134


 6817 0cc0 EC0C0000 		.4byte	0xcec
 6818 0cc4 00       		.byte	0
 6819 0cc5 14       		.uleb128 0x14
 6820 0cc6 4B0C0000 		.4byte	.LASF128
 6821 0cca 02       		.byte	0x2
 6822 0ccb 32       		.byte	0x32
 6823 0ccc 2C000000 		.4byte	0x2c
 6824 0cd0 04       		.byte	0x4
 6825 0cd1 00       		.byte	0
 6826 0cd2 15       		.uleb128 0x15
 6827 0cd3 DB0C0000 		.4byte	0xcdb
 6828 0cd7 E10C0000 		.4byte	0xce1
 6829 0cdb 0C       		.uleb128 0xc
 6830 0cdc E10C0000 		.4byte	0xce1
 6831 0ce0 00       		.byte	0
 6832 0ce1 05       		.uleb128 0x5
 6833 0ce2 04       		.byte	0x4
 6834 0ce3 E70C0000 		.4byte	0xce7
 6835 0ce7 06       		.uleb128 0x6
 6836 0ce8 92000000 		.4byte	0x92
 6837 0cec 05       		.uleb128 0x5
 6838 0ced 04       		.byte	0x4
 6839 0cee D20C0000 		.4byte	0xcd2
 6840 0cf2 05       		.uleb128 0x5
 6841 0cf3 04       		.byte	0x4
 6842 0cf4 92000000 		.4byte	0x92
 6843 0cf8 16       		.uleb128 0x16
 6844 0cf9 04       		.byte	0x4
 6845 0cfa E70C0000 		.4byte	0xce7
 6846 0cfe 05       		.uleb128 0x5
 6847 0cff 04       		.byte	0x4
 6848 0d00 040D0000 		.4byte	0xd04
 6849 0d04 06       		.uleb128 0x6
 6850 0d05 090D0000 		.4byte	0xd09
 6851 0d09 17       		.uleb128 0x17
 6852 0d0a 5F0C0000 		.4byte	.LASF192
 6853 0d0e 02       		.uleb128 0x2
 6854 0d0f 04       		.byte	0x4
 6855 0d10 04       		.byte	0x4
 6856 0d11 9C020000 		.4byte	.LASF129
 6857 0d15 02       		.uleb128 0x2
 6858 0d16 08       		.byte	0x8
 6859 0d17 04       		.byte	0x4
 6860 0d18 D40C0000 		.4byte	.LASF130
 6861 0d1c 16       		.uleb128 0x16
 6862 0d1d 04       		.byte	0x4
 6863 0d1e 92000000 		.4byte	0x92
 6864 0d22 16       		.uleb128 0x16
 6865 0d23 04       		.byte	0x4
 6866 0d24 80000000 		.4byte	0x80
 6867 0d28 07       		.uleb128 0x7
 6868 0d29 EB040000 		.4byte	.LASF131
 6869 0d2d 0C       		.byte	0xc
 6870 0d2e 02       		.byte	0x2
 6871 0d2f D0       		.byte	0xd0
 6872 0d30 6E0E0000 		.4byte	0xe6e
 6873 0d34 18       		.uleb128 0x18
ARM GAS  C:\Users\Bruger\AppData\Local\Temp\ccjLt6bf.s 			page 135


 6874 0d35 92000000 		.4byte	0x92
 6875 0d39 00       		.byte	0
 6876 0d3a 01       		.byte	0x1
 6877 0d3b 0D       		.uleb128 0xd
 6878 0d3c EB040000 		.4byte	.LASF131
 6879 0d40 02       		.byte	0x2
 6880 0d41 D3       		.byte	0xd3
 6881 0d42 6E0E0000 		.4byte	0xe6e
 6882 0d46 01       		.byte	0x1
 6883 0d47 4F0D0000 		.4byte	0xd4f
 6884 0d4b 5A0D0000 		.4byte	0xd5a
 6885 0d4f 0C       		.uleb128 0xc
 6886 0d50 6E0E0000 		.4byte	0xe6e
 6887 0d54 0E       		.uleb128 0xe
 6888 0d55 F80C0000 		.4byte	0xcf8
 6889 0d59 00       		.byte	0
 6890 0d5a 0D       		.uleb128 0xd
 6891 0d5b EB040000 		.4byte	.LASF131
 6892 0d5f 02       		.byte	0x2
 6893 0d60 D4       		.byte	0xd4
 6894 0d61 6E0E0000 		.4byte	0xe6e
 6895 0d65 01       		.byte	0x1
 6896 0d66 6E0D0000 		.4byte	0xd6e
 6897 0d6a 790D0000 		.4byte	0xd79
 6898 0d6e 0C       		.uleb128 0xc
 6899 0d6f 6E0E0000 		.4byte	0xe6e
 6900 0d73 0E       		.uleb128 0xe
 6901 0d74 87000000 		.4byte	0x87
 6902 0d78 00       		.byte	0
 6903 0d79 0D       		.uleb128 0xd
 6904 0d7a EB040000 		.4byte	.LASF131
 6905 0d7e 02       		.byte	0x2
 6906 0d7f D5       		.byte	0xd5
 6907 0d80 6E0E0000 		.4byte	0xe6e
 6908 0d84 01       		.byte	0x1
 6909 0d85 8D0D0000 		.4byte	0xd8d
 6910 0d89 980D0000 		.4byte	0xd98
 6911 0d8d 0C       		.uleb128 0xc
 6912 0d8e 6E0E0000 		.4byte	0xe6e
 6913 0d92 0E       		.uleb128 0xe
 6914 0d93 80000000 		.4byte	0x80
 6915 0d97 00       		.byte	0
 6916 0d98 0D       		.uleb128 0xd
 6917 0d99 EB040000 		.4byte	.LASF131
 6918 0d9d 02       		.byte	0x2
 6919 0d9e D6       		.byte	0xd6
 6920 0d9f 6E0E0000 		.4byte	0xe6e
 6921 0da3 01       		.byte	0x1
 6922 0da4 AC0D0000 		.4byte	0xdac
 6923 0da8 B70D0000 		.4byte	0xdb7
 6924 0dac 0C       		.uleb128 0xc
 6925 0dad 6E0E0000 		.4byte	0xe6e
 6926 0db1 0E       		.uleb128 0xe
 6927 0db2 3A000000 		.4byte	0x3a
 6928 0db6 00       		.byte	0
 6929 0db7 0D       		.uleb128 0xd
 6930 0db8 EB040000 		.4byte	.LASF131
ARM GAS  C:\Users\Bruger\AppData\Local\Temp\ccjLt6bf.s 			page 136


 6931 0dbc 02       		.byte	0x2
 6932 0dbd D7       		.byte	0xd7
 6933 0dbe 6E0E0000 		.4byte	0xe6e
 6934 0dc2 01       		.byte	0x1
 6935 0dc3 CB0D0000 		.4byte	0xdcb
 6936 0dc7 D60D0000 		.4byte	0xdd6
 6937 0dcb 0C       		.uleb128 0xc
 6938 0dcc 6E0E0000 		.4byte	0xe6e
 6939 0dd0 0E       		.uleb128 0xe
 6940 0dd1 2C000000 		.4byte	0x2c
 6941 0dd5 00       		.byte	0
 6942 0dd6 0D       		.uleb128 0xd
 6943 0dd7 EB040000 		.4byte	.LASF131
 6944 0ddb 02       		.byte	0x2
 6945 0ddc D8       		.byte	0xd8
 6946 0ddd 6E0E0000 		.4byte	0xe6e
 6947 0de1 01       		.byte	0x1
 6948 0de2 EA0D0000 		.4byte	0xdea
 6949 0de6 F50D0000 		.4byte	0xdf5
 6950 0dea 0C       		.uleb128 0xc
 6951 0deb 6E0E0000 		.4byte	0xe6e
 6952 0def 0E       		.uleb128 0xe
 6953 0df0 25000000 		.4byte	0x25
 6954 0df4 00       		.byte	0
 6955 0df5 0D       		.uleb128 0xd
 6956 0df6 EB040000 		.4byte	.LASF131
 6957 0dfa 02       		.byte	0x2
 6958 0dfb D9       		.byte	0xd9
 6959 0dfc 6E0E0000 		.4byte	0xe6e
 6960 0e00 01       		.byte	0x1
 6961 0e01 090E0000 		.4byte	0xe09
 6962 0e05 140E0000 		.4byte	0xe14
 6963 0e09 0C       		.uleb128 0xc
 6964 0e0a 6E0E0000 		.4byte	0xe6e
 6965 0e0e 0E       		.uleb128 0xe
 6966 0e0f 4F000000 		.4byte	0x4f
 6967 0e13 00       		.byte	0
 6968 0e14 0D       		.uleb128 0xd
 6969 0e15 EB040000 		.4byte	.LASF131
 6970 0e19 02       		.byte	0x2
 6971 0e1a DA       		.byte	0xda
 6972 0e1b 6E0E0000 		.4byte	0xe6e
 6973 0e1f 01       		.byte	0x1
 6974 0e20 280E0000 		.4byte	0xe28
 6975 0e24 330E0000 		.4byte	0xe33
 6976 0e28 0C       		.uleb128 0xc
 6977 0e29 6E0E0000 		.4byte	0xe6e
 6978 0e2d 0E       		.uleb128 0xe
 6979 0e2e 56000000 		.4byte	0x56
 6980 0e32 00       		.byte	0
 6981 0e33 0D       		.uleb128 0xd
 6982 0e34 EB040000 		.4byte	.LASF131
 6983 0e38 02       		.byte	0x2
 6984 0e39 DB       		.byte	0xdb
 6985 0e3a 6E0E0000 		.4byte	0xe6e
 6986 0e3e 01       		.byte	0x1
 6987 0e3f 470E0000 		.4byte	0xe47
ARM GAS  C:\Users\Bruger\AppData\Local\Temp\ccjLt6bf.s 			page 137


 6988 0e43 520E0000 		.4byte	0xe52
 6989 0e47 0C       		.uleb128 0xc
 6990 0e48 6E0E0000 		.4byte	0xe6e
 6991 0e4c 0E       		.uleb128 0xe
 6992 0e4d 0E0D0000 		.4byte	0xd0e
 6993 0e51 00       		.byte	0
 6994 0e52 19       		.uleb128 0x19
 6995 0e53 EB040000 		.4byte	.LASF131
 6996 0e57 02       		.byte	0x2
 6997 0e58 DC       		.byte	0xdc
 6998 0e59 6E0E0000 		.4byte	0xe6e
 6999 0e5d 01       		.byte	0x1
 7000 0e5e 620E0000 		.4byte	0xe62
 7001 0e62 0C       		.uleb128 0xc
 7002 0e63 6E0E0000 		.4byte	0xe6e
 7003 0e67 0E       		.uleb128 0xe
 7004 0e68 150D0000 		.4byte	0xd15
 7005 0e6c 00       		.byte	0
 7006 0e6d 00       		.byte	0
 7007 0e6e 05       		.uleb128 0x5
 7008 0e6f 04       		.byte	0x4
 7009 0e70 280D0000 		.4byte	0xd28
 7010 0e74 1A       		.uleb128 0x1a
 7011 0e75 E9000000 		.4byte	0xe9
 7012 0e79 01       		.byte	0x1
 7013 0e7a 1F       		.byte	0x1f
 7014 0e7b 00       		.byte	0
 7015 0e7c 840E0000 		.4byte	0xe84
 7016 0e80 990E0000 		.4byte	0xe99
 7017 0e84 1B       		.uleb128 0x1b
 7018 0e85 7C080000 		.4byte	.LASF133
 7019 0e89 990E0000 		.4byte	0xe99
 7020 0e8d 1C       		.uleb128 0x1c
 7021 0e8e 12000000 		.4byte	.LASF134
 7022 0e92 01       		.byte	0x1
 7023 0e93 1F       		.byte	0x1f
 7024 0e94 87000000 		.4byte	0x87
 7025 0e98 00       		.byte	0
 7026 0e99 06       		.uleb128 0x6
 7027 0e9a F20C0000 		.4byte	0xcf2
 7028 0e9e 1D       		.uleb128 0x1d
 7029 0e9f 740E0000 		.4byte	0xe74
 7030 0ea3 730C0000 		.4byte	.LASF136
 7031 0ea7 00000000 		.4byte	.LFB52
 7032 0eab 32000000 		.4byte	.LFE52-.LFB52
 7033 0eaf 01       		.uleb128 0x1
 7034 0eb0 9C       		.byte	0x9c
 7035 0eb1 B90E0000 		.4byte	0xeb9
 7036 0eb5 CA0E0000 		.4byte	0xeca
 7037 0eb9 1E       		.uleb128 0x1e
 7038 0eba 840E0000 		.4byte	0xe84
 7039 0ebe 02       		.uleb128 0x2
 7040 0ebf 91       		.byte	0x91
 7041 0ec0 74       		.sleb128 -12
 7042 0ec1 1E       		.uleb128 0x1e
 7043 0ec2 8D0E0000 		.4byte	0xe8d
 7044 0ec6 02       		.uleb128 0x2
ARM GAS  C:\Users\Bruger\AppData\Local\Temp\ccjLt6bf.s 			page 138


 7045 0ec7 91       		.byte	0x91
 7046 0ec8 70       		.sleb128 -16
 7047 0ec9 00       		.byte	0
 7048 0eca 1A       		.uleb128 0x1a
 7049 0ecb 08010000 		.4byte	0x108
 7050 0ecf 01       		.byte	0x1
 7051 0ed0 25       		.byte	0x25
 7052 0ed1 00       		.byte	0
 7053 0ed2 DA0E0000 		.4byte	0xeda
 7054 0ed6 EF0E0000 		.4byte	0xeef
 7055 0eda 1B       		.uleb128 0x1b
 7056 0edb 7C080000 		.4byte	.LASF133
 7057 0edf 990E0000 		.4byte	0xe99
 7058 0ee3 1C       		.uleb128 0x1c
 7059 0ee4 31030000 		.4byte	.LASF135
 7060 0ee8 01       		.byte	0x1
 7061 0ee9 25       		.byte	0x25
 7062 0eea EF0E0000 		.4byte	0xeef
 7063 0eee 00       		.byte	0
 7064 0eef 06       		.uleb128 0x6
 7065 0ef0 F80C0000 		.4byte	0xcf8
 7066 0ef4 1D       		.uleb128 0x1d
 7067 0ef5 CA0E0000 		.4byte	0xeca
 7068 0ef9 D5020000 		.4byte	.LASF137
 7069 0efd 00000000 		.4byte	.LFB55
 7070 0f01 22000000 		.4byte	.LFE55-.LFB55
 7071 0f05 01       		.uleb128 0x1
 7072 0f06 9C       		.byte	0x9c
 7073 0f07 0F0F0000 		.4byte	0xf0f
 7074 0f0b 200F0000 		.4byte	0xf20
 7075 0f0f 1E       		.uleb128 0x1e
 7076 0f10 DA0E0000 		.4byte	0xeda
 7077 0f14 02       		.uleb128 0x2
 7078 0f15 91       		.byte	0x91
 7079 0f16 74       		.sleb128 -12
 7080 0f17 1E       		.uleb128 0x1e
 7081 0f18 E30E0000 		.4byte	0xee3
 7082 0f1c 02       		.uleb128 0x2
 7083 0f1d 91       		.byte	0x91
 7084 0f1e 70       		.sleb128 -16
 7085 0f1f 00       		.byte	0
 7086 0f20 1A       		.uleb128 0x1a
 7087 0f21 27010000 		.4byte	0x127
 7088 0f25 01       		.byte	0x1
 7089 0f26 2B       		.byte	0x2b
 7090 0f27 00       		.byte	0
 7091 0f28 300F0000 		.4byte	0xf30
 7092 0f2c 450F0000 		.4byte	0xf45
 7093 0f30 1B       		.uleb128 0x1b
 7094 0f31 7C080000 		.4byte	.LASF133
 7095 0f35 990E0000 		.4byte	0xe99
 7096 0f39 1C       		.uleb128 0x1c
 7097 0f3a 7D060000 		.4byte	.LASF138
 7098 0f3e 01       		.byte	0x1
 7099 0f3f 2B       		.byte	0x2b
 7100 0f40 FE0C0000 		.4byte	0xcfe
 7101 0f44 00       		.byte	0
ARM GAS  C:\Users\Bruger\AppData\Local\Temp\ccjLt6bf.s 			page 139


 7102 0f45 1D       		.uleb128 0x1d
 7103 0f46 200F0000 		.4byte	0xf20
 7104 0f4a 1B040000 		.4byte	.LASF139
 7105 0f4e 00000000 		.4byte	.LFB58
 7106 0f52 22000000 		.4byte	.LFE58-.LFB58
 7107 0f56 01       		.uleb128 0x1
 7108 0f57 9C       		.byte	0x9c
 7109 0f58 600F0000 		.4byte	0xf60
 7110 0f5c 710F0000 		.4byte	0xf71
 7111 0f60 1E       		.uleb128 0x1e
 7112 0f61 300F0000 		.4byte	0xf30
 7113 0f65 02       		.uleb128 0x2
 7114 0f66 91       		.byte	0x91
 7115 0f67 74       		.sleb128 -12
 7116 0f68 1E       		.uleb128 0x1e
 7117 0f69 390F0000 		.4byte	0xf39
 7118 0f6d 02       		.uleb128 0x2
 7119 0f6e 91       		.byte	0x91
 7120 0f6f 70       		.sleb128 -16
 7121 0f70 00       		.byte	0
 7122 0f71 1A       		.uleb128 0x1a
 7123 0f72 46010000 		.4byte	0x146
 7124 0f76 01       		.byte	0x1
 7125 0f77 3E       		.byte	0x3e
 7126 0f78 00       		.byte	0
 7127 0f79 810F0000 		.4byte	0xf81
 7128 0f7d A10F0000 		.4byte	0xfa1
 7129 0f81 1B       		.uleb128 0x1b
 7130 0f82 7C080000 		.4byte	.LASF133
 7131 0f86 990E0000 		.4byte	0xe99
 7132 0f8a 1F       		.uleb128 0x1f
 7133 0f8b 6300     		.ascii	"c\000"
 7134 0f8d 01       		.byte	0x1
 7135 0f8e 3E       		.byte	0x3e
 7136 0f8f 80000000 		.4byte	0x80
 7137 0f93 20       		.uleb128 0x20
 7138 0f94 21       		.uleb128 0x21
 7139 0f95 62756600 		.ascii	"buf\000"
 7140 0f99 01       		.byte	0x1
 7141 0f9a 41       		.byte	0x41
 7142 0f9b A10F0000 		.4byte	0xfa1
 7143 0f9f 00       		.byte	0
 7144 0fa0 00       		.byte	0
 7145 0fa1 22       		.uleb128 0x22
 7146 0fa2 80000000 		.4byte	0x80
 7147 0fa6 B10F0000 		.4byte	0xfb1
 7148 0faa 23       		.uleb128 0x23
 7149 0fab 6B000000 		.4byte	0x6b
 7150 0faf 01       		.byte	0x1
 7151 0fb0 00       		.byte	0
 7152 0fb1 1D       		.uleb128 0x1d
 7153 0fb2 710F0000 		.4byte	0xf71
 7154 0fb6 9D0C0000 		.4byte	.LASF140
 7155 0fba 00000000 		.4byte	.LFB61
 7156 0fbe 30000000 		.4byte	.LFE61-.LFB61
 7157 0fc2 01       		.uleb128 0x1
 7158 0fc3 9C       		.byte	0x9c
ARM GAS  C:\Users\Bruger\AppData\Local\Temp\ccjLt6bf.s 			page 140


 7159 0fc4 CC0F0000 		.4byte	0xfcc
 7160 0fc8 EF0F0000 		.4byte	0xfef
 7161 0fcc 1E       		.uleb128 0x1e
 7162 0fcd 810F0000 		.4byte	0xf81
 7163 0fd1 02       		.uleb128 0x2
 7164 0fd2 91       		.byte	0x91
 7165 0fd3 6C       		.sleb128 -20
 7166 0fd4 1E       		.uleb128 0x1e
 7167 0fd5 8A0F0000 		.4byte	0xf8a
 7168 0fd9 02       		.uleb128 0x2
 7169 0fda 91       		.byte	0x91
 7170 0fdb 6B       		.sleb128 -21
 7171 0fdc 24       		.uleb128 0x24
 7172 0fdd 0C000000 		.4byte	.LBB6
 7173 0fe1 1A000000 		.4byte	.LBE6-.LBB6
 7174 0fe5 25       		.uleb128 0x25
 7175 0fe6 940F0000 		.4byte	0xf94
 7176 0fea 02       		.uleb128 0x2
 7177 0feb 91       		.byte	0x91
 7178 0fec 74       		.sleb128 -12
 7179 0fed 00       		.byte	0
 7180 0fee 00       		.byte	0
 7181 0fef 1A       		.uleb128 0x1a
 7182 0ff0 65010000 		.4byte	0x165
 7183 0ff4 01       		.byte	0x1
 7184 0ff5 47       		.byte	0x47
 7185 0ff6 00       		.byte	0
 7186 0ff7 FF0F0000 		.4byte	0xfff
 7187 0ffb 2C100000 		.4byte	0x102c
 7188 0fff 1B       		.uleb128 0x1b
 7189 1000 7C080000 		.4byte	.LASF133
 7190 1004 990E0000 		.4byte	0xe99
 7191 1008 1C       		.uleb128 0x1c
 7192 1009 31030000 		.4byte	.LASF135
 7193 100d 01       		.byte	0x1
 7194 100e 47       		.byte	0x47
 7195 100f 3A000000 		.4byte	0x3a
 7196 1013 1C       		.uleb128 0x1c
 7197 1014 AC020000 		.4byte	.LASF141
 7198 1018 01       		.byte	0x1
 7199 1019 47       		.byte	0x47
 7200 101a 3A000000 		.4byte	0x3a
 7201 101e 20       		.uleb128 0x20
 7202 101f 21       		.uleb128 0x21
 7203 1020 62756600 		.ascii	"buf\000"
 7204 1024 01       		.byte	0x1
 7205 1025 4A       		.byte	0x4a
 7206 1026 2C100000 		.4byte	0x102c
 7207 102a 00       		.byte	0
 7208 102b 00       		.byte	0
 7209 102c 22       		.uleb128 0x22
 7210 102d 80000000 		.4byte	0x80
 7211 1031 3C100000 		.4byte	0x103c
 7212 1035 23       		.uleb128 0x23
 7213 1036 6B000000 		.4byte	0x6b
 7214 103a 08       		.byte	0x8
 7215 103b 00       		.byte	0
ARM GAS  C:\Users\Bruger\AppData\Local\Temp\ccjLt6bf.s 			page 141


 7216 103c 1D       		.uleb128 0x1d
 7217 103d EF0F0000 		.4byte	0xfef
 7218 1041 ED080000 		.4byte	.LASF142
 7219 1045 00000000 		.4byte	.LFB64
 7220 1049 3E000000 		.4byte	.LFE64-.LFB64
 7221 104d 01       		.uleb128 0x1
 7222 104e 9C       		.byte	0x9c
 7223 104f 57100000 		.4byte	0x1057
 7224 1053 82100000 		.4byte	0x1082
 7225 1057 1E       		.uleb128 0x1e
 7226 1058 FF0F0000 		.4byte	0xfff
 7227 105c 02       		.uleb128 0x2
 7228 105d 91       		.byte	0x91
 7229 105e 64       		.sleb128 -28
 7230 105f 1E       		.uleb128 0x1e
 7231 1060 08100000 		.4byte	0x1008
 7232 1064 02       		.uleb128 0x2
 7233 1065 91       		.byte	0x91
 7234 1066 63       		.sleb128 -29
 7235 1067 1E       		.uleb128 0x1e
 7236 1068 13100000 		.4byte	0x1013
 7237 106c 02       		.uleb128 0x2
 7238 106d 91       		.byte	0x91
 7239 106e 62       		.sleb128 -30
 7240 106f 24       		.uleb128 0x24
 7241 1070 10000000 		.4byte	.LBB8
 7242 1074 24000000 		.4byte	.LBE8-.LBB8
 7243 1078 25       		.uleb128 0x25
 7244 1079 1F100000 		.4byte	0x101f
 7245 107d 02       		.uleb128 0x2
 7246 107e 91       		.byte	0x91
 7247 107f 6C       		.sleb128 -20
 7248 1080 00       		.byte	0
 7249 1081 00       		.byte	0
 7250 1082 1A       		.uleb128 0x1a
 7251 1083 89010000 		.4byte	0x189
 7252 1087 01       		.byte	0x1
 7253 1088 4F       		.byte	0x4f
 7254 1089 00       		.byte	0
 7255 108a 92100000 		.4byte	0x1092
 7256 108e BF100000 		.4byte	0x10bf
 7257 1092 1B       		.uleb128 0x1b
 7258 1093 7C080000 		.4byte	.LASF133
 7259 1097 990E0000 		.4byte	0xe99
 7260 109b 1C       		.uleb128 0x1c
 7261 109c 31030000 		.4byte	.LASF135
 7262 10a0 01       		.byte	0x1
 7263 10a1 4F       		.byte	0x4f
 7264 10a2 2C000000 		.4byte	0x2c
 7265 10a6 1C       		.uleb128 0x1c
 7266 10a7 AC020000 		.4byte	.LASF141
 7267 10ab 01       		.byte	0x1
 7268 10ac 4F       		.byte	0x4f
 7269 10ad 3A000000 		.4byte	0x3a
 7270 10b1 20       		.uleb128 0x20
 7271 10b2 21       		.uleb128 0x21
 7272 10b3 62756600 		.ascii	"buf\000"
ARM GAS  C:\Users\Bruger\AppData\Local\Temp\ccjLt6bf.s 			page 142


 7273 10b7 01       		.byte	0x1
 7274 10b8 52       		.byte	0x52
 7275 10b9 BF100000 		.4byte	0x10bf
 7276 10bd 00       		.byte	0
 7277 10be 00       		.byte	0
 7278 10bf 22       		.uleb128 0x22
 7279 10c0 80000000 		.4byte	0x80
 7280 10c4 CF100000 		.4byte	0x10cf
 7281 10c8 23       		.uleb128 0x23
 7282 10c9 6B000000 		.4byte	0x6b
 7283 10cd 21       		.byte	0x21
 7284 10ce 00       		.byte	0
 7285 10cf 1D       		.uleb128 0x1d
 7286 10d0 82100000 		.4byte	0x1082
 7287 10d4 080C0000 		.4byte	.LASF143
 7288 10d8 00000000 		.4byte	.LFB67
 7289 10dc 3A000000 		.4byte	.LFE67-.LFB67
 7290 10e0 01       		.uleb128 0x1
 7291 10e1 9C       		.byte	0x9c
 7292 10e2 EA100000 		.4byte	0x10ea
 7293 10e6 15110000 		.4byte	0x1115
 7294 10ea 1E       		.uleb128 0x1e
 7295 10eb 92100000 		.4byte	0x1092
 7296 10ef 02       		.uleb128 0x2
 7297 10f0 91       		.byte	0x91
 7298 10f1 4C       		.sleb128 -52
 7299 10f2 1E       		.uleb128 0x1e
 7300 10f3 9B100000 		.4byte	0x109b
 7301 10f7 02       		.uleb128 0x2
 7302 10f8 91       		.byte	0x91
 7303 10f9 48       		.sleb128 -56
 7304 10fa 1E       		.uleb128 0x1e
 7305 10fb A6100000 		.4byte	0x10a6
 7306 10ff 02       		.uleb128 0x2
 7307 1100 91       		.byte	0x91
 7308 1101 47       		.sleb128 -57
 7309 1102 24       		.uleb128 0x24
 7310 1103 0E000000 		.4byte	.LBB10
 7311 1107 22000000 		.4byte	.LBE10-.LBB10
 7312 110b 25       		.uleb128 0x25
 7313 110c B2100000 		.4byte	0x10b2
 7314 1110 02       		.uleb128 0x2
 7315 1111 91       		.byte	0x91
 7316 1112 54       		.sleb128 -44
 7317 1113 00       		.byte	0
 7318 1114 00       		.byte	0
 7319 1115 1A       		.uleb128 0x1a
 7320 1116 AD010000 		.4byte	0x1ad
 7321 111a 01       		.byte	0x1
 7322 111b 57       		.byte	0x57
 7323 111c 00       		.byte	0
 7324 111d 25110000 		.4byte	0x1125
 7325 1121 52110000 		.4byte	0x1152
 7326 1125 1B       		.uleb128 0x1b
 7327 1126 7C080000 		.4byte	.LASF133
 7328 112a 990E0000 		.4byte	0xe99
 7329 112e 1C       		.uleb128 0x1c
ARM GAS  C:\Users\Bruger\AppData\Local\Temp\ccjLt6bf.s 			page 143


 7330 112f 31030000 		.4byte	.LASF135
 7331 1133 01       		.byte	0x1
 7332 1134 57       		.byte	0x57
 7333 1135 25000000 		.4byte	0x25
 7334 1139 1C       		.uleb128 0x1c
 7335 113a AC020000 		.4byte	.LASF141
 7336 113e 01       		.byte	0x1
 7337 113f 57       		.byte	0x57
 7338 1140 3A000000 		.4byte	0x3a
 7339 1144 20       		.uleb128 0x20
 7340 1145 21       		.uleb128 0x21
 7341 1146 62756600 		.ascii	"buf\000"
 7342 114a 01       		.byte	0x1
 7343 114b 5A       		.byte	0x5a
 7344 114c 52110000 		.4byte	0x1152
 7345 1150 00       		.byte	0
 7346 1151 00       		.byte	0
 7347 1152 22       		.uleb128 0x22
 7348 1153 80000000 		.4byte	0x80
 7349 1157 62110000 		.4byte	0x1162
 7350 115b 23       		.uleb128 0x23
 7351 115c 6B000000 		.4byte	0x6b
 7352 1160 20       		.byte	0x20
 7353 1161 00       		.byte	0
 7354 1162 1D       		.uleb128 0x1d
 7355 1163 15110000 		.4byte	0x1115
 7356 1167 EE050000 		.4byte	.LASF144
 7357 116b 00000000 		.4byte	.LFB70
 7358 116f 3A000000 		.4byte	.LFE70-.LFB70
 7359 1173 01       		.uleb128 0x1
 7360 1174 9C       		.byte	0x9c
 7361 1175 7D110000 		.4byte	0x117d
 7362 1179 A8110000 		.4byte	0x11a8
 7363 117d 1E       		.uleb128 0x1e
 7364 117e 25110000 		.4byte	0x1125
 7365 1182 02       		.uleb128 0x2
 7366 1183 91       		.byte	0x91
 7367 1184 4C       		.sleb128 -52
 7368 1185 1E       		.uleb128 0x1e
 7369 1186 2E110000 		.4byte	0x112e
 7370 118a 02       		.uleb128 0x2
 7371 118b 91       		.byte	0x91
 7372 118c 48       		.sleb128 -56
 7373 118d 1E       		.uleb128 0x1e
 7374 118e 39110000 		.4byte	0x1139
 7375 1192 02       		.uleb128 0x2
 7376 1193 91       		.byte	0x91
 7377 1194 47       		.sleb128 -57
 7378 1195 24       		.uleb128 0x24
 7379 1196 0E000000 		.4byte	.LBB12
 7380 119a 22000000 		.4byte	.LBE12-.LBB12
 7381 119e 25       		.uleb128 0x25
 7382 119f 45110000 		.4byte	0x1145
 7383 11a3 02       		.uleb128 0x2
 7384 11a4 91       		.byte	0x91
 7385 11a5 54       		.sleb128 -44
 7386 11a6 00       		.byte	0
ARM GAS  C:\Users\Bruger\AppData\Local\Temp\ccjLt6bf.s 			page 144


 7387 11a7 00       		.byte	0
 7388 11a8 1A       		.uleb128 0x1a
 7389 11a9 D1010000 		.4byte	0x1d1
 7390 11ad 01       		.byte	0x1
 7391 11ae 5F       		.byte	0x5f
 7392 11af 00       		.byte	0
 7393 11b0 B8110000 		.4byte	0x11b8
 7394 11b4 E5110000 		.4byte	0x11e5
 7395 11b8 1B       		.uleb128 0x1b
 7396 11b9 7C080000 		.4byte	.LASF133
 7397 11bd 990E0000 		.4byte	0xe99
 7398 11c1 1C       		.uleb128 0x1c
 7399 11c2 31030000 		.4byte	.LASF135
 7400 11c6 01       		.byte	0x1
 7401 11c7 5F       		.byte	0x5f
 7402 11c8 4F000000 		.4byte	0x4f
 7403 11cc 1C       		.uleb128 0x1c
 7404 11cd AC020000 		.4byte	.LASF141
 7405 11d1 01       		.byte	0x1
 7406 11d2 5F       		.byte	0x5f
 7407 11d3 3A000000 		.4byte	0x3a
 7408 11d7 20       		.uleb128 0x20
 7409 11d8 21       		.uleb128 0x21
 7410 11d9 62756600 		.ascii	"buf\000"
 7411 11dd 01       		.byte	0x1
 7412 11de 62       		.byte	0x62
 7413 11df BF100000 		.4byte	0x10bf
 7414 11e3 00       		.byte	0
 7415 11e4 00       		.byte	0
 7416 11e5 1D       		.uleb128 0x1d
 7417 11e6 A8110000 		.4byte	0x11a8
 7418 11ea 01010000 		.4byte	.LASF145
 7419 11ee 00000000 		.4byte	.LFB73
 7420 11f2 3A000000 		.4byte	.LFE73-.LFB73
 7421 11f6 01       		.uleb128 0x1
 7422 11f7 9C       		.byte	0x9c
 7423 11f8 00120000 		.4byte	0x1200
 7424 11fc 2B120000 		.4byte	0x122b
 7425 1200 1E       		.uleb128 0x1e
 7426 1201 B8110000 		.4byte	0x11b8
 7427 1205 02       		.uleb128 0x2
 7428 1206 91       		.byte	0x91
 7429 1207 4C       		.sleb128 -52
 7430 1208 1E       		.uleb128 0x1e
 7431 1209 C1110000 		.4byte	0x11c1
 7432 120d 02       		.uleb128 0x2
 7433 120e 91       		.byte	0x91
 7434 120f 48       		.sleb128 -56
 7435 1210 1E       		.uleb128 0x1e
 7436 1211 CC110000 		.4byte	0x11cc
 7437 1215 02       		.uleb128 0x2
 7438 1216 91       		.byte	0x91
 7439 1217 47       		.sleb128 -57
 7440 1218 24       		.uleb128 0x24
 7441 1219 0E000000 		.4byte	.LBB14
 7442 121d 22000000 		.4byte	.LBE14-.LBB14
 7443 1221 25       		.uleb128 0x25
ARM GAS  C:\Users\Bruger\AppData\Local\Temp\ccjLt6bf.s 			page 145


 7444 1222 D8110000 		.4byte	0x11d8
 7445 1226 02       		.uleb128 0x2
 7446 1227 91       		.byte	0x91
 7447 1228 54       		.sleb128 -44
 7448 1229 00       		.byte	0
 7449 122a 00       		.byte	0
 7450 122b 1A       		.uleb128 0x1a
 7451 122c F5010000 		.4byte	0x1f5
 7452 1230 01       		.byte	0x1
 7453 1231 67       		.byte	0x67
 7454 1232 00       		.byte	0
 7455 1233 3B120000 		.4byte	0x123b
 7456 1237 68120000 		.4byte	0x1268
 7457 123b 1B       		.uleb128 0x1b
 7458 123c 7C080000 		.4byte	.LASF133
 7459 1240 990E0000 		.4byte	0xe99
 7460 1244 1C       		.uleb128 0x1c
 7461 1245 31030000 		.4byte	.LASF135
 7462 1249 01       		.byte	0x1
 7463 124a 67       		.byte	0x67
 7464 124b 56000000 		.4byte	0x56
 7465 124f 1C       		.uleb128 0x1c
 7466 1250 AC020000 		.4byte	.LASF141
 7467 1254 01       		.byte	0x1
 7468 1255 67       		.byte	0x67
 7469 1256 3A000000 		.4byte	0x3a
 7470 125a 20       		.uleb128 0x20
 7471 125b 21       		.uleb128 0x21
 7472 125c 62756600 		.ascii	"buf\000"
 7473 1260 01       		.byte	0x1
 7474 1261 6A       		.byte	0x6a
 7475 1262 52110000 		.4byte	0x1152
 7476 1266 00       		.byte	0
 7477 1267 00       		.byte	0
 7478 1268 1D       		.uleb128 0x1d
 7479 1269 2B120000 		.4byte	0x122b
 7480 126d A8010000 		.4byte	.LASF146
 7481 1271 00000000 		.4byte	.LFB76
 7482 1275 3A000000 		.4byte	.LFE76-.LFB76
 7483 1279 01       		.uleb128 0x1
 7484 127a 9C       		.byte	0x9c
 7485 127b 83120000 		.4byte	0x1283
 7486 127f AE120000 		.4byte	0x12ae
 7487 1283 1E       		.uleb128 0x1e
 7488 1284 3B120000 		.4byte	0x123b
 7489 1288 02       		.uleb128 0x2
 7490 1289 91       		.byte	0x91
 7491 128a 4C       		.sleb128 -52
 7492 128b 1E       		.uleb128 0x1e
 7493 128c 44120000 		.4byte	0x1244
 7494 1290 02       		.uleb128 0x2
 7495 1291 91       		.byte	0x91
 7496 1292 48       		.sleb128 -56
 7497 1293 1E       		.uleb128 0x1e
 7498 1294 4F120000 		.4byte	0x124f
 7499 1298 02       		.uleb128 0x2
 7500 1299 91       		.byte	0x91
ARM GAS  C:\Users\Bruger\AppData\Local\Temp\ccjLt6bf.s 			page 146


 7501 129a 47       		.sleb128 -57
 7502 129b 24       		.uleb128 0x24
 7503 129c 0E000000 		.4byte	.LBB16
 7504 12a0 22000000 		.4byte	.LBE16-.LBB16
 7505 12a4 25       		.uleb128 0x25
 7506 12a5 5B120000 		.4byte	0x125b
 7507 12a9 02       		.uleb128 0x2
 7508 12aa 91       		.byte	0x91
 7509 12ab 54       		.sleb128 -44
 7510 12ac 00       		.byte	0
 7511 12ad 00       		.byte	0
 7512 12ae 1A       		.uleb128 0x1a
 7513 12af 19020000 		.4byte	0x219
 7514 12b3 01       		.byte	0x1
 7515 12b4 6F       		.byte	0x6f
 7516 12b5 00       		.byte	0
 7517 12b6 BE120000 		.4byte	0x12be
 7518 12ba EB120000 		.4byte	0x12eb
 7519 12be 1B       		.uleb128 0x1b
 7520 12bf 7C080000 		.4byte	.LASF133
 7521 12c3 990E0000 		.4byte	0xe99
 7522 12c7 1C       		.uleb128 0x1c
 7523 12c8 31030000 		.4byte	.LASF135
 7524 12cc 01       		.byte	0x1
 7525 12cd 6F       		.byte	0x6f
 7526 12ce 0E0D0000 		.4byte	0xd0e
 7527 12d2 1C       		.uleb128 0x1c
 7528 12d3 6F050000 		.4byte	.LASF147
 7529 12d7 01       		.byte	0x1
 7530 12d8 6F       		.byte	0x6f
 7531 12d9 3A000000 		.4byte	0x3a
 7532 12dd 20       		.uleb128 0x20
 7533 12de 21       		.uleb128 0x21
 7534 12df 62756600 		.ascii	"buf\000"
 7535 12e3 01       		.byte	0x1
 7536 12e4 72       		.byte	0x72
 7537 12e5 52110000 		.4byte	0x1152
 7538 12e9 00       		.byte	0
 7539 12ea 00       		.byte	0
 7540 12eb 1D       		.uleb128 0x1d
 7541 12ec AE120000 		.4byte	0x12ae
 7542 12f0 B1080000 		.4byte	.LASF148
 7543 12f4 00000000 		.4byte	.LFB79
 7544 12f8 46000000 		.4byte	.LFE79-.LFB79
 7545 12fc 01       		.uleb128 0x1
 7546 12fd 9C       		.byte	0x9c
 7547 12fe 06130000 		.4byte	0x1306
 7548 1302 32130000 		.4byte	0x1332
 7549 1306 1E       		.uleb128 0x1e
 7550 1307 BE120000 		.4byte	0x12be
 7551 130b 02       		.uleb128 0x2
 7552 130c 91       		.byte	0x91
 7553 130d 44       		.sleb128 -60
 7554 130e 1E       		.uleb128 0x1e
 7555 130f C7120000 		.4byte	0x12c7
 7556 1313 02       		.uleb128 0x2
 7557 1314 91       		.byte	0x91
ARM GAS  C:\Users\Bruger\AppData\Local\Temp\ccjLt6bf.s 			page 147


 7558 1315 40       		.sleb128 -64
 7559 1316 1E       		.uleb128 0x1e
 7560 1317 D2120000 		.4byte	0x12d2
 7561 131b 03       		.uleb128 0x3
 7562 131c 91       		.byte	0x91
 7563 131d BF7F     		.sleb128 -65
 7564 131f 24       		.uleb128 0x24
 7565 1320 0E000000 		.4byte	.LBB18
 7566 1324 2E000000 		.4byte	.LBE18-.LBB18
 7567 1328 25       		.uleb128 0x25
 7568 1329 DE120000 		.4byte	0x12de
 7569 132d 02       		.uleb128 0x2
 7570 132e 91       		.byte	0x91
 7571 132f 4C       		.sleb128 -52
 7572 1330 00       		.byte	0
 7573 1331 00       		.byte	0
 7574 1332 1A       		.uleb128 0x1a
 7575 1333 3D020000 		.4byte	0x23d
 7576 1337 01       		.byte	0x1
 7577 1338 76       		.byte	0x76
 7578 1339 00       		.byte	0
 7579 133a 42130000 		.4byte	0x1342
 7580 133e 6F130000 		.4byte	0x136f
 7581 1342 1B       		.uleb128 0x1b
 7582 1343 7C080000 		.4byte	.LASF133
 7583 1347 990E0000 		.4byte	0xe99
 7584 134b 1C       		.uleb128 0x1c
 7585 134c 31030000 		.4byte	.LASF135
 7586 1350 01       		.byte	0x1
 7587 1351 76       		.byte	0x76
 7588 1352 150D0000 		.4byte	0xd15
 7589 1356 1C       		.uleb128 0x1c
 7590 1357 6F050000 		.4byte	.LASF147
 7591 135b 01       		.byte	0x1
 7592 135c 76       		.byte	0x76
 7593 135d 3A000000 		.4byte	0x3a
 7594 1361 20       		.uleb128 0x20
 7595 1362 21       		.uleb128 0x21
 7596 1363 62756600 		.ascii	"buf\000"
 7597 1367 01       		.byte	0x1
 7598 1368 79       		.byte	0x79
 7599 1369 52110000 		.4byte	0x1152
 7600 136d 00       		.byte	0
 7601 136e 00       		.byte	0
 7602 136f 1D       		.uleb128 0x1d
 7603 1370 32130000 		.4byte	0x1332
 7604 1374 82060000 		.4byte	.LASF149
 7605 1378 00000000 		.4byte	.LFB82
 7606 137c 46000000 		.4byte	.LFE82-.LFB82
 7607 1380 01       		.uleb128 0x1
 7608 1381 9C       		.byte	0x9c
 7609 1382 8A130000 		.4byte	0x138a
 7610 1386 B6130000 		.4byte	0x13b6
 7611 138a 1E       		.uleb128 0x1e
 7612 138b 42130000 		.4byte	0x1342
 7613 138f 02       		.uleb128 0x2
 7614 1390 91       		.byte	0x91
ARM GAS  C:\Users\Bruger\AppData\Local\Temp\ccjLt6bf.s 			page 148


 7615 1391 44       		.sleb128 -60
 7616 1392 1E       		.uleb128 0x1e
 7617 1393 4B130000 		.4byte	0x134b
 7618 1397 03       		.uleb128 0x3
 7619 1398 91       		.byte	0x91
 7620 1399 B87F     		.sleb128 -72
 7621 139b 1E       		.uleb128 0x1e
 7622 139c 56130000 		.4byte	0x1356
 7623 13a0 02       		.uleb128 0x2
 7624 13a1 91       		.byte	0x91
 7625 13a2 00       		.sleb128 0
 7626 13a3 24       		.uleb128 0x24
 7627 13a4 0C000000 		.4byte	.LBB20
 7628 13a8 30000000 		.4byte	.LBE20-.LBB20
 7629 13ac 25       		.uleb128 0x25
 7630 13ad 62130000 		.4byte	0x1362
 7631 13b1 02       		.uleb128 0x2
 7632 13b2 91       		.byte	0x91
 7633 13b3 4C       		.sleb128 -52
 7634 13b4 00       		.byte	0
 7635 13b5 00       		.byte	0
 7636 13b6 1A       		.uleb128 0x1a
 7637 13b7 61020000 		.4byte	0x261
 7638 13bb 01       		.byte	0x1
 7639 13bc 7D       		.byte	0x7d
 7640 13bd 00       		.byte	0
 7641 13be C6130000 		.4byte	0x13c6
 7642 13c2 D9130000 		.4byte	0x13d9
 7643 13c6 1B       		.uleb128 0x1b
 7644 13c7 7C080000 		.4byte	.LASF133
 7645 13cb 990E0000 		.4byte	0xe99
 7646 13cf 1B       		.uleb128 0x1b
 7647 13d0 480A0000 		.4byte	.LASF150
 7648 13d4 D9130000 		.4byte	0x13d9
 7649 13d8 00       		.byte	0
 7650 13d9 06       		.uleb128 0x6
 7651 13da 2C000000 		.4byte	0x2c
 7652 13de 1D       		.uleb128 0x1d
 7653 13df B6130000 		.4byte	0x13b6
 7654 13e3 6E060000 		.4byte	.LASF151
 7655 13e7 00000000 		.4byte	.LFB85
 7656 13eb 1C000000 		.4byte	.LFE85-.LFB85
 7657 13ef 01       		.uleb128 0x1
 7658 13f0 9C       		.byte	0x9c
 7659 13f1 F9130000 		.4byte	0x13f9
 7660 13f5 02140000 		.4byte	0x1402
 7661 13f9 1E       		.uleb128 0x1e
 7662 13fa C6130000 		.4byte	0x13c6
 7663 13fe 02       		.uleb128 0x2
 7664 13ff 91       		.byte	0x91
 7665 1400 74       		.sleb128 -12
 7666 1401 00       		.byte	0
 7667 1402 26       		.uleb128 0x26
 7668 1403 E50B0000 		.4byte	0xbe5
 7669 1407 01       		.byte	0x1
 7670 1408 86       		.byte	0x86
 7671 1409 00000000 		.4byte	.LFB87
ARM GAS  C:\Users\Bruger\AppData\Local\Temp\ccjLt6bf.s 			page 149


 7672 140d 24000000 		.4byte	.LFE87-.LFB87
 7673 1411 01       		.uleb128 0x1
 7674 1412 9C       		.byte	0x9c
 7675 1413 1B140000 		.4byte	0x141b
 7676 1417 28140000 		.4byte	0x1428
 7677 141b 27       		.uleb128 0x27
 7678 141c 7C080000 		.4byte	.LASF133
 7679 1420 990E0000 		.4byte	0xe99
 7680 1424 02       		.uleb128 0x2
 7681 1425 91       		.byte	0x91
 7682 1426 74       		.sleb128 -12
 7683 1427 00       		.byte	0
 7684 1428 28       		.uleb128 0x28
 7685 1429 FF0B0000 		.4byte	0xbff
 7686 142d 01       		.byte	0x1
 7687 142e 8D       		.byte	0x8d
 7688 142f 00000000 		.4byte	.LFB88
 7689 1433 34000000 		.4byte	.LFE88-.LFB88
 7690 1437 01       		.uleb128 0x1
 7691 1438 9C       		.byte	0x9c
 7692 1439 41140000 		.4byte	0x1441
 7693 143d 4E140000 		.4byte	0x144e
 7694 1441 27       		.uleb128 0x27
 7695 1442 7C080000 		.4byte	.LASF133
 7696 1446 990E0000 		.4byte	0xe99
 7697 144a 02       		.uleb128 0x2
 7698 144b 91       		.byte	0x91
 7699 144c 74       		.sleb128 -12
 7700 144d 00       		.byte	0
 7701 144e 28       		.uleb128 0x28
 7702 144f 80020000 		.4byte	0x280
 7703 1453 01       		.byte	0x1
 7704 1454 94       		.byte	0x94
 7705 1455 00000000 		.4byte	.LFB89
 7706 1459 56000000 		.4byte	.LFE89-.LFB89
 7707 145d 01       		.uleb128 0x1
 7708 145e 9C       		.byte	0x9c
 7709 145f 67140000 		.4byte	0x1467
 7710 1463 82140000 		.4byte	0x1482
 7711 1467 27       		.uleb128 0x27
 7712 1468 7C080000 		.4byte	.LASF133
 7713 146c 990E0000 		.4byte	0xe99
 7714 1470 02       		.uleb128 0x2
 7715 1471 91       		.byte	0x91
 7716 1472 74       		.sleb128 -12
 7717 1473 29       		.uleb128 0x29
 7718 1474 EF060000 		.4byte	.LASF152
 7719 1478 01       		.byte	0x1
 7720 1479 94       		.byte	0x94
 7721 147a 25000000 		.4byte	0x25
 7722 147e 02       		.uleb128 0x2
 7723 147f 91       		.byte	0x91
 7724 1480 70       		.sleb128 -16
 7725 1481 00       		.byte	0
 7726 1482 28       		.uleb128 0x28
 7727 1483 190C0000 		.4byte	0xc19
 7728 1487 01       		.byte	0x1
ARM GAS  C:\Users\Bruger\AppData\Local\Temp\ccjLt6bf.s 			page 150


 7729 1488 9E       		.byte	0x9e
 7730 1489 00000000 		.4byte	.LFB90
 7731 148d 3C000000 		.4byte	.LFE90-.LFB90
 7732 1491 01       		.uleb128 0x1
 7733 1492 9C       		.byte	0x9c
 7734 1493 9B140000 		.4byte	0x149b
 7735 1497 CE140000 		.4byte	0x14ce
 7736 149b 27       		.uleb128 0x27
 7737 149c 7C080000 		.4byte	.LASF133
 7738 14a0 990E0000 		.4byte	0xe99
 7739 14a4 02       		.uleb128 0x2
 7740 14a5 91       		.byte	0x91
 7741 14a6 6C       		.sleb128 -20
 7742 14a7 29       		.uleb128 0x29
 7743 14a8 330C0000 		.4byte	.LASF153
 7744 14ac 01       		.byte	0x1
 7745 14ad 9E       		.byte	0x9e
 7746 14ae 25000000 		.4byte	0x25
 7747 14b2 02       		.uleb128 0x2
 7748 14b3 91       		.byte	0x91
 7749 14b4 68       		.sleb128 -24
 7750 14b5 24       		.uleb128 0x24
 7751 14b6 0A000000 		.4byte	.LBB22
 7752 14ba 2A000000 		.4byte	.LBE22-.LBB22
 7753 14be 2A       		.uleb128 0x2a
 7754 14bf A2020000 		.4byte	.LASF154
 7755 14c3 01       		.byte	0x1
 7756 14c4 A0       		.byte	0xa0
 7757 14c5 7A000000 		.4byte	0x7a
 7758 14c9 02       		.uleb128 0x2
 7759 14ca 91       		.byte	0x91
 7760 14cb 74       		.sleb128 -12
 7761 14cc 00       		.byte	0
 7762 14cd 00       		.byte	0
 7763 14ce 28       		.uleb128 0x28
 7764 14cf 640C0000 		.4byte	0xc64
 7765 14d3 01       		.byte	0x1
 7766 14d4 AD       		.byte	0xad
 7767 14d5 00000000 		.4byte	.LFB91
 7768 14d9 4A000000 		.4byte	.LFE91-.LFB91
 7769 14dd 01       		.uleb128 0x1
 7770 14de 9C       		.byte	0x9c
 7771 14df E7140000 		.4byte	0x14e7
 7772 14e3 10150000 		.4byte	0x1510
 7773 14e7 27       		.uleb128 0x27
 7774 14e8 7C080000 		.4byte	.LASF133
 7775 14ec 990E0000 		.4byte	0xe99
 7776 14f0 02       		.uleb128 0x2
 7777 14f1 91       		.byte	0x91
 7778 14f2 74       		.sleb128 -12
 7779 14f3 29       		.uleb128 0x29
 7780 14f4 12000000 		.4byte	.LASF134
 7781 14f8 01       		.byte	0x1
 7782 14f9 AD       		.byte	0xad
 7783 14fa 87000000 		.4byte	0x87
 7784 14fe 02       		.uleb128 0x2
 7785 14ff 91       		.byte	0x91
ARM GAS  C:\Users\Bruger\AppData\Local\Temp\ccjLt6bf.s 			page 151


 7786 1500 70       		.sleb128 -16
 7787 1501 29       		.uleb128 0x29
 7788 1502 1E090000 		.4byte	.LASF16
 7789 1506 01       		.byte	0x1
 7790 1507 AD       		.byte	0xad
 7791 1508 25000000 		.4byte	0x25
 7792 150c 02       		.uleb128 0x2
 7793 150d 91       		.byte	0x91
 7794 150e 6C       		.sleb128 -20
 7795 150f 00       		.byte	0
 7796 1510 28       		.uleb128 0x28
 7797 1511 8C0C0000 		.4byte	0xc8c
 7798 1515 01       		.byte	0x1
 7799 1516 B8       		.byte	0xb8
 7800 1517 00000000 		.4byte	.LFB92
 7801 151b 4A000000 		.4byte	.LFE92-.LFB92
 7802 151f 01       		.uleb128 0x1
 7803 1520 9C       		.byte	0x9c
 7804 1521 29150000 		.4byte	0x1529
 7805 1525 52150000 		.4byte	0x1552
 7806 1529 27       		.uleb128 0x27
 7807 152a 7C080000 		.4byte	.LASF133
 7808 152e 990E0000 		.4byte	0xe99
 7809 1532 02       		.uleb128 0x2
 7810 1533 91       		.byte	0x91
 7811 1534 74       		.sleb128 -12
 7812 1535 29       		.uleb128 0x29
 7813 1536 7D060000 		.4byte	.LASF138
 7814 153a 01       		.byte	0x1
 7815 153b B8       		.byte	0xb8
 7816 153c FE0C0000 		.4byte	0xcfe
 7817 1540 02       		.uleb128 0x2
 7818 1541 91       		.byte	0x91
 7819 1542 70       		.sleb128 -16
 7820 1543 29       		.uleb128 0x29
 7821 1544 1E090000 		.4byte	.LASF16
 7822 1548 01       		.byte	0x1
 7823 1549 B8       		.byte	0xb8
 7824 154a 25000000 		.4byte	0x25
 7825 154e 02       		.uleb128 0x2
 7826 154f 91       		.byte	0x91
 7827 1550 6C       		.sleb128 -20
 7828 1551 00       		.byte	0
 7829 1552 28       		.uleb128 0x28
 7830 1553 C1020000 		.4byte	0x2c1
 7831 1557 01       		.byte	0x1
 7832 1558 D9       		.byte	0xd9
 7833 1559 00000000 		.4byte	.LFB93
 7834 155d 42000000 		.4byte	.LFE93-.LFB93
 7835 1561 01       		.uleb128 0x1
 7836 1562 9C       		.byte	0x9c
 7837 1563 6B150000 		.4byte	0x156b
 7838 1567 86150000 		.4byte	0x1586
 7839 156b 27       		.uleb128 0x27
 7840 156c 7C080000 		.4byte	.LASF133
 7841 1570 990E0000 		.4byte	0xe99
 7842 1574 02       		.uleb128 0x2
ARM GAS  C:\Users\Bruger\AppData\Local\Temp\ccjLt6bf.s 			page 152


 7843 1575 91       		.byte	0x91
 7844 1576 74       		.sleb128 -12
 7845 1577 2B       		.uleb128 0x2b
 7846 1578 72687300 		.ascii	"rhs\000"
 7847 157c 01       		.byte	0x1
 7848 157d D9       		.byte	0xd9
 7849 157e 86150000 		.4byte	0x1586
 7850 1582 02       		.uleb128 0x2
 7851 1583 91       		.byte	0x91
 7852 1584 70       		.sleb128 -16
 7853 1585 00       		.byte	0
 7854 1586 06       		.uleb128 0x6
 7855 1587 F80C0000 		.4byte	0xcf8
 7856 158b 28       		.uleb128 0x28
 7857 158c E4020000 		.4byte	0x2e4
 7858 1590 01       		.byte	0x1
 7859 1591 F1       		.byte	0xf1
 7860 1592 00000000 		.4byte	.LFB94
 7861 1596 34000000 		.4byte	.LFE94-.LFB94
 7862 159a 01       		.uleb128 0x1
 7863 159b 9C       		.byte	0x9c
 7864 159c A4150000 		.4byte	0x15a4
 7865 15a0 BF150000 		.4byte	0x15bf
 7866 15a4 27       		.uleb128 0x27
 7867 15a5 7C080000 		.4byte	.LASF133
 7868 15a9 990E0000 		.4byte	0xe99
 7869 15ad 02       		.uleb128 0x2
 7870 15ae 91       		.byte	0x91
 7871 15af 74       		.sleb128 -12
 7872 15b0 29       		.uleb128 0x29
 7873 15b1 12000000 		.4byte	.LASF134
 7874 15b5 01       		.byte	0x1
 7875 15b6 F1       		.byte	0xf1
 7876 15b7 87000000 		.4byte	0x87
 7877 15bb 02       		.uleb128 0x2
 7878 15bc 91       		.byte	0x91
 7879 15bd 70       		.sleb128 -16
 7880 15be 00       		.byte	0
 7881 15bf 28       		.uleb128 0x28
 7882 15c0 07030000 		.4byte	0x307
 7883 15c4 01       		.byte	0x1
 7884 15c5 F9       		.byte	0xf9
 7885 15c6 00000000 		.4byte	.LFB95
 7886 15ca 34000000 		.4byte	.LFE95-.LFB95
 7887 15ce 01       		.uleb128 0x1
 7888 15cf 9C       		.byte	0x9c
 7889 15d0 D8150000 		.4byte	0x15d8
 7890 15d4 F3150000 		.4byte	0x15f3
 7891 15d8 27       		.uleb128 0x27
 7892 15d9 7C080000 		.4byte	.LASF133
 7893 15dd 990E0000 		.4byte	0xe99
 7894 15e1 02       		.uleb128 0x2
 7895 15e2 91       		.byte	0x91
 7896 15e3 74       		.sleb128 -12
 7897 15e4 29       		.uleb128 0x29
 7898 15e5 7D060000 		.4byte	.LASF138
 7899 15e9 01       		.byte	0x1
ARM GAS  C:\Users\Bruger\AppData\Local\Temp\ccjLt6bf.s 			page 153


 7900 15ea F9       		.byte	0xf9
 7901 15eb FE0C0000 		.4byte	0xcfe
 7902 15ef 02       		.uleb128 0x2
 7903 15f0 91       		.byte	0x91
 7904 15f1 70       		.sleb128 -16
 7905 15f2 00       		.byte	0
 7906 15f3 2C       		.uleb128 0x2c
 7907 15f4 2A030000 		.4byte	0x32a
 7908 15f8 01       		.byte	0x1
 7909 15f9 0501     		.2byte	0x105
 7910 15fb 00000000 		.4byte	.LFB96
 7911 15ff 26000000 		.4byte	.LFE96-.LFB96
 7912 1603 01       		.uleb128 0x1
 7913 1604 9C       		.byte	0x9c
 7914 1605 0D160000 		.4byte	0x160d
 7915 1609 27160000 		.4byte	0x1627
 7916 160d 27       		.uleb128 0x27
 7917 160e 7C080000 		.4byte	.LASF133
 7918 1612 990E0000 		.4byte	0xe99
 7919 1616 02       		.uleb128 0x2
 7920 1617 91       		.byte	0x91
 7921 1618 74       		.sleb128 -12
 7922 1619 2D       		.uleb128 0x2d
 7923 161a 7300     		.ascii	"s\000"
 7924 161c 01       		.byte	0x1
 7925 161d 0501     		.2byte	0x105
 7926 161f 27160000 		.4byte	0x1627
 7927 1623 02       		.uleb128 0x2
 7928 1624 91       		.byte	0x91
 7929 1625 70       		.sleb128 -16
 7930 1626 00       		.byte	0
 7931 1627 06       		.uleb128 0x6
 7932 1628 F80C0000 		.4byte	0xcf8
 7933 162c 2C       		.uleb128 0x2c
 7934 162d 3C0C0000 		.4byte	0xc3c
 7935 1631 01       		.byte	0x1
 7936 1632 0A01     		.2byte	0x10a
 7937 1634 00000000 		.4byte	.LFB97
 7938 1638 68000000 		.4byte	.LFE97-.LFB97
 7939 163c 01       		.uleb128 0x1
 7940 163d 9C       		.byte	0x9c
 7941 163e 46160000 		.4byte	0x1646
 7942 1642 8A160000 		.4byte	0x168a
 7943 1646 27       		.uleb128 0x27
 7944 1647 7C080000 		.4byte	.LASF133
 7945 164b 990E0000 		.4byte	0xe99
 7946 164f 02       		.uleb128 0x2
 7947 1650 91       		.byte	0x91
 7948 1651 6C       		.sleb128 -20
 7949 1652 2E       		.uleb128 0x2e
 7950 1653 12000000 		.4byte	.LASF134
 7951 1657 01       		.byte	0x1
 7952 1658 0A01     		.2byte	0x10a
 7953 165a 87000000 		.4byte	0x87
 7954 165e 02       		.uleb128 0x2
 7955 165f 91       		.byte	0x91
 7956 1660 68       		.sleb128 -24
ARM GAS  C:\Users\Bruger\AppData\Local\Temp\ccjLt6bf.s 			page 154


 7957 1661 2E       		.uleb128 0x2e
 7958 1662 1E090000 		.4byte	.LASF16
 7959 1666 01       		.byte	0x1
 7960 1667 0A01     		.2byte	0x10a
 7961 1669 25000000 		.4byte	0x25
 7962 166d 02       		.uleb128 0x2
 7963 166e 91       		.byte	0x91
 7964 166f 64       		.sleb128 -28
 7965 1670 24       		.uleb128 0x24
 7966 1671 0C000000 		.4byte	.LBB23
 7967 1675 54000000 		.4byte	.LBE23-.LBB23
 7968 1679 2F       		.uleb128 0x2f
 7969 167a 2A010000 		.4byte	.LASF155
 7970 167e 01       		.byte	0x1
 7971 167f 0C01     		.2byte	0x10c
 7972 1681 25000000 		.4byte	0x25
 7973 1685 02       		.uleb128 0x2
 7974 1686 91       		.byte	0x91
 7975 1687 74       		.sleb128 -12
 7976 1688 00       		.byte	0
 7977 1689 00       		.byte	0
 7978 168a 2C       		.uleb128 0x2c
 7979 168b 4D030000 		.4byte	0x34d
 7980 168f 01       		.byte	0x1
 7981 1690 1501     		.2byte	0x115
 7982 1692 00000000 		.4byte	.LFB98
 7983 1696 30000000 		.4byte	.LFE98-.LFB98
 7984 169a 01       		.uleb128 0x1
 7985 169b 9C       		.byte	0x9c
 7986 169c A4160000 		.4byte	0x16a4
 7987 16a0 C0160000 		.4byte	0x16c0
 7988 16a4 27       		.uleb128 0x27
 7989 16a5 7C080000 		.4byte	.LASF133
 7990 16a9 990E0000 		.4byte	0xe99
 7991 16ad 02       		.uleb128 0x2
 7992 16ae 91       		.byte	0x91
 7993 16af 74       		.sleb128 -12
 7994 16b0 2E       		.uleb128 0x2e
 7995 16b1 12000000 		.4byte	.LASF134
 7996 16b5 01       		.byte	0x1
 7997 16b6 1501     		.2byte	0x115
 7998 16b8 87000000 		.4byte	0x87
 7999 16bc 02       		.uleb128 0x2
 8000 16bd 91       		.byte	0x91
 8001 16be 70       		.sleb128 -16
 8002 16bf 00       		.byte	0
 8003 16c0 2C       		.uleb128 0x2c
 8004 16c1 70030000 		.4byte	0x370
 8005 16c5 01       		.byte	0x1
 8006 16c6 1B01     		.2byte	0x11b
 8007 16c8 00000000 		.4byte	.LFB99
 8008 16cc 2C000000 		.4byte	.LFE99-.LFB99
 8009 16d0 01       		.uleb128 0x1
 8010 16d1 9C       		.byte	0x9c
 8011 16d2 DA160000 		.4byte	0x16da
 8012 16d6 0D170000 		.4byte	0x170d
 8013 16da 27       		.uleb128 0x27
ARM GAS  C:\Users\Bruger\AppData\Local\Temp\ccjLt6bf.s 			page 155


 8014 16db 7C080000 		.4byte	.LASF133
 8015 16df 990E0000 		.4byte	0xe99
 8016 16e3 02       		.uleb128 0x2
 8017 16e4 91       		.byte	0x91
 8018 16e5 6C       		.sleb128 -20
 8019 16e6 2D       		.uleb128 0x2d
 8020 16e7 6300     		.ascii	"c\000"
 8021 16e9 01       		.byte	0x1
 8022 16ea 1B01     		.2byte	0x11b
 8023 16ec 80000000 		.4byte	0x80
 8024 16f0 02       		.uleb128 0x2
 8025 16f1 91       		.byte	0x91
 8026 16f2 6B       		.sleb128 -21
 8027 16f3 24       		.uleb128 0x24
 8028 16f4 0C000000 		.4byte	.LBB24
 8029 16f8 18000000 		.4byte	.LBE24-.LBB24
 8030 16fc 30       		.uleb128 0x30
 8031 16fd 62756600 		.ascii	"buf\000"
 8032 1701 01       		.byte	0x1
 8033 1702 1D01     		.2byte	0x11d
 8034 1704 A10F0000 		.4byte	0xfa1
 8035 1708 02       		.uleb128 0x2
 8036 1709 91       		.byte	0x91
 8037 170a 74       		.sleb128 -12
 8038 170b 00       		.byte	0
 8039 170c 00       		.byte	0
 8040 170d 2C       		.uleb128 0x2c
 8041 170e 93030000 		.4byte	0x393
 8042 1712 01       		.byte	0x1
 8043 1713 2301     		.2byte	0x123
 8044 1715 00000000 		.4byte	.LFB100
 8045 1719 3E000000 		.4byte	.LFE100-.LFB100
 8046 171d 01       		.uleb128 0x1
 8047 171e 9C       		.byte	0x9c
 8048 171f 27170000 		.4byte	0x1727
 8049 1723 5C170000 		.4byte	0x175c
 8050 1727 27       		.uleb128 0x27
 8051 1728 7C080000 		.4byte	.LASF133
 8052 172c 990E0000 		.4byte	0xe99
 8053 1730 02       		.uleb128 0x2
 8054 1731 91       		.byte	0x91
 8055 1732 6C       		.sleb128 -20
 8056 1733 2D       		.uleb128 0x2d
 8057 1734 6E756D00 		.ascii	"num\000"
 8058 1738 01       		.byte	0x1
 8059 1739 2301     		.2byte	0x123
 8060 173b 3A000000 		.4byte	0x3a
 8061 173f 02       		.uleb128 0x2
 8062 1740 91       		.byte	0x91
 8063 1741 6B       		.sleb128 -21
 8064 1742 24       		.uleb128 0x24
 8065 1743 0C000000 		.4byte	.LBB25
 8066 1747 2A000000 		.4byte	.LBE25-.LBB25
 8067 174b 30       		.uleb128 0x30
 8068 174c 62756600 		.ascii	"buf\000"
 8069 1750 01       		.byte	0x1
 8070 1751 2501     		.2byte	0x125
ARM GAS  C:\Users\Bruger\AppData\Local\Temp\ccjLt6bf.s 			page 156


 8071 1753 5C170000 		.4byte	0x175c
 8072 1757 02       		.uleb128 0x2
 8073 1758 91       		.byte	0x91
 8074 1759 74       		.sleb128 -12
 8075 175a 00       		.byte	0
 8076 175b 00       		.byte	0
 8077 175c 22       		.uleb128 0x22
 8078 175d 80000000 		.4byte	0x80
 8079 1761 6C170000 		.4byte	0x176c
 8080 1765 23       		.uleb128 0x23
 8081 1766 6B000000 		.4byte	0x6b
 8082 176a 03       		.byte	0x3
 8083 176b 00       		.byte	0
 8084 176c 2C       		.uleb128 0x2c
 8085 176d B6030000 		.4byte	0x3b6
 8086 1771 01       		.byte	0x1
 8087 1772 2A01     		.2byte	0x12a
 8088 1774 00000000 		.4byte	.LFB101
 8089 1778 3A000000 		.4byte	.LFE101-.LFB101
 8090 177c 01       		.uleb128 0x1
 8091 177d 9C       		.byte	0x9c
 8092 177e 86170000 		.4byte	0x1786
 8093 1782 BB170000 		.4byte	0x17bb
 8094 1786 27       		.uleb128 0x27
 8095 1787 7C080000 		.4byte	.LASF133
 8096 178b 990E0000 		.4byte	0xe99
 8097 178f 02       		.uleb128 0x2
 8098 1790 91       		.byte	0x91
 8099 1791 64       		.sleb128 -28
 8100 1792 2D       		.uleb128 0x2d
 8101 1793 6E756D00 		.ascii	"num\000"
 8102 1797 01       		.byte	0x1
 8103 1798 2A01     		.2byte	0x12a
 8104 179a 2C000000 		.4byte	0x2c
 8105 179e 02       		.uleb128 0x2
 8106 179f 91       		.byte	0x91
 8107 17a0 60       		.sleb128 -32
 8108 17a1 24       		.uleb128 0x24
 8109 17a2 0A000000 		.4byte	.LBB26
 8110 17a6 28000000 		.4byte	.LBE26-.LBB26
 8111 17aa 30       		.uleb128 0x30
 8112 17ab 62756600 		.ascii	"buf\000"
 8113 17af 01       		.byte	0x1
 8114 17b0 2C01     		.2byte	0x12c
 8115 17b2 BB170000 		.4byte	0x17bb
 8116 17b6 02       		.uleb128 0x2
 8117 17b7 91       		.byte	0x91
 8118 17b8 68       		.sleb128 -24
 8119 17b9 00       		.byte	0
 8120 17ba 00       		.byte	0
 8121 17bb 22       		.uleb128 0x22
 8122 17bc 80000000 		.4byte	0x80
 8123 17c0 CB170000 		.4byte	0x17cb
 8124 17c4 23       		.uleb128 0x23
 8125 17c5 6B000000 		.4byte	0x6b
 8126 17c9 0D       		.byte	0xd
 8127 17ca 00       		.byte	0
ARM GAS  C:\Users\Bruger\AppData\Local\Temp\ccjLt6bf.s 			page 157


 8128 17cb 2C       		.uleb128 0x2c
 8129 17cc D9030000 		.4byte	0x3d9
 8130 17d0 01       		.byte	0x1
 8131 17d1 3101     		.2byte	0x131
 8132 17d3 00000000 		.4byte	.LFB102
 8133 17d7 3A000000 		.4byte	.LFE102-.LFB102
 8134 17db 01       		.uleb128 0x1
 8135 17dc 9C       		.byte	0x9c
 8136 17dd E5170000 		.4byte	0x17e5
 8137 17e1 1A180000 		.4byte	0x181a
 8138 17e5 27       		.uleb128 0x27
 8139 17e6 7C080000 		.4byte	.LASF133
 8140 17ea 990E0000 		.4byte	0xe99
 8141 17ee 02       		.uleb128 0x2
 8142 17ef 91       		.byte	0x91
 8143 17f0 64       		.sleb128 -28
 8144 17f1 2D       		.uleb128 0x2d
 8145 17f2 6E756D00 		.ascii	"num\000"
 8146 17f6 01       		.byte	0x1
 8147 17f7 3101     		.2byte	0x131
 8148 17f9 25000000 		.4byte	0x25
 8149 17fd 02       		.uleb128 0x2
 8150 17fe 91       		.byte	0x91
 8151 17ff 60       		.sleb128 -32
 8152 1800 24       		.uleb128 0x24
 8153 1801 0A000000 		.4byte	.LBB27
 8154 1805 28000000 		.4byte	.LBE27-.LBB27
 8155 1809 30       		.uleb128 0x30
 8156 180a 62756600 		.ascii	"buf\000"
 8157 180e 01       		.byte	0x1
 8158 180f 3301     		.2byte	0x133
 8159 1811 1A180000 		.4byte	0x181a
 8160 1815 02       		.uleb128 0x2
 8161 1816 91       		.byte	0x91
 8162 1817 68       		.sleb128 -24
 8163 1818 00       		.byte	0
 8164 1819 00       		.byte	0
 8165 181a 22       		.uleb128 0x22
 8166 181b 80000000 		.4byte	0x80
 8167 181f 2A180000 		.4byte	0x182a
 8168 1823 23       		.uleb128 0x23
 8169 1824 6B000000 		.4byte	0x6b
 8170 1828 0C       		.byte	0xc
 8171 1829 00       		.byte	0
 8172 182a 2C       		.uleb128 0x2c
 8173 182b FC030000 		.4byte	0x3fc
 8174 182f 01       		.byte	0x1
 8175 1830 3801     		.2byte	0x138
 8176 1832 00000000 		.4byte	.LFB103
 8177 1836 3A000000 		.4byte	.LFE103-.LFB103
 8178 183a 01       		.uleb128 0x1
 8179 183b 9C       		.byte	0x9c
 8180 183c 44180000 		.4byte	0x1844
 8181 1840 79180000 		.4byte	0x1879
 8182 1844 27       		.uleb128 0x27
 8183 1845 7C080000 		.4byte	.LASF133
 8184 1849 990E0000 		.4byte	0xe99
ARM GAS  C:\Users\Bruger\AppData\Local\Temp\ccjLt6bf.s 			page 158


 8185 184d 02       		.uleb128 0x2
 8186 184e 91       		.byte	0x91
 8187 184f 64       		.sleb128 -28
 8188 1850 2D       		.uleb128 0x2d
 8189 1851 6E756D00 		.ascii	"num\000"
 8190 1855 01       		.byte	0x1
 8191 1856 3801     		.2byte	0x138
 8192 1858 4F000000 		.4byte	0x4f
 8193 185c 02       		.uleb128 0x2
 8194 185d 91       		.byte	0x91
 8195 185e 60       		.sleb128 -32
 8196 185f 24       		.uleb128 0x24
 8197 1860 0A000000 		.4byte	.LBB28
 8198 1864 28000000 		.4byte	.LBE28-.LBB28
 8199 1868 30       		.uleb128 0x30
 8200 1869 62756600 		.ascii	"buf\000"
 8201 186d 01       		.byte	0x1
 8202 186e 3A01     		.2byte	0x13a
 8203 1870 BB170000 		.4byte	0x17bb
 8204 1874 02       		.uleb128 0x2
 8205 1875 91       		.byte	0x91
 8206 1876 68       		.sleb128 -24
 8207 1877 00       		.byte	0
 8208 1878 00       		.byte	0
 8209 1879 2C       		.uleb128 0x2c
 8210 187a 1F040000 		.4byte	0x41f
 8211 187e 01       		.byte	0x1
 8212 187f 3F01     		.2byte	0x13f
 8213 1881 00000000 		.4byte	.LFB104
 8214 1885 3A000000 		.4byte	.LFE104-.LFB104
 8215 1889 01       		.uleb128 0x1
 8216 188a 9C       		.byte	0x9c
 8217 188b 93180000 		.4byte	0x1893
 8218 188f C8180000 		.4byte	0x18c8
 8219 1893 27       		.uleb128 0x27
 8220 1894 7C080000 		.4byte	.LASF133
 8221 1898 990E0000 		.4byte	0xe99
 8222 189c 02       		.uleb128 0x2
 8223 189d 91       		.byte	0x91
 8224 189e 64       		.sleb128 -28
 8225 189f 2D       		.uleb128 0x2d
 8226 18a0 6E756D00 		.ascii	"num\000"
 8227 18a4 01       		.byte	0x1
 8228 18a5 3F01     		.2byte	0x13f
 8229 18a7 56000000 		.4byte	0x56
 8230 18ab 02       		.uleb128 0x2
 8231 18ac 91       		.byte	0x91
 8232 18ad 60       		.sleb128 -32
 8233 18ae 24       		.uleb128 0x24
 8234 18af 0A000000 		.4byte	.LBB29
 8235 18b3 28000000 		.4byte	.LBE29-.LBB29
 8236 18b7 30       		.uleb128 0x30
 8237 18b8 62756600 		.ascii	"buf\000"
 8238 18bc 01       		.byte	0x1
 8239 18bd 4101     		.2byte	0x141
 8240 18bf 1A180000 		.4byte	0x181a
 8241 18c3 02       		.uleb128 0x2
ARM GAS  C:\Users\Bruger\AppData\Local\Temp\ccjLt6bf.s 			page 159


 8242 18c4 91       		.byte	0x91
 8243 18c5 68       		.sleb128 -24
 8244 18c6 00       		.byte	0
 8245 18c7 00       		.byte	0
 8246 18c8 2C       		.uleb128 0x2c
 8247 18c9 42040000 		.4byte	0x442
 8248 18cd 01       		.byte	0x1
 8249 18ce 4601     		.2byte	0x146
 8250 18d0 00000000 		.4byte	.LFB105
 8251 18d4 3E000000 		.4byte	.LFE105-.LFB105
 8252 18d8 01       		.uleb128 0x1
 8253 18d9 9C       		.byte	0x9c
 8254 18da E2180000 		.4byte	0x18e2
 8255 18de 26190000 		.4byte	0x1926
 8256 18e2 27       		.uleb128 0x27
 8257 18e3 7C080000 		.4byte	.LASF133
 8258 18e7 990E0000 		.4byte	0xe99
 8259 18eb 02       		.uleb128 0x2
 8260 18ec 91       		.byte	0x91
 8261 18ed 5C       		.sleb128 -36
 8262 18ee 2D       		.uleb128 0x2d
 8263 18ef 6E756D00 		.ascii	"num\000"
 8264 18f3 01       		.byte	0x1
 8265 18f4 4601     		.2byte	0x146
 8266 18f6 0E0D0000 		.4byte	0xd0e
 8267 18fa 02       		.uleb128 0x2
 8268 18fb 91       		.byte	0x91
 8269 18fc 58       		.sleb128 -40
 8270 18fd 24       		.uleb128 0x24
 8271 18fe 0A000000 		.4byte	.LBB30
 8272 1902 2C000000 		.4byte	.LBE30-.LBB30
 8273 1906 30       		.uleb128 0x30
 8274 1907 62756600 		.ascii	"buf\000"
 8275 190b 01       		.byte	0x1
 8276 190c 4801     		.2byte	0x148
 8277 190e 26190000 		.4byte	0x1926
 8278 1912 02       		.uleb128 0x2
 8279 1913 91       		.byte	0x91
 8280 1914 60       		.sleb128 -32
 8281 1915 2F       		.uleb128 0x2f
 8282 1916 FB040000 		.4byte	.LASF156
 8283 191a 01       		.byte	0x1
 8284 191b 4901     		.2byte	0x149
 8285 191d 7A000000 		.4byte	0x7a
 8286 1921 02       		.uleb128 0x2
 8287 1922 91       		.byte	0x91
 8288 1923 74       		.sleb128 -12
 8289 1924 00       		.byte	0
 8290 1925 00       		.byte	0
 8291 1926 22       		.uleb128 0x22
 8292 1927 80000000 		.4byte	0x80
 8293 192b 36190000 		.4byte	0x1936
 8294 192f 23       		.uleb128 0x23
 8295 1930 6B000000 		.4byte	0x6b
 8296 1934 13       		.byte	0x13
 8297 1935 00       		.byte	0
 8298 1936 2C       		.uleb128 0x2c
ARM GAS  C:\Users\Bruger\AppData\Local\Temp\ccjLt6bf.s 			page 160


 8299 1937 65040000 		.4byte	0x465
 8300 193b 01       		.byte	0x1
 8301 193c 4D01     		.2byte	0x14d
 8302 193e 00000000 		.4byte	.LFB106
 8303 1942 3E000000 		.4byte	.LFE106-.LFB106
 8304 1946 01       		.uleb128 0x1
 8305 1947 9C       		.byte	0x9c
 8306 1948 50190000 		.4byte	0x1950
 8307 194c 94190000 		.4byte	0x1994
 8308 1950 27       		.uleb128 0x27
 8309 1951 7C080000 		.4byte	.LASF133
 8310 1955 990E0000 		.4byte	0xe99
 8311 1959 02       		.uleb128 0x2
 8312 195a 91       		.byte	0x91
 8313 195b 5C       		.sleb128 -36
 8314 195c 2D       		.uleb128 0x2d
 8315 195d 6E756D00 		.ascii	"num\000"
 8316 1961 01       		.byte	0x1
 8317 1962 4D01     		.2byte	0x14d
 8318 1964 150D0000 		.4byte	0xd15
 8319 1968 02       		.uleb128 0x2
 8320 1969 91       		.byte	0x91
 8321 196a 50       		.sleb128 -48
 8322 196b 24       		.uleb128 0x24
 8323 196c 0C000000 		.4byte	.LBB31
 8324 1970 2A000000 		.4byte	.LBE31-.LBB31
 8325 1974 30       		.uleb128 0x30
 8326 1975 62756600 		.ascii	"buf\000"
 8327 1979 01       		.byte	0x1
 8328 197a 4F01     		.2byte	0x14f
 8329 197c 26190000 		.4byte	0x1926
 8330 1980 02       		.uleb128 0x2
 8331 1981 91       		.byte	0x91
 8332 1982 60       		.sleb128 -32
 8333 1983 2F       		.uleb128 0x2f
 8334 1984 FB040000 		.4byte	.LASF156
 8335 1988 01       		.byte	0x1
 8336 1989 5001     		.2byte	0x150
 8337 198b 7A000000 		.4byte	0x7a
 8338 198f 02       		.uleb128 0x2
 8339 1990 91       		.byte	0x91
 8340 1991 74       		.sleb128 -12
 8341 1992 00       		.byte	0
 8342 1993 00       		.byte	0
 8343 1994 2C       		.uleb128 0x2c
 8344 1995 88040000 		.4byte	0x488
 8345 1999 01       		.byte	0x1
 8346 199a 5401     		.2byte	0x154
 8347 199c 00000000 		.4byte	.LFB107
 8348 19a0 70000000 		.4byte	.LFE107-.LFB107
 8349 19a4 01       		.uleb128 0x1
 8350 19a5 9C       		.byte	0x9c
 8351 19a6 AE190000 		.4byte	0x19ae
 8352 19aa F2190000 		.4byte	0x19f2
 8353 19ae 27       		.uleb128 0x27
 8354 19af 7C080000 		.4byte	.LASF133
 8355 19b3 990E0000 		.4byte	0xe99
ARM GAS  C:\Users\Bruger\AppData\Local\Temp\ccjLt6bf.s 			page 161


 8356 19b7 02       		.uleb128 0x2
 8357 19b8 91       		.byte	0x91
 8358 19b9 6C       		.sleb128 -20
 8359 19ba 2D       		.uleb128 0x2d
 8360 19bb 73747200 		.ascii	"str\000"
 8361 19bf 01       		.byte	0x1
 8362 19c0 5401     		.2byte	0x154
 8363 19c2 FE0C0000 		.4byte	0xcfe
 8364 19c6 02       		.uleb128 0x2
 8365 19c7 91       		.byte	0x91
 8366 19c8 68       		.sleb128 -24
 8367 19c9 24       		.uleb128 0x24
 8368 19ca 0A000000 		.4byte	.LBB32
 8369 19ce 5E000000 		.4byte	.LBE32-.LBB32
 8370 19d2 2F       		.uleb128 0x2f
 8371 19d3 1E090000 		.4byte	.LASF16
 8372 19d7 01       		.byte	0x1
 8373 19d8 5701     		.2byte	0x157
 8374 19da 2C000000 		.4byte	0x2c
 8375 19de 02       		.uleb128 0x2
 8376 19df 91       		.byte	0x91
 8377 19e0 74       		.sleb128 -12
 8378 19e1 2F       		.uleb128 0x2f
 8379 19e2 2A010000 		.4byte	.LASF155
 8380 19e6 01       		.byte	0x1
 8381 19e7 5901     		.2byte	0x159
 8382 19e9 25000000 		.4byte	0x25
 8383 19ed 02       		.uleb128 0x2
 8384 19ee 91       		.byte	0x91
 8385 19ef 70       		.sleb128 -16
 8386 19f0 00       		.byte	0
 8387 19f1 00       		.byte	0
 8388 19f2 31       		.uleb128 0x31
 8389 19f3 92060000 		.4byte	.LASF157
 8390 19f7 01       		.byte	0x1
 8391 19f8 6401     		.2byte	0x164
 8392 19fa FE050000 		.4byte	.LASF158
 8393 19fe 461A0000 		.4byte	0x1a46
 8394 1a02 00000000 		.4byte	.LFB108
 8395 1a06 44000000 		.4byte	.LFE108-.LFB108
 8396 1a0a 01       		.uleb128 0x1
 8397 1a0b 9C       		.byte	0x9c
 8398 1a0c 461A0000 		.4byte	0x1a46
 8399 1a10 2D       		.uleb128 0x2d
 8400 1a11 6C687300 		.ascii	"lhs\000"
 8401 1a15 01       		.byte	0x1
 8402 1a16 6401     		.2byte	0x164
 8403 1a18 4C1A0000 		.4byte	0x1a4c
 8404 1a1c 02       		.uleb128 0x2
 8405 1a1d 91       		.byte	0x91
 8406 1a1e 6C       		.sleb128 -20
 8407 1a1f 2D       		.uleb128 0x2d
 8408 1a20 72687300 		.ascii	"rhs\000"
 8409 1a24 01       		.byte	0x1
 8410 1a25 6401     		.2byte	0x164
 8411 1a27 5C1A0000 		.4byte	0x1a5c
 8412 1a2b 02       		.uleb128 0x2
ARM GAS  C:\Users\Bruger\AppData\Local\Temp\ccjLt6bf.s 			page 162


 8413 1a2c 91       		.byte	0x91
 8414 1a2d 68       		.sleb128 -24
 8415 1a2e 24       		.uleb128 0x24
 8416 1a2f 0A000000 		.4byte	.LBB33
 8417 1a33 32000000 		.4byte	.LBE33-.LBB33
 8418 1a37 30       		.uleb128 0x30
 8419 1a38 6100     		.ascii	"a\000"
 8420 1a3a 01       		.byte	0x1
 8421 1a3b 6601     		.2byte	0x166
 8422 1a3d 611A0000 		.4byte	0x1a61
 8423 1a41 02       		.uleb128 0x2
 8424 1a42 91       		.byte	0x91
 8425 1a43 74       		.sleb128 -12
 8426 1a44 00       		.byte	0
 8427 1a45 00       		.byte	0
 8428 1a46 16       		.uleb128 0x16
 8429 1a47 04       		.byte	0x4
 8430 1a48 280D0000 		.4byte	0xd28
 8431 1a4c 06       		.uleb128 0x6
 8432 1a4d 511A0000 		.4byte	0x1a51
 8433 1a51 16       		.uleb128 0x16
 8434 1a52 04       		.byte	0x4
 8435 1a53 571A0000 		.4byte	0x1a57
 8436 1a57 06       		.uleb128 0x6
 8437 1a58 280D0000 		.4byte	0xd28
 8438 1a5c 06       		.uleb128 0x6
 8439 1a5d F80C0000 		.4byte	0xcf8
 8440 1a61 06       		.uleb128 0x6
 8441 1a62 461A0000 		.4byte	0x1a46
 8442 1a66 31       		.uleb128 0x31
 8443 1a67 92060000 		.4byte	.LASF157
 8444 1a6b 01       		.byte	0x1
 8445 1a6c 6B01     		.2byte	0x16b
 8446 1a6e A5030000 		.4byte	.LASF159
 8447 1a72 461A0000 		.4byte	0x1a46
 8448 1a76 00000000 		.4byte	.LFB109
 8449 1a7a 4A000000 		.4byte	.LFE109-.LFB109
 8450 1a7e 01       		.uleb128 0x1
 8451 1a7f 9C       		.byte	0x9c
 8452 1a80 BA1A0000 		.4byte	0x1aba
 8453 1a84 2D       		.uleb128 0x2d
 8454 1a85 6C687300 		.ascii	"lhs\000"
 8455 1a89 01       		.byte	0x1
 8456 1a8a 6B01     		.2byte	0x16b
 8457 1a8c BA1A0000 		.4byte	0x1aba
 8458 1a90 02       		.uleb128 0x2
 8459 1a91 91       		.byte	0x91
 8460 1a92 64       		.sleb128 -28
 8461 1a93 2E       		.uleb128 0x2e
 8462 1a94 12000000 		.4byte	.LASF134
 8463 1a98 01       		.byte	0x1
 8464 1a99 6B01     		.2byte	0x16b
 8465 1a9b 87000000 		.4byte	0x87
 8466 1a9f 02       		.uleb128 0x2
 8467 1aa0 91       		.byte	0x91
 8468 1aa1 60       		.sleb128 -32
 8469 1aa2 24       		.uleb128 0x24
ARM GAS  C:\Users\Bruger\AppData\Local\Temp\ccjLt6bf.s 			page 163


 8470 1aa3 0A000000 		.4byte	.LBB34
 8471 1aa7 38000000 		.4byte	.LBE34-.LBB34
 8472 1aab 30       		.uleb128 0x30
 8473 1aac 6100     		.ascii	"a\000"
 8474 1aae 01       		.byte	0x1
 8475 1aaf 6D01     		.2byte	0x16d
 8476 1ab1 BF1A0000 		.4byte	0x1abf
 8477 1ab5 02       		.uleb128 0x2
 8478 1ab6 91       		.byte	0x91
 8479 1ab7 6C       		.sleb128 -20
 8480 1ab8 00       		.byte	0
 8481 1ab9 00       		.byte	0
 8482 1aba 06       		.uleb128 0x6
 8483 1abb 511A0000 		.4byte	0x1a51
 8484 1abf 06       		.uleb128 0x6
 8485 1ac0 461A0000 		.4byte	0x1a46
 8486 1ac4 31       		.uleb128 0x31
 8487 1ac5 92060000 		.4byte	.LASF157
 8488 1ac9 01       		.byte	0x1
 8489 1aca 7201     		.2byte	0x172
 8490 1acc 3B000000 		.4byte	.LASF160
 8491 1ad0 461A0000 		.4byte	0x1a46
 8492 1ad4 00000000 		.4byte	.LFB110
 8493 1ad8 3E000000 		.4byte	.LFE110-.LFB110
 8494 1adc 01       		.uleb128 0x1
 8495 1add 9C       		.byte	0x9c
 8496 1ade 161B0000 		.4byte	0x1b16
 8497 1ae2 2D       		.uleb128 0x2d
 8498 1ae3 6C687300 		.ascii	"lhs\000"
 8499 1ae7 01       		.byte	0x1
 8500 1ae8 7201     		.2byte	0x172
 8501 1aea 161B0000 		.4byte	0x1b16
 8502 1aee 02       		.uleb128 0x2
 8503 1aef 91       		.byte	0x91
 8504 1af0 6C       		.sleb128 -20
 8505 1af1 2D       		.uleb128 0x2d
 8506 1af2 6300     		.ascii	"c\000"
 8507 1af4 01       		.byte	0x1
 8508 1af5 7201     		.2byte	0x172
 8509 1af7 80000000 		.4byte	0x80
 8510 1afb 02       		.uleb128 0x2
 8511 1afc 91       		.byte	0x91
 8512 1afd 6B       		.sleb128 -21
 8513 1afe 24       		.uleb128 0x24
 8514 1aff 0C000000 		.4byte	.LBB35
 8515 1b03 2A000000 		.4byte	.LBE35-.LBB35
 8516 1b07 30       		.uleb128 0x30
 8517 1b08 6100     		.ascii	"a\000"
 8518 1b0a 01       		.byte	0x1
 8519 1b0b 7401     		.2byte	0x174
 8520 1b0d 1B1B0000 		.4byte	0x1b1b
 8521 1b11 02       		.uleb128 0x2
 8522 1b12 91       		.byte	0x91
 8523 1b13 74       		.sleb128 -12
 8524 1b14 00       		.byte	0
 8525 1b15 00       		.byte	0
 8526 1b16 06       		.uleb128 0x6
ARM GAS  C:\Users\Bruger\AppData\Local\Temp\ccjLt6bf.s 			page 164


 8527 1b17 511A0000 		.4byte	0x1a51
 8528 1b1b 06       		.uleb128 0x6
 8529 1b1c 461A0000 		.4byte	0x1a46
 8530 1b20 31       		.uleb128 0x31
 8531 1b21 92060000 		.4byte	.LASF157
 8532 1b25 01       		.byte	0x1
 8533 1b26 7901     		.2byte	0x179
 8534 1b28 86000000 		.4byte	.LASF161
 8535 1b2c 461A0000 		.4byte	0x1a46
 8536 1b30 00000000 		.4byte	.LFB111
 8537 1b34 3E000000 		.4byte	.LFE111-.LFB111
 8538 1b38 01       		.uleb128 0x1
 8539 1b39 9C       		.byte	0x9c
 8540 1b3a 741B0000 		.4byte	0x1b74
 8541 1b3e 2D       		.uleb128 0x2d
 8542 1b3f 6C687300 		.ascii	"lhs\000"
 8543 1b43 01       		.byte	0x1
 8544 1b44 7901     		.2byte	0x179
 8545 1b46 741B0000 		.4byte	0x1b74
 8546 1b4a 02       		.uleb128 0x2
 8547 1b4b 91       		.byte	0x91
 8548 1b4c 6C       		.sleb128 -20
 8549 1b4d 2D       		.uleb128 0x2d
 8550 1b4e 6E756D00 		.ascii	"num\000"
 8551 1b52 01       		.byte	0x1
 8552 1b53 7901     		.2byte	0x179
 8553 1b55 3A000000 		.4byte	0x3a
 8554 1b59 02       		.uleb128 0x2
 8555 1b5a 91       		.byte	0x91
 8556 1b5b 6B       		.sleb128 -21
 8557 1b5c 24       		.uleb128 0x24
 8558 1b5d 0C000000 		.4byte	.LBB36
 8559 1b61 2A000000 		.4byte	.LBE36-.LBB36
 8560 1b65 30       		.uleb128 0x30
 8561 1b66 6100     		.ascii	"a\000"
 8562 1b68 01       		.byte	0x1
 8563 1b69 7B01     		.2byte	0x17b
 8564 1b6b 791B0000 		.4byte	0x1b79
 8565 1b6f 02       		.uleb128 0x2
 8566 1b70 91       		.byte	0x91
 8567 1b71 74       		.sleb128 -12
 8568 1b72 00       		.byte	0
 8569 1b73 00       		.byte	0
 8570 1b74 06       		.uleb128 0x6
 8571 1b75 511A0000 		.4byte	0x1a51
 8572 1b79 06       		.uleb128 0x6
 8573 1b7a 461A0000 		.4byte	0x1a46
 8574 1b7e 31       		.uleb128 0x31
 8575 1b7f 92060000 		.4byte	.LASF157
 8576 1b83 01       		.byte	0x1
 8577 1b84 8001     		.2byte	0x180
 8578 1b86 9F000000 		.4byte	.LASF162
 8579 1b8a 461A0000 		.4byte	0x1a46
 8580 1b8e 00000000 		.4byte	.LFB112
 8581 1b92 3A000000 		.4byte	.LFE112-.LFB112
 8582 1b96 01       		.uleb128 0x1
 8583 1b97 9C       		.byte	0x9c
ARM GAS  C:\Users\Bruger\AppData\Local\Temp\ccjLt6bf.s 			page 165


 8584 1b98 D21B0000 		.4byte	0x1bd2
 8585 1b9c 2D       		.uleb128 0x2d
 8586 1b9d 6C687300 		.ascii	"lhs\000"
 8587 1ba1 01       		.byte	0x1
 8588 1ba2 8001     		.2byte	0x180
 8589 1ba4 D21B0000 		.4byte	0x1bd2
 8590 1ba8 02       		.uleb128 0x2
 8591 1ba9 91       		.byte	0x91
 8592 1baa 6C       		.sleb128 -20
 8593 1bab 2D       		.uleb128 0x2d
 8594 1bac 6E756D00 		.ascii	"num\000"
 8595 1bb0 01       		.byte	0x1
 8596 1bb1 8001     		.2byte	0x180
 8597 1bb3 2C000000 		.4byte	0x2c
 8598 1bb7 02       		.uleb128 0x2
 8599 1bb8 91       		.byte	0x91
 8600 1bb9 68       		.sleb128 -24
 8601 1bba 24       		.uleb128 0x24
 8602 1bbb 0A000000 		.4byte	.LBB37
 8603 1bbf 28000000 		.4byte	.LBE37-.LBB37
 8604 1bc3 30       		.uleb128 0x30
 8605 1bc4 6100     		.ascii	"a\000"
 8606 1bc6 01       		.byte	0x1
 8607 1bc7 8201     		.2byte	0x182
 8608 1bc9 D71B0000 		.4byte	0x1bd7
 8609 1bcd 02       		.uleb128 0x2
 8610 1bce 91       		.byte	0x91
 8611 1bcf 74       		.sleb128 -12
 8612 1bd0 00       		.byte	0
 8613 1bd1 00       		.byte	0
 8614 1bd2 06       		.uleb128 0x6
 8615 1bd3 511A0000 		.4byte	0x1a51
 8616 1bd7 06       		.uleb128 0x6
 8617 1bd8 461A0000 		.4byte	0x1a46
 8618 1bdc 31       		.uleb128 0x31
 8619 1bdd 92060000 		.4byte	.LASF157
 8620 1be1 01       		.byte	0x1
 8621 1be2 8701     		.2byte	0x187
 8622 1be4 B8000000 		.4byte	.LASF163
 8623 1be8 461A0000 		.4byte	0x1a46
 8624 1bec 00000000 		.4byte	.LFB113
 8625 1bf0 3A000000 		.4byte	.LFE113-.LFB113
 8626 1bf4 01       		.uleb128 0x1
 8627 1bf5 9C       		.byte	0x9c
 8628 1bf6 301C0000 		.4byte	0x1c30
 8629 1bfa 2D       		.uleb128 0x2d
 8630 1bfb 6C687300 		.ascii	"lhs\000"
 8631 1bff 01       		.byte	0x1
 8632 1c00 8701     		.2byte	0x187
 8633 1c02 301C0000 		.4byte	0x1c30
 8634 1c06 02       		.uleb128 0x2
 8635 1c07 91       		.byte	0x91
 8636 1c08 6C       		.sleb128 -20
 8637 1c09 2D       		.uleb128 0x2d
 8638 1c0a 6E756D00 		.ascii	"num\000"
 8639 1c0e 01       		.byte	0x1
 8640 1c0f 8701     		.2byte	0x187
ARM GAS  C:\Users\Bruger\AppData\Local\Temp\ccjLt6bf.s 			page 166


 8641 1c11 25000000 		.4byte	0x25
 8642 1c15 02       		.uleb128 0x2
 8643 1c16 91       		.byte	0x91
 8644 1c17 68       		.sleb128 -24
 8645 1c18 24       		.uleb128 0x24
 8646 1c19 0A000000 		.4byte	.LBB38
 8647 1c1d 28000000 		.4byte	.LBE38-.LBB38
 8648 1c21 30       		.uleb128 0x30
 8649 1c22 6100     		.ascii	"a\000"
 8650 1c24 01       		.byte	0x1
 8651 1c25 8901     		.2byte	0x189
 8652 1c27 351C0000 		.4byte	0x1c35
 8653 1c2b 02       		.uleb128 0x2
 8654 1c2c 91       		.byte	0x91
 8655 1c2d 74       		.sleb128 -12
 8656 1c2e 00       		.byte	0
 8657 1c2f 00       		.byte	0
 8658 1c30 06       		.uleb128 0x6
 8659 1c31 511A0000 		.4byte	0x1a51
 8660 1c35 06       		.uleb128 0x6
 8661 1c36 461A0000 		.4byte	0x1a46
 8662 1c3a 31       		.uleb128 0x31
 8663 1c3b 92060000 		.4byte	.LASF157
 8664 1c3f 01       		.byte	0x1
 8665 1c40 8E01     		.2byte	0x18e
 8666 1c42 08030000 		.4byte	.LASF164
 8667 1c46 461A0000 		.4byte	0x1a46
 8668 1c4a 00000000 		.4byte	.LFB114
 8669 1c4e 3A000000 		.4byte	.LFE114-.LFB114
 8670 1c52 01       		.uleb128 0x1
 8671 1c53 9C       		.byte	0x9c
 8672 1c54 8E1C0000 		.4byte	0x1c8e
 8673 1c58 2D       		.uleb128 0x2d
 8674 1c59 6C687300 		.ascii	"lhs\000"
 8675 1c5d 01       		.byte	0x1
 8676 1c5e 8E01     		.2byte	0x18e
 8677 1c60 8E1C0000 		.4byte	0x1c8e
 8678 1c64 02       		.uleb128 0x2
 8679 1c65 91       		.byte	0x91
 8680 1c66 6C       		.sleb128 -20
 8681 1c67 2D       		.uleb128 0x2d
 8682 1c68 6E756D00 		.ascii	"num\000"
 8683 1c6c 01       		.byte	0x1
 8684 1c6d 8E01     		.2byte	0x18e
 8685 1c6f 4F000000 		.4byte	0x4f
 8686 1c73 02       		.uleb128 0x2
 8687 1c74 91       		.byte	0x91
 8688 1c75 68       		.sleb128 -24
 8689 1c76 24       		.uleb128 0x24
 8690 1c77 0A000000 		.4byte	.LBB39
 8691 1c7b 28000000 		.4byte	.LBE39-.LBB39
 8692 1c7f 30       		.uleb128 0x30
 8693 1c80 6100     		.ascii	"a\000"
 8694 1c82 01       		.byte	0x1
 8695 1c83 9001     		.2byte	0x190
 8696 1c85 931C0000 		.4byte	0x1c93
 8697 1c89 02       		.uleb128 0x2
ARM GAS  C:\Users\Bruger\AppData\Local\Temp\ccjLt6bf.s 			page 167


 8698 1c8a 91       		.byte	0x91
 8699 1c8b 74       		.sleb128 -12
 8700 1c8c 00       		.byte	0
 8701 1c8d 00       		.byte	0
 8702 1c8e 06       		.uleb128 0x6
 8703 1c8f 511A0000 		.4byte	0x1a51
 8704 1c93 06       		.uleb128 0x6
 8705 1c94 461A0000 		.4byte	0x1a46
 8706 1c98 31       		.uleb128 0x31
 8707 1c99 92060000 		.4byte	.LASF157
 8708 1c9d 01       		.byte	0x1
 8709 1c9e 9501     		.2byte	0x195
 8710 1ca0 D8000000 		.4byte	.LASF165
 8711 1ca4 461A0000 		.4byte	0x1a46
 8712 1ca8 00000000 		.4byte	.LFB115
 8713 1cac 3A000000 		.4byte	.LFE115-.LFB115
 8714 1cb0 01       		.uleb128 0x1
 8715 1cb1 9C       		.byte	0x9c
 8716 1cb2 EC1C0000 		.4byte	0x1cec
 8717 1cb6 2D       		.uleb128 0x2d
 8718 1cb7 6C687300 		.ascii	"lhs\000"
 8719 1cbb 01       		.byte	0x1
 8720 1cbc 9501     		.2byte	0x195
 8721 1cbe EC1C0000 		.4byte	0x1cec
 8722 1cc2 02       		.uleb128 0x2
 8723 1cc3 91       		.byte	0x91
 8724 1cc4 6C       		.sleb128 -20
 8725 1cc5 2D       		.uleb128 0x2d
 8726 1cc6 6E756D00 		.ascii	"num\000"
 8727 1cca 01       		.byte	0x1
 8728 1ccb 9501     		.2byte	0x195
 8729 1ccd 56000000 		.4byte	0x56
 8730 1cd1 02       		.uleb128 0x2
 8731 1cd2 91       		.byte	0x91
 8732 1cd3 68       		.sleb128 -24
 8733 1cd4 24       		.uleb128 0x24
 8734 1cd5 0A000000 		.4byte	.LBB40
 8735 1cd9 28000000 		.4byte	.LBE40-.LBB40
 8736 1cdd 30       		.uleb128 0x30
 8737 1cde 6100     		.ascii	"a\000"
 8738 1ce0 01       		.byte	0x1
 8739 1ce1 9701     		.2byte	0x197
 8740 1ce3 F11C0000 		.4byte	0x1cf1
 8741 1ce7 02       		.uleb128 0x2
 8742 1ce8 91       		.byte	0x91
 8743 1ce9 74       		.sleb128 -12
 8744 1cea 00       		.byte	0
 8745 1ceb 00       		.byte	0
 8746 1cec 06       		.uleb128 0x6
 8747 1ced 511A0000 		.4byte	0x1a51
 8748 1cf1 06       		.uleb128 0x6
 8749 1cf2 461A0000 		.4byte	0x1a46
 8750 1cf6 31       		.uleb128 0x31
 8751 1cf7 92060000 		.4byte	.LASF157
 8752 1cfb 01       		.byte	0x1
 8753 1cfc 9C01     		.2byte	0x19c
 8754 1cfe 6D000000 		.4byte	.LASF166
ARM GAS  C:\Users\Bruger\AppData\Local\Temp\ccjLt6bf.s 			page 168


 8755 1d02 461A0000 		.4byte	0x1a46
 8756 1d06 00000000 		.4byte	.LFB116
 8757 1d0a 3A000000 		.4byte	.LFE116-.LFB116
 8758 1d0e 01       		.uleb128 0x1
 8759 1d0f 9C       		.byte	0x9c
 8760 1d10 4A1D0000 		.4byte	0x1d4a
 8761 1d14 2D       		.uleb128 0x2d
 8762 1d15 6C687300 		.ascii	"lhs\000"
 8763 1d19 01       		.byte	0x1
 8764 1d1a 9C01     		.2byte	0x19c
 8765 1d1c 4A1D0000 		.4byte	0x1d4a
 8766 1d20 02       		.uleb128 0x2
 8767 1d21 91       		.byte	0x91
 8768 1d22 6C       		.sleb128 -20
 8769 1d23 2D       		.uleb128 0x2d
 8770 1d24 6E756D00 		.ascii	"num\000"
 8771 1d28 01       		.byte	0x1
 8772 1d29 9C01     		.2byte	0x19c
 8773 1d2b 0E0D0000 		.4byte	0xd0e
 8774 1d2f 02       		.uleb128 0x2
 8775 1d30 91       		.byte	0x91
 8776 1d31 68       		.sleb128 -24
 8777 1d32 24       		.uleb128 0x24
 8778 1d33 0A000000 		.4byte	.LBB41
 8779 1d37 28000000 		.4byte	.LBE41-.LBB41
 8780 1d3b 30       		.uleb128 0x30
 8781 1d3c 6100     		.ascii	"a\000"
 8782 1d3e 01       		.byte	0x1
 8783 1d3f 9E01     		.2byte	0x19e
 8784 1d41 4F1D0000 		.4byte	0x1d4f
 8785 1d45 02       		.uleb128 0x2
 8786 1d46 91       		.byte	0x91
 8787 1d47 74       		.sleb128 -12
 8788 1d48 00       		.byte	0
 8789 1d49 00       		.byte	0
 8790 1d4a 06       		.uleb128 0x6
 8791 1d4b 511A0000 		.4byte	0x1a51
 8792 1d4f 06       		.uleb128 0x6
 8793 1d50 461A0000 		.4byte	0x1a46
 8794 1d54 31       		.uleb128 0x31
 8795 1d55 92060000 		.4byte	.LASF157
 8796 1d59 01       		.byte	0x1
 8797 1d5a A301     		.2byte	0x1a3
 8798 1d5c 54000000 		.4byte	.LASF167
 8799 1d60 461A0000 		.4byte	0x1a46
 8800 1d64 00000000 		.4byte	.LFB117
 8801 1d68 3E000000 		.4byte	.LFE117-.LFB117
 8802 1d6c 01       		.uleb128 0x1
 8803 1d6d 9C       		.byte	0x9c
 8804 1d6e A81D0000 		.4byte	0x1da8
 8805 1d72 2D       		.uleb128 0x2d
 8806 1d73 6C687300 		.ascii	"lhs\000"
 8807 1d77 01       		.byte	0x1
 8808 1d78 A301     		.2byte	0x1a3
 8809 1d7a A81D0000 		.4byte	0x1da8
 8810 1d7e 02       		.uleb128 0x2
 8811 1d7f 91       		.byte	0x91
ARM GAS  C:\Users\Bruger\AppData\Local\Temp\ccjLt6bf.s 			page 169


 8812 1d80 6C       		.sleb128 -20
 8813 1d81 2D       		.uleb128 0x2d
 8814 1d82 6E756D00 		.ascii	"num\000"
 8815 1d86 01       		.byte	0x1
 8816 1d87 A301     		.2byte	0x1a3
 8817 1d89 150D0000 		.4byte	0xd15
 8818 1d8d 02       		.uleb128 0x2
 8819 1d8e 91       		.byte	0x91
 8820 1d8f 60       		.sleb128 -32
 8821 1d90 24       		.uleb128 0x24
 8822 1d91 0C000000 		.4byte	.LBB42
 8823 1d95 2A000000 		.4byte	.LBE42-.LBB42
 8824 1d99 30       		.uleb128 0x30
 8825 1d9a 6100     		.ascii	"a\000"
 8826 1d9c 01       		.byte	0x1
 8827 1d9d A501     		.2byte	0x1a5
 8828 1d9f AD1D0000 		.4byte	0x1dad
 8829 1da3 02       		.uleb128 0x2
 8830 1da4 91       		.byte	0x91
 8831 1da5 74       		.sleb128 -12
 8832 1da6 00       		.byte	0
 8833 1da7 00       		.byte	0
 8834 1da8 06       		.uleb128 0x6
 8835 1da9 511A0000 		.4byte	0x1a51
 8836 1dad 06       		.uleb128 0x6
 8837 1dae 461A0000 		.4byte	0x1a46
 8838 1db2 31       		.uleb128 0x31
 8839 1db3 92060000 		.4byte	.LASF157
 8840 1db7 01       		.byte	0x1
 8841 1db8 AA01     		.2byte	0x1aa
 8842 1dba 4D080000 		.4byte	.LASF168
 8843 1dbe 461A0000 		.4byte	0x1a46
 8844 1dc2 00000000 		.4byte	.LFB118
 8845 1dc6 3A000000 		.4byte	.LFE118-.LFB118
 8846 1dca 01       		.uleb128 0x1
 8847 1dcb 9C       		.byte	0x9c
 8848 1dcc 061E0000 		.4byte	0x1e06
 8849 1dd0 2D       		.uleb128 0x2d
 8850 1dd1 6C687300 		.ascii	"lhs\000"
 8851 1dd5 01       		.byte	0x1
 8852 1dd6 AA01     		.2byte	0x1aa
 8853 1dd8 061E0000 		.4byte	0x1e06
 8854 1ddc 02       		.uleb128 0x2
 8855 1ddd 91       		.byte	0x91
 8856 1dde 6C       		.sleb128 -20
 8857 1ddf 2D       		.uleb128 0x2d
 8858 1de0 72687300 		.ascii	"rhs\000"
 8859 1de4 01       		.byte	0x1
 8860 1de5 AA01     		.2byte	0x1aa
 8861 1de7 FE0C0000 		.4byte	0xcfe
 8862 1deb 02       		.uleb128 0x2
 8863 1dec 91       		.byte	0x91
 8864 1ded 68       		.sleb128 -24
 8865 1dee 24       		.uleb128 0x24
 8866 1def 0A000000 		.4byte	.LBB43
 8867 1df3 28000000 		.4byte	.LBE43-.LBB43
 8868 1df7 30       		.uleb128 0x30
ARM GAS  C:\Users\Bruger\AppData\Local\Temp\ccjLt6bf.s 			page 170


 8869 1df8 6100     		.ascii	"a\000"
 8870 1dfa 01       		.byte	0x1
 8871 1dfb AC01     		.2byte	0x1ac
 8872 1dfd 0B1E0000 		.4byte	0x1e0b
 8873 1e01 02       		.uleb128 0x2
 8874 1e02 91       		.byte	0x91
 8875 1e03 74       		.sleb128 -12
 8876 1e04 00       		.byte	0
 8877 1e05 00       		.byte	0
 8878 1e06 06       		.uleb128 0x6
 8879 1e07 511A0000 		.4byte	0x1a51
 8880 1e0b 06       		.uleb128 0x6
 8881 1e0c 461A0000 		.4byte	0x1a46
 8882 1e10 2C       		.uleb128 0x2c
 8883 1e11 4A060000 		.4byte	0x64a
 8884 1e15 01       		.byte	0x1
 8885 1e16 B501     		.2byte	0x1b5
 8886 1e18 00000000 		.4byte	.LFB119
 8887 1e1c 6A000000 		.4byte	.LFE119-.LFB119
 8888 1e20 01       		.uleb128 0x1
 8889 1e21 9C       		.byte	0x9c
 8890 1e22 2A1E0000 		.4byte	0x1e2a
 8891 1e26 441E0000 		.4byte	0x1e44
 8892 1e2a 27       		.uleb128 0x27
 8893 1e2b 7C080000 		.4byte	.LASF133
 8894 1e2f 441E0000 		.4byte	0x1e44
 8895 1e33 02       		.uleb128 0x2
 8896 1e34 91       		.byte	0x91
 8897 1e35 74       		.sleb128 -12
 8898 1e36 2D       		.uleb128 0x2d
 8899 1e37 7300     		.ascii	"s\000"
 8900 1e39 01       		.byte	0x1
 8901 1e3a B501     		.2byte	0x1b5
 8902 1e3c 491E0000 		.4byte	0x1e49
 8903 1e40 02       		.uleb128 0x2
 8904 1e41 91       		.byte	0x91
 8905 1e42 70       		.sleb128 -16
 8906 1e43 00       		.byte	0
 8907 1e44 06       		.uleb128 0x6
 8908 1e45 E10C0000 		.4byte	0xce1
 8909 1e49 06       		.uleb128 0x6
 8910 1e4a F80C0000 		.4byte	0xcf8
 8911 1e4e 2C       		.uleb128 0x2c
 8912 1e4f 6D060000 		.4byte	0x66d
 8913 1e53 01       		.byte	0x1
 8914 1e54 BF01     		.2byte	0x1bf
 8915 1e56 00000000 		.4byte	.LFB120
 8916 1e5a 32000000 		.4byte	.LFE120-.LFB120
 8917 1e5e 01       		.uleb128 0x1
 8918 1e5f 9C       		.byte	0x9c
 8919 1e60 681E0000 		.4byte	0x1e68
 8920 1e64 831E0000 		.4byte	0x1e83
 8921 1e68 27       		.uleb128 0x27
 8922 1e69 7C080000 		.4byte	.LASF133
 8923 1e6d 441E0000 		.4byte	0x1e44
 8924 1e71 02       		.uleb128 0x2
 8925 1e72 91       		.byte	0x91
ARM GAS  C:\Users\Bruger\AppData\Local\Temp\ccjLt6bf.s 			page 171


 8926 1e73 74       		.sleb128 -12
 8927 1e74 2D       		.uleb128 0x2d
 8928 1e75 733200   		.ascii	"s2\000"
 8929 1e78 01       		.byte	0x1
 8930 1e79 BF01     		.2byte	0x1bf
 8931 1e7b 831E0000 		.4byte	0x1e83
 8932 1e7f 02       		.uleb128 0x2
 8933 1e80 91       		.byte	0x91
 8934 1e81 70       		.sleb128 -16
 8935 1e82 00       		.byte	0
 8936 1e83 06       		.uleb128 0x6
 8937 1e84 F80C0000 		.4byte	0xcf8
 8938 1e88 2C       		.uleb128 0x2c
 8939 1e89 90060000 		.4byte	0x690
 8940 1e8d 01       		.byte	0x1
 8941 1e8e C401     		.2byte	0x1c4
 8942 1e90 00000000 		.4byte	.LFB121
 8943 1e94 60000000 		.4byte	.LFE121-.LFB121
 8944 1e98 01       		.uleb128 0x1
 8945 1e99 9C       		.byte	0x9c
 8946 1e9a A21E0000 		.4byte	0x1ea2
 8947 1e9e BE1E0000 		.4byte	0x1ebe
 8948 1ea2 27       		.uleb128 0x27
 8949 1ea3 7C080000 		.4byte	.LASF133
 8950 1ea7 441E0000 		.4byte	0x1e44
 8951 1eab 02       		.uleb128 0x2
 8952 1eac 91       		.byte	0x91
 8953 1ead 74       		.sleb128 -12
 8954 1eae 2E       		.uleb128 0x2e
 8955 1eaf 12000000 		.4byte	.LASF134
 8956 1eb3 01       		.byte	0x1
 8957 1eb4 C401     		.2byte	0x1c4
 8958 1eb6 87000000 		.4byte	0x87
 8959 1eba 02       		.uleb128 0x2
 8960 1ebb 91       		.byte	0x91
 8961 1ebc 70       		.sleb128 -16
 8962 1ebd 00       		.byte	0
 8963 1ebe 2C       		.uleb128 0x2c
 8964 1ebf 3F070000 		.4byte	0x73f
 8965 1ec3 01       		.byte	0x1
 8966 1ec4 CB01     		.2byte	0x1cb
 8967 1ec6 00000000 		.4byte	.LFB122
 8968 1eca 20000000 		.4byte	.LFE122-.LFB122
 8969 1ece 01       		.uleb128 0x1
 8970 1ecf 9C       		.byte	0x9c
 8971 1ed0 D81E0000 		.4byte	0x1ed8
 8972 1ed4 F41E0000 		.4byte	0x1ef4
 8973 1ed8 27       		.uleb128 0x27
 8974 1ed9 7C080000 		.4byte	.LASF133
 8975 1edd 441E0000 		.4byte	0x1e44
 8976 1ee1 02       		.uleb128 0x2
 8977 1ee2 91       		.byte	0x91
 8978 1ee3 74       		.sleb128 -12
 8979 1ee4 2D       		.uleb128 0x2d
 8980 1ee5 72687300 		.ascii	"rhs\000"
 8981 1ee9 01       		.byte	0x1
 8982 1eea CB01     		.2byte	0x1cb
ARM GAS  C:\Users\Bruger\AppData\Local\Temp\ccjLt6bf.s 			page 172


 8983 1eec F41E0000 		.4byte	0x1ef4
 8984 1ef0 02       		.uleb128 0x2
 8985 1ef1 91       		.byte	0x91
 8986 1ef2 70       		.sleb128 -16
 8987 1ef3 00       		.byte	0
 8988 1ef4 06       		.uleb128 0x6
 8989 1ef5 F80C0000 		.4byte	0xcf8
 8990 1ef9 2C       		.uleb128 0x2c
 8991 1efa 62070000 		.4byte	0x762
 8992 1efe 01       		.byte	0x1
 8993 1eff D001     		.2byte	0x1d0
 8994 1f01 00000000 		.4byte	.LFB123
 8995 1f05 26000000 		.4byte	.LFE123-.LFB123
 8996 1f09 01       		.uleb128 0x1
 8997 1f0a 9C       		.byte	0x9c
 8998 1f0b 131F0000 		.4byte	0x1f13
 8999 1f0f 2F1F0000 		.4byte	0x1f2f
 9000 1f13 27       		.uleb128 0x27
 9001 1f14 7C080000 		.4byte	.LASF133
 9002 1f18 441E0000 		.4byte	0x1e44
 9003 1f1c 02       		.uleb128 0x2
 9004 1f1d 91       		.byte	0x91
 9005 1f1e 74       		.sleb128 -12
 9006 1f1f 2D       		.uleb128 0x2d
 9007 1f20 72687300 		.ascii	"rhs\000"
 9008 1f24 01       		.byte	0x1
 9009 1f25 D001     		.2byte	0x1d0
 9010 1f27 2F1F0000 		.4byte	0x1f2f
 9011 1f2b 02       		.uleb128 0x2
 9012 1f2c 91       		.byte	0x91
 9013 1f2d 70       		.sleb128 -16
 9014 1f2e 00       		.byte	0
 9015 1f2f 06       		.uleb128 0x6
 9016 1f30 F80C0000 		.4byte	0xcf8
 9017 1f34 2C       		.uleb128 0x2c
 9018 1f35 85070000 		.4byte	0x785
 9019 1f39 01       		.byte	0x1
 9020 1f3a D501     		.2byte	0x1d5
 9021 1f3c 00000000 		.4byte	.LFB124
 9022 1f40 26000000 		.4byte	.LFE124-.LFB124
 9023 1f44 01       		.uleb128 0x1
 9024 1f45 9C       		.byte	0x9c
 9025 1f46 4E1F0000 		.4byte	0x1f4e
 9026 1f4a 6A1F0000 		.4byte	0x1f6a
 9027 1f4e 27       		.uleb128 0x27
 9028 1f4f 7C080000 		.4byte	.LASF133
 9029 1f53 441E0000 		.4byte	0x1e44
 9030 1f57 02       		.uleb128 0x2
 9031 1f58 91       		.byte	0x91
 9032 1f59 74       		.sleb128 -12
 9033 1f5a 2D       		.uleb128 0x2d
 9034 1f5b 72687300 		.ascii	"rhs\000"
 9035 1f5f 01       		.byte	0x1
 9036 1f60 D501     		.2byte	0x1d5
 9037 1f62 6A1F0000 		.4byte	0x1f6a
 9038 1f66 02       		.uleb128 0x2
 9039 1f67 91       		.byte	0x91
ARM GAS  C:\Users\Bruger\AppData\Local\Temp\ccjLt6bf.s 			page 173


 9040 1f68 70       		.sleb128 -16
 9041 1f69 00       		.byte	0
 9042 1f6a 06       		.uleb128 0x6
 9043 1f6b F80C0000 		.4byte	0xcf8
 9044 1f6f 2C       		.uleb128 0x2c
 9045 1f70 A8070000 		.4byte	0x7a8
 9046 1f74 01       		.byte	0x1
 9047 1f75 DA01     		.2byte	0x1da
 9048 1f77 00000000 		.4byte	.LFB125
 9049 1f7b 22000000 		.4byte	.LFE125-.LFB125
 9050 1f7f 01       		.uleb128 0x1
 9051 1f80 9C       		.byte	0x9c
 9052 1f81 891F0000 		.4byte	0x1f89
 9053 1f85 A51F0000 		.4byte	0x1fa5
 9054 1f89 27       		.uleb128 0x27
 9055 1f8a 7C080000 		.4byte	.LASF133
 9056 1f8e 441E0000 		.4byte	0x1e44
 9057 1f92 02       		.uleb128 0x2
 9058 1f93 91       		.byte	0x91
 9059 1f94 74       		.sleb128 -12
 9060 1f95 2D       		.uleb128 0x2d
 9061 1f96 72687300 		.ascii	"rhs\000"
 9062 1f9a 01       		.byte	0x1
 9063 1f9b DA01     		.2byte	0x1da
 9064 1f9d A51F0000 		.4byte	0x1fa5
 9065 1fa1 02       		.uleb128 0x2
 9066 1fa2 91       		.byte	0x91
 9067 1fa3 70       		.sleb128 -16
 9068 1fa4 00       		.byte	0
 9069 1fa5 06       		.uleb128 0x6
 9070 1fa6 F80C0000 		.4byte	0xcf8
 9071 1faa 2C       		.uleb128 0x2c
 9072 1fab CB070000 		.4byte	0x7cb
 9073 1faf 01       		.byte	0x1
 9074 1fb0 DF01     		.2byte	0x1df
 9075 1fb2 00000000 		.4byte	.LFB126
 9076 1fb6 84000000 		.4byte	.LFE126-.LFB126
 9077 1fba 01       		.uleb128 0x1
 9078 1fbb 9C       		.byte	0x9c
 9079 1fbc C41F0000 		.4byte	0x1fc4
 9080 1fc0 05200000 		.4byte	0x2005
 9081 1fc4 27       		.uleb128 0x27
 9082 1fc5 7C080000 		.4byte	.LASF133
 9083 1fc9 441E0000 		.4byte	0x1e44
 9084 1fcd 02       		.uleb128 0x2
 9085 1fce 91       		.byte	0x91
 9086 1fcf 64       		.sleb128 -28
 9087 1fd0 2D       		.uleb128 0x2d
 9088 1fd1 733200   		.ascii	"s2\000"
 9089 1fd4 01       		.byte	0x1
 9090 1fd5 DF01     		.2byte	0x1df
 9091 1fd7 05200000 		.4byte	0x2005
 9092 1fdb 02       		.uleb128 0x2
 9093 1fdc 91       		.byte	0x91
 9094 1fdd 60       		.sleb128 -32
 9095 1fde 24       		.uleb128 0x24
 9096 1fdf 0A000000 		.4byte	.LBB44
ARM GAS  C:\Users\Bruger\AppData\Local\Temp\ccjLt6bf.s 			page 174


 9097 1fe3 72000000 		.4byte	.LBE44-.LBB44
 9098 1fe7 30       		.uleb128 0x30
 9099 1fe8 703100   		.ascii	"p1\000"
 9100 1feb 01       		.byte	0x1
 9101 1fec E401     		.2byte	0x1e4
 9102 1fee 87000000 		.4byte	0x87
 9103 1ff2 02       		.uleb128 0x2
 9104 1ff3 91       		.byte	0x91
 9105 1ff4 6C       		.sleb128 -20
 9106 1ff5 30       		.uleb128 0x30
 9107 1ff6 703200   		.ascii	"p2\000"
 9108 1ff9 01       		.byte	0x1
 9109 1ffa E501     		.2byte	0x1e5
 9110 1ffc 87000000 		.4byte	0x87
 9111 2000 02       		.uleb128 0x2
 9112 2001 91       		.byte	0x91
 9113 2002 68       		.sleb128 -24
 9114 2003 00       		.byte	0
 9115 2004 00       		.byte	0
 9116 2005 06       		.uleb128 0x6
 9117 2006 F80C0000 		.4byte	0xcf8
 9118 200a 2C       		.uleb128 0x2c
 9119 200b EE070000 		.4byte	0x7ee
 9120 200f 01       		.byte	0x1
 9121 2010 EC01     		.2byte	0x1ec
 9122 2012 00000000 		.4byte	.LFB127
 9123 2016 2E000000 		.4byte	.LFE127-.LFB127
 9124 201a 01       		.uleb128 0x1
 9125 201b 9C       		.byte	0x9c
 9126 201c 24200000 		.4byte	0x2024
 9127 2020 3F200000 		.4byte	0x203f
 9128 2024 27       		.uleb128 0x27
 9129 2025 7C080000 		.4byte	.LASF133
 9130 2029 441E0000 		.4byte	0x1e44
 9131 202d 02       		.uleb128 0x2
 9132 202e 91       		.byte	0x91
 9133 202f 74       		.sleb128 -12
 9134 2030 2D       		.uleb128 0x2d
 9135 2031 733200   		.ascii	"s2\000"
 9136 2034 01       		.byte	0x1
 9137 2035 EC01     		.2byte	0x1ec
 9138 2037 3F200000 		.4byte	0x203f
 9139 203b 02       		.uleb128 0x2
 9140 203c 91       		.byte	0x91
 9141 203d 70       		.sleb128 -16
 9142 203e 00       		.byte	0
 9143 203f 06       		.uleb128 0x6
 9144 2040 F80C0000 		.4byte	0xcf8
 9145 2044 2C       		.uleb128 0x2c
 9146 2045 11080000 		.4byte	0x811
 9147 2049 01       		.byte	0x1
 9148 204a F201     		.2byte	0x1f2
 9149 204c 00000000 		.4byte	.LFB128
 9150 2050 5E000000 		.4byte	.LFE128-.LFB128
 9151 2054 01       		.uleb128 0x1
 9152 2055 9C       		.byte	0x9c
 9153 2056 5E200000 		.4byte	0x205e
ARM GAS  C:\Users\Bruger\AppData\Local\Temp\ccjLt6bf.s 			page 175


 9154 205a 88200000 		.4byte	0x2088
 9155 205e 27       		.uleb128 0x27
 9156 205f 7C080000 		.4byte	.LASF133
 9157 2063 441E0000 		.4byte	0x1e44
 9158 2067 02       		.uleb128 0x2
 9159 2068 91       		.byte	0x91
 9160 2069 74       		.sleb128 -12
 9161 206a 2D       		.uleb128 0x2d
 9162 206b 733200   		.ascii	"s2\000"
 9163 206e 01       		.byte	0x1
 9164 206f F201     		.2byte	0x1f2
 9165 2071 88200000 		.4byte	0x2088
 9166 2075 02       		.uleb128 0x2
 9167 2076 91       		.byte	0x91
 9168 2077 70       		.sleb128 -16
 9169 2078 2E       		.uleb128 0x2e
 9170 2079 88030000 		.4byte	.LASF169
 9171 207d 01       		.byte	0x1
 9172 207e F201     		.2byte	0x1f2
 9173 2080 25000000 		.4byte	0x25
 9174 2084 02       		.uleb128 0x2
 9175 2085 91       		.byte	0x91
 9176 2086 6C       		.sleb128 -20
 9177 2087 00       		.byte	0
 9178 2088 06       		.uleb128 0x6
 9179 2089 F80C0000 		.4byte	0xcf8
 9180 208d 2C       		.uleb128 0x2c
 9181 208e 39080000 		.4byte	0x839
 9182 2092 01       		.byte	0x1
 9183 2093 F801     		.2byte	0x1f8
 9184 2095 00000000 		.4byte	.LFB129
 9185 2099 5A000000 		.4byte	.LFE129-.LFB129
 9186 209d 01       		.uleb128 0x1
 9187 209e 9C       		.byte	0x9c
 9188 209f A7200000 		.4byte	0x20a7
 9189 20a3 C2200000 		.4byte	0x20c2
 9190 20a7 27       		.uleb128 0x27
 9191 20a8 7C080000 		.4byte	.LASF133
 9192 20ac 441E0000 		.4byte	0x1e44
 9193 20b0 02       		.uleb128 0x2
 9194 20b1 91       		.byte	0x91
 9195 20b2 74       		.sleb128 -12
 9196 20b3 2D       		.uleb128 0x2d
 9197 20b4 733200   		.ascii	"s2\000"
 9198 20b7 01       		.byte	0x1
 9199 20b8 F801     		.2byte	0x1f8
 9200 20ba C2200000 		.4byte	0x20c2
 9201 20be 02       		.uleb128 0x2
 9202 20bf 91       		.byte	0x91
 9203 20c0 70       		.sleb128 -16
 9204 20c1 00       		.byte	0
 9205 20c2 06       		.uleb128 0x6
 9206 20c3 F80C0000 		.4byte	0xcf8
 9207 20c7 2C       		.uleb128 0x2c
 9208 20c8 5C080000 		.4byte	0x85c
 9209 20cc 01       		.byte	0x1
 9210 20cd 0202     		.2byte	0x202
ARM GAS  C:\Users\Bruger\AppData\Local\Temp\ccjLt6bf.s 			page 176


 9211 20cf 00000000 		.4byte	.LFB130
 9212 20d3 1C000000 		.4byte	.LFE130-.LFB130
 9213 20d7 01       		.uleb128 0x1
 9214 20d8 9C       		.byte	0x9c
 9215 20d9 E1200000 		.4byte	0x20e1
 9216 20dd FD200000 		.4byte	0x20fd
 9217 20e1 27       		.uleb128 0x27
 9218 20e2 7C080000 		.4byte	.LASF133
 9219 20e6 441E0000 		.4byte	0x1e44
 9220 20ea 02       		.uleb128 0x2
 9221 20eb 91       		.byte	0x91
 9222 20ec 74       		.sleb128 -12
 9223 20ed 2D       		.uleb128 0x2d
 9224 20ee 6C6F6300 		.ascii	"loc\000"
 9225 20f2 01       		.byte	0x1
 9226 20f3 0202     		.2byte	0x202
 9227 20f5 25000000 		.4byte	0x25
 9228 20f9 02       		.uleb128 0x2
 9229 20fa 91       		.byte	0x91
 9230 20fb 70       		.sleb128 -16
 9231 20fc 00       		.byte	0
 9232 20fd 32       		.uleb128 0x32
 9233 20fe 7F080000 		.4byte	0x87f
 9234 2102 01       		.byte	0x1
 9235 2103 0702     		.2byte	0x207
 9236 2105 00000000 		.4byte	.LFB131
 9237 2109 2E000000 		.4byte	.LFE131-.LFB131
 9238 210d 01       		.uleb128 0x1
 9239 210e 9C       		.byte	0x9c
 9240 210f 17210000 		.4byte	0x2117
 9241 2113 40210000 		.4byte	0x2140
 9242 2117 27       		.uleb128 0x27
 9243 2118 7C080000 		.4byte	.LASF133
 9244 211c 990E0000 		.4byte	0xe99
 9245 2120 02       		.uleb128 0x2
 9246 2121 91       		.byte	0x91
 9247 2122 74       		.sleb128 -12
 9248 2123 2D       		.uleb128 0x2d
 9249 2124 6C6F6300 		.ascii	"loc\000"
 9250 2128 01       		.byte	0x1
 9251 2129 0702     		.2byte	0x207
 9252 212b 25000000 		.4byte	0x25
 9253 212f 02       		.uleb128 0x2
 9254 2130 91       		.byte	0x91
 9255 2131 70       		.sleb128 -16
 9256 2132 2D       		.uleb128 0x2d
 9257 2133 6300     		.ascii	"c\000"
 9258 2135 01       		.byte	0x1
 9259 2136 0702     		.2byte	0x207
 9260 2138 80000000 		.4byte	0x80
 9261 213c 02       		.uleb128 0x2
 9262 213d 91       		.byte	0x91
 9263 213e 6F       		.sleb128 -17
 9264 213f 00       		.byte	0
 9265 2140 32       		.uleb128 0x32
 9266 2141 C6080000 		.4byte	0x8c6
 9267 2145 01       		.byte	0x1
ARM GAS  C:\Users\Bruger\AppData\Local\Temp\ccjLt6bf.s 			page 177


 9268 2146 0C02     		.2byte	0x20c
 9269 2148 00000000 		.4byte	.LFB132
 9270 214c 40000000 		.4byte	.LFE132-.LFB132
 9271 2150 01       		.uleb128 0x1
 9272 2151 9C       		.byte	0x9c
 9273 2152 5A210000 		.4byte	0x215a
 9274 2156 92210000 		.4byte	0x2192
 9275 215a 27       		.uleb128 0x27
 9276 215b 7C080000 		.4byte	.LASF133
 9277 215f 990E0000 		.4byte	0xe99
 9278 2163 02       		.uleb128 0x2
 9279 2164 91       		.byte	0x91
 9280 2165 74       		.sleb128 -12
 9281 2166 2E       		.uleb128 0x2e
 9282 2167 CF020000 		.4byte	.LASF170
 9283 216b 01       		.byte	0x1
 9284 216c 0C02     		.2byte	0x20c
 9285 216e 25000000 		.4byte	0x25
 9286 2172 02       		.uleb128 0x2
 9287 2173 91       		.byte	0x91
 9288 2174 70       		.sleb128 -16
 9289 2175 24       		.uleb128 0x24
 9290 2176 0A000000 		.4byte	.LBB45
 9291 217a 24000000 		.4byte	.LBE45-.LBB45
 9292 217e 2F       		.uleb128 0x2f
 9293 217f F80C0000 		.4byte	.LASF171
 9294 2183 01       		.byte	0x1
 9295 2184 0E02     		.2byte	0x20e
 9296 2186 80000000 		.4byte	0x80
 9297 218a 05       		.uleb128 0x5
 9298 218b 03       		.byte	0x3
 9299 218c 00000000 		.4byte	_ZZN6StringixEjE19dummy_writable_char
 9300 2190 00       		.byte	0
 9301 2191 00       		.byte	0
 9302 2192 32       		.uleb128 0x32
 9303 2193 A3080000 		.4byte	0x8a3
 9304 2197 01       		.byte	0x1
 9305 2198 1602     		.2byte	0x216
 9306 219a 00000000 		.4byte	.LFB133
 9307 219e 36000000 		.4byte	.LFE133-.LFB133
 9308 21a2 01       		.uleb128 0x1
 9309 21a3 9C       		.byte	0x9c
 9310 21a4 AC210000 		.4byte	0x21ac
 9311 21a8 C8210000 		.4byte	0x21c8
 9312 21ac 27       		.uleb128 0x27
 9313 21ad 7C080000 		.4byte	.LASF133
 9314 21b1 441E0000 		.4byte	0x1e44
 9315 21b5 02       		.uleb128 0x2
 9316 21b6 91       		.byte	0x91
 9317 21b7 74       		.sleb128 -12
 9318 21b8 2E       		.uleb128 0x2e
 9319 21b9 CF020000 		.4byte	.LASF170
 9320 21bd 01       		.byte	0x1
 9321 21be 1602     		.2byte	0x216
 9322 21c0 25000000 		.4byte	0x25
 9323 21c4 02       		.uleb128 0x2
 9324 21c5 91       		.byte	0x91
ARM GAS  C:\Users\Bruger\AppData\Local\Temp\ccjLt6bf.s 			page 178


 9325 21c6 70       		.sleb128 -16
 9326 21c7 00       		.byte	0
 9327 21c8 2C       		.uleb128 0x2c
 9328 21c9 E9080000 		.4byte	0x8e9
 9329 21cd 01       		.byte	0x1
 9330 21ce 1C02     		.2byte	0x21c
 9331 21d0 00000000 		.4byte	.LFB134
 9332 21d4 6E000000 		.4byte	.LFE134-.LFB134
 9333 21d8 01       		.uleb128 0x1
 9334 21d9 9C       		.byte	0x9c
 9335 21da E2210000 		.4byte	0x21e2
 9336 21de 33220000 		.4byte	0x2233
 9337 21e2 27       		.uleb128 0x27
 9338 21e3 7C080000 		.4byte	.LASF133
 9339 21e7 441E0000 		.4byte	0x1e44
 9340 21eb 02       		.uleb128 0x2
 9341 21ec 91       		.byte	0x91
 9342 21ed 6C       		.sleb128 -20
 9343 21ee 2D       		.uleb128 0x2d
 9344 21ef 62756600 		.ascii	"buf\000"
 9345 21f3 01       		.byte	0x1
 9346 21f4 1C02     		.2byte	0x21c
 9347 21f6 74000000 		.4byte	0x74
 9348 21fa 02       		.uleb128 0x2
 9349 21fb 91       		.byte	0x91
 9350 21fc 68       		.sleb128 -24
 9351 21fd 2E       		.uleb128 0x2e
 9352 21fe C1050000 		.4byte	.LASF172
 9353 2202 01       		.byte	0x1
 9354 2203 1C02     		.2byte	0x21c
 9355 2205 25000000 		.4byte	0x25
 9356 2209 02       		.uleb128 0x2
 9357 220a 91       		.byte	0x91
 9358 220b 64       		.sleb128 -28
 9359 220c 2E       		.uleb128 0x2e
 9360 220d CF020000 		.4byte	.LASF170
 9361 2211 01       		.byte	0x1
 9362 2212 1C02     		.2byte	0x21c
 9363 2214 25000000 		.4byte	0x25
 9364 2218 02       		.uleb128 0x2
 9365 2219 91       		.byte	0x91
 9366 221a 60       		.sleb128 -32
 9367 221b 24       		.uleb128 0x24
 9368 221c 0E000000 		.4byte	.LBB46
 9369 2220 5A000000 		.4byte	.LBE46-.LBB46
 9370 2224 30       		.uleb128 0x30
 9371 2225 6E00     		.ascii	"n\000"
 9372 2227 01       		.byte	0x1
 9373 2228 2302     		.2byte	0x223
 9374 222a 25000000 		.4byte	0x25
 9375 222e 02       		.uleb128 0x2
 9376 222f 91       		.byte	0x91
 9377 2230 74       		.sleb128 -12
 9378 2231 00       		.byte	0
 9379 2232 00       		.byte	0
 9380 2233 2C       		.uleb128 0x2c
 9381 2234 59090000 		.4byte	0x959
ARM GAS  C:\Users\Bruger\AppData\Local\Temp\ccjLt6bf.s 			page 179


 9382 2238 01       		.byte	0x1
 9383 2239 2D02     		.2byte	0x22d
 9384 223b 00000000 		.4byte	.LFB135
 9385 223f 22000000 		.4byte	.LFE135-.LFB135
 9386 2243 01       		.uleb128 0x1
 9387 2244 9C       		.byte	0x9c
 9388 2245 4D220000 		.4byte	0x224d
 9389 2249 67220000 		.4byte	0x2267
 9390 224d 27       		.uleb128 0x27
 9391 224e 7C080000 		.4byte	.LASF133
 9392 2252 441E0000 		.4byte	0x1e44
 9393 2256 02       		.uleb128 0x2
 9394 2257 91       		.byte	0x91
 9395 2258 74       		.sleb128 -12
 9396 2259 2D       		.uleb128 0x2d
 9397 225a 6300     		.ascii	"c\000"
 9398 225c 01       		.byte	0x1
 9399 225d 2D02     		.2byte	0x22d
 9400 225f 80000000 		.4byte	0x80
 9401 2263 02       		.uleb128 0x2
 9402 2264 91       		.byte	0x91
 9403 2265 73       		.sleb128 -13
 9404 2266 00       		.byte	0
 9405 2267 2C       		.uleb128 0x2c
 9406 2268 7C090000 		.4byte	0x97c
 9407 226c 01       		.byte	0x1
 9408 226d 3202     		.2byte	0x232
 9409 226f 00000000 		.4byte	.LFB136
 9410 2273 4E000000 		.4byte	.LFE136-.LFB136
 9411 2277 01       		.uleb128 0x1
 9412 2278 9C       		.byte	0x9c
 9413 2279 81220000 		.4byte	0x2281
 9414 227d C4220000 		.4byte	0x22c4
 9415 2281 27       		.uleb128 0x27
 9416 2282 7C080000 		.4byte	.LASF133
 9417 2286 441E0000 		.4byte	0x1e44
 9418 228a 02       		.uleb128 0x2
 9419 228b 91       		.byte	0x91
 9420 228c 6C       		.sleb128 -20
 9421 228d 2D       		.uleb128 0x2d
 9422 228e 636800   		.ascii	"ch\000"
 9423 2291 01       		.byte	0x1
 9424 2292 3202     		.2byte	0x232
 9425 2294 80000000 		.4byte	0x80
 9426 2298 02       		.uleb128 0x2
 9427 2299 91       		.byte	0x91
 9428 229a 6B       		.sleb128 -21
 9429 229b 2E       		.uleb128 0x2e
 9430 229c 17000000 		.4byte	.LASF173
 9431 22a0 01       		.byte	0x1
 9432 22a1 3202     		.2byte	0x232
 9433 22a3 25000000 		.4byte	0x25
 9434 22a7 02       		.uleb128 0x2
 9435 22a8 91       		.byte	0x91
 9436 22a9 64       		.sleb128 -28
 9437 22aa 24       		.uleb128 0x24
 9438 22ab 0E000000 		.4byte	.LBB47
ARM GAS  C:\Users\Bruger\AppData\Local\Temp\ccjLt6bf.s 			page 180


 9439 22af 38000000 		.4byte	.LBE47-.LBB47
 9440 22b3 2F       		.uleb128 0x2f
 9441 22b4 BA090000 		.4byte	.LASF174
 9442 22b8 01       		.byte	0x1
 9443 22b9 3502     		.2byte	0x235
 9444 22bb 87000000 		.4byte	0x87
 9445 22bf 02       		.uleb128 0x2
 9446 22c0 91       		.byte	0x91
 9447 22c1 74       		.sleb128 -12
 9448 22c2 00       		.byte	0
 9449 22c3 00       		.byte	0
 9450 22c4 2C       		.uleb128 0x2c
 9451 22c5 A4090000 		.4byte	0x9a4
 9452 22c9 01       		.byte	0x1
 9453 22ca 3A02     		.2byte	0x23a
 9454 22cc 00000000 		.4byte	.LFB137
 9455 22d0 1E000000 		.4byte	.LFE137-.LFB137
 9456 22d4 01       		.uleb128 0x1
 9457 22d5 9C       		.byte	0x9c
 9458 22d6 DE220000 		.4byte	0x22de
 9459 22da F9220000 		.4byte	0x22f9
 9460 22de 27       		.uleb128 0x27
 9461 22df 7C080000 		.4byte	.LASF133
 9462 22e3 441E0000 		.4byte	0x1e44
 9463 22e7 02       		.uleb128 0x2
 9464 22e8 91       		.byte	0x91
 9465 22e9 74       		.sleb128 -12
 9466 22ea 2D       		.uleb128 0x2d
 9467 22eb 733200   		.ascii	"s2\000"
 9468 22ee 01       		.byte	0x1
 9469 22ef 3A02     		.2byte	0x23a
 9470 22f1 F9220000 		.4byte	0x22f9
 9471 22f5 02       		.uleb128 0x2
 9472 22f6 91       		.byte	0x91
 9473 22f7 70       		.sleb128 -16
 9474 22f8 00       		.byte	0
 9475 22f9 06       		.uleb128 0x6
 9476 22fa F80C0000 		.4byte	0xcf8
 9477 22fe 2C       		.uleb128 0x2c
 9478 22ff C7090000 		.4byte	0x9c7
 9479 2303 01       		.byte	0x1
 9480 2304 3F02     		.2byte	0x23f
 9481 2306 00000000 		.4byte	.LFB138
 9482 230a 4E000000 		.4byte	.LFE138-.LFB138
 9483 230e 01       		.uleb128 0x1
 9484 230f 9C       		.byte	0x9c
 9485 2310 18230000 		.4byte	0x2318
 9486 2314 5B230000 		.4byte	0x235b
 9487 2318 27       		.uleb128 0x27
 9488 2319 7C080000 		.4byte	.LASF133
 9489 231d 441E0000 		.4byte	0x1e44
 9490 2321 02       		.uleb128 0x2
 9491 2322 91       		.byte	0x91
 9492 2323 6C       		.sleb128 -20
 9493 2324 2D       		.uleb128 0x2d
 9494 2325 733200   		.ascii	"s2\000"
 9495 2328 01       		.byte	0x1
ARM GAS  C:\Users\Bruger\AppData\Local\Temp\ccjLt6bf.s 			page 181


 9496 2329 3F02     		.2byte	0x23f
 9497 232b 5B230000 		.4byte	0x235b
 9498 232f 02       		.uleb128 0x2
 9499 2330 91       		.byte	0x91
 9500 2331 68       		.sleb128 -24
 9501 2332 2E       		.uleb128 0x2e
 9502 2333 17000000 		.4byte	.LASF173
 9503 2337 01       		.byte	0x1
 9504 2338 3F02     		.2byte	0x23f
 9505 233a 25000000 		.4byte	0x25
 9506 233e 02       		.uleb128 0x2
 9507 233f 91       		.byte	0x91
 9508 2340 64       		.sleb128 -28
 9509 2341 24       		.uleb128 0x24
 9510 2342 0C000000 		.4byte	.LBB48
 9511 2346 3A000000 		.4byte	.LBE48-.LBB48
 9512 234a 2F       		.uleb128 0x2f
 9513 234b E4010000 		.4byte	.LASF175
 9514 234f 01       		.byte	0x1
 9515 2350 4202     		.2byte	0x242
 9516 2352 87000000 		.4byte	0x87
 9517 2356 02       		.uleb128 0x2
 9518 2357 91       		.byte	0x91
 9519 2358 74       		.sleb128 -12
 9520 2359 00       		.byte	0
 9521 235a 00       		.byte	0
 9522 235b 06       		.uleb128 0x6
 9523 235c F80C0000 		.4byte	0xcf8
 9524 2360 2C       		.uleb128 0x2c
 9525 2361 EF090000 		.4byte	0x9ef
 9526 2365 01       		.byte	0x1
 9527 2366 4702     		.2byte	0x247
 9528 2368 00000000 		.4byte	.LFB139
 9529 236c 28000000 		.4byte	.LFE139-.LFB139
 9530 2370 01       		.uleb128 0x1
 9531 2371 9C       		.byte	0x9c
 9532 2372 7A230000 		.4byte	0x237a
 9533 2376 96230000 		.4byte	0x2396
 9534 237a 27       		.uleb128 0x27
 9535 237b 7C080000 		.4byte	.LASF133
 9536 237f 441E0000 		.4byte	0x1e44
 9537 2383 02       		.uleb128 0x2
 9538 2384 91       		.byte	0x91
 9539 2385 74       		.sleb128 -12
 9540 2386 2E       		.uleb128 0x2e
 9541 2387 29030000 		.4byte	.LASF176
 9542 238b 01       		.byte	0x1
 9543 238c 4702     		.2byte	0x247
 9544 238e 80000000 		.4byte	0x80
 9545 2392 02       		.uleb128 0x2
 9546 2393 91       		.byte	0x91
 9547 2394 73       		.sleb128 -13
 9548 2395 00       		.byte	0
 9549 2396 2C       		.uleb128 0x2c
 9550 2397 120A0000 		.4byte	0xa12
 9551 239b 01       		.byte	0x1
 9552 239c 4C02     		.2byte	0x24c
ARM GAS  C:\Users\Bruger\AppData\Local\Temp\ccjLt6bf.s 			page 182


 9553 239e 00000000 		.4byte	.LFB140
 9554 23a2 74000000 		.4byte	.LFE140-.LFB140
 9555 23a6 01       		.uleb128 0x1
 9556 23a7 9C       		.byte	0x9c
 9557 23a8 B0230000 		.4byte	0x23b0
 9558 23ac 02240000 		.4byte	0x2402
 9559 23b0 27       		.uleb128 0x27
 9560 23b1 7C080000 		.4byte	.LASF133
 9561 23b5 441E0000 		.4byte	0x1e44
 9562 23b9 02       		.uleb128 0x2
 9563 23ba 91       		.byte	0x91
 9564 23bb 6C       		.sleb128 -20
 9565 23bc 2D       		.uleb128 0x2d
 9566 23bd 636800   		.ascii	"ch\000"
 9567 23c0 01       		.byte	0x1
 9568 23c1 4C02     		.2byte	0x24c
 9569 23c3 80000000 		.4byte	0x80
 9570 23c7 02       		.uleb128 0x2
 9571 23c8 91       		.byte	0x91
 9572 23c9 6B       		.sleb128 -21
 9573 23ca 2E       		.uleb128 0x2e
 9574 23cb 17000000 		.4byte	.LASF173
 9575 23cf 01       		.byte	0x1
 9576 23d0 4C02     		.2byte	0x24c
 9577 23d2 25000000 		.4byte	0x25
 9578 23d6 02       		.uleb128 0x2
 9579 23d7 91       		.byte	0x91
 9580 23d8 64       		.sleb128 -28
 9581 23d9 24       		.uleb128 0x24
 9582 23da 0E000000 		.4byte	.LBB49
 9583 23de 5E000000 		.4byte	.LBE49-.LBB49
 9584 23e2 2F       		.uleb128 0x2f
 9585 23e3 C1080000 		.4byte	.LASF177
 9586 23e7 01       		.byte	0x1
 9587 23e8 4F02     		.2byte	0x24f
 9588 23ea 80000000 		.4byte	0x80
 9589 23ee 02       		.uleb128 0x2
 9590 23ef 91       		.byte	0x91
 9591 23f0 77       		.sleb128 -9
 9592 23f1 2F       		.uleb128 0x2f
 9593 23f2 BA090000 		.4byte	.LASF174
 9594 23f6 01       		.byte	0x1
 9595 23f7 5102     		.2byte	0x251
 9596 23f9 7A000000 		.4byte	0x7a
 9597 23fd 02       		.uleb128 0x2
 9598 23fe 91       		.byte	0x91
 9599 23ff 70       		.sleb128 -16
 9600 2400 00       		.byte	0
 9601 2401 00       		.byte	0
 9602 2402 2C       		.uleb128 0x2c
 9603 2403 3A0A0000 		.4byte	0xa3a
 9604 2407 01       		.byte	0x1
 9605 2408 5702     		.2byte	0x257
 9606 240a 00000000 		.4byte	.LFB141
 9607 240e 28000000 		.4byte	.LFE141-.LFB141
 9608 2412 01       		.uleb128 0x1
 9609 2413 9C       		.byte	0x9c
ARM GAS  C:\Users\Bruger\AppData\Local\Temp\ccjLt6bf.s 			page 183


 9610 2414 1C240000 		.4byte	0x241c
 9611 2418 37240000 		.4byte	0x2437
 9612 241c 27       		.uleb128 0x27
 9613 241d 7C080000 		.4byte	.LASF133
 9614 2421 441E0000 		.4byte	0x1e44
 9615 2425 02       		.uleb128 0x2
 9616 2426 91       		.byte	0x91
 9617 2427 74       		.sleb128 -12
 9618 2428 2D       		.uleb128 0x2d
 9619 2429 733200   		.ascii	"s2\000"
 9620 242c 01       		.byte	0x1
 9621 242d 5702     		.2byte	0x257
 9622 242f 37240000 		.4byte	0x2437
 9623 2433 02       		.uleb128 0x2
 9624 2434 91       		.byte	0x91
 9625 2435 70       		.sleb128 -16
 9626 2436 00       		.byte	0
 9627 2437 06       		.uleb128 0x6
 9628 2438 F80C0000 		.4byte	0xcf8
 9629 243c 2C       		.uleb128 0x2c
 9630 243d 5D0A0000 		.4byte	0xa5d
 9631 2441 01       		.byte	0x1
 9632 2442 5C02     		.2byte	0x25c
 9633 2444 00000000 		.4byte	.LFB142
 9634 2448 9C000000 		.4byte	.LFE142-.LFB142
 9635 244c 01       		.uleb128 0x1
 9636 244d 9C       		.byte	0x9c
 9637 244e 56240000 		.4byte	0x2456
 9638 2452 B0240000 		.4byte	0x24b0
 9639 2456 27       		.uleb128 0x27
 9640 2457 7C080000 		.4byte	.LASF133
 9641 245b 441E0000 		.4byte	0x1e44
 9642 245f 02       		.uleb128 0x2
 9643 2460 91       		.byte	0x91
 9644 2461 6C       		.sleb128 -20
 9645 2462 2D       		.uleb128 0x2d
 9646 2463 733200   		.ascii	"s2\000"
 9647 2466 01       		.byte	0x1
 9648 2467 5C02     		.2byte	0x25c
 9649 2469 B0240000 		.4byte	0x24b0
 9650 246d 02       		.uleb128 0x2
 9651 246e 91       		.byte	0x91
 9652 246f 68       		.sleb128 -24
 9653 2470 2E       		.uleb128 0x2e
 9654 2471 17000000 		.4byte	.LASF173
 9655 2475 01       		.byte	0x1
 9656 2476 5C02     		.2byte	0x25c
 9657 2478 25000000 		.4byte	0x25
 9658 247c 02       		.uleb128 0x2
 9659 247d 91       		.byte	0x91
 9660 247e 64       		.sleb128 -28
 9661 247f 24       		.uleb128 0x24
 9662 2480 0C000000 		.4byte	.LBB50
 9663 2484 88000000 		.4byte	.LBE50-.LBB50
 9664 2488 2F       		.uleb128 0x2f
 9665 2489 E4010000 		.4byte	.LASF175
 9666 248d 01       		.byte	0x1
ARM GAS  C:\Users\Bruger\AppData\Local\Temp\ccjLt6bf.s 			page 184


 9667 248e 6002     		.2byte	0x260
 9668 2490 2C000000 		.4byte	0x2c
 9669 2494 02       		.uleb128 0x2
 9670 2495 91       		.byte	0x91
 9671 2496 74       		.sleb128 -12
 9672 2497 24       		.uleb128 0x24
 9673 2498 46000000 		.4byte	.LBB51
 9674 249c 4C000000 		.4byte	.LBE51-.LBB51
 9675 24a0 30       		.uleb128 0x30
 9676 24a1 7000     		.ascii	"p\000"
 9677 24a3 01       		.byte	0x1
 9678 24a4 6102     		.2byte	0x261
 9679 24a6 7A000000 		.4byte	0x7a
 9680 24aa 02       		.uleb128 0x2
 9681 24ab 91       		.byte	0x91
 9682 24ac 70       		.sleb128 -16
 9683 24ad 00       		.byte	0
 9684 24ae 00       		.byte	0
 9685 24af 00       		.byte	0
 9686 24b0 06       		.uleb128 0x6
 9687 24b1 F80C0000 		.4byte	0xcf8
 9688 24b5 2C       		.uleb128 0x2c
 9689 24b6 A80A0000 		.4byte	0xaa8
 9690 24ba 01       		.byte	0x1
 9691 24bb 6902     		.2byte	0x269
 9692 24bd 00000000 		.4byte	.LFB143
 9693 24c1 88000000 		.4byte	.LFE143-.LFB143
 9694 24c5 01       		.uleb128 0x1
 9695 24c6 9C       		.byte	0x9c
 9696 24c7 CF240000 		.4byte	0x24cf
 9697 24cb 3C250000 		.4byte	0x253c
 9698 24cf 27       		.uleb128 0x27
 9699 24d0 7C080000 		.4byte	.LASF133
 9700 24d4 441E0000 		.4byte	0x1e44
 9701 24d8 02       		.uleb128 0x2
 9702 24d9 91       		.byte	0x91
 9703 24da 68       		.sleb128 -24
 9704 24db 2E       		.uleb128 0x2e
 9705 24dc 110A0000 		.4byte	.LASF178
 9706 24e0 01       		.byte	0x1
 9707 24e1 6902     		.2byte	0x269
 9708 24e3 25000000 		.4byte	0x25
 9709 24e7 02       		.uleb128 0x2
 9710 24e8 91       		.byte	0x91
 9711 24e9 64       		.sleb128 -28
 9712 24ea 2E       		.uleb128 0x2e
 9713 24eb BB050000 		.4byte	.LASF179
 9714 24ef 01       		.byte	0x1
 9715 24f0 6902     		.2byte	0x269
 9716 24f2 25000000 		.4byte	0x25
 9717 24f6 02       		.uleb128 0x2
 9718 24f7 91       		.byte	0x91
 9719 24f8 60       		.sleb128 -32
 9720 24f9 24       		.uleb128 0x24
 9721 24fa 0E000000 		.4byte	.LBB52
 9722 24fe 6E000000 		.4byte	.LBE52-.LBB52
 9723 2502 30       		.uleb128 0x30
ARM GAS  C:\Users\Bruger\AppData\Local\Temp\ccjLt6bf.s 			page 185


 9724 2503 6F757400 		.ascii	"out\000"
 9725 2507 01       		.byte	0x1
 9726 2508 7002     		.2byte	0x270
 9727 250a 92000000 		.4byte	0x92
 9728 250e 03       		.uleb128 0x3
 9729 250f 91       		.byte	0x91
 9730 2510 6C       		.sleb128 -20
 9731 2511 06       		.byte	0x6
 9732 2512 2F       		.uleb128 0x2f
 9733 2513 BA090000 		.4byte	.LASF174
 9734 2517 01       		.byte	0x1
 9735 2518 7302     		.2byte	0x273
 9736 251a 80000000 		.4byte	0x80
 9737 251e 02       		.uleb128 0x2
 9738 251f 91       		.byte	0x91
 9739 2520 73       		.sleb128 -13
 9740 2521 24       		.uleb128 0x24
 9741 2522 16000000 		.4byte	.LBB54
 9742 2526 0C000000 		.4byte	.LBE54-.LBB54
 9743 252a 2F       		.uleb128 0x2f
 9744 252b BA090000 		.4byte	.LASF174
 9745 252f 01       		.byte	0x1
 9746 2530 6C02     		.2byte	0x26c
 9747 2532 25000000 		.4byte	0x25
 9748 2536 02       		.uleb128 0x2
 9749 2537 91       		.byte	0x91
 9750 2538 74       		.sleb128 -12
 9751 2539 00       		.byte	0
 9752 253a 00       		.byte	0
 9753 253b 00       		.byte	0
 9754 253c 32       		.uleb128 0x32
 9755 253d D00A0000 		.4byte	0xad0
 9756 2541 01       		.byte	0x1
 9757 2542 7E02     		.2byte	0x27e
 9758 2544 00000000 		.4byte	.LFB144
 9759 2548 4A000000 		.4byte	.LFE144-.LFB144
 9760 254c 01       		.uleb128 0x1
 9761 254d 9C       		.byte	0x9c
 9762 254e 56250000 		.4byte	0x2556
 9763 2552 98250000 		.4byte	0x2598
 9764 2556 27       		.uleb128 0x27
 9765 2557 7C080000 		.4byte	.LASF133
 9766 255b 990E0000 		.4byte	0xe99
 9767 255f 02       		.uleb128 0x2
 9768 2560 91       		.byte	0x91
 9769 2561 6C       		.sleb128 -20
 9770 2562 2E       		.uleb128 0x2e
 9771 2563 F1030000 		.4byte	.LASF180
 9772 2567 01       		.byte	0x1
 9773 2568 7E02     		.2byte	0x27e
 9774 256a 80000000 		.4byte	0x80
 9775 256e 02       		.uleb128 0x2
 9776 256f 91       		.byte	0x91
 9777 2570 6B       		.sleb128 -21
 9778 2571 2E       		.uleb128 0x2e
 9779 2572 49060000 		.4byte	.LASF101
 9780 2576 01       		.byte	0x1
ARM GAS  C:\Users\Bruger\AppData\Local\Temp\ccjLt6bf.s 			page 186


 9781 2577 7E02     		.2byte	0x27e
 9782 2579 80000000 		.4byte	0x80
 9783 257d 02       		.uleb128 0x2
 9784 257e 91       		.byte	0x91
 9785 257f 6A       		.sleb128 -22
 9786 2580 24       		.uleb128 0x24
 9787 2581 1A000000 		.4byte	.LBB56
 9788 2585 26000000 		.4byte	.LBE56-.LBB56
 9789 2589 30       		.uleb128 0x30
 9790 258a 7000     		.ascii	"p\000"
 9791 258c 01       		.byte	0x1
 9792 258d 8102     		.2byte	0x281
 9793 258f 7A000000 		.4byte	0x7a
 9794 2593 02       		.uleb128 0x2
 9795 2594 91       		.byte	0x91
 9796 2595 74       		.sleb128 -12
 9797 2596 00       		.byte	0
 9798 2597 00       		.byte	0
 9799 2598 2C       		.uleb128 0x2c
 9800 2599 F40A0000 		.4byte	0xaf4
 9801 259d 01       		.byte	0x1
 9802 259e 8602     		.2byte	0x286
 9803 25a0 00000000 		.4byte	.LFB145
 9804 25a4 FC010000 		.4byte	.LFE145-.LFB145
 9805 25a8 01       		.uleb128 0x1
 9806 25a9 9C       		.byte	0x9c
 9807 25aa B2250000 		.4byte	0x25b2
 9808 25ae 70260000 		.4byte	0x2670
 9809 25b2 27       		.uleb128 0x27
 9810 25b3 7C080000 		.4byte	.LASF133
 9811 25b7 990E0000 		.4byte	0xe99
 9812 25bb 02       		.uleb128 0x2
 9813 25bc 91       		.byte	0x91
 9814 25bd 54       		.sleb128 -44
 9815 25be 2E       		.uleb128 0x2e
 9816 25bf F1030000 		.4byte	.LASF180
 9817 25c3 01       		.byte	0x1
 9818 25c4 8602     		.2byte	0x286
 9819 25c6 70260000 		.4byte	0x2670
 9820 25ca 02       		.uleb128 0x2
 9821 25cb 91       		.byte	0x91
 9822 25cc 50       		.sleb128 -48
 9823 25cd 2E       		.uleb128 0x2e
 9824 25ce 49060000 		.4byte	.LASF101
 9825 25d2 01       		.byte	0x1
 9826 25d3 8602     		.2byte	0x286
 9827 25d5 75260000 		.4byte	0x2675
 9828 25d9 02       		.uleb128 0x2
 9829 25da 91       		.byte	0x91
 9830 25db 4C       		.sleb128 -52
 9831 25dc 24       		.uleb128 0x24
 9832 25dd 0C000000 		.4byte	.LBB57
 9833 25e1 EA010000 		.4byte	.LBE57-.LBB57
 9834 25e5 2F       		.uleb128 0x2f
 9835 25e6 B5090000 		.4byte	.LASF181
 9836 25ea 01       		.byte	0x1
 9837 25eb 8902     		.2byte	0x289
ARM GAS  C:\Users\Bruger\AppData\Local\Temp\ccjLt6bf.s 			page 187


 9838 25ed 2C000000 		.4byte	0x2c
 9839 25f1 02       		.uleb128 0x2
 9840 25f2 91       		.byte	0x91
 9841 25f3 64       		.sleb128 -28
 9842 25f4 2F       		.uleb128 0x2f
 9843 25f5 00000000 		.4byte	.LASF182
 9844 25f9 01       		.byte	0x1
 9845 25fa 8A02     		.2byte	0x28a
 9846 25fc 7A000000 		.4byte	0x7a
 9847 2600 02       		.uleb128 0x2
 9848 2601 91       		.byte	0x91
 9849 2602 74       		.sleb128 -12
 9850 2603 2F       		.uleb128 0x2f
 9851 2604 37030000 		.4byte	.LASF183
 9852 2608 01       		.byte	0x1
 9853 2609 8B02     		.2byte	0x28b
 9854 260b 7A000000 		.4byte	0x7a
 9855 260f 02       		.uleb128 0x2
 9856 2610 91       		.byte	0x91
 9857 2611 60       		.sleb128 -32
 9858 2612 33       		.uleb128 0x33
 9859 2613 7A000000 		.4byte	.LBB61
 9860 2617 7A000000 		.4byte	.LBE61-.LBB61
 9861 261b 46260000 		.4byte	0x2646
 9862 261f 2F       		.uleb128 0x2f
 9863 2620 430C0000 		.4byte	.LASF184
 9864 2624 01       		.byte	0x1
 9865 2625 9202     		.2byte	0x292
 9866 2627 7A000000 		.4byte	0x7a
 9867 262b 02       		.uleb128 0x2
 9868 262c 91       		.byte	0x91
 9869 262d 70       		.sleb128 -16
 9870 262e 24       		.uleb128 0x24
 9871 262f 82000000 		.4byte	.LBB62
 9872 2633 4C000000 		.4byte	.LBE62-.LBB62
 9873 2637 30       		.uleb128 0x30
 9874 2638 6E00     		.ascii	"n\000"
 9875 263a 01       		.byte	0x1
 9876 263b 9402     		.2byte	0x294
 9877 263d 25000000 		.4byte	0x25
 9878 2641 02       		.uleb128 0x2
 9879 2642 91       		.byte	0x91
 9880 2643 5C       		.sleb128 -36
 9881 2644 00       		.byte	0
 9882 2645 00       		.byte	0
 9883 2646 24       		.uleb128 0x24
 9884 2647 F6000000 		.4byte	.LBB63
 9885 264b 00010000 		.4byte	.LBE63-.LBB63
 9886 264f 2F       		.uleb128 0x2f
 9887 2650 EF060000 		.4byte	.LASF152
 9888 2654 01       		.byte	0x1
 9889 2655 9E02     		.2byte	0x29e
 9890 2657 25000000 		.4byte	0x25
 9891 265b 02       		.uleb128 0x2
 9892 265c 91       		.byte	0x91
 9893 265d 6C       		.sleb128 -20
 9894 265e 2F       		.uleb128 0x2f
ARM GAS  C:\Users\Bruger\AppData\Local\Temp\ccjLt6bf.s 			page 188


 9895 265f CF020000 		.4byte	.LASF170
 9896 2663 01       		.byte	0x1
 9897 2664 A502     		.2byte	0x2a5
 9898 2666 2C000000 		.4byte	0x2c
 9899 266a 02       		.uleb128 0x2
 9900 266b 91       		.byte	0x91
 9901 266c 68       		.sleb128 -24
 9902 266d 00       		.byte	0
 9903 266e 00       		.byte	0
 9904 266f 00       		.byte	0
 9905 2670 06       		.uleb128 0x6
 9906 2671 F80C0000 		.4byte	0xcf8
 9907 2675 06       		.uleb128 0x6
 9908 2676 F80C0000 		.4byte	0xcf8
 9909 267a 2C       		.uleb128 0x2c
 9910 267b 180B0000 		.4byte	0xb18
 9911 267f 01       		.byte	0x1
 9912 2680 B102     		.2byte	0x2b1
 9913 2682 00000000 		.4byte	.LFB146
 9914 2686 1C000000 		.4byte	.LFE146-.LFB146
 9915 268a 01       		.uleb128 0x1
 9916 268b 9C       		.byte	0x9c
 9917 268c 94260000 		.4byte	0x2694
 9918 2690 B0260000 		.4byte	0x26b0
 9919 2694 27       		.uleb128 0x27
 9920 2695 7C080000 		.4byte	.LASF133
 9921 2699 990E0000 		.4byte	0xe99
 9922 269d 02       		.uleb128 0x2
 9923 269e 91       		.byte	0x91
 9924 269f 74       		.sleb128 -12
 9925 26a0 2E       		.uleb128 0x2e
 9926 26a1 CF020000 		.4byte	.LASF170
 9927 26a5 01       		.byte	0x1
 9928 26a6 B102     		.2byte	0x2b1
 9929 26a8 25000000 		.4byte	0x25
 9930 26ac 02       		.uleb128 0x2
 9931 26ad 91       		.byte	0x91
 9932 26ae 70       		.sleb128 -16
 9933 26af 00       		.byte	0
 9934 26b0 2C       		.uleb128 0x2c
 9935 26b1 370B0000 		.4byte	0xb37
 9936 26b5 01       		.byte	0x1
 9937 26b6 B802     		.2byte	0x2b8
 9938 26b8 00000000 		.4byte	.LFB147
 9939 26bc 7E000000 		.4byte	.LFE147-.LFB147
 9940 26c0 01       		.uleb128 0x1
 9941 26c1 9C       		.byte	0x9c
 9942 26c2 CA260000 		.4byte	0x26ca
 9943 26c6 0E270000 		.4byte	0x270e
 9944 26ca 27       		.uleb128 0x27
 9945 26cb 7C080000 		.4byte	.LASF133
 9946 26cf 990E0000 		.4byte	0xe99
 9947 26d3 02       		.uleb128 0x2
 9948 26d4 91       		.byte	0x91
 9949 26d5 6C       		.sleb128 -20
 9950 26d6 2E       		.uleb128 0x2e
 9951 26d7 CF020000 		.4byte	.LASF170
ARM GAS  C:\Users\Bruger\AppData\Local\Temp\ccjLt6bf.s 			page 189


 9952 26db 01       		.byte	0x1
 9953 26dc B802     		.2byte	0x2b8
 9954 26de 25000000 		.4byte	0x25
 9955 26e2 02       		.uleb128 0x2
 9956 26e3 91       		.byte	0x91
 9957 26e4 68       		.sleb128 -24
 9958 26e5 2E       		.uleb128 0x2e
 9959 26e6 74040000 		.4byte	.LASF185
 9960 26ea 01       		.byte	0x1
 9961 26eb B802     		.2byte	0x2b8
 9962 26ed 25000000 		.4byte	0x25
 9963 26f1 02       		.uleb128 0x2
 9964 26f2 91       		.byte	0x91
 9965 26f3 64       		.sleb128 -28
 9966 26f4 24       		.uleb128 0x24
 9967 26f5 0C000000 		.4byte	.LBB64
 9968 26f9 6C000000 		.4byte	.LBE64-.LBB64
 9969 26fd 2F       		.uleb128 0x2f
 9970 26fe 430C0000 		.4byte	.LASF184
 9971 2702 01       		.byte	0x1
 9972 2703 BC02     		.2byte	0x2bc
 9973 2705 7A000000 		.4byte	0x7a
 9974 2709 02       		.uleb128 0x2
 9975 270a 91       		.byte	0x91
 9976 270b 74       		.sleb128 -12
 9977 270c 00       		.byte	0
 9978 270d 00       		.byte	0
 9979 270e 2C       		.uleb128 0x2c
 9980 270f 5B0B0000 		.4byte	0xb5b
 9981 2713 01       		.byte	0x1
 9982 2714 C202     		.2byte	0x2c2
 9983 2716 00000000 		.4byte	.LFB148
 9984 271a 40000000 		.4byte	.LFE148-.LFB148
 9985 271e 01       		.uleb128 0x1
 9986 271f 9C       		.byte	0x9c
 9987 2720 28270000 		.4byte	0x2728
 9988 2724 4C270000 		.4byte	0x274c
 9989 2728 27       		.uleb128 0x27
 9990 2729 7C080000 		.4byte	.LASF133
 9991 272d 990E0000 		.4byte	0xe99
 9992 2731 02       		.uleb128 0x2
 9993 2732 91       		.byte	0x91
 9994 2733 6C       		.sleb128 -20
 9995 2734 24       		.uleb128 0x24
 9996 2735 12000000 		.4byte	.LBB66
 9997 2739 28000000 		.4byte	.LBE66-.LBB66
 9998 273d 30       		.uleb128 0x30
 9999 273e 7000     		.ascii	"p\000"
 10000 2740 01       		.byte	0x1
 10001 2741 C502     		.2byte	0x2c5
 10002 2743 7A000000 		.4byte	0x7a
 10003 2747 02       		.uleb128 0x2
 10004 2748 91       		.byte	0x91
 10005 2749 74       		.sleb128 -12
 10006 274a 00       		.byte	0
 10007 274b 00       		.byte	0
 10008 274c 2C       		.uleb128 0x2c
ARM GAS  C:\Users\Bruger\AppData\Local\Temp\ccjLt6bf.s 			page 190


 10009 274d 750B0000 		.4byte	0xb75
 10010 2751 01       		.byte	0x1
 10011 2752 CA02     		.2byte	0x2ca
 10012 2754 00000000 		.4byte	.LFB149
 10013 2758 40000000 		.4byte	.LFE149-.LFB149
 10014 275c 01       		.uleb128 0x1
 10015 275d 9C       		.byte	0x9c
 10016 275e 66270000 		.4byte	0x2766
 10017 2762 8A270000 		.4byte	0x278a
 10018 2766 27       		.uleb128 0x27
 10019 2767 7C080000 		.4byte	.LASF133
 10020 276b 990E0000 		.4byte	0xe99
 10021 276f 02       		.uleb128 0x2
 10022 2770 91       		.byte	0x91
 10023 2771 6C       		.sleb128 -20
 10024 2772 24       		.uleb128 0x24
 10025 2773 12000000 		.4byte	.LBB68
 10026 2777 28000000 		.4byte	.LBE68-.LBB68
 10027 277b 30       		.uleb128 0x30
 10028 277c 7000     		.ascii	"p\000"
 10029 277e 01       		.byte	0x1
 10030 277f CD02     		.2byte	0x2cd
 10031 2781 7A000000 		.4byte	0x7a
 10032 2785 02       		.uleb128 0x2
 10033 2786 91       		.byte	0x91
 10034 2787 74       		.sleb128 -12
 10035 2788 00       		.byte	0
 10036 2789 00       		.byte	0
 10037 278a 2C       		.uleb128 0x2c
 10038 278b 8F0B0000 		.4byte	0xb8f
 10039 278f 01       		.byte	0x1
 10040 2790 D202     		.2byte	0x2d2
 10041 2792 00000000 		.4byte	.LFB150
 10042 2796 A6000000 		.4byte	.LFE150-.LFB150
 10043 279a 01       		.uleb128 0x1
 10044 279b 9C       		.byte	0x9c
 10045 279c A4270000 		.4byte	0x27a4
 10046 27a0 D9270000 		.4byte	0x27d9
 10047 27a4 27       		.uleb128 0x27
 10048 27a5 7C080000 		.4byte	.LASF133
 10049 27a9 990E0000 		.4byte	0xe99
 10050 27ad 02       		.uleb128 0x2
 10051 27ae 91       		.byte	0x91
 10052 27af 6C       		.sleb128 -20
 10053 27b0 24       		.uleb128 0x24
 10054 27b1 08000000 		.4byte	.LBB69
 10055 27b5 98000000 		.4byte	.LBE69-.LBB69
 10056 27b9 2F       		.uleb128 0x2f
 10057 27ba 970C0000 		.4byte	.LASF186
 10058 27be 01       		.byte	0x1
 10059 27bf D502     		.2byte	0x2d5
 10060 27c1 7A000000 		.4byte	0x7a
 10061 27c5 02       		.uleb128 0x2
 10062 27c6 91       		.byte	0x91
 10063 27c7 74       		.sleb128 -12
 10064 27c8 30       		.uleb128 0x30
 10065 27c9 656E6400 		.ascii	"end\000"
ARM GAS  C:\Users\Bruger\AppData\Local\Temp\ccjLt6bf.s 			page 191


 10066 27cd 01       		.byte	0x1
 10067 27ce D702     		.2byte	0x2d7
 10068 27d0 7A000000 		.4byte	0x7a
 10069 27d4 02       		.uleb128 0x2
 10070 27d5 91       		.byte	0x91
 10071 27d6 70       		.sleb128 -16
 10072 27d7 00       		.byte	0
 10073 27d8 00       		.byte	0
 10074 27d9 2C       		.uleb128 0x2c
 10075 27da A90B0000 		.4byte	0xba9
 10076 27de 01       		.byte	0x1
 10077 27df E202     		.2byte	0x2e2
 10078 27e1 00000000 		.4byte	.LFB151
 10079 27e5 28000000 		.4byte	.LFE151-.LFB151
 10080 27e9 01       		.uleb128 0x1
 10081 27ea 9C       		.byte	0x9c
 10082 27eb F3270000 		.4byte	0x27f3
 10083 27ef 00280000 		.4byte	0x2800
 10084 27f3 27       		.uleb128 0x27
 10085 27f4 7C080000 		.4byte	.LASF133
 10086 27f8 441E0000 		.4byte	0x1e44
 10087 27fc 02       		.uleb128 0x2
 10088 27fd 91       		.byte	0x91
 10089 27fe 74       		.sleb128 -12
 10090 27ff 00       		.byte	0
 10091 2800 34       		.uleb128 0x34
 10092 2801 C70B0000 		.4byte	0xbc7
 10093 2805 01       		.byte	0x1
 10094 2806 E802     		.2byte	0x2e8
 10095 2808 00000000 		.4byte	.LFB152
 10096 280c 36000000 		.4byte	.LFE152-.LFB152
 10097 2810 01       		.uleb128 0x1
 10098 2811 9C       		.byte	0x9c
 10099 2812 16280000 		.4byte	0x2816
 10100 2816 27       		.uleb128 0x27
 10101 2817 7C080000 		.4byte	.LASF133
 10102 281b 441E0000 		.4byte	0x1e44
 10103 281f 02       		.uleb128 0x2
 10104 2820 91       		.byte	0x91
 10105 2821 74       		.sleb128 -12
 10106 2822 00       		.byte	0
 10107 2823 00       		.byte	0
 10108              		.section	.debug_abbrev,"",%progbits
 10109              	.Ldebug_abbrev0:
 10110 0000 01       		.uleb128 0x1
 10111 0001 11       		.uleb128 0x11
 10112 0002 01       		.byte	0x1
 10113 0003 25       		.uleb128 0x25
 10114 0004 0E       		.uleb128 0xe
 10115 0005 13       		.uleb128 0x13
 10116 0006 0B       		.uleb128 0xb
 10117 0007 03       		.uleb128 0x3
 10118 0008 0E       		.uleb128 0xe
 10119 0009 1B       		.uleb128 0x1b
 10120 000a 0E       		.uleb128 0xe
 10121 000b 55       		.uleb128 0x55
 10122 000c 17       		.uleb128 0x17
ARM GAS  C:\Users\Bruger\AppData\Local\Temp\ccjLt6bf.s 			page 192


 10123 000d 11       		.uleb128 0x11
 10124 000e 01       		.uleb128 0x1
 10125 000f 10       		.uleb128 0x10
 10126 0010 17       		.uleb128 0x17
 10127 0011 00       		.byte	0
 10128 0012 00       		.byte	0
 10129 0013 02       		.uleb128 0x2
 10130 0014 24       		.uleb128 0x24
 10131 0015 00       		.byte	0
 10132 0016 0B       		.uleb128 0xb
 10133 0017 0B       		.uleb128 0xb
 10134 0018 3E       		.uleb128 0x3e
 10135 0019 0B       		.uleb128 0xb
 10136 001a 03       		.uleb128 0x3
 10137 001b 0E       		.uleb128 0xe
 10138 001c 00       		.byte	0
 10139 001d 00       		.byte	0
 10140 001e 03       		.uleb128 0x3
 10141 001f 24       		.uleb128 0x24
 10142 0020 00       		.byte	0
 10143 0021 0B       		.uleb128 0xb
 10144 0022 0B       		.uleb128 0xb
 10145 0023 3E       		.uleb128 0x3e
 10146 0024 0B       		.uleb128 0xb
 10147 0025 03       		.uleb128 0x3
 10148 0026 08       		.uleb128 0x8
 10149 0027 00       		.byte	0
 10150 0028 00       		.byte	0
 10151 0029 04       		.uleb128 0x4
 10152 002a 0F       		.uleb128 0xf
 10153 002b 00       		.byte	0
 10154 002c 0B       		.uleb128 0xb
 10155 002d 0B       		.uleb128 0xb
 10156 002e 00       		.byte	0
 10157 002f 00       		.byte	0
 10158 0030 05       		.uleb128 0x5
 10159 0031 0F       		.uleb128 0xf
 10160 0032 00       		.byte	0
 10161 0033 0B       		.uleb128 0xb
 10162 0034 0B       		.uleb128 0xb
 10163 0035 49       		.uleb128 0x49
 10164 0036 13       		.uleb128 0x13
 10165 0037 00       		.byte	0
 10166 0038 00       		.byte	0
 10167 0039 06       		.uleb128 0x6
 10168 003a 26       		.uleb128 0x26
 10169 003b 00       		.byte	0
 10170 003c 49       		.uleb128 0x49
 10171 003d 13       		.uleb128 0x13
 10172 003e 00       		.byte	0
 10173 003f 00       		.byte	0
 10174 0040 07       		.uleb128 0x7
 10175 0041 02       		.uleb128 0x2
 10176 0042 01       		.byte	0x1
 10177 0043 03       		.uleb128 0x3
 10178 0044 0E       		.uleb128 0xe
 10179 0045 0B       		.uleb128 0xb
ARM GAS  C:\Users\Bruger\AppData\Local\Temp\ccjLt6bf.s 			page 193


 10180 0046 0B       		.uleb128 0xb
 10181 0047 3A       		.uleb128 0x3a
 10182 0048 0B       		.uleb128 0xb
 10183 0049 3B       		.uleb128 0x3b
 10184 004a 0B       		.uleb128 0xb
 10185 004b 01       		.uleb128 0x1
 10186 004c 13       		.uleb128 0x13
 10187 004d 00       		.byte	0
 10188 004e 00       		.byte	0
 10189 004f 08       		.uleb128 0x8
 10190 0050 0D       		.uleb128 0xd
 10191 0051 00       		.byte	0
 10192 0052 03       		.uleb128 0x3
 10193 0053 0E       		.uleb128 0xe
 10194 0054 3A       		.uleb128 0x3a
 10195 0055 0B       		.uleb128 0xb
 10196 0056 3B       		.uleb128 0x3b
 10197 0057 0B       		.uleb128 0xb
 10198 0058 49       		.uleb128 0x49
 10199 0059 13       		.uleb128 0x13
 10200 005a 38       		.uleb128 0x38
 10201 005b 0B       		.uleb128 0xb
 10202 005c 32       		.uleb128 0x32
 10203 005d 0B       		.uleb128 0xb
 10204 005e 00       		.byte	0
 10205 005f 00       		.byte	0
 10206 0060 09       		.uleb128 0x9
 10207 0061 0D       		.uleb128 0xd
 10208 0062 00       		.byte	0
 10209 0063 03       		.uleb128 0x3
 10210 0064 08       		.uleb128 0x8
 10211 0065 3A       		.uleb128 0x3a
 10212 0066 0B       		.uleb128 0xb
 10213 0067 3B       		.uleb128 0x3b
 10214 0068 0B       		.uleb128 0xb
 10215 0069 49       		.uleb128 0x49
 10216 006a 13       		.uleb128 0x13
 10217 006b 38       		.uleb128 0x38
 10218 006c 0B       		.uleb128 0xb
 10219 006d 32       		.uleb128 0x32
 10220 006e 0B       		.uleb128 0xb
 10221 006f 00       		.byte	0
 10222 0070 00       		.byte	0
 10223 0071 0A       		.uleb128 0xa
 10224 0072 16       		.uleb128 0x16
 10225 0073 00       		.byte	0
 10226 0074 03       		.uleb128 0x3
 10227 0075 0E       		.uleb128 0xe
 10228 0076 3A       		.uleb128 0x3a
 10229 0077 0B       		.uleb128 0xb
 10230 0078 3B       		.uleb128 0x3b
 10231 0079 0B       		.uleb128 0xb
 10232 007a 49       		.uleb128 0x49
 10233 007b 13       		.uleb128 0x13
 10234 007c 00       		.byte	0
 10235 007d 00       		.byte	0
 10236 007e 0B       		.uleb128 0xb
ARM GAS  C:\Users\Bruger\AppData\Local\Temp\ccjLt6bf.s 			page 194


 10237 007f 2E       		.uleb128 0x2e
 10238 0080 01       		.byte	0x1
 10239 0081 3F       		.uleb128 0x3f
 10240 0082 19       		.uleb128 0x19
 10241 0083 03       		.uleb128 0x3
 10242 0084 0E       		.uleb128 0xe
 10243 0085 3A       		.uleb128 0x3a
 10244 0086 0B       		.uleb128 0xb
 10245 0087 3B       		.uleb128 0x3b
 10246 0088 0B       		.uleb128 0xb
 10247 0089 6E       		.uleb128 0x6e
 10248 008a 0E       		.uleb128 0xe
 10249 008b 3C       		.uleb128 0x3c
 10250 008c 19       		.uleb128 0x19
 10251 008d 64       		.uleb128 0x64
 10252 008e 13       		.uleb128 0x13
 10253 008f 01       		.uleb128 0x1
 10254 0090 13       		.uleb128 0x13
 10255 0091 00       		.byte	0
 10256 0092 00       		.byte	0
 10257 0093 0C       		.uleb128 0xc
 10258 0094 05       		.uleb128 0x5
 10259 0095 00       		.byte	0
 10260 0096 49       		.uleb128 0x49
 10261 0097 13       		.uleb128 0x13
 10262 0098 34       		.uleb128 0x34
 10263 0099 19       		.uleb128 0x19
 10264 009a 00       		.byte	0
 10265 009b 00       		.byte	0
 10266 009c 0D       		.uleb128 0xd
 10267 009d 2E       		.uleb128 0x2e
 10268 009e 01       		.byte	0x1
 10269 009f 3F       		.uleb128 0x3f
 10270 00a0 19       		.uleb128 0x19
 10271 00a1 03       		.uleb128 0x3
 10272 00a2 0E       		.uleb128 0xe
 10273 00a3 3A       		.uleb128 0x3a
 10274 00a4 0B       		.uleb128 0xb
 10275 00a5 3B       		.uleb128 0x3b
 10276 00a6 0B       		.uleb128 0xb
 10277 00a7 49       		.uleb128 0x49
 10278 00a8 13       		.uleb128 0x13
 10279 00a9 32       		.uleb128 0x32
 10280 00aa 0B       		.uleb128 0xb
 10281 00ab 3C       		.uleb128 0x3c
 10282 00ac 19       		.uleb128 0x19
 10283 00ad 64       		.uleb128 0x64
 10284 00ae 13       		.uleb128 0x13
 10285 00af 01       		.uleb128 0x1
 10286 00b0 13       		.uleb128 0x13
 10287 00b1 00       		.byte	0
 10288 00b2 00       		.byte	0
 10289 00b3 0E       		.uleb128 0xe
 10290 00b4 05       		.uleb128 0x5
 10291 00b5 00       		.byte	0
 10292 00b6 49       		.uleb128 0x49
 10293 00b7 13       		.uleb128 0x13
ARM GAS  C:\Users\Bruger\AppData\Local\Temp\ccjLt6bf.s 			page 195


 10294 00b8 00       		.byte	0
 10295 00b9 00       		.byte	0
 10296 00ba 0F       		.uleb128 0xf
 10297 00bb 2E       		.uleb128 0x2e
 10298 00bc 01       		.byte	0x1
 10299 00bd 3F       		.uleb128 0x3f
 10300 00be 19       		.uleb128 0x19
 10301 00bf 03       		.uleb128 0x3
 10302 00c0 0E       		.uleb128 0xe
 10303 00c1 3A       		.uleb128 0x3a
 10304 00c2 0B       		.uleb128 0xb
 10305 00c3 3B       		.uleb128 0x3b
 10306 00c4 0B       		.uleb128 0xb
 10307 00c5 49       		.uleb128 0x49
 10308 00c6 13       		.uleb128 0x13
 10309 00c7 32       		.uleb128 0x32
 10310 00c8 0B       		.uleb128 0xb
 10311 00c9 3C       		.uleb128 0x3c
 10312 00ca 19       		.uleb128 0x19
 10313 00cb 63       		.uleb128 0x63
 10314 00cc 19       		.uleb128 0x19
 10315 00cd 64       		.uleb128 0x64
 10316 00ce 13       		.uleb128 0x13
 10317 00cf 01       		.uleb128 0x1
 10318 00d0 13       		.uleb128 0x13
 10319 00d1 00       		.byte	0
 10320 00d2 00       		.byte	0
 10321 00d3 10       		.uleb128 0x10
 10322 00d4 2E       		.uleb128 0x2e
 10323 00d5 01       		.byte	0x1
 10324 00d6 3F       		.uleb128 0x3f
 10325 00d7 19       		.uleb128 0x19
 10326 00d8 03       		.uleb128 0x3
 10327 00d9 0E       		.uleb128 0xe
 10328 00da 3A       		.uleb128 0x3a
 10329 00db 0B       		.uleb128 0xb
 10330 00dc 3B       		.uleb128 0x3b
 10331 00dd 0B       		.uleb128 0xb
 10332 00de 6E       		.uleb128 0x6e
 10333 00df 0E       		.uleb128 0xe
 10334 00e0 49       		.uleb128 0x49
 10335 00e1 13       		.uleb128 0x13
 10336 00e2 32       		.uleb128 0x32
 10337 00e3 0B       		.uleb128 0xb
 10338 00e4 3C       		.uleb128 0x3c
 10339 00e5 19       		.uleb128 0x19
 10340 00e6 64       		.uleb128 0x64
 10341 00e7 13       		.uleb128 0x13
 10342 00e8 01       		.uleb128 0x1
 10343 00e9 13       		.uleb128 0x13
 10344 00ea 00       		.byte	0
 10345 00eb 00       		.byte	0
 10346 00ec 11       		.uleb128 0x11
 10347 00ed 2E       		.uleb128 0x2e
 10348 00ee 01       		.byte	0x1
 10349 00ef 3F       		.uleb128 0x3f
 10350 00f0 19       		.uleb128 0x19
ARM GAS  C:\Users\Bruger\AppData\Local\Temp\ccjLt6bf.s 			page 196


 10351 00f1 03       		.uleb128 0x3
 10352 00f2 0E       		.uleb128 0xe
 10353 00f3 3A       		.uleb128 0x3a
 10354 00f4 0B       		.uleb128 0xb
 10355 00f5 3B       		.uleb128 0x3b
 10356 00f6 0B       		.uleb128 0xb
 10357 00f7 6E       		.uleb128 0x6e
 10358 00f8 0E       		.uleb128 0xe
 10359 00f9 32       		.uleb128 0x32
 10360 00fa 0B       		.uleb128 0xb
 10361 00fb 3C       		.uleb128 0x3c
 10362 00fc 19       		.uleb128 0x19
 10363 00fd 64       		.uleb128 0x64
 10364 00fe 13       		.uleb128 0x13
 10365 00ff 01       		.uleb128 0x1
 10366 0100 13       		.uleb128 0x13
 10367 0101 00       		.byte	0
 10368 0102 00       		.byte	0
 10369 0103 12       		.uleb128 0x12
 10370 0104 2E       		.uleb128 0x2e
 10371 0105 01       		.byte	0x1
 10372 0106 3F       		.uleb128 0x3f
 10373 0107 19       		.uleb128 0x19
 10374 0108 03       		.uleb128 0x3
 10375 0109 0E       		.uleb128 0xe
 10376 010a 3A       		.uleb128 0x3a
 10377 010b 0B       		.uleb128 0xb
 10378 010c 3B       		.uleb128 0x3b
 10379 010d 0B       		.uleb128 0xb
 10380 010e 6E       		.uleb128 0x6e
 10381 010f 0E       		.uleb128 0xe
 10382 0110 49       		.uleb128 0x49
 10383 0111 13       		.uleb128 0x13
 10384 0112 32       		.uleb128 0x32
 10385 0113 0B       		.uleb128 0xb
 10386 0114 3C       		.uleb128 0x3c
 10387 0115 19       		.uleb128 0x19
 10388 0116 64       		.uleb128 0x64
 10389 0117 13       		.uleb128 0x13
 10390 0118 00       		.byte	0
 10391 0119 00       		.byte	0
 10392 011a 13       		.uleb128 0x13
 10393 011b 13       		.uleb128 0x13
 10394 011c 01       		.byte	0x1
 10395 011d 0B       		.uleb128 0xb
 10396 011e 0B       		.uleb128 0xb
 10397 011f 3A       		.uleb128 0x3a
 10398 0120 0B       		.uleb128 0xb
 10399 0121 3B       		.uleb128 0x3b
 10400 0122 0B       		.uleb128 0xb
 10401 0123 01       		.uleb128 0x1
 10402 0124 13       		.uleb128 0x13
 10403 0125 00       		.byte	0
 10404 0126 00       		.byte	0
 10405 0127 14       		.uleb128 0x14
 10406 0128 0D       		.uleb128 0xd
 10407 0129 00       		.byte	0
ARM GAS  C:\Users\Bruger\AppData\Local\Temp\ccjLt6bf.s 			page 197


 10408 012a 03       		.uleb128 0x3
 10409 012b 0E       		.uleb128 0xe
 10410 012c 3A       		.uleb128 0x3a
 10411 012d 0B       		.uleb128 0xb
 10412 012e 3B       		.uleb128 0x3b
 10413 012f 0B       		.uleb128 0xb
 10414 0130 49       		.uleb128 0x49
 10415 0131 13       		.uleb128 0x13
 10416 0132 38       		.uleb128 0x38
 10417 0133 0B       		.uleb128 0xb
 10418 0134 00       		.byte	0
 10419 0135 00       		.byte	0
 10420 0136 15       		.uleb128 0x15
 10421 0137 15       		.uleb128 0x15
 10422 0138 01       		.byte	0x1
 10423 0139 64       		.uleb128 0x64
 10424 013a 13       		.uleb128 0x13
 10425 013b 01       		.uleb128 0x1
 10426 013c 13       		.uleb128 0x13
 10427 013d 00       		.byte	0
 10428 013e 00       		.byte	0
 10429 013f 16       		.uleb128 0x16
 10430 0140 10       		.uleb128 0x10
 10431 0141 00       		.byte	0
 10432 0142 0B       		.uleb128 0xb
 10433 0143 0B       		.uleb128 0xb
 10434 0144 49       		.uleb128 0x49
 10435 0145 13       		.uleb128 0x13
 10436 0146 00       		.byte	0
 10437 0147 00       		.byte	0
 10438 0148 17       		.uleb128 0x17
 10439 0149 02       		.uleb128 0x2
 10440 014a 00       		.byte	0
 10441 014b 03       		.uleb128 0x3
 10442 014c 0E       		.uleb128 0xe
 10443 014d 3C       		.uleb128 0x3c
 10444 014e 19       		.uleb128 0x19
 10445 014f 00       		.byte	0
 10446 0150 00       		.byte	0
 10447 0151 18       		.uleb128 0x18
 10448 0152 1C       		.uleb128 0x1c
 10449 0153 00       		.byte	0
 10450 0154 49       		.uleb128 0x49
 10451 0155 13       		.uleb128 0x13
 10452 0156 38       		.uleb128 0x38
 10453 0157 0B       		.uleb128 0xb
 10454 0158 32       		.uleb128 0x32
 10455 0159 0B       		.uleb128 0xb
 10456 015a 00       		.byte	0
 10457 015b 00       		.byte	0
 10458 015c 19       		.uleb128 0x19
 10459 015d 2E       		.uleb128 0x2e
 10460 015e 01       		.byte	0x1
 10461 015f 3F       		.uleb128 0x3f
 10462 0160 19       		.uleb128 0x19
 10463 0161 03       		.uleb128 0x3
 10464 0162 0E       		.uleb128 0xe
ARM GAS  C:\Users\Bruger\AppData\Local\Temp\ccjLt6bf.s 			page 198


 10465 0163 3A       		.uleb128 0x3a
 10466 0164 0B       		.uleb128 0xb
 10467 0165 3B       		.uleb128 0x3b
 10468 0166 0B       		.uleb128 0xb
 10469 0167 49       		.uleb128 0x49
 10470 0168 13       		.uleb128 0x13
 10471 0169 32       		.uleb128 0x32
 10472 016a 0B       		.uleb128 0xb
 10473 016b 3C       		.uleb128 0x3c
 10474 016c 19       		.uleb128 0x19
 10475 016d 64       		.uleb128 0x64
 10476 016e 13       		.uleb128 0x13
 10477 016f 00       		.byte	0
 10478 0170 00       		.byte	0
 10479 0171 1A       		.uleb128 0x1a
 10480 0172 2E       		.uleb128 0x2e
 10481 0173 01       		.byte	0x1
 10482 0174 47       		.uleb128 0x47
 10483 0175 13       		.uleb128 0x13
 10484 0176 3A       		.uleb128 0x3a
 10485 0177 0B       		.uleb128 0xb
 10486 0178 3B       		.uleb128 0x3b
 10487 0179 0B       		.uleb128 0xb
 10488 017a 20       		.uleb128 0x20
 10489 017b 0B       		.uleb128 0xb
 10490 017c 64       		.uleb128 0x64
 10491 017d 13       		.uleb128 0x13
 10492 017e 01       		.uleb128 0x1
 10493 017f 13       		.uleb128 0x13
 10494 0180 00       		.byte	0
 10495 0181 00       		.byte	0
 10496 0182 1B       		.uleb128 0x1b
 10497 0183 05       		.uleb128 0x5
 10498 0184 00       		.byte	0
 10499 0185 03       		.uleb128 0x3
 10500 0186 0E       		.uleb128 0xe
 10501 0187 49       		.uleb128 0x49
 10502 0188 13       		.uleb128 0x13
 10503 0189 34       		.uleb128 0x34
 10504 018a 19       		.uleb128 0x19
 10505 018b 00       		.byte	0
 10506 018c 00       		.byte	0
 10507 018d 1C       		.uleb128 0x1c
 10508 018e 05       		.uleb128 0x5
 10509 018f 00       		.byte	0
 10510 0190 03       		.uleb128 0x3
 10511 0191 0E       		.uleb128 0xe
 10512 0192 3A       		.uleb128 0x3a
 10513 0193 0B       		.uleb128 0xb
 10514 0194 3B       		.uleb128 0x3b
 10515 0195 0B       		.uleb128 0xb
 10516 0196 49       		.uleb128 0x49
 10517 0197 13       		.uleb128 0x13
 10518 0198 00       		.byte	0
 10519 0199 00       		.byte	0
 10520 019a 1D       		.uleb128 0x1d
 10521 019b 2E       		.uleb128 0x2e
ARM GAS  C:\Users\Bruger\AppData\Local\Temp\ccjLt6bf.s 			page 199


 10522 019c 01       		.byte	0x1
 10523 019d 31       		.uleb128 0x31
 10524 019e 13       		.uleb128 0x13
 10525 019f 6E       		.uleb128 0x6e
 10526 01a0 0E       		.uleb128 0xe
 10527 01a1 11       		.uleb128 0x11
 10528 01a2 01       		.uleb128 0x1
 10529 01a3 12       		.uleb128 0x12
 10530 01a4 06       		.uleb128 0x6
 10531 01a5 40       		.uleb128 0x40
 10532 01a6 18       		.uleb128 0x18
 10533 01a7 64       		.uleb128 0x64
 10534 01a8 13       		.uleb128 0x13
 10535 01a9 9642     		.uleb128 0x2116
 10536 01ab 19       		.uleb128 0x19
 10537 01ac 01       		.uleb128 0x1
 10538 01ad 13       		.uleb128 0x13
 10539 01ae 00       		.byte	0
 10540 01af 00       		.byte	0
 10541 01b0 1E       		.uleb128 0x1e
 10542 01b1 05       		.uleb128 0x5
 10543 01b2 00       		.byte	0
 10544 01b3 31       		.uleb128 0x31
 10545 01b4 13       		.uleb128 0x13
 10546 01b5 02       		.uleb128 0x2
 10547 01b6 18       		.uleb128 0x18
 10548 01b7 00       		.byte	0
 10549 01b8 00       		.byte	0
 10550 01b9 1F       		.uleb128 0x1f
 10551 01ba 05       		.uleb128 0x5
 10552 01bb 00       		.byte	0
 10553 01bc 03       		.uleb128 0x3
 10554 01bd 08       		.uleb128 0x8
 10555 01be 3A       		.uleb128 0x3a
 10556 01bf 0B       		.uleb128 0xb
 10557 01c0 3B       		.uleb128 0x3b
 10558 01c1 0B       		.uleb128 0xb
 10559 01c2 49       		.uleb128 0x49
 10560 01c3 13       		.uleb128 0x13
 10561 01c4 00       		.byte	0
 10562 01c5 00       		.byte	0
 10563 01c6 20       		.uleb128 0x20
 10564 01c7 0B       		.uleb128 0xb
 10565 01c8 01       		.byte	0x1
 10566 01c9 00       		.byte	0
 10567 01ca 00       		.byte	0
 10568 01cb 21       		.uleb128 0x21
 10569 01cc 34       		.uleb128 0x34
 10570 01cd 00       		.byte	0
 10571 01ce 03       		.uleb128 0x3
 10572 01cf 08       		.uleb128 0x8
 10573 01d0 3A       		.uleb128 0x3a
 10574 01d1 0B       		.uleb128 0xb
 10575 01d2 3B       		.uleb128 0x3b
 10576 01d3 0B       		.uleb128 0xb
 10577 01d4 49       		.uleb128 0x49
 10578 01d5 13       		.uleb128 0x13
ARM GAS  C:\Users\Bruger\AppData\Local\Temp\ccjLt6bf.s 			page 200


 10579 01d6 00       		.byte	0
 10580 01d7 00       		.byte	0
 10581 01d8 22       		.uleb128 0x22
 10582 01d9 01       		.uleb128 0x1
 10583 01da 01       		.byte	0x1
 10584 01db 49       		.uleb128 0x49
 10585 01dc 13       		.uleb128 0x13
 10586 01dd 01       		.uleb128 0x1
 10587 01de 13       		.uleb128 0x13
 10588 01df 00       		.byte	0
 10589 01e0 00       		.byte	0
 10590 01e1 23       		.uleb128 0x23
 10591 01e2 21       		.uleb128 0x21
 10592 01e3 00       		.byte	0
 10593 01e4 49       		.uleb128 0x49
 10594 01e5 13       		.uleb128 0x13
 10595 01e6 2F       		.uleb128 0x2f
 10596 01e7 0B       		.uleb128 0xb
 10597 01e8 00       		.byte	0
 10598 01e9 00       		.byte	0
 10599 01ea 24       		.uleb128 0x24
 10600 01eb 0B       		.uleb128 0xb
 10601 01ec 01       		.byte	0x1
 10602 01ed 11       		.uleb128 0x11
 10603 01ee 01       		.uleb128 0x1
 10604 01ef 12       		.uleb128 0x12
 10605 01f0 06       		.uleb128 0x6
 10606 01f1 00       		.byte	0
 10607 01f2 00       		.byte	0
 10608 01f3 25       		.uleb128 0x25
 10609 01f4 34       		.uleb128 0x34
 10610 01f5 00       		.byte	0
 10611 01f6 31       		.uleb128 0x31
 10612 01f7 13       		.uleb128 0x13
 10613 01f8 02       		.uleb128 0x2
 10614 01f9 18       		.uleb128 0x18
 10615 01fa 00       		.byte	0
 10616 01fb 00       		.byte	0
 10617 01fc 26       		.uleb128 0x26
 10618 01fd 2E       		.uleb128 0x2e
 10619 01fe 01       		.byte	0x1
 10620 01ff 47       		.uleb128 0x47
 10621 0200 13       		.uleb128 0x13
 10622 0201 3A       		.uleb128 0x3a
 10623 0202 0B       		.uleb128 0xb
 10624 0203 3B       		.uleb128 0x3b
 10625 0204 0B       		.uleb128 0xb
 10626 0205 11       		.uleb128 0x11
 10627 0206 01       		.uleb128 0x1
 10628 0207 12       		.uleb128 0x12
 10629 0208 06       		.uleb128 0x6
 10630 0209 40       		.uleb128 0x40
 10631 020a 18       		.uleb128 0x18
 10632 020b 64       		.uleb128 0x64
 10633 020c 13       		.uleb128 0x13
 10634 020d 9742     		.uleb128 0x2117
 10635 020f 19       		.uleb128 0x19
ARM GAS  C:\Users\Bruger\AppData\Local\Temp\ccjLt6bf.s 			page 201


 10636 0210 01       		.uleb128 0x1
 10637 0211 13       		.uleb128 0x13
 10638 0212 00       		.byte	0
 10639 0213 00       		.byte	0
 10640 0214 27       		.uleb128 0x27
 10641 0215 05       		.uleb128 0x5
 10642 0216 00       		.byte	0
 10643 0217 03       		.uleb128 0x3
 10644 0218 0E       		.uleb128 0xe
 10645 0219 49       		.uleb128 0x49
 10646 021a 13       		.uleb128 0x13
 10647 021b 34       		.uleb128 0x34
 10648 021c 19       		.uleb128 0x19
 10649 021d 02       		.uleb128 0x2
 10650 021e 18       		.uleb128 0x18
 10651 021f 00       		.byte	0
 10652 0220 00       		.byte	0
 10653 0221 28       		.uleb128 0x28
 10654 0222 2E       		.uleb128 0x2e
 10655 0223 01       		.byte	0x1
 10656 0224 47       		.uleb128 0x47
 10657 0225 13       		.uleb128 0x13
 10658 0226 3A       		.uleb128 0x3a
 10659 0227 0B       		.uleb128 0xb
 10660 0228 3B       		.uleb128 0x3b
 10661 0229 0B       		.uleb128 0xb
 10662 022a 11       		.uleb128 0x11
 10663 022b 01       		.uleb128 0x1
 10664 022c 12       		.uleb128 0x12
 10665 022d 06       		.uleb128 0x6
 10666 022e 40       		.uleb128 0x40
 10667 022f 18       		.uleb128 0x18
 10668 0230 64       		.uleb128 0x64
 10669 0231 13       		.uleb128 0x13
 10670 0232 9642     		.uleb128 0x2116
 10671 0234 19       		.uleb128 0x19
 10672 0235 01       		.uleb128 0x1
 10673 0236 13       		.uleb128 0x13
 10674 0237 00       		.byte	0
 10675 0238 00       		.byte	0
 10676 0239 29       		.uleb128 0x29
 10677 023a 05       		.uleb128 0x5
 10678 023b 00       		.byte	0
 10679 023c 03       		.uleb128 0x3
 10680 023d 0E       		.uleb128 0xe
 10681 023e 3A       		.uleb128 0x3a
 10682 023f 0B       		.uleb128 0xb
 10683 0240 3B       		.uleb128 0x3b
 10684 0241 0B       		.uleb128 0xb
 10685 0242 49       		.uleb128 0x49
 10686 0243 13       		.uleb128 0x13
 10687 0244 02       		.uleb128 0x2
 10688 0245 18       		.uleb128 0x18
 10689 0246 00       		.byte	0
 10690 0247 00       		.byte	0
 10691 0248 2A       		.uleb128 0x2a
 10692 0249 34       		.uleb128 0x34
ARM GAS  C:\Users\Bruger\AppData\Local\Temp\ccjLt6bf.s 			page 202


 10693 024a 00       		.byte	0
 10694 024b 03       		.uleb128 0x3
 10695 024c 0E       		.uleb128 0xe
 10696 024d 3A       		.uleb128 0x3a
 10697 024e 0B       		.uleb128 0xb
 10698 024f 3B       		.uleb128 0x3b
 10699 0250 0B       		.uleb128 0xb
 10700 0251 49       		.uleb128 0x49
 10701 0252 13       		.uleb128 0x13
 10702 0253 02       		.uleb128 0x2
 10703 0254 18       		.uleb128 0x18
 10704 0255 00       		.byte	0
 10705 0256 00       		.byte	0
 10706 0257 2B       		.uleb128 0x2b
 10707 0258 05       		.uleb128 0x5
 10708 0259 00       		.byte	0
 10709 025a 03       		.uleb128 0x3
 10710 025b 08       		.uleb128 0x8
 10711 025c 3A       		.uleb128 0x3a
 10712 025d 0B       		.uleb128 0xb
 10713 025e 3B       		.uleb128 0x3b
 10714 025f 0B       		.uleb128 0xb
 10715 0260 49       		.uleb128 0x49
 10716 0261 13       		.uleb128 0x13
 10717 0262 02       		.uleb128 0x2
 10718 0263 18       		.uleb128 0x18
 10719 0264 00       		.byte	0
 10720 0265 00       		.byte	0
 10721 0266 2C       		.uleb128 0x2c
 10722 0267 2E       		.uleb128 0x2e
 10723 0268 01       		.byte	0x1
 10724 0269 47       		.uleb128 0x47
 10725 026a 13       		.uleb128 0x13
 10726 026b 3A       		.uleb128 0x3a
 10727 026c 0B       		.uleb128 0xb
 10728 026d 3B       		.uleb128 0x3b
 10729 026e 05       		.uleb128 0x5
 10730 026f 11       		.uleb128 0x11
 10731 0270 01       		.uleb128 0x1
 10732 0271 12       		.uleb128 0x12
 10733 0272 06       		.uleb128 0x6
 10734 0273 40       		.uleb128 0x40
 10735 0274 18       		.uleb128 0x18
 10736 0275 64       		.uleb128 0x64
 10737 0276 13       		.uleb128 0x13
 10738 0277 9642     		.uleb128 0x2116
 10739 0279 19       		.uleb128 0x19
 10740 027a 01       		.uleb128 0x1
 10741 027b 13       		.uleb128 0x13
 10742 027c 00       		.byte	0
 10743 027d 00       		.byte	0
 10744 027e 2D       		.uleb128 0x2d
 10745 027f 05       		.uleb128 0x5
 10746 0280 00       		.byte	0
 10747 0281 03       		.uleb128 0x3
 10748 0282 08       		.uleb128 0x8
 10749 0283 3A       		.uleb128 0x3a
ARM GAS  C:\Users\Bruger\AppData\Local\Temp\ccjLt6bf.s 			page 203


 10750 0284 0B       		.uleb128 0xb
 10751 0285 3B       		.uleb128 0x3b
 10752 0286 05       		.uleb128 0x5
 10753 0287 49       		.uleb128 0x49
 10754 0288 13       		.uleb128 0x13
 10755 0289 02       		.uleb128 0x2
 10756 028a 18       		.uleb128 0x18
 10757 028b 00       		.byte	0
 10758 028c 00       		.byte	0
 10759 028d 2E       		.uleb128 0x2e
 10760 028e 05       		.uleb128 0x5
 10761 028f 00       		.byte	0
 10762 0290 03       		.uleb128 0x3
 10763 0291 0E       		.uleb128 0xe
 10764 0292 3A       		.uleb128 0x3a
 10765 0293 0B       		.uleb128 0xb
 10766 0294 3B       		.uleb128 0x3b
 10767 0295 05       		.uleb128 0x5
 10768 0296 49       		.uleb128 0x49
 10769 0297 13       		.uleb128 0x13
 10770 0298 02       		.uleb128 0x2
 10771 0299 18       		.uleb128 0x18
 10772 029a 00       		.byte	0
 10773 029b 00       		.byte	0
 10774 029c 2F       		.uleb128 0x2f
 10775 029d 34       		.uleb128 0x34
 10776 029e 00       		.byte	0
 10777 029f 03       		.uleb128 0x3
 10778 02a0 0E       		.uleb128 0xe
 10779 02a1 3A       		.uleb128 0x3a
 10780 02a2 0B       		.uleb128 0xb
 10781 02a3 3B       		.uleb128 0x3b
 10782 02a4 05       		.uleb128 0x5
 10783 02a5 49       		.uleb128 0x49
 10784 02a6 13       		.uleb128 0x13
 10785 02a7 02       		.uleb128 0x2
 10786 02a8 18       		.uleb128 0x18
 10787 02a9 00       		.byte	0
 10788 02aa 00       		.byte	0
 10789 02ab 30       		.uleb128 0x30
 10790 02ac 34       		.uleb128 0x34
 10791 02ad 00       		.byte	0
 10792 02ae 03       		.uleb128 0x3
 10793 02af 08       		.uleb128 0x8
 10794 02b0 3A       		.uleb128 0x3a
 10795 02b1 0B       		.uleb128 0xb
 10796 02b2 3B       		.uleb128 0x3b
 10797 02b3 05       		.uleb128 0x5
 10798 02b4 49       		.uleb128 0x49
 10799 02b5 13       		.uleb128 0x13
 10800 02b6 02       		.uleb128 0x2
 10801 02b7 18       		.uleb128 0x18
 10802 02b8 00       		.byte	0
 10803 02b9 00       		.byte	0
 10804 02ba 31       		.uleb128 0x31
 10805 02bb 2E       		.uleb128 0x2e
 10806 02bc 01       		.byte	0x1
ARM GAS  C:\Users\Bruger\AppData\Local\Temp\ccjLt6bf.s 			page 204


 10807 02bd 3F       		.uleb128 0x3f
 10808 02be 19       		.uleb128 0x19
 10809 02bf 03       		.uleb128 0x3
 10810 02c0 0E       		.uleb128 0xe
 10811 02c1 3A       		.uleb128 0x3a
 10812 02c2 0B       		.uleb128 0xb
 10813 02c3 3B       		.uleb128 0x3b
 10814 02c4 05       		.uleb128 0x5
 10815 02c5 6E       		.uleb128 0x6e
 10816 02c6 0E       		.uleb128 0xe
 10817 02c7 49       		.uleb128 0x49
 10818 02c8 13       		.uleb128 0x13
 10819 02c9 11       		.uleb128 0x11
 10820 02ca 01       		.uleb128 0x1
 10821 02cb 12       		.uleb128 0x12
 10822 02cc 06       		.uleb128 0x6
 10823 02cd 40       		.uleb128 0x40
 10824 02ce 18       		.uleb128 0x18
 10825 02cf 9642     		.uleb128 0x2116
 10826 02d1 19       		.uleb128 0x19
 10827 02d2 01       		.uleb128 0x1
 10828 02d3 13       		.uleb128 0x13
 10829 02d4 00       		.byte	0
 10830 02d5 00       		.byte	0
 10831 02d6 32       		.uleb128 0x32
 10832 02d7 2E       		.uleb128 0x2e
 10833 02d8 01       		.byte	0x1
 10834 02d9 47       		.uleb128 0x47
 10835 02da 13       		.uleb128 0x13
 10836 02db 3A       		.uleb128 0x3a
 10837 02dc 0B       		.uleb128 0xb
 10838 02dd 3B       		.uleb128 0x3b
 10839 02de 05       		.uleb128 0x5
 10840 02df 11       		.uleb128 0x11
 10841 02e0 01       		.uleb128 0x1
 10842 02e1 12       		.uleb128 0x12
 10843 02e2 06       		.uleb128 0x6
 10844 02e3 40       		.uleb128 0x40
 10845 02e4 18       		.uleb128 0x18
 10846 02e5 64       		.uleb128 0x64
 10847 02e6 13       		.uleb128 0x13
 10848 02e7 9742     		.uleb128 0x2117
 10849 02e9 19       		.uleb128 0x19
 10850 02ea 01       		.uleb128 0x1
 10851 02eb 13       		.uleb128 0x13
 10852 02ec 00       		.byte	0
 10853 02ed 00       		.byte	0
 10854 02ee 33       		.uleb128 0x33
 10855 02ef 0B       		.uleb128 0xb
 10856 02f0 01       		.byte	0x1
 10857 02f1 11       		.uleb128 0x11
 10858 02f2 01       		.uleb128 0x1
 10859 02f3 12       		.uleb128 0x12
 10860 02f4 06       		.uleb128 0x6
 10861 02f5 01       		.uleb128 0x1
 10862 02f6 13       		.uleb128 0x13
 10863 02f7 00       		.byte	0
ARM GAS  C:\Users\Bruger\AppData\Local\Temp\ccjLt6bf.s 			page 205


 10864 02f8 00       		.byte	0
 10865 02f9 34       		.uleb128 0x34
 10866 02fa 2E       		.uleb128 0x2e
 10867 02fb 01       		.byte	0x1
 10868 02fc 47       		.uleb128 0x47
 10869 02fd 13       		.uleb128 0x13
 10870 02fe 3A       		.uleb128 0x3a
 10871 02ff 0B       		.uleb128 0xb
 10872 0300 3B       		.uleb128 0x3b
 10873 0301 05       		.uleb128 0x5
 10874 0302 11       		.uleb128 0x11
 10875 0303 01       		.uleb128 0x1
 10876 0304 12       		.uleb128 0x12
 10877 0305 06       		.uleb128 0x6
 10878 0306 40       		.uleb128 0x40
 10879 0307 18       		.uleb128 0x18
 10880 0308 64       		.uleb128 0x64
 10881 0309 13       		.uleb128 0x13
 10882 030a 9642     		.uleb128 0x2116
 10883 030c 19       		.uleb128 0x19
 10884 030d 00       		.byte	0
 10885 030e 00       		.byte	0
 10886 030f 00       		.byte	0
 10887              		.section	.debug_aranges,"",%progbits
 10888 0000 84020000 		.4byte	0x284
 10889 0004 0200     		.2byte	0x2
 10890 0006 00000000 		.4byte	.Ldebug_info0
 10891 000a 04       		.byte	0x4
 10892 000b 00       		.byte	0
 10893 000c 0000     		.2byte	0
 10894 000e 0000     		.2byte	0
 10895 0010 00000000 		.4byte	.LFB52
 10896 0014 32000000 		.4byte	.LFE52-.LFB52
 10897 0018 00000000 		.4byte	.LFB55
 10898 001c 22000000 		.4byte	.LFE55-.LFB55
 10899 0020 00000000 		.4byte	.LFB58
 10900 0024 22000000 		.4byte	.LFE58-.LFB58
 10901 0028 00000000 		.4byte	.LFB61
 10902 002c 30000000 		.4byte	.LFE61-.LFB61
 10903 0030 00000000 		.4byte	.LFB64
 10904 0034 3E000000 		.4byte	.LFE64-.LFB64
 10905 0038 00000000 		.4byte	.LFB67
 10906 003c 3A000000 		.4byte	.LFE67-.LFB67
 10907 0040 00000000 		.4byte	.LFB70
 10908 0044 3A000000 		.4byte	.LFE70-.LFB70
 10909 0048 00000000 		.4byte	.LFB73
 10910 004c 3A000000 		.4byte	.LFE73-.LFB73
 10911 0050 00000000 		.4byte	.LFB76
 10912 0054 3A000000 		.4byte	.LFE76-.LFB76
 10913 0058 00000000 		.4byte	.LFB79
 10914 005c 46000000 		.4byte	.LFE79-.LFB79
 10915 0060 00000000 		.4byte	.LFB82
 10916 0064 46000000 		.4byte	.LFE82-.LFB82
 10917 0068 00000000 		.4byte	.LFB85
 10918 006c 1C000000 		.4byte	.LFE85-.LFB85
 10919 0070 00000000 		.4byte	.LFB87
 10920 0074 24000000 		.4byte	.LFE87-.LFB87
ARM GAS  C:\Users\Bruger\AppData\Local\Temp\ccjLt6bf.s 			page 206


 10921 0078 00000000 		.4byte	.LFB88
 10922 007c 34000000 		.4byte	.LFE88-.LFB88
 10923 0080 00000000 		.4byte	.LFB89
 10924 0084 56000000 		.4byte	.LFE89-.LFB89
 10925 0088 00000000 		.4byte	.LFB90
 10926 008c 3C000000 		.4byte	.LFE90-.LFB90
 10927 0090 00000000 		.4byte	.LFB91
 10928 0094 4A000000 		.4byte	.LFE91-.LFB91
 10929 0098 00000000 		.4byte	.LFB92
 10930 009c 4A000000 		.4byte	.LFE92-.LFB92
 10931 00a0 00000000 		.4byte	.LFB93
 10932 00a4 42000000 		.4byte	.LFE93-.LFB93
 10933 00a8 00000000 		.4byte	.LFB94
 10934 00ac 34000000 		.4byte	.LFE94-.LFB94
 10935 00b0 00000000 		.4byte	.LFB95
 10936 00b4 34000000 		.4byte	.LFE95-.LFB95
 10937 00b8 00000000 		.4byte	.LFB96
 10938 00bc 26000000 		.4byte	.LFE96-.LFB96
 10939 00c0 00000000 		.4byte	.LFB97
 10940 00c4 68000000 		.4byte	.LFE97-.LFB97
 10941 00c8 00000000 		.4byte	.LFB98
 10942 00cc 30000000 		.4byte	.LFE98-.LFB98
 10943 00d0 00000000 		.4byte	.LFB99
 10944 00d4 2C000000 		.4byte	.LFE99-.LFB99
 10945 00d8 00000000 		.4byte	.LFB100
 10946 00dc 3E000000 		.4byte	.LFE100-.LFB100
 10947 00e0 00000000 		.4byte	.LFB101
 10948 00e4 3A000000 		.4byte	.LFE101-.LFB101
 10949 00e8 00000000 		.4byte	.LFB102
 10950 00ec 3A000000 		.4byte	.LFE102-.LFB102
 10951 00f0 00000000 		.4byte	.LFB103
 10952 00f4 3A000000 		.4byte	.LFE103-.LFB103
 10953 00f8 00000000 		.4byte	.LFB104
 10954 00fc 3A000000 		.4byte	.LFE104-.LFB104
 10955 0100 00000000 		.4byte	.LFB105
 10956 0104 3E000000 		.4byte	.LFE105-.LFB105
 10957 0108 00000000 		.4byte	.LFB106
 10958 010c 3E000000 		.4byte	.LFE106-.LFB106
 10959 0110 00000000 		.4byte	.LFB107
 10960 0114 70000000 		.4byte	.LFE107-.LFB107
 10961 0118 00000000 		.4byte	.LFB108
 10962 011c 44000000 		.4byte	.LFE108-.LFB108
 10963 0120 00000000 		.4byte	.LFB109
 10964 0124 4A000000 		.4byte	.LFE109-.LFB109
 10965 0128 00000000 		.4byte	.LFB110
 10966 012c 3E000000 		.4byte	.LFE110-.LFB110
 10967 0130 00000000 		.4byte	.LFB111
 10968 0134 3E000000 		.4byte	.LFE111-.LFB111
 10969 0138 00000000 		.4byte	.LFB112
 10970 013c 3A000000 		.4byte	.LFE112-.LFB112
 10971 0140 00000000 		.4byte	.LFB113
 10972 0144 3A000000 		.4byte	.LFE113-.LFB113
 10973 0148 00000000 		.4byte	.LFB114
 10974 014c 3A000000 		.4byte	.LFE114-.LFB114
 10975 0150 00000000 		.4byte	.LFB115
 10976 0154 3A000000 		.4byte	.LFE115-.LFB115
 10977 0158 00000000 		.4byte	.LFB116
ARM GAS  C:\Users\Bruger\AppData\Local\Temp\ccjLt6bf.s 			page 207


 10978 015c 3A000000 		.4byte	.LFE116-.LFB116
 10979 0160 00000000 		.4byte	.LFB117
 10980 0164 3E000000 		.4byte	.LFE117-.LFB117
 10981 0168 00000000 		.4byte	.LFB118
 10982 016c 3A000000 		.4byte	.LFE118-.LFB118
 10983 0170 00000000 		.4byte	.LFB119
 10984 0174 6A000000 		.4byte	.LFE119-.LFB119
 10985 0178 00000000 		.4byte	.LFB120
 10986 017c 32000000 		.4byte	.LFE120-.LFB120
 10987 0180 00000000 		.4byte	.LFB121
 10988 0184 60000000 		.4byte	.LFE121-.LFB121
 10989 0188 00000000 		.4byte	.LFB122
 10990 018c 20000000 		.4byte	.LFE122-.LFB122
 10991 0190 00000000 		.4byte	.LFB123
 10992 0194 26000000 		.4byte	.LFE123-.LFB123
 10993 0198 00000000 		.4byte	.LFB124
 10994 019c 26000000 		.4byte	.LFE124-.LFB124
 10995 01a0 00000000 		.4byte	.LFB125
 10996 01a4 22000000 		.4byte	.LFE125-.LFB125
 10997 01a8 00000000 		.4byte	.LFB126
 10998 01ac 84000000 		.4byte	.LFE126-.LFB126
 10999 01b0 00000000 		.4byte	.LFB127
 11000 01b4 2E000000 		.4byte	.LFE127-.LFB127
 11001 01b8 00000000 		.4byte	.LFB128
 11002 01bc 5E000000 		.4byte	.LFE128-.LFB128
 11003 01c0 00000000 		.4byte	.LFB129
 11004 01c4 5A000000 		.4byte	.LFE129-.LFB129
 11005 01c8 00000000 		.4byte	.LFB130
 11006 01cc 1C000000 		.4byte	.LFE130-.LFB130
 11007 01d0 00000000 		.4byte	.LFB131
 11008 01d4 2E000000 		.4byte	.LFE131-.LFB131
 11009 01d8 00000000 		.4byte	.LFB132
 11010 01dc 40000000 		.4byte	.LFE132-.LFB132
 11011 01e0 00000000 		.4byte	.LFB133
 11012 01e4 36000000 		.4byte	.LFE133-.LFB133
 11013 01e8 00000000 		.4byte	.LFB134
 11014 01ec 6E000000 		.4byte	.LFE134-.LFB134
 11015 01f0 00000000 		.4byte	.LFB135
 11016 01f4 22000000 		.4byte	.LFE135-.LFB135
 11017 01f8 00000000 		.4byte	.LFB136
 11018 01fc 4E000000 		.4byte	.LFE136-.LFB136
 11019 0200 00000000 		.4byte	.LFB137
 11020 0204 1E000000 		.4byte	.LFE137-.LFB137
 11021 0208 00000000 		.4byte	.LFB138
 11022 020c 4E000000 		.4byte	.LFE138-.LFB138
 11023 0210 00000000 		.4byte	.LFB139
 11024 0214 28000000 		.4byte	.LFE139-.LFB139
 11025 0218 00000000 		.4byte	.LFB140
 11026 021c 74000000 		.4byte	.LFE140-.LFB140
 11027 0220 00000000 		.4byte	.LFB141
 11028 0224 28000000 		.4byte	.LFE141-.LFB141
 11029 0228 00000000 		.4byte	.LFB142
 11030 022c 9C000000 		.4byte	.LFE142-.LFB142
 11031 0230 00000000 		.4byte	.LFB143
 11032 0234 88000000 		.4byte	.LFE143-.LFB143
 11033 0238 00000000 		.4byte	.LFB144
 11034 023c 4A000000 		.4byte	.LFE144-.LFB144
ARM GAS  C:\Users\Bruger\AppData\Local\Temp\ccjLt6bf.s 			page 208


 11035 0240 00000000 		.4byte	.LFB145
 11036 0244 FC010000 		.4byte	.LFE145-.LFB145
 11037 0248 00000000 		.4byte	.LFB146
 11038 024c 1C000000 		.4byte	.LFE146-.LFB146
 11039 0250 00000000 		.4byte	.LFB147
 11040 0254 7E000000 		.4byte	.LFE147-.LFB147
 11041 0258 00000000 		.4byte	.LFB148
 11042 025c 40000000 		.4byte	.LFE148-.LFB148
 11043 0260 00000000 		.4byte	.LFB149
 11044 0264 40000000 		.4byte	.LFE149-.LFB149
 11045 0268 00000000 		.4byte	.LFB150
 11046 026c A6000000 		.4byte	.LFE150-.LFB150
 11047 0270 00000000 		.4byte	.LFB151
 11048 0274 28000000 		.4byte	.LFE151-.LFB151
 11049 0278 00000000 		.4byte	.LFB152
 11050 027c 36000000 		.4byte	.LFE152-.LFB152
 11051 0280 00000000 		.4byte	0
 11052 0284 00000000 		.4byte	0
 11053              		.section	.debug_ranges,"",%progbits
 11054              	.Ldebug_ranges0:
 11055 0000 00000000 		.4byte	.LFB52
 11056 0004 32000000 		.4byte	.LFE52
 11057 0008 00000000 		.4byte	.LFB55
 11058 000c 22000000 		.4byte	.LFE55
 11059 0010 00000000 		.4byte	.LFB58
 11060 0014 22000000 		.4byte	.LFE58
 11061 0018 00000000 		.4byte	.LFB61
 11062 001c 30000000 		.4byte	.LFE61
 11063 0020 00000000 		.4byte	.LFB64
 11064 0024 3E000000 		.4byte	.LFE64
 11065 0028 00000000 		.4byte	.LFB67
 11066 002c 3A000000 		.4byte	.LFE67
 11067 0030 00000000 		.4byte	.LFB70
 11068 0034 3A000000 		.4byte	.LFE70
 11069 0038 00000000 		.4byte	.LFB73
 11070 003c 3A000000 		.4byte	.LFE73
 11071 0040 00000000 		.4byte	.LFB76
 11072 0044 3A000000 		.4byte	.LFE76
 11073 0048 00000000 		.4byte	.LFB79
 11074 004c 46000000 		.4byte	.LFE79
 11075 0050 00000000 		.4byte	.LFB82
 11076 0054 46000000 		.4byte	.LFE82
 11077 0058 00000000 		.4byte	.LFB85
 11078 005c 1C000000 		.4byte	.LFE85
 11079 0060 00000000 		.4byte	.LFB87
 11080 0064 24000000 		.4byte	.LFE87
 11081 0068 00000000 		.4byte	.LFB88
 11082 006c 34000000 		.4byte	.LFE88
 11083 0070 00000000 		.4byte	.LFB89
 11084 0074 56000000 		.4byte	.LFE89
 11085 0078 00000000 		.4byte	.LFB90
 11086 007c 3C000000 		.4byte	.LFE90
 11087 0080 00000000 		.4byte	.LFB91
 11088 0084 4A000000 		.4byte	.LFE91
 11089 0088 00000000 		.4byte	.LFB92
 11090 008c 4A000000 		.4byte	.LFE92
 11091 0090 00000000 		.4byte	.LFB93
ARM GAS  C:\Users\Bruger\AppData\Local\Temp\ccjLt6bf.s 			page 209


 11092 0094 42000000 		.4byte	.LFE93
 11093 0098 00000000 		.4byte	.LFB94
 11094 009c 34000000 		.4byte	.LFE94
 11095 00a0 00000000 		.4byte	.LFB95
 11096 00a4 34000000 		.4byte	.LFE95
 11097 00a8 00000000 		.4byte	.LFB96
 11098 00ac 26000000 		.4byte	.LFE96
 11099 00b0 00000000 		.4byte	.LFB97
 11100 00b4 68000000 		.4byte	.LFE97
 11101 00b8 00000000 		.4byte	.LFB98
 11102 00bc 30000000 		.4byte	.LFE98
 11103 00c0 00000000 		.4byte	.LFB99
 11104 00c4 2C000000 		.4byte	.LFE99
 11105 00c8 00000000 		.4byte	.LFB100
 11106 00cc 3E000000 		.4byte	.LFE100
 11107 00d0 00000000 		.4byte	.LFB101
 11108 00d4 3A000000 		.4byte	.LFE101
 11109 00d8 00000000 		.4byte	.LFB102
 11110 00dc 3A000000 		.4byte	.LFE102
 11111 00e0 00000000 		.4byte	.LFB103
 11112 00e4 3A000000 		.4byte	.LFE103
 11113 00e8 00000000 		.4byte	.LFB104
 11114 00ec 3A000000 		.4byte	.LFE104
 11115 00f0 00000000 		.4byte	.LFB105
 11116 00f4 3E000000 		.4byte	.LFE105
 11117 00f8 00000000 		.4byte	.LFB106
 11118 00fc 3E000000 		.4byte	.LFE106
 11119 0100 00000000 		.4byte	.LFB107
 11120 0104 70000000 		.4byte	.LFE107
 11121 0108 00000000 		.4byte	.LFB108
 11122 010c 44000000 		.4byte	.LFE108
 11123 0110 00000000 		.4byte	.LFB109
 11124 0114 4A000000 		.4byte	.LFE109
 11125 0118 00000000 		.4byte	.LFB110
 11126 011c 3E000000 		.4byte	.LFE110
 11127 0120 00000000 		.4byte	.LFB111
 11128 0124 3E000000 		.4byte	.LFE111
 11129 0128 00000000 		.4byte	.LFB112
 11130 012c 3A000000 		.4byte	.LFE112
 11131 0130 00000000 		.4byte	.LFB113
 11132 0134 3A000000 		.4byte	.LFE113
 11133 0138 00000000 		.4byte	.LFB114
 11134 013c 3A000000 		.4byte	.LFE114
 11135 0140 00000000 		.4byte	.LFB115
 11136 0144 3A000000 		.4byte	.LFE115
 11137 0148 00000000 		.4byte	.LFB116
 11138 014c 3A000000 		.4byte	.LFE116
 11139 0150 00000000 		.4byte	.LFB117
 11140 0154 3E000000 		.4byte	.LFE117
 11141 0158 00000000 		.4byte	.LFB118
 11142 015c 3A000000 		.4byte	.LFE118
 11143 0160 00000000 		.4byte	.LFB119
 11144 0164 6A000000 		.4byte	.LFE119
 11145 0168 00000000 		.4byte	.LFB120
 11146 016c 32000000 		.4byte	.LFE120
 11147 0170 00000000 		.4byte	.LFB121
 11148 0174 60000000 		.4byte	.LFE121
ARM GAS  C:\Users\Bruger\AppData\Local\Temp\ccjLt6bf.s 			page 210


 11149 0178 00000000 		.4byte	.LFB122
 11150 017c 20000000 		.4byte	.LFE122
 11151 0180 00000000 		.4byte	.LFB123
 11152 0184 26000000 		.4byte	.LFE123
 11153 0188 00000000 		.4byte	.LFB124
 11154 018c 26000000 		.4byte	.LFE124
 11155 0190 00000000 		.4byte	.LFB125
 11156 0194 22000000 		.4byte	.LFE125
 11157 0198 00000000 		.4byte	.LFB126
 11158 019c 84000000 		.4byte	.LFE126
 11159 01a0 00000000 		.4byte	.LFB127
 11160 01a4 2E000000 		.4byte	.LFE127
 11161 01a8 00000000 		.4byte	.LFB128
 11162 01ac 5E000000 		.4byte	.LFE128
 11163 01b0 00000000 		.4byte	.LFB129
 11164 01b4 5A000000 		.4byte	.LFE129
 11165 01b8 00000000 		.4byte	.LFB130
 11166 01bc 1C000000 		.4byte	.LFE130
 11167 01c0 00000000 		.4byte	.LFB131
 11168 01c4 2E000000 		.4byte	.LFE131
 11169 01c8 00000000 		.4byte	.LFB132
 11170 01cc 40000000 		.4byte	.LFE132
 11171 01d0 00000000 		.4byte	.LFB133
 11172 01d4 36000000 		.4byte	.LFE133
 11173 01d8 00000000 		.4byte	.LFB134
 11174 01dc 6E000000 		.4byte	.LFE134
 11175 01e0 00000000 		.4byte	.LFB135
 11176 01e4 22000000 		.4byte	.LFE135
 11177 01e8 00000000 		.4byte	.LFB136
 11178 01ec 4E000000 		.4byte	.LFE136
 11179 01f0 00000000 		.4byte	.LFB137
 11180 01f4 1E000000 		.4byte	.LFE137
 11181 01f8 00000000 		.4byte	.LFB138
 11182 01fc 4E000000 		.4byte	.LFE138
 11183 0200 00000000 		.4byte	.LFB139
 11184 0204 28000000 		.4byte	.LFE139
 11185 0208 00000000 		.4byte	.LFB140
 11186 020c 74000000 		.4byte	.LFE140
 11187 0210 00000000 		.4byte	.LFB141
 11188 0214 28000000 		.4byte	.LFE141
 11189 0218 00000000 		.4byte	.LFB142
 11190 021c 9C000000 		.4byte	.LFE142
 11191 0220 00000000 		.4byte	.LFB143
 11192 0224 88000000 		.4byte	.LFE143
 11193 0228 00000000 		.4byte	.LFB144
 11194 022c 4A000000 		.4byte	.LFE144
 11195 0230 00000000 		.4byte	.LFB145
 11196 0234 FC010000 		.4byte	.LFE145
 11197 0238 00000000 		.4byte	.LFB146
 11198 023c 1C000000 		.4byte	.LFE146
 11199 0240 00000000 		.4byte	.LFB147
 11200 0244 7E000000 		.4byte	.LFE147
 11201 0248 00000000 		.4byte	.LFB148
 11202 024c 40000000 		.4byte	.LFE148
 11203 0250 00000000 		.4byte	.LFB149
 11204 0254 40000000 		.4byte	.LFE149
 11205 0258 00000000 		.4byte	.LFB150
ARM GAS  C:\Users\Bruger\AppData\Local\Temp\ccjLt6bf.s 			page 211


 11206 025c A6000000 		.4byte	.LFE150
 11207 0260 00000000 		.4byte	.LFB151
 11208 0264 28000000 		.4byte	.LFE151
 11209 0268 00000000 		.4byte	.LFB152
 11210 026c 36000000 		.4byte	.LFE152
 11211 0270 00000000 		.4byte	0
 11212 0274 00000000 		.4byte	0
 11213              		.section	.debug_line,"",%progbits
 11214              	.Ldebug_line0:
 11215 0000 47090000 		.section	.debug_str,"MS",%progbits,1
 11215      02004200 
 11215      00000201 
 11215      FB0E0D00 
 11215      01010101 
 11216              	.LASF182:
 11217 0000 72656164 		.ascii	"readFrom\000"
 11217      46726F6D 
 11217      00
 11218              	.LASF81:
 11219 0009 67657442 		.ascii	"getBytes\000"
 11219      79746573 
 11219      00
 11220              	.LASF134:
 11221 0012 63737472 		.ascii	"cstr\000"
 11221      00
 11222              	.LASF173:
 11223 0017 66726F6D 		.ascii	"fromIndex\000"
 11223      496E6465 
 11223      7800
 11224              	.LASF74:
 11225 0021 5F5A4E4B 		.ascii	"_ZNK6String8endsWithERKS_\000"
 11225      36537472 
 11225      696E6738 
 11225      656E6473 
 11225      57697468 
 11226              	.LASF160:
 11227 003b 5F5A706C 		.ascii	"_ZplRK15StringSumHelperc\000"
 11227      524B3135 
 11227      53747269 
 11227      6E675375 
 11227      6D48656C 
 11228              	.LASF167:
 11229 0054 5F5A706C 		.ascii	"_ZplRK15StringSumHelperd\000"
 11229      524B3135 
 11229      53747269 
 11229      6E675375 
 11229      6D48656C 
 11230              	.LASF166:
 11231 006d 5F5A706C 		.ascii	"_ZplRK15StringSumHelperf\000"
 11231      524B3135 
 11231      53747269 
 11231      6E675375 
 11231      6D48656C 
 11232              	.LASF161:
 11233 0086 5F5A706C 		.ascii	"_ZplRK15StringSumHelperh\000"
 11233      524B3135 
 11233      53747269 
ARM GAS  C:\Users\Bruger\AppData\Local\Temp\ccjLt6bf.s 			page 212


 11233      6E675375 
 11233      6D48656C 
 11234              	.LASF162:
 11235 009f 5F5A706C 		.ascii	"_ZplRK15StringSumHelperi\000"
 11235      524B3135 
 11235      53747269 
 11235      6E675375 
 11235      6D48656C 
 11236              	.LASF163:
 11237 00b8 5F5A706C 		.ascii	"_ZplRK15StringSumHelperj\000"
 11237      524B3135 
 11237      53747269 
 11237      6E675375 
 11237      6D48656C 
 11238              	.LASF104:
 11239 00d1 72656D6F 		.ascii	"remove\000"
 11239      766500
 11240              	.LASF165:
 11241 00d8 5F5A706C 		.ascii	"_ZplRK15StringSumHelperm\000"
 11241      524B3135 
 11241      53747269 
 11241      6E675375 
 11241      6D48656C 
 11242              	.LASF12:
 11243 00f1 63617061 		.ascii	"capacity\000"
 11243      63697479 
 11243      00
 11244              	.LASF13:
 11245 00fa 53747269 		.ascii	"String\000"
 11245      6E6700
 11246              	.LASF145:
 11247 0101 5F5A4E36 		.ascii	"_ZN6StringC2Elh\000"
 11247      53747269 
 11247      6E674332 
 11247      456C6800 
 11248              	.LASF11:
 11249 0111 62756666 		.ascii	"buffer\000"
 11249      657200
 11250              	.LASF36:
 11251 0118 5F5A4E36 		.ascii	"_ZN6StringpLERKS_\000"
 11251      53747269 
 11251      6E67704C 
 11251      45524B53 
 11251      5F00
 11252              	.LASF155:
 11253 012a 6E65776C 		.ascii	"newlen\000"
 11253      656E00
 11254              	.LASF18:
 11255 0131 5F5A4E4B 		.ascii	"_ZNK6String6lengthEv\000"
 11255      36537472 
 11255      696E6736 
 11255      6C656E67 
 11255      74684576 
 11256              	.LASF0:
 11257 0146 756E7369 		.ascii	"unsigned int\000"
 11257      676E6564 
 11257      20696E74 
ARM GAS  C:\Users\Bruger\AppData\Local\Temp\ccjLt6bf.s 			page 213


 11257      00
 11258              	.LASF72:
 11259 0153 5F5A4E4B 		.ascii	"_ZNK6String10startsWithERKS_j\000"
 11259      36537472 
 11259      696E6731 
 11259      30737461 
 11259      72747357 
 11260              	.LASF37:
 11261 0171 5F5A4E36 		.ascii	"_ZN6StringpLEPKc\000"
 11261      53747269 
 11261      6E67704C 
 11261      45504B63 
 11261      00
 11262              	.LASF188:
 11263 0182 636F7265 		.ascii	"core\\WString.cpp\000"
 11263      5C575374 
 11263      72696E67 
 11263      2E637070 
 11263      00
 11264              	.LASF76:
 11265 0193 5F5A4E4B 		.ascii	"_ZNK6String6charAtEj\000"
 11265      36537472 
 11265      696E6736 
 11265      63686172 
 11265      4174456A 
 11266              	.LASF146:
 11267 01a8 5F5A4E36 		.ascii	"_ZN6StringC2Emh\000"
 11267      53747269 
 11267      6E674332 
 11267      456D6800 
 11268              	.LASF59:
 11269 01b8 5F5A4E4B 		.ascii	"_ZNK6StringneEPKc\000"
 11269      36537472 
 11269      696E676E 
 11269      6545504B 
 11269      6300
 11270              	.LASF92:
 11271 01ca 5F5A4E4B 		.ascii	"_ZNK6String7indexOfERKS_j\000"
 11271      36537472 
 11271      696E6737 
 11271      696E6465 
 11271      784F6645 
 11272              	.LASF175:
 11273 01e4 666F756E 		.ascii	"found\000"
 11273      6400
 11274              	.LASF124:
 11275 01ea 636F7079 		.ascii	"copy\000"
 11275      00
 11276              	.LASF71:
 11277 01ef 5F5A4E4B 		.ascii	"_ZNK6String10startsWithERKS_\000"
 11277      36537472 
 11277      696E6731 
 11277      30737461 
 11277      72747357 
 11278              	.LASF52:
 11279 020c 5F5A4E4B 		.ascii	"_ZNK6String6equalsERKS_\000"
 11279      36537472 
ARM GAS  C:\Users\Bruger\AppData\Local\Temp\ccjLt6bf.s 			page 214


 11279      696E6736 
 11279      65717561 
 11279      6C734552 
 11280              	.LASF38:
 11281 0224 5F5A4E36 		.ascii	"_ZN6StringpLEc\000"
 11281      53747269 
 11281      6E67704C 
 11281      456300
 11282              	.LASF45:
 11283 0233 5F5A4E36 		.ascii	"_ZN6StringpLEd\000"
 11283      53747269 
 11283      6E67704C 
 11283      456400
 11284              	.LASF44:
 11285 0242 5F5A4E36 		.ascii	"_ZN6StringpLEf\000"
 11285      53747269 
 11285      6E67704C 
 11285      456600
 11286              	.LASF39:
 11287 0251 5F5A4E36 		.ascii	"_ZN6StringpLEh\000"
 11287      53747269 
 11287      6E67704C 
 11287      456800
 11288              	.LASF40:
 11289 0260 5F5A4E36 		.ascii	"_ZN6StringpLEi\000"
 11289      53747269 
 11289      6E67704C 
 11289      456900
 11290              	.LASF41:
 11291 026f 5F5A4E36 		.ascii	"_ZN6StringpLEj\000"
 11291      53747269 
 11291      6E67704C 
 11291      456A00
 11292              	.LASF42:
 11293 027e 5F5A4E36 		.ascii	"_ZN6StringpLEl\000"
 11293      53747269 
 11293      6E67704C 
 11293      456C00
 11294              	.LASF43:
 11295 028d 5F5A4E36 		.ascii	"_ZN6StringpLEm\000"
 11295      53747269 
 11295      6E67704C 
 11295      456D00
 11296              	.LASF129:
 11297 029c 666C6F61 		.ascii	"float\000"
 11297      7400
 11298              	.LASF154:
 11299 02a2 6E657762 		.ascii	"newbuffer\000"
 11299      75666665 
 11299      7200
 11300              	.LASF141:
 11301 02ac 62617365 		.ascii	"base\000"
 11301      00
 11302              	.LASF96:
 11303 02b1 5F5A4E4B 		.ascii	"_ZNK6String11lastIndexOfERKS_\000"
 11303      36537472 
 11303      696E6731 
ARM GAS  C:\Users\Bruger\AppData\Local\Temp\ccjLt6bf.s 			page 215


 11303      316C6173 
 11303      74496E64 
 11304              	.LASF170:
 11305 02cf 696E6465 		.ascii	"index\000"
 11305      7800
 11306              	.LASF137:
 11307 02d5 5F5A4E36 		.ascii	"_ZN6StringC2ERKS_\000"
 11307      53747269 
 11307      6E674332 
 11307      45524B53 
 11307      5F00
 11308              	.LASF77:
 11309 02e7 73657443 		.ascii	"setCharAt\000"
 11309      68617241 
 11309      7400
 11310              	.LASF8:
 11311 02f1 6C6F6E67 		.ascii	"long long unsigned int\000"
 11311      206C6F6E 
 11311      6720756E 
 11311      7369676E 
 11311      65642069 
 11312              	.LASF164:
 11313 0308 5F5A706C 		.ascii	"_ZplRK15StringSumHelperl\000"
 11313      524B3135 
 11313      53747269 
 11313      6E675375 
 11313      6D48656C 
 11314              	.LASF14:
 11315 0321 7E537472 		.ascii	"~String\000"
 11315      696E6700 
 11316              	.LASF176:
 11317 0329 74686543 		.ascii	"theChar\000"
 11317      68617200 
 11318              	.LASF135:
 11319 0331 76616C75 		.ascii	"value\000"
 11319      6500
 11320              	.LASF183:
 11321 0337 666F756E 		.ascii	"foundAt\000"
 11321      64417400 
 11322              	.LASF103:
 11323 033f 5F5A4E36 		.ascii	"_ZN6String7replaceERKS_S1_\000"
 11323      53747269 
 11323      6E673772 
 11323      65706C61 
 11323      63654552 
 11324              	.LASF119:
 11325 035a 696E7661 		.ascii	"invalidate\000"
 11325      6C696461 
 11325      746500
 11326              	.LASF70:
 11327 0365 73746172 		.ascii	"startsWith\000"
 11327      74735769 
 11327      746800
 11328              	.LASF82:
 11329 0370 5F5A4E36 		.ascii	"_ZN6String9setCharAtEjc\000"
 11329      53747269 
 11329      6E673973 
ARM GAS  C:\Users\Bruger\AppData\Local\Temp\ccjLt6bf.s 			page 216


 11329      65744368 
 11329      61724174 
 11330              	.LASF169:
 11331 0388 6F666673 		.ascii	"offset\000"
 11331      657400
 11332              	.LASF89:
 11333 038f 5F5A4E4B 		.ascii	"_ZNK6String7indexOfEc\000"
 11333      36537472 
 11333      696E6737 
 11333      696E6465 
 11333      784F6645 
 11334              	.LASF159:
 11335 03a5 5F5A706C 		.ascii	"_ZplRK15StringSumHelperPKc\000"
 11335      524B3135 
 11335      53747269 
 11335      6E675375 
 11335      6D48656C 
 11336              	.LASF95:
 11337 03c0 5F5A4E4B 		.ascii	"_ZNK6String11lastIndexOfEcj\000"
 11337      36537472 
 11337      696E6731 
 11337      316C6173 
 11337      74496E64 
 11338              	.LASF106:
 11339 03dc 5F5A4E36 		.ascii	"_ZN6String6removeEjj\000"
 11339      53747269 
 11339      6E673672 
 11339      656D6F76 
 11339      65456A6A 
 11340              	.LASF180:
 11341 03f1 66696E64 		.ascii	"find\000"
 11341      00
 11342              	.LASF22:
 11343 03f6 5F5A4E36 		.ascii	"_ZN6StringaSEPK19__FlashStringHelper\000"
 11343      53747269 
 11343      6E676153 
 11343      45504B31 
 11343      395F5F46 
 11344              	.LASF139:
 11345 041b 5F5A4E36 		.ascii	"_ZN6StringC2EPK19__FlashStringHelper\000"
 11345      53747269 
 11345      6E674332 
 11345      45504B31 
 11345      395F5F46 
 11346              	.LASF17:
 11347 0440 5F5A4E36 		.ascii	"_ZN6String7reserveEj\000"
 11347      53747269 
 11347      6E673772 
 11347      65736572 
 11347      7665456A 
 11348              	.LASF97:
 11349 0455 5F5A4E4B 		.ascii	"_ZNK6String11lastIndexOfERKS_j\000"
 11349      36537472 
 11349      696E6731 
 11349      316C6173 
 11349      74496E64 
 11350              	.LASF185:
ARM GAS  C:\Users\Bruger\AppData\Local\Temp\ccjLt6bf.s 			page 217


 11351 0474 636F756E 		.ascii	"count\000"
 11351      7400
 11352              	.LASF51:
 11353 047a 65717561 		.ascii	"equals\000"
 11353      6C7300
 11354              	.LASF35:
 11355 0481 6F706572 		.ascii	"operator+=\000"
 11355      61746F72 
 11355      2B3D00
 11356              	.LASF123:
 11357 048c 5F5A4E36 		.ascii	"_ZN6String6concatEPKcj\000"
 11357      53747269 
 11357      6E673663 
 11357      6F6E6361 
 11357      7445504B 
 11358              	.LASF116:
 11359 04a3 5F5A4E4B 		.ascii	"_ZNK6String7toFloatEv\000"
 11359      36537472 
 11359      696E6737 
 11359      746F466C 
 11359      6F617445 
 11360              	.LASF10:
 11361 04b9 63686172 		.ascii	"char\000"
 11361      00
 11362              	.LASF15:
 11363 04be 72657365 		.ascii	"reserve\000"
 11363      72766500 
 11364              	.LASF46:
 11365 04c6 5F5A4E36 		.ascii	"_ZN6StringpLEPK19__FlashStringHelper\000"
 11365      53747269 
 11365      6E67704C 
 11365      45504B31 
 11365      395F5F46 
 11366              	.LASF131:
 11367 04eb 53747269 		.ascii	"StringSumHelper\000"
 11367      6E675375 
 11367      6D48656C 
 11367      70657200 
 11368              	.LASF156:
 11369 04fb 73747269 		.ascii	"string\000"
 11369      6E6700
 11370              	.LASF121:
 11371 0502 6368616E 		.ascii	"changeBuffer\000"
 11371      67654275 
 11371      66666572 
 11371      00
 11372              	.LASF118:
 11373 050f 5F5A4E36 		.ascii	"_ZN6String4initEv\000"
 11373      53747269 
 11373      6E673469 
 11373      6E697445 
 11373      7600
 11374              	.LASF65:
 11375 0521 5F5A4E4B 		.ascii	"_ZNK6StringleERKS_\000"
 11375      36537472 
 11375      696E676C 
 11375      6545524B 
ARM GAS  C:\Users\Bruger\AppData\Local\Temp\ccjLt6bf.s 			page 218


 11375      535F00
 11376              	.LASF99:
 11377 0534 5F5A4E4B 		.ascii	"_ZNK6String9substringEj\000"
 11377      36537472 
 11377      696E6739 
 11377      73756273 
 11377      7472696E 
 11378              	.LASF110:
 11379 054c 5F5A4E36 		.ascii	"_ZN6String11toUpperCaseEv\000"
 11379      53747269 
 11379      6E673131 
 11379      746F5570 
 11379      70657243 
 11380              	.LASF73:
 11381 0566 656E6473 		.ascii	"endsWith\000"
 11381      57697468 
 11381      00
 11382              	.LASF147:
 11383 056f 64656369 		.ascii	"decimalPlaces\000"
 11383      6D616C50 
 11383      6C616365 
 11383      7300
 11384              	.LASF83:
 11385 057d 5F5A4E4B 		.ascii	"_ZNK6String8getBytesEPhjj\000"
 11385      36537472 
 11385      696E6738 
 11385      67657442 
 11385      79746573 
 11386              	.LASF47:
 11387 0597 6F706572 		.ascii	"operator String::StringIfHelperType\000"
 11387      61746F72 
 11387      20537472 
 11387      696E673A 
 11387      3A537472 
 11388              	.LASF179:
 11389 05bb 72696768 		.ascii	"right\000"
 11389      7400
 11390              	.LASF172:
 11391 05c1 62756673 		.ascii	"bufsize\000"
 11391      697A6500 
 11392              	.LASF24:
 11393 05c9 5F5A4E36 		.ascii	"_ZN6String6concatERKS_\000"
 11393      53747269 
 11393      6E673663 
 11393      6F6E6361 
 11393      7445524B 
 11394              	.LASF7:
 11395 05e0 6C6F6E67 		.ascii	"long long int\000"
 11395      206C6F6E 
 11395      6720696E 
 11395      7400
 11396              	.LASF144:
 11397 05ee 5F5A4E36 		.ascii	"_ZN6StringC2Ejh\000"
 11397      53747269 
 11397      6E674332 
 11397      456A6800 
 11398              	.LASF158:
ARM GAS  C:\Users\Bruger\AppData\Local\Temp\ccjLt6bf.s 			page 219


 11399 05fe 5F5A706C 		.ascii	"_ZplRK15StringSumHelperRK6String\000"
 11399      524B3135 
 11399      53747269 
 11399      6E675375 
 11399      6D48656C 
 11400              	.LASF120:
 11401 061f 5F5A4E36 		.ascii	"_ZN6String10invalidateEv\000"
 11401      53747269 
 11401      6E673130 
 11401      696E7661 
 11401      6C696461 
 11402              	.LASF21:
 11403 0638 5F5A4E36 		.ascii	"_ZN6StringaSEPKc\000"
 11403      53747269 
 11403      6E676153 
 11403      45504B63 
 11403      00
 11404              	.LASF101:
 11405 0649 7265706C 		.ascii	"replace\000"
 11405      61636500 
 11406              	.LASF64:
 11407 0651 6F706572 		.ascii	"operator<=\000"
 11407      61746F72 
 11407      3C3D00
 11408              	.LASF56:
 11409 065c 5F5A4E4B 		.ascii	"_ZNK6StringeqEPKc\000"
 11409      36537472 
 11409      696E6765 
 11409      7145504B 
 11409      6300
 11410              	.LASF151:
 11411 066e 5F5A4E36 		.ascii	"_ZN6StringD2Ev\000"
 11411      53747269 
 11411      6E674432 
 11411      457600
 11412              	.LASF138:
 11413 067d 70737472 		.ascii	"pstr\000"
 11413      00
 11414              	.LASF149:
 11415 0682 5F5A4E36 		.ascii	"_ZN6StringC2Edh\000"
 11415      53747269 
 11415      6E674332 
 11415      45646800 
 11416              	.LASF157:
 11417 0692 6F706572 		.ascii	"operator+\000"
 11417      61746F72 
 11417      2B00
 11418              	.LASF53:
 11419 069c 5F5A4E4B 		.ascii	"_ZNK6String6equalsEPKc\000"
 11419      36537472 
 11419      696E6736 
 11419      65717561 
 11419      6C734550 
 11420              	.LASF191:
 11421 06b3 5F5A4E4B 		.ascii	"_ZNK6String14StringIfHelperEv\000"
 11421      36537472 
 11421      696E6731 
ARM GAS  C:\Users\Bruger\AppData\Local\Temp\ccjLt6bf.s 			page 220


 11421      34537472 
 11421      696E6749 
 11422              	.LASF60:
 11423 06d1 6F706572 		.ascii	"operator<\000"
 11423      61746F72 
 11423      3C00
 11424              	.LASF19:
 11425 06db 6F706572 		.ascii	"operator=\000"
 11425      61746F72 
 11425      3D00
 11426              	.LASF62:
 11427 06e5 6F706572 		.ascii	"operator>\000"
 11427      61746F72 
 11427      3E00
 11428              	.LASF152:
 11429 06ef 73697A65 		.ascii	"size\000"
 11429      00
 11430              	.LASF58:
 11431 06f4 5F5A4E4B 		.ascii	"_ZNK6StringneERKS_\000"
 11431      36537472 
 11431      696E676E 
 11431      6545524B 
 11431      535F00
 11432              	.LASF122:
 11433 0707 5F5A4E36 		.ascii	"_ZN6String12changeBufferEj\000"
 11433      53747269 
 11433      6E673132 
 11433      6368616E 
 11433      67654275 
 11434              	.LASF54:
 11435 0722 6F706572 		.ascii	"operator==\000"
 11435      61746F72 
 11435      3D3D00
 11436              	.LASF126:
 11437 072d 5F5A4E36 		.ascii	"_ZN6String4copyEPK19__FlashStringHelperj\000"
 11437      53747269 
 11437      6E673463 
 11437      6F707945 
 11437      504B3139 
 11438              	.LASF61:
 11439 0756 5F5A4E4B 		.ascii	"_ZNK6StringltERKS_\000"
 11439      36537472 
 11439      696E676C 
 11439      7445524B 
 11439      535F00
 11440              	.LASF86:
 11441 0769 635F7374 		.ascii	"c_str\000"
 11441      7200
 11442              	.LASF90:
 11443 076f 5F5A4E4B 		.ascii	"_ZNK6String7indexOfEcj\000"
 11443      36537472 
 11443      696E6737 
 11443      696E6465 
 11443      784F6645 
 11444              	.LASF111:
 11445 0786 7472696D 		.ascii	"trim\000"
 11445      00
ARM GAS  C:\Users\Bruger\AppData\Local\Temp\ccjLt6bf.s 			page 221


 11446              	.LASF26:
 11447 078b 5F5A4E36 		.ascii	"_ZN6String6concatEc\000"
 11447      53747269 
 11447      6E673663 
 11447      6F6E6361 
 11447      74456300 
 11448              	.LASF33:
 11449 079f 5F5A4E36 		.ascii	"_ZN6String6concatEd\000"
 11449      53747269 
 11449      6E673663 
 11449      6F6E6361 
 11449      74456400 
 11450              	.LASF32:
 11451 07b3 5F5A4E36 		.ascii	"_ZN6String6concatEf\000"
 11451      53747269 
 11451      6E673663 
 11451      6F6E6361 
 11451      74456600 
 11452              	.LASF27:
 11453 07c7 5F5A4E36 		.ascii	"_ZN6String6concatEh\000"
 11453      53747269 
 11453      6E673663 
 11453      6F6E6361 
 11453      74456800 
 11454              	.LASF28:
 11455 07db 5F5A4E36 		.ascii	"_ZN6String6concatEi\000"
 11455      53747269 
 11455      6E673663 
 11455      6F6E6361 
 11455      74456900 
 11456              	.LASF29:
 11457 07ef 5F5A4E36 		.ascii	"_ZN6String6concatEj\000"
 11457      53747269 
 11457      6E673663 
 11457      6F6E6361 
 11457      74456A00 
 11458              	.LASF30:
 11459 0803 5F5A4E36 		.ascii	"_ZN6String6concatEl\000"
 11459      53747269 
 11459      6E673663 
 11459      6F6E6361 
 11459      74456C00 
 11460              	.LASF31:
 11461 0817 5F5A4E36 		.ascii	"_ZN6String6concatEm\000"
 11461      53747269 
 11461      6E673663 
 11461      6F6E6361 
 11461      74456D00 
 11462              	.LASF80:
 11463 082b 5F5A4E36 		.ascii	"_ZN6StringixEj\000"
 11463      53747269 
 11463      6E676978 
 11463      456A00
 11464              	.LASF190:
 11465 083a 53747269 		.ascii	"StringIfHelperType\000"
 11465      6E674966 
 11465      48656C70 
ARM GAS  C:\Users\Bruger\AppData\Local\Temp\ccjLt6bf.s 			page 222


 11465      65725479 
 11465      706500
 11466              	.LASF168:
 11467 084d 5F5A706C 		.ascii	"_ZplRK15StringSumHelperPK19__FlashStringHelper\000"
 11467      524B3135 
 11467      53747269 
 11467      6E675375 
 11467      6D48656C 
 11468              	.LASF133:
 11469 087c 74686973 		.ascii	"this\000"
 11469      00
 11470              	.LASF87:
 11471 0881 5F5A4E4B 		.ascii	"_ZNK6String5c_strEv\000"
 11471      36537472 
 11471      696E6735 
 11471      635F7374 
 11471      72457600 
 11472              	.LASF66:
 11473 0895 6F706572 		.ascii	"operator>=\000"
 11473      61746F72 
 11473      3E3D00
 11474              	.LASF68:
 11475 08a0 65717561 		.ascii	"equalsIgnoreCase\000"
 11475      6C734967 
 11475      6E6F7265 
 11475      43617365 
 11475      00
 11476              	.LASF148:
 11477 08b1 5F5A4E36 		.ascii	"_ZN6StringC2Efh\000"
 11477      53747269 
 11477      6E674332 
 11477      45666800 
 11478              	.LASF177:
 11479 08c1 74656D70 		.ascii	"tempchar\000"
 11479      63686172 
 11479      00
 11480              	.LASF3:
 11481 08ca 73686F72 		.ascii	"short int\000"
 11481      7420696E 
 11481      7400
 11482              	.LASF91:
 11483 08d4 5F5A4E4B 		.ascii	"_ZNK6String7indexOfERKS_\000"
 11483      36537472 
 11483      696E6737 
 11483      696E6465 
 11483      784F6645 
 11484              	.LASF142:
 11485 08ed 5F5A4E36 		.ascii	"_ZN6StringC2Ehh\000"
 11485      53747269 
 11485      6E674332 
 11485      45686800 
 11486              	.LASF107:
 11487 08fd 746F4C6F 		.ascii	"toLowerCase\000"
 11487      77657243 
 11487      61736500 
 11488              	.LASF5:
 11489 0909 6C6F6E67 		.ascii	"long int\000"
ARM GAS  C:\Users\Bruger\AppData\Local\Temp\ccjLt6bf.s 			page 223


 11489      20696E74 
 11489      00
 11490              	.LASF109:
 11491 0912 746F5570 		.ascii	"toUpperCase\000"
 11491      70657243 
 11491      61736500 
 11492              	.LASF16:
 11493 091e 6C656E67 		.ascii	"length\000"
 11493      746800
 11494              	.LASF187:
 11495 0925 474E5520 		.ascii	"GNU C++ 4.9.3 20150303 (release) [ARM/embedded-4_9-"
 11495      432B2B20 
 11495      342E392E 
 11495      33203230 
 11495      31353033 
 11496 0958 6272616E 		.ascii	"branch revision 221220] -mcpu=cortex-m3 -mthumb -g "
 11496      63682072 
 11496      65766973 
 11496      696F6E20 
 11496      32323132 
 11497 098b 2D4F3020 		.ascii	"-O0 -ffunction-sections -ffat-lto-objects\000"
 11497      2D666675 
 11497      6E637469 
 11497      6F6E2D73 
 11497      65637469 
 11498              	.LASF181:
 11499 09b5 64696666 		.ascii	"diff\000"
 11499      00
 11500              	.LASF174:
 11501 09ba 74656D70 		.ascii	"temp\000"
 11501      00
 11502              	.LASF78:
 11503 09bf 6F706572 		.ascii	"operator[]\000"
 11503      61746F72 
 11503      5B5D00
 11504              	.LASF67:
 11505 09ca 5F5A4E4B 		.ascii	"_ZNK6StringgeERKS_\000"
 11505      36537472 
 11505      696E6767 
 11505      6545524B 
 11505      535F00
 11506              	.LASF69:
 11507 09dd 5F5A4E4B 		.ascii	"_ZNK6String16equalsIgnoreCaseERKS_\000"
 11507      36537472 
 11507      696E6731 
 11507      36657175 
 11507      616C7349 
 11508              	.LASF113:
 11509 0a00 746F496E 		.ascii	"toInt\000"
 11509      7400
 11510              	.LASF57:
 11511 0a06 6F706572 		.ascii	"operator!=\000"
 11511      61746F72 
 11511      213D00
 11512              	.LASF178:
 11513 0a11 6C656674 		.ascii	"left\000"
 11513      00
ARM GAS  C:\Users\Bruger\AppData\Local\Temp\ccjLt6bf.s 			page 224


 11514              	.LASF79:
 11515 0a16 5F5A4E4B 		.ascii	"_ZNK6StringixEj\000"
 11515      36537472 
 11515      696E6769 
 11515      78456A00 
 11516              	.LASF75:
 11517 0a26 63686172 		.ascii	"charAt\000"
 11517      417400
 11518              	.LASF50:
 11519 0a2d 5F5A4E4B 		.ascii	"_ZNK6String9compareToERKS_\000"
 11519      36537472 
 11519      696E6739 
 11519      636F6D70 
 11519      61726554 
 11520              	.LASF150:
 11521 0a48 5F5F696E 		.ascii	"__in_chrg\000"
 11521      5F636872 
 11521      6700
 11522              	.LASF48:
 11523 0a52 5F5A4E4B 		.ascii	"_ZNK6StringcvMS_KFvvEEv\000"
 11523      36537472 
 11523      696E6763 
 11523      764D535F 
 11523      4B467676 
 11524              	.LASF34:
 11525 0a6a 5F5A4E36 		.ascii	"_ZN6String6concatEPK19__FlashStringHelper\000"
 11525      53747269 
 11525      6E673663 
 11525      6F6E6361 
 11525      7445504B 
 11526              	.LASF63:
 11527 0a94 5F5A4E4B 		.ascii	"_ZNK6StringgtERKS_\000"
 11527      36537472 
 11527      696E6767 
 11527      7445524B 
 11527      535F00
 11528              	.LASF102:
 11529 0aa7 5F5A4E36 		.ascii	"_ZN6String7replaceEcc\000"
 11529      53747269 
 11529      6E673772 
 11529      65706C61 
 11529      63654563 
 11530              	.LASF117:
 11531 0abd 696E6974 		.ascii	"init\000"
 11531      00
 11532              	.LASF9:
 11533 0ac2 73697A65 		.ascii	"sizetype\000"
 11533      74797065 
 11533      00
 11534              	.LASF6:
 11535 0acb 6C6F6E67 		.ascii	"long unsigned int\000"
 11535      20756E73 
 11535      69676E65 
 11535      6420696E 
 11535      7400
 11536              	.LASF115:
 11537 0add 746F466C 		.ascii	"toFloat\000"
ARM GAS  C:\Users\Bruger\AppData\Local\Temp\ccjLt6bf.s 			page 225


 11537      6F617400 
 11538              	.LASF114:
 11539 0ae5 5F5A4E4B 		.ascii	"_ZNK6String5toIntEv\000"
 11539      36537472 
 11539      696E6735 
 11539      746F496E 
 11539      74457600 
 11540              	.LASF189:
 11541 0af9 433A5C55 		.ascii	"C:\\Users\\Bruger\\Desktop\\CODE\\PSOC5\\CY8CKIT-59"
 11541      73657273 
 11541      5C427275 
 11541      6765725C 
 11541      4465736B 
 11542 0b26 2D417264 		.ascii	"-Arduino\\CY8CKIT59_Ardudino-Speeduino.cydsn\000"
 11542      75696E6F 
 11542      5C435938 
 11542      434B4954 
 11542      35395F41 
 11543              	.LASF125:
 11544 0b52 5F5A4E36 		.ascii	"_ZN6String4copyEPKcj\000"
 11544      53747269 
 11544      6E673463 
 11544      6F707945 
 11544      504B636A 
 11545              	.LASF132:
 11546 0b67 53747269 		.ascii	"StringIfHelper\000"
 11546      6E674966 
 11546      48656C70 
 11546      657200
 11547              	.LASF108:
 11548 0b76 5F5A4E36 		.ascii	"_ZN6String11toLowerCaseEv\000"
 11548      53747269 
 11548      6E673131 
 11548      746F4C6F 
 11548      77657243 
 11549              	.LASF85:
 11550 0b90 5F5A4E4B 		.ascii	"_ZNK6String11toCharArrayEPcjj\000"
 11550      36537472 
 11550      696E6731 
 11550      31746F43 
 11550      68617241 
 11551              	.LASF100:
 11552 0bae 5F5A4E4B 		.ascii	"_ZNK6String9substringEjj\000"
 11552      36537472 
 11552      696E6739 
 11552      73756273 
 11552      7472696E 
 11553              	.LASF105:
 11554 0bc7 5F5A4E36 		.ascii	"_ZN6String6removeEj\000"
 11554      53747269 
 11554      6E673672 
 11554      656D6F76 
 11554      65456A00 
 11555              	.LASF2:
 11556 0bdb 756E7369 		.ascii	"unsigned char\000"
 11556      676E6564 
 11556      20636861 
ARM GAS  C:\Users\Bruger\AppData\Local\Temp\ccjLt6bf.s 			page 226


 11556      7200
 11557              	.LASF55:
 11558 0be9 5F5A4E4B 		.ascii	"_ZNK6StringeqERKS_\000"
 11558      36537472 
 11558      696E6765 
 11558      7145524B 
 11558      535F00
 11559              	.LASF93:
 11560 0bfc 6C617374 		.ascii	"lastIndexOf\000"
 11560      496E6465 
 11560      784F6600 
 11561              	.LASF143:
 11562 0c08 5F5A4E36 		.ascii	"_ZN6StringC2Eih\000"
 11562      53747269 
 11562      6E674332 
 11562      45696800 
 11563              	.LASF94:
 11564 0c18 5F5A4E4B 		.ascii	"_ZNK6String11lastIndexOfEc\000"
 11564      36537472 
 11564      696E6731 
 11564      316C6173 
 11564      74496E64 
 11565              	.LASF153:
 11566 0c33 6D617853 		.ascii	"maxStrLen\000"
 11566      74724C65 
 11566      6E00
 11567              	.LASF127:
 11568 0c3d 5F5F7066 		.ascii	"__pfn\000"
 11568      6E00
 11569              	.LASF184:
 11570 0c43 77726974 		.ascii	"writeTo\000"
 11570      65546F00 
 11571              	.LASF128:
 11572 0c4b 5F5F6465 		.ascii	"__delta\000"
 11572      6C746100 
 11573              	.LASF1:
 11574 0c53 7369676E 		.ascii	"signed char\000"
 11574      65642063 
 11574      68617200 
 11575              	.LASF192:
 11576 0c5f 5F5F466C 		.ascii	"__FlashStringHelper\000"
 11576      61736853 
 11576      7472696E 
 11576      6748656C 
 11576      70657200 
 11577              	.LASF136:
 11578 0c73 5F5A4E36 		.ascii	"_ZN6StringC2EPKc\000"
 11578      53747269 
 11578      6E674332 
 11578      45504B63 
 11578      00
 11579              	.LASF4:
 11580 0c84 73686F72 		.ascii	"short unsigned int\000"
 11580      7420756E 
 11580      7369676E 
 11580      65642069 
 11580      6E7400
ARM GAS  C:\Users\Bruger\AppData\Local\Temp\ccjLt6bf.s 			page 227


 11581              	.LASF186:
 11582 0c97 62656769 		.ascii	"begin\000"
 11582      6E00
 11583              	.LASF140:
 11584 0c9d 5F5A4E36 		.ascii	"_ZN6StringC2Ec\000"
 11584      53747269 
 11584      6E674332 
 11584      456300
 11585              	.LASF88:
 11586 0cac 696E6465 		.ascii	"indexOf\000"
 11586      784F6600 
 11587              	.LASF84:
 11588 0cb4 746F4368 		.ascii	"toCharArray\000"
 11588      61724172 
 11588      72617900 
 11589              	.LASF49:
 11590 0cc0 636F6D70 		.ascii	"compareTo\000"
 11590      61726554 
 11590      6F00
 11591              	.LASF98:
 11592 0cca 73756273 		.ascii	"substring\000"
 11592      7472696E 
 11592      6700
 11593              	.LASF130:
 11594 0cd4 646F7562 		.ascii	"double\000"
 11594      6C6500
 11595              	.LASF25:
 11596 0cdb 5F5A4E36 		.ascii	"_ZN6String6concatEPKc\000"
 11596      53747269 
 11596      6E673663 
 11596      6F6E6361 
 11596      7445504B 
 11597              	.LASF23:
 11598 0cf1 636F6E63 		.ascii	"concat\000"
 11598      617400
 11599              	.LASF171:
 11600 0cf8 64756D6D 		.ascii	"dummy_writable_char\000"
 11600      795F7772 
 11600      69746162 
 11600      6C655F63 
 11600      68617200 
 11601              	.LASF20:
 11602 0d0c 5F5A4E36 		.ascii	"_ZN6StringaSERKS_\000"
 11602      53747269 
 11602      6E676153 
 11602      45524B53 
 11602      5F00
 11603              	.LASF112:
 11604 0d1e 5F5A4E36 		.ascii	"_ZN6String4trimEv\000"
 11604      53747269 
 11604      6E673474 
 11604      72696D45 
 11604      7600
 11605              		.ident	"GCC: (GNU Tools for ARM Embedded Processors) 4.9.3 20150303 (release) [ARM/embedded-4_9-br
