ARM GAS  C:\Users\Bruger\AppData\Local\Temp\ccuF8sQp.s 			page 1


   1              		.syntax unified
   2              		.cpu cortex-m3
   3              		.fpu softvfp
   4              		.eabi_attribute 20, 1
   5              		.eabi_attribute 21, 1
   6              		.eabi_attribute 23, 3
   7              		.eabi_attribute 24, 1
   8              		.eabi_attribute 25, 1
   9              		.eabi_attribute 26, 1
  10              		.eabi_attribute 30, 2
  11              		.eabi_attribute 34, 1
  12              		.eabi_attribute 18, 4
  13              		.thumb
  14              		.file	"ADC_PM.c"
  15              		.text
  16              	.Ltext0:
  17              		.section	.gnu.lto_.profile.24bfaa8b,"",%progbits
  18 0000 789C6366 		.ascii	"x\234cf```a\200\000F\206\000Y\000\0011\000v"
  18      60606061 
  18      80004686 
  18      00590001 
  18      310076
  19              		.text
  20              		.section	.gnu.lto_.jmpfuncs.24bfaa8b,"",%progbits
  21 0000 789C6366 		.ascii	"x\234cf\300\016$\2414\033\210`\002bf\020\203\005\210"
  21      C00E24A1 
  21      341B8860 
  21      02626610 
  21      830588
  22 0013 59218200 		.ascii	"Y!\202\000\005r\0007"
  22      05720037 
  23              		.text
  24              		.section	.gnu.lto_.inline.24bfaa8b,"",%progbits
  25 0000 789C6366 		.ascii	"x\234cf\300\016\272\2414\033\003\003\227 #\003\023\317"
  25      C00EBAA1 
  25      341B0303 
  25      97202303 
  25      13CF
  26 0012 043F06B6 		.ascii	"\004?\006\266\005\362L 1F. \301\304\300\311\003\024"
  26      05F24C20 
  26      31462E20 
  26      C1C4C0C9 
  26      0314
  27 0024 E75AE186 		.ascii	"\347Z\341\206*\316\314\300)\002\024\3478`\207*\016&"
  27      2ACECCC0 
  27      290214E7 
  27      3860872A 
  27      0E26
  28 0036 5818D839 		.ascii	"X\030\3309\201\222l\037\364P%Y\031\230\231\200\342 "
  28      81926C1F 
  28      F4502559 
  28      19989980 
  28      E220
  29 0048 FBA0C26C 		.ascii	"\373\240\302l\030\"\014\0000b\012\017"
  29      18220C00 
  29      30620A0F 
  30              		.text
ARM GAS  C:\Users\Bruger\AppData\Local\Temp\ccuF8sQp.s 			page 2


  31              		.section	.gnu.lto_.pureconst.24bfaa8b,"",%progbits
  32 0000 789C6366 		.ascii	"x\234cf``\340e\200\0006\006)&)f\011\026\011V \023\000"
  32      6060E065 
  32      80003606 
  32      29262966 
  32      09160956 
  33 0017 054F008F 		.ascii	"\005O\000\217"
  34              		.text
  35              		.section	.gnu.lto_ADC_Sleep.part.0.24bfaa8b,"",%progbits
  36 0000 789C8551 		.ascii	"x\234\205QMHTQ\024>\337y\277\245P\264\022WQ\213YY\253"
  36      4D485451 
  36      143EDF79 
  36      BFA550B4 
  36      1257518B 
  37 0017 36EDC2C0 		.ascii	"6\355\302\300U$\270\025$l\240\225\202\324r\360\276f"
  37      5524B815 
  37      246CA095 
  37      82D472F0 
  37      BE66
  38 0029 8A21225D 		.ascii	"\212!\"]\024D:\005Af\21696\375H\264yE\340\256\220\210"
  38      14443A05 
  38      41668E39 
  38      36FD48B4 
  38      7945E0AE 
  39 003f 48243733 		.ascii	"H$73e\2554k\352\021j\347\334\247\030\006u\341\335s\356"
  39      65AD346B 
  39      EA116AE7 
  39      DCA71806 
  39      75E1DD73 
  40 0054 BDDFF9BE 		.ascii	"\275\337\371\276\357\235\343\320\337\353\244|g\230\350"
  40      EF9DE3D0 
  40      DFEBA47C 
  40      6798E8
  41 0063 80448484 		.ascii	"\200D\204\204`\370\225$\001\330Ff\247\230!\263\333\325"
  41      60F89524 
  41      01D84666 
  41      A79821B3 
  41      DBD5
  42 0075 BDD981A7 		.ascii	"\275\331\201\247\267Q\350n%\036\3744\361\001M\0104\030"
  42      B751E86E 
  42      251EFC34 
  42      F1014D08 
  42      3418
  43 0087 B0E37A3E 		.ascii	"\260\343z>\006\361\231W\030\303q\371zS\346\2161f\371"
  43      06F19957 
  43      18C371F9 
  43      7A53E68E 
  43      3166F9
  44 009a F64CCB85 		.ascii	"\366L\313\205\226D\264V9\325\306]dH0+\205\265wM~A0{"
  44      9644B456 
  44      39D5C65D 
  44      6448302B 
  44      85B5774D 
  45 00b2 D3378CC3 		.ascii	"\3237\214\303\207\304\312>c66>-\034\014A\011\203u#\252"
  45      87C4CA3E 
  45      6336363E 
  45      2D1C0C41 
ARM GAS  C:\Users\Bruger\AppData\Local\Temp\ccuF8sQp.s 			page 3


  45      09837523 
  46 00c7 0944C56A 		.ascii	"\011D\305j\034ht\352\3146\316\343E\343Rc\344\250V\377"
  46      1C6874EA 
  46      CC36CEE3 
  46      45E35263 
  46      E4A856FF 
  47 00db 10564623 		.ascii	"\020VF#^\234\010\2268a.V#\343\252\326b\355\365\\h\257"
  47      5E9C0896 
  47      38612E56 
  47      23E3AAD6 
  47      62EDF55C 
  48 00f1 488F432F 		.ascii	"H\217C/\277\\sK\030\211\256Fa\302\016\356\241\025\023"
  48      BF5C734B 
  48      1889AE46 
  48      61C20EEE 
  48      A11513
  49 0104 68150B65 		.ascii	"h\025\013e\224@\363\310\377\274\370\315I\0319%\235-"
  49      9440F3C8 
  49      FFBCF8CD 
  49      49193925 
  49      9D2D
  50 0116 2D555D65 		.ascii	"-U]e\000\010\223\202}\213\302\373|\337&F\000\321\330"
  50      00089382 
  50      7D8BC2FB 
  50      7CDF2646 
  50      00D1D8
  51 0129 B3CB5655 		.ascii	"\263\313VU\274\342\276\222\311\252\263C\305\214x<\277"
  51      BCE2BE92 
  51      C9AAB343 
  51      C58C783C 
  51      BF
  52 013a 3C5D7BBE 		.ascii	"<]{\276K\321\002\275\371\346\312\024\347~\231\242\021"
  52      4BD102BD 
  52      F9E6CA14 
  52      E77E99A2 
  52      11
  53 014b 75774DFF 		.ascii	"uwM\377\375O\217\256=\216G\205Q\250G\243(\017S\310\241"
  53      FD4F8FAE 
  53      3D8E4785 
  53      51A847A3 
  53      280F53C8 
  54 0160 A2B4F2B6 		.ascii	"\242\264\362\266>9T\365\333\312\322\272\370p\302>\246"
  54      3E3954F5 
  54      DBCAD2BA 
  54      F870C23E 
  54      A6
  55 0171 05F8D5B6 		.ascii	"\005\370\325\266\027\017\320&\200\312\255\357\353P."
  55      170FD026 
  55      80CAADEF 
  55      EB502E
  56 0180 DF2154AD 		.ascii	"\337!T\255\231\272\360nY\371\370\037+;\265\037\376C"
  56      99BAF06E 
  56      59F9F81F 
  56      2B3BB51F 
  56      FE43
  57 0192 FBD1B6F6 		.ascii	"\373\321\266\366c\253=wc,\277\307jK\247\236lj{vV\013"
  57      63AB3D77 
ARM GAS  C:\Users\Bruger\AppData\Local\Temp\ccuF8sQp.s 			page 4


  57      632CBFC7 
  57      6A4BA79E 
  57      6C6A7B76 
  58 01a8 C8C7A5D9 		.ascii	"\310\307\245\331f\325\246\235\342\301\252\355\334\014"
  58      66D5A69D 
  58      E2C1AAED 
  58      DC0C
  59 01b6 7232EFD0 		.ascii	"r2\357\320\026\371\266\350\003\242\370i\207\255!\035"
  59      16F9B6E8 
  59      03A2F869 
  59      87AD211D 
  60 01c6 3FF45604 		.ascii	"?\364V\004\367wd\373\262\003\247\316fO\367t\365\237"
  60      F77764FB 
  60      B203A7CE 
  60      664FF774 
  60      F59F
  61 01d8 1BE8CD76 		.ascii	"\033\350\315vwv\365\267\037\351>v\274\275\247\363\304"
  61      7776F5B7 
  61      1FE93E76 
  61      BCBDA7F3 
  61      C4
  62 01e9 A15EFA0D 		.ascii	"\241^\372\015'\260\351\246"
  62      27B0E9A6 
  63              		.text
  64              		.section	.gnu.lto_ADC_Sleep.24bfaa8b,"",%progbits
  65 0000 789C6551 		.ascii	"x\234eQ=hSQ\024>\337\271//O\353P\234J\207R\\2H;\024"
  65      3D685351 
  65      143EDFB9 
  65      2F2F4FEB 
  65      509C4A87 
  66 001a 8A4B1789 		.ascii	"\212K\027\211\220I(t-\024\251Y\015\004;\206\336\327"
  66      90492874 
  66      2D14A959 
  66      0D043B86 
  66      DED7
  67 002c 3C3514B1 		.ascii	"<5\024\261u+\215u\020\324\326\364\337A\304\301\240\273"
  67      752B8D75 
  67      10D4D6F4 
  67      DF41C4C1 
  67      A0BB
  68 003e 45444263 		.ascii	"EDBcT\012\215\350 \266MQ\037\245?\347\274d(\372\340"
  68      540A8DE8 
  68      20B64D51 
  68      1FA53FE7 
  68      BC6428FA 
  69 0053 DDF3EEB9 		.ascii	"\335\363\356\271\337\337=\317\320\377\317\200\274[ "
  69      DFDF3DCF 
  69      D0FFCF80 
  69      BC5B20
  70 0062 BA20152E 		.ascii	"\272 \025.\201\247\337\021\371\036\263)$\310\236ut="
  70      81A7DF11 
  70      F91EB329 
  70      24C89E75 
  70      743D
  71 0074 6710D336 		.ascii	"g\020\3236\234f\365\275\030\240\037\004\032g\343\304"
  71      9C66F5BD 
  71      18A01F04 
ARM GAS  C:\Users\Bruger\AppData\Local\Temp\ccuF8sQp.s 			page 5


  71      1A67E3C4 
  72 0084 308E1FBC 		.ascii	"0\216\037\274\313\230.\227f\332\022\217\255\265;\217"
  72      CB982E97 
  72      66DA128F 
  72      ADB53B8F 
  73 0094 5E74DCEA 		.ascii	"^t\334\352\010\231\250\301M#<E\202\004\263\033\034V"
  73      0899A8C1 
  73      4D233C45 
  73      8204B31B 
  73      1C56
  74 00a6 DADC4030 		.ascii	"\332\334@0\355\3153\314\303\225\000\264r\276l\217\217"
  74      EDCD33CC 
  74      C39500B4 
  74      72BE6C8F 
  74      8F
  75 00b7 1B9FEF17 		.ascii	"\033\237\357\027.!\316\0242\034]\210\266\005\245nuf"
  75      2E21CE14 
  75      321C5D88 
  75      B605A56E 
  75      7566
  76 00c9 ADA68A37 		.ascii	"\255\246\2127\277'\277\025\373\224\370\207\325w\366"
  76      BF27BF15 
  76      FB94F887 
  76      D577F6
  77 00d8 D7EBB1EF 		.ascii	"\327\353\261\357\0342\227\356\370\326Q\227\257\333\033"
  77      1C3297EE 
  77      F8D65197 
  77      AFDB1B
  78 00e7 EFBDA845 		.ascii	"\357\275\250E\272]\373\364v#>\207\242\037 d\203\005"
  78      BA5DFBF4 
  78      76233E87 
  78      A21F2064 
  78      8305
  79 00f9 74E2193A 		.ascii	"t\342\031:\305\273\2049P\025\371\277\267knS\317iIV\352"
  79      C5BB8439 
  79      5015F9BF 
  79      B76B6E53 
  79      CF694956 
  80 010e FB4605C0 		.ascii	"\373F\005\300\204E\301~D\260\231\357ja\004\340?yu7\036"
  80      8445C17E 
  80      44B099EF 
  80      6A6104E0 
  80      3F797537 
  81 0123 01446649 		.ascii	"\001DfI\305H#\032*$L\015\371vE\252\365\303\017\367\226"
  81      C548231A 
  81      2A244C0D 
  81      F97645AA 
  81      F5C30FF7 
  82 0138 3977600B 		.ascii	"9w`\013\326\013\331iD\360e\344\344j\261\210\340(\241"
  82      D60BD969 
  82      44F065E4 
  82      E46AB188 
  82      E028A1
  83 014b 8A899DD5 		.ascii	"\212\211\235\325\237\376\031%\375\313q\017uJ\247\357"
  83      9FFE1925 
  83      FDCB710F 
  83      754AA7EF 
ARM GAS  C:\Users\Bruger\AppData\Local\Temp\ccuF8sQp.s 			page 6


  84 015b E446DB79 		.ascii	"\344F\333y?x\000\275\223UT\034+\310aUs\310\331\321\342"
  84      3F7800BD 
  84      9355541C 
  84      2BC86155 
  84      73C8D9D1 
  85 0170 D4BADB53 		.ascii	"\324\272\333S\222!\227/\206\354aM\200{\321\217\300:"
  85      9221972F 
  85      86EC614D 
  85      807BD18F 
  85      C03A
  86 0182 7A4E6B79 		.ascii	"zNky\322z\036\245\257K \035\357\027\370\345\227\251"
  86      D27A1EA5 
  86      AF4B201D 
  86      EF17F8E5 
  86      97A9
  87 0194 283EE9F0 		.ascii	"(>\351\360\241]\341v\247\3227\322\331k7\323\327G\206"
  87      A15DE176 
  87      A7D237D2 
  87      D96B37D3 
  87      D74786
  88 01a7 3263D9D1 		.ascii	"2c\331\321\364\360\340P&\331?|\371Jrd\360j\357(\235"
  88      F4F0E050 
  88      26D93F7C 
  88      F94A7264 
  88      F06AEF28 
  89 01bc 00311AB7 		.ascii	"\0001\032\267\220"
  89      90
  90              		.text
  91              		.section	.gnu.lto_ADC_Wakeup.part.1.24bfaa8b,"",%progbits
  92 0000 789C7590 		.ascii	"x\234u\220K(\204Q\024\307\317\377|\217\231\260\220,"
  92      4B288451 
  92      14C7CFFF 
  92      7C8F99B0 
  92      902C
  93 0012 64212959 		.ascii	"d!)Y\010+++QJ)e\253$fKM,\207\373\231!\013a)\257\035"
  93      082B2B2B 
  93      514A2965 
  93      AB24664B 
  93      4D2C87FB 
  94 002d C6FBB150 		.ascii	"\306\373\261P\330L\262\232B\223\020\211\315L\330y\025"
  94      D84CB29A 
  94      42931089 
  94      CD4CD879 
  94      15
  95 003e 933CCEBD 		.ascii	"\223<\316\275cEn\335\357\334\357\334\3379\377\363\277"
  95      63456EDD 
  95      EFDCEFDC 
  95      DF39FFF3 
  95      BF
  96 004f 16FD5D35 		.ascii	"\026\375]5\262\347@T\"\021.\301\031?\222\203\0036\221"
  96      B2E74054 
  96      22112EC1 
  96      193F9283 
  96      033691
  97 0062 D9DA2D22 		.ascii	"\331\332-\"\225e\237U\221\312\261`\353\254\347\267\001"
  97      95659F55 
  97      91CAB160 
ARM GAS  C:\Users\Bruger\AppData\Local\Temp\ccuF8sQp.s 			page 7


  97      EBACE7B7 
  97      01
  98 0073 7D2050BF 		.ascii	"} P\277\303\226\215~\334\363#c<\266<\221]6\247\224z"
  98      C3968D7E 
  98      DCF32363 
  98      3CB63C91 
  98      5D36A794 
  99 0088 D84F140C 		.ascii	"\330O\024\014\026\244\231\350\2313:X@\031\011\363\030"
  99      16A499E8 
  99      99333A58 
  99      401909F3 
  99      18
 100 0099 F938CF76 		.ascii	"\3718\317v#\302\344f\356\020\205+\372\264\236\247\324"
 100      23C2E466 
 100      EE10852B 
 100      FAB49EA7 
 100      D4
 101 00aa D7D76DB4 		.ascii	"\327\327m\264\324\007J3X\177\210\222\202h\251$;:Z)f"
 101      D4074A33 
 101      587F8892 
 101      8268A924 
 101      3B3A5A29 
 102 00bf 13AF108E 		.ascii	"\023\257\020\216m\306st\261\356:{2\272\306\241w5\254"
 102      6DC67374 
 102      B1EE3A7B 
 102      32BAC6A1 
 102      7735AC
 103 00d2 FC69E667 		.ascii	"\374i\346g]\211E\204\244\207E\227\030\330\336<\334\362"
 103      5D894584 
 103      A4874597 
 103      18D8DE3C 
 103      DCF2
 104 00e4 69F65506 		.ascii	"i\366U\006\370E\333\037z\012\311\336$\217\023\376;\226"
 104      F845DB1F 
 104      7A0AC9DE 
 104      248F13FE 
 104      3B96
 105 00f6 8CF98D7A 		.ascii	"\214\371\215z\221i\314`\312S\232r\260\204\020\226Qh"
 105      9169CC60 
 105      CA539A72 
 105      B0841096 
 105      5168
 106 0108 EE3E57C6 		.ascii	"\356>W\306\266\334\212\3624\273X\021\346\311x\304**"
 106      B6DC8AF2 
 106      34BB5811 
 106      E6C978C4 
 106      2A2A
 107 011a 442CFC36 		.ascii	"D,\3746t\340d\2648#7y\236z\261tc1\2055iq\212\310E\270"
 107      74E064B4 
 107      38233779 
 107      9E7AB174 
 107      63318535 
 108 0134 EF8711C0 		.ascii	"\357\207\021\300\233\337\033\361\031@\272\254k\015Y"
 108      9BDF1BF1 
 108      1940BAAC 
 108      6B0D59
 109 0143 29197DB7 		.ascii	")\031}\267\310\030\335\211\347\377gT\224\261\361cT\327"
ARM GAS  C:\Users\Bruger\AppData\Local\Temp\ccuF8sQp.s 			page 8


 109      C818DD89 
 109      E7FF6754 
 109      94B1F163 
 109      54D7
 110 0155 D8E675AE 		.ascii	"\330\346u\256\341\305\022\215\246\206\364\333Ag\005"
 110      E1C5128D 
 110      A686F4DB 
 110      416705
 111 0164 2D6E0874 		.ascii	"-n\010t\005\202\355=\201\316\266\226\356\336`G\240\265"
 111      0582ED3D 
 111      81CEB696 
 111      EEDE6047 
 111      A0B5
 112 0176 B9A5BBAE 		.ascii	"\271\245\273\256\272\265\266\276\256\255\271\251\262"
 112      BAB5B6BE 
 112      AEADB9A9 
 112      B2
 113 0183 83BE01B1 		.ascii	"\203\276\001\261\345\240^"
 113      E5A05E
 114              		.text
 115              		.section	.gnu.lto_ADC_Wakeup.24bfaa8b,"",%progbits
 116 0000 789C654F 		.ascii	"x\234eO\277KBa\024\275\347\276\247I6HS4H\264\010\205"
 116      BF4B4261 
 116      14BDE7BE 
 116      A7493648 
 116      533448B4 
 117 0016 05417F40 		.ascii	"\005A\177@\030\024A \270\012\022\346\232 5\212\337\313"
 117      18144120 
 117      B80A12E6 
 117      9A20358A 
 117      DFCB
 118 0028 17384449 		.ascii	"\0278DIS\320\217!\250,\315\250\241\301\026i\250\255"
 118      53D08F21 
 118      A82CCDA8 
 118      A1C11669 
 118      A8AD
 119 003a 90A828A2 		.ascii	"\220\250(\242\026\203\3322\207x\204\331\367=\207\240"
 119      1683DA32 
 119      877884D9 
 119      F73D87A0 
 120 004a 3EF8B8DC 		.ascii	">\370\270\334s\317\271\347\\\215\376\277!\371\307A\324"
 120      73CFB9E7 
 120      5C8DFEBF 
 120      21F9C741 
 120      D4
 121 005b 2B2B1C04 		.ascii	"++\034\004\316^\022\031.f\255\344%\321\256\337\016\222"
 121      CE5E1219 
 121      2E66ADE4 
 121      25D1AEDF 
 121      0E92
 122 006d E8D0A02B 		.ascii	"\350\320\240+\030:\240*\201R\254\351H\341\215k\214l"
 122      183AA02A 
 122      8152ACE9 
 122      48E18D6B 
 122      8C6C
 123 007f 39BFEAF6 		.ascii	"9\277\352\366m\013!\336\317*]\013]\026\023\325\271\265"
 123      6D0B21DE 
ARM GAS  C:\Users\Bruger\AppData\Local\Temp\ccuF8sQp.s 			page 9


 123      CF2A5D0B 
 123      5D1613D5 
 123      B9B5
 124 0091 1EBBF091 		.ascii	"\036\273\360\221\344\324\314\306\235\333iJ\216\2475"
 124      E4D4CCC6 
 124      9DDB694A 
 124      8EA735
 125 00a0 430E4E69 		.ascii	"C\016NiK\207\235e\321l\326\317W2}\354`\262X\202UIP>"
 125      4B879D65 
 125      D16CD6CF 
 125      57327DEC 
 125      60B25882 
 126 00b8 2FCCAA6A 		.ascii	"/\314\252j\017\230?9\272\330r(\315'+\313\315\353\245"
 126      0F983F39 
 126      BAD87228 
 126      CD272BCB 
 126      CDEBA5
 127 00cb 2227BF44 		.ascii	"\"'\277DF\270,\346\206Z(\321\347\352U\305\365\312\022"
 127      46B82CE6 
 127      865A28D1 
 127      E7EA55C5 
 127      F5CA12
 128 00de B1DB9C61 		.ascii	"\261\333\234a\256c\003k\206P,\015{Hb\037\335\366\354"
 128      AE63036B 
 128      86502C0D 
 128      7B48621F 
 128      DDF6EC
 129 00f1 BBB07CEC 		.ascii	"\273\260|\354\364\367[\254#/9\037v\\\024\340\247\033"
 129      F4F75BAC 
 129      232F391F 
 129      765C14E0 
 129      A71B
 130 0103 98F769EF 		.ascii	"\230\367i\357\257\225\261s\272\330\246\226\312`8PrR"
 130      AF95B173 
 130      BAD8A696 
 130      CA603850 
 130      7252
 131 0115 C9342A79 		.ascii	"\3114*y\265G\244=\212I\177#9\3526\275\210\244\274\310"
 131      B547A43D 
 131      8A497F23 
 131      39EA36BD 
 131      88A4BCC8 
 132 0129 690B74FB 		.ascii	"i\013t\373\224'\030\345\312\204\255!u(\024*\315{\306"
 132      942718E5 
 132      CA84AD21 
 132      7528142A 
 132      CD7BC6
 133 013c 6233B1C4 		.ascii	"b3\261\304\324ll:\022\212\317%\242\261p0\024\017\014"
 133      D46C6C3A 
 133      128ACF25 
 133      A2B17030 
 133      140F0C
 134 014f 87474603 		.ascii	"\207GF\003\221\340\344@\224~\000\213\314}\247"
 134      91E0E440 
 134      947E008B 
 134      CC7DA7
 135              		.text
ARM GAS  C:\Users\Bruger\AppData\Local\Temp\ccuF8sQp.s 			page 10


 136              		.section	.gnu.lto_ADC_SaveConfig.24bfaa8b,"",%progbits
 137 0000 789C6366 		.ascii	"x\234cf\300\004R@\\\012\304J@\314\310\314\300\3104\341"
 137      C0045240 
 137      5C0AC44A 
 137      40CCC8CC 
 137      C0C834E1 
 138 0014 1C034323 		.ascii	"\034\003C#\007\023##\210\301\300\310P\317\304X\317\370"
 138      07132323 
 138      88C1C0C8 
 138      50CFC458 
 138      CFF8
 139 0026 92E92313 		.ascii	"\222\351#\023\343\204\003\253gp\253/mhh\370p\350tc\300"
 139      E38403AB 
 139      6770AB2F 
 139      6D6868F8 
 139      70E87463 
 140 003b 01C69F4C 		.ascii	"\001\306\237L\014\014\237\231 \3460.gTg\000*\372\330"
 140      0C0C9F99 
 140      20E6302E 
 140      67546700 
 140      2AFAD8
 141 004e F2F73A37 		.ascii	"\362\367:7[\013P\221\000D\216q\005#\033#\220^/t\240"
 141      5B0B5091 
 141      00448E71 
 141      05231B23 
 141      905E2F74 
 142 0063 E1FFFFCF 		.ascii	"\341\377\377\317\353\016\356c\004\012?\001b\220\005"
 142      EB0EEE63 
 142      040A3F01 
 142      629005
 143 0072 4F999840 		.ascii	"O\231\230@4\363=FF\220B\220IO\230\030AB@\005\012\356"
 143      34F33D46 
 143      46904290 
 143      494F9818 
 143      41424005 
 144 0088 A979A945 		.ascii	"\251y\251E\211%\251)\361\301\371\245E\311\2511\001\301"
 144      8925A929 
 144      F1C1F9A5 
 144      45C9A931 
 144      01C1
 145 009a F9CEA631 		.ascii	"\371\316\2461\216.\316\361\001\276z\311\014\000\232"
 145      8E2ECEF1 
 145      01BE7AC9 
 145      0C009A
 146 00a9 263545   		.ascii	"&5E"
 147              		.text
 148              		.section	.gnu.lto_ADC_RestoreConfig.24bfaa8b,"",%progbits
 149 0000 789C6366 		.ascii	"x\234cf\300\004R@\\\012\304J@\314\310\314\300\3104\341"
 149      C0045240 
 149      5C0AC44A 
 149      40CCC8CC 
 149      C0C834E1 
 150 0014 1C034323 		.ascii	"\034\003C#\007\023##\210\301\300\310P\317\304X\317\370"
 150      07132323 
 150      88C1C0C8 
 150      50CFC458 
 150      CFF8
ARM GAS  C:\Users\Bruger\AppData\Local\Temp\ccuF8sQp.s 			page 11


 151 0026 92E92313 		.ascii	"\222\351#\023\343\204\003\253gp\253/mhh\370\320\264"
 151      E38403AB 
 151      6770AB2F 
 151      6D6868F8 
 151      D0B4
 152 0038 51A255E2 		.ascii	"Q\242U\342'\023\003\303g&\2101\214\313\031\325\031\200"
 152      271303C3 
 152      67268831 
 152      8CCB19D5 
 152      1980
 153 004a 6A3EB6FC 		.ascii	"j>\266\374\275\316\315\326\002T#\000\221c\\\301\310"
 153      BDCECDD6 
 153      02542300 
 153      91635CC1 
 153      C8
 154 005b C608A4D7 		.ascii	"\306\010\244\327\013\035h\370\377\377\363\221\211/\224"
 154      0B1D68F8 
 154      FFFFF391 
 154      892F94
 155 006a 1881E24F 		.ascii	"\030\201\342O\200\030d\301S&&\020\315|\217\221\021\244"
 155      801864C1 
 155      53262610 
 155      CD7C8F91 
 155      11A4
 156 007c 1264D413 		.ascii	"\022d\324\023&F\220\020P\201\202{j^jQbIjJ|p~iQrjL@p"
 156      26469010 
 156      5081827B 
 156      6A5E6A51 
 156      62496A4A 
 157 009a BEB3698C 		.ascii	"\276\263i\214\243\213s|\200\257^2\003\000\031\2604@"
 157      A38B737C 
 157      80AF5E32 
 157      030019B0 
 157      3440
 158              		.text
 159              		.section	.gnu.lto_.symbol_nodes.24bfaa8b,"",%progbits
 160 0000 789C55CA 		.ascii	"x\234U\312\261\015\302@\020D\321\277\273w\276s?\316"
 160      B10DC240 
 160      1044D1BF 
 160      BB77BE73 
 160      3FCE
 161 0012 296D2C2A 		.ascii	")m,*\240\001\220\205\334\000\022D\244\304\324\000\024"
 161      A0019085 
 161      DC001244 
 161      A4C4D400 
 161      14
 162 0023 82B08483 		.ascii	"\202\260\204\203\363dof\002\270\263\306\253\340\360"
 162      F3646F66 
 162      02B8B3C6 
 162      ABE0F0
 163 0032 04C98EE7 		.ascii	"\004\311\216\347J\206\311\025\036\262\265\3464U\274"
 163      4A86C915 
 163      1EB2B5E6 
 163      3455BC
 164 0041 97B7374F 		.ascii	"\227\2677O\212\315nJ\033\273rk\313\352\376f\034\027"
 164      8ACD6E4A 
 164      1BBB726B 
ARM GAS  C:\Users\Bruger\AppData\Local\Temp\ccuF8sQp.s 			page 12


 164      CBEAFE66 
 164      1C17
 165 0053 762A2D8B 		.ascii	"v*-\213j\303\240\360x\177-\034\366\227]D\317|\033\""
 165      6AC3A0F0 
 165      787F2D1C 
 165      F6975D44 
 165      CF7C1B22 
 166 0067 2AF36B69 		.ascii	"*\363kiS\360\271\016\374\000h\021/d"
 166      53F0B90E 
 166      FC006811 
 166      2F64
 167              		.text
 168              		.section	.gnu.lto_.refs.24bfaa8b,"",%progbits
 169 0000 789C6366 		.ascii	"x\234cf``\220`\200\000&\006FF\026FFVF&\020\301\314\000"
 169      60609060 
 169      80002606 
 169      46461646 
 169      46564626 
 170 0018 A4598042 		.ascii	"\244Y\200B\014\000\005\230\000C"
 170      0C000598 
 170      0043
 171              		.text
 172              		.section	.gnu.lto_.decls.24bfaa8b,"",%progbits
 173 0000 789C8D94 		.ascii	"x\234\215\224mL[e\024\307\357\351SJ[\012\316\220\200"
 173      6D4C5B65 
 173      14C7EFE9 
 173      534A5B0A 
 173      CE9080
 174 0013 C198D42D 		.ascii	"\301\230\324-!j\010\361%.K\374 \263.K\\4d\214\354\203"
 174      216A08F1 
 174      252E4BFC 
 174      20B32E4B 
 174      5C34648C 
 175 0029 4B48C1EB 		.ascii	"KH\301\353\\\266\000\353\312\222}{\204\011\210\0047"
 175      5CB600EB 
 175      CA927D7B 
 175      84098804 
 175      37
 176 003a 7CA123C4 		.ascii	"|\241#\304\334\301p\200\014\012\024(\205A\031\2630\030"
 176      DCC17080 
 176      0C0A1428 
 176      854119B3 
 176      3018
 177 004c 3847614C 		.ascii	"8GaL\207\301M\3150\032\313\\L\024\265\236\347\271\367"
 177      87C14DCD 
 177      301ACB5C 
 177      4C14B59E 
 177      E7B9F7
 178 005f D25B6C75 		.ascii	"\322[luOr\332\373\362?\277\377y\3569\367\022A\020V@"
 178      4F72DAFB 
 178      F23FBFFF 
 178      79EE39F7 
 178      12411056 
 179 0074 10C2B80A 		.ascii	"\020\302\270\012\015\202\360(\036'\342\265\\!\262L\030"
 179      0D82F028 
 179      1E27E2B5 
 179      5C21B24C 
ARM GAS  C:\Users\Bruger\AppData\Local\Temp\ccuF8sQp.s 			page 13


 179      18
 180 0085 9D18DD18 		.ascii	"\235\030\335\030\275\030\036\214\001\014/\206\017c\004"
 180      BD181E8C 
 180      010C2F86 
 180      0F6304
 181 0094 63140353 		.ascii	"c\024\003S\205Y!zu*\371\214\227\206q\035\343\032\306"
 181      8559217A 
 181      752AF98C 
 181      9786711D 
 181      E31AC6
 182 00a7 3CC634C6 		.ascii	"<\3064\306\004F\020\343\202\222\037\300\320)y\2768\314"
 182      044610E3 
 182      82921FC0 
 182      D02979BE 
 182      38CC
 183 00b9 EE38CC05 		.ascii	"\3568\314\005\214\366Ml-\263[\341\306b\262}%j\230jM"
 183      8CF64D6C 
 183      2DB35BE1 
 183      C662B27D 
 183      256A986A 
 184 00ce B15844D1 		.ascii	"\261XD\321\377\327\276=\233xZ\316\"\206{Sm\036\205\031"
 184      FFD7BE3D 
 184      9B785ACE 
 184      22867B53 
 184      6D1E8519 
 185 00e2 8B35A05C 		.ascii	"\2135\240\\W{\002\312\265\315\313\033C\347\215\241["
 185      577B02CA 
 185      B5CDCB1B 
 185      43E78DA1 
 185      5B
 186 00f3 D3C150D7 		.ascii	"\323\301P\327\375\331\244\273:H1[\331\251\257~\312e"
 186      FDD9A4BB 
 186      3A48315B 
 186      D9A9AF7E 
 186      CA65
 187 0105 C0538B59 		.ascii	"\300S\213Y\317N\207\327o\007\365\351\037Q\\\247*\350"
 187      CF4E87D7 
 187      6F07F5E9 
 187      1F515CA7 
 187      2AE8
 188 0117 163DE4A6 		.ascii	"\026=\344\246\301y\310\2006\310@j;\244\343\357\353z"
 188      C179C880 
 188      36C8406A 
 188      3BA4E3EF 
 188      EB7A
 189 0129 9934D077 		.ascii	"\2314\320w\253\325Bt\300\216[\\\337\006\315Y\035\230"
 189      ABD54274 
 189      C08E5B5C 
 189      DF06CD59 
 189      1D98
 190 013b 564DFD4B 		.ascii	"VM\375K\272\210\235{p\262\311l\375\204\372\335!\337"
 190      BA889D7B 
 190      70B2C96C 
 190      FD84FADD 
 190      21DF
 191 014d FD4A72E6 		.ascii	"\375Jr\346\224TN\377\016\207\201\352\030\015:\200\300"
 191      94544EFF 
ARM GAS  C:\Users\Bruger\AppData\Local\Temp\ccuF8sQp.s 			page 14


 191      0E8781EA 
 191      180D3A80 
 191      C0
 192 015e 6790C56B 		.ascii	"g\220\305k\306c\271\370N\260\376o)\027\242J\361\327"
 192      C663B9F8 
 192      4EB0FE6F 
 192      2917A24A 
 192      F1D7
 193 0170 CDA79317 		.ascii	"\315\247\223\027x%\337\255\337p%\241\241\344\246g\250"
 193      7825DFAD 
 193      DF7025A1 
 193      A1E4A667 
 193      A8
 194 0181 A4A338DD 		.ascii	"\244\2438\335\350\205r\350\322xu\251^\335\017\340\345"
 194      E88572E8 
 194      D27875A9 
 194      5EDD0FE0 
 194      E5
 195 0192 8EF23ADD 		.ascii	"\216\362:\335\267\326o$\273\270\331\235i\317\275\024"
 195      B7D66F24 
 195      BBB8D99D 
 195      69CFBD14 
 196 01a2 BE3BA9B6 		.ascii	"\276;\251\266\265R?E\375\341\360\030\245\300R\240G\343"
 196      B5523F45 
 196      FDE1F018 
 196      A5C052A0 
 196      47E3
 197 01b4 D7A3FAF5 		.ascii	"\327\243\372\365r\277\305\037\226\003\011d?g,\337Y["
 197      72BFC51F 
 197      96030964 
 197      3F672CDF 
 197      595B
 198 01c6 8A5D709F 		.ascii	"\212]p\237\006\320\247\002<\0340W]y>\211\024r\200\367"
 198      06D0A702 
 198      3C1C3057 
 198      5D793E89 
 198      147280F7 
 199 01da 0FFA6B32 		.ascii	"\017\372k2\002\334n\351V/\3159I\377\014\207\011\007"
 199      02DC6EE9 
 199      562FCD39 
 199      49FF0C87 
 199      0907
 200 01ec F46B00FD 		.ascii	"\364k\000\375*`\200\003\326W\337\277D\310Q\016\0104"
 200      2A608003 
 200      D657DFBF 
 200      44C8510E 
 200      0834
 201 01fe B47D6090 		.ascii	"\264}`\220\001\325-\006\276\211\027y\376\240&\177P\315"
 201      01D52D06 
 201      BE891779 
 201      FEA0267F 
 201      50CD
 202 0210 F7F2FCCE 		.ascii	"\367\362\374\316\346\236q\013\251\000\016pw\325=\207"
 202      E69E710B 
 202      A9000E70 
 202      77D53D87 
 203 0220 F92BD4DD 		.ascii	"\371+\324\335\324\372\265E\222\011\274G0\244A\014\251"
ARM GAS  C:\Users\Bruger\AppData\Local\Temp\ccuF8sQp.s 			page 15


 203      D4FAB545 
 203      9209BC47 
 203      30A4410C 
 203      A9
 204 0231 081F4734 		.ascii	"\010\037G4N\236\375\371!\322!#f\275\315\022\341\014"
 204      4E9EFDF9 
 204      21D22123 
 204      66BDCD12 
 204      E10C
 205 0243 A9B6A5D2 		.ascii	"\251\266\245\322\252)bXC\030V\011#\234p\345\257\212"
 205      AA296258 
 205      43185609 
 205      239C70E5 
 205      AF8A
 206 0255 9114D22F 		.ascii	"\221\024\322/\023\350\345\211\357\015\234\260\322>\031"
 206      13E8E589 
 206      EF0D9CB0 
 206      D23E19
 207 0264 88AEE2A2 		.ascii	"\210\256\342\242\206qQe\214r\206\347\343\251\273F\022"
 207      86715165 
 207      8C7286E7 
 207      E3A9BB46 
 207      12
 208 0275 90198B63 		.ascii	"\220\031\213cUUF\262$\237\274\375\351pm\"\276\032if"
 208      555546B2 
 208      249FBCFD 
 208      E9706D22 
 208      BE1A6966 
 209 0289 DEF7BA99 		.ascii	"\336\367\272\231\306q\302O\303\354\266\356\346\315\017"
 209      C671C24F 
 209      C3ECB6EE 
 209      E6CD0F
 210 0298 7F2760CE 		.ascii	"\177'`\316\254\246\264\234\206\352)yD\200\254\014x2"
 210      ACA6B49C 
 210      86EA2979 
 210      4480AC0C 
 210      7832
 211 02aa 4380CB90 		.ascii	"C\200\313\220\2112\356\010\3438F\227p\214\316\341l\205"
 211      8932EE08 
 211      E3384697 
 211      708CCEE1 
 211      6C85
 212 02bc 46AB465F 		.ascii	"F\253F_\251\24090\001f\360o\324\304\035\224\367e\254"
 212      A9A03930 
 212      0166F06F 
 212      D4C41D94 
 212      F765AC
 213 02cf 6BDE6524 		.ascii	"k\336e$\224\277Ud\365\227e\217\005\266\246fJ\350\021"
 213      94BF5564 
 213      F597658F 
 213      05B6A666 
 213      4AE811
 214 02e2 6A7AE746 		.ascii	"jz\347Fr\003]\361\003O\377\034\323'!U\265|\202\015\352"
 214      72035DF1 
 214      034FFF1C 
 214      D3272155 
 214      B57C820D 
ARM GAS  C:\Users\Bruger\AppData\Local\Temp\ccuF8sQp.s 			page 16


 215 02f7 53F8239C 		.ascii	"S\370#\234fS\034*\2479G\325z\004.D/\230\302\302\002"
 215      66531C2A 
 215      A73947D5 
 215      7A042E44 
 215      2F98C2C2 
 216 030c B0959BB1 		.ascii	"\260\225\233\261\202V\276z\326\310n\012\352\323Q\353"
 216      8256BE7A 
 216      D6C86E0A 
 216      EAD351EB 
 217 031c D08DBB96 		.ascii	"\320\215\273\226\232\223 3\225\253\226\015\000\323\210"
 217      9A932033 
 217      95AB960D 
 217      00D388
 218 032b 188B94CC 		.ascii	"\030\213\224\314\222\370\372\267\035\\A\227X\216\270"
 218      92F8FAB7 
 218      1D5C4197 
 218      588EB8
 219 033a BDC1E9E9 		.ascii	"\275\301\351\3516\023\251\225?\032#\203\215k\011\333"
 219      3613A995 
 219      3F1A2383 
 219      8D6B09DB 
 220 034a 3DB45A32 		.ascii	"=\264Z2r<\352\330\343b\267~\274\272Zo\332v\226R)\344"
 220      723CEAD8 
 220      E362B77E 
 220      BCBA5A6F 
 220      DA769652 
 221 0360 0BFD040D 		.ascii	"\013\375\004\015\024?\033\224M\004\027\316\310ullo\206"
 221      143F1B94 
 221      4D0417CE 
 221      C8756C6C 
 221      6F86
 222 0372 B514AEC2 		.ascii	"\265\024\256\302v\001fa\033\233\205\206\367\316\031"
 222      76016661 
 222      1B9B8586 
 222      F7CE19
 223 0381 49836CD3 		.ascii	"I\203l\323\377[\315P\262\031\333T\361\000m\302\255\007"
 223      FF5BCD50 
 223      B219DB54 
 223      F1006DC2 
 223      AD07
 224 0393 E76A164D 		.ascii	"\347j\026Mrc7g|\031\267\261\223\367\366\234\304\306"
 224      72633767 
 224      7C19B7B1 
 224      93F7F69C 
 224      C4C6
 225 03a5 5EC3CECC 		.ascii	"^\303\316\314E\236\322\027\020\351\354\273\267\033g"
 225      459ED217 
 225      10E9ECBB 
 225      B71B67
 226 03b4 2D961A36 		.ascii	"-\226\0326-\370\2151M\245pq\344+s\035,|,\361\037\325"
 226      2DF88D31 
 226      4DA57071 
 226      E42B731D 
 226      2C7C2CF1 
 227 03ca 7D5E7F07 		.ascii	"}^\177\007\211R\263\215G\324\363\212z\236\253\277q\371"
 227      8952B38D 
 227      47D4F38A 
ARM GAS  C:\Users\Bruger\AppData\Local\Temp\ccuF8sQp.s 			page 17


 227      7A9EABBF 
 227      71F9
 228 03dc 6BF4516A 		.ascii	"k\364Qj6\365\021u\020,jI\3018\011\355Q\011\013\012~"
 228      36F51175 
 228      102C6A49 
 228      C13809ED 
 228      51090B0A 
 229 03f1 218EDA1D 		.ascii	"!\216\332\035\245^T\324\354\177\313\316\227m\005yGD"
 229      A55E54D4 
 229      EC7FCBCE 
 229      976D0579 
 229      4744
 230 0403 B134BBD4 		.ascii	"\2614\273\324\356pf?m\330\375Z\276\325&Xw\213\305\242"
 230      EE70663F 
 230      6DD8FD5A 
 230      BED52658 
 230      778BC5A2 
 231 0417 C3EE14DF 		.ascii	"\303\356\024\337(\310+)s\024\211\007r\363Jl\317\037"
 231      28C82B29 
 231      73148907 
 231      72F34A6C 
 231      CF1F
 232 0429 60F2DC57 		.ascii	"`\362\334W\263\213\004\323F\342\303\354h\277\375\260"
 232      B38B04D3 
 232      46E2C3EC 
 232      68BFFDB0 
 233 0439 58A6309E 		.ascii	"X\2460\2361G\256\244p\231\375\270h+)~\363\320A\256\335"
 233      3147AEA4 
 233      7099FDB8 
 233      682B297E 
 233      F3D041AE 
 234 044e 2B1E7396 		.ascii	"+\036s\2268\224+F.p\226\224>\026\3371\373-\201#w\025"
 234      38942B46 
 234      2E709694 
 234      3E16DF31 
 234      FB2D8123 
 235 0464 DB0B8F88 		.ascii	"\333\013\217\210r\311NtB\302q\321\341\344\320\227v\332"
 235      72C94E74 
 235      42C271D1 
 235      E1E4D097 
 235      76DA
 236 0476 F6E4E716 		.ascii	"\366\344\347\026\344\355\333\233o\333\227Pv\250\330"
 236      E4EDDB9B 
 236      6FDB9750 
 236      76A8D8
 237 0485 B9E3F138 		.ascii	"\271\343\3618\304\242\023\316\023\245\3421\244&\211"
 237      C4A213CE 
 237      13A5E231 
 237      A42689
 238 0494 9C8830A7 		.ascii	"\234\2100\247\310\035\012\355E\207\313J\365\016\361"
 238      C81D0AED 
 238      4587CB4A 
 238      F50EF1
 239 04a3 E08E7F00 		.ascii	"\340\216\177\000\274W~X"
 239      BC577E58 
 240              		.text
 241              		.section	.gnu.lto_.symtab.24bfaa8b,"",%progbits
ARM GAS  C:\Users\Bruger\AppData\Local\Temp\ccuF8sQp.s 			page 18


 242 0000 4144435F 		.ascii	"ADC_Sleep\000\000\000\000\000\000\000\000\000\000\000"
 242      536C6565 
 242      70000000 
 242      00000000 
 242      00000000 
 243 0014 00AF0000 		.ascii	"\000\257\000\000\000ADC_Wakeup\000\000\000\000\000\000"
 243      00414443 
 243      5F57616B 
 243      65757000 
 243      00000000 
 244 0029 00000000 		.ascii	"\000\000\000\000\000\000\264\000\000\000ADC_SaveCon"
 244      0000B400 
 244      00004144 
 244      435F5361 
 244      7665436F 
 245 003e 66696700 		.ascii	"fig\000\000\000\000\000\000\000\000\000\000\000\000"
 245      00000000 
 245      00000000 
 245      000000
 246 004d B6000000 		.ascii	"\266\000\000\000ADC_RestoreConfig\000\000\000\000\000"
 246      4144435F 
 246      52657374 
 246      6F726543 
 246      6F6E6669 
 247 0067 00000000 		.ascii	"\000\000\000\000\000\000\000\270\000\000\000ADC_Sto"
 247      000000B8 
 247      00000041 
 247      44435F53 
 247      746F
 248 0079 70000002 		.ascii	"p\000\000\002\000\000\000\000\000\000\000\000\000\272"
 248      00000000 
 248      00000000 
 248      00BA
 249 0087 00000041 		.ascii	"\000\000\000ADC_Enable\000\000\002\000\000\000\000\000"
 249      44435F45 
 249      6E61626C 
 249      65000002 
 249      00000000 
 250 009c 00000000 		.ascii	"\000\000\000\000\274\000\000\000ADC_StartConvert\000"
 250      BC000000 
 250      4144435F 
 250      53746172 
 250      74436F6E 
 251 00b5 00020000 		.ascii	"\000\002\000\000\000\000\000\000\000\000\000\276\000"
 251      00000000 
 251      000000BE 
 251      00
 252 00c2 0000     		.ascii	"\000\000"
 253              		.text
 254              		.section	.gnu.lto_.opts,"",%progbits
 255 0000 272D666E 		.ascii	"'-fno-trapv' '-mcpu=cortex-m3' '-mthumb' '-g' '-O3'"
 255      6F2D7472 
 255      61707627 
 255      20272D6D 
 255      6370753D 
 256 0033 20272D66 		.ascii	" '-ffunction-sections' '-finline-functions' '-flto'"
 256      66756E63 
ARM GAS  C:\Users\Bruger\AppData\Local\Temp\ccuF8sQp.s 			page 19


 256      74696F6E 
 256      2D736563 
 256      74696F6E 
 257 0066 20272D66 		.ascii	" '-ffat-lto-objects'\000"
 257      6661742D 
 257      6C746F2D 
 257      6F626A65 
 257      63747327 
 258              		.text
 259              		.cfi_sections	.debug_frame
 260              		.section	.text.ADC_SaveConfig,"ax",%progbits
 261              		.align	2
 262              		.global	ADC_SaveConfig
 263              		.thumb
 264              		.thumb_func
 265              		.type	ADC_SaveConfig, %function
 266              	ADC_SaveConfig:
 267              	.LFB0:
 268              		.file 1 "Generated_Source\\PSoC5\\ADC_PM.c"
   1:Generated_Source\PSoC5/ADC_PM.c **** /*******************************************************************************
   2:Generated_Source\PSoC5/ADC_PM.c **** * File Name: ADC_PM.c
   3:Generated_Source\PSoC5/ADC_PM.c **** * Version 3.0
   4:Generated_Source\PSoC5/ADC_PM.c **** *
   5:Generated_Source\PSoC5/ADC_PM.c **** * Description:
   6:Generated_Source\PSoC5/ADC_PM.c **** *  This file provides Sleep/WakeUp APIs functionality.
   7:Generated_Source\PSoC5/ADC_PM.c **** *
   8:Generated_Source\PSoC5/ADC_PM.c **** * Note:
   9:Generated_Source\PSoC5/ADC_PM.c **** *
  10:Generated_Source\PSoC5/ADC_PM.c **** ********************************************************************************
  11:Generated_Source\PSoC5/ADC_PM.c **** * Copyright 2008-2015, Cypress Semiconductor Corporation.  All rights reserved.
  12:Generated_Source\PSoC5/ADC_PM.c **** * You may use this file only in accordance with the license, terms, conditions,
  13:Generated_Source\PSoC5/ADC_PM.c **** * disclaimers, and limitations in the end user license agreement accompanying
  14:Generated_Source\PSoC5/ADC_PM.c **** * the software package with which this file was provided.
  15:Generated_Source\PSoC5/ADC_PM.c **** *******************************************************************************/
  16:Generated_Source\PSoC5/ADC_PM.c **** 
  17:Generated_Source\PSoC5/ADC_PM.c **** #include "ADC.h"
  18:Generated_Source\PSoC5/ADC_PM.c **** 
  19:Generated_Source\PSoC5/ADC_PM.c **** 
  20:Generated_Source\PSoC5/ADC_PM.c **** /***************************************
  21:Generated_Source\PSoC5/ADC_PM.c **** * Local data allocation
  22:Generated_Source\PSoC5/ADC_PM.c **** ***************************************/
  23:Generated_Source\PSoC5/ADC_PM.c **** 
  24:Generated_Source\PSoC5/ADC_PM.c **** static ADC_BACKUP_STRUCT  ADC_backup =
  25:Generated_Source\PSoC5/ADC_PM.c **** {
  26:Generated_Source\PSoC5/ADC_PM.c ****     ADC_DISABLED
  27:Generated_Source\PSoC5/ADC_PM.c **** };
  28:Generated_Source\PSoC5/ADC_PM.c **** 
  29:Generated_Source\PSoC5/ADC_PM.c **** 
  30:Generated_Source\PSoC5/ADC_PM.c **** /*******************************************************************************
  31:Generated_Source\PSoC5/ADC_PM.c **** * Function Name: ADC_SaveConfig
  32:Generated_Source\PSoC5/ADC_PM.c **** ********************************************************************************
  33:Generated_Source\PSoC5/ADC_PM.c **** *
  34:Generated_Source\PSoC5/ADC_PM.c **** * Summary:
  35:Generated_Source\PSoC5/ADC_PM.c **** *  Saves the current user configuration.
  36:Generated_Source\PSoC5/ADC_PM.c **** *
  37:Generated_Source\PSoC5/ADC_PM.c **** * Parameters:
  38:Generated_Source\PSoC5/ADC_PM.c **** *  None.
ARM GAS  C:\Users\Bruger\AppData\Local\Temp\ccuF8sQp.s 			page 20


  39:Generated_Source\PSoC5/ADC_PM.c **** *
  40:Generated_Source\PSoC5/ADC_PM.c **** * Return:
  41:Generated_Source\PSoC5/ADC_PM.c **** *  None.
  42:Generated_Source\PSoC5/ADC_PM.c **** *
  43:Generated_Source\PSoC5/ADC_PM.c **** *******************************************************************************/
  44:Generated_Source\PSoC5/ADC_PM.c **** void ADC_SaveConfig(void)
  45:Generated_Source\PSoC5/ADC_PM.c **** {
 269              		.loc 1 45 0
 270              		.cfi_startproc
 271              		@ args = 0, pretend = 0, frame = 0
 272              		@ frame_needed = 0, uses_anonymous_args = 0
 273              		@ link register save eliminated.
 274 0000 7047     		bx	lr
 275              		.cfi_endproc
 276              	.LFE0:
 277              		.size	ADC_SaveConfig, .-ADC_SaveConfig
 278 0002 00BF     		.section	.text.ADC_RestoreConfig,"ax",%progbits
 279              		.align	2
 280              		.global	ADC_RestoreConfig
 281              		.thumb
 282              		.thumb_func
 283              		.type	ADC_RestoreConfig, %function
 284              	ADC_RestoreConfig:
 285              	.LFB1:
  46:Generated_Source\PSoC5/ADC_PM.c ****     /* All configuration registers are marked as [reset_all_retention] */
  47:Generated_Source\PSoC5/ADC_PM.c **** }
  48:Generated_Source\PSoC5/ADC_PM.c **** 
  49:Generated_Source\PSoC5/ADC_PM.c **** 
  50:Generated_Source\PSoC5/ADC_PM.c **** /*******************************************************************************
  51:Generated_Source\PSoC5/ADC_PM.c **** * Function Name: ADC_RestoreConfig
  52:Generated_Source\PSoC5/ADC_PM.c **** ********************************************************************************
  53:Generated_Source\PSoC5/ADC_PM.c **** *
  54:Generated_Source\PSoC5/ADC_PM.c **** * Summary:
  55:Generated_Source\PSoC5/ADC_PM.c **** *  Restores the current user configuration.
  56:Generated_Source\PSoC5/ADC_PM.c **** *
  57:Generated_Source\PSoC5/ADC_PM.c **** * Parameters:
  58:Generated_Source\PSoC5/ADC_PM.c **** *  None.
  59:Generated_Source\PSoC5/ADC_PM.c **** *
  60:Generated_Source\PSoC5/ADC_PM.c **** * Return:
  61:Generated_Source\PSoC5/ADC_PM.c **** *  None.
  62:Generated_Source\PSoC5/ADC_PM.c **** *
  63:Generated_Source\PSoC5/ADC_PM.c **** *******************************************************************************/
  64:Generated_Source\PSoC5/ADC_PM.c **** void ADC_RestoreConfig(void)
  65:Generated_Source\PSoC5/ADC_PM.c **** {
 286              		.loc 1 65 0
 287              		.cfi_startproc
 288              		@ args = 0, pretend = 0, frame = 0
 289              		@ frame_needed = 0, uses_anonymous_args = 0
 290              		@ link register save eliminated.
 291 0000 7047     		bx	lr
 292              		.cfi_endproc
 293              	.LFE1:
 294              		.size	ADC_RestoreConfig, .-ADC_RestoreConfig
 295 0002 00BF     		.section	.text.ADC_Sleep,"ax",%progbits
 296              		.align	2
 297              		.global	ADC_Sleep
 298              		.thumb
ARM GAS  C:\Users\Bruger\AppData\Local\Temp\ccuF8sQp.s 			page 21


 299              		.thumb_func
 300              		.type	ADC_Sleep, %function
 301              	ADC_Sleep:
 302              	.LFB2:
  66:Generated_Source\PSoC5/ADC_PM.c ****     /* All congiguration registers are marked as [reset_all_retention] */
  67:Generated_Source\PSoC5/ADC_PM.c **** }
  68:Generated_Source\PSoC5/ADC_PM.c **** 
  69:Generated_Source\PSoC5/ADC_PM.c **** 
  70:Generated_Source\PSoC5/ADC_PM.c **** /*******************************************************************************
  71:Generated_Source\PSoC5/ADC_PM.c **** * Function Name: ADC_Sleep
  72:Generated_Source\PSoC5/ADC_PM.c **** ********************************************************************************
  73:Generated_Source\PSoC5/ADC_PM.c **** *
  74:Generated_Source\PSoC5/ADC_PM.c **** * Summary:
  75:Generated_Source\PSoC5/ADC_PM.c **** *  This is the preferred routine to prepare the component for sleep.
  76:Generated_Source\PSoC5/ADC_PM.c **** *  The ADC_Sleep() routine saves the current component state,
  77:Generated_Source\PSoC5/ADC_PM.c **** *  then it calls the ADC_Stop() function.
  78:Generated_Source\PSoC5/ADC_PM.c **** *
  79:Generated_Source\PSoC5/ADC_PM.c **** * Parameters:
  80:Generated_Source\PSoC5/ADC_PM.c **** *  None.
  81:Generated_Source\PSoC5/ADC_PM.c **** *
  82:Generated_Source\PSoC5/ADC_PM.c **** * Return:
  83:Generated_Source\PSoC5/ADC_PM.c **** *  None.
  84:Generated_Source\PSoC5/ADC_PM.c **** *
  85:Generated_Source\PSoC5/ADC_PM.c **** * Global Variables:
  86:Generated_Source\PSoC5/ADC_PM.c **** *  ADC_backup - The structure field 'enableState' is modified
  87:Generated_Source\PSoC5/ADC_PM.c **** *  depending on the enable state of the block before entering to sleep mode.
  88:Generated_Source\PSoC5/ADC_PM.c **** *
  89:Generated_Source\PSoC5/ADC_PM.c **** *******************************************************************************/
  90:Generated_Source\PSoC5/ADC_PM.c **** void ADC_Sleep(void)
  91:Generated_Source\PSoC5/ADC_PM.c **** {
 303              		.loc 1 91 0
 304              		.cfi_startproc
 305              		@ args = 0, pretend = 0, frame = 0
 306              		@ frame_needed = 0, uses_anonymous_args = 0
 307              		@ link register save eliminated.
  92:Generated_Source\PSoC5/ADC_PM.c ****     if((ADC_PWRMGR_SAR_REG  & ADC_ACT_PWR_SAR_EN) != 0u)
 308              		.loc 1 92 0
 309 0000 0A4B     		ldr	r3, .L8
 310 0002 1B78     		ldrb	r3, [r3]	@ zero_extendqisi2
 311 0004 03F00203 		and	r3, r3, #2
 312 0008 03F0FF02 		and	r2, r3, #255
 313 000c 53B1     		cbz	r3, .L4
 314              	.LBB4:
 315              	.LBB5:
  93:Generated_Source\PSoC5/ADC_PM.c ****     {
  94:Generated_Source\PSoC5/ADC_PM.c ****         if((ADC_SAR_CSR0_REG & ADC_SAR_SOF_START_CONV) != 0u)
 316              		.loc 1 94 0
 317 000e 084A     		ldr	r2, .L8+4
 318 0010 084B     		ldr	r3, .L8+8
 319 0012 1278     		ldrb	r2, [r2]	@ zero_extendqisi2
 320 0014 12F0010F 		tst	r2, #1
  95:Generated_Source\PSoC5/ADC_PM.c ****         {
  96:Generated_Source\PSoC5/ADC_PM.c ****             ADC_backup.enableState = ADC_ENABLED | ADC_STARTED;
  97:Generated_Source\PSoC5/ADC_PM.c ****         }
  98:Generated_Source\PSoC5/ADC_PM.c ****         else
  99:Generated_Source\PSoC5/ADC_PM.c ****         {
 100:Generated_Source\PSoC5/ADC_PM.c ****             ADC_backup.enableState = ADC_ENABLED;
ARM GAS  C:\Users\Bruger\AppData\Local\Temp\ccuF8sQp.s 			page 22


 321              		.loc 1 100 0
 322 0018 14BF     		ite	ne
 323 001a 0322     		movne	r2, #3
 324 001c 0122     		moveq	r2, #1
 325 001e 1A70     		strb	r2, [r3]
 101:Generated_Source\PSoC5/ADC_PM.c ****         }
 102:Generated_Source\PSoC5/ADC_PM.c ****         ADC_Stop();
 326              		.loc 1 102 0
 327 0020 FFF7FEBF 		b	ADC_Stop
 328              	.LVL0:
 329              	.L4:
 330              	.LBE5:
 331              	.LBE4:
 103:Generated_Source\PSoC5/ADC_PM.c ****     }
 104:Generated_Source\PSoC5/ADC_PM.c ****     else
 105:Generated_Source\PSoC5/ADC_PM.c ****     {
 106:Generated_Source\PSoC5/ADC_PM.c ****         ADC_backup.enableState = ADC_DISABLED;
 332              		.loc 1 106 0
 333 0024 034B     		ldr	r3, .L8+8
 334 0026 1A70     		strb	r2, [r3]
 335 0028 7047     		bx	lr
 336              	.L9:
 337 002a 00BF     		.align	2
 338              	.L8:
 339 002c AB430040 		.word	1073759147
 340 0030 08590040 		.word	1073764616
 341 0034 00000000 		.word	.LANCHOR0
 342              		.cfi_endproc
 343              	.LFE2:
 344              		.size	ADC_Sleep, .-ADC_Sleep
 345              		.section	.text.ADC_Wakeup,"ax",%progbits
 346              		.align	2
 347              		.global	ADC_Wakeup
 348              		.thumb
 349              		.thumb_func
 350              		.type	ADC_Wakeup, %function
 351              	ADC_Wakeup:
 352              	.LFB3:
 107:Generated_Source\PSoC5/ADC_PM.c ****     }
 108:Generated_Source\PSoC5/ADC_PM.c **** }
 109:Generated_Source\PSoC5/ADC_PM.c **** 
 110:Generated_Source\PSoC5/ADC_PM.c **** 
 111:Generated_Source\PSoC5/ADC_PM.c **** /*******************************************************************************
 112:Generated_Source\PSoC5/ADC_PM.c **** * Function Name: ADC_Wakeup
 113:Generated_Source\PSoC5/ADC_PM.c **** ********************************************************************************
 114:Generated_Source\PSoC5/ADC_PM.c **** *
 115:Generated_Source\PSoC5/ADC_PM.c **** * Summary:
 116:Generated_Source\PSoC5/ADC_PM.c **** *  This is the preferred routine to restore the component to the state when
 117:Generated_Source\PSoC5/ADC_PM.c **** *  ADC_Sleep() was called. If the component was enabled before the
 118:Generated_Source\PSoC5/ADC_PM.c **** *  ADC_Sleep() function was called, the
 119:Generated_Source\PSoC5/ADC_PM.c **** *  ADC_Wakeup() function also re-enables the component.
 120:Generated_Source\PSoC5/ADC_PM.c **** *
 121:Generated_Source\PSoC5/ADC_PM.c **** * Parameters:
 122:Generated_Source\PSoC5/ADC_PM.c **** *  None.
 123:Generated_Source\PSoC5/ADC_PM.c **** *
 124:Generated_Source\PSoC5/ADC_PM.c **** * Return:
 125:Generated_Source\PSoC5/ADC_PM.c **** *  None.
ARM GAS  C:\Users\Bruger\AppData\Local\Temp\ccuF8sQp.s 			page 23


 126:Generated_Source\PSoC5/ADC_PM.c **** *
 127:Generated_Source\PSoC5/ADC_PM.c **** * Global Variables:
 128:Generated_Source\PSoC5/ADC_PM.c **** *  ADC_backup - The structure field 'enableState' is used to
 129:Generated_Source\PSoC5/ADC_PM.c **** *  restore the enable state of block after wakeup from sleep mode.
 130:Generated_Source\PSoC5/ADC_PM.c **** *
 131:Generated_Source\PSoC5/ADC_PM.c **** *******************************************************************************/
 132:Generated_Source\PSoC5/ADC_PM.c **** void ADC_Wakeup(void)
 133:Generated_Source\PSoC5/ADC_PM.c **** {
 353              		.loc 1 133 0
 354              		.cfi_startproc
 355              		@ args = 0, pretend = 0, frame = 0
 356              		@ frame_needed = 0, uses_anonymous_args = 0
 357 0000 10B5     		push	{r4, lr}
 358              		.cfi_def_cfa_offset 8
 359              		.cfi_offset 4, -8
 360              		.cfi_offset 14, -4
 134:Generated_Source\PSoC5/ADC_PM.c ****     if(ADC_backup.enableState != ADC_DISABLED)
 361              		.loc 1 134 0
 362 0002 064C     		ldr	r4, .L19
 363 0004 2378     		ldrb	r3, [r4]	@ zero_extendqisi2
 364 0006 03B9     		cbnz	r3, .L18
 365              	.L10:
 366 0008 10BD     		pop	{r4, pc}
 367              	.L18:
 368              	.LBB8:
 369              	.LBB9:
 135:Generated_Source\PSoC5/ADC_PM.c ****     {
 136:Generated_Source\PSoC5/ADC_PM.c ****         ADC_Enable();
 370              		.loc 1 136 0
 371 000a FFF7FEFF 		bl	ADC_Enable
 372              	.LVL1:
 137:Generated_Source\PSoC5/ADC_PM.c ****         #if(ADC_DEFAULT_CONV_MODE != ADC__HARDWARE_TRIGGER)
 138:Generated_Source\PSoC5/ADC_PM.c ****             if((ADC_backup.enableState & ADC_STARTED) != 0u)
 373              		.loc 1 138 0
 374 000e 2378     		ldrb	r3, [r4]	@ zero_extendqisi2
 375 0010 9B07     		lsls	r3, r3, #30
 376 0012 F9D5     		bpl	.L10
 377              	.LBE9:
 378              	.LBE8:
 139:Generated_Source\PSoC5/ADC_PM.c ****             {
 140:Generated_Source\PSoC5/ADC_PM.c ****                 ADC_StartConvert();
 141:Generated_Source\PSoC5/ADC_PM.c ****             }
 142:Generated_Source\PSoC5/ADC_PM.c ****         #endif /* End ADC_DEFAULT_CONV_MODE != ADC__HARDWARE_TRIGGER */
 143:Generated_Source\PSoC5/ADC_PM.c ****     }
 144:Generated_Source\PSoC5/ADC_PM.c **** }
 379              		.loc 1 144 0
 380 0014 BDE81040 		pop	{r4, lr}
 381              		.cfi_restore 14
 382              		.cfi_restore 4
 383              		.cfi_def_cfa_offset 0
 384              	.LBB11:
 385              	.LBB10:
 140:Generated_Source\PSoC5/ADC_PM.c ****             }
 386              		.loc 1 140 0
 387 0018 FFF7FEBF 		b	ADC_StartConvert
 388              	.LVL2:
 389              	.L20:
ARM GAS  C:\Users\Bruger\AppData\Local\Temp\ccuF8sQp.s 			page 24


 390              		.align	2
 391              	.L19:
 392 001c 00000000 		.word	.LANCHOR0
 393              	.LBE10:
 394              	.LBE11:
 395              		.cfi_endproc
 396              	.LFE3:
 397              		.size	ADC_Wakeup, .-ADC_Wakeup
 398              		.bss
 399              		.align	2
 400              		.set	.LANCHOR0,. + 0
 401              		.type	ADC_backup, %object
 402              		.size	ADC_backup, 1
 403              	ADC_backup:
 404 0000 00       		.space	1
 405 0001 000000   		.text
 406              	.Letext0:
 407              		.file 2 "Generated_Source\\PSoC5\\cytypes.h"
 408              		.file 3 "Generated_Source\\PSoC5\\ADC.h"