ARM GAS  C:\Users\Bruger\AppData\Local\Temp\ccbCZbei.s 			page 1


   1              		.syntax unified
   2              		.cpu cortex-m3
   3              		.fpu softvfp
   4              		.eabi_attribute 20, 1
   5              		.eabi_attribute 21, 1
   6              		.eabi_attribute 23, 3
   7              		.eabi_attribute 24, 1
   8              		.eabi_attribute 25, 1
   9              		.eabi_attribute 26, 1
  10              		.eabi_attribute 30, 4
  11              		.eabi_attribute 34, 1
  12              		.eabi_attribute 18, 4
  13              		.thumb
  14              		.file	"Arduino_Analog_Out.cpp"
  15              		.text
  16              	.Ltext0:
  17              		.section	.gnu.lto_.profile.ec59d632,"",%progbits
  18 0000 789C6366 		.ascii	"x\234cf```a\200\000F\006oq\000\001!\000k"
  18      60606061 
  18      80004606 
  18      6F710001 
  18      21006B
  19              		.text
  20              		.section	.gnu.lto_.jmpfuncs.ec59d632,"",%progbits
  21 0000 789C6366 		.ascii	"x\234cf\300\016\202\2414\023\02032}db\274\377\344\374"
  21      C00E82A1 
  21      34131033 
  21      327D6462 
  21      BCFFE4FC 
  22 0014 458E174C 		.ascii	"E\216\027L?\301\002\313\031\245\200\2420\212\221\271"
  22      3FC102CB 
  22      19A580A2 
  22      308A91B9 
  23 0024 9E19280C 		.ascii	"\236\031(\014R\265\344\342\375\213\314 U\214,\014\214"
  23      52B5E4E2 
  23      FD8BCC20 
  23      558C2C0C 
  23      8C
  24 0035 2B40D2CC 		.ascii	"+@\322\314\345\214\014($\003\000@E\020\365"
  24      E58C0C28 
  24      24030040 
  24      4510F5
  25              		.text
  26              		.section	.gnu.lto_.inline.ec59d632,"",%progbits
  27 0000 789C6366 		.ascii	"x\234cf\300\016\346Ai&\006\006v\011F\020\305\300\266"
  27      C00EE641 
  27      69260606 
  27      76094610 
  27      C5C0B6
  28 0013 409E092C 		.ascii	"@\236\011,\304\315\300\300\010%\031\031D\304\031Y\030"
  28      C4CDC0C0 
  28      08251919 
  28      44C41959 
  28      18
  29 0024 323E3231 		.ascii	"2>21\256\237\377\365\037\343\013\246\237LL\314\014\214"
  29      AE9FFFF5 
  29      1FE30BA6 
ARM GAS  C:\Users\Bruger\AppData\Local\Temp\ccbCZbei.s 			page 2


  29      9F4C4CCC 
  29      0C8C
  30 0036 CB19A518 		.ascii	"\313\031\245\030\300\242\375-\333\356\261\201EY\031"
  30      C0A2FD2D 
  30      DBEEB181 
  30      455919
  31 0045 1857C044 		.ascii	"\030W\300D?\377\373\274\227\011,\312\306\300\270\022"
  31      3FFFFBBC 
  31      97092CCA 
  31      C6C0B812 
  32 0055 24CAC8C0 		.ascii	"$\312\310\300\300\014\263C\340\200\235\002\310\"f\036"
  32      C00CB343 
  32      E0809D02 
  32      C822661E 
  33 0065 061906A6 		.ascii	"\006\031\006\246\011~ \273\004\030\030'\370\001i\016"
  33      097E20BB 
  33      04181827 
  33      F801690E 
  34 0075 28CD02A2 		.ascii	"(\315\002\242\031\000U\357\035s"
  34      190055EF 
  34      1D73
  35              		.text
  36              		.section	.gnu.lto_.pureconst.ec59d632,"",%progbits
  37 0000 789C6366 		.ascii	"x\234cf```e\200\000&\006\011F\011\000\000\361\000<"
  37      60606065 
  37      80002606 
  37      09460900 
  37      00F1003C 
  38              		.text
  39              		.section	.gnu.lto__Z15analogWriteInitv.ec59d632,"",%progbits
  40 0000 789C6366 		.ascii	"x\234cf\300\004R@\374\020\210\345\200\230\221\231\201"
  40      C0045240 
  40      FC1088E5 
  40      80989199 
  40      81
  41 0011 9169C239 		.ascii	"\221i\3029\006\206F\016&FF\020\203\201\221\241\236\211"
  41      0686460E 
  41      26464610 
  41      838191A1 
  41      9E89
  42 0023 B19EF125 		.ascii	"\261\236\361%\323G&\306\011\007V\317\340V_\332\320\320"
  42      D34726C6 
  42      090756CF 
  42      E0565FDA 
  42      D0D0
  43 0035 F061D351 		.ascii	"\360a\323Q\356V\211\237L\014\014\237\231 \3060.gTg\000"
  43      EE56899F 
  43      4C0C0C9F 
  43      9920C630 
  43      2E675467 
  44 004a AAF9D8F2 		.ascii	"\252\371\330\362\367:7[\013P\215\000D\216q\005#\033"
  44      F73A375B 
  44      0B508D00 
  44      448E7105 
  44      231B
  45 005c 23905E2F 		.ascii	"#\220^/t\240\341\377\377\315\323\016\306\26100<\001"
  45      74A0E1FF 
ARM GAS  C:\Users\Bruger\AppData\Local\Temp\ccbCZbei.s 			page 3


  45      FFCDD30E 
  45      C6B13030 
  45      3C01
  46 006e CA808C7F 		.ascii	"\312\200\214\177\312\304\004\242\231\3570\266\034\270"
  46      CAC404A2 
  46      99EF30B6 
  46      1CB8
  47 007c BD8711A4 		.ascii	"\275\207\021\244\026d\310\274\313}\353\230j\1777t4p"
  47      1664C8BC 
  47      CB7DEB98 
  47      6A7F3774 
  47      3470
  48 008e FC6462FC 		.ascii	"\374db\374\314\004\324\317\270\222\261\026$u\377\311"
  48      CC04D4CF 
  48      B892B116 
  48      2475FFC9 
  49 009e F98B1C2F 		.ascii	"\371\213\034/\230~\002520\256b\224\372\311\304\314\000"
  49      987E0235 
  49      3230AE62 
  49      94FAC9C4 
  49      CC00
  50 00b0 D21D834B 		.ascii	"\322\035\203K/H\335j\240^\230\342{\214\215\007\356\263"
  50      2F48DD6A 
  50      A05E98E2 
  50      7B8C8D07 
  50      EEB3
  51 00c2 80553380 		.ascii	"\200U3\200\034\302\010r\000P\221Lr~Qj\214cQJif^~\274"
  51      1CC20872 
  51      0050914C 
  51      727E516A 
  51      8C63514A 
  52 00db 635E624E 		.ascii	"c^bN~z\274\177i\211^rA\001\003\000\227\231Z\240"
  52      7E7ABC7F 
  52      69895E72 
  52      41010300 
  52      97995AA0 
  53              		.text
  54              		.section	.gnu.lto__Z11analogWritemh.ec59d632,"",%progbits
  55 0000 789C7592 		.ascii	"x\234u\222[K\224Q\024\206\367\273\367w\030\233\002\311"
  55      5B4B9451 
  55      1486F7BB 
  55      F777189B 
  55      02C9
  56 0012 8B62280A 		.ascii	"\213b(\012B,\210~@\020\350e\027\321\037(DLB\020\025"
  56      422C887E 
  56      4010E865 
  56      17D11F28 
  56      444C4210 
  57 0027 C9AE12F7 		.ascii	"\311\256\022\367\310\030A\250\203e\211d\032\031\232"
  57      C81841A8 
  57      83658964 
  57      1A199A
  58 0036 D68CE73C 		.ascii	"\326\214\347<\322\004\022\021\031j'\005\261\002+\203"
  58      D2041211 
  58      196A2705 
  58      B1022B83 
  59 0046 2E921919 		.ascii	".\222\031\031>\362\320^{\217\340P\016\314>\315z\327"
ARM GAS  C:\Users\Bruger\AppData\Local\Temp\ccbCZbei.s 			page 4


  59      3EF2D05E 
  59      7B8FE050 
  59      0ECC3ECD 
  59      7AD7
  60 0058 B3D63B4B 		.ascii	"\263\326;K\260\177?\027\325\367\236`\354\270\332\341"
  60      B07F3F17 
  60      D5F79E60 
  60      ECB8DAE1 
  61 0068 63E0E1B7 		.ascii	"c\340\341\267\214\005}\334r\247\262\230\364\011\275"
  61      8C057DDC 
  61      72A7B298 
  61      F409BD
  62 0077 5A7AB5CD 		.ascii	"Zz\265\315\013\034\023bm\037\354\355\203\003\327\034"
  62      0B1C1362 
  62      6D1FECED 
  62      8303D71C 
  63 0087 5C800E0C 		.ascii	"\\\200\016\014\254\232\013\313v\\T\343'_\345\010\307"
  63      AC9A0BCB 
  63      765C54E3 
  63      275FE508 
  63      C7
  64 0098 7A9AFD39 		.ascii	"z\232\3759\217\244\224\277\033;\017\324\036\3648cqn"
  64      8FA494BF 
  64      1B3B0FD4 
  64      1EF43863 
  64      716E
  65 00aa 2A412772 		.ascii	"*A'rT\310L\2677\350\210#`\352<\032IL\373W\270\307q\224"
  65      54C84CB7 
  65      37E88823 
  65      60EA3C1A 
  65      494CFB57 
  66 00c2 AE638DAF 		.ascii	"\256c\215\257\232\035\272r\213\256/\237\017\257\370"
  66      9A1DBA72 
  66      8BAE2F9F 
  66      0FAFF8
  67 00d1 B31F4A59 		.ascii	"\263\037JY\023\033\357\227\271\226\307\005\272 T><F"
  67      131BEF97 
  67      B996C705 
  67      BA20543E 
  67      3C46
  68 00e3 00DD0830 		.ascii	"\000\335\0100\365\304\320\203l\025\035\357\221\267\205"
  68      F5C4D083 
  68      6C151DEF 
  68      91B785
  69 00f2 38A6F3F6 		.ascii	"8\246\363\366\316No\272F9\037\221\271\360\270\205'F"
  69      CE4E6FBA 
  69      46391F91 
  69      B9F0B885 
  69      2746
  70 0104 79328013 		.ascii	"y2\200\023\244\263\030\236\"\233\202WC\033\237\374N"
  70      A4B3189E 
  70      229B8257 
  70      431B9FFC 
  70      4E
  71 0115 48D59C69 		.ascii	"H\325\234ijE\004\016\324\036\335\037\223[[\003\255/"
  71      6A45040E 
  71      D41EDD1F 
ARM GAS  C:\Users\Bruger\AppData\Local\Temp\ccbCZbei.s 			page 5


  71      935B5B03 
  71      AD2F
  72 0127 26E087C6 		.ascii	"&\340\207\306X\240\325\201\226\262e\025L6|\343\234v"
  72      58A0D581 
  72      96B26515 
  72      4C367CE3 
  72      9C76
  73 0139 B180DA58 		.ascii	"\261\200\332Xr/\251\223\334R\211\347\326\327\273\320"
  73      722FA993 
  73      DC5289E7 
  73      D6D7BBD0 
  74 0149 80BA6048 		.ascii	"\200\272`H~Y\330CV\260\204\366\002Q\365\254\002\242"
  74      7E59D843 
  74      56B084F6 
  74      0251F5AC 
  74      02A2
  75 015b 6D6B9BA0 		.ascii	"mk\233\240~\205\240BF\346\3027\035\023\337~F\205\243"
  75      7E85A042 
  75      46E6C237 
  75      1D13DF7E 
  75      4685A3
  76 016e 577598E0 		.ascii	"Wu\230\340T\012\372\214\242!4\274\244\035\0226)\352"
  76      540AFA8C 
  76      A22134BC 
  76      A41D1236 
  76      29EA
  77 0180 821FA495 		.ascii	"\202\037\244\225R\234%E\277V\350&\006\214\"\276\031"
  77      529C2545 
  77      BF56E826 
  77      068C22BE 
  77      19
  78 0191 9FE45AE1 		.ascii	"\237\344Z\341\220\"\332\375\365:O)\316\221bP+\004)\206"
  78      9022DAFD 
  78      F53A4F29 
  78      CE916250 
  78      2B042986 
  79 01a5 9482513B 		.ascii	"\224\202Q;\202Me\211y\0043\251\027*\340#jb\033\327\264"
  79      824D6589 
  79      790433A9 
  79      172AE023 
  79      6A621BD7 
  80 01ba 2FC6ECD7 		.ascii	"/\306\354\327+-\365\373t\326[\355A\251\274\034Vi\026"
  80      2B2DF5FB 
  80      74D65BED 
  80      41A9BC1C 
  80      566916
  81 01cd 118A6D25 		.ascii	"\021\212m%@a\204\272\377\256>\302\253\376\310\033\322"
  81      406184BA 
  81      FFAE3EC2 
  81      ABFEC81B 
  81      D2
  82 01de E7713B4E 		.ascii	"\347q;N}\340\031\252X\222;\036w4\310J\007q\015j\252"
  82      7DE019AA 
  82      58923B1E 
  82      7734C84A 
  82      07710D6A 
  83 01f3 DA01EA9B 		.ascii	"\332\001\352\233\351z 4\250\311\200FR\240\273k\273\202"
ARM GAS  C:\Users\Bruger\AppData\Local\Temp\ccbCZbei.s 			page 6


  83      E97A2034 
  83      A8C98046 
  83      52A0BB6B 
  83      BB82
  84 0205 54FB184D 		.ascii	"T\373\030M\007\331\351 \241A\255;A\255-\336{\003\272"
  84      07D9E920 
  84      A141AD3B 
  84      41AD2DDE 
  84      7B03BA
  85 0218 63406329 		.ascii	"c@c)P\333\356 \345\032\306\323A\016{sZ\250\344\231z"
  85      50DBEE20 
  85      E51AC6D3 
  85      410E7B73 
  85      5AA8E499 
  86 022d 5E92AAE9 		.ascii	"^\222\252\351E5\025\343\033\377\317\341\306\225\005"
  86      453515E3 
  86      1BFFCFE1 
  86      C69505
  87 023c 0C133A07 		.ascii	"\014\023:\007\375[\035\263\237gu\025>U\301$\002\036"
  87      FD5B1DB3 
  87      9F677515 
  87      3E55C124 
  87      021E
  88 024e CF60EC3B 		.ascii	"\317`\354;@\376\212_?\\j\337\352\310\240\342\354\345"
  88      40FE8A5F 
  88      3F5C6ADF 
  88      EAC8A0E2 
  88      ECE5
  89 0260 0CC573F5 		.ascii	"\014\305s\365\344Qgz\266\226\020\214\015\035\326,F\003"
  89      E451677A 
  89      B696108C 
  89      0D1DD62C 
  89      4603
  90 0272 0AFA59BD 		.ascii	"\012\372Y\275\037*,\253(\272\220Wq\251\262\270\264,"
  90      1F2A2CAB 
  90      28BA9057 
  90      71A9B2B8 
  90      B42C
  91 0284 3FAFB4A0 		.ascii	"?\257\264\240\244\354r\376\371\312+\247\012\313\313"
  91      A4EC72FE 
  91      F9CA2BA7 
  91      0ACBCB
  92 0293 99282F2E 		.ascii	"\231(/.\265\257\026\224T\026\375\005/%Pn"
  92      B5AF1694 
  92      5416FD05 
  92      2F25506E 
  93              		.text
  94              		.section	.gnu.lto_.symbol_nodes.ec59d632,"",%progbits
  95 0000 789C4DC9 		.ascii	"x\234M\311;\016\302@\014\204\341\177\327y\225\334\210"
  95      3B0EC240 
  95      0C84E17F 
  95      D77995DC 
  95      88
  96 0011 A34D1088 		.ascii	"\243M\020\210\264\364H@\221;\320\362XRr\006\012\032"
  96      B4F44840 
  96      913BD0F2 
  96      58527206 
ARM GAS  C:\Users\Bruger\AppData\Local\Temp\ccbCZbei.s 			page 7


  96      0A1A
  97 0023 2A4E10C4 		.ascii	"*N\020\304*P\330.<\337\330\200#\377\211s\301\346\016"
  97      2A50D82E 
  97      3CDFD880 
  97      23FF8973 
  97      C1E60E
  98 0036 12BB4343 		.ascii	"\022\273CC<\241\340\213pA\361W\320\266\331gd\336\003"
  98      3CA1E08B 
  98      7041F157 
  98      D0B6D967 
  98      64DE03
  99 0049 2ABC6FA8 		.ascii	"*\274o\250\364N\250\362\276\242\332\331\362\366\217"
  99      F44EA8F2 
  99      BEA2DAD9 
  99      F2F68F
 100 0058 CF221891 		.ascii	"\317\"\030\2214\205P\263z\355\033\013\025\317\351\226"
 100      348550B3 
 100      7AED1B0B 
 100      15CFE996 
 101 0068 A4F5B8CC 		.ascii	"\244\365\270\314\217\202\276{og|\001;n3\200"
 101      8F82BE7B 
 101      6F677C01 
 101      3B6E3380 
 102              		.text
 103              		.section	.gnu.lto_.refs.ec59d632,"",%progbits
 104 0000 789C6366 		.ascii	"x\234cf```d\200\002\000\000=\000\005"
 104      60606064 
 104      80020000 
 104      3D0005
 105              		.text
 106              		.section	.gnu.lto_.decls.ec59d632,"",%progbits
 107 0000 789CBD56 		.ascii	"x\234\275V}P\224\325\032\177\317{\336\205\365\005\301"
 107      7D5094D5 
 107      1A7FCF7B 
 107      DE85F505 
 107      C1
 108 0011 3B53DAEC 		.ascii	";S\332\3544\005\30505)ady\233\2464u\212\362c\257\311"
 108      3405C530 
 108      35296164 
 108      799BA634 
 108      758AF263 
 109 0027 34533BF3 		.ascii	"4S;\363\266-o\2703\260K\313r\347\372\337\001T\010\215"
 109      B62D6FB8 
 109      33B04BCB 
 109      72E7FADF 
 109      0154088D 
 110 003b 10B8B97E 		.ascii	"\020\270\271~\325^\305\017 \023?n\202\202|\250\211\002"
 110      D55EC50F 
 110      20133F6E 
 110      82827CA8 
 110      8902
 111 004d 995F0989 		.ascii	"\231_\011\211\327U\222\274^\015\024\2545\224\3559\347"
 111      D75592BC 
 111      5E0D14AC 
 111      3594ED39 
 111      E7
 112 005e BC2FBB08 		.ascii	"\274/\273\010\314\370\327=\343\331\367<\347<\317\357"
ARM GAS  C:\Users\Bruger\AppData\Local\Temp\ccbCZbei.s 			page 8


 112      CCF8D73D 
 112      E3D9F73C 
 112      E73CCFEF 
 113 006e F93DBFF3 		.ascii	"\371=\277\363\201X\020\004?\364\000\264\363\023\004"
 113      81581004 
 113      3FF400B4 
 113      F31304
 114 007d E11D2C08 		.ascii	"\341\035,\010\360O0\013\374[\005\375\004\364.\2017#"
 114      F04F300B 
 114      FC5B05FD 
 114      04F42E81 
 114      3723
 115 008f F46EE8BD 		.ascii	"\364n\350\275\320\373\241\337\201>\010\375>\305\200"
 115      D0FBA1DF 
 115      813E08FD 
 115      3EC580
 116 009e 8E9030AA 		.ascii	"\216\2200\252Q\177I\303\024\021\307\274\245\255am\375"
 116      517F49C3 
 116      1411C7BC 
 116      A5AD616D 
 116      FD
 117 00af 8E86F760 		.ascii	"\216\206\367`\243yd-6\012z\244\306\345\232\206Eq0\342"
 117      A379642D 
 117      360A7AA4 
 117      C6E59A86 
 117      457130E2 
 118 00c3 1CFD5A8C 		.ascii	"\034\375Z\214A\213\243\\\002\032\267A\215\203\004s\006"
 118      418BA35C 
 118      021AB741 
 118      8D830473 
 118      06
 119 00d4 E861D0C3 		.ascii	"\350a\320\303\037\340zKD?6\344\347\0331\000\303\270"
 119      1FE07A4B 
 119      443F36E4 
 119      E71B3100 
 119      C3B8
 120 00e6 BB714D77 		.ascii	"\273qMw\304\324JBH\001ilDA\247\234m\007W\207_\023\321"
 120      C4D44A42 
 120      4801696C 
 120      4441A79C 
 120      6D075787 
 121 00fd 64999945 		.ascii	"d\231\231E\255\353\23303\0034N\354\354,\273\213\221"
 121      ADEB9B30 
 121      3303344E 
 121      ECEC2CBB 
 121      8B91
 122 010f 1C5F4048 		.ascii	"\034_@H.\351+!\3701\001M5\241gM\002\372\032\305\263"
 122      2EE92B21 
 122      F831014D 
 122      35A1674D 
 122      02FA1AC5 
 123 0124 2854814C 		.ascii	"(T\201L\250\022\231\204r@\357\253\350;\3638!\022\252"
 123      A8129984 
 123      7240EFAB 
 123      E83BF338 
 123      2112AA
 124 0137 4232DA8E 		.ascii	"B2\332\2160\332\201\246R\366\324\2216:\017iZ\2526}\210"
ARM GAS  C:\Users\Bruger\AppData\Local\Temp\ccbCZbei.s 			page 9


 124      30DA81A6 
 124      52F6D491 
 124      363A0F69 
 124      5AAA367D 
 125 014c 93680669 		.ascii	"\223h\006i\240\243\257.\032\231L\361\262\007\270\371"
 125      A0A3AF2E 
 125      1A994CF1 
 125      B207B8F9 
 126 015c 5F47BB91 		.ascii	"_G\273\221,x\210\221}\031\244\237\220Y\314D;\021\016"
 126      2C788891 
 126      7D19A49F 
 126      9059CC44 
 126      3B110E
 127 016f 29710C4E 		.ascii	")q\014N\325\300\211\306\011h\027\220\372\006H\335\022"
 127      D5C089C6 
 127      09681790 
 127      FA0648DD 
 127      12
 128 0180 F1C586D2 		.ascii	"\361\305\206\322\037$d\222M\024u/\254j\201\325\223>"
 128      1F246492 
 128      4D14752F 
 128      AC6A81D5 
 128      933E
 129 0192 1911B897 		.ascii	"\031\021\270\227\005\356\201\300}\020H\331\314ds\300"
 129      05EE81C0 
 129      7D1048D9 
 129      CC6473C0 
 130 01a2 B7BEA3FA 		.ascii	"\267\276\243\372i<\227)\331[\361i\276\001/`\343\253"
 130      693C9729 
 130      D95BF169 
 130      BE012F60 
 130      E3AB
 131 01b4 AB06DB64 		.ascii	"\253\006\333d\274\204\215[\0137\255\222\360\373l\\\\"
 131      BC848D5B 
 131      0B37AD92 
 131      F0FB6C5C 
 131      5C
 132 01c5 F47B9901 		.ascii	"\364{\231\001\247\261\361\201\235\345~\214]|\027\256"
 132      A7B1F181 
 132      9DE57E8C 
 132      5D7C17AE 
 133 01d5 167647E0 		.ascii	"\026vG\340\034\304\214\376S\375y\023\361\347\314\230"
 133      1CC48CFE 
 133      53FD7913 
 133      F1E7CC98 
 134 01e5 B2B1E078 		.ascii	"\262\261\340x\233\021\305I\222\311\024g\212\227\340"
 134      9B11C549 
 134      92C91467 
 134      8A97E0
 135 01f4 2B194D71 		.ascii	"+\031Mq\264\231$\323f\342!}\365[\257\317\312#\263\320"
 135      B49924D3 
 135      66E2217D 
 135      F55BAFCF 
 135      CA23B3D0 
 136 0208 096444FB 		.ascii	"\011dD\373AX\370R=\317\000UQ@\2650\363\003\212C\015"
 136      4158F852 
 136      3DCF0055 
ARM GAS  C:\Users\Bruger\AppData\Local\Temp\ccbCZbei.s 			page 10


 136      5140B530 
 136      F3038A43 
 137 021d 48A2E601 		.ascii	"H\242\346\0010\277\007\3634\230\264\220\307\230;\035"
 137      30BF07F3 
 137      3498B490 
 137      C7983B1D 
 138 022d 25B21145 		.ascii	"%\262\021E\364UvG\023\304\360\352\202xMZ\3511l\242\234"
 138      F4557647 
 138      13C4F0EA 
 138      82784D5A 
 138      E9316CA2 
 139 0242 7889AFE2 		.ascii	"x\211\257\342p\016\350O\375\376=\274\241Z\203T\224K"
 139      700EE84F 
 139      FDFE3DBC 
 139      A15A8354 
 139      944B
 140 0254 3DA43AC6 		.ascii	"=\244:\3063\177\013f\033\230G\271Y\003\346I0\017iD\236"
 140      337F0B66 
 140      1B9847B9 
 140      5903E649 
 140      300F6944 
 141 0269 61B0B040 		.ascii	"a\260\260@S6\2438AX\3116#\227`O\024U[\337\220#\260!"
 141      5336A338 
 141      4158C936 
 141      2397604F 
 141      14555BDF 
 142 0281 3425A463 		.ascii	"4%\244c\343\357\2204\274\247t\037\365*\032w\020n\261"
 142      E3EF9034 
 142      BCA7741F 
 142      F52A1A77 
 142      106EB1
 143 0294 CC5A11AD 		.ascii	"\314Z\021\255\340D\027\275\225\230\027x0\270\326\242"
 143      E04417BD 
 143      95981778 
 143      30B8D6A2 
 144 02a4 ADF92AB6 		.ascii	"\255\371*\266<\241\225\177 \270zX[ml\320ak\202\213\247"
 144      3CA1957F 
 144      20B87A58 
 144      5B6D6CD0 
 144      616B828B 
 145 02b9 F4C58BFA 		.ascii	"\364\305\213\372bmp\261Q\023n\222^!\315\331\016\245"
 145      626D70B1 
 145      51136E92 
 145      5E21CDD9 
 145      0EA5
 146 02cb 1FD74AE7 		.ascii	"\037\327J\347\234\351\017l~\3557\003\355\021p\317\242"
 146      9CE90F6C 
 146      7EED3703 
 146      ED1170CF 
 146      A2
 147 02dc E4187648 		.ascii	"\344\030vHJZ<a`F\312\0225\033\016\371\277\223\361>~"
 147      4A5A3C61 
 147      6046CA12 
 147      351B0EF9 
 147      BF93F13E 
 148 02f1 4E5617F8 		.ascii	"NV\027\370\216\313\270\236\033\372u\215\345\327\365"
 148      8ECBB89E 
ARM GAS  C:\Users\Bruger\AppData\Local\Temp\ccbCZbei.s 			page 11


 148      1BFA758D 
 148      E5D7F5
 149 0300 D286BBE5 		.ascii	"\322\206\273\345\023\230I\337\274hzc[z\310\226(\024"
 149      139849DF 
 149      BC687A63 
 149      5B7AC896 
 149      2814
 150 0312 2FB3ABE3 		.ascii	"/\263\253\343\331~\345-zh.\200\260\347\203\2671V\016"
 150      D97EE52D 
 150      7A682E80 
 150      B0E783B7 
 150      31560E
 151 0325 B941C579 		.ascii	"\271A\305ydBK\224\200\316\202\272\347\240\010\364\023"
 151      64424B94 
 151      80CE82BA 
 151      E7A008F4 
 151      13
 152 0336 C84D3D50 		.ascii	"\310M=P\007\314t\262;$\036\275wh\271A\177\007FE\\|0"
 152      07CC74B2 
 152      3B241EBD 
 152      7768B941 
 152      7F074645 
 153 034d 8225DF50 		.ascii	"\202%\337P\265v2}\012\272 \371\217\301\344\027\220\376"
 153      B576327D 
 153      0ABA20F9 
 153      8FC1E417 
 153      90FE
 154 035f 1674B1B7 		.ascii	"\026t\261\267\240\365\212\277?\222I1\211\226\264\376"
 154      A0F58ABF 
 154      3F924931 
 154      8996B4FE 
 155 036f FCD501CC 		.ascii	"\374\325\001\314\244\020\251\371\355\335\337v\205M\371"
 155      A410A9F9 
 155      EDDDDF76 
 155      854DF9
 156 037e 27A12D8F 		.ascii	"'\241-\217L\022\221y2\372\017d\271\004Y\004\344CS\340"
 156      4C129179 
 156      32FA0F64 
 156      B9045904 
 156      E44353E0 
 157 0392 F70389BF 		.ascii	"\367\003\211\277e\365\245\315+\303q=fJ\235\2539\267"
 157      65F5A5CD 
 157      2BC3713D 
 157      664A9DAB 
 157      39B7
 158 03a4 251AB773 		.ascii	"%\032\267scp[\305Q9\346K\342\365\366\235\350-\304\353"
 158      63705BC5 
 158      5139E64B 
 158      E2F5F69D 
 158      E82DC4EB 
 159 03b8 8837870C 		.ascii	"\2107\207\014\005\340\211\243\010\350r\360X\243+\332"
 159      05E089A3 
 159      08E872F0 
 159      58A32BDA 
 160 03c8 1383BA51 		.ascii	"\023\203\272Q\014\004\256=\325\261_\302\001\216Rx\241"
 160      0C04AE3D 
 160      D5B15FC2 
ARM GAS  C:\Users\Bruger\AppData\Local\Temp\ccbCZbei.s 			page 12


 160      018E5278 
 160      A1
 161 03d9 A22D1CE7 		.ascii	"\242-\034\347K\354e,\351\036\330\212\306~\031\177\031"
 161      4BEC652C 
 161      E91ED88A 
 161      C67E197F 
 161      19
 162 03ea F365F46C 		.ascii	"\363e\364l\377\234\275\214= \307\325\321/#@\372\316"
 162      FF9CBD8C 
 162      3D20C7D5 
 162      D12F2340 
 162      FACE
 163 03fc 6FFDDBD8 		.ascii	"o\375\333\330\210\377\035\023qCU\353\243\024\361\032"
 163      88FF1D13 
 163      714355EB 
 163      A314F11A 
 164 040c 20FE1C44 		.ascii	" \376\034D\354A\303\220\350\313\333\353\213\214\222"
 164      EC41C390 
 164      E8CBDBEB 
 164      8B8C92
 165 041b 08B3D4E9 		.ascii	"\010\263\324\351\003v\272:\3166\337\014gstg\256#6\271"
 165      0376BA3A 
 165      CE36DF0C 
 165      67737467 
 165      AE2336B9 
 166 042f AE797541 		.ascii	"\256yuA\324\270:\337`:\377\017iB\027\235\2519\"\342"
 166      D4B83ADF 
 166      603AFF0F 
 166      6942179D 
 166      A93922E2 
 167 0443 354C0854 		.ascii	"5L\010T\326\265\323\023\2157q\303\227{\2541R\023zWQ"
 167      D6B5D313 
 167      8D3771C3 
 167      977BAC31 
 167      52137A57 
 168 0458 A8D00081 		.ascii	"\250\320\000\201n\206\010\375\253.t/\023\272xES\261"
 168      6E8608FD 
 168      AB2E742F 
 168      13BA7845 
 168      53B1
 169 046a C448550D 		.ascii	"\304HU\015\023m[\273\2619b\\N\267\030\247>\235S\207"
 169      136D5BBB 
 169      B139625C 
 169      4EB718A7 
 169      3E9D5387 
 170 047e 774F8D88 		.ascii	"wO\215\210wq\032\245M\277\236\020\201\206\217\364\015"
 170      77711AA5 
 170      4DBF9E10 
 170      81868FF4 
 170      0D
 171 048f EDAE7B7B 		.ascii	"\355\256{{M^q\031\361\005\002O\262(t;\204\306m\235F"
 171      4D5E7119 
 171      F105024F 
 171      B228743B 
 171      84C66D9D 
 172 04a4 3FA3D172 		.ascii	"?\243\321r\364t\245\210/s\224\263\307\274\003\034\245"
 172      F474A588 
ARM GAS  C:\Users\Bruger\AppData\Local\Temp\ccbCZbei.s 			page 13


 172      2F7394B3 
 172      C7BC031C 
 172      A5
 173 04b5 F8DADED4 		.ascii	"\370\332\336\324\346\\r/\020\300\034b \004b@\207\270"
 173      E65C722F 
 173      10C01C62 
 173      20046240 
 173      87B8
 174 04c7 C320AA6F 		.ascii	"\303 \252o\356\271\303\345\245/\004\257d\263\367r\217"
 174      EEB9C3E5 
 174      A52F04AF 
 174      64B3F772 
 174      8F
 175 04d8 7158F2DF 		.ascii	"qX\362\337\270\344\253;\217\\\037\277<?+\357w\275<\177"
 175      B8E4AB3B 
 175      8F5C1FBF 
 175      3C3F2BEF 
 175      77BD3C7F 
 176 04ec 674E5104 		.ascii	"gNQ\004.50b\007;/\324\213x\0037.\035\350\251\323j\255"
 176      2E353062 
 176      073B2FD4 
 176      8B780337 
 176      2E1DE8A9 
 177 0503 DFDA9FB8 		.ascii	"\337\332\237\270\216\374K\227\034 \320\335\020\242\177"
 177      8EFC4B97 
 177      1C20D0DD 
 177      10A27F
 178 0512 E8440719 		.ascii	"\350D\007\031\321\301\332\323\307\214\270\232\243ln"
 178      D1C1DAD3 
 178      C78CB89A 
 178      A36C6E
 179 0521 AFB82173 		.ascii	"\257\270!s\224\202\375\243\024\273\027\202rOG\271\317"
 179      9482FDA3 
 179      14BB1782 
 179      724F47B9 
 179      CF
 180 0532 504E0D0D 		.ascii	"PN\015\015~\026\211\177\346(\203\015\005\3675\305n\354"
 180      7E16897F 
 180      E628830D 
 180      05F735C5 
 180      6EEC
 181 0544 1FA9D850 		.ascii	"\037\251\330P\010\304\220\016\021`\020\275g\272n\213"
 181      08C4900E 
 181      116010BD 
 181      67BA6E8B 
 182 0554 D813C620 		.ascii	"\330\023\306 v\177q\270n\"\207\350\250\035\011A\304"
 182      767F71B8 
 182      6E2287E8 
 182      A81D0941 
 182      C4
 183 0565 20048C39 		.ascii	" \004\2149D\216H!\226\2276\225\310\221\205\301\327\211"
 183      448E4821 
 183      96973695 
 183      C89185C1 
 183      D789
 184 0577 05E80F94 		.ascii	"\005\350\017\224\200r\305H\346\015_J\363\340\345O\321"
 184      8072C548 
ARM GAS  C:\Users\Bruger\AppData\Local\Temp\ccbCZbei.s 			page 14


 184      E60D5F4A 
 184      F3E0E54F 
 184      D1
 185 0588 086FFF08 		.ascii	"\010o\377\010\357<\315;\217y\227\224o\372::\366+\372"
 185      EF3CCD3B 
 185      8F799794 
 185      6FFA3A3A 
 185      F62BFA
 186 059b 7FA7C637 		.ascii	"\177\247\3067`\223\330\221\345\311\227\213\261t\007"
 186      6093D891 
 186      E5C9978B 
 186      B17407
 187 05aa 56B42E37 		.ascii	"V\264.70\0078\364'ER&\215\364Z\301\274\362\276\330\346"
 187      300738F4 
 187      27455226 
 187      8DF45AC1 
 187      BCF2BED8 
 188 05bf E55EDEE3 		.ascii	"\345^\336\343d\007\374%\030\341\263\222\371\354[u\262"
 188      6407FC25 
 188      18E1B392 
 188      F9EC5B75 
 188      B2
 189 05d0 249CFBB4 		.ascii	"$\234\373\264\217\366\311\027c\005C\266\335\341\236"
 189      8FF6C917 
 189      630543B6 
 189      DDE19E
 190 05df 697C7361 		.ascii	"i|saJ\314\234\347\236\023b\337T\035\252\313\352VS\225"
 190      4ACC9CE7 
 190      9E1362DF 
 190      541DAACB 
 190      EA565395 
 191 05f3 779DD92E 		.ascii	"w\235\331.\233j1\277\353\2343\343y\3332\367\262L5+a"
 191      9B6A31BF 
 191      EB9C33E3 
 191      79DB32F7 
 191      B24C352B 
 192 0608 A920D996 		.ascii	"\251 \331\226Z]\021\257~\224mOwO\263;^\023\214\346\344"
 192      5A5D11AF 
 192      7E946D4F 
 192      774FB33B 
 192      5E138CE6 
 193 061d 85CA8245 		.ascii	"\205\312\202Es\347\205-JYbNYbH^\010\277\221\354W1\247"
 193      73E7852D 
 193      4A59624E 
 193      5962485E 
 193      08BF91EC 
 194 0634 CC9F9F62 		.ascii	"\314\237\237b\226\315\363\026'\233\337\232\267x\366"
 194      96CDF316 
 194      279BDF9A 
 194      B778F6
 195 0643 FCA8E050 		.ascii	"\374\250\340P\001\377\211!f\362\302Pk\321\334\311\011"
 195      01FF8921 
 195      66F2C250 
 195      6BD1DCC9 
 195      09
 196 0654 169BD3A5 		.ascii	"\026\233\323\245>?\333\225\012$\235\212\331\356\240"
 196      3E3FDB95 
ARM GAS  C:\Users\Bruger\AppData\Local\Temp\ccbCZbei.s 			page 15


 196      0A249D8A 
 196      D9EEA0
 197 0663 048C9471 		.ascii	"\004\214\224q\322\013\212[V\024}\230\203l\257X2]\316"
 197      D20B8A5B 
 197      56147D98 
 197      836CAF58 
 197      325DCE
 198 0676 34973523 		.ascii	"4\2275#\346c{\272\232\025\363\314?f\276\364\254\305"
 198      E6637BBA 
 198      9A15F3CC 
 198      3F66BEF4 
 198      ACC5
 199 0688 B62CD3A5 		.ascii	"\266,\323\245feY2\263\234\266\030\233K\265\272\235."
 199      66655932 
 199      B39CB618 
 199      9B4BB5BA 
 199      9D2E
 200 069a CB8B0989 		.ascii	"\313\213\011\211#'\354\031\231N\227\333\222\346\310"
 200      2327EC19 
 200      994E97DB 
 200      92E6C8
 201 06a9 B6585D19 		.ascii	"\266X]\031\260\376\327\204$:\232\346p:\324i\252\365"
 201      B0FED784 
 201      243A9AE6 
 201      703AD469 
 201      AAF5
 202 06bb 23BBC5EE 		.ascii	"#\273\305\356\260\245g\247\252\226\014\253m\251\335"
 202      B0A567A7 
 202      AA960CAB 
 202      6DA9DD
 203 06ca A15A9454 		.ascii	"\241Z\224T\365ckv\272[\321u\371\344\377\305 \313\235"
 203      F5636B76 
 203      BA5BD175 
 203      F9E4FFC5 
 203      20CB9D
 204 06dd 0A5543C6 		.ascii	"\012UC\306h\253\303\232\356L{\317ew\253\311\016\273"
 204      68ABC39A 
 204      EE4C7BCF 
 204      6577ABC9 
 204      0EBB
 205 06ef FB11E5FD 		.ascii	"\373\021\345\375\3513\036\230\373\373\343TB\213.\341"
 205      E9331E98 
 205      FBFBE354 
 205      428B2EE1 
 206 06ff 6CB6AA2C 		.ascii	"l\266\252,\312v'\33023\205p\266\371\212{\002W\022F\021"
 206      CA7627D8 
 206      32338570 
 206      B6F98A7B 
 206      02571246 
 207 0714 21F17F01 		.ascii	"!\361\177\001\274\351!v\306\322\250\271\323\247+s\334"
 207      BCE92176 
 207      C6D2A8B9 
 207      D3A72B73 
 207      DC
 208 0725 AE74854D 		.ascii	"\256t\205M<5\316a\321\275\200#D$>TD\242\036\021\236"
 208      3C35CE61 
 208      D1BD8023 
ARM GAS  C:\Users\Bruger\AppData\Local\Temp\ccbCZbei.s 			page 16


 208      44243E54 
 208      44A21E11 
 209 073a 69772C70 		.ascii	"iw,p\246\252P\315\313\3320c\246~\304\242\315\357-P\026"
 209      A6AA50CD 
 209      CBDA3063 
 209      A67EC4A2 
 209      CDEF2D50 
 210 074f AB69CA4B 		.ascii	"\253i\312K\034\357\351q\360\206\335\250L\2721\343\341"
 210      1CEFE971 
 210      F086DDA8 
 210      4CBA31E3 
 210      E1
 211 0760 626684C6 		.ascii	"bf\204\306$=\\L\022\304\374\011\375\362+\376"
 211      243D5C4C 
 211      12C4FC09 
 211      FDF22BFE 
 212              		.text
 213              		.section	.gnu.lto_.symtab.ec59d632,"",%progbits
 214 0000 5F5A3135 		.ascii	"_Z15analogWriteInitv\000\000\000\000\000\000\000\000"
 214      616E616C 
 214      6F675772 
 214      69746549 
 214      6E697476 
 215 001c 00000000 		.ascii	"\000\000\000\000\343\000\000\000_Z11analogWritemh\000"
 215      E3000000 
 215      5F5A3131 
 215      616E616C 
 215      6F675772 
 216 0036 00000000 		.ascii	"\000\000\000\000\000\000\000\000\000\000\000\357\000"
 216      00000000 
 216      000000EF 
 216      00
 217 0043 00004431 		.ascii	"\000\000D11_Ctrl_Write\000\000\002\000\000\000\000\000"
 217      315F4374 
 217      726C5F57 
 217      72697465 
 217      00000200 
 218 005b 00000000 		.ascii	"\000\000\000\000\363\000\000\000D10_Ctrl_Write\000\000"
 218      F3000000 
 218      4431305F 
 218      4374726C 
 218      5F577269 
 219 0073 02000000 		.ascii	"\002\000\000\000\000\000\000\000\000\000\365\000\000"
 219      00000000 
 219      0000F500 
 219      00
 220 0080 005F5A37 		.ascii	"\000_Z7pinModem8PIN_MODE\000\000\002\000\000\000\000"
 220      70696E4D 
 220      6F64656D 
 220      3850494E 
 220      5F4D4F44 
 221 009c 00000000 		.ascii	"\000\000\000\000\000\373\000\000\000PWM_Reg_6_Write"
 221      00FB0000 
 221      0050574D 
 221      5F526567 
 221      5F365F57 
 222 00b4 00000200 		.ascii	"\000\000\002\000\000\000\000\000\000\000\000\000\375"
ARM GAS  C:\Users\Bruger\AppData\Local\Temp\ccbCZbei.s 			page 17


 222      00000000 
 222      00000000 
 222      FD
 223 00c1 00000050 		.ascii	"\000\000\000PWM_Reg_5_Write\000\000\002\000\000\000"
 223      574D5F52 
 223      65675F35 
 223      5F577269 
 223      74650000 
 224 00d9 00000000 		.ascii	"\000\000\000\000\000\000\377\000\000\000PWM_Reg_3_W"
 224      0000FF00 
 224      00005057 
 224      4D5F5265 
 224      675F335F 
 225 00ee 72697465 		.ascii	"rite\000\000\002\000\000\000\000\000\000\000\000\000"
 225      00000200 
 225      00000000 
 225      00000000 
 226 00fe 01010000 		.ascii	"\001\001\000\000"
 227              		.text
 228              		.section	.gnu.lto_.opts,"",%progbits
 229 0000 272D6665 		.ascii	"'-fexceptions' '-fno-trapv' '-mcpu=cortex-m3' '-mth"
 229      78636570 
 229      74696F6E 
 229      73272027 
 229      2D666E6F 
 230 0033 756D6227 		.ascii	"umb' '-g' '-Os' '-ffunction-sections' '-finline-fun"
 230      20272D67 
 230      2720272D 
 230      4F732720 
 230      272D6666 
 231 0066 6374696F 		.ascii	"ctions' '-flto' '-ffat-lto-objects'\000"
 231      6E732720 
 231      272D666C 
 231      746F2720 
 231      272D6666 
 232              		.text
 233              		.cfi_sections	.debug_frame
 234              		.section	.text._Z15analogWriteInitv,"ax",%progbits
 235              		.align	1
 236              		.global	_Z15analogWriteInitv
 237              		.thumb
 238              		.thumb_func
 239              		.type	_Z15analogWriteInitv, %function
 240              	_Z15analogWriteInitv:
 241              		.fnstart
 242              	.LFB63:
 243              		.file 1 "core\\Arduino_Analog_Out.cpp"
   1:core/Arduino_Analog_Out.cpp **** /* ========================================
   2:core/Arduino_Analog_Out.cpp ****  *
   3:core/Arduino_Analog_Out.cpp ****  * Copyright YOUR COMPANY, THE YEAR
   4:core/Arduino_Analog_Out.cpp ****  * All Rights Reserved
   5:core/Arduino_Analog_Out.cpp ****  * UNPUBLISHED, LICENSED SOFTWARE.
   6:core/Arduino_Analog_Out.cpp ****  *
   7:core/Arduino_Analog_Out.cpp ****  * CONFIDENTIAL AND PROPRIETARY INFORMATION
   8:core/Arduino_Analog_Out.cpp ****  * WHICH IS THE PROPERTY OF your company.
   9:core/Arduino_Analog_Out.cpp ****  *
  10:core/Arduino_Analog_Out.cpp ****  * ========================================
ARM GAS  C:\Users\Bruger\AppData\Local\Temp\ccbCZbei.s 			page 18


  11:core/Arduino_Analog_Out.cpp **** */
  12:core/Arduino_Analog_Out.cpp **** extern "C" {
  13:core/Arduino_Analog_Out.cpp **** #include <project.h>
  14:core/Arduino_Analog_Out.cpp **** }
  15:core/Arduino_Analog_Out.cpp **** 
  16:core/Arduino_Analog_Out.cpp **** #include <Arduino_Pins.h>
  17:core/Arduino_Analog_Out.cpp **** #include <Arduino_Analog_Out.h>
  18:core/Arduino_Analog_Out.cpp **** 
  19:core/Arduino_Analog_Out.cpp **** void analogWriteInit()
  20:core/Arduino_Analog_Out.cpp **** {
 244              		.loc 1 20 0
 245              		.cfi_startproc
 246              		@ args = 0, pretend = 0, frame = 0
 247              		@ frame_needed = 0, uses_anonymous_args = 0
 248 0000 08B5     		push	{r3, lr}
 249              		.save {r3, lr}
 250              		.cfi_def_cfa_offset 8
 251              		.cfi_offset 3, -8
 252              		.cfi_offset 14, -4
  21:core/Arduino_Analog_Out.cpp ****   D10_Ctrl_Write(0x00);
 253              		.loc 1 21 0
 254 0002 0020     		movs	r0, #0
 255 0004 FFF7FEFF 		bl	D10_Ctrl_Write
 256              	.LVL0:
  22:core/Arduino_Analog_Out.cpp ****   D11_Ctrl_Write(0x00);
  23:core/Arduino_Analog_Out.cpp **** }
 257              		.loc 1 23 0
 258 0008 BDE80840 		pop	{r3, lr}
 259              		.cfi_restore 14
 260              		.cfi_restore 3
 261              		.cfi_def_cfa_offset 0
  22:core/Arduino_Analog_Out.cpp ****   D11_Ctrl_Write(0x00);
 262              		.loc 1 22 0
 263 000c 0020     		movs	r0, #0
 264 000e FFF7FEBF 		b	D11_Ctrl_Write
 265              	.LVL1:
 266              		.cfi_endproc
 267              	.LFE63:
 268              		.fnend
 269              		.size	_Z15analogWriteInitv, .-_Z15analogWriteInitv
 270              		.section	.text._Z11analogWritemh,"ax",%progbits
 271              		.align	1
 272              		.global	_Z11analogWritemh
 273              		.thumb
 274              		.thumb_func
 275              		.type	_Z11analogWritemh, %function
 276              	_Z11analogWritemh:
 277              		.fnstart
 278              	.LFB64:
  24:core/Arduino_Analog_Out.cpp **** 
  25:core/Arduino_Analog_Out.cpp **** void analogWrite(uint32_t pin, uint8_t value)
  26:core/Arduino_Analog_Out.cpp **** {
 279              		.loc 1 26 0
 280              		.cfi_startproc
 281              		@ args = 0, pretend = 0, frame = 0
 282              		@ frame_needed = 0, uses_anonymous_args = 0
 283              	.LVL2:
ARM GAS  C:\Users\Bruger\AppData\Local\Temp\ccbCZbei.s 			page 19


 284 0000 08B5     		push	{r3, lr}
 285              		.save {r3, lr}
 286              		.cfi_def_cfa_offset 8
 287              		.cfi_offset 3, -8
 288              		.cfi_offset 14, -4
 289              		.loc 1 26 0
 290 0002 0346     		mov	r3, r0
  27:core/Arduino_Analog_Out.cpp ****   switch (pin)
 291              		.loc 1 27 0
 292 0004 052B     		cmp	r3, #5
  26:core/Arduino_Analog_Out.cpp ****   switch (pin)
 293              		.loc 1 26 0
 294 0006 0846     		mov	r0, r1
 295              	.LVL3:
 296              		.loc 1 27 0
 297 0008 07D0     		beq	.L4
 298 000a 062B     		cmp	r3, #6
 299 000c 09D0     		beq	.L5
 300 000e 032B     		cmp	r3, #3
 301 0010 0FD1     		bne	.L8
 302              	.LVL4:
  28:core/Arduino_Analog_Out.cpp ****   {
  29:core/Arduino_Analog_Out.cpp ****     case 3:
  30:core/Arduino_Analog_Out.cpp ****       pin = D3;
  31:core/Arduino_Analog_Out.cpp ****       PWM_Reg_3_Write(value);
 303              		.loc 1 31 0
 304 0012 FFF7FEFF 		bl	PWM_Reg_3_Write
 305              	.LVL5:
  30:core/Arduino_Analog_Out.cpp ****       PWM_Reg_3_Write(value);
 306              		.loc 1 30 0
 307 0016 0748     		ldr	r0, .L10
  32:core/Arduino_Analog_Out.cpp ****       break;
 308              		.loc 1 32 0
 309 0018 06E0     		b	.L7
 310              	.LVL6:
 311              	.L4:
  33:core/Arduino_Analog_Out.cpp ****     case 5:
  34:core/Arduino_Analog_Out.cpp ****       pin = D5;
  35:core/Arduino_Analog_Out.cpp ****       PWM_Reg_5_Write(value);
 312              		.loc 1 35 0
 313 001a FFF7FEFF 		bl	PWM_Reg_5_Write
 314              	.LVL7:
  34:core/Arduino_Analog_Out.cpp ****       PWM_Reg_5_Write(value);
 315              		.loc 1 34 0
 316 001e 0648     		ldr	r0, .L10+4
  36:core/Arduino_Analog_Out.cpp ****       break;
 317              		.loc 1 36 0
 318 0020 02E0     		b	.L7
 319              	.LVL8:
 320              	.L5:
  37:core/Arduino_Analog_Out.cpp ****     case 6:
  38:core/Arduino_Analog_Out.cpp ****       pin = D6;
  39:core/Arduino_Analog_Out.cpp ****       PWM_Reg_6_Write(value);
 321              		.loc 1 39 0
 322 0022 FFF7FEFF 		bl	PWM_Reg_6_Write
 323              	.LVL9:
  38:core/Arduino_Analog_Out.cpp ****       PWM_Reg_6_Write(value);
ARM GAS  C:\Users\Bruger\AppData\Local\Temp\ccbCZbei.s 			page 20


 324              		.loc 1 38 0
 325 0026 0548     		ldr	r0, .L10+8
 326              	.LVL10:
 327              	.L7:
  40:core/Arduino_Analog_Out.cpp ****       break;
  41:core/Arduino_Analog_Out.cpp ****     default:
  42:core/Arduino_Analog_Out.cpp ****       return;
  43:core/Arduino_Analog_Out.cpp ****   }
  44:core/Arduino_Analog_Out.cpp ****       
  45:core/Arduino_Analog_Out.cpp ****   pinMode(pin, PERIPHERAL_OUT);
 328              		.loc 1 45 0
 329 0028 0421     		movs	r1, #4
  46:core/Arduino_Analog_Out.cpp **** }
 330              		.loc 1 46 0
 331 002a BDE80840 		pop	{r3, lr}
 332              		.cfi_remember_state
 333              		.cfi_restore 14
 334              		.cfi_restore 3
 335              		.cfi_def_cfa_offset 0
  45:core/Arduino_Analog_Out.cpp **** }
 336              		.loc 1 45 0
 337 002e FFF7FEBF 		b	_Z7pinModem8PIN_MODE
 338              	.LVL11:
 339              	.L8:
 340              		.cfi_restore_state
 341 0032 08BD     		pop	{r3, pc}
 342              	.LVL12:
 343              	.L11:
 344              		.align	2
 345              	.L10:
 346 0034 13500040 		.word	1073762323
 347 0038 15500040 		.word	1073762325
 348 003c 16500040 		.word	1073762326
 349              		.cfi_endproc
 350              	.LFE64:
 351              		.fnend
 352              		.size	_Z11analogWritemh, .-_Z11analogWritemh
 353              		.text
 354              	.Letext0:
 355              		.file 2 "c:\\program files (x86)\\cypress\\psoc creator\\4.0\\psoc creator\\import\\gnu\\arm\\4.9.
 356              		.file 3 "c:\\program files (x86)\\cypress\\psoc creator\\4.0\\psoc creator\\import\\gnu\\arm\\4.9.
 357              		.file 4 "Generated_Source\\PSoC5/cytypes.h"
 358              		.file 5 "Generated_Source\\PSoC5/D10_Ctrl.h"
 359              		.file 6 "Generated_Source\\PSoC5/D11_Ctrl.h"
 360              		.file 7 "Generated_Source\\PSoC5/PWM_Reg_3.h"
 361              		.file 8 "Generated_Source\\PSoC5/PWM_Reg_5.h"
 362              		.file 9 "Generated_Source\\PSoC5/PWM_Reg_6.h"
 363              		.file 10 ".\\core/Arduino_Pins.h"
 364              		.file 11 "Generated_Source\\PSoC5/core_cm3.h"