ARM GAS  C:\Users\Bruger\AppData\Local\Temp\cc6EUZup.s 			page 1


   1              		.syntax unified
   2              		.cpu cortex-m3
   3              		.fpu softvfp
   4              		.eabi_attribute 20, 1
   5              		.eabi_attribute 21, 1
   6              		.eabi_attribute 23, 3
   7              		.eabi_attribute 24, 1
   8              		.eabi_attribute 25, 1
   9              		.eabi_attribute 26, 1
  10              		.eabi_attribute 30, 2
  11              		.eabi_attribute 34, 1
  12              		.eabi_attribute 18, 4
  13              		.thumb
  14              		.file	"Arduino_HW_Interrupt.cpp"
  15              		.text
  16              	.Ltext0:
  17              		.section	.gnu.lto_.profile.24bf6e51,"",%progbits
  18 0000 789C6366 		.ascii	"x\234cf```e\200\000F\206y\214\006\000\002\226\000\331"
  18      60606065 
  18      80004686 
  18      798C0600 
  18      029600D9 
  19              		.text
  20              		.section	.gnu.lto_.jmpfuncs.24bf6e51,"",%progbits
  21 0000 789C6366 		.ascii	"x\234cf\300\016fCiV\020Q\317\300\300\304\000e\260\000"
  21      C00E6643 
  21      69561051 
  21      CFC0C0C4 
  21      0065B000 
  22 0014 D94C1F99 		.ascii	"\331L\037\231\030o,|3\215\367\005\323O&\006\016\006"
  22      186F2C7C 
  22      338DF705 
  22      D34F2606 
  22      0E06
  23 0026 C6E58C52 		.ascii	"\306\345\214R\014 \301\373O\316_\344\000\013200\256"
  23      0C20C1FB 
  23      4FCE5FE4 
  23      000B3230 
  23      30AE
  24 0038 000AB232 		.ascii	"\000\012\262222\326C4\\\234\265\254\231\037,\307\310"
  24      3232D643 
  24      345C9CB5 
  24      AC991F2C 
  24      C7C8
  25 004a C0B812A4 		.ascii	"\300\270\022\244\001\254\202\215\031\250\204\275\276"
  25      01AC828D 
  25      19A884BD 
  25      BE
  26 0057 BE9E11A4 		.ascii	"\276\236\021\244h\336\345\276uL\265\277\033:\0328~2"
  26      68DEE5BE 
  26      754CB5BF 
  26      1B3A1A38 
  26      7E32
  27 0069 317E069B 		.ascii	"1~\006\233\263\212\261\026h\002\330\016\220\335`\275"
  27      B38AB116 
  27      6802D80E 
  27      90DD60BD 
ARM GAS  C:\Users\Bruger\AppData\Local\Temp\cc6EUZup.s 			page 2


  28 0079 20000041 		.ascii	" \000\000A\200#\335"
  28      8023DD
  29              		.text
  30              		.section	.gnu.lto_.inline.24bf6e51,"",%progbits
  31 0000 789C6366 		.ascii	"x\234cf\300\016\230\031!4+\003\003\273\020#\003\023"
  31      C00E9819 
  31      21342B03 
  31      03BB1023 
  31      0313
  32 0012 D3057E06 		.ascii	"\323\005~\006\266\005\362L`9~ \301\304  \003\024\347"
  32      B605F24C 
  32      60397E20 
  32      C1C42020 
  32      0314E7
  33 0025 5B920417 		.ascii	"[\222\004\027g\344\002\211s\303T\2600\260\361\001U\000"
  33      67E40289 
  33      73C354B0 
  33      30B0F101 
  33      5500
  34 0037 59708D3C 		.ascii	"Yp\215< }@3\271\271\030Y\0312\030\225\245\030\0302\301"
  34      207D4033 
  34      B9B91859 
  34      19321895 
  34      A5181832 
  35 004c 6406A32A 		.ascii	"d\006\243*\230\015\"\031AZ\241\232X\026\310;0\260<\220"
  35      980D2219 
  35      415AA19A 
  35      5816C83B 
  35      30B03C90 
  36 0060 70E0805A 		.ascii	"p\340\200Z \300\0016\206\005d\016\033\203\220<#\033"
  36      20C00136 
  36      8605640E 
  36      1B83903C 
  36      231B
  37 0072 3E739818 		.ascii	">s\230\030A\2520\315b\332\305\0044\210i\0363\310\"\260"
  37      41AA30CD 
  37      62DAC504 
  37      3488691E 
  37      33C822B0 
  38 0086 931941A6 		.ascii	"\223\031A\246\202\304\030&\370A\315\237\340\007\366"
  38      82C41826 
  38      F841CD9F 
  38      E007F6
  39 0095 100300CB 		.ascii	"\020\003\000\313\351\024\231"
  39      E91499
  40              		.text
  41              		.section	.gnu.lto_.pureconst.24bf6e51,"",%progbits
  42 0000 789C6366 		.ascii	"x\234cf``\340f\200\000V\006\011&\011\026\011V\0116\011"
  42      6060E066 
  42      80005606 
  42      09260916 
  42      09560936 
  43 0015 00040400 		.ascii	"\000\004\004\000\235"
  43      9D
  44              		.text
  45              		.section	.gnu.lto__Z10HW_INT_ISRv.part.0.24bf6e51,"",%progbits
  46 0000 789C658E 		.ascii	"x\234e\216\277KBQ\024\307\357\367\334\247\011\022D\243"
ARM GAS  C:\Users\Bruger\AppData\Local\Temp\cc6EUZup.s 			page 3


  46      BF4B4251 
  46      14C7EFF7 
  46      DCA70912 
  46      44A3
  47 0012 43100E16 		.ascii	"C\020\016\026I\377C[\321\0224\264\010\022\346\340\242"
  47      49FF435B 
  47      D11234B4 
  47      0812E6E0 
  47      A2
  48 0023 F2788EE2 		.ascii	"\362x\216\342}\342\320\024\322\024XQCdY\2669?\202\326"
  48      7DE2D014 
  48      D2145851 
  48      436459B6 
  48      393F82D6 
  49 0037 7E501044 		.ascii	"~P\020Dh\203RN&\015!a\257s\237-\321\205\303\367\336"
  49      6883524E 
  49      260D2161 
  49      AF739F2D 
  49      D185C3F7 
  50 004c EF39F77B 		.ascii	"\3579\367{>R\374?Q\256e\0101\303\012\237\200Q\276\346"
  50      3E52FC3F 
  50      51AE6508 
  50      31C30A9F 
  50      8051BEE6 
  51 0060 8B01F294 		.ascii	"\213\001\362\224 \265\332\001\011\350\213\200(\030$"
  51      20B5DA01 
  51      09E88B80 
  51      281824
  52 006f 514097FA 		.ascii	"Q@\227\372\204\262S\333\011F\216\224R\357\2275\265\342"
  52      84B253DB 
  52      09468E94 
  52      52EF9735 
  52      B5E2
  53 0081 6040427C 		.ascii	"`@B|\320(\031\307\210\010\036\352\227\206\217A\177\211"
  53      D02819C7 
  53      88081EEA 
  53      97868F41 
  53      7F89
  54 0093 8726463D 		.ascii	"\207&F=T\341\347\215\340^\327\271z\030\227\323\320s"
  54      54E1E78D 
  54      E05ED7B9 
  54      7A1897D3 
  54      D073
  55 00a5 BD46E516 		.ascii	"\275F\345\026\341C\245\212/\315F\314\261\017\324\267"
  55      E143A58A 
  55      2FCD46CC 
  55      B10FD4B7 
  56 00b5 EB722270 		.ascii	"\353r\"p\002\311\037\021\015a6\364\213\215S\204/&\225"
  56      02C91F11 
  56      0D6136F4 
  56      8B8D5384 
  56      2F2695
  57 00c8 72DDD71E 		.ascii	"r\335\327\036\031\020\003\342\3446\227\246l\223\241"
  57      191003E2 
  57      E43697A6 
  57      6C93A1
  58 00d7 5576D8D4 		.ascii	"Uv\330\324\372\204\342v\2771\367\227E'x(\034V\203\377"
ARM GAS  C:\Users\Bruger\AppData\Local\Temp\cc6EUZup.s 			page 4


  58      FA84E276 
  58      BF31F797 
  58      45277828 
  58      1C5683FF 
  59 00eb 9334CFFE 		.ascii	"\2234\317\376\375V\235\362_jS\005\006$\207\232\226\335"
  59      FD569DF2 
  59      5F6A5305 
  59      0624879A 
  59      96DD
  60 00fd 56FBE62E 		.ascii	"V\373\346.\360F\354x\317\252]\332\305\036*\266\322S"
  60      F046EC78 
  60      CFAA5DDA 
  60      C51E2AB6 
  60      D253
  61 010f 8433E471 		.ascii	"\2043\344q\016&C\235m\361\014\251\003\005'2\226\301"
  61      0E26439D 
  61      6DF10CA9 
  61      03052732 
  61      96C1
  62 0121 111DFEA8 		.ascii	"\021\035\376\2509\232\260\235\226o\264SSB\273\274c*"
  62      399AB09D 
  62      966FB453 
  62      5342BBBC 
  62      632A
  63 0133 913193B1 		.ascii	"\2211\223\261\005s#\227Jg\342\213k\361\245\264\2254"
  63      05732397 
  63      4A67E28B 
  63      6BF1A5B4 
  63      9534
  64 0145 CD5CD69A 		.ascii	"\315\\\326\232Od\263b,\225\266V\255u\353\007BV\202g"
  64      4F64B362 
  64      2C95B656 
  64      AD75EB07 
  64      42568267 
  65              		.text
  66              		.section	.gnu.lto__Z10HW_INT_ISRv.24bf6e51,"",%progbits
  67 0000 789C6551 		.ascii	"x\234eQ=hSQ\024>\337\271\357\276<\022\253\305\241C\206"
  67      3D685351 
  67      143EDFB9 
  67      EFBE3C12 
  67      ABC5A143 
  68 0015 8074A8A2 		.ascii	"\200t\250\242\350\350\354\246\270\010\016:\024\212\324"
  68      E8E8ECA6 
  68      B8080E3A 
  68      148AD4
  69 0024 0E5DD210 		.ascii	"\016]\322\020\3221\364\276&\026')\016\"\266\212\035"
  69      D231F4BE 
  69      26162729 
  69      0E22B68A 
  69      1D
  70 0035 D46A34F5 		.ascii	"\324j4\365\217\016\305\302SpU\213\261j)\251C\013\026"
  70      8F0EC5C2 
  70      5370558B 
  70      B16A29A9 
  70      430B16
  71 0048 040D19B4 		.ascii	"\004\015\031\264H\033\317\275/C\033\037\274w\336;\367"
  71      481BCFBD 
ARM GAS  C:\Users\Bruger\AppData\Local\Temp\cc6EUZup.s 			page 5


  71      2F431B1F 
  71      BC77DE3B 
  71      F7
  72 0059 3BDFF9BE 		.ascii	";\337\371\276\357)\372\377:+\367E&:,\025\011\002O\276"
  72      EF29FAFF 
  72      3A2BF745 
  72      263A2C15 
  72      09024FBE 
  73 006d 230A0366 		.ascii	"#\012\003fU\353!\223\364^\235$\263O\301\213\333\036"
  73      55EB2193 
  73      F45E9D24 
  73      B34FC18B 
  73      DB1E
  74 007f EB858CB4 		.ascii	"\353\205\214\264\375\345\023\322\326\360m\033>`+\201"
  74      FDE513D2 
  74      D6F06D1B 
  74      3E602B81 
  75 008f C65879DA 		.ascii	"\306Xy\332\307\0306\271\301\230\214*7S}\367\2141\277"
  75      C71836B9 
  75      C1988C2A 
  75      37537DF7 
  75      8C31BF
  76 00a2 DE54CCB9 		.ascii	"\336T\314\271\010[\262\250\311\361b<@\037\011\250Q\336"
  76      085BB2A8 
  76      C9F1623C 
  76      401F09A8 
  76      51DE
  77 00b4 FE9CF2CB 		.ascii	"\376\234\362\313\002\352\216\3170+\204R\344l3z[\353"
  77      02EA8ECF 
  77      302B8452 
  77      E46C337A 
  77      5BEB
  78 00c6 52876071 		.ascii	"R\207`q?\347\247>\240w\306\230\361o\365\371\376(\274"
  78      3FE7A73E 
  78      A077C698 
  78      F16FF5F9 
  78      FE28BC
  79 00d9 6B765A2D 		.ascii	"kvZ-a\004\036B\311 \216\245q$\335v\205G\350\235;\030"
  79      61041E42 
  79      C9208EA5 
  79      7124DD76 
  79      8547E89D 
  80 00ef 9956AB59 		.ascii	"\231V\253Y}]G\312s\035M\002\367\345\301I\373F\264.\373"
  80      7D5D47CA 
  80      731D4D02 
  80      F7E5C149 
  80      FB46B42E 
  81 0104 ACF20D66 		.ascii	"\254\362\015f[\325*J\321\342\"\357Ue'\235(\241\255\300"
  81      5BD52A4A 
  81      D1E222EF 
  81      5565279D 
  81      28A1ADC0 
  82 0118 FFCD9E9C 		.ascii	"\377\315\236\234\337\371x\255\312\305\277\346\252\011"
  82      DFF978AD 
  82      CAC5BFE6 
  82      AA09
  83 0126 B658D65B 		.ascii	"\266X\326[\301\217Q\024Z\217\226\301\026h\347\004L+"
ARM GAS  C:\Users\Bruger\AppData\Local\Temp\cc6EUZup.s 			page 6


  83      C18F5114 
  83      5A8F96C1 
  83      1668E704 
  83      4C2B
  84 0138 28FD99D8 		.ascii	"(\375\231\330\271\242\343\341d<\277t\353~\351\300w\266"
  84      B9A2E3E1 
  84      643CBF74 
  84      EB7EE9C0 
  84      77B6
  85 014a F2094F90 		.ascii	"\362\011O\220\246O(\177-\355oc\004\260\266\376~)p\000"
  85      A64F287F 
  85      2DED6F63 
  85      04B0B6FE 
  85      7E297000 
  86 015e 61AE2236 		.ascii	"a\256\"6\266\301\212j=j\005\343\327\033/\217\306`\277"
  86      B6C18A6A 
  86      3D6A05E3 
  86      D71B2F8F 
  86      C660BF
  87 0171 538DDEB6 		.ascii	"S\215\336\266)\356\246\320\356s6,O\3436\246BcQ\2149"
  87      29EEA6D0 
  87      EE73362C 
  87      4FE336A6 
  87      4263518C 
  88 0186 14F1D412 		.ascii	"\024\361\324\022\343\231\264i\025\312\022\2220\212\013"
  88      E399B469 
  88      15CA1292 
  88      308A0B
  89 0195 DF6DF35C 		.ascii	"\337m\363\\*\316@}\242m@\307\006\276\314\374\270\321"
  89      2ACE407D 
  89      A26D40C7 
  89      06BECCFC 
  89      B8D1
  90 01a7 E5F40584 		.ascii	"\345\364\005\204\347\035\006\364.\305\232\02626\330"
  90      E71D06F4 
  90      2EC59A16 
  90      3236D8
  91 01b6 6E1761A7 		.ascii	"n\027a\247\330DS\242'\274p\321\005n\300wK\353\010\243"
  91      D84453A2 
  91      27BC70D1 
  91      056EC077 
  91      4BEB08A3 
  92 01ca 351DC76E 		.ascii	"5\035\307n\177\024lW\240\231\301\221\374P\377\251\374"
  92      7F146C57 
  92      A099C191 
  92      FC50FFA9 
  92      FC
  93 01db E5D1E1EC 		.ascii	"\345\321\341\354\310\300\351\013\003g\262\205\241|~"
  93      C8C0E90B 
  93      0367B285 
  93      A17C7E
  94 01ea 3457383E 		.ascii	"4W8>\230\313Qb8[8_\270T\370\007\334\250\335\262"
  94      98CB5162 
  94      385B385F 
  94      B854F807 
  94      DCA8DDB2 
  95              		.text
ARM GAS  C:\Users\Bruger\AppData\Local\Temp\cc6EUZup.s 			page 7


  96              		.section	.gnu.lto__Z15detachInterrupti.part.1.24bf6e51,"",%progbits
  97 0000 789C6590 		.ascii	"x\234e\220M+Da\024\307\317\377y\356\214\321P\314J\263"
  97      4D2B4461 
  97      14C7CFFF 
  97      79EE8CD1 
  97      50CC4AB3 
  98 0014 103191E4 		.ascii	"\0201\221\344;\330\361\011l\224\005\0266L\023Kyf\020"
  98      3BD8F109 
  98      6C940516 
  98      364C134B 
  98      796610
  99 0027 0B498AAC 		.ascii	"\013I\212\254\230I^\207\361R\012\253[6\263aB!\011\013"
  99      98495E87 
  99      F1520AAB 
  99      5B36B361 
  99      4221090B 
 100 003b 42298472 		.ascii	"B)\204r\223\3069w\260q\353\351\274\377\376\347\\M\377"
 100      93C63977 
 100      B071EBE9 
 100      BCFFFEE7 
 100      5C4DFF
 101 004e BF5A7E33 		.ascii	"\277Z~3 \252a\013\017\301\032;`\307\202r\255\202\026"
 101      20AA610B 
 101      0FC11A3B 
 101      60C78272 
 101      AD8216
 102 0061 1BF56940 		.ascii	"\033\365i@\034\002\365YJ\243\017\017\352Ea\314NN\371"
 102      1C02F559 
 102      4AA30F0F 
 102      EA4561CC 
 102      4E4EF9
 103 0074 ABE68C31 		.ascii	"\253\346\2141\317\261\207\300`\211\243\210^U\016\214"
 103      CFB187C0 
 103      6089A388 
 103      5E550E8C 
 104 0084 055411F7 		.ascii	"\005T\021\367\334\332\333\031\255\313!\376N\352m\337"
 104      DCDADB19 
 104      ADCB21FE 
 104      4EEA6DDF 
 105 0094 7FAF1C85 		.ascii	"\177\257\034\2052\011w\307\323S^\011\225%\341\342\321"
 105      320977C7 
 105      D3535E09 
 105      9525E1E2 
 105      D1
 106 00a5 E384AE48 		.ascii	"\343\204\256H0\315\236\3547\225&\372\221\315\3469\254"
 106      30CD9EEC 
 106      379526FA 
 106      91CDE639 
 106      AC
 107 00b6 B608CD54 		.ascii	"\266\010\315T,!\210e\004\177\026\347\201\227\201\257"
 107      2C218865 
 107      047F16E7 
 107      819781AF 
 108 00c6 53BF7780 		.ascii	"S\277w\200\007\212\220DEN\032+\360\362=\220\314Z\300"
 108      078A9044 
 108      454E1A2B 
 108      F0F23D90 
ARM GAS  C:\Users\Bruger\AppData\Local\Temp\cc6EUZup.s 			page 8


 108      CC5AC0
 109 00d9 986CF6EE 		.ascii	"\230l\366\356\\i\242\033.\312\011\267,\306V\237 V,\220"
 109      5C69A21B 
 109      2ECA09B7 
 109      2CC6569F 
 109      20562C90 
 110 00ed 647AE4A0 		.ascii	"dz\344\240\240z\236!\361\247\315\270\317\221\336\334"
 110      A07A9E21 
 110      F1A7CDB8 
 110      CF91DEDC 
 111 00fd 01ABA8E6 		.ascii	"\001\253\250\346\372Pf\357=?4\313\365\353\364[\233m"
 111      FA5066EF 
 111      3D3F34CB 
 111      F5EBF45B 
 111      9B6D
 112 010f FD2D84BF 		.ascii	"\375-\204\277\205d\006)\204\210\231E$\3022K\242\245"
 112      85640629 
 112      84889945 
 112      24C2324B 
 112      A2A5
 113 0121 5CAD0B0C 		.ascii	"\\\255\013\014\332\033\357JV\023\311\351\343\321\224"
 113      DA1BEF4A 
 113      5613C9E9 
 113      E3D194
 114 0130 EAFD34C3 		.ascii	"\352\3754\303\206\345\254Wn\"\254\241WJg\211\307\311"
 114      86E5AC57 
 114      6E22ACA1 
 114      574A6789 
 114      C7C9
 115 0142 42F9251E 		.ascii	"B\371%\036\037a\035AN]\335d\016}n\212\3336\020t\224"
 115      1F611D41 
 115      4E5DDD64 
 115      0E7D6E8A 
 115      DB361074 
 116 0157 D7456B17 		.ascii	"\327Ek\027}\211\250\275\345q\311$GB\262\014,m\355\212"
 116      7D89A8BD 
 116      E571C924 
 116      4742B20C 
 116      2C6DED8A 
 117 016b B437D747 		.ascii	"\2647\327G\332z::\273Z\032\232Z\032;\273\333#\221\236"
 117      DA7A3A3A 
 117      BB5A1A9A 
 117      5A1A3BBB 
 117      DB23919E 
 118 017f 70775D6B 		.ascii	"pw]k8L\371\035\277\3417[\333\237\322"
 118      384CF91D 
 118      BFE1375B 
 118      DB9FD2
 119              		.text
 120              		.section	.gnu.lto__Z15detachInterrupti.24bf6e51,"",%progbits
 121 0000 789C6D50 		.ascii	"x\234mP\317KTQ\024>\337\271\357]\307f\300\207\253x\213"
 121      CF4B5451 
 121      143EDFB9 
 121      EF5DC766 
 121      C087AB78 
 122 0015 5062505A 		.ascii	"PbPZ\364\037\030\2663\372\003\332\004\2630\027nt\030"
 122      F41F18B6 
ARM GAS  C:\Users\Bruger\AppData\Local\Temp\cc6EUZup.s 			page 9


 122      33FA03DA 
 122      04B33017 
 122      6E7418
 123 0028 74295E9D 		.ascii	"t)^\235\261\\\204\210\033\177,ZhY\315\324\230\341\""
 123      B15C8488 
 123      1B7F2C5A 
 123      6859CDD4 
 123      98E122
 124 003b 6DF32A08 		.ascii	"m\363*\010\023t\220\350\307B\264\305\014\344*e\012y"
 124      137490E8 
 124      C742B4C5 
 124      0CE42A65 
 124      0A79
 125 004d 84D8B9EF 		.ascii	"\204\330\271\3575+\275\3608\357|\347\273\337w\276\253"
 125      352BBDF0 
 125      38EF7CE7 
 125      BBDF77BE 
 125      AB
 126 005e E8FCB92D 		.ascii	"\350\374\271-\337'\020]\223\212&\002O\357\020\215%\230"
 126      DF27105D 
 126      938A2602 
 126      4FEF108D 
 126      2598
 127 0070 D5AC47E6 		.ascii	"\325\254G\346\222\023v\221I)\350\030v\330\375\330\""
 127      92137691 
 127      4929E818 
 127      76D8FDD8 
 127      22
 128 0081 B0DEBA21 		.ascii	"\260\336\272!\260\033\303\320\200\255\004\032e\345\270"
 128      B01BC3D0 
 128      80AD041A 
 128      65E5B8
 129 0090 1AA338E4 		.ascii	"\032\2438\344c\306tP\232Kv<1\306\034\215\037\266N\\"
 129      63C67450 
 129      9A4B763C 
 129      31C61C8D 
 129      1FB64E5C 
 130 00a4 0E99A8CE 		.ascii	"\016\231\250\316\261/\236\242C(\265\340ME\251v\220\374"
 130      B12F9EA2 
 130      4328B5E0 
 130      4D45A976 
 130      90FC
 131 00b6 AF977F6F 		.ascii	"\257\227\177o'\177r\310h\263\355\306\314\346\234\266"
 131      277F72C8 
 131      68B3EDC6 
 131      CCE69CB6 
 132 00c6 2D3BB67D 		.ascii	"-;\266}P\371\360\2479\275$b\301\306k\323\355\204\254"
 132      50F9F0A7 
 132      39BD2462 
 132      C1C66BD3 
 132      ED84AC
 133 00d9 F00C4AF4 		.ascii	"\360\014J\364\360\034>\212\360I B\011iK?.\234~K\352"
 133      F01C3E8A 
 133      F0492042 
 133      09694B3F 
 133      2E9C7E4B 
 134 00ee 82D0BDD8 		.ascii	"\202\320\275\330\023/dO\251+\255\2019;\253?~\267\006"
ARM GAS  C:\Users\Bruger\AppData\Local\Temp\cc6EUZup.s 			page 10


 134      132F644F 
 134      A92BAD81 
 134      393BAB3F 
 134      7EB706
 135 0101 CD88E854 		.ascii	"\315\210\350T\025\202MPc\266U}A\341{\276\344\333+'\314"
 135      15824D50 
 135      63B6557D 
 135      41E17BBE 
 135      E4DB2B27 
 136 0116 B8EA472B 		.ascii	"\270\352G+\327D~\326S{\230\010\346\305A\206\326\350"
 136      D7447ED6 
 136      537B9808 
 136      E6C54186 
 136      D6E8
 137 0128 D1E7A932 		.ascii	"\321\347\2512\217\3745\223&\021\262Sg\361\300K\214\330"
 137      8FFC3593 
 137      2611B253 
 137      67F1C04B 
 137      8CD8
 138 013a D1EEC272 		.ascii	"\321\356\302r\276\305&pA(\303\027\350\240Z\331MD\220"
 138      BEC52670 
 138      4128C317 
 138      E8A05AD9 
 138      4D4490
 139 014d D056E087 		.ascii	"\320V\340\207\254#e\207\302\256\330\366\355{4|\323\015"
 139      AC236587 
 139      C2AED8F6 
 139      ED7B347C 
 139      D30D
 140 015f 5F978A29 		.ascii	"_\227\212)\365\025\343\236\235\210Ji\363\341N\252sY"
 140      F515E39E 
 140      9D884A69 
 140      F3E14EAA 
 140      7359
 141 0171 C2FDF8B5 		.ascii	"\302\375\370\265x\337\201\015\376\377Y_\241S\256\322"
 141      78DF810D 
 141      FEFF595F 
 141      A153AED2 
 142 0181 1EF2DE85 		.ascii	"\036\362\336\205\0336\325eJX\225\015CND\352:\312\274"
 142      1B36D565 
 142      4A58950D 
 142      434E44EA 
 142      3ACABC
 143 0194 8FB1602D 		.ascii	"\217\261`-\262\266:U\311!\250P\257\364\016\346\372\356"
 143      B2B63A55 
 143      C921A850 
 143      AFF40EE6 
 143      FAEE
 144 01a6 DECCDD1B 		.ascii	"\336\314\335\033\356\037\030\314\364\334\311\334\032"
 144      EE1F18CC 
 144      F4DCC9DC 
 144      1A
 145 01b3 18EACBE5 		.ascii	"\030\352\313\345\206\263C\327{\263Yj\356o\264\377\000"
 145      86B343D7 
 145      7BB3596A 
 145      EE6FB4FF 
 145      00
ARM GAS  C:\Users\Bruger\AppData\Local\Temp\cc6EUZup.s 			page 11


 146 01c4 592AAF81 		.ascii	"Y*\257\201"
 147              		.text
 148              		.section	.gnu.lto__Z15attachInterruptiPFvvE11HW_INT_MODE.24bf6e51,"",%progbits
 149 0000 789C8D52 		.ascii	"x\234\215R]H\024Q\024>\337\2753\343\272\273\376\320"
 149      5D481451 
 149      143EDFBD 
 149      33E3BABB 
 149      FED0
 150 0012 53ED8314 		.ascii	"S\355\203\024\261H\024\371\320kF\275\025\364\336Kd\240"
 150      B14814F9 
 150      D06B46BD 
 150      15F4DE4B 
 150      64A0
 151 0024 063EA4B2 		.ascii	"\006>\244\262\351[\213\263\356\306\006Qi\204Je\020R"
 151      E95B8BB3 
 151      EEC60651 
 151      69844A65 
 151      1052
 152 0036 9A96A6F6 		.ascii	"\232\226\246\366\243\326\303H\020\021\224\230\224\022"
 152      A3D6C348 
 152      10119498 
 152      9412
 153 0044 62D02A25 		.ascii	"b\320*%D$k\310 \213\235\263\343V\230A\303\014\367\236"
 153      44246BC8 
 153      208B9DB3 
 153      E3569841 
 153      C30CF79E 
 154 0058 73CFF79D 		.ascii	"s\317\367\235\357;w4\375\375\034\345\357\204&\332\307"
 154      EF3B7734 
 154      FDFD1CE5 
 154      EF8426DA 
 154      C7
 155 0069 2BF208AA 		.ascii	"+\362\010\252\345\015Q\314\247\224n/&\333o\270\345d"
 155      E50D51CC 
 155      A7946E2F 
 155      26DB6FB8 
 155      E564
 156 007b 07352C2F 		.ascii	"\0075,/m(\363E\021\247\255W\0078m\346\322\026 \033\002"
 156      6D28F345 
 156      11A7AD57 
 156      07386DE6 
 156      D216201B 
 157 0090 35296D98 		.ascii	"5)m\230\026\232\260\250\226\024Z\234\276\216@\351m\333"
 157      169AB0A8 
 157      96145A9C 
 157      BE8E40E9 
 157      6DDB
 158 00a2 B6BF7FEA 		.ascii	"\266\277\177\352:e_=\351*\242\264\362:\243\033\245\\"
 158      3A655F3D 
 158      E92AA2B4 
 158      F23AA31B 
 158      A55C
 159 00b4 B3E08C4C 		.ascii	"\263\340\214Lh\275\003\304\373\321\376\345\327\201/"
 159      68BD03C4 
 159      FBD1FEE5 
 159      D7812F
 160 00c3 CA55D82E 		.ascii	"\312U\330.\341\330\225\227\035\226\204\312\22009\361"
ARM GAS  C:\Users\Bruger\AppData\Local\Temp\cc6EUZup.s 			page 12


 160      E1D89597 
 160      1D9684CA 
 160      903039F1 
 161 00d3 FC477EB8 		.ascii	"\374G~\270\213\331\234\261!\373\240\341*\215\036h\346"
 161      8BD99CB1 
 161      21FBA0E1 
 161      2A8D1E68 
 161      E6
 162 00e4 C35D84D0 		.ascii	"\303]\204\320\213\020q\212\320\2070W\247Z\222\311<\275"
 162      8B10718A 
 162      D0873057 
 162      A75A92C9 
 162      3CBD
 163 00f6 3BCBDB7A 		.ascii	";\313\333z!^\"\300fg\321\003\032\270\267\021h\020\356"
 163      215E22C0 
 163      6667D103 
 163      1AB8B711 
 163      6810EE
 164 0109 67819FDD 		.ascii	"g\201\237\335\305\356\002]\226\005fZ\247\337*\017y1"
 164      C5EE025D 
 164      9605665A 
 164      A7DF2A0F 
 164      7931
 165 011b 656E7595 		.ascii	"enu\225\211~\017\270'\204]\0023\011\003\010K\355R\""
 165      897E0FB8 
 165      27845D02 
 165      33090308 
 165      4BED5222 
 166 012f 331DB012 		.ascii	"3\035\260\022,\257\330\363\210\007\260\300\353\300\026"
 166      2CAFD8F3 
 166      8807B0C0 
 166      EBC016
 167 013e C75E5B4B 		.ascii	"\307^[K_\036?[h@\324\231\020\214\305h\313\007\351\352"
 167      5F1E3F5B 
 167      6840D499 
 167      108CC568 
 167      CB07E9EA 
 168 0152 972DD13C 		.ascii	"\227-\321<\243d\216\013J\311\252g\021w\246F <\322\340"
 168      A3648E0B 
 168      4AC9AA67 
 168      1177A646 
 168      203CD2E0 
 169 0166 E6D4A57E 		.ascii	"\346\324\245~\025]\265\317\333>W\345\245\025sc\020Q"
 169      155DB5CF 
 169      DB3E57E5 
 169      A5157363 
 169      1051
 170 0178 C6FAE81D 		.ascii	"\306\372\350\035\0223\361\201mR\272\302\356v\206\262"
 170      1233F181 
 170      6D52BAC2 
 170      EE7686B2 
 171 0188 235EE071 		.ascii	"#^\340q\264\027\353\017h\236K~k\016x\247\374\2324\213"
 171      B417EB0F 
 171      689E4B7E 
 171      6B0E78A7 
 171      FC9A348B 
 172 019c 73F6F0E6 		.ascii	"s\366\360\346\314\371inO\030bf>\232\274v'^$w\340\007"
ARM GAS  C:\Users\Bruger\AppData\Local\Temp\cc6EUZup.s 			page 13


 172      CCF9696E 
 172      4F186266 
 172      3E9ABC76 
 172      275E2477 
 173 01b2 611821C6 		.ascii	"a\030!\306\273*@L\3316\330^&\004\033\361\301\214\230"
 173      BB2A404C 
 173      D936D85E 
 173      26041BF1 
 173      C18C98
 174 01c5 E7ECC7F9 		.ascii	"\347\354\307\371\211I\237@\203\331\260'\226\270\201"
 174      89499F40 
 174      83D9B027 
 174      96B881
 175 01d4 4E5C8FD9 		.ascii	"N\\\217\331Re\340!\242x\304\243'<\346\364\012\233\020"
 175      5265E021 
 175      A278C4A3 
 175      273CE6F4 
 175      0A9B10
 176 01e7 C106B9E5 		.ascii	"\301\006\271\345:\353&5\216\234\235p\316\216I\275A\317"
 176      3AEB2635 
 176      8E9C9D70 
 176      CE8E49BD 
 176      41CF
 177 01f9 CEFBF8BA 		.ascii	"\316\373\370\272\035\377\377\331y\342\331\231\271\365"
 177      1DFFFFD9 
 177      79E2D999 
 177      B9F5
 178 0207 B5AD206B 		.ascii	"\265\255 k\307G\030\021;\376\234\235\245\316\177\331"
 178      C7471811 
 178      3BFE9C9D 
 178      A5CE7FD9 
 179 0217 C1A6FA47 		.ascii	"\301\246\372G\177\351\037\373C\277\265~s\011guysA\005"
 179      7FE91FFB 
 179      43BFB57E 
 179      73096775 
 179      79734105 
 180 022b 69BE15C2 		.ascii	"i\276\025\302SO\320\357#g?\263\246\231X@x\206\250\253"
 180      534FD0EF 
 180      23673FB3 
 180      A6995840 
 180      7886A8AB 
 181 023f 0A690E31 		.ascii	"\012i\0161'\343\245H~\020\010=\373)\251\254\213T\037"
 181      27E3A548 
 181      7E10083D 
 181      FB29A9AC 
 181      8B541F
 182 0252 3F14A96A 		.ascii	"?\024\251j\254\251\255\2538|\254\342HmCu$\322X\337\260"
 182      ACA9ADAB 
 182      387CACE2 
 182      486D4375 
 182      24D258DF 
 183 0267 B7B2BE9E 		.ascii	"\267\262\276\236\362kr\241\2569\0231N\327UU\377\004"
 183      F26B72A1 
 183      AE391331 
 183      4ED75555 
 183      FF04
 184 0279 3DD73F71 		.ascii	"=\327?q"
ARM GAS  C:\Users\Bruger\AppData\Local\Temp\cc6EUZup.s 			page 14


 185              		.text
 186              		.section	.gnu.lto_.symbol_nodes.24bf6e51,"",%progbits
 187 0000 789C4D8B 		.ascii	"x\234M\213\273\016\3020\014E\257\235\244\015\033\177"
 187      BB0EC230 
 187      0C45AF9D 
 187      A40D1B7F 
 188 0010 EC825067 		.ascii	"\354\202Pg\006\012\014<\332P!\370\217\252#Sg\304\300"
 188      060A0C3C 
 188      DA5021F8 
 188      8FAA2353 
 188      67C4C0
 189 0023 C80A1320 		.ascii	"\310\012\023 \322RP\274\330\367\034_\005\340\201~xG"
 189      D25250BC 
 189      D8F71C5F 
 189      05E0817E 
 189      7847
 190 0035 42989E00 		.ascii	"B\230\236\000\021Z;\013\223\021\012\026\360\222\004"
 190      115A3B0B 
 190      93110A16 
 190      F09204
 191 0044 BDC0E6E0 		.ascii	"\275\300\346\340\305\214\250\023%\011\207\015^\220\250"
 191      C58CA813 
 191      2509870D 
 191      5E90A8
 192 0053 FF67EEC1 		.ascii	"\377g\356\301\234D\207\200r\022\363\005H\022\237\013"
 192      9C448780 
 192      7212F305 
 192      48129F0B 
 193 0063 9228CC8E 		.ascii	"\222(\314\216$\016\262\006\232\313{DP\034\243l/\305"
 193      240EB206 
 193      9ACB7B44 
 193      501CA36C 
 193      2FC5
 194 0075 80ABEB94 		.ascii	"\200\253\353\2244\2439\356-\224\266\270v\306XT\317\225"
 194      34A339EE 
 194      2D94B6B8 
 194      76C65854 
 194      CF95
 195 0087 5546C3DD 		.ascii	"UF\303\3353\253\242_%\262\230\274\274hw}\036{0@\225"
 195      33ABA25F 
 195      25B298BC 
 195      BC68777D 
 195      1E7B3040 
 196 009c DEB6437C 		.ascii	"\336\266C|\000,\347F\250"
 196      002CE746 
 196      A8
 197              		.text
 198              		.section	.gnu.lto_.refs.24bf6e51,"",%progbits
 199 0000 789C6366 		.ascii	"x\234cf``\020c\200\000F bddb`fefcdfed\344db\342b\000"
 199      60601063 
 199      80004620 
 199      62646462 
 199      60666566 
 200 001f 00050200 		.ascii	"\000\005\002\000S"
 200      53
 201              		.text
 202              		.section	.gnu.lto_.decls.24bf6e51,"",%progbits
ARM GAS  C:\Users\Bruger\AppData\Local\Temp\cc6EUZup.s 			page 15


 203 0000 789CBD56 		.ascii	"x\234\275V}PT\327\025\177g\357~\271,\254\231vHf\353"
 203      7D5054D7 
 203      157F67EF 
 203      7EB92CAC 
 203      99764866 
 204 0015 74B61386 		.ascii	"t\266\023\206i&J%_\223v:5\304\240!c,\015\355d\322\356"
 204      69264A25 
 204      5F93763A 
 204      35C4A021 
 204      632C0DED 
 205 002c CC76B3BC 		.ascii	"\314v\263\274\304\235\301]\262,N\374\357\362mLbR\322"
 205      C49DC15D 
 205      B22C4EFC 
 205      EFF26D4C 
 205      6252D2
 206 003f 46300D2C 		.ascii	"F0\015,~\004\201\210B\005D\210b>7A\215V# \025\021\252"
 206      7E048188 
 206      42054488 
 206      623E3741 
 206      8D562320 
 207 0056 22445C70 		.ascii	"\"D\\pQ\020\014=\367\276\267\354[\334\235\366\257\276"
 207      51100C3D 
 207      F7BEB7EC 
 207      5BDC9DF6 
 207      AFBE
 208 0068 99CBBBE7 		.ascii	"\231\313\273\347\336s~\347\367;\367p\337\022A\020\202"
 208      DE737EE7 
 208      F73BF770 
 208      DF124110 
 208      82
 209 0079 2008F3F8 		.ascii	" \010\363\370\0345\010\302\254J\020\264\270\226\211"
 209      1C3508C2 
 209      AC4A10B4 
 209      B89689
 210 0088 03A74223 		.ascii	"\003\247B#\216fAz\3648Zp\034\302\321\201\243\013\307"
 210      8E66417A 
 210      F4385A70 
 210      1CC2D181 
 210      A30BC7
 211 009b 108E511C 		.ascii	"\020\216Q\0347p\334\222c\246q\334\021\"\037\026\243"
 211      3770DC92 
 211      63A671DC 
 211      11221F16 
 211      A3
 212 00ac 9171E765 		.ascii	"\221q\347eL\300\274M\362>\310> \307+\037\226s\311\242"
 212      4CC0BC4D 
 212      F23EC83E 
 212      20C72B1F 
 212      9673C9A2 
 213 00c0 58153A8E 		.ascii	"X\025:\216(0\010\276[e\177\"\307\214*0\027\363a\374"
 213      283008BE 
 213      5B657F22 
 213      C78C2A30 
 213      17F361FC 
 214 00d4 75326602 		.ascii	"u2f\002\016#\216\347p\250A\322|]\201\025\322zC\270\367"
 214      0E238EE7 
 214      70A841D2 
ARM GAS  C:\Users\Bruger\AppData\Local\Temp\cc6EUZup.s 			page 16


 214      7C5D8115 
 214      D27A43B8 
 215 00e9 E952708B 		.ascii	"\351Rp\213\205\243\301y\273\002/\204\325\021\005\217"
 215      85A3C179 
 215      BB022F84 
 215      D511058F 
 216 00f9 D5D31405 		.ascii	"\325\323\024\005\217i>\213\303\242\320\256\314\301\352"
 216      8F693E8B 
 216      C3A2D0AE 
 216      CCC1EA
 217 0108 A0C51194 		.ascii	"\240\305\021\224q4\302\275g\303j\242\222k\261\270\306"
 217      7134C2BD 
 217      67C36AA2 
 217      926BB1B8 
 217      C6
 218 0119 132AE81E 		.ascii	"\023*\350\036\232\276i\034QA\202a)3w\364\\\016\0224"
 218      9ABE691C 
 218      51418261 
 218      293377F4 
 218      5C0E1234 
 219 012d 8D061533 		.ascii	"\215\006\0253?\234\034\357\\B05\316\207\273\3762\034"
 219      3F9C1CEF 
 219      5C423035 
 219      CE87BBFE 
 219      321C
 220 013f B7BC9E52 		.ascii	"\267\274\236R\272\205v\371!\014Q\360Q\307[:\214\261"
 220      BA8576F9 
 220      210C51F0 
 220      51C75B3A 
 220      8CB1
 221 0151 18B8B97D 		.ascii	"\030\270\271}l\372\240\236\233\363\363\004\027T\263"
 221      6CFAA09E 
 221      9BF3F304 
 221      1754B3
 222 0160 C38DB55A 		.ascii	"\303\215\265ZH6\354\306\320@\375\344\231e\224\252\241"
 222      4836ECC6 
 222      D040FDE4 
 222      996594AA 
 222      A1
 223 0171 110C5007 		.ascii	"\021\014P\007\004\352a9\023\302b\331\263\205\322BJ\213"
 223      04EA6139 
 223      13C262D9 
 223      B385D242 
 223      4A8B
 224 0183 A8666F82 		.ascii	"\250fo\202\000\265`\206\275`\026`\037$s\017h\300\225"
 224      00B56086 
 224      BD601660 
 224      1F24730F 
 224      68C095
 225 0196 8FD90A86 		.ascii	"\217\331\012\206c\252\366\306\340\2118N\336\3022\037"
 225      63AAF6C6 
 225      E089384E 
 225      DEC2321F 
 226 01a6 2EF75768 		.ascii	".\367Wh9y53;f\207\316\252\357\377\033f\245\357\026\321"
 226      39793533 
 226      3B6687CE 
 226      AAEFFF1B 
ARM GAS  C:\Users\Bruger\AppData\Local\Temp\cc6EUZup.s 			page 17


 226      66A5EF16 
 227 01bb A56AC84C 		.ascii	"\245j\310L\204\375\010p\000\001\004h\202\373\361\357"
 227      84FD0870 
 227      00010468 
 227      82FBF1EF 
 228 01cb 9FD49286 		.ascii	"\237\324\222\206\201\212\256\255j\343V\226\035}\227"
 228      818AAEAD 
 228      6AE35696 
 228      1D7D97
 229 01da F813D8BE 		.ascii	"\370\023\330\276\302\273\031\330\231\3607z7\354\377"
 229      C2BB19D8 
 229      99F0377A 
 229      37ECFF
 230 01e9 E68A8A3C 		.ascii	"\346\212\212<\306\313R\275knJKV\361y\307\233\375u\361"
 230      C6CB52BD 
 230      6B6E4A4B 
 230      56F179C7 
 230      9BFD75F1 
 231 01fd 962A3AE8 		.ascii	"\226*:\350\013T\027\275XI}\205\364\207\371yPq\260\177"
 231      0B5417BD 
 231      58497D85 
 231      F487F979 
 231      5071B07F 
 232 0211 2CA815E0 		.ascii	",\250\025\340 \020.\027Z\300\362_\231\266F0\375\376"
 232      20102E17 
 232      5AC0F25F 
 232      99B64630 
 232      FDFE
 233 0223 EDB17A1D 		.ascii	"\355\261z\035qI\271\013\332\346L\230\257\313G+\337\365"
 233      7149B90B 
 233      DAE64C98 
 233      AFCB472B 
 233      DFF5
 234 0235 A928FE3B 		.ascii	"\251(\376;S\252b\001\320\246\310\326\026\312v\350\177"
 234      53AA6201 
 234      D0A6C8D6 
 234      16CA76E8 
 234      7F
 235 0246 C8D61E91 		.ascii	"\310\326\036\221m\364\364\331\200\221\224\000OW\\\275"
 235      6DF4F4D9 
 235      80919400 
 235      4F575CBD 
 236 0256 AB48C7D3 		.ascii	"\253H\307\323\015\372?.U\373i\027^\037\224\002\213\201"
 236      0DFA3F2E 
 236      55FB6917 
 236      5E1F9402 
 236      8B81
 237 0268 C38A8487 		.ascii	"\303\212\204\207C\011;x\302O\277=\364>\250\261\011\341"
 237      43093B78 
 237      C24FBF3D 
 237      F43EA8B1 
 237      09E1
 238 027a 390343C6 		.ascii	"9\003C\306\245\333G\277\230\320\306\344\360\011\347"
 238      A5DB47BF 
 238      98D0C6E4 
 238      F009E7
 239 0289 D0093289 		.ascii	"\320\0112\211\203M\203{\343H\215D\242\366\243\352r\023"
ARM GAS  C:\Users\Bruger\AppData\Local\Temp\cc6EUZup.s 			page 18


 239      834D837B 
 239      E3488D44 
 239      A2F6A3EA 
 239      7213
 240 029b 69928C96 		.ascii	"i\222\214\226\316\375\003Fd\344\303\002P\271\000*\026"
 240      CEFD0346 
 240      64E4C302 
 240      50B9002A 
 240      16
 241 02ac 0E471474 		.ascii	"\016G\024t\216\206\350tq:\376\206\017\377L\276\344\000"
 241      8E86E874 
 241      713AFE86 
 241      0FFF4CBE 
 241      E400
 242 02be EA606FA0 		.ascii	"\352`o\240\323\004fs\262\241\002\333zz\025|\001\006"
 242      D3046673 
 242      B2A102DB 
 242      7A7A157C 
 242      0106
 243 02d0 A182EAF9 		.ascii	"\241\202\352\371\2337\354\007\272b`\026\034\223Q\024"
 243      9B37EC07 
 243      BA626016 
 243      1C935114 
 244 02e0 8D1A28A7 		.ascii	"\215\032(\247\344\001\001\226\233\341!\354\311\317\261"
 244      E4010196 
 244      9BE121EC 
 244      C9CFB1
 245 02ef 4B599800 		.ascii	"KY\230\000\237\241\222OQ\311\204\212L\227^\230\323\201"
 245      9FA1924F 
 245      51C9848A 
 245      4C975E98 
 245      D381
 246 0301 C16C9603 		.ascii	"\301l\226\003|K_\213\010\370\222\007\3701\340+\014`"
 246      7C4B5F8B 
 246      08F89207 
 246      F831E02B 
 246      0C60
 247 0313 241EE06B 		.ascii	"$\036\340k\214\003{#\337\222[e\245&\322#)\036\356\035"
 247      8C037B23 
 247      DF925B65 
 247      A526D223 
 247      291EEE1D 
 248 0327 DD194F86 		.ascii	"\335\031O\206%\343t\363\311j\015\031\223\214KW\372\252"
 248      25E374F3 
 248      C96A0D19 
 248      938C4B57 
 248      FAAA
 249 0339 34645232 		.ascii	"4dR2\246\007>\331\243!w\270\221P\333TU@\300\254V'%\231"
 249      A6073ED9 
 249      A32177B8 
 249      9150DB54 
 249      5540C0AC 
 250 0351 F5C9E624 		.ascii	"\365\311\346$\234\230\245LgA\217\227\003\234\300b\375"
 250      9C98A54C 
 250      67418F97 
 250      039CC062 
 250      FD
ARM GAS  C:\Users\Bruger\AppData\Local\Temp\cc6EUZup.s 			page 19


 251 0362 1392D845 		.ascii	"\023\222\330E\001\3358\357\201$\350\305\352\357\244"
 251      01DD38EF 
 251      8124E8C5 
 251      EAEFA4
 252 0371 1534F046 		.ascii	"\0254\360F\335>`\377\261\350\013\337\340&\213A\312g"
 252      DD3E60FF 
 252      B1E80BDF 
 252      E0268B41 
 252      CA67
 253 0383 902EDBF7 		.ascii	"\220.\333\367UP\244\3126O\2047Or-|Y(\345\302\013)\251"
 253      5550A4CA 
 253      364F8437 
 253      4F722D7C 
 253      5928E5C2 
 254 039a 48608A42 		.ascii	"H`\212B\342\277C\361,\012\017\211\317\373@\275P\267"
 254      E2BF43F1 
 254      2C0A0F89 
 254      CFFB40BD 
 254      50B7
 255 03ac DDD44707 		.ascii	"\335\324G\007/S\237^\340._\207\317Rz\030\371\245\034"
 255      2F539F5E 
 255      E02E5F87 
 255      CF527A18 
 255      F9A51C
 256 03bf 9C31186C 		.ascii	"\2341\030l\325\000\367\353\016\023\350G\024\024s\034"
 256      D500F7EB 
 256      0E13E847 
 256      1414731C 
 257 03cf 57CEA398 		.ascii	"W\316\243\230oQ\014\232\214\376i4O\311\332|e\364)\036"
 257      6F510C9A 
 257      8CFE6934 
 257      4FC9DA7C 
 257      65F4291E 
 258 03e3 793C1C79 		.ascii	"y<\034yN>\006\211<\226\262t\373P\203\232w/\363\224\332"
 258      4E3E0689 
 258      3C96B274 
 258      FB50839A 
 258      772FF394 
 259 03f8 77ACAA73 		.ascii	"w\254\252s&\216\257\341\205\000\377\002\276\330\336"
 259      268EAFE1 
 259      8500FF02 
 259      BED8DE
 260 0407 56B74F17 		.ascii	"V\267O\027j\363\013\322\332;\376\231c\206\230}~\221"
 260      6AF30BD2 
 260      DA3BFE99 
 260      6386987D 
 260      7E91
 261 0419 F7F940A8 		.ascii	"\367\371@\250\317\367T\226\0373\222*\351\272\275\352"
 261      CFF75496 
 261      1F33922A 
 261      E9BABDEA 
 262 0429 9BF8BB9E 		.ascii	"\233\370\273\2364J\306\371\300\233s\300\373<P\375Y\031"
 262      344AC6F9 
 262      C09B73C0 
 262      FB3C50FD 
 262      5919
 263 043b 59B85938 		.ascii	"Y\270Y8\004\014*z\375R\250\327\207x\257\237;ZV\246'"
ARM GAS  C:\Users\Bruger\AppData\Local\Temp\cc6EUZup.s 			page 20


 263      040C2A7A 
 263      FD52A8D7 
 263      8778AF9F 
 263      3B5A56A6 
 264 0450 DF4928A1 		.ascii	"\337I(\241\213:Q\272\250\267u\3578F\2709\317\266U}}"
 264      8B3A51BA 
 264      A8B775EF 
 264      3846B839 
 264      CFB6557D 
 265 0465 7F9D2160 		.ascii	"\177\235!`H\216\322\332W\361\200X\024\374\033\271_\346"
 265      488ED2DA 
 265      57F18058 
 265      14FC1BB9 
 265      5FE6
 266 0477 27C4EEF2 		.ascii	"'\304\356\362\200t\227_\301S\035\016\337\345\211\206"
 266      8074975F 
 266      C1531D0E 
 266      DFE58986 
 267 0487 854FC31B 		.ascii	"\205O\303\033\305\007\210R=\363\014\313\037\211\270"
 267      C5078852 
 267      3DF30CCB 
 267      1F89B8
 268 0496 6AAAEFCE 		.ascii	"j\252\357\316\014\033H\277D\265pK\353{\011\354&\245"
 268      0C1B48BF 
 268      44B5704B 
 268      EB7B09EC 
 268      26A5
 269 04a8 810B63E7 		.ascii	"\201\013c\347\214\225\264&$\030\203\340\232B\360\265"
 269      8C95B426 
 269      241883E0 
 269      9A42F0B5 
 270 04b8 90E0512E 		.ascii	"\220\340Q.\270s\367\350\270t2\354\013#\235V\321@\307"
 270      B873F7E8 
 270      B87432EC 
 270      0B239D56 
 270      D140C7
 271 04cb 807E616D 		.ascii	"\200~amL:\231\343\301\362\236\330\267\340uN\355\373"
 271      4C3A99E3 
 271      C1F29ED8 
 271      B7E0754E 
 271      EDFB
 272 04dd D0C95CEC 		.ascii	"\320\311\\\354k\270h\"[\011\347\3268yhD\342\346;\337"
 272      6BB86822 
 272      5B09E7D6 
 272      38796844 
 272      E2E63BDF 
 273 04f1 4C9F2EA6 		.ascii	"L\237.\246s\370\241c\0210\256\3405\036\342u\203\363"
 273      73F8A163 
 273      1130AEE0 
 273      351EE275 
 273      83F3
 274 0503 6AF7B70C 		.ascii	"j\367\267\014\001\251\342\010\252\003\273N~`\204d\243"
 274      01A9E208 
 274      AA03BB4E 
 274      7E608464 
 274      A3
 275 0514 54C5DE8B 		.ascii	"T\305\336\213\211\254\212\223\330I\201p\025\345/\216"
ARM GAS  C:\Users\Bruger\AppData\Local\Temp\cc6EUZup.s 			page 21


 275      89AC8A93 
 275      D8498170 
 275      15E52F8E 
 276 0524 20C4FA28 		.ascii	" \304\372(\301\004\036\212\354\305n\211\221m\247\244"
 276      C1041E8A 
 276      ECC56E89 
 276      916DA7A4 
 277 0534 36654092 		.ascii	"6e@\222\360\367\276\016\316\304\307\324\030\344\032"
 277      F0F7BE0E 
 277      CEC4C7D4 
 277      18E41A
 278 0543 6F863436 		.ascii	"o\20646\324\320\355\361\244A\322X?q\252T-\325\377\316"
 278      D4D0EDF1 
 278      A441D258 
 278      3F71AA54 
 278      2DD5FFCE 
 279 0557 DBDB88A2 		.ascii	"\333\333\210\242\376\030\005S\012\235S!\235\267\270"
 279      FE180553 
 279      0A9D5321 
 279      9DB7B8
 280 0566 CEAB37DE 		.ascii	"\316\2537\336\277\251!\375\244\200\362O\362\265\361"
 280      BFA921FD 
 280      A480F24F 
 280      F2B5F1
 281 0575 F3B3EA07 		.ascii	"\363\263\352\007k\250o'6n\251\2217.\336\322\253\200"
 281      6BA86F27 
 281      366EA991 
 281      372EDED2 
 281      AB80
 282 0587 FFE3DC96 		.ascii	"\377\343\334\226p\024\234nKh0\015\017b\364\231\013\273"
 282      70149C6E 
 282      4B68300D 
 282      0F62F499 
 282      0BBB
 283 0599 3BE2C848 		.ascii	";\342\310H\010\354\310[%\333\264\034\314W\331L\237*"
 283      08ECC85B 
 283      25DBB41C 
 283      CC57D94C 
 283      9F2A
 284 05ab A69C1247 		.ascii	"\246\234\022G\232\271\007iFF\272\303\221\266\237\356"
 284      9AB90769 
 284      4646BAC3 
 284      91B69FEE 
 285 05bb 6D539329 		.ascii	"mS\223)I\334\326\376\272\343:rW:\213\362\341\340\036"
 285      49DCD6FE 
 285      BAE33A72 
 285      573A8BF2 
 285      E1E01E
 286 05ce 88DEF53F 		.ascii	"\210\336\365?D\355\372w\232\202iExo\334\305^\232\213"
 286      44EDFA77 
 286      9A826945 
 286      786FDCC5 
 286      5E9A8B
 287 05e1 D6F5AAC1 		.ascii	"\326\365\252\301\236=\277\213\216HU\321\020w\264\034"
 287      9E3DBF8B 
 287      8E4855D1 
 287      1077B41C 
ARM GAS  C:\Users\Bruger\AppData\Local\Temp\cc6EUZup.s 			page 22


 288 05f1 7CA91011 		.ascii	"|\251\020\021\347\021q6\214x\027dH\266\201\264\277\232"
 288      E7117136 
 288      8C781764 
 288      48B681B4 
 288      BF9A
 289 0603 FABC3C3E 		.ascii	"\372\274<>\3427\012S\036V\\\240\222~\243\340\233}\001"
 289      E2370A53 
 289      1E565CA0 
 289      927EA3E0 
 289      9B7D01
 290 0616 6A2E5D31 		.ascii	"j.]1Ex\217D\374\242)\224\275\013\271\367\275\277\177"
 290      45788F44 
 290      FCA22994 
 290      BD0BB9F7 
 290      BDBF7F
 291 0629 5A23BC8B 		.ascii	"Z#\274\213d\357\"\356=\330}\244V\025\341}=\302\273X"
 291      64EF22EE 
 291      3DD87DA4 
 291      5615E17D 
 291      3DC2BB58 
 292 063d F62E8E81 		.ascii	"\366.\216\201\335\036\341]\"{\227po\377\230\377jB\204"
 292      DD1EE15D 
 292      227B9770 
 292      6FFF98FF 
 292      6A4284
 293 0650 7730C2BB 		.ascii	"w0\302\273T\366fom\276\323\345M}B\277v\375\037,\253"
 293      54F6666F 
 293      6DBED3E5 
 293      4D7D42BF 
 293      76FD1F2C 
 294 0665 1F7E58F8 		.ascii	"\037~X\370\331Z\321%z\354^1\333\226\345\316\3678Dkf"
 294      D95AD125 
 294      7AEC5E31 
 294      DB96E5CE 
 294      F738446B 
 295 067a 967BF5E3 		.ascii	"\226{\365\343\277pl\366n\316\025\363R6\010\206g_\264"
 295      BF706CF6 
 295      6ECE15F3 
 295      52360886 
 295      675FB4
 296 068d 65ACFFBD 		.ascii	"e\254\377\275-#\353\005\223\355\217\251+\303\346\246"
 296      2D23EB05 
 296      93ED8FA9 
 296      2BC3E6A6 
 297 069d 9F3ADC1E 		.ascii	"\237:\334\036\321\232\346\311FP\267\215m\270\274\242"
 297      D19AE6C9 
 297      4650B78D 
 297      6DB8BCA2 
 298 06ad C7939FEB 		.ascii	"\307\223\237\353Mq\344\346\012\211\213\334Sr\355\036"
 298      4D71E4E6 
 298      0A898BDC 
 298      5372ED1E 
 299 06bd 6FCACA9F 		.ascii	"o\312\312\237\340\362\343\331\242\327\356\330\260\340"
 299      E0F2E3D9 
 299      A2D7EED8 
 299      B0E0
 300 06cb EF94F652 		.ascii	"\357\224\366RM\213\326\177\034\315W\355\330`\367\304"
ARM GAS  C:\Users\Bruger\AppData\Local\Temp\cc6EUZup.s 			page 23


 300      4D8BD67F 
 300      1CCD57ED 
 300      D860F7C4 
 301 06db FDFAE57C 		.ascii	"\375\372\345|g\216w\205\323\365\033!NN\362\374o\237"
 301      678E7785 
 301      D3F51B21 
 301      4E4EF2FC 
 301      6F9F
 302 06ed 49D73D93 		.ascii	"I\327=\223\221\225\366\364\272t\355\013\031Y\031\353"
 302      9195F6F4 
 302      BA74ED0B 
 302      195919EB 
 303 06fd D7EAD6A4 		.ascii	"\327\352\326\244\255[\207o\355\352g\323\326\257M_\026"
 303      AD5B876F 
 303      EDEA67D3 
 303      D6AF4D5F 
 303      16
 304 070e 9BF106C1 		.ascii	"\233\361\006\301d\367F$Jf\311\027\25593\327l\332\224"
 304      64F74624 
 304      4A66C917 
 304      AD3933D7 
 304      6CDA94
 305 0721 9E9AAAC8 		.ascii	"\236\232\252\310\250a%}\362\276\314Gl\253sD\273g\301"
 305      A861257D 
 305      F2BECC47 
 305      6CAB7344 
 305      BB67C1
 306 0734 75598CD2 		.ascii	"uY\214\322f>\202\271~\204\356Y\242w\301\371yw\266ht"
 306      663E82B9 
 306      7E84EE59 
 306      A277C1F9 
 306      7977B668 
 307 0749 6C76E679 		.ascii	"lv\346y\354\331\331\0361//A\316\220\345\305\302\244"
 307      ECD9D91E 
 307      312F2F41 
 307      CE90E5C5 
 307      C2A4
 308 075b BF6E8901 		.ascii	"\277n\211\001&y!\240\021_\217\256\311w9\274N\267\213"
 308      267921A0 
 308      115F8FAE 
 308      C97739BC 
 308      4EB78B
 309 076e 192B4386 		.ascii	"\031+C\206\216\363\263y\227\330l\362\254\000\034\277"
 309      8EF3B379 
 309      97D86CF2 
 309      AC001CBF 
 310 077e B2E67ADC 		.ascii	"\262\346z\334\257z\354\033-\2578s\304<\313\317_\177"
 310      AF7AEC1B 
 310      2DAF3873 
 310      C43CCBCF 
 310      5F7F
 311 0790 F28987AC 		.ascii	"\362\211\207\254\216\315\271,\26757\317\355\2608<\242"
 311      8ECDB92C 
 311      B73537CF 
 311      EDB0383C 
 311      A2
 312 07a1 DDEBF658 		.ascii	"\335\353\366X\037KY\031\271\340\334\230\353\366x\255"
ARM GAS  C:\Users\Bruger\AppData\Local\Temp\cc6EUZup.s 			page 24


 312      1F4B5919 
 312      B9E0DC98 
 312      EBF678AD 
 313 07b1 AFBAF2AD 		.ascii	"\257\272\362\255v\317F\334\377e\312\243l\266\302\345"
 313      76CF46DC 
 313      FF65CAA3 
 313      6CB6C2E5 
 314 07c1 76892B44 		.ascii	"v\211+D\373\313N\253\323\345\310\311\317\026\255"
 314      FBCB4EAB 
 314      D3E5C8C9 
 314      CF16AD
 315 07d0 1BB1764E 		.ascii	"\033\261vN\227h\265e\213\257\330\363s\274\266PW\275"
 315      9768B565 
 315      8BAFD8F3 
 315      73BCB650 
 315      57BD
 316 07e2 F6FF6290 		.ascii	"\366\377b\220\347\315F\321\230\361?\334\251sb"
 316      E7CD46D1 
 316      98F13FDC 
 316      A97362
 317              		.text
 318              		.section	.gnu.lto_.symtab.24bf6e51,"",%progbits
 319 0000 494E5433 		.ascii	"INT3Function\000\000\000\000\000\000\000\000\000\000"
 319      46756E63 
 319      74696F6E 
 319      00000000 
 319      00000000 
 320 0016 0000F800 		.ascii	"\000\000\370\000\000\000_Z10HW_INT_ISRv\000\000\000"
 320      00005F5A 
 320      31304857 
 320      5F494E54 
 320      5F495352 
 321 002e 00000000 		.ascii	"\000\000\000\000\000\000\000\000\000\265\000\000\000"
 321      00000000 
 321      00B50000 
 321      00
 322 003b 494E5430 		.ascii	"INT0Function\000\000\000\000\000\000\000\000\000\000"
 322      46756E63 
 322      74696F6E 
 322      00000000 
 322      00000000 
 323 0051 0000FA00 		.ascii	"\000\000\372\000\000\000_Z15detachInterrupti\000\000"
 323      00005F5A 
 323      31356465 
 323      74616368 
 323      496E7465 
 324 006d 00000000 		.ascii	"\000\000\000\000\000\000\000\000\000\000\300\000\000"
 324      00000000 
 324      0000C000 
 324      00
 325 007a 005F5A31 		.ascii	"\000_Z15attachInterruptiPFvvE11HW_INT_MODE\000\000\000"
 325      35617474 
 325      61636849 
 325      6E746572 
 325      72757074 
 326 00a4 00000000 		.ascii	"\000\000\000\000\000\000\000\000\000\342\000\000\000"
 326      00000000 
ARM GAS  C:\Users\Bruger\AppData\Local\Temp\cc6EUZup.s 			page 25


 326      00E20000 
 326      00
 327 00b1 50325F43 		.ascii	"P2_ClearInterrupt\000\000\002\000\000\000\000\000\000"
 327      6C656172 
 327      496E7465 
 327      72727570 
 327      74000002 
 328 00cb 000000EA 		.ascii	"\000\000\000\352\000\000\000P2_SetInterruptMode\000"
 328      00000050 
 328      325F5365 
 328      74496E74 
 328      65727275 
 329 00e6 00020000 		.ascii	"\000\002\000\000\000\000\000\000\000\000\000\357\000"
 329      00000000 
 329      000000EF 
 329      00
 330 00f3 00004857 		.ascii	"\000\000HW_INT_StartEx\000\000\002\000\000\000\000\000"
 330      5F494E54 
 330      5F537461 
 330      72744578 
 330      00000200 
 331 010b 00000000 		.ascii	"\000\000\000\000\366\000\000\000"
 331      F6000000 
 332              		.text
 333              		.section	.gnu.lto_.opts,"",%progbits
 334 0000 272D6665 		.ascii	"'-fexceptions' '-fno-trapv' '-mcpu=cortex-m3' '-mth"
 334      78636570 
 334      74696F6E 
 334      73272027 
 334      2D666E6F 
 335 0033 756D6227 		.ascii	"umb' '-g' '-O3' '-ffunction-sections' '-finline-fun"
 335      20272D67 
 335      2720272D 
 335      4F332720 
 335      272D6666 
 336 0066 6374696F 		.ascii	"ctions' '-flto' '-ffat-lto-objects'\000"
 336      6E732720 
 336      272D666C 
 336      746F2720 
 336      272D6666 
 337              		.text
 338              		.cfi_sections	.debug_frame
 339              		.section	.text._Z10HW_INT_ISRv,"ax",%progbits
 340              		.align	2
 341              		.global	_Z10HW_INT_ISRv
 342              		.thumb
 343              		.thumb_func
 344              		.type	_Z10HW_INT_ISRv, %function
 345              	_Z10HW_INT_ISRv:
 346              		.fnstart
 347              	.LFB150:
 348              		.file 1 "core\\Arduino_HW_Interrupt.cpp"
   1:core/Arduino_HW_Interrupt.cpp **** extern "C" {
   2:core/Arduino_HW_Interrupt.cpp **** #include <project.h>
   3:core/Arduino_HW_Interrupt.cpp **** }
   4:core/Arduino_HW_Interrupt.cpp **** 
   5:core/Arduino_HW_Interrupt.cpp **** #include "Arduino.h"
ARM GAS  C:\Users\Bruger\AppData\Local\Temp\cc6EUZup.s 			page 26


   6:core/Arduino_HW_Interrupt.cpp **** #include "Arduino_HW_Interrupt.h"
   7:core/Arduino_HW_Interrupt.cpp **** #include <cydevice_trm.h>
   8:core/Arduino_HW_Interrupt.cpp **** 
   9:core/Arduino_HW_Interrupt.cpp **** void (*INT0Function)(void);
  10:core/Arduino_HW_Interrupt.cpp **** void (*INT3Function)(void);
  11:core/Arduino_HW_Interrupt.cpp **** 
  12:core/Arduino_HW_Interrupt.cpp **** CY_ISR_PROTO(HW_INT_ISR);
  13:core/Arduino_HW_Interrupt.cpp **** 
  14:core/Arduino_HW_Interrupt.cpp **** void attachInterrupt(int interrupt, void (*isr)(), enum HW_INT_MODE mode)
  15:core/Arduino_HW_Interrupt.cpp **** {
  16:core/Arduino_HW_Interrupt.cpp ****   // Clear any pending interupts
  17:core/Arduino_HW_Interrupt.cpp ****   P2_ClearInterrupt();
  18:core/Arduino_HW_Interrupt.cpp ****   
  19:core/Arduino_HW_Interrupt.cpp ****   if (interrupt == 0) // Port 2.0 is used for interupt 0 
  20:core/Arduino_HW_Interrupt.cpp ****   {
  21:core/Arduino_HW_Interrupt.cpp ****     P2_SetInterruptMode(P2_0_INTR, mode);
  22:core/Arduino_HW_Interrupt.cpp ****     INT0Function = isr;
  23:core/Arduino_HW_Interrupt.cpp ****   }
  24:core/Arduino_HW_Interrupt.cpp ****   else if (interrupt == 3) // Port 2.3 is used for interupt 3 
  25:core/Arduino_HW_Interrupt.cpp ****   {
  26:core/Arduino_HW_Interrupt.cpp ****     P2_SetInterruptMode(P2_3_INTR, mode);
  27:core/Arduino_HW_Interrupt.cpp ****     INT3Function = isr;
  28:core/Arduino_HW_Interrupt.cpp ****   }    
  29:core/Arduino_HW_Interrupt.cpp ****   HW_INT_StartEx(HW_INT_ISR);
  30:core/Arduino_HW_Interrupt.cpp **** }
  31:core/Arduino_HW_Interrupt.cpp **** 
  32:core/Arduino_HW_Interrupt.cpp **** void detachInterrupt(int interrupt)
  33:core/Arduino_HW_Interrupt.cpp **** {
  34:core/Arduino_HW_Interrupt.cpp ****   if (interrupt == 0)
  35:core/Arduino_HW_Interrupt.cpp ****   {
  36:core/Arduino_HW_Interrupt.cpp ****     P2_SetInterruptMode(P2_0_INTR, DISABLE);
  37:core/Arduino_HW_Interrupt.cpp ****   }
  38:core/Arduino_HW_Interrupt.cpp ****   else if (interrupt == 3)
  39:core/Arduino_HW_Interrupt.cpp ****   {
  40:core/Arduino_HW_Interrupt.cpp ****      P2_SetInterruptMode(P2_3_INTR, DISABLE);
  41:core/Arduino_HW_Interrupt.cpp ****   }
  42:core/Arduino_HW_Interrupt.cpp **** }
  43:core/Arduino_HW_Interrupt.cpp **** 
  44:core/Arduino_HW_Interrupt.cpp **** CY_ISR(HW_INT_ISR)
  45:core/Arduino_HW_Interrupt.cpp **** {
 349              		.loc 1 45 0
 350              		.cfi_startproc
 351              		@ args = 0, pretend = 0, frame = 0
 352              		@ frame_needed = 0, uses_anonymous_args = 0
 353 0000 10B5     		push	{r4, lr}
 354              		.save {r4, lr}
 355              		.cfi_def_cfa_offset 8
 356              		.cfi_offset 4, -8
 357              		.cfi_offset 14, -4
 358              	.LBB7:
  46:core/Arduino_HW_Interrupt.cpp ****   uint8_t intStat = P2_ClearInterrupt();
 359              		.loc 1 46 0
 360 0002 FFF7FEFF 		bl	P2_ClearInterrupt
 361              	.LVL0:
  47:core/Arduino_HW_Interrupt.cpp ****   if ((intStat & P2_0_INTR) != 0)
 362              		.loc 1 47 0
 363 0006 C207     		lsls	r2, r0, #31
ARM GAS  C:\Users\Bruger\AppData\Local\Temp\cc6EUZup.s 			page 27


  46:core/Arduino_HW_Interrupt.cpp ****   uint8_t intStat = P2_ClearInterrupt();
 364              		.loc 1 46 0
 365 0008 0446     		mov	r4, r0
 366              	.LVL1:
 367              		.loc 1 47 0
 368 000a 07D4     		bmi	.L9
 369              	.LVL2:
 370              	.L2:
  48:core/Arduino_HW_Interrupt.cpp ****   {
  49:core/Arduino_HW_Interrupt.cpp ****     INT0Function();
  50:core/Arduino_HW_Interrupt.cpp ****   }
  51:core/Arduino_HW_Interrupt.cpp ****   if ((intStat & P2_3_INTR) != 0)
 371              		.loc 1 51 0
 372 000c 2307     		lsls	r3, r4, #28
 373 000e 00D4     		bmi	.L10
 374 0010 10BD     		pop	{r4, pc}
 375              	.L10:
 376              	.LBE7:
 377              	.LBB8:
  52:core/Arduino_HW_Interrupt.cpp ****   {
  53:core/Arduino_HW_Interrupt.cpp ****     INT3Function();
 378              		.loc 1 53 0
 379 0012 044B     		ldr	r3, .L11
 380              	.LBE8:
  54:core/Arduino_HW_Interrupt.cpp ****   }
  55:core/Arduino_HW_Interrupt.cpp **** }
 381              		.loc 1 55 0
 382 0014 BDE81040 		pop	{r4, lr}
 383              		.cfi_remember_state
 384              		.cfi_restore 14
 385              		.cfi_restore 4
 386              		.cfi_def_cfa_offset 0
 387              	.LBB9:
  53:core/Arduino_HW_Interrupt.cpp ****   }
 388              		.loc 1 53 0
 389 0018 5B68     		ldr	r3, [r3, #4]
 390 001a 1847     		bx	r3	@ indirect register sibling call
 391              	.LVL3:
 392              	.L9:
 393              		.cfi_restore_state
 394              	.LBE9:
 395              	.LBB10:
  49:core/Arduino_HW_Interrupt.cpp ****   }
 396              		.loc 1 49 0
 397 001c 014B     		ldr	r3, .L11
 398 001e 1B68     		ldr	r3, [r3]
 399 0020 9847     		blx	r3
 400              	.LVL4:
 401 0022 F3E7     		b	.L2
 402              	.L12:
 403              		.align	2
 404              	.L11:
 405 0024 00000000 		.word	.LANCHOR0
 406              	.LBE10:
 407              		.cfi_endproc
 408              	.LFE150:
 409              		.fnend
ARM GAS  C:\Users\Bruger\AppData\Local\Temp\cc6EUZup.s 			page 28


 410              		.size	_Z10HW_INT_ISRv, .-_Z10HW_INT_ISRv
 411              		.section	.text._Z15attachInterruptiPFvvE11HW_INT_MODE,"ax",%progbits
 412              		.align	2
 413              		.global	_Z15attachInterruptiPFvvE11HW_INT_MODE
 414              		.thumb
 415              		.thumb_func
 416              		.type	_Z15attachInterruptiPFvvE11HW_INT_MODE, %function
 417              	_Z15attachInterruptiPFvvE11HW_INT_MODE:
 418              		.fnstart
 419              	.LFB148:
  15:core/Arduino_HW_Interrupt.cpp ****   // Clear any pending interupts
 420              		.loc 1 15 0
 421              		.cfi_startproc
 422              		@ args = 0, pretend = 0, frame = 0
 423              		@ frame_needed = 0, uses_anonymous_args = 0
 424              	.LVL5:
 425 0000 70B5     		push	{r4, r5, r6, lr}
 426              		.save {r4, r5, r6, lr}
 427              		.cfi_def_cfa_offset 16
 428              		.cfi_offset 4, -16
 429              		.cfi_offset 5, -12
 430              		.cfi_offset 6, -8
 431              		.cfi_offset 14, -4
  15:core/Arduino_HW_Interrupt.cpp ****   // Clear any pending interupts
 432              		.loc 1 15 0
 433 0002 0446     		mov	r4, r0
 434 0004 0D46     		mov	r5, r1
 435 0006 1646     		mov	r6, r2
  17:core/Arduino_HW_Interrupt.cpp ****   
 436              		.loc 1 17 0
 437 0008 FFF7FEFF 		bl	P2_ClearInterrupt
 438              	.LVL6:
  19:core/Arduino_HW_Interrupt.cpp ****   {
 439              		.loc 1 19 0
 440 000c 34B1     		cbz	r4, .L17
  24:core/Arduino_HW_Interrupt.cpp ****   {
 441              		.loc 1 24 0
 442 000e 032C     		cmp	r4, #3
 443 0010 0FD0     		beq	.L18
  30:core/Arduino_HW_Interrupt.cpp **** 
 444              		.loc 1 30 0
 445 0012 BDE87040 		pop	{r4, r5, r6, lr}
 446              		.cfi_remember_state
 447              		.cfi_restore 14
 448              		.cfi_restore 6
 449              		.cfi_restore 5
 450              		.cfi_restore 4
 451              		.cfi_def_cfa_offset 0
 452              	.LVL7:
  29:core/Arduino_HW_Interrupt.cpp **** }
 453              		.loc 1 29 0
 454 0016 0C48     		ldr	r0, .L19
 455 0018 FFF7FEBF 		b	HW_INT_StartEx
 456              	.LVL8:
 457              	.L17:
 458              		.cfi_restore_state
  21:core/Arduino_HW_Interrupt.cpp ****     INT0Function = isr;
ARM GAS  C:\Users\Bruger\AppData\Local\Temp\cc6EUZup.s 			page 29


 459              		.loc 1 21 0
 460 001c 3146     		mov	r1, r6
 461 001e 0120     		movs	r0, #1
 462 0020 FFF7FEFF 		bl	P2_SetInterruptMode
 463              	.LVL9:
  22:core/Arduino_HW_Interrupt.cpp ****   }
 464              		.loc 1 22 0
 465 0024 094B     		ldr	r3, .L19+4
  29:core/Arduino_HW_Interrupt.cpp **** }
 466              		.loc 1 29 0
 467 0026 0848     		ldr	r0, .L19
  22:core/Arduino_HW_Interrupt.cpp ****   }
 468              		.loc 1 22 0
 469 0028 1D60     		str	r5, [r3]
  30:core/Arduino_HW_Interrupt.cpp **** 
 470              		.loc 1 30 0
 471 002a BDE87040 		pop	{r4, r5, r6, lr}
 472              		.cfi_remember_state
 473              		.cfi_restore 4
 474              		.cfi_restore 5
 475              		.cfi_restore 6
 476              		.cfi_restore 14
 477              		.cfi_def_cfa_offset 0
 478              	.LVL10:
  29:core/Arduino_HW_Interrupt.cpp **** }
 479              		.loc 1 29 0
 480 002e FFF7FEBF 		b	HW_INT_StartEx
 481              	.LVL11:
 482              	.L18:
 483              		.cfi_restore_state
  26:core/Arduino_HW_Interrupt.cpp ****     INT3Function = isr;
 484              		.loc 1 26 0
 485 0032 3146     		mov	r1, r6
 486 0034 0820     		movs	r0, #8
 487 0036 FFF7FEFF 		bl	P2_SetInterruptMode
 488              	.LVL12:
  27:core/Arduino_HW_Interrupt.cpp ****   }    
 489              		.loc 1 27 0
 490 003a 044B     		ldr	r3, .L19+4
  29:core/Arduino_HW_Interrupt.cpp **** }
 491              		.loc 1 29 0
 492 003c 0248     		ldr	r0, .L19
  27:core/Arduino_HW_Interrupt.cpp ****   }    
 493              		.loc 1 27 0
 494 003e 5D60     		str	r5, [r3, #4]
  30:core/Arduino_HW_Interrupt.cpp **** 
 495              		.loc 1 30 0
 496 0040 BDE87040 		pop	{r4, r5, r6, lr}
 497              		.cfi_restore 4
 498              		.cfi_restore 5
 499              		.cfi_restore 6
 500              		.cfi_restore 14
 501              		.cfi_def_cfa_offset 0
 502              	.LVL13:
  29:core/Arduino_HW_Interrupt.cpp **** }
 503              		.loc 1 29 0
 504 0044 FFF7FEBF 		b	HW_INT_StartEx
ARM GAS  C:\Users\Bruger\AppData\Local\Temp\cc6EUZup.s 			page 30


 505              	.LVL14:
 506              	.L20:
 507              		.align	2
 508              	.L19:
 509 0048 00000000 		.word	_Z10HW_INT_ISRv
 510 004c 00000000 		.word	.LANCHOR0
 511              		.cfi_endproc
 512              	.LFE148:
 513              		.fnend
 514              		.size	_Z15attachInterruptiPFvvE11HW_INT_MODE, .-_Z15attachInterruptiPFvvE11HW_INT_MODE
 515              		.section	.text._Z15detachInterrupti,"ax",%progbits
 516              		.align	2
 517              		.global	_Z15detachInterrupti
 518              		.thumb
 519              		.thumb_func
 520              		.type	_Z15detachInterrupti, %function
 521              	_Z15detachInterrupti:
 522              		.fnstart
 523              	.LFB149:
  33:core/Arduino_HW_Interrupt.cpp ****   if (interrupt == 0)
 524              		.loc 1 33 0
 525              		.cfi_startproc
 526              		@ args = 0, pretend = 0, frame = 0
 527              		@ frame_needed = 0, uses_anonymous_args = 0
 528              		@ link register save eliminated.
 529              	.LVL15:
  34:core/Arduino_HW_Interrupt.cpp ****   {
 530              		.loc 1 34 0
 531 0000 10B1     		cbz	r0, .L24
  38:core/Arduino_HW_Interrupt.cpp ****   {
 532              		.loc 1 38 0
 533 0002 0328     		cmp	r0, #3
 534 0004 04D0     		beq	.L25
 535 0006 7047     		bx	lr
 536              	.L24:
  36:core/Arduino_HW_Interrupt.cpp ****   }
 537              		.loc 1 36 0
 538 0008 0146     		mov	r1, r0
 539 000a 0120     		movs	r0, #1
 540              	.LVL16:
 541 000c FFF7FEBF 		b	P2_SetInterruptMode
 542              	.LVL17:
 543              	.L25:
 544              	.LBB13:
 545              	.LBB14:
  40:core/Arduino_HW_Interrupt.cpp ****   }
 546              		.loc 1 40 0
 547 0010 0820     		movs	r0, #8
 548              	.LVL18:
 549 0012 0021     		movs	r1, #0
 550 0014 FFF7FEBF 		b	P2_SetInterruptMode
 551              	.LVL19:
 552              	.LBE14:
 553              	.LBE13:
 554              		.cfi_endproc
 555              	.LFE149:
 556              		.cantunwind
ARM GAS  C:\Users\Bruger\AppData\Local\Temp\cc6EUZup.s 			page 31


 557              		.fnend
 558              		.size	_Z15detachInterrupti, .-_Z15detachInterrupti
 559              		.global	INT3Function
 560              		.global	INT0Function
 561              		.bss
 562              		.align	2
 563              		.set	.LANCHOR0,. + 0
 564              		.type	INT0Function, %object
 565              		.size	INT0Function, 4
 566              	INT0Function:
 567 0000 00000000 		.space	4
 568              		.type	INT3Function, %object
 569              		.size	INT3Function, 4
 570              	INT3Function:
 571 0004 00000000 		.space	4
 572              		.text
 573              	.Letext0:
 574              		.file 2 "c:\\program files (x86)\\cypress\\psoc creator\\4.0\\psoc creator\\import\\gnu\\arm\\4.9.
 575              		.file 3 "c:\\program files (x86)\\cypress\\psoc creator\\4.0\\psoc creator\\import\\gnu\\arm\\4.9.
 576              		.file 4 "Generated_Source\\PSoC5/cytypes.h"
 577              		.file 5 ".\\core/pins_arduino.h"
 578              		.file 6 "Generated_Source\\PSoC5/core_cm3.h"
 579              		.file 7 "Generated_Source\\PSoC5/HW_INT.h"
 580              		.file 8 "core\\Arduino_HW_Interrupt.h"
 581              		.file 9 "Generated_Source\\PSoC5/P2.h"