ARM GAS  C:\Users\Bruger\AppData\Local\Temp\ccYCm4UW.s 			page 1


   1              		.syntax unified
   2              		.cpu cortex-m3
   3              		.fpu softvfp
   4              		.eabi_attribute 20, 1
   5              		.eabi_attribute 21, 1
   6              		.eabi_attribute 23, 3
   7              		.eabi_attribute 24, 1
   8              		.eabi_attribute 25, 1
   9              		.eabi_attribute 26, 1
  10              		.eabi_attribute 30, 2
  11              		.eabi_attribute 34, 1
  12              		.eabi_attribute 18, 4
  13              		.thumb
  14              		.file	"Arduino_Time.cpp"
  15              		.text
  16              	.Ltext0:
  17              		.section	.gnu.lto_.profile.24bf4ab2,"",%progbits
  18 0000 789C6366 		.ascii	"x\234cf```e\200\000F\206>F9\000\002T\000\267"
  18      60606065 
  18      80004686 
  18      3E463900 
  18      025400B7 
  19              		.text
  20              		.section	.gnu.lto_.jmpfuncs.24bf4ab2,"",%progbits
  21 0000 789C6366 		.ascii	"x\234cf\300\016b\2414\013\02032}db\234w\271o\035S\355"
  21      C00E62A1 
  21      340B1033 
  21      327D6462 
  21      9C77B96F 
  22 0017 EF868E06 		.ascii	"\357\206\216\006\216\237L\014\237\231@\342\313\031k"
  22      8E9F4C0C 
  22      9F9940E2 
  22      CB196B
  23 0026 416A1819 		.ascii	"Aj\030\031\260*b\374\013V\264\002\242\210\211\021\004"
  23      B02A62FC 
  23      0B56B402 
  23      A2888911 
  23      04
  24 0037 98CB814C 		.ascii	"\230\313\201Lf \243\036\244\011\000\246z\025\001"
  24      6620A31E 
  24      A40900A6 
  24      7A1501
  25              		.text
  26              		.section	.gnu.lto_.inline.24bf4ab2,"",%progbits
  27 0000 789C6366 		.ascii	"x\234cf\300\016&Bi\026\006\006\016mF\006& \223m\201"
  27      C00E2642 
  27      69160606 
  27      0E6D4606 
  27      2620936D 
  28 0015 3C886260 		.ascii	"<\210b`\342f``d`\344\0022\221\010\006\021]\2402\276"
  28      E2666060 
  28      6460E402 
  28      32910806 
  28      115DA032 
  29 002a 6B5E7075 		.ascii	"k^pu`q\220b\250\0168\023*\303\300\312\213\305\340\011"
  29      60719062 
  29      A80E3813 
ARM GAS  C:\Users\Bruger\AppData\Local\Temp\ccYCm4UW.s 			page 2


  29      2AC3C0CA 
  29      8BC5E009 
  30 003e 7ECC2009 		.ascii	"~\314 \011\240\005\014\330$\031\0006\216\007\341"
  30      A0050CD8 
  30      24190036 
  30      8E07E1
  31              		.text
  32              		.section	.gnu.lto_.pureconst.24bf4ab2,"",%progbits
  33 0000 789C6366 		.ascii	"x\234cf``\340d\200\000\026\006\011F)&\011f\011\000\002"
  33      6060E064 
  33      80001606 
  33      09462926 
  33      09660900 
  34 0015 AF0079   		.ascii	"\257\000y"
  35              		.text
  36              		.section	.gnu.lto__Z12initTimebasev.24bf4ab2,"",%progbits
  37 0000 789C6366 		.ascii	"x\234cf\300\004R@l\307\310\300 \001\244\031\231\031"
  37      C0045240 
  37      6CC7C8C0 
  37      2001A419 
  37      9919
  38 0012 1899269C 		.ascii	"\030\231&\234c`h\344`bd\0041\030\030\031\352\231\030"
  38      636068E4 
  38      60626404 
  38      31181819 
  38      EA9918
  39 0025 EB195F32 		.ascii	"\353\031_2}db\234p`\365\014n\365\245\015\015\015\037"
  39      7D64629C 
  39      7060F50C 
  39      6EF5A50D 
  39      0D0D1F
  40 0038 9A9E73B7 		.ascii	"\232\236s\267J\374db`\370\314\0041\206q9\243:\003P\315"
  40      4AFC6462 
  40      60F8CC04 
  40      31867139 
  40      A33A0350 
  41 004d C796BFD7 		.ascii	"\307\226\277\327\271\331Z\200j\004 r\214+\030\331\200"
  41      B9D95A80 
  41      6A042072 
  41      8C2B18D9 
  41      80
  42 005e C633AC17 		.ascii	"\3063\254\027:\320\360\377\377\3479\007k\330\030\030"
  42      3AD0F0FF 
  42      FFE73907 
  42      6BD81818 
  43 006e 9E006540 		.ascii	"\236\000e@\306?eb\002\321\314w\030\233\017|}\303\010"
  43      C63F6562 
  43      02D1CC77 
  43      189B0F7C 
  43      7DC308
  44 0081 520B3264 		.ascii	"R\0132d\336\345\276uL\265\277\033:\0328~21~f\002\352"
  44      DEE5BE75 
  44      4CB5BF1B 
  44      3A1A387E 
  44      32317E66 
  45 0097 675CC958 		.ascii	"g\\\311X\313\360\023\250\034\244\264\014\227B\240\261"
  45      CBF013A8 
ARM GAS  C:\Users\Bruger\AppData\Local\Temp\ccYCm4UW.s 			page 3


  45      1CA4B40C 
  45      9742A0B1 
  46 00a7 8CAB9014 		.ascii	"\214\253\220\024\376\\\302\204K)3P\351j\270\322\226"
  46      FE5CC284 
  46      4B293350 
  46      E96AB8D2 
  46      96
  47 00b8 03BF5F30 		.ascii	"\003\277_0cU\312\374\231\211\005\250t\015P)\212\324"
  47      6355CAFC 
  47      998905A8 
  47      740D5029 
  47      8AD4
  48 00ca 814AB031 		.ascii	"\201J\2601\254`M\214k\031k\177\002\325\335cl<\360\227"
  48      AC604D8C 
  48      6B196B7F 
  48      02D5DD63 
  48      6C3CF097 
  49 00de 052CC400 		.ascii	"\005,\304\000\362%#\310w@G\211%\347\027\245\3068\026"
  49      F22523C8 
  49      77404789 
  49      25E717A5 
  49      C63816
  50 00f1 A59466E6 		.ascii	"\245\224f\346\345\307\207d\346\246\352%\027\0240\000"
  50      E5C78764 
  50      E6A6EA25 
  50      17143000 
  51 0101 0018687B 		.ascii	"\000\030h{\001"
  51      01
  52              		.text
  53              		.section	.gnu.lto__Z19BootloaderReset_ISRv.24bf4ab2,"",%progbits
  54 0000 789C6D52 		.ascii	"x\234mRMkSA\024\275g\336g\233/q\021\244\177\240+\335"
  54      4D6B5341 
  54      14BD67DE 
  54      679B2F71 
  54      11A47FA0 
  55 0016 BA13FD07 		.ascii	"\272\023\375\007.\004\027\012.j\027]\324\226\202\313"
  55      2E04170A 
  55      2E6A175D 
  55      D49682CB 
  56 0026 D0F7EC03 		.ascii	"\320\367\354\003\025T\272pa\251U\020\324hl\233\372\035"
  56      1554BA70 
  56      61A95510 
  56      D4686C9B 
  56      FA1D
  57 0038 EBC74324 		.ascii	"\353\307C$\240\013ERI+V7\251\230]\303[HRB\275w\022k"
  57      A00B4552 
  57      492B5637 
  57      A9985DC3 
  57      5B485242 
  58 0050 1AF36066 		.ascii	"\032\363`f\336\3349s\3569w\256A\377\177'x\304\015\242"
  58      DEDC3973 
  58      EE3977AE 
  58      41FF7F27 
  58      78C40DA2 
  59 0064 7DBCC225 		.ascii	"}\274\302%\250\351\217D\276\253\224\261\222&\257\337"
  59      A8E98F44 
  59      BEAB94B1 
ARM GAS  C:\Users\Bruger\AppData\Local\Temp\ccYCm4UW.s 			page 4


  59      9226AFDF 
  60 0074 7A7990BC 		.ascii	"zy\220\274\270\241\314\216\235\011\253\005\262\224]"
  60      B8A1CC8E 
  60      9D09AB05 
  60      B2945D
  61 0083 4C71D8F9 		.ascii	"Lq\330\371p\210\3036\234V\330\001\344\207@\223\3120"
  61      7088C336 
  61      9C56D801 
  61      E4874093 
  61      CA30
  62 0095 2DDBC124 		.ascii	"-\333\301$\252\252\2460\035\346\256\305\006o{\236\267"
  62      AAAAA630 
  62      1DE6AEC5 
  62      066F7B9E 
  62      B7
  63 00a6 792BE71D 		.ascii	"y+\347\035\015QWD\221j\011\301]\014\022\203jA\263\034"
  63      0D515744 
  63      916A09C1 
  63      5D0C1283 
  63      6A41B31C 
  64 00ba B30306ED 		.ascii	"\263\003\006\355i\235!\013\033\274.\356\015\275\355"
  64      699D210B 
  64      1BBC2EEE 
  64      0DBDED
  65 00c9 EDD27C90 		.ascii	"\355\322|\220J\332TW,\226\247\030O\014\252\360\220\234"
  65      4ADA5457 
  65      2C96A718 
  65      4F0CAAF0 
  65      909C
  66 00db 1BBCE1D5 		.ascii	"\033\274\341\325\370\206\251\260PUrU8o\224\256,\250"
  66      F886A9B0 
  66      50557255 
  66      386F94AE 
  66      2CA8
  67 00ed CC9677C1 		.ascii	"\314\226w\301s\353\312\210\024\323\341\0362|\327$\201"
  67      73EBCA88 
  67      14D3E11E 
  67      327CD724 
  67      81
  68 00fe 2E3721D0 		.ascii	".7!\320\337\312\356\006[\221\320\343\276\006\333\364"
  68      DFCAEE06 
  68      5B91D0E3 
  68      BE06DBF4 
  69 010e 05C1DA54 		.ascii	"\005\301\332T\362\037\326\277\263|\311\371\245\352\232"
  69      F21FD6BF 
  69      B37CC9F9 
  69      A5EA9A
  70 011d 318701ED 		.ascii	"1\207\001\355dC\031\264\222\326\032\336\324\332\304"
  70      644319B4 
  70      92D61ADE 
  70      D4DAC4
  71 012c 6E0F62AE 		.ascii	"n\017b\256:\036t\022\247\333\330\016&\223\336\333\314"
  71      3A1E7412 
  71      A7DBD80E 
  71      2693DEDB 
  71      CC
  72 013d 1484A502 		.ascii	"\024\204\245\002z\272q\"\306\020\346\231\247\373\310"
ARM GAS  C:\Users\Bruger\AppData\Local\Temp\ccYCm4UW.s 			page 5


  72      7ABA7122 
  72      C610E699 
  72      A7FBC8
  73 014c 6D4AF938 		.ascii	"mJ\3718\372\243\362\351\263+*]\275\315\372\301u\314"
  73      FAA3F2E9 
  73      B32B2A5D 
  73      BDCDFAC1 
  73      75CC
  74 015e 61D6F704 		.ascii	"a\326\367\004\325\207\005d\260(\031\371l\275\3228\256"
  74      D5870564 
  74      B02819F9 
  74      6CBDD238 
  74      AE
  75 016f EF87FB19 		.ascii	"\357\207\373\031\216<\343tZ,!SW\375Z\223\265S\342\265"
  75      8E3CE374 
  75      5A2C2153 
  75      57FD5A93 
  75      B553E2B5 
  76 0183 6ADB5EAC 		.ascii	"j\333^\254;w,b\030\341\241\266\027\027{\253\177\353"
  76      3B772C62 
  76      18E1A1B6 
  76      17177BAB 
  76      7FEB
  77 0195 26D8D9E2 		.ascii	"&\330\331\342\271\262\022E*\337Gx\264c\327\246b\312"
  77      B9B21245 
  77      2ADF4778 
  77      B463D7A6 
  77      62CA
  78 01a7 F88AB79B 		.ascii	"\370\212\267\233\371\327\243\273z!\\\177\005\335\011"
  78      F9D7A3BB 
  78      7A215C7F 
  78      05DD09
  79 01b6 91B2BBBB 		.ascii	"\221\262\273\273\004\217Y \341\011\344Ef~f\253\011a"
  79      048F5920 
  79      E109E445 
  79      667E66AB 
  79      0961
  80 01c8 4E342EFB 		.ascii	"N4.\373\236\271\313~B[\\\2359\377..\366\257\372,4\211"
  80      9EB9CB7E 
  80      425B5C9D 
  80      39FF2E2E 
  80      F6AFFA2C 
  81 01de A718C033 		.ascii	"\247\030\3003Q\200\347\354\226\0017\313\027\033I\301"
  81      5180E7EC 
  81      960137CB 
  81      171B49C1 
  82 01ee A70E130A 		.ascii	"\247\016\023\012|\"V\267\226 \031zu\223\243\005\340"
  82      7C2256B7 
  82      9620197A 
  82      7593A305 
  82      E0
  83 01ff 45BBA1C4 		.ascii	"E\273\241\304\207\243K\364\035~X\263t\375Hz\024\022"
  83      87A34BF4 
  83      1D7E58B3 
  83      74FD487A 
  83      1412
  84 0211 E537490F 		.ascii	"\3457I\017\215M\014\237<2q\372\354\310\231\261S\307"
ARM GAS  C:\Users\Bruger\AppData\Local\Temp\ccYCm4UW.s 			page 6


  84      8D4D0C9F 
  84      3C3271FA 
  84      ECC899B1 
  84      53C7
  85 0223 4646870F 		.ascii	"FF\207\017\014\215\217\323\0372\367#\250"
  85      0C8D8FD3 
  85      1F32F723 
  85      A8
  86              		.text
  87              		.section	.gnu.lto__Z5delayj.24bf4ab2,"",%progbits
  88 0000 789C658E 		.ascii	"x\234e\216\277KBQ\024\307\317\367\334\347KxK8D\275\311"
  88      BF4B4251 
  88      14C7CFF7 
  88      DCE74B78 
  88      4B3844BD 
  89 0015 45DCFA1B 		.ascii	"E\334\372\033\352\177h\014\"\324A\310\024\243\241A\274"
  89      EA7F680C 
  89      22D441C8 
  89      14A3A141 
  89      BC
  90 0026 CA0B6A09 		.ascii	"\312\013j\011\011J\247\226\212~\230\006m6\275Zj\261"
  90      094AA796 
  90      8A7E9806 
  90      6D36BD5A 
  90      6AB1
  91 0038 A5A1259C 		.ascii	"\245\241%\234\012rK\236\020\217\210\327\2719v\340r\316"
  91      0A724B9E 
  91      108F88D7 
  91      B93976E0 
  91      72CE
  92 004a F7F0BD9F 		.ascii	"\367\360\275\237\363U\364\277\\y\012DI\351P\004n<\021"
  92      F355F4BF 
  92      5C790A44 
  92      49E95004 
  92      6E3C11
  93 005d D5E20C98 		.ascii	"\325\342\014\230\201@UF\025C\0361\032~\273\345\244O"
  93      81405546 
  93      15431E31 
  93      1A7EBBE5 
  93      A44F
  94 006f B5D69FF5 		.ascii	"\265\326\237\365\335\304\366l\310D\001O08CZ,\315\361"
  94      DDC4F66C 
  94      C844014F 
  94      3038435A 
  94      2CCDF1
  95 0082 F01E6A0E 		.ascii	"\360\036j\016$s\257;\356;\037\0342\222F\336\356?\266"
  95      2473AF3B 
  95      EE3B1F1C 
  95      329246DE 
  95      EE3FB6
  96 0095 6C23D932 		.ascii	"l#\3312\362\241?\210\254\324\261\326u\277w\243\027\254"
  96      F2A13F88 
  96      ACD4B1D6 
  96      75BF77A3 
  96      17AC
  97 00a7 9015CEA1 		.ascii	"\220\025\316\241\204\207\013\270\270\204K\262\"\264"
  97      84870BB8 
ARM GAS  C:\Users\Bruger\AppData\Local\Temp\ccYCm4UW.s 			page 7


  97      B8844BB2 
  97      22B4
  98 00b5 9132F691 		.ascii	"\2212\366\221\367\363\342\330\236\334\236\236\334\304"
  98      F7F3E2D8 
  98      9EDC9E9E 
  98      DCC4
  99 00c3 156C894D 		.ascii	"\025l\211M\327\011_GQprw\010KB\033;\275\211\301\244"
  99      D7095F47 
  99      51707277 
  99      084B421B 
  99      3BBD89C1 
 100 00d8 7F67365D 		.ascii	"\177g6]\275\302\363\017:0_\014\353\350y\257\313\225"
 100      BDC2F30F 
 100      3A305F0C 
 100      EBE879AF 
 100      CB95
 101 00ea 6FBDA3E3 		.ascii	"o\275\243\343![\001\013\006\035T\350\213%]\214\006\250"
 101      215B010B 
 101      061D54E8 
 101      8B255D8C 
 101      06A8
 102 00fc F9CDD89F 		.ascii	"\371\315\330\237\231\014\013\206!\304\231L\261\234["
 102      990C0B86 
 102      21C4994C 
 102      B19C5B
 103 010b 5E2C6737 		.ascii	"^,g7\363\353\305\225\245|!7\237)\225h*\233[[\335*l\374"
 103      F3EBC595 
 103      A57C2137 
 103      9F299568 
 103      2A9B5B5B 
 104 0123 02F61665 		.ascii	"\002\366\026e\244"
 104      A4
 105              		.text
 106              		.section	.gnu.lto__Z17delayMicrosecondsj.24bf4ab2,"",%progbits
 107 0000 789C654F 		.ascii	"x\234eO\277KBQ\024>\337y\276\227\361\226h\350\207\223"
 107      BF4B4251 
 107      143EDF79 
 107      BE97F196 
 107      68E88793 
 108 0014 8BB8F537 		.ascii	"\213\270\3657\324\377\320V\020\241o\020*\305ph\020\257"
 108      D4FFD056 
 108      10A16F10 
 108      2AC57068 
 108      10AF
 109 0026 F2A25A42 		.ascii	"\362\242ZB\232\244\241%\302\322\262\254\251\246\027"
 109      9AA4A125 
 109      C2D2B2AC 
 109      A9A617
 110 0035 35B4D850 		.ascii	"5\264\330PC\021\321dPK$\006\362\212\262ss\354\302\345"
 110      4311D164 
 110      504B2406 
 110      F28AB273 
 110      73ECC2E5 
 111 0049 9CEF9EEF 		.ascii	"\234\357\236\357\307=\006\375?!\271\243 \012K\205A\340"
 111      C73D06FD 
 111      3F21B9A3 
 111      200A4B85 
ARM GAS  C:\Users\Bruger\AppData\Local\Temp\ccYCm4UW.s 			page 8


 111      41E0
 112 005b E235513E 		.ascii	"\3425Q>\310\200n\010\224c\344\360\312-F\321\253\226"
 112      C8806E08 
 112      9463E4F0 
 112      CA2D46D1 
 112      AB96
 113 006d ECE88E52 		.ascii	"\354\350\216R\352\375fmxy\304g\2426\367lPFT(\233\027"
 113      EAFD666D 
 113      7879C467 
 113      A236F76C 
 113      50465428 
 114 0083 F5BA6988 		.ascii	"\365\272i\210\237\364\247\265\217\206\375\302>#\254"
 114      9FF4A7B5 
 114      8F86FDC2 
 114      3E23AC
 115 0092 E1D9C655 		.ascii	"\341\331\306U\311\322\220\003\032~\276\265*\375\221"
 115      C9D29003 
 115      1A7EBEB5 
 115      2AFD91
 116 00a1 6DA50A5E 		.ascii	"m\245\012^\343X\215\007|6\260\013C\374\260\207\020*"
 116      E3588D07 
 116      7C36B00B 
 116      43FCB087 
 116      102A
 117 00b3 08913C11 		.ascii	"\010\221<\021\252\210hz\313\375\276\263-W\262\007z\231"
 117      AA88687A 
 117      CBFDBEB3 
 117      2D57B207 
 117      7A99
 118 00c5 D88725DF 		.ascii	"\330\207%\337\246\303AOu\273'\345\363#\230\200\246\263"
 118      A6C3414F 
 118      75BB27E5 
 118      F3239880 
 118      A6B3
 119 00d7 0803444D 		.ascii	"\010\003DMa\351\025\236\231u5\036P\270_\371\2714\265"
 119      61E9159E 
 119      9975351E 
 119      50B85FF9 
 119      B934B5
 120 00ea B0C3DC61 		.ascii	"\260\303\334a\320#\\5\245\261N\330\272]\257q\366K\255"
 120      D0235C35 
 120      A5B14ED8 
 120      BA5DAF71 
 120      F64BAD
 121 00fd AAA0CF66 		.ascii	"\252\240\317f[\306\204\003dI\270>[\364\204\274W\377"
 121      5BC68403 
 121      6449B83E 
 121      5BF484BC 
 121      57FF
 122 010f 13EB759B 		.ascii	"\023\353u\2332\026S\211\030\212%\323\316\364D:\236I"
 122      32165389 
 122      188A25D3 
 122      CEF4443A 
 122      9E49
 123 0121 2C246726 		.ascii	",$g&\023\363\316X,\225\242\276\27037\273\224Y\374\005"
 123      13F3CE58 
 123      2C95A2BE 
ARM GAS  C:\Users\Bruger\AppData\Local\Temp\ccYCm4UW.s 			page 9


 123      B83337BB 
 123      9459FC05 
 124 0135 1C7C6CCD 		.ascii	"\034|l\315"
 125              		.text
 126              		.section	.gnu.lto_.symbol_nodes.24bf4ab2,"",%progbits
 127 0000 789C55CB 		.ascii	"x\234U\3139\012\002A\024\004\320\252iG{\334okX#\232"
 127      390A0241 
 127      1404D0AA 
 127      69477BDC 
 127      6F6B5823 
 128 0015 0A862E20 		.ascii	"\012\206. \006\356\273w\0304\363\014\012\236CTz\220"
 128      06EEBB77 
 128      1834F30C 
 128      0A9E4354 
 128      7A90
 129 0027 6F275DAF 		.ascii	"o']\257\250\357\000\264\210\360\242\001E\364o\200\204"
 129      A8EF00B4 
 129      88F0A201 
 129      45F46F80 
 129      84
 130 0038 C9D4231A 		.ascii	"\311\324#\032S\370\025\253O1\244\242\277\305\210r\266"
 130      53F815AB 
 130      4F31A4A2 
 130      BFC58872 
 130      B6
 131 0049 888F4453 		.ascii	"\210\217DS\340\212*\204\036i\352\301%\025[/\250\242"
 131      E08A2A84 
 131      1E69EAC1 
 131      25155B2F 
 131      A8A2
 132 005b F59C2A59 		.ascii	"\365\234*Y\237)o}\242\022\353\003U\266\336S\025\353"
 132      9F296F7D 
 132      A212EB03 
 132      55B6DE53 
 132      15EB
 133 006d 1D55B5DE 		.ascii	"\035U\265\336R5\3535U\267\336P\015c\007\217\331\375"
 133      5235EB35 
 133      55B7DE50 
 133      0D63078F 
 133      D9FD
 134 007f D5A64309 		.ascii	"\325\246C\011Y\010E<C\210\321}|\003\353\371\206\265"
 134      5908453C 
 134      4388D17D 
 134      7C03EBF9 
 134      86B5
 135 0091 7CC32ABA 		.ascii	"|\303*\272\353\205w\254 ;\367>\177\031\3170M\220]\256"
 135      EB8577AC 
 135      203BF73E 
 135      7F19CF30 
 135      4D905DAE 
 136 00a5 1DBAA891 		.ascii	"\035\272\250\221\337\270f\270\301\033\015\341iK"
 136      DFB866B8 
 136      C11B0DE1 
 136      694B
 137              		.text
 138              		.section	.gnu.lto_.refs.24bf4ab2,"",%progbits
 139 0000 789C6366 		.ascii	"x\234cf``\340f\200\000F\006&F\026FF&\0266\006\000\001"
ARM GAS  C:\Users\Bruger\AppData\Local\Temp\ccYCm4UW.s 			page 10


 139      6060E066 
 139      80004606 
 139      26461646 
 139      46261636 
 140 0017 990025   		.ascii	"\231\000%"
 141              		.text
 142              		.section	.gnu.lto_.decls.24bf4ab2,"",%progbits
 143 0000 789CBD58 		.ascii	"x\234\275X{PTW\232\277\347\236\356\006.-\250\314\030"
 143      7B505457 
 143      9ABFE79E 
 143      EE062E2D 
 143      A8CC18
 144 0013 D7DAAA10 		.ascii	"\327\332\252\020\254\260f'q\242\331\270&5\225\230\220"
 144      ACB06627 
 144      71A2D9B8 
 144      26359598 
 144      90
 145 0024 98643699 		.ascii	"\230d6\231r\305\244\262.U]-\264Ng\221f\232\306\011["
 145      72C5A4B2 
 145      2E555D2D 
 145      B44E6791 
 145      669AC609 
 146 0039 E5CE4550 		.ascii	"\345\316EPA| \021\0215\006\002\250\370 \010* \257\346"
 146      417C2011 
 146      11350602 
 146      A8F82008 
 146      2A20AFE6 
 147 004d 65401E42 		.ascii	"e@\036B| \370\240A\236\212\006#\012\212\302~\347\234"
 147      7C20F8A0 
 147      419E8A06 
 147      230A8AC2 
 147      7EE79C
 148 0060 7BBB6F63 		.ascii	"{\273oc3c\315\037\323\305\327}\277s\277\357w\276\327"
 148      3363CD1F 
 148      D3C5D77D 
 148      BF73BFEF 
 148      77BED7
 149 0073 39E73B60 		.ascii	"9\347;`\216\343\252\021\307M\300G\375O\034\367\177j"
 149      8EE3AA11 
 149      C74DC047 
 149      FD4F1CF7 
 149      7F6A
 150 0085 8E833F6E 		.ascii	"\216\203?n\031\020\017t\004h.\274'\237\351@\376\360"
 150      19100F74 
 150      04682EBC 
 150      279FE940 
 150      FEF0
 151 0097 FC0AD07C 		.ascii	"\374\012\320|\240\005@\213\201\336\006\372\035\320;"
 151      A005408B 
 151      81DE06FA 
 151      1DD03B
 152 00a6 404B8096 		.ascii	"@K\200\226\002}\012\264\034h\005\320\027@+\201\364@"
 152      027D0AB4 
 152      1C6805D0 
 152      17402B81 
 152      F440
 153 00b8 042A58C2 		.ascii	"\004*X\302\223?\004O\236\223\314\227\015\024\002c\213"
ARM GAS  C:\Users\Bruger\AppData\Local\Temp\ccYCm4UW.s 			page 11


 153      933F044F 
 153      9E93CC97 
 153      0D140263 
 153      8B
 154 00c9 24398D24 		.ascii	"$9\215$\363\2164\317\333\322\274\376\223p8\311\276\351"
 154      F38E34CF 
 154      DBD2BCFE 
 154      937038C9 
 154      BEE9
 155 00db 12D62CA0 		.ascii	"\022\326,\240\227\024\230\006x\267\014h5b>\275\010\364"
 155      97149806 
 155      78B70C68 
 155      35623EBD 
 155      08F4
 156 00ed 31D01AA0 		.ascii	"1\320\032\240\017\200B\201\276\002Z+\341\272Kx_H~,\227"
 156      0F804281 
 156      BE025A2B 
 156      E1BA4B78 
 156      5F487E2C 
 157 0102 FC22FE85 		.ascii	"\374\"\376\205K\276\272\362\207\304F#\331\340\005\244"
 157      4BBEBAF2 
 157      87C44623 
 157      D9E005A4 
 158 0112 05FA18E8 		.ascii	"\005\372\030\350O0\376\245$\313Kr+]\370@\342\352\346"
 158      4F30FEA5 
 158      24CB4B72 
 158      2B5DF840 
 158      E2EAE6
 159 0125 42DF17C8 		.ascii	"B\337\027\310\014\357t\012\214\005R\\'\177\356\361\250"
 159      0CEF740A 
 159      8C05525C 
 159      277FEEF1 
 159      A8
 160 0136 2867B8D1 		.ascii	"(g\270\321\263\237G^\202/a\317$\325\356\321\000\253"
 160      B39F475E 
 160      822F61CF 
 160      24D5EED1 
 160      00AB
 161 0148 1554842D 		.ascii	"\025T\204-\036\353\272\250z!Y\204Ob\2148]\205\226\315"
 161      1EEBBAA8 
 161      7A215984 
 161      4F628C38 
 161      5D8596CD 
 162 015c 4287D01C 		.ascii	"B\207\320\034t\030\315\001\257\262\321\013\360\375\337"
 162      7418CD01 
 162      AFB2D10B 
 162      F0FDDF
 163 016b 2A867463 		.ascii	"*\206tc\217u\213J\273E\0247\020Y\217Z/\362^!}\004\021"
 163      8F758B4A 
 163      BB451437 
 163      10598F5A 
 163      2FF25E21 
 164 0182 13E92F48 		.ascii	"\023\351/H\357\267\306\225b:\257UM\264\343Jv\035\364"
 164      EFB7C695 
 164      623AAF55 
 164      4DB4E34A 
 164      761DF4
ARM GAS  C:\Users\Bruger\AppData\Local\Temp\ccYCm4UW.s 			page 12


 165 0195 A0137F49 		.ascii	"\240\023\177I\330-\267F\267\013\230G\344\371\246u\347"
 165      D82DB746 
 165      B70B9847 
 165      E4F9A675 
 165      E7
 166 01a6 4DCF578F 		.ascii	"M\317W\217\200\015q\242u\0249lO.\331\237\344A1D*X\337"
 166      800D71A2 
 166      7514396C 
 166      4F2ED99F 
 166      E4413144 
 167 01bd 357A5F4B 		.ascii	"5z_K1\246\023\266}\254\277I\300\263\351\253\274\214"
 167      31A613B6 
 167      7DACBF49 
 167      C0B3E9AB 
 167      BC8C
 168 01cf ACD34C74 		.ascii	"\254\323Lt\011a3\223w\037SSIw\302f\0274\215\271\341"
 168      09613393 
 168      771F5353 
 168      4977C266 
 168      17348DB9 
 169 01e4 17A96473 		.ascii	"\027\251ds\373\203|O\245\313\277\027\024N\234\".K\323"
 169      FB837C4F 
 169      A5CBBF17 
 169      144E9C22 
 169      2E4BD3
 170 01f7 7F5B71F7 		.ascii	"\177[q\367\224\032\277L\264\370\255#9uZ\344\257\315"
 170      941ABF4C 
 170      B4F8AD23 
 170      39755AE4 
 170      AFCD
 171 0209 246A77C4 		.ascii	"$jw\3044w\016\025\"-:\215\260\"\334\312\330\234R\304"
 171      34770E15 
 171      222D3A8D 
 171      B022DCCA 
 171      D89C52C4 
 172 021d 0615207F 		.ascii	"\006\025 \177\".\341\236i\036\352BN\201$P\016\033\212"
 172      222EE19E 
 172      691EEA42 
 172      4E812450 
 172      0E1B8A
 173 0230 EC92F7D2 		.ascii	"\354\222\367\322\212\316j\360{\324\356\324\243\337M"
 173      8ACE6AF0 
 173      7BD4EED4 
 173      A3DF4D
 174 023f C39FD1C7 		.ascii	"\303\237\321\307\3559\231\367\275\251w\230\260\207\323"
 174      ED3999F7 
 174      BDA97798 
 174      B087D3
 175 024e AF356021 		.ascii	"\2575`!N\362\210\340i\225.\225\"\001\276\347\315A%\300"
 175      4EF288E0 
 175      69952E95 
 175      2201BEE7 
 175      CD4125C0 
 176 0262 827897D8 		.ascii	"\202x\227\330js\237\231H\305E\321\327Bg\377\001\304"
 176      6A739F99 
 176      48C545D1 
 176      D74267FF 
ARM GAS  C:\Users\Bruger\AppData\Local\Temp\ccYCm4UW.s 			page 13


 176      01C4
 177 0274 73A97819 		.ascii	"s\251x\031\232)+\021\351\322\003]-\030\377\027\231W"
 177      9A292B11 
 177      E9D2035D 
 177      2D18FF17 
 177      9957
 178 0286 48B11D3A 		.ascii	"H\261\035:\311#\037\377\365\251\210\363\363\367\363"
 178      C9231FFF 
 178      F5A988F3 
 178      F3F7F3
 179 0295 593A77A7 		.ascii	"Y:w\247h\005\024\233\270\304\302\241<\200\310'\336V"
 179      6805149B 
 179      B8C4C2A1 
 179      3C80C827 
 179      DE56
 180 02a7 80B756E4 		.ascii	"\200\267V\344\203r\320\253\364\271\032\371\241\263@"
 180      8372D0AB 
 180      F4B91AF9 
 180      A1B340
 181 02b6 35C89F23 		.ascii	"5\310\237#\014\207\252\020 d\212i\342PC\325O8:QO\345"
 181      0C87AA10 
 181      20648A69 
 181      E25043D5 
 181      4F383A51 
 182 02cc 4F224C74 		.ascii	"O\"Lt\034\361\034\023\367\210\356$\034\250\016\315\345"
 182      1CF11C13 
 182      F788EE24 
 182      1CA80ECD 
 182      E5
 183 02dd B81444C4 		.ascii	"\270\024D\304\250+\265h)\307\245\221\010\246&\245\361"
 183      A82BB568 
 183      29C7A591 
 183      08A626A5 
 183      F1
 184 02ee 1A2A7306 		.ascii	"\032*s\006\324\011\214=\352\363\210;\377:\207*q$q\266"
 184      D4098C3D 
 184      EAF3883B 
 184      FF3A872A 
 184      712471B6 
 185 0302 FA0D692A 		.ascii	"\372\015i*\204~\224\346\242\343\234\364\303Q<\253\255"
 185      847E94E6 
 185      A2E39CF4 
 185      C3513CAB 
 185      AD
 186 0313 31AF5B65 		.ascii	"1\257[e\215\305\244*\212]\002\036\"Q\342\230\343Vg\307"
 186      8DC5A42A 
 186      8A5D021E 
 186      2251E298 
 186      E35667C7 
 187 0327 6B9ECFF1 		.ascii	"k\236\317\361j\273[\225h=\325\344\322\305\3344\333\271"
 187      6ABB5B95 
 187      683DD5E4 
 187      D2C5DC34 
 187      DBB9
 188 0339 1CEBCB71 		.ascii	"\034\353\313q1\242\370db\002\2234\240r\311\000Gr\312"
 188      31A2F864 
 188      62029334 
ARM GAS  C:\Users\Bruger\AppData\Local\Temp\ccYCm4UW.s 			page 14


 188      A072C900 
 188      4772CA
 189 034c 49BDA183 		.ascii	"I\275\241\203\210'\251\261Fo\331\356\206-\264$z*\232"
 189      8827A9B1 
 189      466FD9EE 
 189      862DB424 
 189      7A2A9A
 190 035f 370A783D 		.ascii	"7\012x=}>s?\243\177\032\314\343\210\027KeqC\366\017"
 190      7D3E733F 
 190      A37F1ACC 
 190      E388174B 
 190      657143F6 
 191 0374 3C5B4EBC 		.ascii	"<[N\274rk\320\262\255a$\303v\033Q\326\215\260\266\361"
 191      726BD0B2 
 191      AD6124C3 
 191      761B51D6 
 191      8DB0B6F1 
 192 0388 44D17BEA 		.ascii	"D\321{\352\252j\226\253\352<\253\252\363\337\236,\361"
 192      AA6A96AB 
 192      EA3CABAA 
 192      F3DF9E2C 
 192      F1
 193 0399 9A5C558D 		.ascii	"\232\\U\215 \336D\305[hU5\313U\265\351tj\227\007\336"
 193      20DE44C5 
 193      5B685535 
 193      CB55B5E9 
 193      746A9707 
 194 03ae 8288BD9E 		.ascii	"\202\210\275\236\207\233\006\022\246\241\365>>\376\251"
 194      879B0612 
 194      A6A1F53E 
 194      3EFEA9
 195 03bd 08F9CDF5 		.ascii	"\010\371\315\365\363\363_\352\310|\033\311\2742\332"
 195      F3F35FEA 
 195      C87C1BC9 
 195      BC32DA
 196 03cc 7230D035 		.ascii	"r0\3205\210\360%)\332\227\341\271\035\"}\005\350*\320"
 196      88F02529 
 196      DA97E1B9 
 196      1D227D05 
 196      E82AD0
 197 03df 357BC45B 		.ascii	"5{\304[I\304]\352_~~}R\252\27195\201\261\263\251\306"
 197      49C45DEA 
 197      5F7E7E7D 
 197      52AAB939 
 197      3581B1B3 
 198 03f5 89C9850A 		.ascii	"\211\311\205\012\221&\343\015D\226\304\344\272\\\236"
 198      9126E30D 
 198      4496C4E4 
 198      BA5C9E
 199 0404 9D6D9759 		.ascii	"\235m\227Y9\275$\240s\240uIYN4\363P\240\234\224\377"
 199      39BD24A0 
 199      73A07549 
 199      594E34F3 
 199      50A09C94 
 200 0419 A61CAB3A 		.ascii	"\246\034\253:.&-\232\346\037\002\206~\2224\034a\204"
 200      2E262D9A 
 200      E61F0286 
ARM GAS  C:\Users\Bruger\AppData\Local\Temp\ccYCm4UW.s 			page 15


 200      7E92341C 
 200      6184
 201 042b 11FA454B 		.ascii	"\021\372EK \215\004;z\027\251\177\232g\"j\257\305yv"
 201      208D043B 
 201      7A17A97F 
 201      9A67226A 
 201      AFC57976 
 202 043f 6C6A47BB 		.ascii	"ljG\273\303\216z\327v\260\272\246\313\344<]&\027%O/"
 202      C38E7AD7 
 202      76B0BAA6 
 202      CBE43C5D 
 202      2617254F 
 203 0454 B1657249 		.ascii	"\261erI^&\216\362\275 \227/d\264\274l\364\254\200\017"
 203      5E268EF2 
 203      BD20972F 
 203      64B4BC6C 
 203      F4AC800F 
 204 0468 D18CA2AD 		.ascii	"\321\214\242\255q\266:\001\3472&\372`\361V7\250\253"
 204      71B63A01 
 204      E73226FA 
 204      60F15637 
 204      A8AB
 205 047a 97042AD8 		.ascii	"\227\004*\330\261\357Q\246\007eI\267\341M6\327\332^"
 205      B1EF51A6 
 205      076549B7 
 205      E14D36D7 
 205      DA5E
 206 048c 31C30BF9 		.ascii	"1\303\013\371\013d\362\241\261\254\256\217c\304%\350"
 206      0B64F2A1 
 206      B1ACAE8F 
 206      63C425E8 
 207 049c 26125087 		.ascii	"&\022P\207=\320T\233|\342\034\333&\347p\241\013\362"
 207      3DD0549B 
 207      7CE21CDB 
 207      26E770A1 
 207      0BF2
 208 04ae 4724900D 		.ascii	"G$\220\015F:iE\3625O\312b\325H\360w\255\3213Y\203N>"
 208      463A6945 
 208      F2354FCA 
 208      62D548F0 
 208      77ADD133 
 209 04c6 9E9D324B 		.ascii	"\236\2352K\024U\250\033&\277\341\230\374&\022\354\247"
 209      1455A81B 
 209      26BFE198 
 209      FC2612EC 
 209      A7
 210 04d7 C2C38EF4 		.ascii	"\302\303\216\364j5\316\305\324\267\224\226+\005*|\206"
 210      6A35CEC5 
 210      D4B79496 
 210      2B052A7C 
 210      86
 211 04e8 315BAE66 		.ascii	"1[\256f7\270\341J\354\344\365,\346\365\366\372\275\025"
 211      37B8E14A 
 211      ECE4F52C 
 211      E6F5F6FA 
 211      BD15
 212 04fa 98B213F4 		.ascii	"\230\262\023\364<I\2729\234\205d\343\206\222D<\233C"
ARM GAS  C:\Users\Bruger\AppData\Local\Temp\ccYCm4UW.s 			page 16


 212      3C49BA39 
 212      9C8564E3 
 212      8692443C 
 212      9B43
 213 050c AFCE41AF 		.ascii	"\257\316A\257\200e\203`\031\321B\003`\331-\331\262\261"
 213      80658360 
 213      19D14203 
 213      60D92DD9 
 213      B2B1
 214 051e AC1DFF4C 		.ascii	"\254\035\377L,\273\015\226\365;,\233e7\214\267\265f"
 214      2CBB0D96 
 214      F53B2C9B 
 214      65378CB7 
 214      B566
 215 0530 FDA76BC4 		.ascii	"\375\247k\304\273.\021\307\263\353\177M\020\357\000"
 215      BB2E11C7 
 215      B3EB7F4D 
 215      10EF00
 216 053f 629F03F1 		.ascii	"b\237\003\361\266\302\327\035C-\333\244\003X\245<e\265"
 216      B6C2D71D 
 216      432DDBA4 
 216      0358A53C 
 216      65B5
 217 0551 EC94ED3E 		.ascii	"\354\224\355>\177\251\314\215\262\357\0226m\344\351"
 217      7FA9CC8D 
 217      B2EF1236 
 217      6DE4E9
 218 0560 F2A9378C 		.ascii	"\362\2517\214_\344\015\343\036\33306\237=z\226wl\030"
 218      5FE40DE3 
 218      1EDB3036 
 218      9F3D7A96 
 218      776C18
 219 0573 082C443F 		.ascii	"\010,D?\203\364\020\225\276O\367\213_\344\375b\357x"
 219      83F41095 
 219      BE4FF78B 
 219      5FE4FD62 
 219      EF78
 220 0585 43815A29 		.ascii	"C\201Z)L\214\236R\272{\327H\245\0267\260D|\027;f\325"
 220      4C8C9E52 
 220      BA7BD748 
 220      A51637B0 
 220      447C173B 
 221 059b E056C654 		.ascii	"\340V\306TL\2444\252\360\015\306T\366\224'\273\203\371"
 221      4CA434AA 
 221      F00DC654 
 221      F69427BB 
 221      83F9
 222 05ad 33047142 		.ascii	"3\004qB\372\240\277\300\370\205\361\246*D\307\377B\342"
 222      FAA0BFC0 
 222      F885F1A6 
 222      2A44C7FF 
 222      42E2
 223 05bf 1A7FBBF1 		.ascii	"\032\177\273\361\177X\\\305Iq\035\203\270\316 ^\215"
 223      7F585CC5 
 223      49711D83 
 223      B8CE205E 
 223      8D
ARM GAS  C:\Users\Bruger\AppData\Local\Temp\ccYCm4UW.s 			page 17


 224 05d0 82258FEC 		.ascii	"\202%\217\354\231\352iz\201\304\3651\2308\342\210\353"
 224      99EA697A 
 224      81C4F531 
 224      9838E288 
 224      EB
 225 05e1 0C47A606 		.ascii	"\014G\246\006\0326~\351\032\361\251K\304\361\370\004"
 225      1A367EE9 
 225      1AF1A94B 
 225      C4F1F804 
 226 05f1 9AA92780 		.ascii	"\232\251'\200\370\320\201\370X\221\251}w\332\2634\270"
 226      F8D081F8 
 226      5891A97D 
 226      77DAB334 
 226      B8
 227 0602 8F39D657 		.ascii	"\2179\326W6(\3624/\313\010+\346\344\372\343a\366\352"
 227      3628F234 
 227      2FCB082B 
 227      E6E4FAE3 
 227      61F6EA
 228 0615 705753D2 		.ascii	"pWS\3224\232\321y\312\216\312\213uT{[{\2061U\244\007"
 228      349AD179 
 228      CA8ECA8B 
 228      75547B5B 
 228      7B863155 
 229 062b 44F2B97D 		.ascii	"D\362\271};\324x\203\212j&v&]P\341\004\225Su\373\262"
 229      3BD47883 
 229      8A6A2676 
 229      265D50E1 
 229      04955375 
 230 0641 EA4EB93D 		.ascii	"\352N\271=z\322\235\262\260u\021\017\277\277\336\334"
 230      7AD29DB2 
 230      B075110F 
 230      BFBFDEDC 
 231 0651 E9615FD1 		.ascii	"\351a_\321=\227i\351\306\363\002\332\310\333\315\367"
 231      3D9769E9 
 231      C6F302DA 
 231      C8DBCDF7 
 232 0661 55AE6831 		.ascii	"U\256h1FT\037\206\365\271\201\237\203bx\210D\034\357"
 232      46541F86 
 232      F5B9819F 
 232      83627888 
 232      441CEF
 233 0674 4F25D026 		.ascii	"O%\320&\030\331\314\323\025\235\337u7A\220Q\307\263"
 233      18D9CCD3 
 233      159DDF75 
 233      37419051 
 233      C7B3
 234 0686 93E8524D 		.ascii	"\223\350RM\000\324X\007*L\362\327`\267<\013\213:F:*"
 234      00D45807 
 234      2A4CF2D7 
 234      60B73C0B 
 234      8B3A463A 
 235 069b DD68105E 		.ascii	"\335h\020^\377k\307gkeS+\017'\224\264\331o\343\331f"
 235      FF6BC767 
 235      6B65532B 
 235      0F2794B4 
 235      D96FE3D9 
ARM GAS  C:\Users\Bruger\AppData\Local\Temp\ccYCm4UW.s 			page 18


 236 06b0 CF5E56D5 		.ascii	"\317^V\325\246_US\014\033\015]\373\371\023\235^4\222"
 236      A65F5553 
 236      0C1B0D5D 
 236      FBF9139D 
 236      5E3492
 237 06c3 AF1276DB 		.ascii	"\257\022v\333\343{\215\214\025\010\373\370\321\217\321"
 237      E37B8D8C 
 237      1508FBF8 
 237      D18FD1
 238 06d2 9AA9974A 		.ascii	"\232\251\227J\022/-\225\235\314\300]\361\247\217?s\266"
 238      122F2D95 
 238      9DCCC05D 
 238      F1A78F3F 
 238      73B6
 239 06e4 EE000712 		.ascii	"\356\000\007\022y\"\376\015?SV\"\322\343\247\267[\265"
 239      7922FE0D 
 239      3F535622 
 239      D2E3A7B7 
 239      5BB5
 240 06f6 78374D94 		.ascii	"x7M\224\327\017'R\206\324h\275\277\237\337\\ r\276\372"
 240      D70F2752 
 240      86D468BD 
 240      BF9FDF5C 
 240      2072BEFA 
 241 070a F82CF573 		.ascii	"\370,\365s\034\257\251\374\\\216ubm'\206\337\"\235\330"
 241      1CAFA9FC 
 241      5C8E7562 
 241      6D2786DF 
 241      229DD8
 242 071d 77BC0F3A 		.ascii	"w\274\017:>\371\200S\0345\344\034\240B\366\203\324\351"
 242      3EF98053 
 242      1C35E41C 
 242      A042F683 
 242      D4E9
 243 072f A8B1DAE2 		.ascii	"\250\261\332\342b~\374\017q\317\353\264ZEH\014\221\225"
 243      627EFC0F 
 243      71CFEBB4 
 243      5A45480C 
 243      9195
 244 0741 CA7B82BA 		.ascii	"\312{\202\272\027\315\333\217\274Re\313\003~\240]\222"
 244      17CDDB8F 
 244      BC5265CB 
 244      037EA05D 
 244      92
 245 0752 82C33B18 		.ascii	"\202\303;\030\221Z\036z6\225\321\263)M2\022DI\322\331"
 245      915A1E7A 
 245      3695D1B3 
 245      294D3212 
 245      4449D2D9 
 246 0766 0F33A0D2 		.ascii	"\0173\240\322\026_\265\371S\361\360\353\2642\3161!G"
 246      165FB5F9 
 246      53F1F0EB 
 246      B432CE31 
 246      2147
 247 0778 013013B6 		.ascii	"\0010\023\266\362vs\307\207cU\326h\214\206\341\300}"
 247      F27673C7 
 247      876355D6 
ARM GAS  C:\Users\Bruger\AppData\Local\Temp\ccYCm4UW.s 			page 19


 247      688C86E1 
 247      C07D
 248 078a 2049CB3B 		.ascii	" I\313;\213\324u\261\243\021\362N\336m\227\362\216\322"
 248      8BD475B1 
 248      A311F24E 
 248      DE6D97F2 
 248      8ED2
 249 079c F9A512C4 		.ascii	"\371\245\022\304D\3415\012A<\036G.<~\266g<\0123\034"
 249      44E1350A 
 249      413C1E47 
 249      2E3C7EB6 
 249      673C0A33 
 250 07b1 2333EC86 		.ascii	"#3\354\206\202$\362\244\013!\317)\274\037\372\036h?"
 250      8224F2A4 
 250      0B21CF29 
 250      BC1FFA1E 
 250      683F
 251 07c3 D001A03D 		.ascii	"\320\001\240=@\373\200\366\362rG\362-"
 251      40FB80F6 
 251      F27247F2 
 251      2D
 252 07d0 3FA9A3B1 		.ascii	"?\251\243\261c\355\375\373\260\034\007z2/\035\3504\216"
 252      63EDFDFB 
 252      B01C077A 
 252      322F1DE8 
 252      348E
 253 07e2 4F4B58CF 		.ascii	"OKX\317@\016\303^\311-\373\371\231\353h^Hk\231\337\027"
 253      400EC35E 
 253      C92DFBF9 
 253      99EB685E 
 253      486B99DF 
 254 07f7 E3E174A5 		.ascii	"\343\341t\245Q\012s(\203gwC\370\005\351\272\357\007"
 254      510A7328 
 254      83677743 
 254      F805E9BA 
 254      EF07
 255 0809 EB056C65 		.ascii	"\353\005le[Iy\343\31115\276\310\230\216\304\373\311"
 255      5B4979E3 
 255      C93135BE 
 255      C8988EC4 
 255      FBC9
 256 081b 6EBE0744 		.ascii	"n\276\007D[\332\320\365\374~!UL\333 \216\303\266L\357"
 256      5BDAD0F5 
 256      FC7E2155 
 256      4CDB208E 
 256      C3B64CEF 
 257 082f A228D3BE 		.ascii	"\242(\323\276\3149\224\305\263\233\027:\310\373\202"
 257      CC3994C5 
 257      B39B173A 
 257      C8FB82
 258 083e E29391AC 		.ascii	"\342\223\221\254|w\014\347==\210\353l\233\264x'cN\226"
 258      7C770CE7 
 258      3D3D88EB 
 258      6C9BB478 
 258      27634E96 
 259 0852 D6DDC400 		.ascii	"\326\335\304\000\231\226f+<\246\251\025\255\023\023"
 259      9996662B 
ARM GAS  C:\Users\Bruger\AppData\Local\Temp\ccYCm4UW.s 			page 20


 259      3CA6A915 
 259      AD1313
 260 0861 EFB29BAB 		.ascii	"\357\262\233\253\002\355\260\214\226M\321*\317\027\356"
 260      02EDB08C 
 260      964DD12A 
 260      CF17EE
 261 0870 462AB859 		.ascii	"F*\270Y\243\217\005r\377%\335qy\315=\315\2247\345\243"
 261      A38F0572 
 261      FF25DD71 
 261      79CD3DCD 
 261      9437E5A3 
 262 0884 3CB9291F 		.ascii	"<\271)\037\341\245\253\362\321\242M\263q\006\233\377"
 262      E1A5ABF2 
 262      D1A24DB3 
 262      71069BFF 
 263 0894 E18907B7 		.ascii	"\341\211\007\267U8\2331\207\256T<\340\2511i\265y\342"
 263      55389B31 
 263      87AE543C 
 263      E0A93169 
 263      B579E2
 264 08a7 925856F8 		.ascii	"\222XV\370\240\215\216)\2549.[\223C\255\351i\254\355"
 264      A08D8E29 
 264      AC392E5B 
 264      9343ADE9 
 264      69ACED
 265 08ba F3C6F90C 		.ascii	"\363\306\371\014a \267\267\336\013\3270\2460)\241\333"
 265      6120B7B7 
 265      DE0BD730 
 265      A63029A1 
 265      DB
 266 08cb 9DC1353A 		.ascii	"\235\3015:\303\375\240\200\313\225\341NP\270\242\332"
 266      C3FDA080 
 266      CB95E14E 
 266      50B8A2DA 
 267 08db 535D085F 		.ascii	"S]\010_\243\010|nF\323>\371^;\324V\220\373\356q\021"
 267      A3087C6E 
 267      46D33EF9 
 267      5E3BD456 
 267      90FBEE71 
 268 08f0 6AE124AF 		.ascii	"j\341$\257Ey\216=U\272\331;_p\225\227\177\224\017\325"
 268      45798E3D 
 268      55BAD93B 
 268      5F709597 
 268      7F940FD5 
 269 0904 76C47E6D 		.ascii	"v\304~m\335\330\277\275YE\303G\200X\374\276\251\033"
 269      DDD8BFBD 
 269      5945C347 
 269      8058FCBE 
 269      A91B
 270 0916 7E346DCA 		.ascii	"~4m\312\370\235\246\361;%\307o\2775\271\033\341\004"
 270      F89DA6F1 
 270      3B25C76F 
 270      BF35B91B 
 270      E104
 271 0928 0D75D216 		.ascii	"\015u\322\026sl\\EjB\034\272Vd[\220*\246\3135\001Z\250"
 271      736C5C45 
 271      6A421CBA 
ARM GAS  C:\Users\Bruger\AppData\Local\Temp\ccYCm4UW.s 			page 21


 271      56645B90 
 271      2AA6CB35 
 272 093f 40E16881 		.ascii	"@\341h\201\354h!ut\260y\250\216\307\035\014eO\302\306"
 272      EC682175 
 272      74B079A8 
 272      8EC71D0C 
 272      654FC2C6 
 273 0953 3719C8E3 		.ascii	"7\031\310\343b\330\336\363\304J\032-\204\250#E\012\224"
 273      62D8DEF3 
 273      C44A1A2D 
 273      84A82345 
 273      0A94
 274 0965 2219E50C 		.ascii	"\"\031\345\014E9\321\361\370\274\007\316v\243(\033\253"
 274      4539D1F1 
 274      F8BC07CE 
 274      76A3281B 
 274      AB
 275 0976 AFA6610A 		.ascii	"\257\246a\012\223;^\372D\253\260\205\240\024+P\212e"
 275      933B5EFA 
 275      44ABB085 
 275      A0142B50 
 275      8A65
 276 0988 94128A12 		.ascii	"\224\022\212\022\237\037\327\213q\037C\211?\373\363"
 276      9F1FD78B 
 276      711F4389 
 276      3FFBF3
 277 0997 43E651E2 		.ascii	"C\346Q\342\223\362\020f\010f\020\245\012\210R\031\242"
 277      93F21066 
 277      086610A5 
 277      0A885219 
 277      A2
 278 09a8 8C42F4DE 		.ascii	"\214B\364\336\033z\342\206\263\334)Dw\337\300u\017\346"
 278      1B7AE286 
 278      B3DC2944 
 278      77DFC075 
 278      0FE6
 279 09ba CF9D9621 		.ascii	"\317\235\226!\357\3351\211\231\242mb\342E\206R\256@"
 279      EFDD3189 
 279      99A26D62 
 279      E2458652 
 279      AE40
 280 09cc 299751AC 		.ascii	")\227Q\254\024\245\363Jk\211\033\276DQ\370\342\312\244"
 280      14A5F34A 
 280      6B891BBE 
 280      4451F8E2 
 280      CAA4
 281 09de 16FB81DA 		.ascii	"\026\373\201\332V\320\377/E$\373U\260oV\360\317\331"
 281      56D0FF2F 
 281      4524FB55 
 281      B06F56F0 
 281      CFD9
 282 09f0 7957F2CF 		.ascii	"yW\362\317t\336\350X^r/\257\3145At$\273\232W\376[it"
 282      74DEE858 
 282      5E722FAF 
 282      CC354174 
 282      24BB9A57 
 283 0a08 C7DD7C4F 		.ascii	"\307\335|O|\215\271u'i0\313\233\271\325qat\325N\207"
ARM GAS  C:\Users\Bruger\AppData\Local\Temp\ccYCm4UW.s 			page 22


 283      7C8DB975 
 283      276930CB 
 283      9BB9D571 
 283      6174D54E 
 284 0a1d 5BA0846A 		.ascii	"[\240\204j\024n\325\310n\235\245n\025\337\310\333\246"
 284      146ED5C8 
 284      6E9DA56E 
 284      15DFC8DB 
 284      A6
 285 0a2e A1259761 		.ascii	"\241%\227a/\271\215\231\266\315\252\331\273\035f\220"
 285      2FB98D99 
 285      B6CDAAD9 
 285      BB1D6690 
 286 0a3e A6D16146 		.ascii	"\246\321aF-?\033\276\177\204\232\243\347\007\371GTy"
 286      2D3F1BBE 
 286      7F849AA3 
 286      E707F947 
 286      5479
 287 0a50 EE634F9C 		.ascii	"\356cO\234\354AMI\332XXH\216\354\337\013\032\302>}\364"
 287      EC414D49 
 287      DA585848 
 287      8EECDF0B 
 287      1AC23E7D 
 288 0a65 FD7D15DE 		.ascii	"\375}\025\336\317\336m\033\036h\223\242\337v\242\373"
 288      CFDE6D1B 
 288      1E6893A2 
 288      DF76A2FB 
 289 0a75 ABA40CBB 		.ascii	"\253\244\014\273\231\000\212\352x\373\301t\016\216\235"
 289      99008AEA 
 289      78FBC174 
 289      0E8E9D
 290 0a84 7AD9D206 		.ascii	"z\331\322\006j\351\345\362\315\233\335q\001\005\342"
 290      6AE9E5F2 
 290      CD9BDD71 
 290      0105E2
 291 0a93 DBDA763D 		.ascii	"\333\332v=\302\256\233\366\363\274\253\246\275\255\300"
 291      C2AE9BF6 
 291      F3BCABA6 
 291      BDADC0
 292 0aa2 C692D404 		.ascii	"\306\222\324\004!m\344]\334\003P|l.V\006\277\311)\370"
 292      216DE45D 
 292      DC03507C 
 292      6C2E5606 
 292      BFC929F8 
 293 0ab6 CD4EC1B7 		.ascii	"\315N\301\267]\031\351\023p)\363*u\240l\233 \007\277"
 293      5D19E913 
 293      7029F32A 
 293      75A06C9B 
 293      2007BF
 294 0ac9 5B197C50 		.ascii	"[\031|PB-\212\340\267\310.\375D]:p\254\344\251\032\267"
 294      422D8AE0 
 294      B7C82EFD 
 294      445D3A70 
 294      ACE4A91A 
 295 0ade 30949E91 		.ascii	"0\224\236\221\235=l\211\014\265\267\216\372\357Q\254"
 295      9D3D6C89 
 295      0CB5B78E 
ARM GAS  C:\Users\Bruger\AppData\Local\Temp\ccYCm4UW.s 			page 23


 295      FAEF51AC 
 296 0aee 34027341 		.ascii	"4\002sA\001sA\206\271Hav\016_\254\366\304[\005\012s"
 296      01734186 
 296      B9486176 
 296      0E5FACF6 
 296      C45B050A 
 297 0b03 30EFE180 		.ascii	"0\357\341\200\273}\325/\234\264\322.)P.\311(\227)\312"
 297      BB7DD52F 
 297      9CB4D22E 
 297      29502EC9 
 297      289729CA 
 298 0b17 DED43691 		.ascii	"\336\3246\221\355\335\244\352X%\3647\227\2746\345\336"
 298      EDDDA4EA 
 298      5825F437 
 298      97BC36E5 
 298      DE
 299 0b28 738546A4 		.ascii	"s\205F\244U\336{j\253\212\007\334q\036\263b\260q\270"
 299      55DE7B6A 
 299      AB8A07DC 
 299      711EB362 
 299      B071B8
 300 0b3b CA8BADF7 		.ascii	"\312\213\255\367;-%\336\012+@\013\265)\254h\223\255"
 300      3B2D25DE 
 300      0A2B400B 
 300      B529AC68 
 300      93AD
 301 0b4d 68A7567C 		.ascii	"h\247V|\373\313\335\022\017|\206\242\360c7s\016i\034"
 301      FBCBDD12 
 301      0F7C86A2 
 301      F0633773 
 301      0E691C
 302 0b60 CBAC9B65 		.ascii	"\313\254\233e\360:\230w\365y\333\341k.\372\326\222\314"
 302      F03A9877 
 302      F579DBE1 
 302      6B2EFAD6 
 302      92CC
 303 0b72 5B773DA9 		.ascii	"[w=\251\247\327\355\236v\234zX L\351j\007u\365\206\354"
 303      A7D7ED9E 
 303      769C7A58 
 303      204CE96A 
 303      0775F586 
 304 0b87 EA379DB6 		.ascii	"\3527\235\266\275j\\\301\\Mxx\343>\222w\024\233rG\001"
 304      BD6A5CC1 
 304      5C4D7878 
 304      E33E9277 
 304      149B7247 
 305 0b9c 2D6453B8 		.ascii	"-dS\270j\223]\355d\005]\275;\232\307\365B\264H\377\215"
 305      6A935DED 
 305      64055DBD 
 305      3B9AC7F5 
 305      42B448FF 
 306 0bb1 54F6203E 		.ascii	"T\366 >]=7\235\255\215A\355\361\015$\377\342\370\273"
 306      5D3D379D 
 306      AD8D41ED 
 306      F10D24FF 
 306      E2F8BB
 307 0bc4 13AC81E8 		.ascii	"\023\254\201\350b@\366\246\205##\024\355&?\227\204\377"
ARM GAS  C:\Users\Bruger\AppData\Local\Temp\ccYCm4UW.s 			page 24


 307      6240F6A6 
 307      85232314 
 307      ED263F97 
 307      84FF
 308 0bd6 766D9F97 		.ascii	"vm\237\227S'Avy\207\013\335R'\321M;\211\321\364\316"
 308      53274176 
 308      79870BDD 
 308      5227D14D 
 308      3B89D1F4 
 309 0beb 5E6F27E9 		.ascii	"^o'\351f'\351\036I\272\207J\027\216\037<\345\346$M\226"
 309      6627E91E 
 309      49BA874A 
 309      178E1F3C 
 309      E5E6244D 
 310 0c00 AB43BA57 		.ascii	"\253C\272W\222\356\245\322G7\225[\235\377\337]\355\204"
 310      92EEA5D2 
 310      4737955B 
 310      9DFFDF5D 
 310      ED84
 311 0c12 DD2749F7 		.ascii	"\335'I\367Qi1%!\323\035\377\304by\352\341\226\242i\244"
 311      51693125 
 311      21D31DFF 
 311      C46279EA 
 311      E196A269 
 312 0c27 BF8FF95B 		.ascii	"\277\217\371[\213\032\252\343b\323\226\313\036l\017"
 312      8B1AAAE3 
 312      62D396CB 
 312      1E6C0F
 313 0c36 982C7E7B 		.ascii	"\230,~{\212=\340\360;u\244\202nA\332\373\035\0254\300"
 313      8A3DE0F0 
 313      3B75A482 
 313      6E41DAFB 
 313      1D1534C0 
 314 0c4a 2B3681AE 		.ascii	"+6\201\256\275\215Z'\343o9m\003\203\222\361\203\324"
 314      BD8D5A27 
 314      E36F396D 
 314      038392F1 
 314      83D4
 315 0c5c F88ACDE5 		.ascii	"\370\212\315\345\365\202\340b\023z\306\000t\207\027"
 315      F582E062 
 315      137AC600 
 315      748717
 316 0c6b 48CE0FD6 		.ascii	"H\316\017\3264\250q+\363\366IWv\206\032\3673\346@~w"
 316      34A8712B 
 316      F3F64957 
 316      76861AF7 
 316      33E6407E 
 317 0c80 2AE9E0AC 		.ascii	"*\351\340\254\264\203{\303\336\301\361t\335\336U\224"
 317      B4837BC3 
 317      DEC1F174 
 317      DDDE5594 
 318 0c90 D1CF7219 		.ascii	"\321\317r\031\015\3212*\211\251\212\365t\262\370\212"
 318      0DD1322A 
 318      89A98AF5 
 318      74B2F88A 
 319 0ca0 53B8EF49 		.ascii	"S\270\357I\026\337\243\026\267\237\251\270>\315I\272"
 319      16DFA316 
ARM GAS  C:\Users\Bruger\AppData\Local\Temp\ccYCm4UW.s 			page 25


 319      B79FA9B8 
 319      3ECD49BA 
 320 0cb0 C349FA17 		.ascii	"\303I\372\027I\232\374j?\017|\377\363\367\226\257\010"
 320      499AFC6A 
 320      3F0F7CFF 
 320      F3F796AF 
 320      08
 321 0cc1 08D54744 		.ascii	"\010\325GD\270\177\364\207\317}\003~\363\033N\023h1"
 321      B87FF487 
 321      CF7D037E 
 321      F31B4E13 
 321      6831
 322 0cd3 1BF46BD5 		.ascii	"\033\364k\325\313\314\3060\213\267N\267\316\262*T\027"
 322      CBCCC630 
 322      8BB74EB7 
 322      CEB22A54 
 322      17
 323 0ce4 6E31EB2C 		.ascii	"n1\353,Q\341\006\317\337\255\2124\206Z^3\206\275\303"
 323      51E106CF 
 323      DFAD8A34 
 323      865A5E33 
 323      86BDC3
 324 0cf7 79EAD6C1 		.ascii	"y\352\326\301\360|*\347\371g\263\321b\320\031\314f\223"
 324      F07C2AE7 
 324      F967B3D1 
 324      62D019CC 
 324      6693
 325 0d09 59D0AD5C 		.ascii	"Y\320\255\\\361\305\233L}~P\260\311l\370-e\346\377\221"
 325      F1C59B4C 
 325      7D7E50B0 
 325      C96CF82D 
 325      65E6FF91 
 326 0d1d 73D7598C 		.ascii	"s\327Y\214k\015\246H\213V\027a\321\233-\237\031CC\215"
 326      6B0DA648 
 326      8B561761 
 326      D19B2D9F 
 326      1943438D 
 327 0d31 119E4461 		.ascii	"\021\236Da\021\233v\272\244\3018\242\022\011\252o,\324"
 327      119B76BA 
 327      A4C138A2 
 327      1209AA6F 
 327      2CD4
 328 0d43 59049D4E 		.ascii	"Y\004\235N~\214F\301o\007\205\233Mk\314\372\265\276"
 328      7E8C46C1 
 328      6F07859B 
 328      4D6BCCFA 
 328      B5BE
 329 0d55 AB8DA186 		.ascii	"\253\215\241\206\010\337y_/^\364JPpT\270\331\020\021"
 329      08DF795F 
 329      2F5EF44A 
 329      507054B8 
 329      D91011
 330 0d68 11141E61 		.ascii	"\021\024\036a\012\366\015\006\004\213\311\034\364o\363"
 330      0AF60D06 
 330      048BC91C 
 330      F46FF3
 331 0d77 5F771E30 		.ascii	"_w\0360\256\0157\231-Ak\302\"\203\364\346\265\360\376"
ARM GAS  C:\Users\Bruger\AppData\Local\Temp\ccYCm4UW.s 			page 26


 331      AE0D3799 
 331      2D416BC2 
 331      2283F4E6 
 331      B5F0FE
 332 0d8a ADF96F90 		.ascii	"\255\371o\220\247\327\302La\206\327\014\372U\306 cX"
 332      A7D7C24C 
 332      6186D70C 
 332      FA55C620 
 332      6358
 333 0d9c 70686488 		.ascii	"phd\210!h\255>\370\217\3060C\220.\304\260Z\037\031j"
 333      2168AD3E 
 333      F88FC630 
 333      43902EC4 
 333      B05A1F19 
 334 0db1 A1418800 		.ascii	"\241A\210\000\263\376\364\217\262 \302\022\302b\347"
 334      B3FEF48F 
 334      B220C212 
 334      C262E7
 335 0dc0 A15BA58F 		.ascii	"\241[\245\217\014Y\256\267\030\334H\034\026\353,\036"
 335      0C59AEB7 
 335      18DC481C 
 335      16EB2C1E 
 336 0dd0 2C228B49 		.ascii	",\"\213Il\364\341\341\357G\256^m0k\330\210\273N\307"
 336      6CF4E1E1 
 336      EF47AE5E 
 336      6D306BD8 
 336      88BB4EC7 
 337 0de4 1EB4F2AB 		.ascii	"\036\264\362\253@\343\377\032\246\311\314'a!\206\257"
 337      40E3FF1A 
 337      A6C9CC27 
 337      612186AF 
 338 0df4 6968172C 		.ascii	"ih\027,\262\207\226<\316$\271X\260PY\031\263\244\224"
 338      B287963C 
 338      CE24B958 
 338      B0505919 
 338      B3A494
 339 0e07 28C7C01E 		.ascii	"(\307\300\036\237\367M&K\250I\037b0/7D\030,\272O\002"
 339      9FF74D26 
 339      4BA8491F 
 339      62302F37 
 339      44182CBA 
 340 0e1d 97CFD6AD 		.ascii	"\227\317\326\255\\\360\226\213\361u\263\010B\320{\346"
 340      5CF0968B 
 340      F175B308 
 340      42D07BE6 
 341 0e2d 1098C7A4 		.ascii	"\020\230\307\244[\001E0?8<\234\323\032\303\214\026\302"
 341      5B014530 
 341      3F383C9C 
 341      D31AC38C 
 341      16C2
 342 0e3f ADD24718 		.ascii	"\255\322G\030f\200\362B\345\300:u\210!T\037\345\241"
 342      6680F242 
 342      E5C03A75 
 342      8821541F 
 342      E5A1
 343 0e51 5BF9267D 		.ascii	"[\371&}\370j\006\375\371\314\030l6E\030\202Ma!\021\263"
 343      F86A06FD 
ARM GAS  C:\Users\Bruger\AppData\Local\Temp\ccYCm4UW.s 			page 27


 343      F9CC186C 
 343      36451882 
 343      4D612111 
 344 0e66 40E7DF9F 		.ascii	"@\347\337\237\031\375J\033\034e\2140\353CBH.^\372\310"
 344      19FD4A1B 
 344      1C658C30 
 344      EB434248 
 344      2E5EFAC8 
 345 0e7a 10663043 		.ascii	"\020f0C\334Bt\201\246Hs\260!hY\240)\340\315\337\006"
 345      DC427481 
 345      A64873B0 
 345      216859A0 
 345      29E0CDDF 
 346 0e8f 47C9C9F4 		.ascii	"G\311\311\364\235d\362'a\026\250\344\310p\213.\220T"
 346      9D64F227 
 346      6116A8E4 
 346      C8708B2E 
 346      9054
 347 0ea1 E9875F2F 		.ascii	"\351\207_/\234\002b*=\300\2343\351\035q\312\314\360"
 347      9C02622A 
 347      3DC09C33 
 347      E91D71CA 
 347      CCF0
 348 0eb3 E63F1F1A 		.ascii	"\346?\037\032\325\000\244_\261U\242\0130E\022|\2061"
 348      D500A45F 
 348      B155A20B 
 348      3045127C 
 348      8631
 349 0ec5 6F0A0C67 		.ascii	"o\012\014gY\246M\002\363\274\332JY\320\366\016\210\012"
 349      59A64D02 
 349      F3BCDA4A 
 349      59D0F60E 
 349      880A
 350 0ed7 34ADB6FC 		.ascii	"4\255\266\374Yo6P\233^\234B1 \352S\343*\220\327\260"
 350      596F3650 
 350      9B5E9C42 
 350      3120EA53 
 350      E32A90D7 
 351 0eec 253A53AA 		.ascii	"%:S\252\025\335G\006\313\007+>$E\373\362\024\232\262"
 351      15DD4706 
 351      CB072B3E 
 351      2445FBF2 
 351      149AB2
 352 0eff 64704830 		.ascii	"dpH0\321_E\213x\216n\345\037\234\213p\021{\361\341:"
 352      D15F458B 
 352      788E6EE5 
 352      1F9C8B70 
 352      117BF1E1 
 353 0f14 352D791F 		.ascii	"5-y\037Y\355\003\275E\377I\304r\203>$j\266b\322\000"
 353      59ED03BD 
 353      45FF49C4 
 353      72833E24 
 353      6AB662D2 
 354 0f29 53D86AE3 		.ascii	"S\330j\343\232H\230\317h\012\233\252\000$y\230\366\345"
 354      9A4898CF 
 354      680A9BAA 
 354      00247998 
ARM GAS  C:\Users\Bruger\AppData\Local\Temp\ccYCm4UW.s 			page 28


 354      F6E5
 355 0f3b 290B2020 		.ascii	")\013  \324\2407/3\204\301\"\\\343\026\020\365\001)"
 355      D4A0372F 
 355      3384C122 
 355      5CE31610 
 355      F50129
 356 0f4e 350D5B2C 		.ascii	"5\015[,\036\022\373y\204&\320`6\352CUf\303\232\305\323"
 356      1E12FB79 
 356      8426D060 
 356      36EA4355 
 356      66C39AC5 
 357 0f63 0D5F4305 		.ascii	"\015_C\005\233\034\200P\242\237.X4yt\335\377\003D\240"
 357      9B1C8050 
 357      A29F2E58 
 357      347974DD 
 357      FF0344A0 
 358 0f77 8ACE     		.ascii	"\212\316"
 359              		.text
 360              		.section	.gnu.lto_.symtab.24bf4ab2,"",%progbits
 361 0000 5F5A3132 		.ascii	"_Z12initTimebasev\000\000\000\000\000\000\000\000\000"
 361      696E6974 
 361      54696D65 
 361      62617365 
 361      76000000 
 362 001a 00000029 		.ascii	"\000\000\000)\001\000\000_Z19BootloaderReset_ISRv\000"
 362      0100005F 
 362      5A313942 
 362      6F6F746C 
 362      6F616465 
 363 003a 00000000 		.ascii	"\000\000\000\000\000\000\000\000\000\000\000&\001\000"
 363      00000000 
 363      00000026 
 363      0100
 364 0048 005F5A35 		.ascii	"\000_Z5delayj\000\000\000\000\000\000\000\000\000\000"
 364      64656C61 
 364      796A0000 
 364      00000000 
 364      00000000 
 365 005c 00002E01 		.ascii	"\000\000.\001\000\000_Z17delayMicrosecondsj\000\000"
 365      00005F5A 
 365      31376465 
 365      6C61794D 
 365      6963726F 
 366 007a 00000000 		.ascii	"\000\000\000\000\000\000\000\000\000\0001\001\000\000"
 366      00000000 
 366      00003101 
 366      0000
 367 0088 53657269 		.ascii	"Serial\000\000\002\000\000\000\000\000\000\000\000\000"
 367      616C0000 
 367      02000000 
 367      00000000 
 367      0000
 368 009a 63010000 		.ascii	"c\001\000\000BootloaderResetInterrupt_StartEx\000\000"
 368      426F6F74 
 368      6C6F6164 
 368      65725265 
 368      73657449 
ARM GAS  C:\Users\Bruger\AppData\Local\Temp\ccYCm4UW.s 			page 29


 369 00c0 02000000 		.ascii	"\002\000\000\000\000\000\000\000\000\0008\001\000\000"
 369      00000000 
 369      00003801 
 369      0000
 370 00ce 426F6F74 		.ascii	"BootloaderResetTimer_Start\000\000\002\000\000\000\000"
 370      6C6F6164 
 370      65725265 
 370      73657454 
 370      696D6572 
 371 00ef 00000000 		.ascii	"\000\000\000\000\000:\001\000\000Millis_Counter_Sta"
 371      003A0100 
 371      004D696C 
 371      6C69735F 
 371      436F756E 
 372 010a 72740000 		.ascii	"rt\000\000\002\000\000\000\000\000\000\000\000\000<"
 372      02000000 
 372      00000000 
 372      00003C
 373 0119 0100004D 		.ascii	"\001\000\000Micros_Counter_Start\000\000\002\000\000"
 373      6963726F 
 373      735F436F 
 373      756E7465 
 373      725F5374 
 374 0135 00000000 		.ascii	"\000\000\000\000\000\000\000>\001\000\000CySoftware"
 374      0000003E 
 374      01000043 
 374      79536F66 
 374      74776172 
 375 014a 52657365 		.ascii	"Reset\000\000\002\000\000\000\000\000\000\000\000\000"
 375      74000002 
 375      00000000 
 375      00000000 
 375      00
 376 015b 40010000 		.ascii	"@\001\000\000USBUART_GetDTERate\000\000\002\000\000"
 376      55534255 
 376      4152545F 
 376      47657444 
 376      54455261 
 377 0176 00000000 		.ascii	"\000\000\000\000\000\000\000F\001\000\000_ZN12USBUA"
 377      00000046 
 377      0100005F 
 377      5A4E3132 
 377      55534255 
 378 018b 5254436C 		.ascii	"RTClass6bufferEv\000\000\002\000\000\000\000\000\000"
 378      61737336 
 378      62756666 
 378      65724576 
 378      00000200 
 379 01a4 0000004C 		.ascii	"\000\000\000L\001\000\000USBUART_DataIsReady\000\000"
 379      01000055 
 379      53425541 
 379      52545F44 
 379      61746149 
 380 01c0 02000000 		.ascii	"\002\000\000\000\000\000\000\000\000\000R\001\000\000"
 380      00000000 
 380      00005201 
 380      0000
ARM GAS  C:\Users\Bruger\AppData\Local\Temp\ccYCm4UW.s 			page 30


 381 01ce 55534255 		.ascii	"USBUART_GetConfiguration\000\000\002\000\000\000\000"
 381      4152545F 
 381      47657443 
 381      6F6E6669 
 381      67757261 
 382 01ed 00000000 		.ascii	"\000\000\000\000\000T\001\000\000BootloaderResetInt"
 382      00540100 
 382      00426F6F 
 382      746C6F61 
 382      64657252 
 383 0208 65727275 		.ascii	"errupt_ClearPending\000\000\002\000\000\000\000\000"
 383      70745F43 
 383      6C656172 
 383      50656E64 
 383      696E6700 
 384 0223 00000000 		.ascii	"\000\000\000\000V\001\000\000CyDelay\000\000\002\000"
 384      56010000 
 384      43794465 
 384      6C617900 
 384      000200
 385 0236 00000000 		.ascii	"\000\000\000\000\000\000\000\000Z\001\000\000CyDela"
 385      00000000 
 385      5A010000 
 385      43794465 
 385      6C61
 386 0248 79557300 		.ascii	"yUs\000\000\002\000\000\000\000\000\000\000\000\000"
 386      00020000 
 386      00000000 
 386      000000
 387 0257 61010000 		.ascii	"a\001\000\000"
 388              		.text
 389              		.section	.gnu.lto_.opts,"",%progbits
 390 0000 272D6665 		.ascii	"'-fexceptions' '-fno-trapv' '-mcpu=cortex-m3' '-mth"
 390      78636570 
 390      74696F6E 
 390      73272027 
 390      2D666E6F 
 391 0033 756D6227 		.ascii	"umb' '-g' '-O3' '-ffunction-sections' '-finline-fun"
 391      20272D67 
 391      2720272D 
 391      4F332720 
 391      272D6666 
 392 0066 6374696F 		.ascii	"ctions' '-flto' '-ffat-lto-objects'\000"
 392      6E732720 
 392      272D666C 
 392      746F2720 
 392      272D6666 
 393              		.text
 394              		.cfi_sections	.debug_frame
 395              		.section	.text._Z12initTimebasev,"ax",%progbits
 396              		.align	2
 397              		.global	_Z12initTimebasev
 398              		.thumb
 399              		.thumb_func
 400              		.type	_Z12initTimebasev, %function
 401              	_Z12initTimebasev:
 402              		.fnstart
ARM GAS  C:\Users\Bruger\AppData\Local\Temp\ccYCm4UW.s 			page 31


 403              	.LFB152:
 404              		.file 1 "core\\Arduino_Time.cpp"
   1:core/Arduino_Time.cpp **** /* ========================================
   2:core/Arduino_Time.cpp ****  *
   3:core/Arduino_Time.cpp ****  * Copyright YOUR COMPANY, THE YEAR
   4:core/Arduino_Time.cpp ****  * All Rights Reserved
   5:core/Arduino_Time.cpp ****  * UNPUBLISHED, LICENSED SOFTWARE.
   6:core/Arduino_Time.cpp ****  *
   7:core/Arduino_Time.cpp ****  * CONFIDENTIAL AND PROPRIETARY INFORMATION
   8:core/Arduino_Time.cpp ****  * WHICH IS THE PROPERTY OF your company.
   9:core/Arduino_Time.cpp ****  *
  10:core/Arduino_Time.cpp ****  * ========================================
  11:core/Arduino_Time.cpp **** */
  12:core/Arduino_Time.cpp **** 
  13:core/Arduino_Time.cpp **** extern "C" {
  14:core/Arduino_Time.cpp **** #include <Project.h>
  15:core/Arduino_Time.cpp **** }
  16:core/Arduino_Time.cpp **** 
  17:core/Arduino_Time.cpp **** #include <Arduino_Time.h>
  18:core/Arduino_Time.cpp **** #include <Arduino.h>
  19:core/Arduino_Time.cpp **** #include <UARTClass.h>
  20:core/Arduino_Time.cpp **** 
  21:core/Arduino_Time.cpp **** static void exitToBootloader(void);
  22:core/Arduino_Time.cpp **** CY_ISR_PROTO(BootloaderReset_ISR);
  23:core/Arduino_Time.cpp **** 
  24:core/Arduino_Time.cpp **** void initTimebase(void)
  25:core/Arduino_Time.cpp **** {
 405              		.loc 1 25 0
 406              		.cfi_startproc
 407              		@ args = 0, pretend = 0, frame = 0
 408              		@ frame_needed = 0, uses_anonymous_args = 0
 409 0000 08B5     		push	{r3, lr}
 410              		.save {r3, lr}
 411              		.cfi_def_cfa_offset 8
 412              		.cfi_offset 3, -8
 413              		.cfi_offset 14, -4
  26:core/Arduino_Time.cpp ****     Micros_Counter_Start();
 414              		.loc 1 26 0
 415 0002 FFF7FEFF 		bl	Micros_Counter_Start
 416              	.LVL0:
  27:core/Arduino_Time.cpp ****     Millis_Counter_Start();
 417              		.loc 1 27 0
 418 0006 FFF7FEFF 		bl	Millis_Counter_Start
 419              	.LVL1:
  28:core/Arduino_Time.cpp ****     BootloaderResetTimer_Start();
 420              		.loc 1 28 0
 421 000a FFF7FEFF 		bl	BootloaderResetTimer_Start
 422              	.LVL2:
  29:core/Arduino_Time.cpp ****     BootloaderResetInterrupt_StartEx(BootloaderReset_ISR);
  30:core/Arduino_Time.cpp **** }
 423              		.loc 1 30 0
 424 000e BDE80840 		pop	{r3, lr}
 425              		.cfi_restore 14
 426              		.cfi_restore 3
 427              		.cfi_def_cfa_offset 0
  29:core/Arduino_Time.cpp ****     BootloaderResetInterrupt_StartEx(BootloaderReset_ISR);
 428              		.loc 1 29 0
ARM GAS  C:\Users\Bruger\AppData\Local\Temp\ccYCm4UW.s 			page 32


 429 0012 0148     		ldr	r0, .L3
 430 0014 FFF7FEBF 		b	BootloaderResetInterrupt_StartEx
 431              	.LVL3:
 432              	.L4:
 433              		.align	2
 434              	.L3:
 435 0018 00000000 		.word	_Z19BootloaderReset_ISRv
 436              		.cfi_endproc
 437              	.LFE152:
 438              		.fnend
 439              		.size	_Z12initTimebasev, .-_Z12initTimebasev
 440              		.section	.text._Z5delayj,"ax",%progbits
 441              		.align	2
 442              		.global	_Z5delayj
 443              		.thumb
 444              		.thumb_func
 445              		.type	_Z5delayj, %function
 446              	_Z5delayj:
 447              		.fnstart
 448              	.LFB153:
  31:core/Arduino_Time.cpp **** 
  32:core/Arduino_Time.cpp **** void delay(unsigned int delayms)
  33:core/Arduino_Time.cpp **** {
 449              		.loc 1 33 0
 450              		.cfi_startproc
 451              		@ args = 0, pretend = 0, frame = 0
 452              		@ frame_needed = 0, uses_anonymous_args = 0
 453              		@ link register save eliminated.
 454              	.LVL4:
  34:core/Arduino_Time.cpp ****   CyDelay(delayms);
 455              		.loc 1 34 0
 456 0000 FFF7FEBF 		b	CyDelay
 457              	.LVL5:
 458              		.cfi_endproc
 459              	.LFE153:
 460              		.cantunwind
 461              		.fnend
 462              		.size	_Z5delayj, .-_Z5delayj
 463              		.section	.text._Z17delayMicrosecondsj,"ax",%progbits
 464              		.align	2
 465              		.global	_Z17delayMicrosecondsj
 466              		.thumb
 467              		.thumb_func
 468              		.type	_Z17delayMicrosecondsj, %function
 469              	_Z17delayMicrosecondsj:
 470              		.fnstart
 471              	.LFB154:
  35:core/Arduino_Time.cpp **** }
  36:core/Arduino_Time.cpp **** 
  37:core/Arduino_Time.cpp **** void delayMicroseconds(unsigned int delayus)
  38:core/Arduino_Time.cpp **** {
 472              		.loc 1 38 0
 473              		.cfi_startproc
 474              		@ args = 0, pretend = 0, frame = 0
 475              		@ frame_needed = 0, uses_anonymous_args = 0
 476              		@ link register save eliminated.
 477              	.LVL6:
ARM GAS  C:\Users\Bruger\AppData\Local\Temp\ccYCm4UW.s 			page 33


  39:core/Arduino_Time.cpp ****   CyDelayUs(delayus);
 478              		.loc 1 39 0
 479 0000 80B2     		uxth	r0, r0
 480              	.LVL7:
 481 0002 FFF7FEBF 		b	CyDelayUs
 482              	.LVL8:
 483              		.cfi_endproc
 484              	.LFE154:
 485              		.cantunwind
 486              		.fnend
 487              		.size	_Z17delayMicrosecondsj, .-_Z17delayMicrosecondsj
 488 0006 00BF     		.section	.text._Z19BootloaderReset_ISRv,"ax",%progbits
 489              		.align	2
 490              		.global	_Z19BootloaderReset_ISRv
 491              		.thumb
 492              		.thumb_func
 493              		.type	_Z19BootloaderReset_ISRv, %function
 494              	_Z19BootloaderReset_ISRv:
 495              		.fnstart
 496              	.LFB155:
  40:core/Arduino_Time.cpp **** }
  41:core/Arduino_Time.cpp **** 
  42:core/Arduino_Time.cpp **** CY_ISR(BootloaderReset_ISR)
  43:core/Arduino_Time.cpp **** {
 497              		.loc 1 43 0
 498              		.cfi_startproc
 499              		@ args = 0, pretend = 0, frame = 0
 500              		@ frame_needed = 0, uses_anonymous_args = 0
 501 0000 08B5     		push	{r3, lr}
 502              		.save {r3, lr}
 503              		.cfi_def_cfa_offset 8
 504              		.cfi_offset 3, -8
 505              		.cfi_offset 14, -4
  44:core/Arduino_Time.cpp ****   BootloaderResetInterrupt_ClearPending();         
 506              		.loc 1 44 0
 507 0002 FFF7FEFF 		bl	BootloaderResetInterrupt_ClearPending
 508              	.LVL9:
  45:core/Arduino_Time.cpp ****   if(USBUART_GetConfiguration() != 0u)
 509              		.loc 1 45 0
 510 0006 FFF7FEFF 		bl	USBUART_GetConfiguration
 511              	.LVL10:
 512 000a 28B9     		cbnz	r0, .L17
 513              	.L9:
  46:core/Arduino_Time.cpp ****   {
  47:core/Arduino_Time.cpp ****     if(USBUART_DataIsReady() != 0u)
  48:core/Arduino_Time.cpp ****     {   
  49:core/Arduino_Time.cpp ****       Serial.buffer();
  50:core/Arduino_Time.cpp ****     }  
  51:core/Arduino_Time.cpp ****   }
  52:core/Arduino_Time.cpp ****   if (USBUART_GetDTERate() == 1200)
 514              		.loc 1 52 0
 515 000c FFF7FEFF 		bl	USBUART_GetDTERate
 516              	.LVL11:
 517 0010 B0F5966F 		cmp	r0, #1200
 518 0014 08D0     		beq	.L18
 519 0016 08BD     		pop	{r3, pc}
 520              	.L17:
ARM GAS  C:\Users\Bruger\AppData\Local\Temp\ccYCm4UW.s 			page 34


  47:core/Arduino_Time.cpp ****     {   
 521              		.loc 1 47 0
 522 0018 FFF7FEFF 		bl	USBUART_DataIsReady
 523              	.LVL12:
 524 001c 0028     		cmp	r0, #0
 525 001e F5D0     		beq	.L9
  49:core/Arduino_Time.cpp ****     }  
 526              		.loc 1 49 0
 527 0020 0548     		ldr	r0, .L19
 528 0022 FFF7FEFF 		bl	_ZN12USBUARTClass6bufferEv
 529              	.LVL13:
 530 0026 F1E7     		b	.L9
 531              	.L18:
 532              	.LBB4:
 533              	.LBB5:
  53:core/Arduino_Time.cpp ****   {
  54:core/Arduino_Time.cpp ****     exitToBootloader();
  55:core/Arduino_Time.cpp ****   }
  56:core/Arduino_Time.cpp **** }
  57:core/Arduino_Time.cpp **** 
  58:core/Arduino_Time.cpp **** void exitToBootloader(void)
  59:core/Arduino_Time.cpp **** {
  60:core/Arduino_Time.cpp ****   Bootloader_SET_RUN_TYPE(Bootloader_SCHEDULE_BTLDR);
 534              		.loc 1 60 0
 535 0028 044B     		ldr	r3, .L19+4
 536 002a 4022     		movs	r2, #64
 537 002c 1A70     		strb	r2, [r3]
 538              	.LBE5:
 539              	.LBE4:
  56:core/Arduino_Time.cpp **** 
 540              		.loc 1 56 0
 541 002e BDE80840 		pop	{r3, lr}
 542              		.cfi_restore 14
 543              		.cfi_restore 3
 544              		.cfi_def_cfa_offset 0
 545              	.LBB7:
 546              	.LBB6:
  61:core/Arduino_Time.cpp ****   CySoftwareReset();
 547              		.loc 1 61 0
 548 0032 FFF7FEBF 		b	CySoftwareReset
 549              	.LVL14:
 550              	.L20:
 551 0036 00BF     		.align	2
 552              	.L19:
 553 0038 00000000 		.word	Serial
 554 003c FA460040 		.word	1073759994
 555              	.LBE6:
 556              	.LBE7:
 557              		.cfi_endproc
 558              	.LFE155:
 559              		.fnend
 560              		.size	_Z19BootloaderReset_ISRv, .-_Z19BootloaderReset_ISRv
 561              		.text
 562              	.Letext0:
 563              		.file 2 "c:\\program files (x86)\\cypress\\psoc creator\\4.0\\psoc creator\\import\\gnu\\arm\\4.9.
 564              		.file 3 "c:\\program files (x86)\\cypress\\psoc creator\\4.0\\psoc creator\\import\\gnu\\arm\\4.9.
 565              		.file 4 "Generated_Source\\PSoC5/cytypes.h"
ARM GAS  C:\Users\Bruger\AppData\Local\Temp\ccYCm4UW.s 			page 35


 566              		.file 5 "c:\\program files (x86)\\cypress\\psoc creator\\4.0\\psoc creator\\import\\gnu\\arm\\4.9.
 567              		.file 6 "Generated_Source\\PSoC5/core_cm3.h"
 568              		.file 7 ".\\core/USBUARTClass.h"
 569              		.file 8 ".\\core/pins_arduino.h"
 570              		.file 9 "Generated_Source\\PSoC5/Micros_Counter.h"
 571              		.file 10 "Generated_Source\\PSoC5/Millis_Counter.h"
 572              		.file 11 "Generated_Source\\PSoC5/BootloaderResetTimer.h"
 573              		.file 12 "Generated_Source\\PSoC5/BootloaderResetInterrupt.h"
 574              		.file 13 "Generated_Source\\PSoC5/CyLib.h"
 575              		.file 14 "Generated_Source\\PSoC5/USBUART.h"
 576              		.file 15 "Generated_Source\\PSoC5/USBUART_cdc.h"
 577              		.file 16 ".\\core/Print.h"