ARM GAS  C:\Users\Bruger\AppData\Local\Temp\ccTjNOWh.s 			page 1


   1              		.syntax unified
   2              		.cpu cortex-m3
   3              		.fpu softvfp
   4              		.eabi_attribute 20, 1
   5              		.eabi_attribute 21, 1
   6              		.eabi_attribute 23, 3
   7              		.eabi_attribute 24, 1
   8              		.eabi_attribute 25, 1
   9              		.eabi_attribute 26, 1
  10              		.eabi_attribute 30, 2
  11              		.eabi_attribute 34, 1
  12              		.eabi_attribute 18, 4
  13              		.thumb
  14              		.file	"Arduino_Pins.cpp"
  15              		.text
  16              	.Ltext0:
  17              		.section	.gnu.lto_.profile.24bf19fd,"",%progbits
  18 0000 789C6366 		.ascii	"x\234cf```a\200\000F\006S\033\000\001\032\000z"
  18      60606061 
  18      80004606 
  18      531B0001 
  18      1A007A
  19              		.text
  20              		.section	.gnu.lto_.jmpfuncs.24bf19fd,"",%progbits
  21 0000 789C6366 		.ascii	"x\234cf\300\016D\24143\003\023##s}=\220d\254g\206\260"
  21      C00E44A1 
  21      34330313 
  21      2323737D 
  21      3D9064AC 
  22 0017 190019BA 		.ascii	"\031\000\031\272\002\255"
  22      02AD
  23              		.text
  24              		.section	.gnu.lto_.inline.24bf19fd,"",%progbits
  25 0000 789C6D90 		.ascii	"x\234m\220\277J\003A\020\207\1773\273\331[\342\011g"
  25      BF4A0341 
  25      10877F33 
  25      BBD95BE2 
  25      0967
  26 0012 25916002 		.ascii	"%\221`\002\202\017\340\023\334\313D\364-\266\260\017"
  26      820FE013 
  26      DCCB44F4 
  26      2DB6B00F 
  27 0022 82451AF1 		.ascii	"\202E\032\361\012A\343_\020\024\033A\260\260\021\302"
  27      0A41E35F 
  27      10141B41 
  27      B0B011C2 
  28 0032 15361689 		.ascii	"\0256\026\211\205\310\265\022,\322\004w\307l\210\340"
  28      85C8B512 
  28      2CD20477 
  28      C76C88E0 
  29 0042 1633F0ED 		.ascii	"\0263\360\355\3567?F\341\377\263O\277]\001+u2\350|1"
  29      EE373F46 
  29      E1FFB34F 
  29      BF5D012B 
  29      7532E87C 
  30 0057 DDF65FDF 		.ascii	"\335\366_\337\226+\23606@'\264\006lK\243\035\177\371"
  30      962B9E30 
ARM GAS  C:\Users\Bruger\AppData\Local\Temp\ccTjNOWh.s 			page 2


  30      364027B4 
  30      066C4BA3 
  30      1D7FF9
  31 006a 7C58DDE8 		.ascii	"|X\335\350pI\004:\015tW\032\274\310#X/3E\213\241\213"
  31      7049043A 
  31      0D74571A 
  31      BCC82358 
  31      2F33458B 
  32 0080 560E73BF 		.ascii	"V\016s\277\232[p\225h\350\203\206#\230\336z\033\346"
  32      9A5B7095 
  32      68E88386 
  32      2398DE7A 
  32      1BE6
  33 0092 31C9C250 		.ascii	"1\311\302P\306\222%\205\316\342\220\340\251\371\267"
  33      C6922585 
  33      CEE290E0 
  33      A9F9B7
  34 00a1 73491624 		.ascii	"sI\026$\331L\"I7S\252\377\375$\311F\037\203\322\206"
  34      D94C2249 
  34      3753AAFF 
  34      FD24C946 
  34      1F83D286 
  35 00b5 64EC25FD 		.ascii	"d\354%\375H\007\357O\335T(\203\316\"\275>\372\236\222"
  35      4807EF4F 
  35      DD542883 
  35      CE22BD3E 
  35      FA9E92
  36 00c8 50053A8F 		.ascii	"P\005:\217\364\270\034\225J\250\006]D\332\335\273\033"
  36      F4B81C95 
  36      4AA8065D 
  36      44DADDBB 
  36      1B
  37 00d9 1AA135D0 		.ascii	"\032\2415\320e\244\343\351\370\201\205\032\320\325\302"
  37      65A4E3E9 
  37      F881851A 
  37      D0D5C2
  38 00e8 02523B6C 		.ascii	"\002R;l\316\303;\033\322;;\213\337,\266\\\006\333K\234"
  38      CEC33B1B 
  38      D23B3B8B 
  38      DF2CB65C 
  38      06DB4B9C 
  39 00fc 067F9263 		.ascii	"\006\177\222c\251\024j\016\375\242\332\241\310j\360"
  39      A9146A0E 
  39      FDA2DAA1 
  39      C86AF0
  40 010b 0366F25A 		.ascii	"\003f\362Z\337"
  40      DF
  41              		.text
  42              		.section	.gnu.lto_.pureconst.24bf19fd,"",%progbits
  43 0000 789C6366 		.ascii	"x\234cf```g\200\000f\006)&)f)\000\001\302\000a"
  43      60606067 
  43      80006606 
  43      29262966 
  43      290001C2 
  44              		.text
  45              		.section	.gnu.lto__Z12digitalWritemh.24bf19fd,"",%progbits
  46 0000 789C8552 		.ascii	"x\234\205R[KTQ\024\336k\3573\373\234\2718\212\320\315"
ARM GAS  C:\Users\Bruger\AppData\Local\Temp\ccTjNOWh.s 			page 3


  46      5B4B5451 
  46      14DE6BEF 
  46      33FB9CB9 
  46      388AD0CD 
  47 0014 28A29021 		.ascii	"(\242\220!\210\204~\200\330S\324S? \012\262y\020D\305"
  47      88847E80 
  47      D853D453 
  47      3F200AB2 
  47      791044C5 
  48 0028 A837E98C 		.ascii	"\2507\351\2143\325<D8\2020\225\372\"\341\2509\232wm"
  48      33D53C44 
  48      38823095 
  48      FA22E1A8 
  48      399A776D 
  49 003c C0A9208B 		.ascii	"\300\251 \213\362\322\305K>\224\017j\323K\245\2116\204"
  49      F2D2C54B 
  49      3E940F6A 
  49      D34BA589 
  49      3684
  50 004e 4E6BED3D 		.ascii	"Nk\355=FT\324\201\263\367^\353\254\357[\337\372\316"
  50      4654D481 
  50      B3F75EEB 
  50      ACEF5BDF 
  50      FACE
  51 0060 16ECCFC7 		.ascii	"\026\354\317\307\217\357\013\301\330A\334\301\311\200"
  51      8FEF0BC1 
  51      D841DCC1 
  51      C980
  52 006e D74D3016 		.ascii	"\327M0\026\2608\027a\037\263]\006\255\036\001\016\235"
  52      B0381761 
  52      1FB35D06 
  52      AD1E010E 
  52      9D
  53 007f 36B895D8 		.ascii	"6\270\225\330\217i\307\233\"L;\270\034\313\305\310|"
  53      8F69C79B 
  53      224C3BB8 
  53      1CCBC5C8 
  53      7C
  54 0090 568C9104 		.ascii	"V\214\221\004K\027\231\333\007\013\200\016\014\330\025"
  54      4B1799DB 
  54      070B800E 
  54      0CD815
  55 009f 2E0C8734 		.ascii	".\014\2074-\270\002\037\371\012\207\272dG\324\355\273"
  55      2DB8021F 
  55      F90A87BA 
  55      6447D4ED 
  55      BB
  56 00b0 6BDBF697 		.ascii	"k\333\366\227W\343\273\256\356Ns\306\276r\255\010Z\301"
  56      57E3BBAE 
  56      EE4E73C6 
  56      BE72AD08 
  56      5AC1
  57 00c2 872553ED 		.ascii	"\207%S\355\351>)\366\000\303\363p|m\334\235\342i\016"
  57      E93E29F6 
  57      00C3F370 
  57      7C6DDC9D 
  57      E2690E
ARM GAS  C:\Users\Bruger\AppData\Local\Temp\ccTjNOWh.s 			page 4


  58 00d5 07281CA9 		.ascii	"\007(\034\251\177\032\225\024r\203\302'\243\003)wa\213"
  58      7F1A9514 
  58      7283C227 
  58      A3032977 
  58      618B
  59 00e7 6DD72613 		.ascii	"m\327&\023=v\211\221\346\002b \220\017\332\240\000\332"
  59      3D768991 
  59      E6026220 
  59      900FDAA0 
  59      00DA
  60 00f9 A180618A 		.ascii	"\241\200a\212A\007\024buj!\274\306\305>\305\373\274"
  60      41071462 
  60      756A21BC 
  60      C6C53EC5 
  60      FBBC
  61 010b 616AC0A3 		.ascii	"aj\300\243\221o\343v\011\244\271\001\3674\362H\001\034"
  61      916FE376 
  61      09A4B901 
  61      F734F248 
  61      011C
  62 011d 269CC1A0 		.ascii	"&\234\301\240\023\012\251x%\2649\353\226!\324\234\247"
  62      130AA978 
  62      25B439EB 
  62      9621D49C 
  62      A7
  63 012e B5421C24 		.ascii	"\265B\034$\340\336\225\237\2643\231\336\301\207\335"
  63      E0DE959F 
  63      B43399DE 
  63      C187DD
  64 013d 320F541B 		.ascii	"2\017T\033\001\264\032\010wH\2250\201X,LH'.\246\213"
  64      01B41A08 
  64      77489530 
  64      81582C4C 
  64      48272EA6 
  65 0152 160F8539 		.ascii	"\026\017\2059t\362\322\302\330\"\262\222aK\234\323."
  65      74F2D2C2 
  65      D822B292 
  65      614B9CD3 
  65      2E
  66 0163 A621341E 		.ascii	"\246!4\036\034\335K}6\270@\011\375m\323\36394\2708\304"
  66      1CDD4B7D 
  66      36B84009 
  66      FD6DD3F3 
  66      3934B838 
  67 0178 A00BE7A2 		.ascii	"\240\013\347\242g\011g\013\373\304<\324\216\254$N\351"
  67      6709670B 
  67      FBC43CD4 
  67      8EAC244E 
  67      E9
  68 0189 6289C5CD 		.ascii	"b\211\305\315\257o\306y\315w;l[inm\222b\314\276_\234"
  68      AF6FC679 
  68      CD773B6C 
  68      5B696E6D 
  68      9262CCBE 
  69 019f 7C691185 		.ascii	"|i\021\205\245\302X \324\010Mp'`S\225\023\272\241\006"
  69      A5C25820 
  69      D4084D70 
ARM GAS  C:\Users\Bruger\AppData\Local\Temp\ccTjNOWh.s 			page 5


  69      27605395 
  69      13BAA106 
  70 01b3 EE13317E 		.ascii	"\356\0231~k\315|Z\265\212:q\340\344I\362\264\007\013"
  70      6BCD7C5A 
  70      B58A3A71 
  70      E0E449F2 
  70      B4070B
  71 01c6 5187FA47 		.ascii	"Q\207\372G\275P\304f\240\326n\000\345\002\216\210M\225"
  71      BD50C466 
  71      A0D66E00 
  71      E5028E88 
  71      4D95
  72 01d8 18438B09 		.ascii	"\030C\213\011\326_[\2365\265\032C\253\217\334\212}\000"
  72      D65F5B9E 
  72      35B51A43 
  72      AB8FDC8A 
  72      7D00
  73 01ea A5DE5ED8 		.ascii	"\245\336^\330\312\270\031\364a#\234q\"x>[\207E\237c"
  73      CAB819F4 
  73      61239C71 
  73      22783E5B 
  73      87459F63 
  74 01fe 1BADB9AA 		.ascii	"\033\255\271\252\350\004\203\376\237#:\330j\261\300"
  74      E80483FE 
  74      9F233AD8 
  74      6AB1C0
  75 020d 86794CF7 		.ascii	"\206yL\367\002\002\316\005[n\010\0155\021:\326\224\352"
  75      0202CE05 
  75      5B6E080D 
  75      35113AD6 
  75      94EA
  76 021f 31086AE2 		.ascii	"1\010j\342_\030\320\320e@\311R4N\346\243\006\003\220"
  76      5F18D0D0 
  76      6540C952 
  76      344EE6A3 
  76      060390
  77 0232 49B2C71E 		.ascii	"I\262\307\0362k\356\372L\364\254\006[\3047\017\217\326"
  77      326BEEFA 
  77      4CF4AC06 
  77      5BC4370F 
  77      8FD6
  78 0244 5D3A76FE 		.ascii	"]:v\376\352\223T^\334\216\014\3158\311\247\020^\022"
  78      EA93545E 
  78      DC8E0CCD 
  78      38C9A710 
  78      5E12
  79 0256 17426090 		.ascii	"\027B`\220\032\300\020z\202\320\340\232\324P\374\344"
  79      1AC0107A 
  79      82D0E09A 
  79      D450FCE4 
  80 0266 54BD91AE 		.ascii	"T\275\221\256^y\363\017\360\2602\324\245\0064Y\3271"
  80      5E79F30F 
  80      F0B032D4 
  80      A5063459 
  80      D731
  81 0278 2D6B3D5A 		.ascii	"-k=Z\255\271<\277\311\312\371\013\225'K5\222\325\361"
  81      ADB93CBF 
ARM GAS  C:\Users\Bruger\AppData\Local\Temp\ccTjNOWh.s 			page 6


  81      C9CAF90B 
  81      95274B35 
  81      92D5F1
  82 028b 2DABC3AB 		.ascii	"-\253\303\253\313#\221\276f/M\341\336BO\036\374G\327"
  82      CB2391BE 
  82      662F4DE1 
  82      DE424F1E 
  82      FC47D7
  83 029e 365942E9 		.ascii	"6YB\351\362*]\226\272\211\357 \220\334\334A02u\021u"
  83      F22A5D96 
  83      BA89EF20 
  83      90DCDC41 
  83      30327511 
  84 02b3 61166FD4 		.ascii	"a\026o\324\316\322\312j\377\231\343\325\027.\225UT\236"
  84      CED2CA6A 
  84      FF99E3D5 
  84      172E9555 
  84      549E
  85 02c5 3B5D5671 		.ascii	";]Vq\361hiU\025\023Ue\025\216r\377e\177\371\017\260"
  85      F1686955 
  85      15135565 
  85      158E72FF 
  85      657FF90F 
  86 02da E45A48   		.ascii	"\344ZH"
  87              		.text
  88              		.section	.gnu.lto__Z11digitalReadm.24bf19fd,"",%progbits
  89 0000 789C6551 		.ascii	"x\234eQ\317KTQ\024>\337\275\357\335y3S$-\202\206\210"
  89      CF4B5451 
  89      143EDFBD 
  89      EFDD7933 
  89      53242D82 
  90 0016 20648822 		.ascii	" d\210\"7\255\243V\021\264\350\017\010\212,\310\215"
  90      37ADA356 
  90      11B4E80F 
  90      088A2CC8 
  90      8D
  91 0027 0E469B40 		.ascii	"\016F\233@\274\363\243r\021\221RT\366\003\242\037\216"
  91      BCF3A372 
  91      11915254 
  91      F603A21F 
  91      8E
  92 0038 965A8E63 		.ascii	"\226Z\216c)R\322\"\014r,L\013\351\327B\3136\226\026"
  92      2952D222 
  92      0C722C4C 
  92      0BE9D742 
  92      CB369616 
  93 004c 4D53E974 		.ascii	"MS\351t\316{\021B\017\336\275\347\234\373}\347;\337"
  93      CE7B1142 
  93      0FDEBDE7 
  93      9CFB7DE7 
  93      3BDF
  94 005e BD9AFEFF 		.ascii	"\275\232\376\377v\361\377D\021\255\341\035!\202:] J"
  94      76F1FF44 
  94      11ADE11D 
  94      21823A5D 
  94      204A
  95 0070 7A4AE9A6 		.ascii	"zJ\351\2468\331\210#\3532\0157(;\312\014\256\345\262"
ARM GAS  C:\Users\Bruger\AppData\Local\Temp\ccTjNOWh.s 			page 7


  95      38D98823 
  95      EB320D37 
  95      283BCA0C 
  95      AEE5B2
  96 0083 FBA28ACB 		.ascii	"\373\242\212\313.LP6\200\004\004jT\332q\015\032\361"
  96      2E4C5036 
  96      8004046A 
  96      54DA710D 
  96      1AF1
  97 0095 49CD293C 		.ascii	"I\315)<\355_\034C\374\206\265\251/=\271\353\352\334"
  97      ED5F1C43 
  97      FC86B5A9 
  97      2F3DB9EB 
  97      EADC
  98 00a7 997D2596 		.ascii	"\231}%\226\372\252\010\233b\330\020\023F\033\342\014"
  98      FAAA089B 
  98      62D81013 
  98      461BE20C 
  99 00b7 7CD651EA 		.ascii	"|\326Q\3525z5\210\343\376\256o#\321\031URX'\351@\313"
  99      357A3588 
  99      E3FEAE6F 
  99      23D11955 
  99      525827E9 
 100 00cd F07923A9 		.ascii	"\360y#\251r$}\374\260o&Zy\215[\016=\350\261\333\234"
 100      72247DFC 
 100      B06F265A 
 100      798D5B0E 
 100      3DE8B1DB 
 101 00e2 92D2C842 		.ascii	"\222\322\310BK\317v\304\320\201\030q\211p\013\225\002"
 101      4BCF76C4 
 101      D0811871 
 101      89700B95 
 101      02
 102 00f3 9FCB2CBC 		.ascii	"\237\313,\274\214\232\214\265\266BtY\3606\014x\357^"
 102      8C9A8CB5 
 102      B6427459 
 102      F0360C78 
 102      EF5E
 103 0105 3964CBE5 		.ascii	"9d\313\345\\\241yx#\"\360\361\212\231\244!\241\303\241"
 103      5CA17978 
 103      2322F0F1 
 103      8A99A421 
 103      A1C3A1
 104 0118 63FC6A88 		.ascii	"c\374j\210C\327\343\305\204\345\234h\212\027q;\255\224"
 104      43D7E3C5 
 104      84E59C68 
 104      8A17713B 
 104      AD94
 105 012a EC7A1C99 		.ascii	"\354z\034\231\221t\361\244\226\316E\245Y4\337>>\271"
 105      9174F1A4 
 105      96CE45A5 
 105      5934DF3E 
 105      3EB9
 106 013c 5C46D6EB 		.ascii	"\\F\326\353\011\235\210\371\027=\315S5\305\365$R\003"
 106      099D88F9 
 106      173DCD53 
 106      35C5F524 
ARM GAS  C:\Users\Bruger\AppData\Local\Temp\ccTjNOWh.s 			page 8


 106      5203
 107 014e 73A357C3 		.ascii	"s\243W\303\001\3320\372\312\330\251.\325\360\3136Y\257"
 107      01DA30FA 
 107      CAD8A92E 
 107      D5F0CB36 
 107      59AF
 108 0160 A4420B22 		.ascii	"\244B\013\"\301\325wS\243\317=\351\021\362\323l2s\011"
 108      C1D57753 
 108      A3CF3DE9 
 108      11F2D36C 
 108      327309
 109 0173 97713169 		.ascii	"\227q1i\005\345\241\013\015\350\226\316|\326V\236\235"
 109      05E5A10B 
 109      0DE896CE 
 109      7CD6569E 
 109      9D
 110 0184 F7AA3AD9 		.ascii	"\367\252:\331\343\320N\271\216;\014\344AD\024wQE\023"
 110      E3D04EB9 
 110      8E3B0CE4 
 110      41441477 
 110      514513
 111 0197 48D9B3F0 		.ascii	"H\331\263\360\215\263\037\026\365\247q\202i\322-\307"
 111      8DB31F16 
 111      F5A77182 
 111      69D22DC7 
 112 01a7 0BAD4783 		.ascii	"\013\255G\203i\234`\374\346\013\331\217\360\307\267"
 112      699C60FC 
 112      E60BD98F 
 112      F0C7B7
 113 01b6 EF17CB51 		.ascii	"\357\027\313QB\017\013\261\313Bz\377_\034\203>g\213"
 113      420F0BB1 
 113      CB427AFF 
 113      5F1C833E 
 113      678B
 114 01c8 6D2B7CD0 		.ascii	"m+|\320\016B\356\237G\227\346\267j\026\254\240@\013"
 114      0E42EE9F 
 114      4797E6B7 
 114      6A16ACA0 
 114      400B
 115 01da C4865F9D 		.ascii	"\304\206_\235\230m\335\022PCA\351\321\367H\220{K\255"
 115      986DDD12 
 115      504341E9 
 115      D1F74890 
 115      7B4BAD
 116 01ed BABE9DD6 		.ascii	"\272\276\235\326\346\373\023a\261\232AI\205\231\202"
 116      E6FB1361 
 116      B19A4149 
 116      859982
 117 01fc 5E698F3C 		.ascii	"^i\217<\333bj\372\207\011\250\341\200}\363\315\261\237"
 117      DB626AFA 
 117      8709A8E1 
 117      807DF3CD 
 117      B19F
 118 020e 6161136B 		.ascii	"aa\023k\366\011\362\003\330\276\321\277sY\305\206\034"
 118      F609F203 
 118      D8BED1BF 
 118      7359C586 
ARM GAS  C:\Users\Bruger\AppData\Local\Temp\ccTjNOWh.s 			page 9


 118      1C
 119 021f F058C67F 		.ascii	"\360X\306\177\251\267HVP\221\237\215!j\251\260\334\324"
 119      A9B74856 
 119      50919F8D 
 119      216AA9B0 
 119      DCD4
 120 0231 3DC49CC1 		.ascii	"=\304\234\301|\202\373\272\257\363\207\370\225!\034"
 120      7C82FBBA 
 120      AFF387F8 
 120      95211C
 121 0240 3E5A555D 		.ascii	">ZU]W\177p\317\366\372\003Gjj\353\366\356\256\251=\274"
 121      577F70CF 
 121      F6FA0347 
 121      6A6AEBF6 
 121      EEAEA93D 
 122 0255 B93A9120 		.ascii	"\271:\221 \235\250\251\375\003,\342\004\306"
 122      9DA8A9FD 
 122      032CE204 
 122      C6
 123              		.text
 124              		.section	.gnu.lto__Z7pinModem8PIN_MODE.24bf19fd,"",%progbits
 125 0000 789C8D56 		.ascii	"x\234\215V\353OTG\024\2373\367\261\367\356\335\007\017"
 125      EB4F5447 
 125      149F33F7 
 125      B1F7EEDD 
 125      070F
 126 0012 2D94A48F 		.ascii	"-\224\244\217\324\030\322\244-\177@\223\306~j\372\255"
 126      D418D2A4 
 126      2D7F4093 
 126      C67E6AFA 
 126      AD
 127 0023 9FFAA131 		.ascii	"\237\372\2411\351CIC\322*\301\332\017M\014wq\213\332"
 127      E9434943 
 127      D22AC1DA 
 127      0F4D0C77 
 127      718BDA
 128 0036 16155A52 		.ascii	"\026\025ZRZ\027\320\330\226\365\005\012\212\210PV\255"
 128      5A17D0D8 
 128      96F5050A 
 128      8A885056 
 128      AD
 129 0047 A0B6AC2E 		.ascii	"\240\266\254.\012RkpM\241b\333 \010\0257\002\3333g\366"
 129      0A526B70 
 129      4DA162DB 
 129      20081537 
 129      02DB3367 
 130 005c 12766DB4 		.ascii	"\022vm\264$\234;s\346\374\316\357\374f\316\014(\354"
 130      249C3B73 
 130      E6FCCEEF 
 130      FC66CE0C 
 130      28EC
 131 006e E19F1EFC 		.ascii	"\341\237\036\374\375\323`\254\010\277\340g\300wF\031"
 131      FDD360AC 
 131      08BFE067 
 131      C0774619 
 132 007e 0B189C2B 		.ascii	"\013\030\234+[\013\231\355V\205\365(\240I\267\312}]"
 132      5B0B99ED 
ARM GAS  C:\Users\Bruger\AppData\Local\Temp\ccTjNOWh.s 			page 10


 132      5685F528 
 132      A049B7CA 
 132      7D5D
 133 0090 4FA35BBB 		.ascii	"O\243[\273R\204n\315\345\251\265\230m\350d]d\015\262"
 133      52846ECD 
 133      E5A9B598 
 133      6DE8645D 
 133      640DB2
 134 00a3 6EB22659 		.ascii	"n\262&YK\306\200W\246p9\003\303\031\230\316\300\355"
 134      4BC68057 
 134      A6703903 
 134      C31998CE 
 134      C0ED
 135 00b5 0C2C67E0 		.ascii	"\014,g\340q\006^\360\311\201\017@\014\030\260r\256\250"
 135      71065EF0 
 135      C9810F40 
 135      0C18B072 
 135      AEA8
 136 00c7 9AEE324C 		.ascii	"\232\3562L\267\345\361\372\240\034n\363)\016;#\007\352"
 136      B7E5F1FA 
 136      A01C6EF3 
 136      290E3B23 
 136      07EA
 137 00d9 ACC2EF6D 		.ascii	"\254\302\357m\333\236l=~\237\333_\275\223\340\214Ms"
 137      DB9E6C3D 
 137      7E9FDB5F 
 137      BD93E08C 
 137      4D73
 138 00eb A9169AA0 		.ascii	"\251\026\232\240\020\203.\355O\034\325\225'\201\341"
 138      10832EED 
 138      4F1CD595 
 138      2781E1
 139 00fa F844F34C 		.ascii	"\370D\363L\2775\316\023\034\236\025\323\316\232su\272"
 139      BF35CE13 
 139      1C9E15D3 
 139      CE9A7375 
 139      BA
 140 010b 9872554C 		.ascii	"\230rUL{{\332\307\255\225{m\273\"\322\322j\257R\023"
 140      7B7BDAC7 
 140      AD957B6D 
 140      BB22D2D2 
 140      6AAF5213 
 141 011f 5C813028 		.ascii	"\\\2010(\230\017\366A\001\354\207\002\206.\006\007`"
 141      980FF641 
 141      01EC8702 
 141      862E0607 
 141      60
 142 0130 2546DF4A 		.ascii	"%F\337J\334n\362*OQ\336\371\352\253\003\\\"\2575\333"
 142      DC6EF22A 
 142      4F51DEF9 
 142      EAAB035C 
 142      22AF35DB 
 143 0144 AB20C155 		.ascii	"\253 \301U8(\221/\024\300\363\002\24728\004+E\360Tp"
 143      3828912F 
 143      14C0F302 
 143      A7323804 
 143      2B45F054 
ARM GAS  C:\Users\Bruger\AppData\Local\Temp\ccTjNOWh.s 			page 11


 144 0159 FEAAA507 		.ascii	"\376\252\245\007\261\352,Y+4\203\016\370\301\265#\347"
 144      B1EA2C59 
 144      2B34830E 
 144      F8C1B523 
 144      E7
 145 016a 633F68CA 		.ascii	"c?h\312s\224t\246\355T\235\272b\017&\215\367\377\336"
 145      739474A6 
 145      ED549DBA 
 145      620F268D 
 145      F7FFDE
 146 017d 6BD97576 		.ascii	"k\331uv0\236L>\223\340\032\264,\315\235R{\030V\264\344"
 146      309E4C3E 
 146      93E01AB4 
 146      2CCD9D52 
 146      7B1856B4 
 147 0192 44EC64B2 		.ascii	"D\354d\262m\244z|\005/\000*\224\323\202\006b\254c\031"
 147      6DA47A7C 
 147      052F002A 
 147      94D38206 
 147      62AC6319 
 148 01a6 BA416E13 		.ascii	"\272An\023\207.7\255Y \012\363\320\330K\326G\326O6\213"
 148      872E37AD 
 148      59200AF3 
 148      D0D84BD6 
 148      47D64F36 
 149 01bb 6C36D91C 		.ascii	"l6\331\034\262\271d\227a\002c\2710y4\317'\313\330(\012"
 149      B2B96497 
 149      610263B9 
 149      307934CF 
 149      27CBD828 
 150 01d0 DA8E6736 		.ascii	"\332\216g6\306\271\370*\203\020\354\337<[\245\244\353"
 150      C6B9F82A 
 150      8310ECDF 
 150      3C5BA5A4 
 150      EB
 151 01e1 A658211B 		.ascii	"\246X!\033\353>\002\372,\327p\375\330\276\301k^q\032"
 151      EB3E02FA 
 151      2CD770FD 
 151      D8BEC16B 
 151      5E711A
 152 01f4 0AAEB582 		.ascii	"\012\256\265\202\0246\206\033\276\245P\271\006\025\235"
 152      1436861B 
 152      BEA550B9 
 152      06159D
 153 0203 5337F698 		.ascii	"S7\366\2302\332\300\350\206\313\333\233\371\246\007"
 153      32DAC0E8 
 153      86CBDB9B 
 153      F9A607
 154 0212 F656DB48 		.ascii	"\366V\333Hps^\354#zo\214^\214\031\"\207I\323p \030\202"
 154      70735EEC 
 154      237A6F8C 
 154      5E8C1922 
 154      8749D370 
 155 0229 7AD815B0 		.ascii	"z\330\025\260E\224\033\332`\023\034\025\231q\255)9q"
 155      45941BDA 
 155      60131C15 
 155      9971AD29 
ARM GAS  C:\Users\Bruger\AppData\Local\Temp\ccTjNOWh.s 			page 12


 155      3971
 156 023b D7283A84 		.ascii	"\327(:\204\345D^\027'}\014\003\261\020\332\313v(bCP"
 156      E5445E17 
 156      277D0C03 
 156      B110DACB 
 156      76286243 
 157 0250 61D78220 		.ascii	"a\327\202 \024\033\206\244T\215*\253\331\\S\031\015"
 157      141B86A4 
 157      548D2AAB 
 157      D95C5319 
 157      0D
 158 0261 7D22AB49 		.ascii	"}\"\253I\225_\375M\370\026P\371v|!i18\216D(?\272\371"
 158      955FFD4D 
 158      F81650F9 
 158      767C2169 
 158      31388E44 
 159 0279 BD541C06 		.ascii	"\275T\034\006\335\011\3176\371)\3505\006\035\213\032"
 159      DD09CF36 
 159      F929E835 
 159      061D8B1A 
 160 0289 3536F98A 		.ascii	"56\371\212\202\204YLr\001C\301\303[&B\015 \261\246\364"
 160      8284594C 
 160      720143C1 
 160      C35B2642 
 160      0D20B1A6 
 161 029e 9DBEE796 		.ascii	"\235\276\347\226s\367R\255.\322\363mu\307\220)\264\006"
 161      73F752AD 
 161      2ED2F36D 
 161      75C79029 
 161      B406
 162 02b0 B1FD2C84 		.ascii	"\261\375,\204\300\011\221\037:Q\027\212\341\244\004"
 162      C009911F 
 162      3A51178A 
 162      E1A404
 163 02bf F71DC1EC 		.ascii	"\367\035\301\354W\250\263\207\247\363e.\013\301\003"
 163      57A8B387 
 163      A7F3652E 
 163      0BC103
 164 02ce 737361D8 		.ascii	"ssa\330\001U\201\240\035\3376\006\342\032\261\031\244"
 164      015581A0 
 164      1DDF3606 
 164      E21AB119 
 164      A4
 165 02df 44FC49F4 		.ascii	"D\374I\364/eS\211m[kG\203G\002v\017+\030\017]\3106\303"
 165      2F655389 
 165      6D5B6B47 
 165      83470276 
 165      0F2B180F 
 166 02f7 A99FBB25 		.ascii	"\251\237\273%\344b\374\314\016\017A\270\200\034h\270"
 166      E462FCCC 
 166      0E0F41B8 
 166      801C68B8 
 167 0307 B937C5B1 		.ascii	"\2717\305\261\373:A~$\210\" =\022\322\322\370\317\002"
 167      FB3A417E 
 167      24882220 
 167      3D12D2D2 
 167      F8CF02
ARM GAS  C:\Users\Bruger\AppData\Local\Temp\ccTjNOWh.s 			page 13


 168 031a 6DA2AA08 		.ascii	"m\242\252\010H\307\300\316\317\365\024d\234 \021\202"
 168      48C7C0CE 
 168      CFF51464 
 168      9C201182 
 169 032a A802724A 		.ascii	"\250\002rJB\276\213\335\210)\004\241K<Y\025kQS\220;"
 169      42BE8BDD 
 169      882904A1 
 169      4B3C5915 
 169      6B515390 
 170 033f 04394D10 		.ascii	"\0049M\020q\260pFBv\004\333G\350\336\253\232\200T\005"
 170      71B07046 
 170      427604DB 
 170      47E8DEAB 
 170      9A805405 
 171 0353 066D07F2 		.ascii	"\006m\007\362\027A~\"\210. g%dza\272\233\023D\027\220"
 171      17417E22 
 171      882E2067 
 171      25647A61 
 171      BA9B1344 
 172 0369 96FD372B 		.ascii	"\226\3757+y\012\362\200 \275\004q\011H\037B\030\373"
 172      790AF280 
 172      20BD0471 
 172      09481F42 
 172      18FB
 173 037b 03B09D0C 		.ascii	"\003\260\235\014e\356x\230c\203\250\200\307\254\263"
 173      65EE7898 
 173      6383A880 
 173      C7ACB3
 174 038a 05431986 		.ascii	"\005C\031\206@\226\330x\261W\330H\367+\243\365\035\251"
 174      4096D878 
 174      B157D848 
 174      F72BA3F5 
 174      1DA9
 175 039c 53F6C883 		.ascii	"S\366\310\203m\274\2750\256\012.\255\234\3019\314\233"
 175      6DBCBD30 
 175      AE0A2EAD 
 175      9CC139CC 
 175      9B
 176 03ad 767A1E81 		.ascii	"vz\036\201\232\251\034\252wz\303\213>D\315~:\271\315"
 176      9AA91CAA 
 176      777AC38B 
 176      3E44CD7E 
 176      3AB9CD
 177 03c0 2D5006DE 		.ascii	"-P\006\336\345\363\231(/\365\231+\275\000E\0260\261"
 177      E5F39928 
 177      2FF5992B 
 177      BD004516 
 177      30B1
 178 03d2 58800F0B 		.ascii	"X\200\017\013x\230\321'\031\357-2\372\321\267\364\371"
 178      7898D127 
 178      19EF2D32 
 178      FAD1B7F4 
 178      F9
 179 03e3 34F071BB 		.ascii	"4\360q\273\220\211\362\023\243\221\316\250\312T\321"
 179      9089F213 
 179      A391CEA8 
 179      CA54D1
ARM GAS  C:\Users\Bruger\AppData\Local\Temp\ccTjNOWh.s 			page 14


 180 03f2 86F654AA 		.ascii	"\206\366T\252,)\271\266+TcR*\033\337\255\2373seQ.3="
 180      2C29B9B6 
 180      2B546352 
 180      2A1BDFAD 
 180      9F337365 
 181 040a 972EAE68 		.ascii	"\227.\256hd\330\345\204a\232\263\207;w\371W\277\205"
 181      64D8E584 
 181      619AB387 
 181      3B77F957 
 181      BF85
 182 041c 3B278460 		.ascii	";'\204`\032\261\306\340\027X-y'\032\016\247x\263%o\""
 182      1AB1C6E0 
 182      17582D79 
 182      271A0EA7 
 182      78B3256F 
 183 0431 F4DB7629 		.ascii	"\364\333v)\241\002y\3733y\263\211\327\235\316\253\021"
 183      A10279FB 
 183      3379B389 
 183      D79DCEAB 
 183      11
 184 0442 EF54DF8B 		.ascii	"\357T\337\213\217'\216:\304\321Fg\357r$\361\205\344"
 184      8F278E3A 
 184      C4D14667 
 184      EF7224F1 
 184      85E4
 185 0454 97018D88 		.ascii	"\227\001\215\210\277@\342\213\231\3049Dl\245\023\273"
 185      BF40E28B 
 185      99C43944 
 185      6CA513BB 
 186 0464 8838F17F 		.ascii	"\2108\361\177\210/-*n\014\245\210s%\361\321\236\266"
 186      882F2D2A 
 186      6E0CA588 
 186      7325F1D1 
 186      9EB6
 187 0476 BB74298D 		.ascii	"\273t)\215\255H\034\313$\316\245W\346\263{\215\037K"
 187      AD481CCB 
 187      24CEA557 
 187      E6B37B8D 
 187      1F4B
 188 0488 D4B247BC 		.ascii	"\324\262G\274,\003\342e\021,\272\214].\303\373\352\307"
 188      2C03E265 
 188      112CBA8C 
 188      5D2EC3FB 
 188      EAC7
 189 049a 5BA97D0D 		.ascii	"[\251}\015$\270\214\221\230\261\206\212xD\256+\364\372"
 189      24B88C91 
 189      98B1868A 
 189      7844AE2B 
 189      F4FA
 190 04ac 2E27D99E 		.ascii	".'\331\236t\331 \273t(\354ti\336\177vi\236\024<\022"
 190      74D920BB 
 190      7428EC74 
 190      69DE7F76 
 190      699E143C 
 191 04c1 768E381F 		.ascii	"v\2168\037}\202\361\352\330\014\275\017\006\336\322"
 191      7D82F1EA 
 191      D80CBD0F 
ARM GAS  C:\Users\Bruger\AppData\Local\Temp\ccTjNOWh.s 			page 15


 191      06DED2
 192 04d0 C14C543E 		.ascii	"\301LT>1z\331]\347\375%/\247\232\217\364U\230\217){"
 192      317AD95D 
 192      E7FD252F 
 192      A79A8FF4 
 192      55988F29 
 193 04e5 88CAE6E2 		.ascii	"\210\312\346\342\266\343-\367\352\007Ov\341\327\357"
 193      B6E32DF7 
 193      EA074F76 
 193      E1D7EF
 194 04f4 1A7D199B 		.ascii	"\032}\031\233\326\010u\377\215\263l\363zw\034\2779\356"
 194      D60875FF 
 194      8DB36CF3 
 194      7A771CBF 
 194      39EE
 195 0506 508F58CD 		.ascii	"P\217X\315\265\256\367t\3407\337\323\025\213sd\3671"
 195      B5AEF774 
 195      E037DFD3 
 195      158B7364 
 195      F731
 196 0518 FC2F4719 		.ascii	"\374/G\031\201@\344\353>*M\374Q\030E\335\350\306\324"
 196      8140E4EB 
 196      3E2A4DFC 
 196      511845DD 
 196      E8C6D4
 197 052b 4FAC595F 		.ascii	"O\254Y_V\274\372\325\262\265\033K\326\255\177\373\215"
 197      56BCFAD5 
 197      B2B51B4B 
 197      D6AD7FFB 
 197      8D
 198 053c 92751B5E 		.ascii	"\222u\033^ZSZ\312\224\322\222u\352\207\353\327\026{"
 198      5A535ACA 
 198      94D29275 
 198      EA87EBD7 
 198      167B
 199 054e CB8ADF2F 		.ascii	"\313\212\337/\331\360Qq\331\233\357~\260\261\370_\363"
 199      D9F05171 
 199      D99BEF7E 
 199      B0B1F85F 
 199      F3
 200 055f E21DE3   		.ascii	"\342\035\343"
 201              		.text
 202              		.section	.gnu.lto_.symbol_nodes.24bf19fd,"",%progbits
 203 0000 789C6366 		.ascii	"x\234cf``\260a\200\002\246\003\014\365\014\014\023\316"
 203      6060B061 
 203      8002A603 
 203      0CF50C0C 
 203      13CE
 204 0012 3130D4D7 		.ascii	"10\324\3273\314[\300\301\300j\317\260\220\251\236\201"
 204      33CC5BC0 
 204      C1C06ACF 
 204      B090A99E 
 204      81
 205 0023 E920433D 		.ascii	"\351 C=#\2628\323!\206z&d\001\006\000\366M\020U"
 205      23B238D3 
 205      21867A26 
 205      64010600 
ARM GAS  C:\Users\Bruger\AppData\Local\Temp\ccTjNOWh.s 			page 16


 205      F64D1055 
 206              		.text
 207              		.section	.gnu.lto_.refs.24bf19fd,"",%progbits
 208 0000 789C6366 		.ascii	"x\234cf``\020`\200\000F bbd\002\021\314@\202\001\000"
 208      60601060 
 208      80004620 
 208      62626402 
 208      11CC4082 
 209 0016 02760025 		.ascii	"\002v\000%"
 210              		.text
 211              		.section	.gnu.lto_.decls.24bf19fd,"",%progbits
 212 0000 789CBD57 		.ascii	"x\234\275W{P\024\311\035\236\236\031`Y\0264\304C\263"
 212      7B5014C9 
 212      1D9E9E19 
 212      60591634 
 212      C443B3
 213 0013 B95C201A 		.ascii	"\271\\ \032\343\325\251\367\312\031/\225\344\356\312"
 213      E3D5A9F7 
 213      CA192F95 
 213      E4EECA
 214 0022 339E8922 		.ascii	"3\236\211\"\361\264\256r\331\252\015\302\236n\225<n"
 214      F1B4AE72 
 214      D9AA0DC2 
 214      9E6E953C 
 214      6E
 215 0033 5DAAE27F 		.ascii	"]\252\342\177\003\213\202\240\200\010\362\022A\036\347"
 215      038B82A0 
 215      8008F212 
 215      411EE7
 216 0042 228A2BA2 		.ascii	"\"\212+\242\362tQ\004\227\227o\005\037\350\012>\210"
 216      F2745104 
 216      97976F05 
 216      1FE80A3E 
 216      88
 217 0053 A880C801 		.ascii	"\250\200\310\001\202\220_wO\263\240X\367_\246\352\333"
 217      82905F77 
 217      4FB3A058 
 217      F75FA6EA 
 217      DB
 218 0064 99AFFBEB 		.ascii	"\231\257\373\353_\177\375\353\236\351^\201\3438\015"
 218      5F7FFDEB 
 218      9EE95E81 
 218      E3380D
 219 0073 E2B831B8 		.ascii	"\342\2701\270\346M\347\270ox\216\023\241\314\017 \000"
 219      E64DE7B8 
 219      6F788E13 
 219      A1CC0F20 
 219      00
 220 0084 2C002FC0 		.ascii	",\000/\300y\216^\270\354\001\240\013\320\013\200\246"
 220      798E5EB8 
 220      EC01A00B 
 220      D00B80A6 
 221 0094 DC9F1137 		.ascii	"\334\237\0217\351\302\365*9\206\207\374\214\343\334"
 221      E9C2F52A 
 221      398687FC 
 221      8CE3DC
 222 00a3 01F80096 		.ascii	"\001\370\000\226\"\032\363\257p\037\200\373\022\270"
ARM GAS  C:\Users\Bruger\AppData\Local\Temp\ccTjNOWh.s 			page 17


 222      221AF3AF 
 222      701F80FB 
 222      12B8
 223 00b1 2F936320 		.ascii	"/\223c \271\375Tqq\237J9\316\304\270o\212\311\342u\275"
 223      B9FD5471 
 223      719F4A39 
 223      CEC4B86F 
 223      8AC9E275 
 224 00c6 215EEF1B 		.ascii	"!^\357\033|\236\377\011\257,.n\257\220\343~\005X\016"
 224      7C9EFF09 
 224      AF2C2E6E 
 224      AF90E37E 
 224      05580E
 225 00d9 F81BE0EF 		.ascii	"\370\033\340\357\200\025\200\225\000\337W\373\344QY"
 225      80158095 
 225      00DF57FB 
 225      E45159
 226 00e8 D1F366B7 		.ascii	"\321\363f\267N\036y(\2751-O\264\245:\003U)EL\255'\007"
 226      4E1E7928 
 226      BD312D4F 
 226      B4A53A03 
 226      5529454C 
 227 00ff EB94028F 		.ascii	"\353\224\002\217\360sG\365\316\016\267\371\007$I\212"
 227      F07347F5 
 227      CE0EB7F9 
 227      0724498A 
 228 010f 96AA5B91 		.ascii	"\226\252[\221#\304\366h{\275R\230AD\341?Tlw\201\366"
 228      23C4F668 
 228      7BBD5298 
 228      4144E13F 
 228      546C7781 
 229 0124 3E4A5275 		.ascii	">JRu'c(\317\225P<\245\323\240\210\267=\220r=\320\\e"
 229      276328CF 
 229      95503CA5 
 229      D3A088B7 
 229      3D90723D 
 230 013b 1E04EAB1 		.ascii	"\036\004\352\261&\326\275-I\":\214\224\250\020\011\350"
 230      26D6BD2D 
 230      49223A8C 
 230      94A81009 
 230      E8
 231 014c 009A8F87 		.ascii	"\000\232\217\207\203[\343+Z\222\"\244\004\223\344j\363"
 231      835BE32B 
 231      5A9222A4 
 231      0493E46A 
 231      F3
 232 015d E0D07EA4 		.ascii	"\340\320~\244Ff\244\346P\021\232K\024\350 \224\034\202"
 232      4666A4E6 
 232      50119A4B 
 232      14E82094 
 232      1C82
 233 016f 12885A3B 		.ascii	"\022\210Z;r2\322\011)\347N\335\342\310\253-H\347\015"
 233      7232D209 
 233      29E74EDD 
 233      E2C8AB2D 
 233      48E70D
 234 0182 F9295EB8 		.ascii	"\371)^\270s\013t^\340\350\034\274\310Y\205\012\030\203"
ARM GAS  C:\Users\Bruger\AppData\Local\Temp\ccTjNOWh.s 			page 18


 234      730B745E 
 234      E0E81CBC 
 234      C859850A 
 234      1883
 235 0194 AD30F3DF 		.ascii	"\2550\363\337B\022\311\201\370\274\265\247r\032R\253"
 235      4212C981 
 235      F8BCB5A7 
 235      721A52AB 
 236 01a4 E72A5321 		.ascii	"\347*S!\013\203\237\241\343 N\225\024\344N\202\226\271"
 236      0B839FA1 
 236      E3204E95 
 236      14E44E82 
 236      96B9
 237 01b6 4622CC50 		.ascii	"F\"\314P1\022&d\232\370\352I\224\204Y\034\232\257F\357"
 237      31122664 
 237      9AF8EA49 
 237      9484591C 
 237      9AAF46EF 
 238 01ca 82A96360 		.ascii	"\202\251c`\0127\343P\011\270:J\306!\264Yw]\020\221Z"
 238      0A37E350 
 238      09B83A4A 
 238      C621B459 
 238      775D1091 
 239 01df A9C6414B 		.ascii	"\251\306AK\241Vnh\231\376\375\244\206\245\244\341\011"
 239      A1566E68 
 239      99FEFDA4 
 239      86A5A4E1 
 239      09
 240 01f0 6858060D 		.ascii	"hX\006\015\261\231\305\244\014\374V\265Zf\013\371t\316"
 240      B199C5A4 
 240      0CFC56B5 
 240      5A660BF9 
 240      74CE
 241 0202 BA0BB645 		.ascii	"\272\013\266E9\011E\224\334\217\035nR\012\307(i\214"
 241      39094594 
 241      DC8F1D6E 
 241      520AC728 
 241      698C
 242 0214 C98C1585 		.ascii	"\311\214\025\205\012J\022\342\006\222\234\004\033%\345"
 242      0A4A12E2 
 242      06929C04 
 242      1B25E5
 243 0223 87F20605 		.ascii	"\207\362\006\005\341\262<\351\367c:\334\204vJ\372.\366"
 243      E1B23CE9 
 243      F7633ADC 
 243      84764AFA 
 243      2EF6
 244 0235 99DC851E 		.ascii	"\231\334\205\036Bf\356\211\256oR\2409\242\250V\317Q"
 244      4266EE89 
 244      AE6F52A0 
 244      39A2A856 
 244      CF51
 245 0247 CF15E12E 		.ascii	"\317\025\341.*\324s\360\245\026\3259R\252\3243Z\370"
 245      2AD473F0 
 245      A516D539 
 245      52AAD433 
 245      5AF8
ARM GAS  C:\Users\Bruger\AppData\Local\Temp\ccTjNOWh.s 			page 19


 246 0259 E87393F4 		.ascii	"\350s\223\3649:\217\024\250\022\362\013w\234\325V0\314"
 246      393A8F14 
 246      A812F20B 
 246      779CD556 
 246      30CC
 247 026b 73E82494 		.ascii	"s\350$\224\\Es\320\031$bj\005z\031h\013P<\234YD\216"
 247      5C4573D0 
 247      1924626A 
 247      057A1968 
 247      0B503C9C 
 248 0282 9F3E204F 		.ascii	"\237> O8\242\375@\3074\011\221x\247\034\361\352\344"
 248      38A2FD40 
 248      C7340991 
 248      78A71CF1 
 248      EAE4
 249 0294 04789382 		.ascii	"\004x\223\202<)[\262\027\324\204\177\256 \272\362\361"
 249      3C295BB2 
 249      17D4847F 
 249      AE20BAF2 
 249      F1
 250 02a5 79952FE8 		.ascii	"y\225/\350\012{9\015]5\321\236+\200^\004\332@i\025\320"
 250      0A7B390D 
 250      5D35D19E 
 250      2B805E04 
 250      DA406915 
 251 02ba 2B406B64 		.ascii	"+@kd#\363HX\250\300]\236Es8n+\231\222\010IH\365\300"
 251      23F34858 
 251      A8C05D9E 
 251      4573386E 
 251      2B999208 
 252 02d2 3967D352 		.ascii	"9g\323R\017\323\202\273\204\356\310s#\022\307g\026\317"
 252      0FD382BB 
 252      84EEC873 
 252      2312C767 
 252      16CF
 253 02e4 261B45B5 		.ascii	"&\033E\265Y\242\214\364,\017\342\002\210pe\366\001\201"
 253      59A28CF4 
 253      2C0FE202 
 253      887065F6 
 253      0181
 254 02f6 0EB0DA51 		.ascii	"\016\260\332Q\327,\327\331\013r\337\221\207ou\324\332"
 254      D72CD7D9 
 254      0B72DF91 
 254      876F75D4 
 254      DA
 255 0307 E4DA6A2B 		.ascii	"\344\332j+\013[\345\250\274\306*\333X\345IGe\255\234"
 255      0B5BE5A8 
 255      BCC62ADB 
 255      58E54947 
 255      65AD9C
 256 031a B8E96C84 		.ascii	"\270\351l\204\270\317K0\364s\362\320\251g\374\003\223"
 256      B8CF4B30 
 256      F473F2D0 
 256      A967FC03 
 256      93
 257 032b 9F72B1F5 		.ascii	"\237r\261\365\204($\013d%\304\334,hr\0212\205I\357\274"
 257      8428240B 
ARM GAS  C:\Users\Bruger\AppData\Local\Temp\ccTjNOWh.s 			page 20


 257      6425C4DC 
 257      2C687211 
 257      328549EF 
 258 0340 177DE7E3 		.ascii	"\027}\347\343\032\323O\011\204\216\341j>\261\343y>b"
 258      1AD34F09 
 258      848EE16A 
 258      3EB1E379 
 258      3E62
 259 0352 AFE6E457 		.ascii	"\257\346\344W\3406\244\011\267B7!O\267\330{i}aG\370"
 259      E036A409 
 259      B7423721 
 259      4FB7D87B 
 259      697D6147 
 260 0367 BD6C83DC 		.ascii	"\275l\203\334\336p\274\227^J\366\305\341\355-\371\377"
 260      DE70BC97 
 260      5E4AF6C5 
 260      E1ED2DF9 
 260      FF
 261 0378 983AA27D 		.ascii	"\230:\242}\312\210\015\371\215o\341\210w \342uG\304"
 261      CA880DF9 
 261      8D6FE188 
 261      7720E275 
 261      47C4
 262 038a 36341E12 		.ascii	"64\036\022\355}\226\036\247\020a\277!\242\177\221\257"
 262      ED7D961E 
 262      A71061BF 
 262      21A27F91 
 262      AF
 263 039b 5FEB95D3 		.ascii	"_\353\225\323O\\H\031\376D\334E\244\260\262\264\250"
 263      4F5C4819 
 263      FE44DC45 
 263      A4B0B2B4 
 263      A8
 264 03ac 7CDACC64 		.ascii	"|\332\314d\010\213\2773\323E\344\3475\376\241\341P\007"
 264      088BBF33 
 264      D345E4E7 
 264      35FEA1E1 
 264      5007
 265 03be 9A09BFED 		.ascii	"\232\011\277\355H\244Q\253\206\316w\010\302~\232\247"
 265      48A451AB 
 265      86CE7708 
 265      C27E9AA7 
 266 03ce D3D2CE0A 		.ascii	"\323\322\316\012g\241\204\222\023fw\357\275R\266\245"
 266      67A18492 
 266      136677EF 
 266      BD52B6A5 
 267 03de 27FE7086 		.ascii	"'\376p\206\220&eGH\243c\220/\034\000\335s,Zt_\376\214"
 267      90266547 
 267      48A36390 
 267      2F1C00DD 
 267      732C5A74 
 268 03f5 A007C81B 		.ascii	"\240\007\310\033\232E\037\262T\272\216[\2426\373G,\375"
 268      9A451FB2 
 268      54BA8E5B 
 268      A236FB47 
 268      2CFD
 269 0407 C2444778 		.ascii	"\302DGx\004\016K\235\304\322Cfi\250\367l\261\253p\233"
ARM GAS  C:\Users\Bruger\AppData\Local\Temp\ccTjNOWh.s 			page 21


 269      040E4B9D 
 269      C4D24366 
 269      69A8F76C 
 269      B1AB709B 
 270 041b BAE869B9 		.ascii	"\272\350i\271bq\022\036Q2\022\3614\322\215\230\262g"
 270      6271121E 
 270      513212F1 
 270      34D28D98 
 270      B267
 271 042d E4D6A924 		.ascii	"\344\326\251$\233T=6\366\031\011\200\376;\301\322#f"
 271      9B543D36 
 271      F6190980 
 271      FE3BC1D2 
 271      2366
 272 043f A98B58B2 		.ascii	"\251\213X\262<)\356\247Y\302\353\213Z\312\311\276\373"
 272      3C29EEA7 
 272      59C2EB8B 
 272      5ACAC9BE 
 272      FB
 273 0450 40316EF3 		.ascii	"@1n\3631\315\334p\242\351\221\313\0333\367\224\330|"
 273      31CDDC70 
 273      A2E991CB 
 273      1B33F794 
 273      D87C
 274 0462 C26C0E5E 		.ascii	"\302l\016^\017\217s\023\206\251\263\212\3537\253x\301"
 274      0F8F7313 
 274      86A9B38A 
 274      EB37AB78 
 274      C1
 275 0473 241292B1 		.ascii	"$\022\222\261\343\226\344AmV\324\350\252#\245\221\261"
 275      E396E441 
 275      6D56D4E8 
 275      AA23A591 
 275      B1
 276 0484 3181B447 		.ascii	"1\201\264G\335\023\\\3660\227\275\304\245\251\311tO"
 276      DD135CF6 
 276      3097BDC4 
 276      A5A9C974 
 276      4F
 277 0495 49F639C9 		.ascii	"I\3669\311\025G)\256\335\333-\220\215.\201D\3555_\375"
 277      154729AE 
 277      DDDB2D90 
 277      8D2E8144 
 277      ED355FFD 
 278 04a9 2DA1B331 		.ascii	"-\241\2631\313\313\210(rUF\313Va3\201\212\011^\373\311"
 278      CBCB8828 
 278      725546CB 
 278      56613381 
 278      8A095EFB 
 279 04be D7779E1A 		.ascii	"\327w\236\032='_m\324\325\032Q\355\352\231@\344\222"
 279      3D275F6D 
 279      D4D51A51 
 279      EDEA9940 
 279      E492
 280 04d0 E46D84CD 		.ascii	"\344m\204\315\006=\003u\037Q\377\210<Y\033,\266\324"
 280      063D0375 
 280      1F51FF88 
ARM GAS  C:\Users\Bruger\AppData\Local\Temp\ccTjNOWh.s 			page 22


 280      3C591B2C 
 280      B6D4
 281 04e2 EC8B544C 		.ascii	"\354\213TL\024\343\024\275Q\235\272?\255\332]H\025\303"
 281      14E314BD 
 281      519DBA3F 
 281      ADDA5D48 
 281      15C3
 282 04f4 25B23F5F 		.ascii	"%\262?_\267\324\246*\300'\264I\310\016\227H^k\216U\265"
 282      B7D4A62A 
 282      C027B449 
 282      C80E9748 
 282      5E6B8E55 
 283 0509 08B46C27 		.ascii	"\010\264l'+Ko\271\377\234\016\217\307\264396\331\215"
 283      2B4B6FB9 
 283      FF9C0E8F 
 283      C7B43339 
 283      36D98D
 284 051c 4A129924 		.ascii	"J\022\231$\256(\257o\032\221\010$\255\365\266$%\225"
 284      AE28AF6F 
 284      1A910824 
 284      ADF5B624 
 284      2595
 285 052e EC62125B 		.ascii	"\354b\022[\337\0233O\313\222X\331\343\313\031\345*\322"
 285      DF13334F 
 285      CB9258D9 
 285      E3CB19E5 
 285      2AD2
 286 0540 CC09D387 		.ascii	"\314\011\323\207w*\023\020\225$3I\342\226\322R\017\""
 286      772A1310 
 286      95243349 
 286      E296D252 
 286      0F22
 287 0552 71C6B43D 		.ascii	"q\306\264=\262\371\237T\261\233)\006r\355]\210(\\05"
 287      B2F99F54 
 287      B19B2906 
 287      72ED5D88 
 287      285C3035 
 288 0566 F5C7E538 		.ascii	"\365\307\3458SI\012\223\344%\357>\350D$\012L\237\366"
 288      53490A93 
 288      E425EF3E 
 288      E844240A 
 288      4C9FF6
 289 0579 676D9507 		.ascii	"gm\225\007\031\303$\255\266\224O\210\202\314hf\375h"
 289      19C324AD 
 289      B6944F88 
 289      82CC6866 
 289      FD68
 290 058b AC6C3696 		.ascii	"\254l6\226)v\274\350m\246N\310\326\230Zb\216\361\240"
 290      2976BCE8 
 290      6DA64EC8 
 290      D6985A62 
 290      8EF1A0
 291 059e 92ED4CF2 		.ascii	"\222\355L\3620\301|\230\216\307\015\323\261\256\370"
 291      30C17C98 
 291      8EC70DD3 
 291      B1AEF8
 292 05ad DC6954B2 		.ascii	"\334iT\262c\334\355\226\236mJ\"Qaj/:qS\236\203\270\361"
ARM GAS  C:\Users\Bruger\AppData\Local\Temp\ccTjNOWh.s 			page 23


 292      63DCED96 
 292      9E6D4A22 
 292      51616A2F 
 292      3A71539E 
 293 05c4 AC1467D7 		.ascii	"\254\024g\327)\210\304\035\323+\351\003#\362\200\342"
 293      2988C41D 
 293      D32BE903 
 293      23F280E2 
 294 05d4 99E4C8BE 		.ascii	"\231\344\310\276\233\003tJ<H\224\312\244vW*\221\306"
 294      9B03744A 
 294      3C4894CA 
 294      A476572A 
 294      91C6
 295 05e6 07648F68 		.ascii	"\007d\217hp#\022|TB\027\362\257\231d/\341L\322\330>"
 295      7023127C 
 295      544217F2 
 295      AF99642F 
 295      E14CD2D8 
 296 05fb D847ED4E 		.ascii	"\330G\355N\307\324\274{\250[E%/\231d\260\375Y3\355\350"
 296      C7D4BC7B 
 296      A85B4525 
 296      2F9964B0 
 296      FD5933ED 
 297 0610 6764A55F 		.ascii	"gd\245_n\253\225g\310\304$\321O\322\342iG\236\304KK"
 297      6EAB9567 
 297      C8C424D1 
 297      4FD2E269 
 297      479EC44B 
 298 0625 8BD59D4A 		.ascii	"\213\325\235J\"\231$\2551EN\335\3171\335\326\360\254"
 298      229924AD 
 298      31454EDD 
 298      CF31DDD6 
 298      F0AC
 299 0637 53CEEE16 		.ascii	"S\316\356\026&In,m\243y\231A\026Y\343\243xy\212\266"
 299      26496E2C 
 299      6DA37999 
 299      411659E3 
 299      A378798A 
 300 064c 328935AD 		.ascii	"2\2115\255;\213\332}\013\323S\207+\216\313\035E1I\333"
 300      3B8BDA7D 
 300      0BD35387 
 300      2B8ECB1D 
 300      453149DB 
 301 0660 A99A1B2E 		.ascii	"\251\232\033.D\342\205iTZi\203,\271\313$\267.\\-\244"
 301      44E28569 
 301      545A6983 
 301      2CB9CB24 
 301      B72E5C2D 
 302 0675 5E6692F5 		.ascii	"^f\222\365Us{\227\274\232\333\307\355\0164\325\321\325"
 302      55737B97 
 302      BC9ADBC7 
 302      ED0E34D5 
 302      D1D5
 303 0687 3C8B7C6B 		.ascii	"<\213|k\302\037\336\223%\035Lr\257`\347\030\315\313"
 303      C21FDE93 
 303      251D4C72 
 303      AF60E718 
ARM GAS  C:\Users\Bruger\AppData\Local\Temp\ccTjNOWh.s 			page 24


 303      CDCB
 304 0699 2FC8A20B 		.ascii	"/\310\242\013\277\324\350B%\367\230d\364\210u\200\332"
 304      BFD4E842 
 304      25F79864 
 304      F4887580 
 304      DA
 305 06aa 25EFF5E3 		.ascii	"%\357\365\343\346\350;r\224\373L\3220\324\361\220\256"
 305      E6E83B72 
 305      94FB4CD2 
 305      30D4F190 
 305      AE
 306 06bb CB5F92B5 		.ascii	"\313_\222\265q>\361\252<G\251LR\\\331\331O\275\274M"
 306      713EF1AA 
 306      3C47A94C 
 306      525CD9D9 
 306      4FBDBC4D 
 307 06cf DEA21D59 		.ascii	"\336\242\035Y\235rGiL\222\221\325\362\324\235H~\205"
 307      9D724769 
 307      4C9291D5 
 307      F2D49D48 
 307      7E85
 308 06e1 E9B1D366 		.ascii	"\351\261\323f\263<G\351L\022\277\353\345Q\236H\336\301"
 308      B33C47E9 
 308      4C12BFEB 
 308      E5519E48 
 308      DEC1
 309 06f3 F4F8B3B8 		.ascii	"\364\370\263\270Jy\275d0Ie||-M\335\257\311jO)ZE\025"
 309      4A79BD64 
 309      3049657C 
 309      7C2D4DDD 
 309      AFC96A4F 
 310 070b 7B98821D 		.ascii	"{\230\202\035\357U\364xo\273\022\235\"\257\313L&\271"
 310      EF55F478 
 310      6FBB129D 
 310      22AFCB4C 
 310      26B9
 311 071d D49764A6 		.ascii	"\324\227d\246\022\0372\276\263'\236\312\263\270w|\212"
 311      121F32BE 
 311      B3279ECA 
 311      B3B8777C 
 311      8A
 312 072e EACA6D22 		.ascii	"\352\312m\"\221\374\006\323\233UQ\365NT\222\305$\271"
 312      91FC06D3 
 312      9B5551F5 
 312      4E5492C5 
 312      24B9
 313 0740 E96D17D0 		.ascii	"\351m\027\320\242\022):\273UD\003\310\023\177\035\207"
 313      A212293A 
 313      BB554403 
 313      C8137F1D 
 313      87
 314 0751 10DE94D1 		.ascii	"\020\336\224\321\013\270\015\003F\000/\001\243\364;"
 314      0BB80D03 
 314      46002F01 
 314      A3F43B
 315 0760 8AC60012 		.ascii	"\212\306\000\022\257F\341\200\010\200\011\020\011\330"
 315      AF46E180 
ARM GAS  C:\Users\Bruger\AppData\Local\Temp\ccTjNOWh.s 			page 25


 315      08800910 
 315      09D8
 316 076e 02D80A88 		.ascii	"\002\330\012\210\002D\003\266\001b\000\261\200\355\200"
 316      024403B6 
 316      016200B1 
 316      80ED80
 317 077d 1D803840 		.ascii	"\035\2008@< \001\260\023\220\010\330\005H\002$\003v"
 317      3C2001B0 
 317      139008D8 
 317      05480224 
 317      0376
 318 078f 035200A9 		.ascii	"\003R\000\251\2004@: \003\260\007\220\011\330\013\310"
 318      8034403A 
 318      2003B007 
 318      9009D80B 
 318      C8
 319 07a0 026403F6 		.ascii	"\002d\003\366\001r\000\271\200<@>\340\007\300~\200\031"
 319      017200B9 
 319      803C403E 
 319      E007C07E 
 319      8019
 320 07b2 50003800 		.ascii	"P\0008\000(\004\034\004\034\002\024\001\016\003,\200"
 320      28041C04 
 320      1C021401 
 320      0E032C80 
 321 07c2 238062C0 		.ascii	"#\200b\300Q@\011\340\030\3408\340\004\240"
 321      514009E0 
 321      18E038E0 
 321      04A0
 322 07d0 14500628 		.ascii	"\024P\006(\007T\360dQu\336\030.q\236\275O\262g\333\313"
 322      0754F064 
 322      5175DE18 
 322      2E719EBD 
 322      4FB267DB 
 323 07e5 4A44D8BF 		.ascii	"JD\330\277\310\316Or6H\367\257\011\273\301 \336\305"
 323      C8CE4F72 
 323      3648F7AF 
 323      09BBC120 
 323      DEC5
 324 07f7 5025BF08 		.ascii	"P%\277\010\016\246\374lh-\245\304\346)\204B\272\025"
 324      0EA6FC6C 
 324      682DA5C4 
 324      E6298442 
 324      BA15
 325 0809 5EB34645 		.ascii	"^\263FE)\004\013!\374\365\353IC\302\324\247\242S\374"
 325      29040B21 
 325      FCF5EB49 
 325      43C2D4A7 
 325      A253FC
 326 081c 54A7A2A7 		.ascii	"T\247\242\247G\354\277+\303\347\302j^\211\254\374\024"
 326      47ECBF2B 
 326      C3E7C26A 
 326      5E89ACFC 
 326      14
 327 082d 072D74EC 		.ascii	"\007-t\354\307\2302w\274\017\232~*\"\030\270r.\346\232"
 327      C7983277 
 327      BC0F9A7E 
ARM GAS  C:\Users\Bruger\AppData\Local\Temp\ccTjNOWh.s 			page 26


 327      2A2218B8 
 327      722EE69A 
 328 0841 2B35F0AA 		.ascii	"+5\360\252\374\314T\006\354\015\207=\341<[\003\275\237"
 328      FCCC5406 
 328      EC0D873D 
 328      E13C5B03 
 328      BD9F
 329 0853 74F47E9A 		.ascii	"t\364~\232wt\277\255=\275Y\245\212q\374\247#b\307>\\"
 329      7774BFAD 
 329      3DBD59A5 
 329      8A71FCA7 
 329      2362C73E 
 330 0868 CBABC816 		.ascii	"\313\253\310\026\017wP\027\034zT\244\234\244\3069u\250"
 330      0F775017 
 330      1C7A54A4 
 330      9CA4C639 
 330      75A8
 331 087a EB64751D 		.ascii	"\353du\035Q\237\212\2626*\225S$\3535\257\350,\217\377"
 331      519F8AB2 
 331      362A9553 
 331      24EB35AF 
 331      E82C8FFF 
 332 088e 0756148E 		.ascii	"\007V\024\216mU\370d\341\314\305\307\347|*%\341\003"
 332      6D55F864 
 332      E1CCC5C7 
 332      E77C2A25 
 332      E103
 333 08a0 0C395ED0 		.ascii	"\0149^\320s\206\215\367\301\031\033\215\316\021\210"
 333      73868DF7 
 333      C1191B8D 
 333      CE1188
 334 08af 2ABBD524 		.ascii	"*\273\325$9\241\311\232z\242\311I+2;S\315\255\3275\015"
 334      39A1C99A 
 334      7AA2C949 
 334      2B323B53 
 334      CDADD735 
 335 08c4 44939675 		.ascii	"D\223\226u&\312\203j:_\3274\022\2155\333\332\250\242"
 335      26CA836A 
 335      3A5FD734 
 335      128D35DB 
 335      DAA8A2
 336 08d7 9AEED735 		.ascii	"\232\356\3275MD\223\237\030\331\313SM\327\353\232f\332"
 336      4D44939F 
 336      18D9CB53 
 336      4DD7EB9A 
 336      66DA
 337 08e9 D7A1E6CB 		.ascii	"\327\241\346\313\"\325\014\277\2569\307\373p\2120}\260"
 337      22D50CBF 
 337      AE39C7FB 
 337      708A307D 
 337      B0
 338 08fa F1E38FB4 		.ascii	"\361\343\217\264F\3052\337\265\336K\336{\217Sj\265\254"
 338      46C532DF 
 338      B5DE4BDE 
 338      7B8F536A 
 338      B5AC
 339 090c 2C1C05FC 		.ascii	",\034\005\374Q\023j\010Yo\360\017\362\376N\277Q\267"
ARM GAS  C:\Users\Bruger\AppData\Local\Temp\ccTjNOWh.s 			page 27


 339      51136A08 
 339      596FF00F 
 339      F2FE4EBF 
 339      51B7
 340 091e C97BDE7F 		.ascii	"\311{\336\177\026/zW\023\2609\324\240\333\264I\023\272"
 340      162F7A57 
 340      13B039D4 
 340      A0DBB449 
 340      13BA
 341 0930 2924C03B 		.ascii	")$\300;\300\240\3637\206\0304\277_\370\301\344\002}"
 341      C0A0F337 
 341      861834BF 
 341      5FF8C1E4 
 341      027D
 342 0942 506888C1 		.ascii	"Ph\210\301\250Y\037\034\246\3617\004A\375\247\013?\306"
 342      A8591F1C 
 342      A6F13704 
 342      41FDA70B 
 342      3FC6
 343 0954 4F0B8243 		.ascii	"O\013\202C\202u\013t\376\353\364\032}p\300\306\260@"
 343      82750B74 
 343      FEEBF41A 
 343      7D70C0C6 
 343      B040
 344 0966 9D26C83F 		.ascii	"\235&\310?`\203>X\247\321\006\352\276\363\017\333h\324"
 344      60833E58 
 344      A7D106EA 
 344      BEF30FDB 
 344      68D4
 345 0978 1A3787EA 		.ascii	"\0327\207\3526-\334\300}\377\377r\260\311\030\010\243"
 345      362DDCC0 
 345      7DFFFF72 
 345      B0C91808 
 345      A3
 346 0989 861EC580 		.ascii	"\206\036\305\200\015\376\006\267?\255\013\323o4.\320"
 346      0DFE06B7 
 346      3FAD0BD3 
 346      6F342ED0 
 347 0999 07FF8553 		.ascii	"\007\377\205S\370-\367\325\256\\\365\345R\347Uk\327"
 347      F82DF7D5 
 347      AE5CF5E5 
 347      52E7556B 
 347      D7
 348 09aa F8AD5DE3 		.ascii	"\370\255]\343\264\334\027~U\344W\353\267v\305\212\265"
 348      B4DC177E 
 348      55E457EB 
 348      B776C58A 
 348      B5
 349 09bb 7E4ABFA5 		.ascii	"~J\277\245\253\227\373}\265t\365\027+<\034\217Z\320"
 349      AB97FB7D 
 349      B574F517 
 349      2B3C1C8F 
 349      5AD0
 350 09cd BB4FA0CB 		.ascii	"\273O\240\313}'\262U_z-\324\004\204\030t\357\177a\010"
 350      7D27B255 
 350      5F7A2DD4 
 350      04841874 
ARM GAS  C:\Users\Bruger\AppData\Local\Temp\ccTjNOWh.s 			page 28


 350      EF7F6108 
 351 09e1 848C8768 		.ascii	"\204\214\207h\375\364\301x\310.8\375\213\265FW:\021"
 351      FDF4C178 
 351      C82E38FD 
 351      8BB54657 
 351      3A11
 352 09f3 F0A40AD4 		.ascii	"\360\244\012\324\257\327\033\3757~c\320\033u\236\332"
 352      AFD71BFD 
 352      377E63D0 
 352      1B759EDA 
 353 0a03 6F3FFC68 		.ascii	"o?\374hbA\320\006/\034F3)L@h(\347&\253V\353\374\003"
 353      6241D006 
 353      2F1C4633 
 353      294C4068 
 353      28E726AB 
 354 0a1b A743AB0F 		.ascii	"\247C\253\017'\360 \227P}\360\312\220@\335\014\355\267"
 354      27F02097 
 354      507DF0CA 
 354      9040DD0C 
 354      EDB7
 355 0a2d 7F901F83 		.ascii	"\177\220\037\203\026\263\221zB\211oX\320:\235aM\210"
 355      16B3917A 
 355      42896F58 
 355      D03A9D61 
 355      4D88
 356 0a3f 5F0898D0 		.ascii	"_\010\230\320\031D\203n\375b'b\310g\231.Xg\3607\352"
 356      1944836E 
 356      FD622762 
 356      C867992E 
 356      5867F037 
 357 0a54 02B55F87 		.ascii	"\002\265_\207\204\031\002t\032\277\257C\226|\362~\300"
 357      84190274 
 357      1ABFAF43 
 357      967CF27E 
 357      C0
 358 0a65 66366BFF 		.ascii	"f6k\377\003/\373\341\332"
 358      032FFBE1 
 358      DA
 359              		.text
 360              		.section	.gnu.lto_.symtab.24bf19fd,"",%progbits
 361 0000 5F5A3132 		.ascii	"_Z12digitalWritemh\000\000\000\000\000\000\000\000\000"
 361      64696769 
 361      74616C57 
 361      72697465 
 361      6D680000 
 362 001b 000000E6 		.ascii	"\000\000\000\346\000\000\000pinNumberToPointer\000\000"
 362      00000070 
 362      696E4E75 
 362      6D626572 
 362      546F506F 
 363 0036 00000000 		.ascii	"\000\000\000\000\000\000\000\000\000\000=\001\000\000"
 363      00000000 
 363      00003D01 
 363      0000
 364 0044 5F5A3131 		.ascii	"_Z11digitalReadm\000\000\000\000\000\000\000\000\000"
 364      64696769 
 364      74616C52 
ARM GAS  C:\Users\Bruger\AppData\Local\Temp\ccTjNOWh.s 			page 29


 364      6561646D 
 364      00000000 
 365 005d 000000EB 		.ascii	"\000\000\000\353\000\000\000_Z7pinModem8PIN_MODE\000"
 365      0000005F 
 365      5A377069 
 365      6E4D6F64 
 365      656D3850 
 366 0079 00000000 		.ascii	"\000\000\000\000\000\000\000\000\000\000\000\361\000"
 366      00000000 
 366      000000F1 
 366      00
 367 0086 0000     		.ascii	"\000\000"
 368              		.text
 369              		.section	.gnu.lto_.opts,"",%progbits
 370 0000 272D6665 		.ascii	"'-fexceptions' '-fno-trapv' '-mcpu=cortex-m3' '-mth"
 370      78636570 
 370      74696F6E 
 370      73272027 
 370      2D666E6F 
 371 0033 756D6227 		.ascii	"umb' '-g' '-O3' '-ffunction-sections' '-finline-fun"
 371      20272D67 
 371      2720272D 
 371      4F332720 
 371      272D6666 
 372 0066 6374696F 		.ascii	"ctions' '-flto' '-ffat-lto-objects'\000"
 372      6E732720 
 372      272D666C 
 372      746F2720 
 372      272D6666 
 373              		.text
 374              		.cfi_sections	.debug_frame
 375              		.section	.text._Z12digitalWritemh,"ax",%progbits
 376              		.align	2
 377              		.global	_Z12digitalWritemh
 378              		.thumb
 379              		.thumb_func
 380              		.type	_Z12digitalWritemh, %function
 381              	_Z12digitalWritemh:
 382              		.fnstart
 383              	.LFB63:
 384              		.file 1 "core\\Arduino_Pins.cpp"
   1:core/Arduino_Pins.cpp **** /****************************************************************************
   2:core/Arduino_Pins.cpp ****  * Arduino_Pins.cpp
   3:core/Arduino_Pins.cpp ****  * Arduino Uno pin compatibility support for the PSoC5LP
   4:core/Arduino_Pins.cpp ****  * Mike Hord @ SparkFun Electronics
   5:core/Arduino_Pins.cpp ****  * 14 April 2015
   6:core/Arduino_Pins.cpp ****  *
   7:core/Arduino_Pins.cpp ****  * Implements the "standard" Arduino per-pin IO functionality on the PSoC5LP.
   8:core/Arduino_Pins.cpp ****  *
   9:core/Arduino_Pins.cpp ****  * Development environment specifics:
  10:core/Arduino_Pins.cpp ****  * Code developed in PSoC Creator 3.1
  11:core/Arduino_Pins.cpp ****  * Tested in Arduino IDE 1.6.3
  12:core/Arduino_Pins.cpp ****  *
  13:core/Arduino_Pins.cpp ****  * This code is beerware; if you see me (or any other SparkFun employee) at the
  14:core/Arduino_Pins.cpp ****  * local, and you've found our code helpful, please buy us a round!
  15:core/Arduino_Pins.cpp ****  * ****************************************************************************/
  16:core/Arduino_Pins.cpp **** 
ARM GAS  C:\Users\Bruger\AppData\Local\Temp\ccTjNOWh.s 			page 30


  17:core/Arduino_Pins.cpp **** extern "C" {
  18:core/Arduino_Pins.cpp **** #include <Project.h>
  19:core/Arduino_Pins.cpp **** }
  20:core/Arduino_Pins.cpp **** 
  21:core/Arduino_Pins.cpp **** #include <Arduino_Pins.h>
  22:core/Arduino_Pins.cpp **** 
  23:core/Arduino_Pins.cpp **** // Map the I/O pin number to the actual address of the register as defined by
  24:core/Arduino_Pins.cpp **** //  the IDE. These constants are mapped to the IDE constants in the header.
  25:core/Arduino_Pins.cpp **** uint32_t pinNumberToPointer[NUM_BASE_PINS] = 
  26:core/Arduino_Pins.cpp ****   { D0, D1, D2, D3, D4, D5, D6, D7, D8, D9, D10,D11, D12, D13, D14, D15, D16, 
  27:core/Arduino_Pins.cpp ****   D17, D18, D19, D20, D21, D23, D24, D25, D26, D27, D28, D29, D30, D31, D32, 
  28:core/Arduino_Pins.cpp ****   D33, D34, D35};
  29:core/Arduino_Pins.cpp **** 
  30:core/Arduino_Pins.cpp **** /*
  31:core/Arduino_Pins.cpp ****  * Pins descriptions
  32:core/Arduino_Pins.cpp ****  */
  33:core/Arduino_Pins.cpp **** //extern const PinDescription g_APinDescription[]=
  34:core/Arduino_Pins.cpp **** //{
  35:core/Arduino_Pins.cpp ****   // 0 .. 37 - Digital pins
  36:core/Arduino_Pins.cpp ****   // ----------------------
  37:core/Arduino_Pins.cpp ****   // 
  38:core/Arduino_Pins.cpp **** //  { PIOA, PIO_PA8A_URXD,     ID_PIOA, PIO_PERIPH_A, PIO_DEFAULT,  PIN_ATTR_DIGITAL,              
  39:core/Arduino_Pins.cpp **** //  { PIOA, PIO_PA9A_UTXD,     ID_PIOA, PIO_PERIPH_A, PIO_DEFAULT,  PIN_ATTR_DIGITAL,              
  40:core/Arduino_Pins.cpp **** //  { PIOB, PIO_PB25B_TIOA0,   ID_PIOB, PIO_PERIPH_B, PIO_DEFAULT, (PIN_ATTR_DIGITAL|PIN_ATTR_TIMER
  41:core/Arduino_Pins.cpp **** //  { PIOC, PIO_PC28B_TIOA7,   ID_PIOC, PIO_PERIPH_B, PIO_DEFAULT, (PIN_ATTR_DIGITAL|PIN_ATTR_TIMER
  42:core/Arduino_Pins.cpp **** //  { PIOC, PIO_PC26B_TIOB6,   ID_PIOC, PIO_PERIPH_B, PIO_DEFAULT, (PIN_ATTR_DIGITAL|PIN_ATTR_TIMER
  43:core/Arduino_Pins.cpp ****   
  44:core/Arduino_Pins.cpp ****   // END
  45:core/Arduino_Pins.cpp **** //  { NULL, 0, 0, PIO_NOT_A_PIN, PIO_DEFAULT, 0, NO_ADC, NO_ADC, NOT_ON_PWM, NOT_ON_TIMER }
  46:core/Arduino_Pins.cpp **** //} ;
  47:core/Arduino_Pins.cpp ****   
  48:core/Arduino_Pins.cpp **** 
  49:core/Arduino_Pins.cpp ****     
  50:core/Arduino_Pins.cpp **** /* Port of the digitalWrite function used by Arduino. Includes a check to
  51:core/Arduino_Pins.cpp ****  * ensure that the value passed is within the valid range for the aliases
  52:core/Arduino_Pins.cpp ****  * or for the registers in question. */
  53:core/Arduino_Pins.cpp **** void digitalWrite(uint32_t pin, uint8_t level)
  54:core/Arduino_Pins.cpp **** {
 385              		.loc 1 54 0
 386              		.cfi_startproc
 387              		@ args = 0, pretend = 0, frame = 0
 388              		@ frame_needed = 0, uses_anonymous_args = 0
 389              		@ link register save eliminated.
 390              	.LVL0:
  55:core/Arduino_Pins.cpp ****   if ( pin < NUM_BASE_PINS )
 391              		.loc 1 55 0
 392 0000 2328     		cmp	r0, #35
 393 0002 09D8     		bhi	.L2
  56:core/Arduino_Pins.cpp ****   {
  57:core/Arduino_Pins.cpp ****     pin = pinNumberToPointer[pin];
 394              		.loc 1 57 0
 395 0004 0B4B     		ldr	r3, .L8
  58:core/Arduino_Pins.cpp ****   }
  59:core/Arduino_Pins.cpp ****   // See the TRM for the PSoC5LP for why these numbers were chosen.
  60:core/Arduino_Pins.cpp ****   else if (pin < 0x40005000 || pin > 0x40005047)
  61:core/Arduino_Pins.cpp ****   {
  62:core/Arduino_Pins.cpp ****     return;
ARM GAS  C:\Users\Bruger\AppData\Local\Temp\ccTjNOWh.s 			page 31


  63:core/Arduino_Pins.cpp ****   }
  64:core/Arduino_Pins.cpp ****   if (level == HIGH)
 396              		.loc 1 64 0
 397 0006 0129     		cmp	r1, #1
  57:core/Arduino_Pins.cpp ****   }
 398              		.loc 1 57 0
 399 0008 53F82000 		ldr	r0, [r3, r0, lsl #2]
 400              	.LVL1:
  65:core/Arduino_Pins.cpp ****   {
  66:core/Arduino_Pins.cpp ****     CyPins_SetPin(pin);
 401              		.loc 1 66 0
 402 000c 0378     		ldrb	r3, [r0]	@ zero_extendqisi2
  64:core/Arduino_Pins.cpp ****   {
 403              		.loc 1 64 0
 404 000e 0CD0     		beq	.L7
 405              	.L5:
  67:core/Arduino_Pins.cpp ****   }
  68:core/Arduino_Pins.cpp ****   else
  69:core/Arduino_Pins.cpp ****   {
  70:core/Arduino_Pins.cpp ****     CyPins_ClearPin(pin);
 406              		.loc 1 70 0
 407 0010 03F0FE03 		and	r3, r3, #254
 408 0014 0370     		strb	r3, [r0]
 409              	.L1:
 410 0016 7047     		bx	lr
 411              	.L2:
  60:core/Arduino_Pins.cpp ****   {
 412              		.loc 1 60 0
 413 0018 00F14043 		add	r3, r0, #-1073741824
 414 001c A3F5A043 		sub	r3, r3, #20480
 415 0020 472B     		cmp	r3, #71
 416 0022 F8D8     		bhi	.L1
  64:core/Arduino_Pins.cpp ****   {
 417              		.loc 1 64 0
 418 0024 0129     		cmp	r1, #1
  66:core/Arduino_Pins.cpp ****   }
 419              		.loc 1 66 0
 420 0026 0378     		ldrb	r3, [r0]	@ zero_extendqisi2
  64:core/Arduino_Pins.cpp ****   {
 421              		.loc 1 64 0
 422 0028 F2D1     		bne	.L5
 423              	.L7:
  66:core/Arduino_Pins.cpp ****   }
 424              		.loc 1 66 0
 425 002a 43F00103 		orr	r3, r3, #1
 426 002e 0370     		strb	r3, [r0]
 427 0030 7047     		bx	lr
 428              	.L9:
 429 0032 00BF     		.align	2
 430              	.L8:
 431 0034 00000000 		.word	.LANCHOR0
 432              		.cfi_endproc
 433              	.LFE63:
 434              		.cantunwind
 435              		.fnend
 436              		.size	_Z12digitalWritemh, .-_Z12digitalWritemh
 437              		.section	.text._Z11digitalReadm,"ax",%progbits
ARM GAS  C:\Users\Bruger\AppData\Local\Temp\ccTjNOWh.s 			page 32


 438              		.align	2
 439              		.global	_Z11digitalReadm
 440              		.thumb
 441              		.thumb_func
 442              		.type	_Z11digitalReadm, %function
 443              	_Z11digitalReadm:
 444              		.fnstart
 445              	.LFB64:
  71:core/Arduino_Pins.cpp ****   }
  72:core/Arduino_Pins.cpp **** }
  73:core/Arduino_Pins.cpp ****     
  74:core/Arduino_Pins.cpp **** // See digitalWrite for explanation.
  75:core/Arduino_Pins.cpp **** uint8_t digitalRead(uint32_t pin)
  76:core/Arduino_Pins.cpp **** {
 446              		.loc 1 76 0
 447              		.cfi_startproc
 448              		@ args = 0, pretend = 0, frame = 0
 449              		@ frame_needed = 0, uses_anonymous_args = 0
 450              		@ link register save eliminated.
 451              	.LVL2:
  77:core/Arduino_Pins.cpp ****   if ( pin < NUM_BASE_PINS )
 452              		.loc 1 77 0
 453 0000 2328     		cmp	r0, #35
 454 0002 07D8     		bhi	.L11
  78:core/Arduino_Pins.cpp ****   {
  79:core/Arduino_Pins.cpp ****     pin = pinNumberToPointer[pin];
 455              		.loc 1 79 0
 456 0004 074B     		ldr	r3, .L15
 457 0006 53F82000 		ldr	r0, [r3, r0, lsl #2]
 458              	.LVL3:
 459              	.L12:
  80:core/Arduino_Pins.cpp ****   }
  81:core/Arduino_Pins.cpp ****   else if (pin < 0x40005000 || pin > 0x40005047)
  82:core/Arduino_Pins.cpp ****   {
  83:core/Arduino_Pins.cpp ****     return 0;
  84:core/Arduino_Pins.cpp ****   }
  85:core/Arduino_Pins.cpp ****   return CyPins_ReadPin(pin);
 460              		.loc 1 85 0
 461 000a 0078     		ldrb	r0, [r0]	@ zero_extendqisi2
 462              	.LVL4:
 463 000c 00F01000 		and	r0, r0, #16
 464 0010 C0B2     		uxtb	r0, r0
 465 0012 7047     		bx	lr
 466              	.LVL5:
 467              	.L11:
  81:core/Arduino_Pins.cpp ****   {
 468              		.loc 1 81 0
 469 0014 00F14043 		add	r3, r0, #-1073741824
 470 0018 A3F5A043 		sub	r3, r3, #20480
 471 001c 472B     		cmp	r3, #71
 472 001e F4D9     		bls	.L12
  83:core/Arduino_Pins.cpp ****   }
 473              		.loc 1 83 0
 474 0020 0020     		movs	r0, #0
 475              	.LVL6:
  86:core/Arduino_Pins.cpp **** }
 476              		.loc 1 86 0
ARM GAS  C:\Users\Bruger\AppData\Local\Temp\ccTjNOWh.s 			page 33


 477 0022 7047     		bx	lr
 478              	.L16:
 479              		.align	2
 480              	.L15:
 481 0024 00000000 		.word	.LANCHOR0
 482              		.cfi_endproc
 483              	.LFE64:
 484              		.cantunwind
 485              		.fnend
 486              		.size	_Z11digitalReadm, .-_Z11digitalReadm
 487              		.section	.text._Z7pinModem8PIN_MODE,"ax",%progbits
 488              		.align	2
 489              		.global	_Z7pinModem8PIN_MODE
 490              		.thumb
 491              		.thumb_func
 492              		.type	_Z7pinModem8PIN_MODE, %function
 493              	_Z7pinModem8PIN_MODE:
 494              		.fnstart
 495              	.LFB65:
  87:core/Arduino_Pins.cpp **** 
  88:core/Arduino_Pins.cpp **** /* A little more advanced than pinMode for the Arduino, as it needs to handle
  89:core/Arduino_Pins.cpp ****  *  the case where we want to bypass the normal IO circuitry and attach the
  90:core/Arduino_Pins.cpp ****  *  pin to the peripheral bus. */
  91:core/Arduino_Pins.cpp **** void pinMode(uint32_t pin, enum PIN_MODE mode)
  92:core/Arduino_Pins.cpp **** {
 496              		.loc 1 92 0
 497              		.cfi_startproc
 498              		@ args = 0, pretend = 0, frame = 0
 499              		@ frame_needed = 0, uses_anonymous_args = 0
 500              		@ link register save eliminated.
 501              	.LVL7:
 502              	.LBB2:
  93:core/Arduino_Pins.cpp ****   if ( pin < NUM_BASE_PINS )
 503              		.loc 1 93 0
 504 0000 2328     		cmp	r0, #35
 505 0002 0CD8     		bhi	.L18
  94:core/Arduino_Pins.cpp ****   {
  95:core/Arduino_Pins.cpp ****     pin = pinNumberToPointer[pin];
 506              		.loc 1 95 0
 507 0004 1C4B     		ldr	r3, .L31
 508 0006 53F82000 		ldr	r0, [r3, r0, lsl #2]
 509              	.LVL8:
 510              	.L19:
  96:core/Arduino_Pins.cpp ****   }
  97:core/Arduino_Pins.cpp ****   else if (pin < 0x40005000 || pin > 0x40005047)
  98:core/Arduino_Pins.cpp ****   {
  99:core/Arduino_Pins.cpp ****     return;
 100:core/Arduino_Pins.cpp ****   }
 101:core/Arduino_Pins.cpp ****   uint8_t registerValue = *(reg8*)(pin);
 511              		.loc 1 101 0
 512 000a 0378     		ldrb	r3, [r0]	@ zero_extendqisi2
 513 000c DBB2     		uxtb	r3, r3
 514              	.LVL9:
 102:core/Arduino_Pins.cpp ****   switch(mode)
 515              		.loc 1 102 0
 516 000e 0629     		cmp	r1, #6
 517 0010 2CD8     		bhi	.L21
ARM GAS  C:\Users\Bruger\AppData\Local\Temp\ccTjNOWh.s 			page 34


 518 0012 DFE801F0 		tbb	[pc, r1]
 519              	.L23:
 520 0016 13       		.byte	(.L22-.L23)/2
 521 0017 2B       		.byte	(.L21-.L23)/2
 522 0018 19       		.byte	(.L24-.L23)/2
 523 0019 1F       		.byte	(.L25-.L23)/2
 524 001a 23       		.byte	(.L26-.L23)/2
 525 001b 27       		.byte	(.L27-.L23)/2
 526 001c 0B       		.byte	(.L28-.L23)/2
 527              	.LVL10:
 528 001d 00       		.p2align 1
 529              	.L18:
  97:core/Arduino_Pins.cpp ****   {
 530              		.loc 1 97 0
 531 001e 00F14043 		add	r3, r0, #-1073741824
 532 0022 A3F5A043 		sub	r3, r3, #20480
 533 0026 472B     		cmp	r3, #71
 534 0028 EFD9     		bls	.L19
 535 002a 7047     		bx	lr
 536              	.LVL11:
 537              	.L28:
 103:core/Arduino_Pins.cpp ****   {
 104:core/Arduino_Pins.cpp ****       case OUTPUT:
 105:core/Arduino_Pins.cpp ****         registerValue &= PIN_DISABLE_BYPASS;
 106:core/Arduino_Pins.cpp ****         registerValue |= PIN_DM_STRONG;
 107:core/Arduino_Pins.cpp ****       break;
 108:core/Arduino_Pins.cpp ****       case INPUT_PULLUP:
 109:core/Arduino_Pins.cpp ****         registerValue &= PIN_DISABLE_BYPASS;
 110:core/Arduino_Pins.cpp ****         registerValue |= PIN_DM_RES_UP;
 111:core/Arduino_Pins.cpp ****       break;
 112:core/Arduino_Pins.cpp ****       case PERIPHERAL:
 113:core/Arduino_Pins.cpp ****         registerValue |= PIN_ENABLE_BYPASS;
 114:core/Arduino_Pins.cpp ****       break;
 115:core/Arduino_Pins.cpp ****       case PERIPHERAL_IN:
 116:core/Arduino_Pins.cpp ****         registerValue |= PIN_ENABLE_BYPASS;
 117:core/Arduino_Pins.cpp ****         registerValue |= PIN_DM_DIG_HIZ;
 118:core/Arduino_Pins.cpp ****       break;
 119:core/Arduino_Pins.cpp ****       case PERIPHERAL_OUT:
 120:core/Arduino_Pins.cpp ****         registerValue |= PIN_ENABLE_BYPASS;
 121:core/Arduino_Pins.cpp ****         registerValue |= PIN_DM_STRONG;
 122:core/Arduino_Pins.cpp ****       break;
 123:core/Arduino_Pins.cpp ****       case PERIPHERAL_OD:
 124:core/Arduino_Pins.cpp ****         registerValue |= PIN_ENABLE_BYPASS;
 125:core/Arduino_Pins.cpp ****         registerValue |= PIN_DM_OD_LO;
 126:core/Arduino_Pins.cpp ****         CyPins_SetPin(pin);
 538              		.loc 1 126 0
 539 002c 0278     		ldrb	r2, [r0]	@ zero_extendqisi2
 125:core/Arduino_Pins.cpp ****         CyPins_SetPin(pin);
 540              		.loc 1 125 0
 541 002e 43F08803 		orr	r3, r3, #136
 542              	.LVL12:
 543              		.loc 1 126 0
 544 0032 42F00102 		orr	r2, r2, #1
 545 0036 0270     		strb	r2, [r0]
 127:core/Arduino_Pins.cpp ****       break;
 128:core/Arduino_Pins.cpp ****       case INPUT:
 129:core/Arduino_Pins.cpp ****       default:
ARM GAS  C:\Users\Bruger\AppData\Local\Temp\ccTjNOWh.s 			page 35


 130:core/Arduino_Pins.cpp ****         registerValue &= PIN_DISABLE_BYPASS;
 131:core/Arduino_Pins.cpp ****         registerValue |= PIN_DM_DIG_HIZ;
 132:core/Arduino_Pins.cpp ****       break; 
 133:core/Arduino_Pins.cpp ****   }
 134:core/Arduino_Pins.cpp ****   *(reg8*)(pin) = registerValue;
 546              		.loc 1 134 0
 547 0038 0370     		strb	r3, [r0]
 548              	.L30:
 549 003a 7047     		bx	lr
 550              	.L22:
 105:core/Arduino_Pins.cpp ****         registerValue |= PIN_DM_STRONG;
 551              		.loc 1 105 0
 552 003c 03F07F03 		and	r3, r3, #127
 553              	.LVL13:
 106:core/Arduino_Pins.cpp ****       break;
 554              		.loc 1 106 0
 555 0040 43F00C03 		orr	r3, r3, #12
 556              	.LVL14:
 557              		.loc 1 134 0
 558 0044 0370     		strb	r3, [r0]
 559 0046 F8E7     		b	.L30
 560              	.L24:
 109:core/Arduino_Pins.cpp ****         registerValue |= PIN_DM_RES_UP;
 561              		.loc 1 109 0
 562 0048 03F07F03 		and	r3, r3, #127
 563              	.LVL15:
 110:core/Arduino_Pins.cpp ****       break;
 564              		.loc 1 110 0
 565 004c 43F00403 		orr	r3, r3, #4
 566              	.LVL16:
 567              		.loc 1 134 0
 568 0050 0370     		strb	r3, [r0]
 569 0052 F2E7     		b	.L30
 570              	.L25:
 113:core/Arduino_Pins.cpp ****       break;
 571              		.loc 1 113 0
 572 0054 43F08003 		orr	r3, r3, #128
 573              	.LVL17:
 574              		.loc 1 134 0
 575 0058 0370     		strb	r3, [r0]
 576 005a EEE7     		b	.L30
 577              	.L26:
 578              	.LVL18:
 121:core/Arduino_Pins.cpp ****       break;
 579              		.loc 1 121 0
 580 005c 43F08C03 		orr	r3, r3, #140
 581              	.LVL19:
 582              		.loc 1 134 0
 583 0060 0370     		strb	r3, [r0]
 584 0062 EAE7     		b	.L30
 585              	.L27:
 586              	.LVL20:
 117:core/Arduino_Pins.cpp ****       break;
 587              		.loc 1 117 0
 588 0064 43F08203 		orr	r3, r3, #130
 589              	.LVL21:
 590              		.loc 1 134 0
ARM GAS  C:\Users\Bruger\AppData\Local\Temp\ccTjNOWh.s 			page 36


 591 0068 0370     		strb	r3, [r0]
 592 006a E6E7     		b	.L30
 593              	.L21:
 130:core/Arduino_Pins.cpp ****         registerValue |= PIN_DM_DIG_HIZ;
 594              		.loc 1 130 0
 595 006c 03F07F03 		and	r3, r3, #127
 596              	.LVL22:
 131:core/Arduino_Pins.cpp ****       break; 
 597              		.loc 1 131 0
 598 0070 43F00203 		orr	r3, r3, #2
 599              	.LVL23:
 600              		.loc 1 134 0
 601 0074 0370     		strb	r3, [r0]
 602 0076 E0E7     		b	.L30
 603              	.L32:
 604              		.align	2
 605              	.L31:
 606 0078 00000000 		.word	.LANCHOR0
 607              	.LBE2:
 608              		.cfi_endproc
 609              	.LFE65:
 610              		.cantunwind
 611              		.fnend
 612              		.size	_Z7pinModem8PIN_MODE, .-_Z7pinModem8PIN_MODE
 613              		.global	pinNumberToPointer
 614              		.data
 615              		.align	2
 616              		.set	.LANCHOR0,. + 0
 617              		.type	pinNumberToPointer, %object
 618              		.size	pinNumberToPointer, 144
 619              	pinNumberToPointer:
 620 0000 10500040 		.word	1073762320
 621 0004 11500040 		.word	1073762321
 622 0008 12500040 		.word	1073762322
 623 000c 13500040 		.word	1073762323
 624 0010 14500040 		.word	1073762324
 625 0014 15500040 		.word	1073762325
 626 0018 16500040 		.word	1073762326
 627 001c 17500040 		.word	1073762327
 628 0020 0A500040 		.word	1073762314
 629 0024 0B500040 		.word	1073762315
 630 0028 0C500040 		.word	1073762316
 631 002c 0D500040 		.word	1073762317
 632 0030 0E500040 		.word	1073762318
 633 0034 0F500040 		.word	1073762319
 634 0038 00500040 		.word	1073762304
 635 003c 01500040 		.word	1073762305
 636 0040 7D500040 		.word	1073762429
 637 0044 03500040 		.word	1073762307
 638 0048 04500040 		.word	1073762308
 639 004c 05500040 		.word	1073762309
 640 0050 06500040 		.word	1073762310
 641 0054 07500040 		.word	1073762311
 642 0058 61500040 		.word	1073762401
 643 005c 62500040 		.word	1073762402
 644 0060 63500040 		.word	1073762403
 645 0064 64500040 		.word	1073762404
ARM GAS  C:\Users\Bruger\AppData\Local\Temp\ccTjNOWh.s 			page 37


 646 0068 65500040 		.word	1073762405
 647 006c 18500040 		.word	1073762328
 648 0070 19500040 		.word	1073762329
 649 0074 1A500040 		.word	1073762330
 650 0078 1B500040 		.word	1073762331
 651 007c 1C500040 		.word	1073762332
 652 0080 1D500040 		.word	1073762333
 653 0084 1E500040 		.word	1073762334
 654 0088 1F500040 		.word	1073762335
 655 008c 00000000 		.space	4
 656              		.text
 657              	.Letext0:
 658              		.file 2 "c:\\program files (x86)\\cypress\\psoc creator\\4.0\\psoc creator\\import\\gnu\\arm\\4.9.
 659              		.file 3 "c:\\program files (x86)\\cypress\\psoc creator\\4.0\\psoc creator\\import\\gnu\\arm\\4.9.
 660              		.file 4 "Generated_Source\\PSoC5/cytypes.h"
 661              		.file 5 ".\\core/Arduino_Pins.h"
 662              		.file 6 "Generated_Source\\PSoC5/core_cm3.h"