ARM GAS  C:\Users\Bruger\AppData\Local\Temp\ccClXZPD.s 			page 1


   1              		.syntax unified
   2              		.cpu cortex-m3
   3              		.fpu softvfp
   4              		.eabi_attribute 20, 1
   5              		.eabi_attribute 21, 1
   6              		.eabi_attribute 23, 3
   7              		.eabi_attribute 24, 1
   8              		.eabi_attribute 25, 1
   9              		.eabi_attribute 26, 1
  10              		.eabi_attribute 30, 2
  11              		.eabi_attribute 34, 1
  12              		.eabi_attribute 18, 4
  13              		.thumb
  14              		.file	"Arduino_Advanced_IO.cpp"
  15              		.text
  16              	.Ltext0:
  17              		.section	.gnu.lto_.profile.24bf7944,"",%progbits
  18 0000 789C6366 		.ascii	"x\234cf```c\200\000F\206}\314\223\030\001\004\310\001"
  18      60606063 
  18      80004686 
  18      7DCC9318 
  18      0104C801 
  19 0014 5F       		.ascii	"_"
  20              		.text
  21              		.section	.gnu.lto_.jmpfuncs.24bf7944,"",%progbits
  22 0000 789C6366 		.ascii	"x\234cf\300\016\376@if\006fFFF\366\372\372z\006F \027"
  22      C00EFE40 
  22      69660666 
  22      464646F6 
  22      FAFA7A06 
  23 0017 84199880 		.ascii	"\204\031\230\200\350#\023\343\305Y\313\232\371_0\375"
  23      E82313E3 
  23      C559CB9A 
  23      F95F30FD 
  24 0027 64028A32 		.ascii	"d\002\2122.g\224b`d\001*e\344\007\252\255gb\200(F\242"
  24      2E679462 
  24      6064012A 
  24      65E407AA 
  24      AD676280 
  25 003e 415AEE3F 		.ascii	"AZ\356?9\177\221\003\244\005(\304\270\002\250\005\335"
  25      397F9103 
  25      A40528C4 
  25      B802A805 
  25      DD
  26 004f 2846A051 		.ascii	"(F\240Q+!\342\030\372\341\032`*PL\004\251[\005S\000"
  26      2B21E218 
  26      FAE11A60 
  26      2A504C04 
  26      A95B0553 
  27 0064 66C01C8E 		.ascii	"f\300\034\216n\026\252\261HBL\010\003@\336a\000\000"
  27      6E16AAB1 
  27      48424C08 
  27      0340DE61 
  27      0000
  28 0076 9AD624DB 		.ascii	"\232\326$\333"
  29              		.text
  30              		.section	.gnu.lto_.inline.24bf7944,"",%progbits
ARM GAS  C:\Users\Bruger\AppData\Local\Temp\ccClXZPD.s 			page 2


  31 0000 789C954F 		.ascii	"x\234\225O1\012\302@\020\234\335\\\216@\014HJ\025\002"
  31      310AC240 
  31      109CDD5C 
  31      8E400C48 
  31      4A1502
  32 0013 F9868D8D 		.ascii	"\371\206\215\215m\336\021\177\023\260\262P\254\264\260"
  32      6DDE117F 
  32      13B0B250 
  32      ACB4B0
  33 0022 4B671715 		.ascii	"Kg\027\0254\317\210]\272hi\347\335\0055\212\001=Xfn"
  33      34CF885D 
  33      BA6869E7 
  33      DD05358A 
  33      013D5866 
  34 0037 67F766CE 		.ascii	"g\367f\316\302\367\263\245\032-`\260\261\210\240\356"
  34      C2F7B3A5 
  34      1A2D60B0 
  34      B188A0EE 
  35 0047 DC5DCD1C 		.ascii	"\334]\315\034\310e\300ZaW\313\035\245\024\336\213_$"
  35      C865C05A 
  35      6157CB1D 
  35      A514DE8B 
  35      5F24
  36 0059 BBF41415 		.ascii	"\273\364\024\025I\"\265\272\303Q\220\344\370\312t\232"
  36      4922B5BA 
  36      C35190E4 
  36      F8CA749A 
  37 0069 97A928F9 		.ascii	"\227\251(\371\306\254\246\327\324\003O\014h\003\322"
  37      C6ACA6D7 
  37      D4034F0C 
  37      6803D2
  38 0078 9BAA2C55 		.ascii	"\233\252,U\266z\300X\211e0\202\237e\322\201_\034X\240"
  38      B67AC058 
  38      89653082 
  38      9F65D281 
  38      5F1C58A0 
  39 008c B672C0B9 		.ascii	"\266r\300\271\227D\206Q\356\265u\222>\232D\200\253\320"
  39      97448651 
  39      EEB57592 
  39      3E9A4480 
  39      ABD0
  40 009e CC085015 		.ascii	"\314\010P\025\266u\316c4H\375\213\0072\206{A6\307m\351"
  40      B675CE63 
  40      3448FD8B 
  40      0732867B 
  40      4136C76D 
  41 00b3 3F934F75 		.ascii	"?\223Ou\362E\372g\362\032\177\313k\360=%\356<\034?U"
  41      F245FA67 
  41      F21A7FCB 
  41      6BF03D25 
  41      EE3C1C3F 
  42              		.text
  43              		.section	.gnu.lto_.pureconst.24bf7944,"",%progbits
  44 0000 789C6366 		.ascii	"x\234cf```g\200\000f\006\013F\011&\011\000\002J\000"
  44      60606067 
  44      80006606 
  44      0B460926 
ARM GAS  C:\Users\Bruger\AppData\Local\Temp\ccClXZPD.s 			page 3


  44      0900024A 
  45 0015 79       		.ascii	"y"
  46              		.text
  47              		.section	.gnu.lto__Z7pulseInhhm.24bf7944,"",%progbits
  48 0000 789C7552 		.ascii	"x\234uR]H\024Q\030\275\337\2753\263\263\263+\256\211"
  48      5D481451 
  48      18BDDFBD 
  48      33B3B3B3 
  48      2BAE89
  49 0013 691B8160 		.ascii	"i\033\201`\"E\365\320s\017\372VO=\364\026\201\310\272"
  49      2245F5D0 
  49      730FFA56 
  49      4F3DF416 
  49      81C8BA
  50 0026 8164EE26 		.ascii	"\201d\356&\253o\342\350\256\345\203E\364\003&\024\226"
  50      AB6FE2E8 
  50      AEE58345 
  50      F4032614 
  50      96
  51 0037 9465A5A5 		.ascii	"\224e\245\245f\371\023l\206\031\375\370C\350\246\225"
  51      66F9136C 
  51      8619FDF8 
  51      43E8A695 
  52 0047 4AB8A211 		.ascii	"J\270\242\021\244\254 K\326\366}3\273\221\332\016;;"
  52      A4AC204B 
  52      D6F67D33 
  52      BB91DA0E 
  52      3B3B
  53 0059 F77EDF39 		.ascii	"\367~\3379\347\236s\357\025l\353S\217\357~\211\261C"
  53      E79E73EF 
  53      156CEB53 
  53      8FEF7E89 
  53      B143
  54 006b F8051B03 		.ascii	"\370\005\033\003~q\204\261\032\225\203d\016\004W\007"
  54      7E7184B1 
  54      1A958364 
  54      0E045707 
  55 007b 05D3356D 		.ascii	"\005\3235m\344\015c\272]3\353\005\022\027FA\223\251"
  55      E40D63BA 
  55      5D33EB05 
  55      12174641 
  55      93A9
  56 008d 6B974131 		.ascii	"k\227A1\341\012\2676\014S\335\022\260`\335j\326\013"
  56      E10AB736 
  56      0C53DD12 
  56      B060DD6A 
  56      D60B
  57 009f 2CA09A7D 		.ascii	",\240\232}\025\200\006\014X5\027\232$+V\213\012\325"
  57      1580060C 
  57      5835179A 
  57      242B568B 
  57      0AD5
  58 00b1 4232CD28 		.ascii	"B2\315(\346g\211\257p\350m_}o[\344Q\316\262\031N\373"
  58      E66789AF 
  58      70E86D5F 
  58      7D6F5BE4 
  58      51CEB219 
ARM GAS  C:\Users\Bruger\AppData\Local\Temp\ccClXZPD.s 			page 4


  59 00c7 2EBD6E54 		.ascii	".\275nTh\012\022MC\223\215!k\336m]\257]\276\365r\326"
  59      680A124D 
  59      43938D21 
  59      6BDE6D5D 
  59      AF5DBEF5 
  60 00dd 5E7738CA 		.ascii	"^w8\3129\213p\006\255\340\204\273\340\244%\356A\036"
  60      398B7006 
  60      ADE084BB 
  60      E0A425EE 
  60      411E
  61 00ef 22C7DAA2 		.ascii	"\"\307\332\242\335\212\310\006b\255\017,\325I\271-\310"
  61      DD8AC806 
  61      62AD0F2C 
  61      D549B92D 
  61      C8
  62 0100 0AF6B5EB 		.ascii	"\012\366\265\353\371\020\345\002\332@\020o\237\023\366"
  62      F910E502 
  62      DA40106F 
  62      9F13F6
  63 010f 38191618 		.ascii	"8\031\026\030\334\207\\\304.\316\325\257r\261\333\340"
  63      DC875CC4 
  63      2ECED5AF 
  63      72B1DBE0 
  64 011f BDBD3AD6 		.ascii	"\275\275:\326c7y\243\011\336\203-\274\207\006\257\365"
  64      633779A3 
  64      09DE832D 
  64      BC8706AF 
  64      F5
  65 0130 F2D76F20 		.ascii	"\362\327o \366\032\274\210\177\250+\276\336\217N=_B"
  65      F61ABC88 
  65      7FA82BBE 
  65      DE8F4E3D 
  65      5F42
  66 0142 93D06EF2 		.ascii	"\223\320n\362\022>\3117t@.\301W\002\277B6%\240\353\272"
  66      123EC937 
  66      74402EC1 
  66      5702BF42 
  66      3625A0EB 
  67 0157 83B26084 		.ascii	"\203\262`\204G\240\000~\260\327\362\345Z\243M\0344d"
  67      47A0007E 
  67      B0D7F2E5 
  67      5AA34D1C 
  67      3464
  68 0169 039FA69A 		.ascii	"\003\237\246\232\344\234\233(;w}\2408\030h\326\177\307"
  68      E49C9B28 
  68      3B777DA0 
  68      381868D6 
  68      7FC7
  69 017b 6240E28F 		.ascii	"b@\342\2177\212\233\017tBN\307\266\240\036\213E\316"
  69      378A9B0F 
  69      74424EC7 
  69      B6A01E8B 
  69      45CE
  70 018d BF38BE03 		.ascii	"\2778\276\003hM\031(\246\202CI3\000v\034\312)@!R\251"
  70      684D1928 
  70      A6824349 
  70      3300761C 
ARM GAS  C:\Users\Bruger\AppData\Local\Temp\ccClXZPD.s 			page 5


  70      CA294021 
  71 01a3 EAA0BF34 		.ascii	"\352\240\2774 k\351\006 \203\000\231T\3152L\263y|\227"
  71      206BE906 
  71      20830099 
  71      54CD324C 
  71      B3797C97 
  72 01b7 1516C6F1 		.ascii	"\025\026\306\361\262\"\246\241v\346\334\302\212\274"
  72      B222A6A1 
  72      76E6DCC2 
  72      8ABC
  73 01c5 3106118D 		.ascii	"1\006\021\215\024\350\242\013\2245\216?\231}\206:\375"
  73      14E8A20B 
  73      94358E3F 
  73      997D863A 
  73      FD
  74 01d6 0CCD29CC 		.ascii	"\014\315)\314\215\017\027\332y\325O\275^W\243\\\211"
  74      8D0F17DA 
  74      79D54FBD 
  74      5E57A35C 
  74      89
  75 01e7 70CADB0D 		.ascii	"p\312\333\015U\014\261\330\035o\272\343O\245c\267\000"
  75      550CB1D8 
  75      1D6FBAE3 
  75      4FA563B7 
  75      00
  76 01f8 8327E08C 		.ascii	"\203'\340\214r\025\351\376`\377w0\005\265\315\022\326"
  76      7215E9FE 
  76      60FF7730 
  76      05B5CD12 
  76      D6
  77 0209 0899831E 		.ascii	"\010\231\203\036\224\210r\215M\002' \031A0\356F\030"
  77      9488728D 
  77      4D022720 
  77      194130EE 
  77      4618
  78 021b 8F0AAFAE 		.ascii	"\217\012\257\256 \225q\237)\222\232D\344i\\d\032\374"
  78      2095719F 
  78      29929A44 
  78      E4695C64 
  78      1AFC
  79 022d 57CEAE72 		.ascii	"W\316\256r\023\354@<IM@`\324\177\362o-\315\330\353y"
  79      13EC403C 
  79      494D4060 
  79      D47FF26F 
  79      2DCDD8EB 
  80 0242 6C340F33 		.ascii	"l4\0173\010s\211\341E\307U\002\301\347\011\257\366\315"
  80      087389E1 
  80      45C75502 
  80      C1E709AF 
  80      F6CD
  81 0254 CBD82268 		.ascii	"\313\330\"h\206\30133n\224\333It\312\277=\016_\343)"
  81      86C13333 
  81      6E94DB49 
  81      74CABF3D 
  81      0E5FE329 
  82 0268 866818F7 		.ascii	"\206h\030\367lP\030\216'\026\343Z\351I,\367\376/w\272"
  82      6C50188E 
ARM GAS  C:\Users\Bruger\AppData\Local\Temp\ccClXZPD.s 			page 6


  82      2716E35A 
  82      E9492CF7 
  82      FE2F77BA 
  83 027c 21A2B0FA 		.ascii	"!\242\260\372<\303P(a(#\211\241\276\015\206>&\014\245"
  83      3CC35028 
  83      61282389 
  83      A1BE0D86 
  83      3E260CA5 
  84 0290 20239ED2 		.ascii	" #\236\322\312^\345`HK\302\327\224\327\204d&\261\325"
  84      CA5EE560 
  84      484BC2D7 
  84      94D78464 
  84      26B1D5
  85 02a3 FFEF4EAE 		.ascii	"\377\357N\256\307w2\013\361\011s*]\242\031\250q\340"
  85      C777320B 
  85      F109732A 
  85      5DA219A8 
  85      71E0
  86 02b5 C2780516 		.ascii	"\302x\005\026\200.\375\354\374\350\270J\247O\022\003"
  86      802EFDEC 
  86      FCE8B84A 
  86      A74F1203 
  87 02c5 E0140D43 		.ascii	"\340\024\015C;\221fy\027\266\241\007@\0126v\271<\345"
  87      3B916679 
  87      17B6A107 
  87      400A3676 
  87      B93CE5
  88 02d8 EE1305E5 		.ascii	"\356\023\005\345\305\025%e\236\302\202\342\312\2422"
  88      C5152565 
  88      9EC282E2 
  88      CAA232
  89 02e7 97BBB8F0 		.ascii	"\227\273\270\360\310\321\003.\257\227\011oI\231\\\352"
  89      C8D1032E 
  89      AF97096F 
  89      49995CEA 
  90 02f7 AE74975A 		.ascii	"\256t\227Z|%\247\335\236\012\237\346*\365\270N\035\363"
  90      7C25A7DD 
  90      9E0A9FE6 
  90      2AF5B84E 
  90      1DF3
  91 0309 1595FBFE 		.ascii	"\025\225\373\376\000!\002\210e"
  91      00210288 
  91      65
  92              		.text
  93              		.section	.gnu.lto__Z8shiftOuthhhh.24bf7944,"",%progbits
  94 0000 789C8D55 		.ascii	"x\234\215U[O\\U\024\336k\357\2319g\356\224\326\204\216"
  94      5B4F5C55 
  94      14DE6BEF 
  94      993967EE 
  94      94D6848E 
  95 0014 452E2397 		.ascii	"E.#\227\011\226\340\233\361\251<\372T\177@\223\006g"
  95      0996E09B 
  95      F1A93CFA 
  95      547F4093 
  95      0667
  96 0026 782036D0 		.ascii	"x 6\320\220\226\027Cz\230\341R_L\245\022/A\2021U)\312"
  96      90961743 
ARM GAS  C:\Users\Bruger\AppData\Local\Temp\ccClXZPD.s 			page 7


  96      7A98E152 
  96      5F4CA512 
  96      2F418231 
  97 003d A5DE0AA5 		.ascii	"\245\336\012\245:\330\"\017M\251\210B\245d\244\011\324"
  97      3AD8220F 
  97      4DA98842 
  97      A564A409 
  97      D4
  98 004e FA56328D 		.ascii	"\372V2\215\247c\025\\k\357s\312\320q\010\223\231u\366"
  98      A763155C 
  98      6BEF73CA 
  98      D0710893 
  98      9975F6
  99 0061 59677DEB 		.ascii	"Yg}\353[\227/g\004\313\375\334\300\337\214\306X=^\241"
  99      5B972F67 
  99      04CBFDDC 
  99      C0DF8CC6 
  99      583D5EA1 
 100 0075 80013F37 		.ascii	"\200\001?7\307X\207\316\271\343\3013\314\360\210\301"
 100      C75887CE 
 100      B9E3C133 
 100      CCF088C1 
 101 0085 9798E113 		.ascii	"\227\230\341\023\020 78\300-\257N\356:[\205O5\262>\027"
 101      10203738 
 101      C02DAF4E 
 101      EE3A5B85 
 101      4F35B23E 
 102 009a E80AA4D9 		.ascii	"\350\012\244\331\007]\305M\353n\356\234\230a\030\031"
 102      075DC54D 
 102      EB6EEE9C 
 102      98611819 
 103 00aa 5CD231D2 		.ascii	"\\\3221\322\303\275\022\347\2238/\370U\270\317>\370"
 103      C3BD12E7 
 103      93382FF8 
 103      55B8CF3E 
 103      F8
 104 00bb 15CFB41E 		.ascii	"\025\317\264\036\340\236l\\\020\200\374\014\330\031"
 104      E09E6C5C 
 104      1080FC0C 
 104      D819
 105 00c9 2E1C4E97 		.ascii	".\034N\227\246\273=^\237?\020\2043\"\300@\247/~\334"
 105      A6BB3D5E 
 105      9F3F1084 
 105      3322C040 
 105      A72F7EDC 
 106 00dd DBC73FF9 		.ascii	"\333\307?\371\006\207s\311\341\367\274U\027\014\303"
 106      068773C9 
 106      E1F7BC55 
 106      170CC3
 107 00ec 78109FF5 		.ascii	"x\020\237\365t\025e8ci\256\372\206O\241\012C\336\274"
 107      74156538 
 107      6369AEFA 
 107      864FA10A 
 107      43DEBC
 108 00ff B50AA214 		.ascii	"\265\012\242\024\030\036\207\356L\016\005*>6\214\370"
 108      181E87EE 
 108      4C0E052A 
ARM GAS  C:\Users\Bruger\AppData\Local\Temp\ccClXZPD.s 			page 8


 108      3E368CF8 
 109 010f EA68EA58 		.ascii	"\352h\352X\0222\034\3403\020\010\200\027B\020\0111t"
 109      12321CE0 
 109      33100880 
 109      17421009 
 109      3174
 110 0121 3018820A 		.ascii	"0\030\202\012\214\035\277\373\250W\210j\211\313\374"
 110      8C1DBFFB 
 110      A857886A 
 110      89CBFC
 111 0130 9118D024 		.ascii	"\221\030\320$.y{\3048\"q\027sp\303\022\227\376\251{"
 111      2E797BC4 
 111      38227117 
 111      7370C312 
 111      97FEA97B 
 112 0144 C1235E94 		.ascii	"\301#^\224\270\267/,\016p\205\373\333\306}\236\203\373"
 112      B8B72F2C 
 112      0E7085FB 
 112      DBC67D9E 
 112      83FB
 113 0156 42E1868D 		.ascii	"B\341\206\215w\204xY\342\306\346on*\276\325\313\223"
 113      77847859 
 113      E2C6E66F 
 113      6E2ABED5 
 113      CB93
 114 0168 569D2339 		.ascii	"V\235#9\270Q\250\240\340\215\316\177\227\274\256N\034"
 114      B851A8A0 
 114      E08DCE7F 
 114      97BCAE4E 
 114      1C
 115 0179 41816A1D 		.ascii	"A\201j\035\306\300\005x\301g\017{F\357h\342\210L:\034"
 115      C6C00578 
 115      C1670F7B 
 115      46EF68E2 
 115      884C3A1C 
 116 018d 372F7AC3 		.ascii	"7/z\303\037a\322\301),\246c\320\330\334\332\222\251"
 116      1F61D2C1 
 116      292CA663 
 116      D0D8DCDA 
 116      92A9
 117 019f C7B3535B 		.ascii	"\307\263S[\263\273\004\341\321\302\244\261\265\225\356"
 117      B3BB04E1 
 117      D1C2A4B1 
 117      B595EE
 118 01ae 9FFE19B0 		.ascii	"\237\376\031\260\035\362piu\240\021\271\261\010\356"
 118      1DF27069 
 118      75A011B9 
 118      B108EE
 119 01bd 03EADA4F 		.ascii	"\003\352\332OG\\ 6R\000T\326>t\210B2\373\311\034 S\204"
 119      475C2036 
 119      520054D6 
 119      3E748842 
 119      32FBC91C 
 120 01d4 C67190CC 		.ascii	"\306q\220\314!2\305dJd\276Rz\\F\246\234L\230L\245|R"
 120      2132C564 
 120      4A64BE52 
 120      7A5C46A6 
ARM GAS  C:\Users\Bruger\AppData\Local\Temp\ccClXZPD.s 			page 9


 120      9C4C984C 
 121 01eb 4D411132 		.ascii	"MA\02125\362\3760\035k\311\324\311{\306\326\260\341"
 121      35F2FE30 
 121      1D6BC9D4 
 121      C97BC6D6 
 121      B0E1
 122 01fd 1E1F5BE7 		.ascii	"\036\037[\347\034/b\031\342\251\236\305k\332\316\251"
 122      1C2F6219 
 122      E2A99EC5 
 122      6BDACEA9 
 123 020d C8481A0A 		.ascii	"\310H\032\012\266\365%\270L\3566\271\316V\240\313x\203"
 123      B6F525B8 
 123      4CEE36B9 
 123      CE56A0CB 
 123      7883
 124 021f EE693603 		.ascii	"\356i6\003\013o\215\360\366\307\306YC\317pg\232\323"
 124      0B6F8DF0 
 124      F6C7C659 
 124      43CF7067 
 124      9AD3
 125 0231 F8BE8276 		.ascii	"\370\276\202v\206\261\370\364\367\265[\363\372}\236"
 125      86B1F8F4 
 125      F7B55BF3 
 125      FA7D9E
 126 0240 E194E16B 		.ascii	"\341\224\341k\010e\270\306$\325\262P\011\375&\367\311"
 126      0865B8C6 
 126      24D5B250 
 126      09FD26F7 
 126      C9
 127 0251 84EDBB25 		.ascii	"\204\355\273%\374F&\364\333\031~\205\316\333\0113\242"
 127      FC4626F4 
 127      DB197E85 
 127      CEDB0933 
 127      A2
 128 0262 32041133 		.ascii	"2\004\0213\373\341\375K\016\242q\340\264\277\005\265"
 128      FBE1FD4B 
 128      0EA271E0 
 128      B4BF05B5 
 129 0272 8A752ED8 		.ascii	"\212u.\330\222.\330=\250\311\256\204\362]\206\020\357"
 129      922ED83D 
 129      A8C9AE84 
 129      F25D8610 
 129      EF
 130 0283 BFE1C110 		.ascii	"\277\341\301\020\007\033\023\024R)}\0175t9Y\307\263"
 130      071B1314 
 130      52297D0F 
 130      35743959 
 130      C7B3
 131 0295 6A1E736B 		.ascii	"j\036skN\305\261\317\344\005\262nM\335\027\232\230f"
 131      4EC5B1CF 
 131      E405B26E 
 131      4DDD179A 
 131      9866
 132 02a7 19122997 		.ascii	"\031\022)\227\272\337/C\012\311\365\250\373\027\253"
 132      BADF2F43 
 132      0AC9F5A8 
 132      FB17AB
ARM GAS  C:\Users\Bruger\AppData\Local\Temp\ccClXZPD.s 			page 10


 133 02b6 B503E887 		.ascii	"\265\003\350\207\347CT\355o\2116\313\007a\2738\027K"
 133      E74354ED 
 133      6F8936CB 
 133      0761BB38 
 133      174B
 134 02c8 FA0575FE 		.ascii	"\372\005u\376\030\376\267u=\215\233a0\361d\226\363\037"
 134      18FEB775 
 134      3D8D9B61 
 134      30F16496 
 134      F31F
 135 02da 7C9208CA 		.ascii	"|\222\010\312\016\260\311I\232\204[&\322\254D\311\276"
 135      0EB0C949 
 135      9A845B26 
 135      D2AC44C9 
 135      BE
 136 02eb 0DB15BA6 		.ascii	"\015\261[\246+*\0235jCuju\005:\223\357\336\265\212."
 136      2B2A1335 
 136      6A43756A 
 136      75053A93 
 136      EFDEB58A 
 137 0300 7A1AEC49 		.ascii	"z\032\354I\343\030\031L\251\015d\270\227\232\374\253"
 137      E318194C 
 137      A90D64B8 
 137      979AFCAB 
 138 0310 FB7A918A 		.ascii	"\373z\221\212?\210\0209q\352\344\274k7\376\253*\005"
 138      3F881039 
 138      71EAE4BC 
 138      6B37FEAB 
 138      2A05
 139 0322 62889E58 		.ascii	"b\210\236X\337\267Y\017\345a\375.\017k1B\366\310\372"
 139      DFB7590F 
 139      E561FD2E 
 139      0F6B3142 
 139      F6C8FA
 140 0335 BDCD5A4C 		.ascii	"\275\315ZL\254\230\245\267{\363\274E[\202k\244I\262"
 140      AC98A5B7 
 140      7BF3BC45 
 140      5B826BA4 
 140      49B2
 141 0347 45E0E421 		.ascii	"E\340\344!\271\243W\216\306\315\306\237\203E\210\027"
 141      B9A3578E 
 141      C6CDC69F 
 141      83458817 
 142 0357 30E505DA 		.ascii	"0\345\005\332\343M\013H/\010\363\237\331.\265\016\215"
 142      E34D0B48 
 142      2F08F39F 
 142      D92EB50E 
 142      8D
 143 0368 415269EE 		.ascii	"ARi\356\036\200\311+\035hJtJ\342a\370\242VZJ\255[Z*"
 143      1E80C92B 
 143      1D684A74 
 143      4AE261F8 
 143      A2565A4A 
 144 0380 7D4A4B65 		.ascii	"}JKe&\326\211u\255XZ*\227!e;\265\204\005\224#g\337T"
 144      26D68975 
 144      AD585A2A 
 144      9721653B 
ARM GAS  C:\Users\Bruger\AppData\Local\Temp\ccClXZPD.s 			page 11


 144      B5840594 
 145 0398 7FAF9B38 		.ascii	"\177\257\2338\205\201\032\230\206\235\342\012o\213\313"
 145      85811A98 
 145      869DE20A 
 145      6F8BCB
 146 03a7 CB56CAF7 		.ascii	"\313V\312\367 \256\037,Id\251\311g!\223\023\273\253"
 146      20AE1F2C 
 146      4964A9C9 
 146      67219313 
 146      BBAB
 147 03b9 E95AAE9A 		.ascii	"\351Z\256\232\374\262[Z\354\025{\261\325y\026{=\317"
 147      FCB25B5A 
 147      EC157BB1 
 147      D579167B 
 147      3DCF
 148 03cb 622308D9 		.ascii	"b#\010\331\343bg\354\305Fl9]\265Y\017\347a\3751\017"
 148      E36267EC 
 148      C5466C39 
 148      5DB5590F 
 148      E761FD31 
 149 03e0 6B2D42F6 		.ascii	"k-B\366\310:k\263\326>\221\323\\\237E[\207\233\314\225"
 149      C83A6BB3 
 149      D63E91D3 
 149      5C9F455B 
 149      879BCC95 
 150 03f4 539D9C4D 		.ascii	"S\235\234M\200\341\177t\266\236x\266\236\370\266\200"
 150      80E17F74 
 150      B69E78B6 
 150      9EF8B680 
 151 0404 B8C96B04 		.ascii	"\270\311k\004\012\250\316O\260 \275\233S\320\221\\p"
 151      0AA8CE4F 
 151      B020BD9B 
 151      53D0915C 
 151      70
 152 0415 AAD730BD 		.ascii	"\252\3270\275\267\001\235XKq\264\245\265\361X}k\354"
 152      B7019D58 
 152      4B71B4A5 
 152      B5F1587D 
 152      6BEC
 153 0427 745373CB 		.ascii	"tSs\313\361\372X[Cs\2641v\374\225\243\265\321\223'\231"
 153      F1FA585B 
 153      4373B431 
 153      76FC95A3 
 153      B5D19327 
 154 043c 166B38D5 		.ascii	"\026k8\325\360jS\263\036=\321\022}\235\016\2575\235"
 154      F06A53B3 
 154      1E3DD112 
 154      7D9D0EAF 
 154      359D
 155 044e 3ADA1A6B 		.ascii	":\332\032klu\2665\2348\335\010M\377\001\212\337\255"
 155      6C75B635 
 155      9C38DD08 
 155      4DFF018A 
 155      DFAD
 156 0460 82       		.ascii	"\202"
 157              		.text
 158              		.section	.gnu.lto__Z7shiftInhhh.24bf7944,"",%progbits
ARM GAS  C:\Users\Bruger\AppData\Local\Temp\ccClXZPD.s 			page 12


 159 0000 789C8D56 		.ascii	"x\234\215V\335O\034U\024\277\347\336\331\231\331\235"
 159      DD4F1C55 
 159      14BFE7DE 
 159      D999D99D 
 160 0010 E5233410 		.ascii	"\345#4\020\240E(\260|\004\013\001_\214\351\203\355\233"
 160      A04528B0 
 160      7C040B01 
 160      5F8CE983 
 160      ED9B
 161 0022 4FF50F68 		.ascii	"O\365\017hRq\341\201h\240!\330X\023\322\201\245\013"
 161      5271E181 
 161      68A021D8 
 161      5813D281 
 161      A50B
 162 0034 26682C55 		.ascii	"&h,Ui\214\022\374h-\255\002\013-\310\207\272h\221\007"
 162      698C12FC 
 162      682DAD02 
 162      0B2DC887 
 162      BA689107 
 163 0048 AB488850 		.ascii	"\253H\210P[\202m\322\322\2324\264\204\246\333\215\024"
 163      5B826DD2 
 163      D29A34B4 
 163      84A6DB8D 
 163      14
 164 0059 3CE7DE6E 		.ascii	"<\347\336nY\012k\330\300\231;\347\234\337\357\334\373"
 164      590A6BD8 
 164      C0993BE7 
 164      9CDFEFDC 
 164      FB
 165 006a 3B677656 		.ascii	";gvV\260\315\237A\374o1\031\333\217W\210g\300?\370\235"
 165      B0CD9F41 
 165      FC6F3119 
 165      DB8F5788 
 165      67C03FF8 
 166 007f B1069373 		.ascii	"\261\006\223s\355~2\263]\242\363Ef\273\005\270\311\015"
 166      ED7E32B3 
 166      5DA2F345 
 166      66BB05B8 
 166      C90D
 167 0091 1A98F2EA 		.ascii	"\032\230\362\352\340zK>F\015\262n\035\014\0052Tx\314"
 167      E07A4B3E 
 167      460DB26E 
 167      1D0C0532 
 167      5478CC
 168 00a4 34B96368 		.ascii	"4\271ch\234aB\334\254\211\011N\356\222\351\226Lw\201"
 168      9C6142DC 
 168      AC89094E 
 168      EE92E996 
 168      4C7781
 169 00b7 A5D22DC5 		.ascii	"\245\322-\305:f\272\2713:=\016\200\374\014\3301.4\207"
 169      3A66BAB9 
 169      333A3D0E 
 169      80FC0CD8 
 169      312E3487 
 170 00cb 6E984E97 		.ascii	"n\230N\227\205\336c\302\315\300\244?\374\230\353\313"
 170      85DE63C2 
 170      CDC0A43F 
ARM GAS  C:\Users\Bruger\AppData\Local\Temp\ccClXZPD.s 			page 13


 170      FC98EBCB 
 171 00db 7FF81287 		.ascii	"\177\370\022\207\313C\253\323\220\177\332\266\033\357"
 171      CB43ABD3 
 171      907FDAB6 
 171      1BEF
 172 00e9 F7BDE76D 		.ascii	"\367\275\347m\377\360\2650gl\2313x>\035\012\323\211"
 172      FFF0B530 
 172      676C9933 
 172      783E1D0A 
 172      D389
 173 00fb ED6BC8C7 		.ascii	"\355k\310\307\274w'\257\203\310\002\206\313\256k\303"
 173      BC7727AF 
 173      83C80286 
 173      CBAE6BC3 
 174 010b 5DF19E2F 		.ascii	"]\361\236/\021\022\034\352\266_\006D\300Y\020\353 \242"
 174      11121CEA 
 174      B65F0644 
 174      C05910EB 
 174      20A2
 175 011d 802EF060 		.ascii	"\200.\360`n\340\306\2436!\012$.|\333\327a(\334\325\010"
 175      6EE0C6A3 
 175      36210A24 
 175      2E7CDBD7 
 175      6128DCD5 
 176 0132 EEDC26DC 		.ascii	"\356\334&\334y\211[\376\303?\355\022\245\022w\342\364"
 176      79895BFE 
 176      C33FED12 
 176      A51277E2 
 176      F4
 177 0143 4C0757B8 		.ascii	"L\007W\270\225\010\356\233M\270o\301C\311KM\217g-\275"
 177      9508EE9B 
 177      4DB86FC1 
 177      43C94B4D 
 177      8F672DBD 
 178 0157 C9B6ED44 		.ascii	"\311\266\355D:\006\006\272A\007\306\350\254\017\232"
 178      3A0606BA 
 178      4107C6E8 
 178      AC0F9A
 179 0166 7BAE19E2 		.ascii	"{\256\031\342%Iz\2761t\316\312\371\034I\257\337\033"
 179      25497ABE 
 179      3174CECA 
 179      F91C49AF 
 179      DF1B
 180 0178 3E186CE8 		.ascii	">\030l\350\264W\327\326$uO4\265\372@/\344 f\374\213"
 180      B457D7D6 
 180      24754F34 
 180      B5FA402F 
 180      E42066FC 
 181 018d 9353A6D8 		.ascii	"\223S\246\330+\361\343\037\2174\271%\276\363\021n*\012"
 181      2BF1E31F 
 181      8F34B925 
 181      BEF3116E 
 181      2A0A
 182 019f 1FD802DF 		.ascii	"\037\330\002\337\0079=IA{m\255\177`lT\177\001$#\227"
 182      07393D49 
 182      417B6DAD 
 182      7F606C54 
ARM GAS  C:\Users\Bruger\AppData\Local\Temp\ccClXZPD.s 			page 14


 182      7F012423 
 183 01b4 56C8A826 		.ascii	"V\310\250&\255CZ]ZCZ\013HH7\036\021\022\200\264I\244"
 183      AD435A5D 
 183      5A435A0B 
 183      4848371E 
 183      111280B4 
 184 01ca 6512D071 		.ascii	"e\022\320qw\310\214dt\360\024\271L\245e\032\231]d2\310"
 184      77C88C64 
 184      74F014B9 
 184      4CA5651A 
 184      995D6432 
 185 01df 64CA2259 		.ascii	"d\312\"Y\270\024\273\311d\313\314\\\012y\3442O\332\002"
 185      B814BBC9 
 185      64CBCC5C 
 185      0A79E432 
 185      4FDA02
 186 01f2 72149229 		.ascii	"r\024\222)\222\200=\264,\226\241\022Z\226Jo\231\264"
 186      92803DB4 
 186      2C96A112 
 186      5A964A6F 
 186      99B4
 187 0204 8CDD4461 		.ascii	"\214\335Da\233\335\354\026\347x\021W\241q\276yq\300"
 187      9BDDEC16 
 187      E7781157 
 187      A171BE79 
 187      71C0
 188 0216 D8A83E65 		.ascii	"\330\250>e\022\\6\000%\350\007=\304\335!n\26198n\037"
 188      125C3600 
 188      25E8073D 
 188      C4DD216E 
 188      B139386E 
 189 022b A57BD2B1 		.ascii	"\245{\322\261c\372\375n^\377\257\335b\233a\256-sl\025"
 189      63FAFD6E 
 189      5EFFAFDD 
 189      629B61AE 
 189      2D736C15 
 190 023f 5C807A86 		.ascii	"\\\200z\206\271\030\235\372\344\214/\341\016\017s\007"
 190      B9189DFA 
 190      E48C2FE1 
 190      0E0F7307 
 191 024f 4A7611D2 		.ascii	"Jv\021\322\303\\g\262\334\303\031C1&\206x\202d\254\377"
 191      C35C67B2 
 191      DCC31943 
 191      31268678 
 191      8264ACFF 
 192 0263 3FC601C9 		.ascii	"?\306\001\311\230\210\321\277oNN\231\222\021\335\203"
 192      9888D1BF 
 192      6F4E4E99 
 192      9211DD83 
 193 0273 8A71061A 		.ascii	"\212q\006\032\203KC@\004\264\343\350,j\336w\220\316"
 193      834B4340 
 193      04B4E3E8 
 193      2C6ADE77 
 193      90CE
 194 0285 FE84A62B 		.ascii	"\376\204\246+\276\333E\252f\022fL|v\247O\243\014\344"
 194      BEDB45AA 
 194      6612664C 
ARM GAS  C:\Users\Bruger\AppData\Local\Temp\ccClXZPD.s 			page 15


 194      7C76A74F 
 194      A30CE4
 195 0298 8721509D 		.ascii	"\207!P\235\276\305\005\2335\005[\200\"B\361\271\300"
 195      BEC5059B 
 195      35055B80 
 195      2242F1B9 
 195      C0
 196 02a9 59588062 		.ascii	"YX\200b\271n\235\2640\256\261^A\3612\351\033\235t-@"
 196      B96E9DB4 
 196      30AEB15E 
 196      41F132E9 
 196      1B9D742D 
 197 02be 5E54D8C1 		.ascii	"^T\330\301\032v\242\236\2769\377b\273S\025\333\021\342"
 197      1A76A29E 
 197      BE39FF62 
 197      BB5315DB 
 197      11E2
 198 02d0 5AB412F8 		.ascii	"Z\264\022\370x\3030\326\233\001\036\3310&\241\004M\301"
 198      78C330D6 
 198      9B011ED9 
 198      3026A104 
 198      4DC1
 199 02e2 C701AE30 		.ascii	"\307\001\2560\311\317\312`,szFF\224\260an\322\201\376"
 199      C9CFCA60 
 199      2C737A46 
 199      4694B061 
 199      6ED281FE 
 200 02f6 F21D594F 		.ascii	"\362\035YOo83\322j\310\363`\336\350\323\363\350,\030"
 200      6F3833D2 
 200      6AC8F360 
 200      DEE8D3F3 
 200      E82C18
 201 0309 471B7AE0 		.ascii	"G\033z\340\277\253\253\344\024\254&\017\274a\003)2\333"
 201      BFABABE4 
 201      14AC260F 
 201      BC610329 
 201      32DB
 202 031b A0EDA39A 		.ascii	"\240\355\243\232\211Ly\205\334\326\332\015\241\240\251"
 202      894C7985 
 202      DCD6DA0D 
 202      A1A0A9
 203 032a 31B6F5BD 		.ascii	"1\266\365\275\352\016m\013K=\364_JU\371i\010\221\245"
 203      EA0E6D0B 
 203      4B3DF45F 
 203      4A55F969 
 203      0891A5
 204 033d A8BF27F5 		.ascii	"\250\277'\365-\033\354\\\306*\014~P\024\210\011s\227"
 204      2D1BEC5C 
 204      C62A0C7E 
 204      50148809 
 204      7397
 205 034f AC7AC2BF 		.ascii	"\254z\302\277W\261\354\212Q\365\307\030U3\020\262\315"
 205      57B1EC8A 
 205      51F5C718 
 205      553310B2 
 205      CD
 206 0360 AAC148D5 		.ascii	"\252\301H\325\014\252\212,m\376\371\366'\207\315\014"
ARM GAS  C:\Users\Bruger\AppData\Local\Temp\ccClXZPD.s 			page 16


 206      0CAA8A2C 
 206      6DFEF9F6 
 206      2787CD0C 
 207 0370 71D8D0A8 		.ascii	"q\330\320\250^R$\223a\363\005J\350\230\353IB\331\364"
 207      5E522493 
 207      61F3054A 
 207      E898EB49 
 207      42D9F4
 208 0383 BB3D3B51 		.ascii	"\273=;Q8\223\005\236\203(\3414\246n$\006\250Y\277\371"
 208      3893059E 
 208      8328E134 
 208      A66E2406 
 208      A859BFF9 
 209 0397 EEFD0A8A 		.ascii	"\356\375\012\212\031p7\241\225\211\343j\034\360{bL\265"
 209      197037A1 
 209      9589E36A 
 209      1CF07B62 
 209      4CB5
 210 03a9 6B0120C4 		.ascii	"k\001 \304\31344\231\006\336h!\236G7\302\000\254\340"
 210      CB343499 
 210      06DE6821 
 210      9E4737C2 
 210      00ACE0
 211 03bc 64F8AA50 		.ascii	"d\370\252P\217\352\352\251w\024QVH>N\276\371'\255\335"
 211      8FEAEAA9 
 211      77145156 
 211      483E4EBE 
 211      F927ADDD 
 212 03d0 8D2EC84D 		.ascii	"\215.\310M\247'\354J\363eM9\263\321\277\261\327\331"
 212      A727EC4A 
 212      F3654D39 
 212      B3D1BFB1 
 212      D7D9
 213 03e2 52DF803F 		.ascii	"R\337\200?O%\344\306\320\367\247\255\207-7j\272\260"
 213      4F25E4C6 
 213      D0F7A7AD 
 213      872D376A 
 213      BAB0
 214 03f4 53D91BA7 		.ascii	"S\331\033\247\313\203\364\310\367\321\350\247mN9\215"
 214      CB83F4C8 
 214      F7D1E8A7 
 214      6D4E398D 
 215 0404 368EFBCF 		.ascii	"6\216\373\317\317N\233G\242-y\244(\325\034rc\375\221"
 215      CF4E9B47 
 215      A22D79A4 
 215      28D51C72 
 215      63FD91
 216 0417 C617C4D8 		.ascii	"\306\027\304\330\330\245\030\215/D\3106\033?\036i|a"
 216      D8A5188D 
 216      2F44C836 
 216      1B3F1E69 
 216      7C61
 217 0429 64DC2E46 		.ascii	"d\334.F\252\356\211Q\365\227\030UK\020\262\315\252\023"
 217      AAEE8951 
 217      F5971855 
 217      4B10B2CD 
 217      AA13
ARM GAS  C:\Users\Bruger\AppData\Local\Temp\ccClXZPD.s 			page 17


 218 043b 91AA254F 		.ascii	"\221\252%O\307m\361T\231\242)\015\3417\321\246q+\245"
 218      C76DF154 
 218      99A2290D 
 218      E137D1A6 
 218      712BA5
 219 044e A970A0A6 		.ascii	"\251p\240\246\316\225\300W\034\205s\265\366_\020\250"
 219      CE95C057 
 219      1C8573B5 
 219      F65F10A8 
 220 045e 9D9BE14F 		.ascii	"\235\233\341O\205\350\211\323\243'\216\253\211\033l"
 220      85E889D3 
 220      A3278EAB 
 220      891B6C
 221 046d 4D53E47C 		.ascii	"MS\344|}\304\220\244H\340T\225Zx\203\241b\272qX4bq\364"
 221      7DC490A4 
 221      48E05495 
 221      5A7883A1 
 221      62BA7158 
 222 0485 3288A234 		.ascii	"2\210\2424\330<4\004G\374\361\212\304 \270\201\263m"
 222      D83C3404 
 222      47FCF18A 
 222      C420B881 
 222      B36D
 223 0497 22427703 		.ascii	"\"Bw\003\276E\000\021\250M\206\267\246\266\362\340\276"
 223      BE450011 
 223      A84D86B7 
 223      A6B6F2E0 
 223      BE
 224 04a8 DA8AB7AA 		.ascii	"\332\212\267\252\252k\016\355\2538R^\355\255\2548\364"
 224      AA6B0EED 
 224      AB38525E 
 224      EDADAC38 
 224      F4
 225 04b9 CA8162EF 		.ascii	"\312\201b\357\341\303\314\250(\257+\177\265\252\332"
 225      E1C3CCA8 
 225      28AF2B7F 
 225      B5AADA
 226 04c8 F4BE59E3 		.ascii	"\364\276Y\343}\203\026\257W\325\035\250\255\250\254"
 226      7D8316AF 
 226      57D51DA8 
 226      ADA8AC
 227 04d7 852ABDF6 		.ascii	"\205*\275\366\355\375G\353*\377\003\303\363\335\225"
 227      EDFD47EB 
 227      2AFF03C3 
 227      F3DD95
 228              		.text
 229              		.section	.gnu.lto_.symbol_nodes.24bf7944,"",%progbits
 230 0000 789C558E 		.ascii	"x\234U\216=K\003A\020\206\337\331\335\004\313\373\307"
 230      3D4B0341 
 230      1086DFD9 
 230      DD04CBFB 
 230      C7
 231 0011 93E04920 		.ascii	"\223\340I \007Q\242&]\214\260M\012\013;I=\344\012\341"
 231      0751A226 
 231      5D8CB04D 
 231      0A0B3B49 
 231      3DE40AE1 
ARM GAS  C:\Users\Bruger\AppData\Local\Temp\ccClXZPD.s 			page 18


 232 0025 FE81A8B0 		.ascii	"\376\201\250\260\026\366\326\306\331/8\267z\336g\330"
 232      16F6D6C6 
 232      D92F38B7 
 232      7ADE67D8 
 233 0035 79C70238 		.ascii	"y\307\0028\020\3623w\304\300\315\0000c\267\277\200\271"
 233      10F23377 
 233      C4C0CD00 
 233      3063B7BF 
 233      80B9
 234 0047 27A67F62 		.ascii	"'\246\177bCl\306\202\036\210m\026\230\3154\357\211\335"
 234      436CC682 
 234      1E886D16 
 234      98CD34EF 
 234      89DD
 235 0059 38EF8827 		.ascii	"8\357\210'\343\374H<\035e\213\011\344\343wNV1T\360\317"
 235      E3FC483C 
 235      1D658B09 
 235      E4E3774E 
 235      563154F0 
 236 006e C35363E1 		.ascii	"\303Sc\341\320\236\276\276\257LTr:/(\251\376\347\345"
 236      D09EBEBE 
 236      AF4C5472 
 236      3A2F28A9 
 236      FEE7E5
 237 0081 32AB3E2A 		.ascii	"2\253>*\252\013\024\332\317\004S\370\376\375\320D\220"
 237      AA0B14DA 
 237      CF0453F8 
 237      FEFDD044 
 237      90
 238 0092 0C0E6121 		.ascii	"\014\016a!\257\311\370e\002\007Y\026\323v\005\302\265"
 238      AFC9F865 
 238      02075916 
 238      D37605C2 
 238      B5
 239 00a3 BC65B34E 		.ascii	"\274e\263N\340\340\327r\324\2628+\244\007\334V'\231"
 239      E0E0D772 
 239      D4B2382B 
 239      A407DC56 
 239      2799
 240 00b5 4CBDC0D4 		.ascii	"L\275\300\324\013\214\376L}\012!\325\030-\356\212\221"
 240      0B8CFE4C 
 240      7D0A21D5 
 240      182DEE8A 
 240      91
 241 00c6 AE987655 		.ascii	"\256\230vULY\031g\233L:\334V\347\267\325\205D\370\003"
 241      4C591967 
 241      9B4C3ADC 
 241      56E7B7D5 
 241      8544F803 
 242 00da 93938600 		.ascii	"\223\223\206\000"
 243              		.text
 244              		.section	.gnu.lto_.refs.24bf7944,"",%progbits
 245 0000 789C6366 		.ascii	"x\234cf```d\200\002\000\000=\000\005"
 245      60606064 
 245      80020000 
 245      3D0005
 246              		.text
ARM GAS  C:\Users\Bruger\AppData\Local\Temp\ccClXZPD.s 			page 19


 247              		.section	.gnu.lto_.decls.24bf7944,"",%progbits
 248 0000 789CBD55 		.ascii	"x\234\275U{PT\327\031\277g\317\205]\356\362\352\013"
 248      7B5054D7 
 248      19BF67CF 
 248      855DEEF2 
 248      EA0B
 249 0012 333B6D07 		.ascii	"3;m\007'\224\230\211\222\304\364A:\235\2525N\202\243"
 249      27949889 
 249      92C4F441 
 249      3A9DAA35 
 249      4E82A3
 250 0025 B231613A 		.ascii	"\2621a:5;\263\335\354^eg`\227\354.\231\372\337\301\265"
 250      353BB3DD 
 250      EC5E6567 
 250      6097EC2E 
 250      99FADFC1 
 251 003a 88681191 		.ascii	"\210h\021\221(\032\343\320\200&\370\\\301G\224\247\240"
 251      281AE3D0 
 251      8026F85C 
 251      C14794A7 
 251      A0
 252 004b 09562C5A 		.ascii	"\011V,Z!`\320\260J0\324\224\202\012\012\212\320\357"
 252      2160D0B0 
 252      4A30D494 
 252      820A0A8A 
 252      D0EF
 253 005d 9C73EF3E 		.ascii	"\234s\357>\024f\362W\357\314\331\363}\337\371\036\277"
 253      1466F257 
 253      EFCCD9F3 
 253      7DDFF91E 
 253      BF
 254 006e DF771E8B 		.ascii	"\337w\036\213\005A\310B\2020\005\337II\020.i\004A\004"
 254      0541C842 
 254      823005DF 
 254      4949102E 
 254      69044104 
 255 0082 9B110686 		.ascii	"\233\021\006\206q\016F'\214\004\201\177Z\030\337\302"
 255      710E4627 
 255      8C04817F 
 255      5A18DFC2 
 256 0092 1882711F 		.ascii	"\030\202q\037\306\004\014\004\361Z\0301Hx\352\243\276"
 256      C6040C04 
 256      F15A1831 
 256      4878EAA3 
 256      BE
 257 00a3 31306261 		.ascii	"10baD\303\350U\362\315Vr\306\"^C\2049\016\306C\220\343"
 257      44C3E855 
 257      F2CD5672 
 257      C6225E43 
 257      84390EC6 
 258 00ba 619E54E2 		.ascii	"a\236T\342E%\007\315\257\326z\362\033Rr\033Cr/\235&"
 258      452507CD 
 258      AFD67AF2 
 258      1B52721B 
 258      43722F9D 
 259 00cf FF0F6048 		.ascii	"\377\017`H\350\351\374CB\020\377t\371)O\375\023\270"
 259      E8E9FC43 
ARM GAS  C:\Users\Bruger\AppData\Local\Temp\ccClXZPD.s 			page 20


 259      4210FF74 
 259      F9294FFD 
 259      13B8
 260 00e1 973E915B 		.ascii	"\227>\221[\315\251\326Ps\337Wr\243\031\372sG\203Z\017"
 260      CDA9D650 
 260      73DF5772 
 260      A319FA73 
 260      47835A0F 
 261 00f5 7CF467AC 		.ascii	"|\364g\254A \212#\335\303uq\310`H\226\312H\001\031["
 261      41208A23 
 261      DDC37571 
 261      C8604896 
 261      CA480119 
 262 010a 800E2049 		.ascii	"\200\016 I(#:6W\022B\2127\220?\010TC\237 \034\222\246"
 262      28233A36 
 262      5712428A 
 262      37903F08 
 262      54439F20 
 263 0121 80907564 		.ascii	"\200\220ud\270\204\340g\0044\327\200\2367\010h?Jfa\002"
 263      B884E067 
 263      0434D780 
 263      9E370868 
 263      3F4A6661 
 264 0136 AA4206F4 		.ascii	"\252B\006\364)2@\001|\275q\333%\021\031$\003Mz\010V"
 264      29324001 
 264      7CBD71DB 
 264      25111924 
 264      034D7A08 
 265 014b 95405FFC 		.ascii	"\225@_\374{a\201\207X\340A\010<\014\201\024L*\263\001"
 265      7B618187 
 265      58E04108 
 265      3C0C8114 
 265      4C2AB301 
 266 015f DCFA6EDF 		.ascii	"\334\372n\337\263\370G\024.\352k\332\332\247\237\273"
 266      B3F84714 
 266      2EEA6BDA 
 266      DAA79FBB 
 267 016f 1F701590 		.ascii	"\037p\025\220&?\016R\032\252\332\270!\002\377\2029\365"
 267      263F0E52 
 267      1AAADAB8 
 267      2102FF82 
 267      39F5
 268 0181 6F7AD426 		.ascii	"oz\324&\341\271L\276P\370\321&\021\317grq\321\203\322"
 268      E1B94CBE 
 268      50F8D126 
 268      11CF6772 
 268      71D183D2 
 269 0195 08BC80C9 		.ascii	"\010\274\200\311\247\017U\216a\274\224'\355/\354\323"
 269      A70F558E 
 269      61BC9427 
 269      ED2FECD3 
 270 01a5 E33F31F9 		.ascii	"\343?1\371\336\345{\336\030\274\206\312\263v\027\234"
 270      DEE57BDE 
 270      18BC86CA 
 270      B376179C 
 271 01b5 6FD3A124 		.ascii	"o\323\241$Q4\030\222\014\311\"\314\242\316\220D?\203"
 271      51341892 
ARM GAS  C:\Users\Bruger\AppData\Local\Temp\ccClXZPD.s 			page 21


 271      0CC922CC 
 271      A2CE9044 
 271      3F83
 272 01c7 68F89894 		.ascii	"h\370\230\224\221\341\301\212\333\013\275d!:\207t\250"
 272      91E1C18A 
 272      DB0BBD64 
 272      213A8774 
 272      A8
 273 01d8 1A613AD3 		.ascii	"\032a:\323\023\363O`\240\021\3201\260\\@I\3504\022\251"
 273      13F34F60 
 273      A011D031 
 273      B05C4049 
 273      E83412A9 
 274 01ec 7A1CD4F3 		.ascii	"z\034\324\363\240^\004\225\362{\206\271S\351%&\321\214"
 274      A05E0495 
 274      F27B86B9 
 274      53E92526 
 274      D18C
 275 01fe FEFD7D71 		.ascii	"\376\375}q\004\261|'\203\371\352\224\216$2C%)'\376\252"
 275      04B17C27 
 275      83F9EA94 
 275      8E243243 
 275      252927FE 
 276 0213 96BC853A 		.ascii	"\226\274\205:\346w\004\374|hnpg\240\024\305\362\031"
 276      E67704FC 
 276      7C686E70 
 276      67A014C5 
 276      F219
 277 0225 946AE695 		.ascii	"\224j\346\225\217\202\372\005\250M\\\255\001\365\037"
 277      8F82FA05 
 277      A84D5CAD 
 277      01F51F
 278 0234 A09E5280 		.ascii	"\240\236R\200\314aia\201\226\254GI\202\220\317\366h"
 278      CC616961 
 278      8196AC47 
 278      498290CF 
 278      F668
 279 0246 1DC165B1 		.ascii	"\035\301e\261t\023\324}j\204}\242%\241\034\223\317 "
 279      7413D47D 
 279      6A847DA2 
 279      25A11C93 
 279      CF20
 280 0258 31B0D574 		.ascii	"1\260\325t{U\026M\237\022\256\261\312\012\211\317\301"
 280      7B55164D 
 280      9F12AEB1 
 280      CA0A89CF 
 280      C1
 281 0269 892E96EF 		.ascii	"\211.\226\357\307\234\340\211\340Z\213\262\346\257\252"
 281      C79CE089 
 281      E05A8BB2 
 281      E6AFAA
 282 0278 F8B942FF 		.ascii	"\370\271B\377xp\265AYmjT\323\326\004\027\333\324\305"
 282      7870B541 
 282      596D6A54 
 282      D3D60417 
 282      DBD4C5
 283 028b EBEAE2B1 		.ascii	"\353\352\342\261\340b\255\322\270x\225!\255\331\012"
ARM GAS  C:\Users\Bruger\AppData\Local\Temp\ccClXZPD.s 			page 22


 283      E062ADD2 
 283      B8789521 
 283      ADD90A
 284 029a D4CF2AD4 		.ascii	"\324\317*\3249f\372\003{\277\343r\367I\021oF\354 \024"
 284      3966FA03 
 284      7BBFE372 
 284      F749116F 
 284      46EC2014 
 285 02ae F654B569 		.ascii	"\366T\265iq)W\362\366\325n\326\016hP\202\304\016[\321"
 285      712957F2 
 285      F6D56ED6 
 285      0E685082 
 285      C40E5BD1 
 286 02c2 855D6730 		.ascii	"\205]g0S\247\350\262\246\244od/BR\3624w\242\003\332"
 286      53A7E8B2 
 286      A6A46F64 
 286      2F4252F2 
 286      3477A203 
 287 02d7 44A3D065 		.ascii	"D\243\320e\350\323\277\000\016\275S\303\015{\267\374"
 287      E8D3BF00 
 287      0EBD53C3 
 287      0D7BB7FC 
 288 02e7 9410115D 		.ascii	"\224\020\021]\201\336^\012\354\037s\344\347Y\343\357"
 288      81DE5E0A 
 288      EC1F73E4 
 288      E759E3EF 
 289 02f7 DAFBE6F4 		.ascii	"\332\373\346\364\031\277\2346\343\371\252\013?\241\031"
 289      19BF9C36 
 289      E3F9AA0B 
 289      3FA119
 290 0306 3B21637B 		.ascii	";!c{0\343\025\244\244\244\013\200\374\324\341\221\213"
 290      30E315A4 
 290      A4A40B80 
 290      FCD4E191 
 290      8B
 291 0317 7A401E2B 		.ascii	"z@\036+%\262[P\322Z\026\011j\264$R\265\261a\354s\011"
 291      25B25B50 
 291      D25A1609 
 291      6AB42452 
 291      B5B161EC 
 292 032d 6FC38CF3 		.ascii	"o\303\214\363\346\002\377y\011\357\306a\015\230\315"
 292      E602FF79 
 292      09EFC661 
 292      0D98CD
 293 033c 1BD0FBE1 		.ascii	"\033\320\373\341xe\024S\351+\036G\001\267\336\"\025"
 293      78651453 
 293      E92B1E47 
 293      01B7DE22 
 293      15
 294 034d B1285952 		.ascii	"\261(YR\370\335|\203\336\213\257\001\315WA4\263\245"
 294      F8DD7C83 
 294      DE8BAF01 
 294      CD574134 
 294      B3A5
 295 035f 90B7A3D8 		.ascii	"\220\267\243\330K\242Zc\005\324\0054\272\201\006\272"
 295      4BA25A63 
 295      05D40534 
ARM GAS  C:\Users\Bruger\AppData\Local\Temp\ccClXZPD.s 			page 23


 295      BA8106BA 
 296 036f 0EC4A807 		.ascii	"\016\304\250\007\352\001\3135\366zh\316M4\254\217P\373"
 296      EA01CB35 
 296      F67A68CE 
 296      4D34AC8F 
 296      50FB
 297 0381 F05484FF 		.ascii	"\360T\204\377\311\010\245\025;\022h+z\241\370\325`\361"
 297      C908A515 
 297      3B12682B 
 297      7AA1F8D5 
 297      60F1
 298 0393 AF51A0BB 		.ascii	"\257Q\240\273\250\340\220\257.J\204?\036\346\364\016"
 298      A8E090AF 
 298      2E4A843F 
 298      1EE6F40E 
 299 03a3 237FF6AB 		.ascii	"#\177\366\253\355\373\264\314F{x\003q\343\211\2766]"
 299      EDFBB4CC 
 299      467B7803 
 299      71E389BE 
 299      365D
 300 03b5 C078931B 		.ascii	"\300x\223\033\273\272N\224F\316\372\200\320\327\321"
 300      BBBA4E94 
 300      46CEFA80 
 300      D0D7D1
 301 03c4 4BE27925 		.ascii	"K\342y%\025\224\200\276A\263\340\267\017\211\274\326"
 301      159480BE 
 301      41B3E0B7 
 301      0F89BCD6 
 302 03d4 9973EDE3 		.ascii	"\231s\355\343\030\177\302\373\330_Z\370\245\016\037"
 302      187FC2FB 
 302      D85F5AF8 
 302      A50E1F
 303 03e3 E14A57F3 		.ascii	"\341JW\363\375\216\310\304=\244\274|\370\361\305\374"
 303      FD8EC8C4 
 303      3DA4BC7C 
 303      F8F1C5FC 
 304 03f3 989DA47C 		.ascii	"\230\235\244|\035\231\234\202#ES\240\376\340\275F\267"
 304      1D999C82 
 304      234553A0 
 304      FEE0BD46 
 304      B7
 305 0404 94A7177D 		.ascii	"\224\247\027}\213\022!p\317\335]EAT\034\376\303\311"
 305      8B122170 
 305      CFDD5D45 
 305      41541CFE 
 305      C3C9
 306 0416 7D1552C0 		.ascii	"}\025R\3006\300\221\266\334\034z5`\3737\267\325o\357"
 306      36C091B6 
 306      DC1C7A35 
 306      60FB37B7 
 306      D56FEF
 307 0429 EE890E18 		.ascii	"\356\211\016\030os\343\3011_gT(%cB\010\243\3770F\337"
 307      6F73E3C1 
 307      315F6754 
 307      28256342 
 307      08A3FF30 
 308 043f A98CB6B7 		.ascii	"\251\214\266\267\034{\254\307=\234\304\235\366\023\003"
ARM GAS  C:\Users\Bruger\AppData\Local\Temp\ccClXZPD.s 			page 24


 308      1C7BACC7 
 308      3D9CC49D 
 308      F61303
 309 044e 7AFC0D57 		.ascii	"z\374\015WJn\017x%\306\310\177\344`d+i\232\232Z@\243"
 309      4A6E0F78 
 309      25C6C87F 
 309      E460642B 
 309      699A9A5A 
 310 0464 D1600899 		.ascii	"\321`\010\231\377\252d\206\276'\231\341i\310\334\341"
 310      FFAA6486 
 310      BE2799E1 
 310      69C8DCE1 
 311 0474 B66DBBF6 		.ascii	"\266m\273\366\226hCqw\206m\305=\006\374\256\012\374"
 311      96684371 
 311      77866DC5 
 311      3D06FCAE 
 311      0AFC
 312 0486 ECBDFE2B 		.ascii	"\354\275\376+:<\302\261n\354y\260\005\341\011\256\034"
 312      3A3CC2B1 
 312      6EEC79B0 
 312      05E109AE 
 312      1C
 313 0497 CF3FD981 		.ascii	"\317?\331\2018\360\357\252mM\353\311\304\324\024f\361"
 313      38F0EFAA 
 313      6D4DEBC9 
 313      C4D41466 
 313      F1
 314 04a8 682404FA 		.ascii	"h$\004\372\250\012\375>\203~\243\273\253N\213\013E\366"
 314      A80AFD3E 
 314      837EA3BB 
 314      AB4E8B0B 
 314      45F6
 315 04ba 08D43697 		.ascii	"\010\3246\227\\\226\324\013Put\340\271S\364A\032\007"
 315      5C96D40B 
 315      507574E0 
 315      B953F441 
 315      1A07
 316 04cc 3C0FBEEF 		.ascii	"<\017\276\357\015\030{\372\006\240\203\325\037\334\322"
 316      0D187BFA 
 316      06A083D5 
 316      1FDCD2
 317 04db 84321C0F 		.ascii	"\2042\034\017c\370\2201|G!x\252\262\346\3038\\\303\000"
 317      63F89031 
 317      7C472178 
 317      AAB2E6C3 
 317      385CC300 
 318 04ef A1D66B75 		.ascii	"\241\326ku\275\224\223\237\014\357\251\031\211\331Y"
 318      BD94939F 
 318      0CEFA919 
 318      89D959
 319 04fe 4D9A192F 		.ascii	"M\232\031/\204h\024z\024\302\353\221\312k\202\361\232"
 319      8468147A 
 319      14C2EB91 
 319      CA6B82F1 
 319      9A
 320 050f EE7A8C4E 		.ascii	"\356z\214N\370F\361\314\235\236d8\036\253\235\036\277"
 320      F846F1CC 
ARM GAS  C:\Users\Bruger\AppData\Local\Temp\ccClXZPD.s 			page 25


 320      9D9E6438 
 320      1EAB9D1E 
 320      BF
 321 0520 F3457514 		.ascii	"\363Eu\024~\300\201\014wu\370\"\2607\202\377!W\255\357"
 321      7EC0810C 
 321      7775F822 
 321      B03782FF 
 321      2157ADEF 
 322 0534 D53354BE 		.ascii	"\3253T\276\301\212\367w\222\277\253g\0362\240\251\020"
 322      C18AF777 
 322      92BFAB67 
 322      1E32A0A9 
 322      10
 323 0545 4C44A360 		.ascii	"LD\243`\312\323PL\276\301\352Q~=\351\033\3171}\\~\343"
 323      CAD3504C 
 323      BEC1EA51 
 323      7E3DE91B 
 323      CF317D5C 
 324 055b 962E8073 		.ascii	"\226.\200s\235\206\031\037\225xokg<\312\3535\024\247"
 324      9D86191F 
 324      95786F6B 
 324      673CCAEB 
 324      3514A7
 325 056e 57A3E01C 		.ascii	"W\243\340\034\273\232W\244\307\245\034Z\355\325\236"
 325      BB9A57A4 
 325      C7A51C5A 
 325      EDD59E
 326 057d 7A0DDECD 		.ascii	"z\015\336\315\225\242\273\235\305\221\014\247\377b\213"
 326      95A2BB9D 
 326      C5910CA7 
 326      FF628B
 327 058c DCAC9E08 		.ascii	"\334\254\236\010\210G\177\325\004Q\346\253(7hf:\314"
 327      88477FD5 
 327      0451E6AB 
 327      28376866 
 327      3ACC
 328 059e DD1DCD83 		.ascii	"\335\035\315\203\332\000\312\002\216\262\356\263\303"
 328      DA00CA02 
 328      8EB2EEB3 
 328      C3
 329 05ab A7E36644 		.ascii	"\247\343fDY\310PnTQ\326\217\267\367a|\224\003k&[k#q"
 329      59C8506E 
 329      5451D68F 
 329      B7F7617C 
 329      94036B26 
 330 05c3 03572AC9 		.ascii	"\003W*\311\303\366h\206\262\274\275\"?Q\271q\020\216"
 330      C3F66886 
 330      B2BCBD22 
 330      3F51B971 
 330      108E
 331 05d5 368580DC 		.ascii	"6\205\200\334\254\202\374\033\003\351\257\2779\252\215"
 331      AC82FC1B 
 331      03E9AFBF 
 331      39AA8D
 332 05e4 2E0C1E41 		.ascii	".\014\036A\306*X\275H\023\315\274a\006\357\003\371\215"
 332      C62A58BD 
 332      4813CDBC 
ARM GAS  C:\Users\Bruger\AppData\Local\Temp\ccClXZPD.s 			page 26


 332      6106EF03 
 332      F98D
 333 05f6 4D629837 		.ascii	"Mb\2307==A\357-\212\367\026\346]\271\343Z#\012\363\236"
 333      3D3D41EF 
 333      2D8AF716 
 333      E65DB9E3 
 333      5A230AF3 
 334 060b 0CF32E56 		.ascii	"\014\363.V\274\213\231\267w{g\231>\314\2730\014\311"
 334      BC8B99B7 
 334      777B6799 
 334      3ECCBB30 
 334      0CC9
 335 061d 56C59BCE 		.ascii	"V\305\233\316\2425\323\342\322\377\356\335\\{\226g\236"
 335      A235D3E2 
 335      D2FFEEDD 
 335      5C7B9667 
 335      9E
 336 062e DDF17B41 		.ascii	"\335\361{AgL[a^\236\376\332\022\335\353+2\022\027\277"
 336      674C5B61 
 336      5E9EFEDA 
 336      12DDEB2B 
 336      321217BF 
 337 0642 F0821099 		.ascii	"\360\202\020\231\236\361\2661\343\355\210\264\025\360"
 337      9EF1B631 
 337      E3ED88B4 
 337      15F0
 338 0650 1BCD7ECD 		.ascii	"\033\315~\315\306\214e\3132\214\222q\311\3124\343\033"
 338      C68C65CB 
 338      328C9271 
 338      C9CA34E3 
 338      1B
 339 0661 4B562E5A 		.ascii	"KV.Z\026\033\024\315\340\037\023\242\246\255\010\325"
 339      161B14CD 
 339      E01F13A2 
 339      A6AD08D5 
 340 0671 D25F4B48 		.ascii	"\322_KH1Y\235.\371\305E.[\256\335\3414\033\355\016w"
 340      31599D2E 
 340      F9C5452E 
 340      5BAEDDE1 
 340      341BED0E 
 341 0686 4AA6A005 		.ascii	"J\246\240\005\305\223j\366D\231\315\212\224\207\254"
 341      C5936AF6 
 341      4499CD8A 
 341      9487AC
 342 0695 BF35E5B8 		.ascii	"\2775\345\270\234k\\\226\354\304\325\366,\331\2358\347"
 342      9C6B5C96 
 342      ECC4D5F6 
 342      2CD99D38 
 342      E7
 343 06a6 2FA9BF7E 		.ascii	"/\251\277~\336d]\233\343\222\335nS\216\333iM\264\272"
 343      DE645D9B 
 343      E392DD6E 
 343      538EDB69 
 343      4DB4BA
 344 06b9 648BC7E9 		.ascii	"d\213\307\3512\3752\345\245p\203=;\307\351\362\230\326"
 344      32FD32E5 
 344      A570833D 
ARM GAS  C:\Users\Bruger\AppData\Local\Temp\ccClXZPD.s 			page 27


 344      3BC7E9F2 
 344      98D6
 345 06cb 38724D16 		.ascii	"8rM\026W6\254\277\232\362\012\225\3469\234\016y\236"
 345      5736ACBF 
 345      9AF20A95 
 345      E6399C0E 
 345      799E
 346 06dd 6C79D76E 		.ascii	"ly\327n\262;\254Y\2716\331\224m\261f\332\035\262\311"
 346      B23BAC59 
 346      B936D994 
 346      6DB166DA 
 346      1DB2C9
 347 06f0 6C93575B 		.ascii	"l\223W[r\263<f\317\332\034\231\202z\357\377\205\300"
 347      72B33C66 
 347      CFDA1C99 
 347      827AEFFF 
 347      85C0
 348 0702 EDB10169 		.ascii	"\355\261\001i\250\250\243\344_\231o\366H\274\017T\324"
 348      A8A8A3E4 
 348      5F996FF6 
 348      48BC0F54 
 348      D4
 349 0713 E6E466B9 		.ascii	"\346\344f\271\3454G\214y\325o\024133\373g\264\213&\265"
 349      E534478C 
 349      79D56F14 
 349      313333FB 
 349      67B48B26 
 350 0728 8B8B6CEF 		.ascii	"\213\213l\357[\034V\331fNKO\261\346\344\010:w\246}\265"
 350      5B1C56D9 
 350      664E4B4F 
 350      B1E6E408 
 350      3A77A67D 
 351 073d 273DD713 		.ascii	"'=\327\023g^\225\252\312\231\360i\231\302\223)\"X#y"
 351      675E95AA 
 351      CA99F069 
 351      99C29329 
 351      22582379 
 352 0751 ADD9AFCB 		.ascii	"\255\331\257\313\016\331e\361@\236\267\234\271.\253"
 352      0ED965F1 
 352      409EB79C 
 352      B92EAB
 353 0760 6C32BEE5 		.ascii	"l2\276\345\\\374\253\027\255k\325\216\030\226\333\255"
 353      5CFCAB17 
 353      AD6BD58E 
 353      1896DBAD 
 354 0770 2EA7DBBC 		.ascii	".\247\333\274\330\231\353\360\310.\363J\331bS\34493"
 354      D899EBF0 
 354      C82EF34A 
 354      D96253E4 
 354      3933
 355 0782 04874740 		.ascii	"\004\207G@\016\275\315\276\306\356\261d\321\330x\363"
 355      0EBDCDBE 
 355      C6EEB164 
 355      D1D878F3 
 356 0792 AA975F0E 		.ascii	"\252\227_\016\321\263\2659v\307r\247M\3761%\313\305"
 356      D1B3B539 
 356      76C772A7 
ARM GAS  C:\Users\Bruger\AppData\Local\Temp\ccClXZPD.s 			page 28


 356      4DFE3125 
 356      CBC5
 357 07a4 EC54F550 		.ascii	"\354T\365PF+\236\177t\331=\362\017!t~\250!;\363\177"
 357      462B9E7F 
 357      74D93DF2 
 357      0F21747E 
 357      A8213BF3 
 358 07b9 4EB938DD 		.ascii	"N\2718\335"
 359              		.text
 360              		.section	.gnu.lto_.symtab.24bf7944,"",%progbits
 361 0000 5F5A3770 		.ascii	"_Z7pulseInhhm\000\000\000\000\000\000\000\000\000\000"
 361      756C7365 
 361      496E6868 
 361      6D000000 
 361      00000000 
 362 0017 0000E700 		.ascii	"\000\000\347\000\000\000_Z8shiftOuthhhh\000\000\000"
 362      00005F5A 
 362      38736869 
 362      66744F75 
 362      74686868 
 363 002f 00000000 		.ascii	"\000\000\000\000\000\000\000\000\000\357\000\000\000"
 363      00000000 
 363      00EF0000 
 363      00
 364 003c 5F5A3773 		.ascii	"_Z7shiftInhhh\000\000\000\000\000\000\000\000\000\000"
 364      68696674 
 364      496E6868 
 364      68000000 
 364      00000000 
 365 0053 0000F600 		.ascii	"\000\000\366\000\000\000Micros_Counter_ReadCounter\000"
 365      00004D69 
 365      63726F73 
 365      5F436F75 
 365      6E746572 
 366 0074 00020000 		.ascii	"\000\002\000\000\000\000\000\000\000\000\000\374\000"
 366      00000000 
 366      000000FC 
 366      00
 367 0081 00005F5A 		.ascii	"\000\000_Z11digitalReadm\000\000\002\000\000\000\000"
 367      31316469 
 367      67697461 
 367      6C526561 
 367      646D0000 
 368 009a 00000000 		.ascii	"\000\000\000\000\000\001\001\000\000_Z7pinModem8PIN"
 368      00010100 
 368      005F5A37 
 368      70696E4D 
 368      6F64656D 
 369 00b2 5F4D4F44 		.ascii	"_MODE\000\000\002\000\000\000\000\000\000\000\000\000"
 369      45000002 
 369      00000000 
 369      00000000 
 369      00
 370 00c3 07010000 		.ascii	"\007\001\000\000_Z12digitalWritemh\000\000\002\000\000"
 370      5F5A3132 
 370      64696769 
 370      74616C57 
ARM GAS  C:\Users\Bruger\AppData\Local\Temp\ccClXZPD.s 			page 29


 370      72697465 
 371 00de 00000000 		.ascii	"\000\000\000\000\000\000\000\015\001\000\000"
 371      0000000D 
 371      010000
 372              		.text
 373              		.section	.gnu.lto_.opts,"",%progbits
 374 0000 272D6665 		.ascii	"'-fexceptions' '-fno-trapv' '-mcpu=cortex-m3' '-mth"
 374      78636570 
 374      74696F6E 
 374      73272027 
 374      2D666E6F 
 375 0033 756D6227 		.ascii	"umb' '-g' '-O3' '-ffunction-sections' '-finline-fun"
 375      20272D67 
 375      2720272D 
 375      4F332720 
 375      272D6666 
 376 0066 6374696F 		.ascii	"ctions' '-flto' '-ffat-lto-objects'\000"
 376      6E732720 
 376      272D666C 
 376      746F2720 
 376      272D6666 
 377              		.text
 378              		.cfi_sections	.debug_frame
 379              		.section	.text._Z7pulseInhhm,"ax",%progbits
 380              		.align	2
 381              		.global	_Z7pulseInhhm
 382              		.thumb
 383              		.thumb_func
 384              		.type	_Z7pulseInhhm, %function
 385              	_Z7pulseInhhm:
 386              		.fnstart
 387              	.LFB148:
 388              		.file 1 "core\\Arduino_Advanced_IO.cpp"
   1:core/Arduino_Advanced_IO.cpp **** extern "C" {
   2:core/Arduino_Advanced_IO.cpp **** #include <Project.h>
   3:core/Arduino_Advanced_IO.cpp **** }
   4:core/Arduino_Advanced_IO.cpp **** 
   5:core/Arduino_Advanced_IO.cpp **** #include <stdint.h>
   6:core/Arduino_Advanced_IO.cpp **** #include "Arduino_Advanced_IO.h"
   7:core/Arduino_Advanced_IO.cpp **** #include <Arduino.h>
   8:core/Arduino_Advanced_IO.cpp **** #include "Arduino_Time.h"
   9:core/Arduino_Advanced_IO.cpp **** 
  10:core/Arduino_Advanced_IO.cpp **** uint32_t pulseIn(uint8_t pin, uint8_t level, uint32_t timeout)
  11:core/Arduino_Advanced_IO.cpp **** {
 389              		.loc 1 11 0
 390              		.cfi_startproc
 391              		@ args = 0, pretend = 0, frame = 0
 392              		@ frame_needed = 0, uses_anonymous_args = 0
 393              	.LVL0:
 394 0000 F8B5     		push	{r3, r4, r5, r6, r7, lr}
 395              		.save {r3, r4, r5, r6, r7, lr}
 396              		.cfi_def_cfa_offset 24
 397              		.cfi_offset 3, -24
 398              		.cfi_offset 4, -20
 399              		.cfi_offset 5, -16
 400              		.cfi_offset 6, -12
 401              		.cfi_offset 7, -8
ARM GAS  C:\Users\Bruger\AppData\Local\Temp\ccClXZPD.s 			page 30


 402              		.cfi_offset 14, -4
 403              		.loc 1 11 0
 404 0002 0D46     		mov	r5, r1
 405              	.LBB2:
  12:core/Arduino_Advanced_IO.cpp ****     pinMode(pin, INPUT);
 406              		.loc 1 12 0
 407 0004 0121     		movs	r1, #1
 408              	.LVL1:
 409              	.LBE2:
  11:core/Arduino_Advanced_IO.cpp ****     pinMode(pin, INPUT);
 410              		.loc 1 11 0
 411 0006 1746     		mov	r7, r2
 412 0008 0446     		mov	r4, r0
 413              	.LBB3:
 414              		.loc 1 12 0
 415 000a FFF7FEFF 		bl	_Z7pinModem8PIN_MODE
 416              	.LVL2:
  13:core/Arduino_Advanced_IO.cpp ****     uint32_t clockStart = micros();
 417              		.loc 1 13 0
 418 000e FFF7FEFF 		bl	Micros_Counter_ReadCounter
 419              	.LVL3:
 420 0012 0646     		mov	r6, r0
 421              	.LVL4:
  14:core/Arduino_Advanced_IO.cpp ****     while (digitalRead(pin) != level)
 422              		.loc 1 14 0
 423 0014 04E0     		b	.L2
 424              	.LVL5:
 425              	.L4:
  15:core/Arduino_Advanced_IO.cpp ****     {
  16:core/Arduino_Advanced_IO.cpp ****         if (micros() - clockStart >= timeout) return 0;
 426              		.loc 1 16 0
 427 0016 FFF7FEFF 		bl	Micros_Counter_ReadCounter
 428              	.LVL6:
 429 001a 801B     		subs	r0, r0, r6
 430 001c B842     		cmp	r0, r7
 431 001e 10D2     		bcs	.L6
 432              	.L2:
  14:core/Arduino_Advanced_IO.cpp ****     while (digitalRead(pin) != level)
 433              		.loc 1 14 0
 434 0020 2046     		mov	r0, r4
 435 0022 FFF7FEFF 		bl	_Z11digitalReadm
 436              	.LVL7:
 437 0026 A842     		cmp	r0, r5
 438 0028 F5D1     		bne	.L4
  17:core/Arduino_Advanced_IO.cpp ****     }
  18:core/Arduino_Advanced_IO.cpp ****     clockStart = micros();
 439              		.loc 1 18 0
 440 002a FFF7FEFF 		bl	Micros_Counter_ReadCounter
 441              	.LVL8:
 442 002e 0646     		mov	r6, r0
 443              	.LVL9:
 444              	.L5:
  19:core/Arduino_Advanced_IO.cpp ****     while (digitalRead(pin) == level){};
 445              		.loc 1 19 0 discriminator 1
 446 0030 2046     		mov	r0, r4
 447 0032 FFF7FEFF 		bl	_Z11digitalReadm
 448              	.LVL10:
ARM GAS  C:\Users\Bruger\AppData\Local\Temp\ccClXZPD.s 			page 31


 449 0036 8542     		cmp	r5, r0
 450 0038 FAD0     		beq	.L5
  20:core/Arduino_Advanced_IO.cpp ****     return micros() - clockStart;
 451              		.loc 1 20 0
 452 003a FFF7FEFF 		bl	Micros_Counter_ReadCounter
 453              	.LVL11:
 454 003e 801B     		subs	r0, r0, r6
 455 0040 F8BD     		pop	{r3, r4, r5, r6, r7, pc}
 456              	.LVL12:
 457              	.L6:
  16:core/Arduino_Advanced_IO.cpp ****     }
 458              		.loc 1 16 0
 459 0042 0020     		movs	r0, #0
 460              	.LBE3:
  21:core/Arduino_Advanced_IO.cpp **** }
 461              		.loc 1 21 0
 462 0044 F8BD     		pop	{r3, r4, r5, r6, r7, pc}
 463              		.cfi_endproc
 464              	.LFE148:
 465              		.fnend
 466              		.size	_Z7pulseInhhm, .-_Z7pulseInhhm
 467 0046 00BF     		.section	.text._Z8shiftOuthhhh,"ax",%progbits
 468              		.align	2
 469              		.global	_Z8shiftOuthhhh
 470              		.thumb
 471              		.thumb_func
 472              		.type	_Z8shiftOuthhhh, %function
 473              	_Z8shiftOuthhhh:
 474              		.fnstart
 475              	.LFB149:
  22:core/Arduino_Advanced_IO.cpp **** 
  23:core/Arduino_Advanced_IO.cpp **** void shiftOut(uint8_t dataPin, uint8_t clockPin, uint8_t bitOrder, \
  24:core/Arduino_Advanced_IO.cpp ****     uint8_t value)
  25:core/Arduino_Advanced_IO.cpp **** {
 476              		.loc 1 25 0
 477              		.cfi_startproc
 478              		@ args = 0, pretend = 0, frame = 0
 479              		@ frame_needed = 0, uses_anonymous_args = 0
 480              	.LVL13:
 481 0000 F8B5     		push	{r3, r4, r5, r6, r7, lr}
 482              		.save {r3, r4, r5, r6, r7, lr}
 483              		.cfi_def_cfa_offset 24
 484              		.cfi_offset 3, -24
 485              		.cfi_offset 4, -20
 486              		.cfi_offset 5, -16
 487              		.cfi_offset 6, -12
 488              		.cfi_offset 7, -8
 489              		.cfi_offset 14, -4
 490              		.loc 1 25 0
 491 0002 0C46     		mov	r4, r1
 492 0004 1546     		mov	r5, r2
 493              	.LBB4:
  26:core/Arduino_Advanced_IO.cpp ****     pinMode(dataPin, OUTPUT);
 494              		.loc 1 26 0
 495 0006 0021     		movs	r1, #0
 496              	.LVL14:
 497              	.LBE4:
ARM GAS  C:\Users\Bruger\AppData\Local\Temp\ccClXZPD.s 			page 32


  25:core/Arduino_Advanced_IO.cpp ****     pinMode(dataPin, OUTPUT);
 498              		.loc 1 25 0
 499 0008 1E46     		mov	r6, r3
 500 000a 0746     		mov	r7, r0
 501              	.LBB5:
 502              		.loc 1 26 0
 503 000c FFF7FEFF 		bl	_Z7pinModem8PIN_MODE
 504              	.LVL15:
  27:core/Arduino_Advanced_IO.cpp ****     pinMode(clockPin, OUTPUT);
 505              		.loc 1 27 0
 506 0010 2046     		mov	r0, r4
 507 0012 0021     		movs	r1, #0
 508 0014 FFF7FEFF 		bl	_Z7pinModem8PIN_MODE
 509              	.LVL16:
  28:core/Arduino_Advanced_IO.cpp ****     uint8_t i;
  29:core/Arduino_Advanced_IO.cpp ****     if (bitOrder == LSBFIRST)
 510              		.loc 1 29 0
 511 0018 012D     		cmp	r5, #1
 512 001a 4FF00005 		mov	r5, #0
 513 001e 20D0     		beq	.L14
 514              	.L17:
 515              	.LVL17:
  30:core/Arduino_Advanced_IO.cpp ****     {
  31:core/Arduino_Advanced_IO.cpp ****         for(i = 0; i<8; i++)
  32:core/Arduino_Advanced_IO.cpp ****         {
  33:core/Arduino_Advanced_IO.cpp ****             if (value>>i & 0x01) digitalWrite(dataPin, HIGH);
  34:core/Arduino_Advanced_IO.cpp ****             else                 digitalWrite(dataPin, LOW);
  35:core/Arduino_Advanced_IO.cpp ****             digitalWrite(clockPin, digitalRead(clockPin) ^ 0x01);
  36:core/Arduino_Advanced_IO.cpp ****             digitalWrite(clockPin, digitalRead(clockPin) ^ 0x01);
  37:core/Arduino_Advanced_IO.cpp ****         }
  38:core/Arduino_Advanced_IO.cpp ****     }
  39:core/Arduino_Advanced_IO.cpp ****     else
  40:core/Arduino_Advanced_IO.cpp ****     {
  41:core/Arduino_Advanced_IO.cpp ****         for(i = 0; i<8; i++)
  42:core/Arduino_Advanced_IO.cpp ****         {
  43:core/Arduino_Advanced_IO.cpp ****             if (value<<i & 0x80) digitalWrite(dataPin, HIGH);
 516              		.loc 1 43 0
 517 0020 06FA05F1 		lsl	r1, r6, r5
 518 0024 11F08003 		ands	r3, r1, #128
  44:core/Arduino_Advanced_IO.cpp ****             else                 digitalWrite(dataPin, LOW);
 519              		.loc 1 44 0
 520 0028 3846     		mov	r0, r7
  43:core/Arduino_Advanced_IO.cpp ****             else                 digitalWrite(dataPin, LOW);
 521              		.loc 1 43 0
 522 002a 4FF00101 		mov	r1, #1
 523              		.loc 1 44 0
 524 002e 08BF     		it	eq
 525 0030 1946     		moveq	r1, r3
 526 0032 FFF7FEFF 		bl	_Z12digitalWritemh
 527              	.LVL18:
  45:core/Arduino_Advanced_IO.cpp ****             digitalWrite(clockPin, digitalRead(clockPin) ^ 0x01);
 528              		.loc 1 45 0
 529 0036 2046     		mov	r0, r4
 530 0038 FFF7FEFF 		bl	_Z11digitalReadm
 531              	.LVL19:
 532 003c 80F00101 		eor	r1, r0, #1
 533 0040 C9B2     		uxtb	r1, r1
ARM GAS  C:\Users\Bruger\AppData\Local\Temp\ccClXZPD.s 			page 33


 534 0042 2046     		mov	r0, r4
 535 0044 FFF7FEFF 		bl	_Z12digitalWritemh
 536              	.LVL20:
  46:core/Arduino_Advanced_IO.cpp ****             digitalWrite(clockPin, digitalRead(clockPin) ^ 0x01);
 537              		.loc 1 46 0
 538 0048 2046     		mov	r0, r4
 539 004a FFF7FEFF 		bl	_Z11digitalReadm
 540              	.LVL21:
 541 004e 80F00101 		eor	r1, r0, #1
 542 0052 0135     		adds	r5, r5, #1
 543              	.LVL22:
 544 0054 C9B2     		uxtb	r1, r1
 545 0056 2046     		mov	r0, r4
 546 0058 FFF7FEFF 		bl	_Z12digitalWritemh
 547              	.LVL23:
  41:core/Arduino_Advanced_IO.cpp ****         {
 548              		.loc 1 41 0
 549 005c 082D     		cmp	r5, #8
 550 005e DFD1     		bne	.L17
 551 0060 F8BD     		pop	{r3, r4, r5, r6, r7, pc}
 552              	.L14:
 553              	.LVL24:
  33:core/Arduino_Advanced_IO.cpp ****             else                 digitalWrite(dataPin, LOW);
 554              		.loc 1 33 0
 555 0062 46FA05F1 		asr	r1, r6, r5
 556 0066 11F00103 		ands	r3, r1, #1
  34:core/Arduino_Advanced_IO.cpp ****             digitalWrite(clockPin, digitalRead(clockPin) ^ 0x01);
 557              		.loc 1 34 0
 558 006a 3846     		mov	r0, r7
  33:core/Arduino_Advanced_IO.cpp ****             else                 digitalWrite(dataPin, LOW);
 559              		.loc 1 33 0
 560 006c 4FF00101 		mov	r1, #1
  34:core/Arduino_Advanced_IO.cpp ****             digitalWrite(clockPin, digitalRead(clockPin) ^ 0x01);
 561              		.loc 1 34 0
 562 0070 08BF     		it	eq
 563 0072 1946     		moveq	r1, r3
 564 0074 FFF7FEFF 		bl	_Z12digitalWritemh
 565              	.LVL25:
  35:core/Arduino_Advanced_IO.cpp ****             digitalWrite(clockPin, digitalRead(clockPin) ^ 0x01);
 566              		.loc 1 35 0
 567 0078 2046     		mov	r0, r4
 568 007a FFF7FEFF 		bl	_Z11digitalReadm
 569              	.LVL26:
 570 007e 80F00101 		eor	r1, r0, #1
 571 0082 C9B2     		uxtb	r1, r1
 572 0084 2046     		mov	r0, r4
 573 0086 FFF7FEFF 		bl	_Z12digitalWritemh
 574              	.LVL27:
  36:core/Arduino_Advanced_IO.cpp ****         }
 575              		.loc 1 36 0
 576 008a 2046     		mov	r0, r4
 577 008c FFF7FEFF 		bl	_Z11digitalReadm
 578              	.LVL28:
 579 0090 80F00101 		eor	r1, r0, #1
 580 0094 0135     		adds	r5, r5, #1
 581              	.LVL29:
 582 0096 C9B2     		uxtb	r1, r1
ARM GAS  C:\Users\Bruger\AppData\Local\Temp\ccClXZPD.s 			page 34


 583 0098 2046     		mov	r0, r4
 584 009a FFF7FEFF 		bl	_Z12digitalWritemh
 585              	.LVL30:
  31:core/Arduino_Advanced_IO.cpp ****         {
 586              		.loc 1 31 0
 587 009e 082D     		cmp	r5, #8
 588 00a0 DFD1     		bne	.L14
 589 00a2 F8BD     		pop	{r3, r4, r5, r6, r7, pc}
 590              	.LBE5:
 591              		.cfi_endproc
 592              	.LFE149:
 593              		.fnend
 594              		.size	_Z8shiftOuthhhh, .-_Z8shiftOuthhhh
 595              		.section	.text._Z7shiftInhhh,"ax",%progbits
 596              		.align	2
 597              		.global	_Z7shiftInhhh
 598              		.thumb
 599              		.thumb_func
 600              		.type	_Z7shiftInhhh, %function
 601              	_Z7shiftInhhh:
 602              		.fnstart
 603              	.LFB150:
  47:core/Arduino_Advanced_IO.cpp ****         }
  48:core/Arduino_Advanced_IO.cpp ****     }
  49:core/Arduino_Advanced_IO.cpp **** }
  50:core/Arduino_Advanced_IO.cpp **** 
  51:core/Arduino_Advanced_IO.cpp **** uint8_t shiftIn(uint8_t dataPin, uint8_t clockPin, uint8_t bitOrder)
  52:core/Arduino_Advanced_IO.cpp **** {
 604              		.loc 1 52 0
 605              		.cfi_startproc
 606              		@ args = 0, pretend = 0, frame = 0
 607              		@ frame_needed = 0, uses_anonymous_args = 0
 608              	.LVL31:
 609 0000 F8B5     		push	{r3, r4, r5, r6, r7, lr}
 610              		.save {r3, r4, r5, r6, r7, lr}
 611              		.cfi_def_cfa_offset 24
 612              		.cfi_offset 3, -24
 613              		.cfi_offset 4, -20
 614              		.cfi_offset 5, -16
 615              		.cfi_offset 6, -12
 616              		.cfi_offset 7, -8
 617              		.cfi_offset 14, -4
 618              		.loc 1 52 0
 619 0002 0D46     		mov	r5, r1
 620 0004 1446     		mov	r4, r2
 621              	.LBB6:
  53:core/Arduino_Advanced_IO.cpp ****     pinMode(dataPin, INPUT);
 622              		.loc 1 53 0
 623 0006 0121     		movs	r1, #1
 624              	.LVL32:
 625              	.LBE6:
  52:core/Arduino_Advanced_IO.cpp ****     pinMode(dataPin, INPUT);
 626              		.loc 1 52 0
 627 0008 0746     		mov	r7, r0
 628              	.LBB7:
 629              		.loc 1 53 0
 630 000a FFF7FEFF 		bl	_Z7pinModem8PIN_MODE
ARM GAS  C:\Users\Bruger\AppData\Local\Temp\ccClXZPD.s 			page 35


 631              	.LVL33:
  54:core/Arduino_Advanced_IO.cpp ****     pinMode(clockPin, OUTPUT);
 632              		.loc 1 54 0
 633 000e 2846     		mov	r0, r5
 634 0010 0021     		movs	r1, #0
 635 0012 FFF7FEFF 		bl	_Z7pinModem8PIN_MODE
 636              	.LVL34:
  55:core/Arduino_Advanced_IO.cpp ****     uint8_t i;
  56:core/Arduino_Advanced_IO.cpp ****     uint8_t rxByte = 0;
  57:core/Arduino_Advanced_IO.cpp ****     if (bitOrder == LSBFIRST)
 637              		.loc 1 57 0
 638 0016 012C     		cmp	r4, #1
 639 0018 4FF00806 		mov	r6, #8
 640 001c 4FF00004 		mov	r4, #0
 641 0020 1FD0     		beq	.L27
 642              	.LVL35:
 643              	.L25:
  58:core/Arduino_Advanced_IO.cpp ****     {
  59:core/Arduino_Advanced_IO.cpp ****         for(i = 0; i<8; i++)
  60:core/Arduino_Advanced_IO.cpp ****         {
  61:core/Arduino_Advanced_IO.cpp ****             rxByte = rxByte << 1;
  62:core/Arduino_Advanced_IO.cpp ****             if (digitalRead(dataPin)) rxByte |= 0x01;
  63:core/Arduino_Advanced_IO.cpp ****             digitalWrite(clockPin, digitalRead(clockPin) ^ 0x01);
  64:core/Arduino_Advanced_IO.cpp ****             digitalWrite(clockPin, digitalRead(clockPin) ^ 0x01);
  65:core/Arduino_Advanced_IO.cpp ****         }
  66:core/Arduino_Advanced_IO.cpp ****     }
  67:core/Arduino_Advanced_IO.cpp ****     else
  68:core/Arduino_Advanced_IO.cpp ****     {
  69:core/Arduino_Advanced_IO.cpp ****         for(i = 0; i<8; i++)
  70:core/Arduino_Advanced_IO.cpp ****         {
  71:core/Arduino_Advanced_IO.cpp ****             rxByte = rxByte >> 1;
  72:core/Arduino_Advanced_IO.cpp ****             if (digitalRead(dataPin)) rxByte |= 0x80;
 644              		.loc 1 72 0
 645 0022 3846     		mov	r0, r7
  71:core/Arduino_Advanced_IO.cpp ****             if (digitalRead(dataPin)) rxByte |= 0x80;
 646              		.loc 1 71 0
 647 0024 6408     		lsrs	r4, r4, #1
 648              	.LVL36:
 649              		.loc 1 72 0
 650 0026 FFF7FEFF 		bl	_Z11digitalReadm
 651              	.LVL37:
 652 002a 10B1     		cbz	r0, .L29
 653              		.loc 1 72 0 is_stmt 0 discriminator 1
 654 002c 64F07F04 		orn	r4, r4, #127
 655              	.LVL38:
 656 0030 E4B2     		uxtb	r4, r4
 657              	.LVL39:
 658              	.L29:
  73:core/Arduino_Advanced_IO.cpp ****             digitalWrite(clockPin, digitalRead(clockPin) ^ 0x01);
 659              		.loc 1 73 0 is_stmt 1 discriminator 2
 660 0032 2846     		mov	r0, r5
 661 0034 FFF7FEFF 		bl	_Z11digitalReadm
 662              	.LVL40:
 663 0038 80F00101 		eor	r1, r0, #1
 664 003c C9B2     		uxtb	r1, r1
 665 003e 2846     		mov	r0, r5
 666 0040 FFF7FEFF 		bl	_Z12digitalWritemh
ARM GAS  C:\Users\Bruger\AppData\Local\Temp\ccClXZPD.s 			page 36


 667              	.LVL41:
  74:core/Arduino_Advanced_IO.cpp ****             digitalWrite(clockPin, digitalRead(clockPin) ^ 0x01);
 668              		.loc 1 74 0 discriminator 2
 669 0044 2846     		mov	r0, r5
 670 0046 FFF7FEFF 		bl	_Z11digitalReadm
 671              	.LVL42:
 672 004a 80F00101 		eor	r1, r0, #1
 673 004e C9B2     		uxtb	r1, r1
 674 0050 2846     		mov	r0, r5
 675 0052 FFF7FEFF 		bl	_Z12digitalWritemh
 676              	.LVL43:
 677 0056 731E     		subs	r3, r6, #1
  69:core/Arduino_Advanced_IO.cpp ****         {
 678              		.loc 1 69 0 discriminator 2
 679 0058 13F0FF06 		ands	r6, r3, #255
 680 005c E1D1     		bne	.L25
 681              	.LBE7:
  75:core/Arduino_Advanced_IO.cpp ****         }
  76:core/Arduino_Advanced_IO.cpp ****     }
  77:core/Arduino_Advanced_IO.cpp ****     return rxByte;
  78:core/Arduino_Advanced_IO.cpp **** }
 682              		.loc 1 78 0
 683 005e 2046     		mov	r0, r4
 684 0060 F8BD     		pop	{r3, r4, r5, r6, r7, pc}
 685              	.LVL44:
 686              	.L27:
 687              	.LBB8:
  61:core/Arduino_Advanced_IO.cpp ****             if (digitalRead(dataPin)) rxByte |= 0x01;
 688              		.loc 1 61 0
 689 0062 6400     		lsls	r4, r4, #1
 690              	.LVL45:
  62:core/Arduino_Advanced_IO.cpp ****             digitalWrite(clockPin, digitalRead(clockPin) ^ 0x01);
 691              		.loc 1 62 0
 692 0064 3846     		mov	r0, r7
  61:core/Arduino_Advanced_IO.cpp ****             if (digitalRead(dataPin)) rxByte |= 0x01;
 693              		.loc 1 61 0
 694 0066 E4B2     		uxtb	r4, r4
 695              	.LVL46:
  62:core/Arduino_Advanced_IO.cpp ****             digitalWrite(clockPin, digitalRead(clockPin) ^ 0x01);
 696              		.loc 1 62 0
 697 0068 FFF7FEFF 		bl	_Z11digitalReadm
 698              	.LVL47:
 699 006c 08B1     		cbz	r0, .L26
  62:core/Arduino_Advanced_IO.cpp ****             digitalWrite(clockPin, digitalRead(clockPin) ^ 0x01);
 700              		.loc 1 62 0 is_stmt 0 discriminator 1
 701 006e 44F00104 		orr	r4, r4, #1
 702              	.LVL48:
 703              	.L26:
  63:core/Arduino_Advanced_IO.cpp ****             digitalWrite(clockPin, digitalRead(clockPin) ^ 0x01);
 704              		.loc 1 63 0 is_stmt 1 discriminator 2
 705 0072 2846     		mov	r0, r5
 706 0074 FFF7FEFF 		bl	_Z11digitalReadm
 707              	.LVL49:
 708 0078 80F00101 		eor	r1, r0, #1
 709 007c C9B2     		uxtb	r1, r1
 710 007e 2846     		mov	r0, r5
 711 0080 FFF7FEFF 		bl	_Z12digitalWritemh
ARM GAS  C:\Users\Bruger\AppData\Local\Temp\ccClXZPD.s 			page 37


 712              	.LVL50:
  64:core/Arduino_Advanced_IO.cpp ****         }
 713              		.loc 1 64 0 discriminator 2
 714 0084 2846     		mov	r0, r5
 715 0086 FFF7FEFF 		bl	_Z11digitalReadm
 716              	.LVL51:
 717 008a 80F00101 		eor	r1, r0, #1
 718 008e C9B2     		uxtb	r1, r1
 719 0090 2846     		mov	r0, r5
 720 0092 FFF7FEFF 		bl	_Z12digitalWritemh
 721              	.LVL52:
 722 0096 731E     		subs	r3, r6, #1
  59:core/Arduino_Advanced_IO.cpp ****         {
 723              		.loc 1 59 0 discriminator 2
 724 0098 13F0FF06 		ands	r6, r3, #255
 725 009c E1D1     		bne	.L27
 726              	.LBE8:
 727              		.loc 1 78 0
 728 009e 2046     		mov	r0, r4
 729 00a0 F8BD     		pop	{r3, r4, r5, r6, r7, pc}
 730              		.cfi_endproc
 731              	.LFE150:
 732              		.fnend
 733              		.size	_Z7shiftInhhh, .-_Z7shiftInhhh
 734 00a2 00BF     		.text
 735              	.Letext0:
 736              		.file 2 "c:\\program files (x86)\\cypress\\psoc creator\\4.0\\psoc creator\\import\\gnu\\arm\\4.9.
 737              		.file 3 "c:\\program files (x86)\\cypress\\psoc creator\\4.0\\psoc creator\\import\\gnu\\arm\\4.9.
 738              		.file 4 "Generated_Source\\PSoC5/cytypes.h"
 739              		.file 5 ".\\core/pins_arduino.h"
 740              		.file 6 ".\\core/Arduino_Pins.h"
 741              		.file 7 "Generated_Source\\PSoC5/core_cm3.h"
 742              		.file 8 "Generated_Source\\PSoC5/Micros_Counter.h"