ARM GAS  C:\Users\Bruger\AppData\Local\Temp\ccL4aqFN.s 			page 1


   1              		.syntax unified
   2              		.cpu cortex-m3
   3              		.fpu softvfp
   4              		.eabi_attribute 20, 1
   5              		.eabi_attribute 21, 1
   6              		.eabi_attribute 23, 3
   7              		.eabi_attribute 24, 1
   8              		.eabi_attribute 25, 1
   9              		.eabi_attribute 26, 1
  10              		.eabi_attribute 30, 2
  11              		.eabi_attribute 34, 1
  12              		.eabi_attribute 18, 4
  13              		.thumb
  14              		.file	"Bootloadable.c"
  15              		.text
  16              	.Ltext0:
  17              		.section	.gnu.lto_.profile.24c05542,"",%progbits
  18 0000 789C6366 		.ascii	"x\234cf```a\200\000F\006#Q\000\000\355\000P"
  18      60606061 
  18      80004606 
  18      23510000 
  18      ED0050
  19              		.text
  20              		.section	.gnu.lto_.jmpfuncs.24c05542,"",%progbits
  21 0000 789C6366 		.ascii	"x\234cf\300\016D\2414\023\210`dbdd\256\257g`\206\012"
  21      C00E44A1 
  21      34138860 
  21      64626464 
  21      AEAF6760 
  22 0016 02000E4F 		.ascii	"\002\000\016O\001$"
  22      0124
  23              		.text
  24              		.section	.gnu.lto_.inline.24c05542,"",%progbits
  25 0000 789C6366 		.ascii	"x\234cf\300\016<\2414\023\003\003+/#\003\023\323\005"
  25      C00E3CA1 
  25      34130303 
  25      2B2F2303 
  25      13D305
  26 0013 7E06B605 		.ascii	"~\006\266\005\362L 1F.\020\321\300$\362\231\205\221"
  26      F24C2031 
  26      462E10D1 
  26      C024F299 
  26      8591
  27 0025 91819181 		.ascii	"\221\201\221\201\201\231o\302\007\017\2104\327\004?"
  27      81996FC2 
  27      070F8834 
  27      D7043F
  28 0034 16A02C0B 		.ascii	"\026\240,\013D\021\013/Pr\202\337\004?\006\006\000A"
  28      44110B2F 
  28      507282DF 
  28      043F0606 
  28      0041
  29 0046 DF0913   		.ascii	"\337\011\023"
  30              		.text
  31              		.section	.gnu.lto_.pureconst.24c05542,"",%progbits
  32 0000 789C6366 		.ascii	"x\234cf```e\200\000&\006)FI\000\000\370\000?"
  32      60606065 
ARM GAS  C:\Users\Bruger\AppData\Local\Temp\ccL4aqFN.s 			page 2


  32      80002606 
  32      29464900 
  32      00F8003F 
  33              		.text
  34              		.section	.gnu.lto_Bootloadable_Load.24c05542,"",%progbits
  35 0000 789C658F 		.ascii	"x\234e\217\277KBQ\024\307\317\367\274\247<\221 \032"
  35      BF4B4251 
  35      14C7CFF7 
  35      BCA73C91 
  35      201A
  36 0012 FD03B2A9 		.ascii	"\375\003\262\251\255=jh\025\\\2050}\233\364@l\024\357"
  36      AD3D6A68 
  36      155C8530 
  36      7D9BF440 
  36      6C14EF
  37 0025 23879642 		.ascii	"#\207\226B\232\212\260%$\313\324~\321$\365j\015\212"
  37      9A8AB025 
  37      24CBD47E 
  37      D124F56A 
  37      0D8A
  38 0037 6808226A 		.ascii	"h\010\"j\261\310MszE\330\271:v\341r\356\275\337\357"
  38      B1C84D73 
  38      7A45D8B9 
  38      3A76E172 
  38      EEBDDFEF 
  39 004b F9DCEF31 		.ascii	"\371\334\3571\350\377\212\3106@4%\025\006\201KwD\256"
  39      E8FF8AC8 
  39      36403425 
  39      1506814B 
  39      7744AE
  40 005e C5803E10 		.ascii	"\305\200>\020\250\300(\240\303=F\311\253m\205\243\025"
  40      A8C028A0 
  40      C33D46C9 
  40      AB6D85A3 
  40      15
  41 006f A55477F3 		.ascii	"\245Tw\363\326\215y\360\231\250\317#\016\366\021%1\365"
  41      D68D79F0 
  41      99A8CF23 
  41      0EF61125 
  41      31F5
  42 0081 8ABF4FE1 		.ascii	"\212\277O\341`QL\343#\015U\004\205O\315\011O\015\006"
  42      60514CE3 
  42      230D5504 
  42      854FCD09 
  42      4F0D06
  43 0094 67F5EB4B 		.ascii	"g\365\353K\230Dm\221\364\007\357\314\272\032\317\270"
  43      98446D91 
  43      F407EFCC 
  43      BA1ACFB8 
  44 00a4 E91E3702 		.ascii	"\351\0367\002\332,\220\355\217jg\354\223}\306\367\272"
  44      DA2C90ED 
  44      8F6A67EC 
  44      937DC6F7 
  44      BA
  45 00b5 AB4CCD7D 		.ascii	"\253L\315}k\337?X\303'\322\327\223\326\327y\250\214"
  45      6BDF3F58 
  45      C327D2D7 
ARM GAS  C:\Users\Bruger\AppData\Local\Temp\ccL4aqFN.s 			page 3


  45      93D6D779 
  45      A88C
  46 00c7 1DB72829 		.ascii	"\035\267()\030\007\210\340\0202\013j(C\364\323\275\312"
  46      180788E0 
  46      10320B6A 
  46      2843F4D3 
  46      BDCA
  47 00d9 4548DB8D 		.ascii	"EH\333\215Y\302\221(/X\365Z\320|\335\276\373\270\321"
  47      59C29128 
  47      2F58F55A 
  47      D07CDDBE 
  47      FBB8D1
  48 00ec E0FC8F5A 		.ascii	"\340\374\217ZS\226\317f_CQG\236|\016\320+\\\357j\230"
  48      5396CF66 
  48      5F435147 
  48      9E7C0ED0 
  48      2B5CEF6A 
  49 0101 44CFD516 		.ascii	"D\317\325\026M\002J\334\311\005{\331\316&svz1\356\254"
  49      4D024ADC 
  49      C9057BD9 
  49      CE267376 
  49      7A31EEAC 
  50 0115 64537622 		.ascii	"dSv\"\026w\346g\022s\216\223\3138\311tr)cO\247\350\017"
  50      1677E667 
  50      12738E93 
  50      CB38C974 
  50      7229634F 
  51 012c 29036BF9 		.ascii	")\003k\371"
  52              		.text
  53              		.section	.gnu.lto_Bootloadable_SetFlashByte.24c05542,"",%progbits
  54 0000 789C7554 		.ascii	"x\234uTkL\\E\024\2363s_\313.\317&J\210\211F\202\330"
  54      6B4C5C45 
  54      149E3373 
  54      5FCB2ECF 
  54      264A8889 
  55 0017 A4DAF8C3 		.ascii	"\244\332\370\303F\377\265jb\032\023S\255?\214ib\266"
  55      46FFB56A 
  55      621A1353 
  55      AD3F8C69 
  55      62B6
  56 0029 DD3535A1 		.ascii	"\33555\241\254Y \332\037\244S\226\262\330\304\202\030"
  56      AC5920DA 
  56      1FA45396 
  56      B2D8C482 
  56      18
  57 003a 5BA4625B 		.ascii	"[\244b[\215-\333\007\324\002m\201\002\313J\201\312+"
  57      8D2DDB07 
  57      D4026D81 
  57      02CB4A81 
  57      CA2B
  58 004c 6D2D2D84 		.ascii	"m--\204\000V@\024\332H\300\302\325\332\365\314\014\220"
  58      00564014 
  58      DA48C0C2 
  58      D5DAF5CC 
  58      0C90
  59 005e D5CA4DE6 		.ascii	"\325\312M\346\356\235\263\347\373\316w\316\2343\214"
  59      EE9DB3E7 
ARM GAS  C:\Users\Bruger\AppData\Local\Temp\ccL4aqFN.s 			page 4


  59      FBCE77CE 
  59      9C338C
  60 006d 3CFCBC86 		.ascii	"<\374\274\206\353\220A\210\007\177\301 @K\373\010\331"
  60      EB904188 
  60      077FC120 
  60      404BFB08 
  60      D9
  61 007e 6B51D0D4 		.ascii	"kQ\320\324\007S\037m\226F\331\351^Bx\234>\216o\227\016"
  61      07531F6D 
  61      9646D9E9 
  61      5E42789C 
  61      3E8E6F97 
  62 0093 20EC04C8 		.ascii	" \354\004\310\036\3124\035\366P\215\000\247r\341\363"
  62      1ECA341D 
  62      F6508D00 
  62      A772E1F3 
  63 00a3 2B9DA550 		.ascii	"+\235\245P\032>U\356\314\374\226s\376{\304N\335\227"
  63      1A3E55EE 
  63      CCFC9673 
  63      FE7BC44E 
  63      DD97
  64 00b5 6AE35F73 		.ascii	"j\343_sT\305\205\023\220)\\\246\007K\\l-\020\374n\250"
  64      54C58513 
  64      90295CA6 
  64      074B5C6C 
  64      2D10FC6E 
  65 00ca 9EEF754E 		.ascii	"\236\357uNQ\233\302\023b\333X\326Un\210-2\343\366\267"
  65      519BC213 
  65      62DB58D6 
  65      556E882D 
  65      32E3F6B7 
  66 00de 8F6F4458 		.ascii	"\217oDX\3067\234\027\204\373\317\361\215\232M\031T\001"
  66      C6379C17 
  66      84FBCFF1 
  66      8D9A4D19 
  66      5401
  67 00f0 433E0841 		.ascii	"C>\010A\032\234\2044\202&\002\247 \003\275?/\355\270"
  67      1A9C8434 
  67      822602A7 
  67      2003BD3F 
  67      2FEDB8
  68 0103 ADB1E724 		.ascii	"\255\261\347$\357\217\365\027'\251B\336\255\346\033"
  68      EF8FF517 
  68      27A942DE 
  68      ADE61B
  69 0112 C1A61A9C 		.ascii	"\301\246\032\234V\310ui\260V\340P\373\031\310\020\316"
  69      56C87569 
  69      B056E050 
  69      FB19C810 
  69      CE
  70 0123 272EDC0D 		.ascii	"'.\334\015X\354E\011\374\271+\362\2053\375\030\002\307"
  70      58EC4509 
  70      FCB92BF2 
  70      8533FD18 
  70      02C7
  71 0135 FA829D2E 		.ascii	"\372\202\235.\336\305\013\307\242\321\307E\344\352\177"
  71      DEC50BC7 
ARM GAS  C:\Users\Bruger\AppData\Local\Temp\ccL4aqFN.s 			page 5


  71      A2D1C745 
  71      E4EA7F
  72 0144 47560F42 		.ascii	"GV\017B\006\333\366W\350l\223\204\2175\366\034\261d"
  72      06DBF657 
  72      E86C9384 
  72      8F35F61C 
  72      B164
  73 0156 3E3C49EC 		.ascii	"><I\354\233zB5T&\2045\302\375L\363\311P\002\322\207"
  73      9B7A4235 
  73      54268435 
  73      C2FD4CF3 
  73      C95002D2 
  74 016b F9D1FECC 		.ascii	"\371\321\376\314\025n\035\316*\356\357\220\373\\,\367"
  74      156E1DCE 
  74      2AEEEF90 
  74      FB5C2CF7 
  75 017b F0F5CE9D 		.ascii	"\360\365\316\235l\263\244\376\363\312l\266\0226\364"
  75      6CB3A4FE 
  75      F3CA6CB6 
  75      1236F4
  76 018a 4BA79397 		.ascii	"K\247\223\227/\2035\250\213Ml\005:\037\231\034\005\366"
  76      2F8335A8 
  76      8B4D6C05 
  76      3A1F991C 
  76      05F6
  77 019c 86C476DF 		.ascii	"\206\304v\337^\234sIYRU\305\315\211y&UIQ]S=3TQO\005"
  77      5E9C7349 
  77      595255C5 
  77      CD897926 
  77      5549515D 
  78 01b7 F7BB78D5 		.ascii	"\367\273x\3252\265\001\347\025\365\005\324u1V\327\275"
  78      32B501E7 
  78      15F505D4 
  78      753156D7 
  78      BD
  79 01c8 D98E27D9 		.ascii	"\331\216'\331\333\222;\324\020\334\007\012=\375\237"
  79      DB923BD4 
  79      10DC070A 
  79      3DFD9F
  80 01d7 8A35AE52 		.ascii	"\2125\256R\261\372\320\361O(s\253\212\265\327\314\230"
  80      B1FAD0F1 
  80      4F2873AB 
  80      8AB5D7CC 
  80      98
  81 01e8 127E7426 		.ascii	"\022~t&h\304\204\276\264J\350\331\302\277o:\215B\354"
  81      68C484BE 
  81      B44AE8D9 
  81      C2BF6F3A 
  81      8D42EC
  82 01fb B024A881 		.ascii	"\260$\250\201t\250\305U\217\253\001W\023\256fHW\035"
  82      74A8C555 
  82      8FAB0157 
  82      13AE6648 
  82      571D
  83 020d 072D6000 		.ascii	"\007-`\000!\372\377y\324\244\204y4:7\371Yq\246\226\012"
  83      21FAFF79 
  83      D4A48479 
ARM GAS  C:\Users\Bruger\AppData\Local\Temp\ccL4aqFN.s 			page 6


  83      343A37F9 
  83      5971A696 
  84 0222 44981888 		.ascii	"D\230\030\210>\322\2603L\235\010\177C|\232\342e\021"
  84      3ED2B033 
  84      4C9D087F 
  84      437C9AE2 
  84      6511
  85 0234 81751081 		.ascii	"\201u\020\201v\242\301r\011k\274x%\340\313\221\210\257"
  85      76A2C172 
  85      096BBC78 
  85      25E0CB91 
  85      88AF
  86 0246 B864C992 		.ascii	"\270d\311\222\"\214k@\266\026\031G\03189\023X\346q\302"
  86      228C6B40 
  86      B6161947 
  86      19383913 
  86      58E671C2 
  87 025a 06A0205C 		.ascii	"\006\240 \\Y\222 e\241\360\005\354\334!\010|Y4\320|"
  87      59922065 
  87      A1F005EC 
  87      DC21087C 
  87      5934D07C 
  88 026e 1E847181 		.ascii	"\036\204q\201jh\303\014\017\376Q\025\222S`r\216]\332"
  88      6A68C30C 
  88      0FFE5115 
  88      92536072 
  88      8E5DDA
  89 0281 8AD90F41 		.ascii	"\212\331\017A\301\255\340\375%7\035=\311\000P\311T/"
  89      C1ADE0FD 
  89      25371D3D 
  89      C90050C9 
  89      542F
  90 0293 9874C1B4 		.ascii	"\230t\301\264X\324\321\322\270\344b(\246C\323\213u\262"
  90      58D4D1D2 
  90      B8E46228 
  90      A643D38B 
  90      75B2
  91 02a5 1DCD6814 		.ascii	"\035\315h\024\347$,\2310\344|\252r3\3213\266KM1\315"
  91      E7242C99 
  91      30E47CAA 
  91      7233D133 
  91      B64B4D31 
  92 02ba 6DCBF1DA 		.ascii	"m\313\361\332\251\362\262\320q%^\203\210g\251x#-/(\017"
  92      A9F2B2D0 
  92      71255E83 
  92      8867A978 
  92      232D2F28 
  93 02cf 870A77A7 		.ascii	"\207\012w\247\216_Z\022\376 \032M$\020A\252e`\223\000"
  93      8E5F5A12 
  93      FE201A4D 
  93      241041AA 
  93      65609300 
  94 02e3 3A88A8C2 		.ascii	":\210\250\302hI\2424a\275\0205:\336\177U\212\304+\011"
  94      6849A234 
  94      61BD1035 
  94      3ADE7F55 
  94      8AC42B09 
ARM GAS  C:\Users\Bruger\AppData\Local\Temp\ccL4aqFN.s 			page 7


  95 02f7 BE97473D 		.ascii	"\276\227G=\201\265\301\233\207\241\214\221`_\353\026"
  95      81B5C19B 
  95      87A18C91 
  95      605FEB16 
  96 0307 15C5B940 		.ascii	"\025\305\271@\201HS;S\026\227\262\004\312\014\265\217"
  96      8148533B 
  96      531697B2 
  96      04CA0CB5 
  96      8F
  97 0318 97268794 		.ascii	"\227&\207\224o*S\002Z\305\376^\234\332'\306Ft\250v\\"
  97      6F2A5302 
  97      5AC5FE5E 
  97      9CDA27C6 
  97      4674A876 
  98 032d 3C7227BE 		.ascii	"<r'\276\022\016\213[\002\001\320.4\300e\250\224\321"
  98      120E8B5B 
  98      0201D02E 
  98      34C065A8 
  98      94D1
  99 033f CA8E3D2A 		.ascii	"\312\216=*\220\350g\177\335\333\310\326\237\301\316"
  99      90E8677F 
  99      DDDBC8D6 
  99      9FC1CE
 100 034e 0B3F2DE6 		.ascii	"\013?-\346\256Vd\344\2247[\007\254Gj)\245\350A\313\265"
 100      AE5664E4 
 100      94375B07 
 100      AC476A29 
 100      A5E841CB 
 101 0363 A5534846 		.ascii	"\245SHFy\210\273Zq<\220(\023\304N\353\214)I\263 H\226"
 101      7988BB5A 
 101      713C9028 
 101      13C44EEB 
 101      8C2949B3 
 102 037a F96A04AF 		.ascii	"\371j\004\257V\321\"ID\231\201\334\200\302\336\300#"
 102      56D12249 
 102      449981DC 
 102      80C2DEC0 
 102      23
 103 038b 8A49D094 		.ascii	"\212I\320\224\037\266[LI\023E\236.5\023\223\000\242"
 103      1FB65B4C 
 103      4913459E 
 103      2E351393 
 103      00A2
 104 039d 66748A21 		.ascii	"ft\212!\023+\217G*]4\233:\237\326w\024<E\235\317\201"
 104      132B8F47 
 104      2A5D349B 
 104      3A9FD677 
 104      143C459D 
 105 03b3 EE8A36A6 		.ascii	"\356\2126\246\332\001\031\256\250s>\370\3233\017\347"
 105      DA0119AE 
 105      A8733EF8 
 105      D3330FE7 
 106 03c3 F7D84A7E 		.ascii	"\367\330J~)2\277\037D~k\3100\024\205?\275\346\022\376"
 106      2932BF1F 
 106      447E6BC8 
 106      3014853F 
 106      BDE612FE 
ARM GAS  C:\Users\Bruger\AppData\Local\Temp\ccL4aqFN.s 			page 8


 107 03d7 A2705F5D 		.ascii	"\242p_]?PM\363\377\342\305\334\262\251s\0165\023\350"
 107      3F504DF3 
 107      FFE2C5DC 
 107      B2A9730E 
 107      3513E8
 108 03ea 867C225B 		.ascii	"\206|\"[\324\022\367\316\375\313\255.t@\306\2356u\311"
 108      D412F7CE 
 108      FDCBAD2E 
 108      7440C69D 
 108      3675C9
 109 03fd 491458E8 		.ascii	"I\024X\350\201|\033\317e\030\002\341\372U\370\022\346"
 109      817C1BCF 
 109      651802E1 
 109      FA55F812 
 109      E6
 110 040e 706C08F4 		.ascii	"pl\010\364\"\237-K\033\271\245\313\252\325\312\256\341"
 110      229F2D4B 
 110      1BB9A5CB 
 110      AAD5CAAE 
 110      E1
 111 041f 6D830BC6 		.ascii	"m\203\013\306\206:^\214\247\206\363\332\007\033\310"
 111      863A5E8C 
 111      A786F3DA 
 111      071BC8
 112 042e 08EC0D37 		.ascii	"\010\354\0157\274)\311\210\030>\300B \305S\257z\263"
 112      BC29C988 
 112      183EC042 
 112      20C553AF 
 112      7AB3
 113 0440 BD7E77AE 		.ascii	"\275~w\256\327\363\356V_\236\177\207w\333\226\255\276"
 113      D7F3EE56 
 113      5F9E7F87 
 113      77DB96AD 
 113      BE
 114 0451 979FDFF6 		.ascii	"\227\237\337\366\222\317\227\233\345s{\334\333\263\274"
 114      92CF979B 
 114      E5737BDC 
 114      DBB3BC
 115 0460 CFEE20A6 		.ascii	"\317\356 \246\333\343\361{srL\177^\366[\273?\360\232"
 115      DBE3F17B 
 115      73724C7F 
 115      5EF65BBB 
 115      3FF09A
 116 0473 EF65E56C 		.ascii	"\357e\345lB\223\351\367}\370\212;\327m\272\375~\367"
 116      4293E9F7 
 116      7DF88A3B 
 116      D76DBAFD 
 116      7EF7
 117 0485 EECD1E03 		.ascii	"\356\315\036\003\367\257\347\355\262\266\273s\274\342"
 117      F7AFE7ED 
 117      B2B6BB73 
 117      BCE2
 118 0493 7FF6BEE7 		.ascii	"\177\366\276\347\243\177\000\345)kB"
 118      A37F00E5 
 118      296B42
 119              		.text
 120              		.section	.gnu.lto_.symbol_nodes.24c05542,"",%progbits
ARM GAS  C:\Users\Bruger\AppData\Local\Temp\ccL4aqFN.s 			page 9


 121 0000 789C6366 		.ascii	"x\234cf``Hg\200\002&\206z\006\206\011\347\030\030\352"
 121      60604867 
 121      80022686 
 121      7A068609 
 121      E71818EA 
 122 0014 EB19E62D 		.ascii	"\353\031\346-\340``b\254gD\34632\3253A\370\014\015\015"
 122      E0606062 
 122      AC6744E6 
 122      3332D533 
 122      41F80C0D 
 123 0029 402E4B3D 		.ascii	"@.K=32\227\271\236\005\211\313\0144\356\310\203\177"
 123      333297B9 
 123      9E0589CB 
 123      0C34EEC8 
 123      837F
 124 003b 8CCC8C2C 		.ascii	"\214\314\214,\014K\372\336\3103323\034\001\322\014\000"
 124      0C4BFADE 
 124      C8333332 
 124      331C01D2 
 124      0C00
 125 004d 36C51A45 		.ascii	"6\305\032E"
 126              		.text
 127              		.section	.gnu.lto_.refs.24c05542,"",%progbits
 128 0000 789C6366 		.ascii	"x\234cf```d\200\002\000\000=\000\005"
 128      60606064 
 128      80020000 
 128      3D0005
 129              		.text
 130              		.section	.gnu.lto_.decls.24c05542,"",%progbits
 131 0000 789C8D54 		.ascii	"x\234\215TmL[U\030\276\357\275\245\264\365\362!?\230"
 131      6D4C5B55 
 131      18BEEFBD 
 131      A5B4F5F2 
 131      213F98
 132 0013 F267E50F 		.ascii	"\362g\345\017\321dY\242F\263\177\032j\266d.\206\214"
 132      D16459A2 
 132      46B37F1A 
 132      6AB6642E 
 132      868C
 133 0025 187FB064 		.ascii	"\030\177\260d\351\330u\020\311\252\364\222\245\277<"
 133      E9D87510 
 133      C9AAF492 
 133      A5BF3C
 134 0034 5BB7C098 		.ascii	"[\267\300\230q@F\370\230LT\002\0037`s\260A\371\2360"
 134      714046F8 
 134      984C5402 
 134      03376073 
 134      B041F99E 
 135 0049 185F436A 		.ascii	"\030_CjK\035\205\002\3732\232\331M\242 \272\372\236"
 135      4B1D8502 
 135      FB329AD9 
 135      4DA220BA 
 135      FA9E
 136 005b 736F692F 		.ascii	"soi/\016\335I\336\336{N\237\367y\237s\336\347\\\201"
 136      0EDD49DE 
 136      DE7B4E9F 
 136      F7799F73 
ARM GAS  C:\Users\Bruger\AppData\Local\Temp\ccL4aqFN.s 			page 10


 136      DEE75C81 
 137 006f E3B83B18 		.ascii	"\343\270;\030!\034\277\3529.\0168N\300y\006\027\031"
 137      211CBFEA 
 137      392E0E38 
 137      4EC07906 
 137      1719
 138 0081 31181730 		.ascii	"1\030\0270\\\030\335\030\275\030S\334\277\007\305\350"
 138      5C18DD18 
 138      BD1853DC 
 138      BF07C5E8 
 139 0091 D55C0F86 		.ascii	"\325\\\017\206\033#\031\303\213\321\250bx\025\327\375"
 139      1B2319C3 
 139      8BD1A862 
 139      7815D7FD 
 140 00a1 947CCA9F 		.ascii	"\224|\312\237\250\346\307c\210\030\2270\3320f1F0R1v"
 140      A8E6C763 
 140      88189730 
 140      DA306631 
 140      46305231 
 141 00b6 63F855EE 		.ascii	"c\370U\3569\214y\214\311\015u\004\225oJ\325\273q<\342"
 141      398C798C 
 141      C90D7504 
 141      956F4AD5 
 141      BB713CE2 
 142 00ca A1A37979 		.ascii	"\241\243yy\374\271\007<\304\233\314t\332Y6\\\251\307"
 142      FCB9073C 
 142      C49BCC74 
 142      DA59365C 
 142      A9C7
 143 00dc A968D2D1 		.ascii	"\251h\322\321\251km\321\255\333RNp\2248I\242\0162\222"
 143      A96B6DD1 
 143      ADDB524E 
 143      70943849 
 143      A20E3292 
 144 00f0 A10152E0 		.ascii	"\241\001R\340<\244p\0344\302\026\374\315\322)L_W\224"
 144      3CA4701C 
 144      34C216FC 
 144      CDD2294C 
 144      5F5794
 145 0103 3A75020F 		.ascii	":u\002\017\354\275r\301m\332\326\204iE\244/\300G\312"
 145      ECBD72C1 
 145      6DDAD684 
 145      6945A42F 
 145      C047CA
 146 0116 7DE5BFDA 		.ascii	"}\345\277\332d4\237#\265\255A\327e\237H\206I_(\364&"
 146      64349F23 
 146      B5AD41D7 
 146      659F4886 
 146      495F28F4 
 147 012b A3822610 		.ascii	"\243\202&\020\340\033\330F\221\364\235\245\300\0050"
 147      E01BD846 
 147      91F49DA5 
 147      C00530
 148 013a 63DAC28C 		.ascii	"c\332\302\214\267+VHg\334G\353]\237\306\242\304T\023"
 148      B72B5648 
 148      67DC47EB 
 148      5D9FC6A2 
ARM GAS  C:\Users\Bruger\AppData\Local\Temp\ccL4aqFN.s 			page 11


 148      C45413
 149 014d 639C3FBB 		.ascii	"c\234?\273ZgdS\332\275\004\\\342]\003eS&H3\325a\375"
 149      5A676453 
 149      DABD045C 
 149      E25D0365 
 149      53264833 
 150 0164 60D5F59E 		.ascii	"`\325\365\236\335N\362\026\\\002\023\\\\\257\300\262"
 150      DD4EF216 
 150      5C02135C 
 150      5CAFC0B2 
 151 0174 E92822E4 		.ascii	"\351(\"\344\030\335\233q8\236[\337\032\264B\032\"\030"
 151      18DD9B71 
 151      389E5BDF 
 151      1AB4421A 
 151      2218
 152 0186 169A71B1 		.ascii	"\026\232q\261\005\027\261\226\247\267\260\320 |\250"
 152      0517B196 
 152      A7B7B0D0 
 152      207CA8
 153 0195 9191ACC8 		.ascii	"\221\221\254\310\370l\264\272_`\323\020\375\233\367"
 153      F86CB4BA 
 153      5F60D310 
 153      FD9BF7
 154 01a4 F9CEAC0A 		.ascii	"\371\316\254\012`Jc\374\3012\"\274\300\301\266\024x"
 154      604A63FC 
 154      C13222BC 
 154      C0C1B614 
 154      78
 155 01b5 19C9DB91 		.ascii	"\031\311\333\221<Y%\377\026\311\257 9\225Z\273b\004"
 155      3C5925FF 
 155      16C9AF20 
 155      39955ABB 
 155      6204
 156 01c7 68439997 		.ascii	"hC\231\227#2\223M\353GWr\242\277D\247\303\263d\230,"
 156      2332934D 
 156      EB475772 
 156      A2BF44A7 
 156      C3B36498 
 157 01dc D69F85C1 		.ascii	"\326\237\205\301\331\245\030\266F\267w\025\330b\250"
 157      D9A518B6 
 157      46B77715 
 157      D862A8
 158 01eb 2DF01F4D 		.ascii	"-\360\037M\353`M\273\006j\327\216\327\334-\217\023>"
 158      EB604DBB 
 158      066AD78E 
 158      D7DC2D8F 
 158      133E
 159 01fd 665BF2F8 		.ascii	"f[\362\370>w\206\233SyZ\250\"\265\307\310\223\020\356"
 159      3E77869B 
 159      53795AA8 
 159      22B5C7C8 
 159      9310EE
 160 0210 87264167 		.ascii	"\207&AgT{:\303\355q\261\366\334{\024\374+V8\005\214"
 160      547B3AC3 
 160      ED71B1F6 
 160      DC7B14FC 
 160      2B563805 
ARM GAS  C:\Users\Bruger\AppData\Local\Temp\ccL4aqFN.s 			page 12


 161 0225 E5CEFD9F 		.ascii	"\345\316\375\237\374\224%@Z]'>\251\"_\206Ih\217\273"
 161      FC942540 
 161      5A5D273E 
 161      A9225F86 
 161      49688FBB 
 162 0239 A248BAC2 		.ascii	"\242H\272\302$\335\214\244\275\361\346\212Np)$g\306"
 162      24DD8CA4 
 162      BDF1E68A 
 162      4E702924 
 162      67C6
 163 024b 5DCBF18C 		.ascii	"]\313\361\214$\320<8$\326F\373\244'\212\243'\314\321"
 163      24D03C38 
 163      24D646FB 
 163      A4278AA3 
 163      27CCD1
 164 025e CB38CACF 		.ascii	"\3138\312\317:\375\011\3020\343\340\335\277L\324\210"
 164      3AFD09C2 
 164      30E3E0DD 
 164      BF4CD488 
 165 026e 111B3CCC 		.ascii	"\021\033<\314\2426\030\300s\352{V\033\364?\335\006\243"
 165      A23618C0 
 165      73EA7B56 
 165      1BF43FDD 
 165      06A3
 166 0280 8B2BBF89 		.ascii	"\213+\277\211\354\316$\322i\265\367\356\262\300\356"
 166      ECCE24D2 
 166      69B5F7EE 
 166      B2C0EE
 167 028f 0C4FA735 		.ascii	"\014O\2475\217\037v\031\205)\320\270\304\254\270\244"
 167      8F1F7619 
 167      8529D0B8 
 167      C4ACB8A4 
 168 029f E2E7952B 		.ascii	"\342\347\225+\0066\015\205\004\252qm\251\271A\257j\014"
 168      06360D85 
 168      04AA716D 
 168      A9B941AF 
 168      6A0C
 169 02b1 AC36C613 		.ascii	"\2546\306\023\200\021T8\030Qh\216VH\234$\346<*\274\216"
 169      80115438 
 169      1851688E 
 169      56489C24 
 169      E63C2ABC 
 170 02c6 62BEA30A 		.ascii	"b\276\243\012\207Q\241YU8\204\2137\024\205\023\325E"
 170      8751A159 
 170      5538848B 
 170      37148513 
 170      D545
 171 02d8 CB2693EA 		.ascii	"\313&\223\352\275\242\377\361\036\342\207\232\217\326"
 171      BDA2FFF1 
 171      1EE2879A 
 171      8FD6
 172 02e6 C489C591 		.ascii	"\304\211\305\221C\200\233\250\"b\232Q\020U\027\266t"
 172      43809BA8 
 172      22629A51 
 172      105517B6 
 172      74
 173 02f7 378C282E 		.ascii	"7\214(.\3045\325\205\323\177^<\235\300\326\250\3661"
ARM GAS  C:\Users\Bruger\AppData\Local\Temp\ccL4aqFN.s 			page 13


 173      C435D585 
 173      D37F5E3C 
 173      9DC0D6A8 
 173      F631
 174 0309 C585A5BE 		.ascii	"\305\205\245\2761bX\267\353\270\262\370`\340v\035D["
 174      316258B7 
 174      EBB8B2F8 
 174      60E0761D 
 174      445B
 175 031b 73405366 		.ascii	"s@Sf\222ys\"\354\315\372\3211//\314('\271\264\332T/"
 175      92797322 
 175      ECCDFAD1 
 175      312F2FCC 
 175      2827B9B4 
 176 0332 32470427 		.ascii	"2G\004'o\334\313(u\226\324\221@(\264\225e\301\255(O"
 176      6FDCCB28 
 176      7596D491 
 176      4028B495 
 176      65C1AD28 
 177 0347 DC0A7B62 		.ascii	"\334\012{b\212y\202T\234\2523\010'\225\017S\333\357"
 177      8A798254 
 177      9CAA3308 
 177      27950F53 
 177      DBEF
 178 0359 C51D71F4 		.ascii	"\305\035q\364`\234\317p)\251\207&\212=F\345\032o\314"
 178      609CCF70 
 178      29A98726 
 178      8A3D46E5 
 178      1A6FCC
 179 036c F861936B 		.ascii	"\370a\223k\214V{\374\316q\264\232\033\367\366}\244\221"
 179      8C567BFC 
 179      CE71B49A 
 179      1BF7F67D 
 179      A491
 180 037e D310B9CB 		.ascii	"\323\020\271\313'\027\253\307E\315y\2735\007\341Q\316"
 180      2717ABC7 
 180      45CD79BB 
 180      3507E151 
 180      CE
 181 038f 9B3E113D 		.ascii	"\233>\021=W\331W\254\323\240\3515\210\240\275\330\011"
 181      57D957AC 
 181      D3A0E935 
 181      88A0BDD8 
 181      09
 182 03a0 B5889725 		.ascii	"\265\210\227%\004:\307\27600\203\022\346P\327Xc\013"
 182      043AC7BE 
 182      30308312 
 182      E650D758 
 182      630B
 183 03b2 CF1C4AF8 		.ascii	"\317\034J\370\350\217\225\250|\254\240\360\217\332$"
 183      E88F95A8 
 183      7CACA0F0 
 183      8FDA24
 184 03c1 7A2824CC 		.ascii	"z($\314/F\213\271M\205\303K)\360\243b\226\373\355\365"
 184      2F468BB9 
 184      4D85C34B 
 184      29F0A362 
ARM GAS  C:\Users\Bruger\AppData\Local\Temp\ccL4aqFN.s 			page 14


 184      96FBEDF5 
 185 03d5 1E31A984 		.ascii	"\0361\251\204\301\0111+\337\254\031\204\373\030|\026"
 185      C109312B 
 185      DFAC1984 
 185      FB187C16 
 186 03e5 92C2496C 		.ascii	"\222\302IlBm\177.\270f\324l\240M\263]\277\272]?S\337"
 186      426D7F2E 
 186      B866D46C 
 186      A04DB35D 
 186      BFBA5D3F 
 187 03fb DAF4F7B4 		.ascii	"\332\364\367\264\326\214\223\232\355\316\251\3509\206"
 187      D68C939A 
 187      EDCEA9E8 
 187      3986
 188 0409 EE7F12BC 		.ascii	"\356\177\022\274\306k\320X3\012=\257\242\351\363\371"
 188      C66BD058 
 188      330A3DAF 
 188      A2E9F3F9 
 189 0419 749B4DCE 		.ascii	"t\233M\316\263Y\017Z\017\344I\373\367\340\213~\327\273"
 189      B3590F5A 
 189      0FE449FB 
 189      F7E08B7E 
 189      D7BB
 190 042b EF992D5C 		.ascii	"\357\231-\\\332.\351\260\224o\225\245\203\3733m\005"
 190      DA2EE9B0 
 190      946F95A5 
 190      83FB336D 
 190      05
 191 043c F9D9D2BE 		.ascii	"\371\331\322\276\214L\233\345\365}\321\370\355\331\234"
 191      8C4C9BE5 
 191      F57DD1F8 
 191      EDD99C
 192 044b BE20F7B0 		.ascii	"\276 \367\260\374\332\253\251\233\240\263\035\262\343"
 192      FCDAABA9 
 192      9BA0B31D 
 192      B2E3
 193 0459 23C9BE3D 		.ascii	"#\311\276=\207\213\241\300\035/j\312eJ\362\316<\253"
 193      878BA1C0 
 193      1D2F6ACA 
 193      654AF2CE 
 193      3CAB
 194 046b 3D27DD21 		.ascii	"='\335!K\011\026G\246\355\003\371\2105_\332+\331%y\353"
 194      4B091647 
 194      A6ED03F9 
 194      88355FDA 
 194      2BD92579 
 195 0480 268C16C7 		.ascii	"&\214\026\307\236\334\003\310'Z\034;\363\012\3549\026"
 195      9EDC03C8 
 195      275A1C3B 
 195      F30AEC39 
 195      16
 196 0491 6B768E64 		.ascii	"kv\216d\310v\330e\253\\`gr^y#\336\342x??W\226\366\332"
 196      C876D865 
 196      AB5C6067 
 196      725E7923 
 196      DEE2783F 
 197 04aa 8EBC6D95 		.ascii	"\216\274m\225\255\233\251\243\024X\036\331t\371\322"
ARM GAS  C:\Users\Bruger\AppData\Local\Temp\ccL4aqFN.s 			page 15


 197      AD9BA9A3 
 197      14581ED9 
 197      74F9D2
 198 04b9 A11DFF00 		.ascii	"\241\035\377\000Y\235\212]"
 198      599D8A5D 
 199              		.text
 200              		.section	.gnu.lto_.symtab.24c05542,"",%progbits
 201 0000 426F6F74 		.ascii	"Bootloadable_Load\000\000\000\000\000\000\000\000\000"
 201      6C6F6164 
 201      61626C65 
 201      5F4C6F61 
 201      64000000 
 202 001a 000000AC 		.ascii	"\000\000\000\254\000\000\000Bootloadable_SetFlashBy"
 202      00000042 
 202      6F6F746C 
 202      6F616461 
 202      626C655F 
 203 0038 74650000 		.ascii	"te\000\000\000\000\000\000\000\000\000\000\000\000\273"
 203      00000000 
 203      00000000 
 203      0000BB
 204 0047 00000043 		.ascii	"\000\000\000CySoftwareReset\000\000\002\000\000\000"
 204      79536F66 
 204      74776172 
 204      65526573 
 204      65740000 
 205 005f 00000000 		.ascii	"\000\000\000\000\000\000\275\000\000\000CyFlushCach"
 205      0000BD00 
 205      00004379 
 205      466C7573 
 205      68436163 
 206 0074 65000002 		.ascii	"e\000\000\002\000\000\000\000\000\000\000\000\000\277"
 206      00000000 
 206      00000000 
 206      00BF
 207 0082 00000043 		.ascii	"\000\000\000CyWriteRowData\000\000\002\000\000\000\000"
 207      79577269 
 207      7465526F 
 207      77446174 
 207      61000002 
 208 009a 00000000 		.ascii	"\000\000\000\000\000\321\000\000\000"
 208      00D10000 
 208      00
 209              		.text
 210              		.section	.gnu.lto_.opts,"",%progbits
 211 0000 272D666E 		.ascii	"'-fno-trapv' '-mcpu=cortex-m3' '-mthumb' '-g' '-O3'"
 211      6F2D7472 
 211      61707627 
 211      20272D6D 
 211      6370753D 
 212 0033 20272D66 		.ascii	" '-ffunction-sections' '-finline-functions' '-flto'"
 212      66756E63 
 212      74696F6E 
 212      2D736563 
 212      74696F6E 
 213 0066 20272D66 		.ascii	" '-ffat-lto-objects'\000"
 213      6661742D 
ARM GAS  C:\Users\Bruger\AppData\Local\Temp\ccL4aqFN.s 			page 16


 213      6C746F2D 
 213      6F626A65 
 213      63747327 
 214              		.text
 215              		.cfi_sections	.debug_frame
 216              		.section	.text.Bootloadable_Load,"ax",%progbits
 217              		.align	2
 218              		.global	Bootloadable_Load
 219              		.thumb
 220              		.thumb_func
 221              		.type	Bootloadable_Load, %function
 222              	Bootloadable_Load:
 223              	.LFB0:
 224              		.file 1 "Generated_Source\\PSoC5\\Bootloadable.c"
   1:Generated_Source\PSoC5/Bootloadable.c **** /****************************************************************************//**
   2:Generated_Source\PSoC5/Bootloadable.c **** * \file Bootloadable.c
   3:Generated_Source\PSoC5/Bootloadable.c **** * \version 1.50
   4:Generated_Source\PSoC5/Bootloadable.c **** *
   5:Generated_Source\PSoC5/Bootloadable.c **** * \brief
   6:Generated_Source\PSoC5/Bootloadable.c **** *   Provides an API for the Bootloadable application.
   7:Generated_Source\PSoC5/Bootloadable.c **** *
   8:Generated_Source\PSoC5/Bootloadable.c **** ********************************************************************************
   9:Generated_Source\PSoC5/Bootloadable.c **** * \copyright
  10:Generated_Source\PSoC5/Bootloadable.c **** * Copyright 2008-2015, Cypress Semiconductor Corporation.  All rights reserved.
  11:Generated_Source\PSoC5/Bootloadable.c **** * You may use this file only in accordance with the license, terms, conditions,
  12:Generated_Source\PSoC5/Bootloadable.c **** * disclaimers, and limitations in the end user license agreement accompanying
  13:Generated_Source\PSoC5/Bootloadable.c **** * the software package with which this file was provided.
  14:Generated_Source\PSoC5/Bootloadable.c **** *******************************************************************************/
  15:Generated_Source\PSoC5/Bootloadable.c **** 
  16:Generated_Source\PSoC5/Bootloadable.c **** #include "Bootloadable.h"
  17:Generated_Source\PSoC5/Bootloadable.c **** 
  18:Generated_Source\PSoC5/Bootloadable.c **** /**
  19:Generated_Source\PSoC5/Bootloadable.c ****  \defgroup functions_group Functions
  20:Generated_Source\PSoC5/Bootloadable.c ****  @{
  21:Generated_Source\PSoC5/Bootloadable.c **** */
  22:Generated_Source\PSoC5/Bootloadable.c **** 
  23:Generated_Source\PSoC5/Bootloadable.c **** #if (CYDEV_PROJ_TYPE == CYDEV_PROJ_TYPE_LOADABLEANDBOOTLOADER)
  24:Generated_Source\PSoC5/Bootloadable.c **** static cystatus Bootloadable_WriteFlashByte(const uint32 address, const uint8 inputValue) CYLARGE \
  25:Generated_Source\PSoC5/Bootloadable.c ****                                ;
  26:Generated_Source\PSoC5/Bootloadable.c **** #endif /*(CYDEV_PROJ_TYPE == CYDEV_PROJ_TYPE_LOADABLEANDBOOTLOADER)*/
  27:Generated_Source\PSoC5/Bootloadable.c **** 
  28:Generated_Source\PSoC5/Bootloadable.c **** /*******************************************************************************
  29:Generated_Source\PSoC5/Bootloadable.c **** * Function Name: Bootloadable_Load
  30:Generated_Source\PSoC5/Bootloadable.c **** ****************************************************************************//**
  31:Generated_Source\PSoC5/Bootloadable.c **** *
  32:Generated_Source\PSoC5/Bootloadable.c **** * \brief
  33:Generated_Source\PSoC5/Bootloadable.c **** *  Schedules the Bootloader/Launcher to be launched and then performs
  34:Generated_Source\PSoC5/Bootloadable.c **** *  a software reset to launch it
  35:Generated_Source\PSoC5/Bootloadable.c **** *
  36:Generated_Source\PSoC5/Bootloadable.c **** * \return
  37:Generated_Source\PSoC5/Bootloadable.c **** *  This method will never return. It will load a new application and reset
  38:Generated_Source\PSoC5/Bootloadable.c **** *  the device.
  39:Generated_Source\PSoC5/Bootloadable.c **** *
  40:Generated_Source\PSoC5/Bootloadable.c **** *******************************************************************************/
  41:Generated_Source\PSoC5/Bootloadable.c **** void Bootloadable_Load(void) 
  42:Generated_Source\PSoC5/Bootloadable.c **** {
 225              		.loc 1 42 0
ARM GAS  C:\Users\Bruger\AppData\Local\Temp\ccL4aqFN.s 			page 17


 226              		.cfi_startproc
 227              		@ args = 0, pretend = 0, frame = 0
 228              		@ frame_needed = 0, uses_anonymous_args = 0
 229              		@ link register save eliminated.
  43:Generated_Source\PSoC5/Bootloadable.c ****     /* Schedule Bootloader to start after reset */
  44:Generated_Source\PSoC5/Bootloadable.c ****     Bootloadable_SET_RUN_TYPE(Bootloadable_SCHEDULE_BTLDR);
 230              		.loc 1 44 0
 231 0000 024B     		ldr	r3, .L2
 232 0002 4022     		movs	r2, #64
 233 0004 1A70     		strb	r2, [r3]
  45:Generated_Source\PSoC5/Bootloadable.c **** 
  46:Generated_Source\PSoC5/Bootloadable.c ****     CySoftwareReset();
 234              		.loc 1 46 0
 235 0006 FFF7FEBF 		b	CySoftwareReset
 236              	.LVL0:
 237              	.L3:
 238 000a 00BF     		.align	2
 239              	.L2:
 240 000c FA460040 		.word	1073759994
 241              		.cfi_endproc
 242              	.LFE0:
 243              		.size	Bootloadable_Load, .-Bootloadable_Load
 244              		.section	.text.Bootloadable_SetFlashByte,"ax",%progbits
 245              		.align	2
 246              		.global	Bootloadable_SetFlashByte
 247              		.thumb
 248              		.thumb_func
 249              		.type	Bootloadable_SetFlashByte, %function
 250              	Bootloadable_SetFlashByte:
 251              	.LFB1:
  47:Generated_Source\PSoC5/Bootloadable.c **** }
  48:Generated_Source\PSoC5/Bootloadable.c **** 
  49:Generated_Source\PSoC5/Bootloadable.c **** #if (CYDEV_PROJ_TYPE == CYDEV_PROJ_TYPE_LOADABLEANDBOOTLOADER)
  50:Generated_Source\PSoC5/Bootloadable.c **** /*******************************************************************************
  51:Generated_Source\PSoC5/Bootloadable.c **** * Function Name: Bootloadable_GetActiveApplication
  52:Generated_Source\PSoC5/Bootloadable.c **** ****************************************************************************//**
  53:Generated_Source\PSoC5/Bootloadable.c **** *
  54:Generated_Source\PSoC5/Bootloadable.c **** * \brief
  55:Generated_Source\PSoC5/Bootloadable.c **** *   Gets the application which will be loaded after a next reset event.
  56:Generated_Source\PSoC5/Bootloadable.c **** *   NOTE Intended for the combination project type ONLY!
  57:Generated_Source\PSoC5/Bootloadable.c **** *
  58:Generated_Source\PSoC5/Bootloadable.c **** * \return 
  59:Generated_Source\PSoC5/Bootloadable.c **** *  A number of the current active application set in the metadata section.
  60:Generated_Source\PSoC5/Bootloadable.c **** *  \n  0 - app#0 is set as active.
  61:Generated_Source\PSoC5/Bootloadable.c **** *  \n  1 - app#1 is set as active.
  62:Generated_Source\PSoC5/Bootloadable.c **** *
  63:Generated_Source\PSoC5/Bootloadable.c **** * \note If neither of the applications is set active, then the API returns 0x02.
  64:Generated_Source\PSoC5/Bootloadable.c **** *
  65:Generated_Source\PSoC5/Bootloadable.c **** *******************************************************************************/
  66:Generated_Source\PSoC5/Bootloadable.c **** uint8 Bootloadable_GetActiveApplication(void) CYSMALL \
  67:Generated_Source\PSoC5/Bootloadable.c ****                           
  68:Generated_Source\PSoC5/Bootloadable.c **** {   
  69:Generated_Source\PSoC5/Bootloadable.c ****     uint8 result = Bootloadable_MD_BTLDB_ACTIVE_NONE;
  70:Generated_Source\PSoC5/Bootloadable.c ****     
  71:Generated_Source\PSoC5/Bootloadable.c ****     if (0u != Bootloadable_GET_CODE_DATA( \
  72:Generated_Source\PSoC5/Bootloadable.c ****               Bootloadable_MD_BTLDB_ACTIVE_OFFSET(Bootloadable_MD_BTLDB_ACTIVE_0))) 
  73:Generated_Source\PSoC5/Bootloadable.c ****     {
ARM GAS  C:\Users\Bruger\AppData\Local\Temp\ccL4aqFN.s 			page 18


  74:Generated_Source\PSoC5/Bootloadable.c ****         result = Bootloadable_MD_BTLDB_ACTIVE_0;
  75:Generated_Source\PSoC5/Bootloadable.c ****     }
  76:Generated_Source\PSoC5/Bootloadable.c ****     else if (0u != Bootloadable_GET_CODE_DATA( \
  77:Generated_Source\PSoC5/Bootloadable.c ****                    Bootloadable_MD_BTLDB_ACTIVE_OFFSET(Bootloadable_MD_BTLDB_ACTIVE_1)))
  78:Generated_Source\PSoC5/Bootloadable.c ****     {
  79:Generated_Source\PSoC5/Bootloadable.c ****         result = Bootloadable_MD_BTLDB_ACTIVE_1;    
  80:Generated_Source\PSoC5/Bootloadable.c ****     }
  81:Generated_Source\PSoC5/Bootloadable.c ****     else
  82:Generated_Source\PSoC5/Bootloadable.c ****     {
  83:Generated_Source\PSoC5/Bootloadable.c ****         /*Do nothing, result is none*/
  84:Generated_Source\PSoC5/Bootloadable.c ****     }
  85:Generated_Source\PSoC5/Bootloadable.c ****     
  86:Generated_Source\PSoC5/Bootloadable.c ****     return (result);
  87:Generated_Source\PSoC5/Bootloadable.c **** }
  88:Generated_Source\PSoC5/Bootloadable.c **** 
  89:Generated_Source\PSoC5/Bootloadable.c **** /*******************************************************************************
  90:Generated_Source\PSoC5/Bootloadable.c **** * Function Name: Bootloadable_SetActiveApplication
  91:Generated_Source\PSoC5/Bootloadable.c **** ****************************************************************************//**
  92:Generated_Source\PSoC5/Bootloadable.c **** *
  93:Generated_Source\PSoC5/Bootloadable.c **** * \brief 
  94:Generated_Source\PSoC5/Bootloadable.c **** *   Sets the application which will be loaded after a next reset event.          
  95:Generated_Source\PSoC5/Bootloadable.c **** *   
  96:Generated_Source\PSoC5/Bootloadable.c **** * \details
  97:Generated_Source\PSoC5/Bootloadable.c **** * Theory: 
  98:Generated_Source\PSoC5/Bootloadable.c **** *   This API sets in the Flash (metadata section) the given active application 
  99:Generated_Source\PSoC5/Bootloadable.c **** *   number.
 100:Generated_Source\PSoC5/Bootloadable.c **** *          
 101:Generated_Source\PSoC5/Bootloadable.c **** *   NOTE The active application number is not set directly, but the boolean 
 102:Generated_Source\PSoC5/Bootloadable.c **** *   mark instead means that the application is active or not for the relative 
 103:Generated_Source\PSoC5/Bootloadable.c **** *   metadata. Both metadata sections are updated. For example, if the second 
 104:Generated_Source\PSoC5/Bootloadable.c **** *   application is to be set active, then in the metadata section for the first 
 105:Generated_Source\PSoC5/Bootloadable.c **** *   application there will be a "0" written, which means that it is not active, and 
 106:Generated_Source\PSoC5/Bootloadable.c **** *   for the second metadata section there will be a "1" written, which means that it is 
 107:Generated_Source\PSoC5/Bootloadable.c **** *   active. 
 108:Generated_Source\PSoC5/Bootloadable.c **** *
 109:Generated_Source\PSoC5/Bootloadable.c **** *   NOTE Intended for the combination project type ONLY!
 110:Generated_Source\PSoC5/Bootloadable.c **** *
 111:Generated_Source\PSoC5/Bootloadable.c **** * \param appId  
 112:Generated_Source\PSoC5/Bootloadable.c **** *   The active application number to be written to flash (metadata section) 
 113:Generated_Source\PSoC5/Bootloadable.c **** *   NOTE Possible values are:
 114:Generated_Source\PSoC5/Bootloadable.c **** *   0 - for the first application
 115:Generated_Source\PSoC5/Bootloadable.c **** *   1 - for the second application.
 116:Generated_Source\PSoC5/Bootloadable.c **** *   Any other number is considered invalid. 
 117:Generated_Source\PSoC5/Bootloadable.c **** *
 118:Generated_Source\PSoC5/Bootloadable.c **** * \return 
 119:Generated_Source\PSoC5/Bootloadable.c **** *   A status of writing to flash operation.
 120:Generated_Source\PSoC5/Bootloadable.c **** *   \n CYRET_SUCCESS - Returned if appId was successfully changed. 
 121:Generated_Source\PSoC5/Bootloadable.c **** *   \n CYRET_BAD_PARAM - Returned if the parameter appID passed to the function has the 
 122:Generated_Source\PSoC5/Bootloadable.c **** *                       same value as the active application ID. 
 123:Generated_Source\PSoC5/Bootloadable.c **** *   \note - The other non-zero value is considered as a failure during writing to flash.  
 124:Generated_Source\PSoC5/Bootloadable.c **** *
 125:Generated_Source\PSoC5/Bootloadable.c **** *   \note - This API does not update Bootloader_activeApp variable.
 126:Generated_Source\PSoC5/Bootloadable.c **** *
 127:Generated_Source\PSoC5/Bootloadable.c **** *******************************************************************************/
 128:Generated_Source\PSoC5/Bootloadable.c **** cystatus Bootloadable_SetActiveApplication(uint8 appId) CYSMALL \
 129:Generated_Source\PSoC5/Bootloadable.c ****                 
 130:Generated_Source\PSoC5/Bootloadable.c **** {
ARM GAS  C:\Users\Bruger\AppData\Local\Temp\ccL4aqFN.s 			page 19


 131:Generated_Source\PSoC5/Bootloadable.c ****     cystatus result = CYRET_SUCCESS;
 132:Generated_Source\PSoC5/Bootloadable.c **** 
 133:Generated_Source\PSoC5/Bootloadable.c ****     uint8 CYDATA idx;
 134:Generated_Source\PSoC5/Bootloadable.c ****     
 135:Generated_Source\PSoC5/Bootloadable.c ****     /* If invalid application number */
 136:Generated_Source\PSoC5/Bootloadable.c ****     if (appId > Bootloadable_MD_BTLDB_ACTIVE_1)
 137:Generated_Source\PSoC5/Bootloadable.c ****     {
 138:Generated_Source\PSoC5/Bootloadable.c ****         result = CYRET_BAD_PARAM;
 139:Generated_Source\PSoC5/Bootloadable.c ****     }
 140:Generated_Source\PSoC5/Bootloadable.c ****     else
 141:Generated_Source\PSoC5/Bootloadable.c ****     {
 142:Generated_Source\PSoC5/Bootloadable.c ****         /* If appID has same value as active application ID */
 143:Generated_Source\PSoC5/Bootloadable.c ****         if (1u == Bootloadable_GET_CODE_DATA(Bootloadable_MD_BTLDB_ACTIVE_OFFSET(appId)))
 144:Generated_Source\PSoC5/Bootloadable.c ****         {
 145:Generated_Source\PSoC5/Bootloadable.c ****             result = CYRET_BAD_PARAM;
 146:Generated_Source\PSoC5/Bootloadable.c ****         }
 147:Generated_Source\PSoC5/Bootloadable.c ****         else
 148:Generated_Source\PSoC5/Bootloadable.c ****         {
 149:Generated_Source\PSoC5/Bootloadable.c ****             /* Updating metadata section */
 150:Generated_Source\PSoC5/Bootloadable.c ****             for(idx = 0u; idx < Bootloadable_MAX_NUM_OF_BTLDB; idx++)
 151:Generated_Source\PSoC5/Bootloadable.c ****             {
 152:Generated_Source\PSoC5/Bootloadable.c ****                 result |= Bootloadable_WriteFlashByte((uint32) Bootloadable_MD_BTLDB_ACTIVE_OFFSET(
 153:Generated_Source\PSoC5/Bootloadable.c ****                                                                                             (uint8)
 154:Generated_Source\PSoC5/Bootloadable.c ****             }
 155:Generated_Source\PSoC5/Bootloadable.c ****         }
 156:Generated_Source\PSoC5/Bootloadable.c ****     }
 157:Generated_Source\PSoC5/Bootloadable.c ****     
 158:Generated_Source\PSoC5/Bootloadable.c ****     return (result);
 159:Generated_Source\PSoC5/Bootloadable.c **** }
 160:Generated_Source\PSoC5/Bootloadable.c **** 
 161:Generated_Source\PSoC5/Bootloadable.c **** /*******************************************************************************
 162:Generated_Source\PSoC5/Bootloadable.c **** * Function Name: Bootloadable_WriteFlashByte
 163:Generated_Source\PSoC5/Bootloadable.c **** ****************************************************************************//**
 164:Generated_Source\PSoC5/Bootloadable.c **** *
 165:Generated_Source\PSoC5/Bootloadable.c **** * \brief 
 166:Generated_Source\PSoC5/Bootloadable.c **** *   This API writes to flash the specified data.
 167:Generated_Source\PSoC5/Bootloadable.c **** *
 168:Generated_Source\PSoC5/Bootloadable.c **** * \param address 
 169:Generated_Source\PSoC5/Bootloadable.c **** *   The address in flash.
 170:Generated_Source\PSoC5/Bootloadable.c **** *
 171:Generated_Source\PSoC5/Bootloadable.c **** * \param inputValue 
 172:Generated_Source\PSoC5/Bootloadable.c **** *   One-byte data.
 173:Generated_Source\PSoC5/Bootloadable.c **** *
 174:Generated_Source\PSoC5/Bootloadable.c **** * \return 
 175:Generated_Source\PSoC5/Bootloadable.c **** *   A status of the writing to flash procedure.
 176:Generated_Source\PSoC5/Bootloadable.c **** *
 177:Generated_Source\PSoC5/Bootloadable.c **** *******************************************************************************/
 178:Generated_Source\PSoC5/Bootloadable.c **** static cystatus Bootloadable_WriteFlashByte(const uint32 address, const uint8 inputValue) CYLARGE \
 179:Generated_Source\PSoC5/Bootloadable.c ****                                
 180:Generated_Source\PSoC5/Bootloadable.c **** {
 181:Generated_Source\PSoC5/Bootloadable.c ****     cystatus result = CYRET_SUCCESS;
 182:Generated_Source\PSoC5/Bootloadable.c ****     uint32 flsAddr = address - CYDEV_FLASH_BASE;
 183:Generated_Source\PSoC5/Bootloadable.c ****     uint8  rowData[CYDEV_FLS_ROW_SIZE];
 184:Generated_Source\PSoC5/Bootloadable.c **** 
 185:Generated_Source\PSoC5/Bootloadable.c ****     #if !(CY_PSOC4)
 186:Generated_Source\PSoC5/Bootloadable.c ****         uint8 arrayId = ( uint8 )(flsAddr / CYDEV_FLS_SECTOR_SIZE);
 187:Generated_Source\PSoC5/Bootloadable.c ****     #endif  /* !(CY_PSOC4) */
ARM GAS  C:\Users\Bruger\AppData\Local\Temp\ccL4aqFN.s 			page 20


 188:Generated_Source\PSoC5/Bootloadable.c **** 
 189:Generated_Source\PSoC5/Bootloadable.c ****     #if (CY_PSOC4)
 190:Generated_Source\PSoC5/Bootloadable.c ****         uint16 rowNum = ( uint16 )(flsAddr / CYDEV_FLS_ROW_SIZE);
 191:Generated_Source\PSoC5/Bootloadable.c ****     #else
 192:Generated_Source\PSoC5/Bootloadable.c ****         uint16 rowNum = ( uint16 )((flsAddr % CYDEV_FLS_SECTOR_SIZE) / CYDEV_FLS_ROW_SIZE);
 193:Generated_Source\PSoC5/Bootloadable.c ****     #endif  /* (CY_PSOC4) */
 194:Generated_Source\PSoC5/Bootloadable.c **** 
 195:Generated_Source\PSoC5/Bootloadable.c ****     uint32 baseAddr = address - (address % CYDEV_FLS_ROW_SIZE);
 196:Generated_Source\PSoC5/Bootloadable.c ****     uint16 idx;
 197:Generated_Source\PSoC5/Bootloadable.c **** 
 198:Generated_Source\PSoC5/Bootloadable.c ****     for(idx = 0u; idx < CYDEV_FLS_ROW_SIZE; idx++)
 199:Generated_Source\PSoC5/Bootloadable.c ****     {
 200:Generated_Source\PSoC5/Bootloadable.c ****         rowData[idx] = (uint8)Bootloadable_GET_CODE_DATA(baseAddr + idx);
 201:Generated_Source\PSoC5/Bootloadable.c ****     }
 202:Generated_Source\PSoC5/Bootloadable.c **** 
 203:Generated_Source\PSoC5/Bootloadable.c ****     rowData[address % CYDEV_FLS_ROW_SIZE] = inputValue;
 204:Generated_Source\PSoC5/Bootloadable.c **** 
 205:Generated_Source\PSoC5/Bootloadable.c ****     #if(CY_PSOC4)
 206:Generated_Source\PSoC5/Bootloadable.c ****         result = CySysFlashWriteRow((uint32) rowNum, rowData);
 207:Generated_Source\PSoC5/Bootloadable.c ****     #else
 208:Generated_Source\PSoC5/Bootloadable.c ****         result = CyWriteRowData(arrayId, rowNum, rowData);
 209:Generated_Source\PSoC5/Bootloadable.c ****     #endif  /* (CY_PSOC4) */
 210:Generated_Source\PSoC5/Bootloadable.c **** 
 211:Generated_Source\PSoC5/Bootloadable.c ****     #if(CY_PSOC5)
 212:Generated_Source\PSoC5/Bootloadable.c ****         /***************************************************************************
 213:Generated_Source\PSoC5/Bootloadable.c ****         * When writing to flash, data in the instruction cache can become stale.
 214:Generated_Source\PSoC5/Bootloadable.c ****         * Therefore, the cache data does not correlate to the data just written to
 215:Generated_Source\PSoC5/Bootloadable.c ****         * flash. A call to CyFlushCache() is required to invalidate the data in the
 216:Generated_Source\PSoC5/Bootloadable.c ****         * cache and force fresh information to be loaded from flash.
 217:Generated_Source\PSoC5/Bootloadable.c ****         ***************************************************************************/
 218:Generated_Source\PSoC5/Bootloadable.c ****         CyFlushCache();
 219:Generated_Source\PSoC5/Bootloadable.c ****     #endif /* (CY_PSOC5) */
 220:Generated_Source\PSoC5/Bootloadable.c ****     return (result);
 221:Generated_Source\PSoC5/Bootloadable.c **** }
 222:Generated_Source\PSoC5/Bootloadable.c **** #endif /*(CYDEV_PROJ_TYPE == CYDEV_PROJ_TYPE_LOADABLEANDBOOTLOADER)*/
 223:Generated_Source\PSoC5/Bootloadable.c **** /** @} functions_group */
 224:Generated_Source\PSoC5/Bootloadable.c **** 
 225:Generated_Source\PSoC5/Bootloadable.c **** /*******************************************************************************
 226:Generated_Source\PSoC5/Bootloadable.c **** * The following code is OBSOLETE and must not be used.
 227:Generated_Source\PSoC5/Bootloadable.c **** *******************************************************************************/
 228:Generated_Source\PSoC5/Bootloadable.c **** void Bootloadable_SetFlashByte(uint32 address, uint8 runType) 
 229:Generated_Source\PSoC5/Bootloadable.c **** {
 252              		.loc 1 229 0
 253              		.cfi_startproc
 254              		@ args = 0, pretend = 0, frame = 256
 255              		@ frame_needed = 0, uses_anonymous_args = 0
 256              	.LVL1:
 257 0000 30B5     		push	{r4, r5, lr}
 258              		.cfi_def_cfa_offset 12
 259              		.cfi_offset 4, -12
 260              		.cfi_offset 5, -8
 261              		.cfi_offset 14, -4
 262 0002 0446     		mov	r4, r0
 263              	.LVL2:
 264 0004 0D46     		mov	r5, r1
 265 0006 C1B0     		sub	sp, sp, #260
 266              		.cfi_def_cfa_offset 272
ARM GAS  C:\Users\Bruger\AppData\Local\Temp\ccL4aqFN.s 			page 21


 267 0008 20F0FF01 		bic	r1, r0, #255
 268              	.LVL3:
 269 000c 4FF48072 		mov	r2, #256
 270 0010 6846     		mov	r0, sp
 271              	.LVL4:
 272 0012 FFF7FEFF 		bl	memmove
 273              	.LVL5:
 230:Generated_Source\PSoC5/Bootloadable.c ****     uint32 flsAddr = address - CYDEV_FLASH_BASE;
 231:Generated_Source\PSoC5/Bootloadable.c ****     uint8  rowData[CYDEV_FLS_ROW_SIZE];
 232:Generated_Source\PSoC5/Bootloadable.c **** 
 233:Generated_Source\PSoC5/Bootloadable.c ****     #if !(CY_PSOC4)
 234:Generated_Source\PSoC5/Bootloadable.c ****         uint8 arrayId = ( uint8 )(flsAddr / CYDEV_FLS_SECTOR_SIZE);
 235:Generated_Source\PSoC5/Bootloadable.c ****     #endif  /* !(CY_PSOC4) */
 236:Generated_Source\PSoC5/Bootloadable.c **** 
 237:Generated_Source\PSoC5/Bootloadable.c ****     #if (CY_PSOC4)
 238:Generated_Source\PSoC5/Bootloadable.c ****         uint16 rowNum = ( uint16 )(flsAddr / CYDEV_FLS_ROW_SIZE);
 239:Generated_Source\PSoC5/Bootloadable.c ****     #else
 240:Generated_Source\PSoC5/Bootloadable.c ****         uint16 rowNum = ( uint16 )((flsAddr % CYDEV_FLS_SECTOR_SIZE) / CYDEV_FLS_ROW_SIZE);
 241:Generated_Source\PSoC5/Bootloadable.c ****     #endif  /* (CY_PSOC4) */
 242:Generated_Source\PSoC5/Bootloadable.c **** 
 243:Generated_Source\PSoC5/Bootloadable.c ****     uint32 baseAddr = address - (address % CYDEV_FLS_ROW_SIZE);
 244:Generated_Source\PSoC5/Bootloadable.c ****     uint16 idx;
 245:Generated_Source\PSoC5/Bootloadable.c **** 
 246:Generated_Source\PSoC5/Bootloadable.c **** 
 247:Generated_Source\PSoC5/Bootloadable.c ****     for (idx = 0u; idx < CYDEV_FLS_ROW_SIZE; idx++)
 248:Generated_Source\PSoC5/Bootloadable.c ****     {
 249:Generated_Source\PSoC5/Bootloadable.c ****         rowData[idx] = Bootloadable_GET_CODE_DATA(baseAddr + idx);
 250:Generated_Source\PSoC5/Bootloadable.c ****     }
 251:Generated_Source\PSoC5/Bootloadable.c ****     rowData[address % CYDEV_FLS_ROW_SIZE] = runType;
 274              		.loc 1 251 0
 275 0016 E3B2     		uxtb	r3, r4
 252:Generated_Source\PSoC5/Bootloadable.c **** 
 253:Generated_Source\PSoC5/Bootloadable.c ****     #if(CY_PSOC4)
 254:Generated_Source\PSoC5/Bootloadable.c ****         (void) CySysFlashWriteRow((uint32) rowNum, rowData);
 255:Generated_Source\PSoC5/Bootloadable.c ****     #else
 256:Generated_Source\PSoC5/Bootloadable.c ****         (void) CyWriteRowData(arrayId, rowNum, rowData);
 276              		.loc 1 256 0
 277 0018 6A46     		mov	r2, sp
 278 001a C4F30721 		ubfx	r1, r4, #8, #8
 279 001e C4F30740 		ubfx	r0, r4, #16, #8
 251:Generated_Source\PSoC5/Bootloadable.c **** 
 280              		.loc 1 251 0
 281 0022 0DF80350 		strb	r5, [sp, r3]
 282              		.loc 1 256 0
 283 0026 FFF7FEFF 		bl	CyWriteRowData
 284              	.LVL6:
 257:Generated_Source\PSoC5/Bootloadable.c ****     #endif  /* (CY_PSOC4) */
 258:Generated_Source\PSoC5/Bootloadable.c **** 
 259:Generated_Source\PSoC5/Bootloadable.c ****     #if(CY_PSOC5)
 260:Generated_Source\PSoC5/Bootloadable.c ****         /***************************************************************************
 261:Generated_Source\PSoC5/Bootloadable.c ****         * When writing to flash, data in the instruction cache can become obsolete.
 262:Generated_Source\PSoC5/Bootloadable.c ****         * Therefore, the cache data does not correlate to the data just written to
 263:Generated_Source\PSoC5/Bootloadable.c ****         * flash. A call to CyFlushCache() is required to invalidate the data in the
 264:Generated_Source\PSoC5/Bootloadable.c ****         * cache and force fresh information to be loaded from flash.
 265:Generated_Source\PSoC5/Bootloadable.c ****         ***************************************************************************/
 266:Generated_Source\PSoC5/Bootloadable.c ****         CyFlushCache();
 285              		.loc 1 266 0
ARM GAS  C:\Users\Bruger\AppData\Local\Temp\ccL4aqFN.s 			page 22


 286 002a FFF7FEFF 		bl	CyFlushCache
 287              	.LVL7:
 267:Generated_Source\PSoC5/Bootloadable.c ****     #endif /* (CY_PSOC5) */
 268:Generated_Source\PSoC5/Bootloadable.c **** }
 288              		.loc 1 268 0
 289 002e 41B0     		add	sp, sp, #260
 290              		.cfi_def_cfa_offset 12
 291              		@ sp needed
 292 0030 30BD     		pop	{r4, r5, pc}
 293              		.cfi_endproc
 294              	.LFE1:
 295              		.size	Bootloadable_SetFlashByte, .-Bootloadable_SetFlashByte
 296 0032 00BF     		.text
 297              	.Letext0:
 298              		.file 2 "Generated_Source\\PSoC5\\cytypes.h"
 299              		.file 3 "Generated_Source\\PSoC5\\CyLib.h"
 300              		.file 4 "<built-in>"
 301              		.file 5 "Generated_Source\\PSoC5\\CyFlash.h"