ARM GAS  C:\Users\Bruger\AppData\Local\Temp\cc4mFk61.s 			page 1


   1              		.syntax unified
   2              		.cpu cortex-m3
   3              		.fpu softvfp
   4              		.eabi_attribute 20, 1
   5              		.eabi_attribute 21, 1
   6              		.eabi_attribute 23, 3
   7              		.eabi_attribute 24, 1
   8              		.eabi_attribute 25, 1
   9              		.eabi_attribute 26, 1
  10              		.eabi_attribute 30, 2
  11              		.eabi_attribute 34, 1
  12              		.eabi_attribute 18, 4
  13              		.thumb
  14              		.file	"BootloaderResetTimer.c"
  15              		.text
  16              	.Ltext0:
  17              		.section	.gnu.lto_.profile.24c04894,"",%progbits
  18 0000 789C6366 		.ascii	"x\234cf```a\200\000F\206\214@\000\001\225\000\302"
  18      60606061 
  18      80004686 
  18      8C400001 
  18      9500C2
  19              		.text
  20              		.section	.gnu.lto_.jmpfuncs.24c04894,"",%progbits
  21 0000 789C6DCB 		.ascii	"x\234m\313\311\011\000 \020C\321?\356{7\326g\353\316"
  21      C9090020 
  21      1043D13F 
  21      EE7B37D6 
  21      67EBCE
  22 0013 804703E1 		.ascii	"\200G\003\341\221C<\377\354\347\322\0128%@\024\221\223"
  22      91433CFF 
  22      ECE7D20A 
  22      38254014 
  22      9193
  23 0025 2043816A 		.ascii	" C\201j\253A7\007L\323\016\027>\245\002\265"
  23      AB413707 
  23      4CD30E17 
  23      3EA502B5 
  24              		.text
  25              		.section	.gnu.lto_.inline.24c04894,"",%progbits
  26 0000 789C6DCA 		.ascii	"x\234m\312\273\015\2000\020\003P\337%\204_\010\002\211"
  26      BB0D8030 
  26      100350DF 
  26      25845F08 
  26      0289
  27 0012 060A5660 		.ascii	"\006\012V`D\006`\210\254BK\3056\264\034B\012\305\341"
  27      44066088 
  27      AC424BC5 
  27      36B41C42 
  27      0AC5E1
  28 0025 C2969E6C 		.ascii	"\302\226\236l\360\237\201\336\015\3004\022xY/\206\213"
  28      F09F81DE 
  28      0DC03412 
  28      78592F86 
  28      8B
  29 0036 333F48F0 		.ascii	"3?H\360\265X\177n\224\214\321\365b\343\261\177F\225"
  29      B5587F6E 
ARM GAS  C:\Users\Bruger\AppData\Local\Temp\cc4mFk61.s 			page 2


  29      948CD1F5 
  29      62E3B17F 
  29      4695
  30 0048 94FD3967 		.ascii	"\224\3759g\260F\214\3176\221\323\224k*4\225\232*M\265"
  30      B0468CCF 
  30      3691D394 
  30      6B2A3495 
  30      9A2A4DB5 
  31 005c 26AFA9D1 		.ascii	"&\257\251\321\024\220Y!\033\347D\270\001\310\310\033"
  31      14905921 
  31      1BE744B8 
  31      01C8C81B 
  32 006c 4C       		.ascii	"L"
  33              		.text
  34              		.section	.gnu.lto_.pureconst.24c04894,"",%progbits
  35 0000 789C25C1 		.ascii	"x\234%\301\307\021\000 \014\004\261\003\223Lp\001;C"
  35      C7110020 
  35      0C04B103 
  35      934C7001 
  35      3B43
  36 0012 FF6DF240 		.ascii	"\377m\362@2IW_\210D\246Pit\006\316d\2619\004\017\036"
  36      3249575F 
  36      8844A650 
  36      697406CE 
  36      64B13904 
  37 0028 650201   		.ascii	"e\002\001"
  38              		.text
  39              		.section	.gnu.lto_BootloaderResetTimer_Init.24c04894,"",%progbits
  40 0000 789C8D55 		.ascii	"x\234\215U]l\024U\024\276\347\336\356\314\256\333v\241"
  40      5D6C1455 
  40      14BEE7DE 
  40      EECCAEDB 
  40      76A1
  41 0012 A12F4D8C 		.ascii	"\241/M\214\211<\020\023C\364\301\3047\023%\361AM\210"
  41      893C1013 
  41      43F4C1C4 
  41      371325F1 
  41      414D88
  42 0025 F8624242 		.ascii	"\370bBBH;\017M\204m\326\3553\263\333E\214\220\000M-"
  42      483B0F4D 
  42      846DD6ED 
  42      33B3DB45 
  42      8C90004D 
  43 003a 4DC93634 		.ascii	"M\31164Z\005\213\320v[(\240t[\212\013T\273\224\376Z"
  43      5A058BD0 
  43      765B28A0 
  43      745B8A0B 
  43      54BB94FE 
  44 004f 8A6D70F9 		.ascii	"\212mp\371\321H\322\245U\272\012\216\347\334;;\265\323"
  44      D148D2A5 
  44      55BA0A8E 
  44      E7DC3B3B 
  44      B5D3
  45 0061 9F74933D 		.ascii	"\237t\223=w\357\3149\337\317\231\273g\004[\376)\303"
  45      77EFCC39 
  45      DFCF99BB 
  45      67045BFE 
ARM GAS  C:\Users\Bruger\AppData\Local\Temp\cc4mFk61.s 			page 3


  45      29C3
  46 0073 6F5467EC 		.ascii	"oTg\354C\\A0\340G\006\031\213x9\000\375`\300\366q\330"
  46      435C4130 
  46      E0470619 
  46      8B783900 
  46      FD60C0F6 
  47 0089 07BFF12C 		.ascii	"\007\277\361,\207#\311\326\006\377\226\026\3234g;\006"
  47      8723C9D6 
  47      06FF9616 
  47      D334673B 
  47      06
  48 009a 22DB9390 		.ascii	"\"\333\223\220\343\214\315q\205\003_\303\026\206I\331"
  48      E38CCD71 
  48      85035FC3 
  48      168649D9 
  49 00aa D8B371BF 		.ascii	"\330\263q\277\026\303\244\015\352\036\234\004\015p="
  49      16C3A40D 
  49      EA1E9C04 
  49      0D703D
  50 00b9 5B92342D 		.ascii	"[\2224-+q\246\267\336_\306Y\216#\031\006\017\005\215"
  50      2B71A6B7 
  50      DE5FC659 
  50      8E231906 
  50      0F058D
  51 00cc 8297828F 		.ascii	"\202\227\202\217\202\237B!\205b\012\001\012\033)\224"
  51      829F4221 
  51      85620A01 
  51      0A1B2994 
  52 00dc 50D844A1 		.ascii	"P\330D\241\224\002c\031$ \231\3678\247ULB\337_\237\335"
  52      94026319 
  52      242099F7 
  52      38A7554C 
  52      42DF5F9F 
  53 00f1 BFEF23CE 		.ascii	"\277\357#\316'\2344\267?j;\015\017y\216s\263)b\026\220"
  53      279C34B7 
  53      3F6A3B0D 
  53      0F798E73 
  53      B3296216 
  54 0106 C2E94C7A 		.ascii	"\302\351Lz\310+/1\332v}q\345iQ\034\216Gb\350G\300)("
  54      C82B2F31 
  54      DA767D71 
  54      E569511C 
  54      8E4762E8 
  55 011e 836F00BB 		.ascii	"\203o\000\273\002\255\020\0076\0115\013\232\202\023"
  55      02AD1007 
  55      3609350B 
  55      9A8213
  56 012d 0A71A8F1 		.ascii	"\012q\250\361\253\232\000\225\013`p\0323\221\264\026"
  56      AB9A0095 
  56      0B60701A 
  56      3391B416 
  57 013d 28652DB0 		.ascii	"(e-\260o\021\014!\230Rx\336\257 =X\222n\031\351\027"
  57      6F110C21 
  57      985278DE 
  57      AF203D58 
  57      926E19E9 
  58 0152 524E34AF 		.ascii	"RN4\257\360\313\221\316\003b\021\345\214\203r\326%\311"
ARM GAS  C:\Users\Bruger\AppData\Local\Temp\cc4mFk61.s 			page 4


  58      F0CB91CE 
  58      036211E5 
  58      8C8372D6 
  58      25C9
  59 0164 86B87AB9 		.ascii	"\206\270z\271\347\356sR\322S\324\324\346\322\264*Z\273"
  59      E7EE7352 
  59      D253D4D4 
  59      E6D2B42A 
  59      5ABB
  60 0176 D4A4294D 		.ascii	"\324\244)Mc\361:P\240^\254\371\347\327\301V\217\024"
  60      63F13A50 
  60      A05EACF9 
  60      E7D7C156 
  60      8F14
  61 0188 75302FAA 		.ascii	"u0/\252\255yxB[\204\351p`\022.Q>\005\021\237;'\273,"
  61      AD797842 
  61      5B84E970 
  61      60122E51 
  61      3E05119F 
  62 01a0 D2A8A9D3 		.ascii	"\322\250\251\323\245iU\260.\251\311\2474M>\257\020\375"
  62      A56955B0 
  62      2EA9C9A7 
  62      344D3EAF 
  62      10FD
  63 01b2 6B559CB3 		.ascii	"kU\234\263\351\347m\372B\225?\375d\272O'~x\205\301\371"
  63      E9E76DFA 
  63      42953FFD 
  63      64BA4F27 
  63      7E7885C1 
  64 01c7 F5D2774B 		.ascii	"\365\322wK\372BE\377\330\246/^\253\342\202\313}@\345"
  64      FA4245FF 
  64      D8A62F5E 
  64      ABE282CB 
  64      7D40E5
  65 01da A71E3766 		.ascii	"\247\0367f\344S\025\263h\377\342z\371/I\376\200\342"
  65      E45315B3 
  65      68FFE27A 
  65      F92F49FE 
  65      80E2
  66 01ec FFDBE6DF 		.ascii	"\377\333\346\337\270V\305w.\373%*\177b&z\303/\355\007"
  66      B856C577 
  66      2EFB252A 
  66      7F62267A 
  66      C32FED07 
  67 0200 187CBF5E 		.ascii	"\030|\277^\372\313\222\276\304>\021MM\366\211\330\204"
  67      FACB92BE 
  67      C43E114D 
  67      4DF689D8 
  67      84
  68 0211 35B3A35D 		.ascii	"5\263\243]wd?y$\177\"fGZ\367\303\"L\217\003\223ti*U"
  68      77643F79 
  68      247F2266 
  68      475AF7C3 
  68      224C8F03 
  69 022a 10A9F8C3 		.ascii	"\020\251\370\303\216\002\251\011[\322\353\322\264*X"
  69      8E02A909 
  69      5BD2EBD2 
ARM GAS  C:\Users\Bruger\AppData\Local\Temp\cc4mFk61.s 			page 5


  69      B42A58
  70 0239 9FD454CA 		.ascii	"\237\324T\312\306\200\333\251V\";\244\213W\2014\014"
  70      C680DBA9 
  70      56223BA4 
  70      8B578134 
  70      0C
  71 024a DC5D982B 		.ascii	"\334]\230+$\314\202\015\264m\034\2777/\333\356\341\264"
  71      24CC820D 
  71      B46D1CBF 
  71      372FDBEE 
  71      E1B4
  72 025c DD9F193E 		.ascii	"\335\237\031>\345\331\334l\232\321\231\333\207\264\223"
  72      E5D9DC6C 
  72      9AD199DB 
  72      87B493
  73 026b 666CC6B2 		.ascii	"fl\306\262^\310q\015\256\200\300\341\004\375\310r\225"
  73      5EC8710D 
  73      AE80C0E1 
  73      04FDC872 
  73      95
  74 027c 58D408FB 		.ascii	"X\324\010\373\0016cQ]WO\203\374\203k\226\205\0031\205"
  74      01366351 
  74      5D574F83 
  74      FC836B96 
  74      85033185 
  75 0290 F7C7209A 		.ascii	"\367\307 \232\034=N\036\262-\027\373u\361\272\344>8"
  75      1C3D4E1E 
  75      B22D17FB 
  75      75F1BAE4 
  75      3E38
  76 02a2 75E04509 		.ascii	"u\340E\011n6\230'\340\323\244e\275A\330\327V\302^2\031"
  76      6E369827 
  76      E0D3A465 
  76      BD41D8D7 
  76      56C25E32 
  77 02b7 9377529C 		.ascii	"\223wR\234\310\344l\234\343\340\232\233p\235n\335\300"
  77      C8E46C9C 
  77      E3E09A9B 
  77      709D6EDD 
  77      C0
  78 02c8 B1C86000 		.ascii	"\261\310`\000\207'n\245\012jW\366\317zA\027\261\"1\234"
  78      87276EA5 
  78      0A6A57F6 
  78      CF7A4117 
  78      B122319C 
  79 02dc 4D70D2A9 		.ascii	"Mp\322\251\307\226\2156]2\326\245\177\277\346\241\236"
  79      C7968D36 
  79      5D32D6A5 
  79      7FBFE6A1 
  79      9E
  80 02ed D645BC39 		.ascii	"\326E\2749\356\205\037Q\322O\262\251\203\330\324\274"
  80      EE851F51 
  80      D24FB2A9 
  80      83D8D4BC 
  81 02fd 33D9B8C1 		.ascii	"3\331\270\301\3535a\261M*i9t)R\264R\323\322+6\355\346"
  81      EB3561B1 
  81      4D2A6939 
ARM GAS  C:\Users\Bruger\AppData\Local\Temp\cc4mFk61.s 			page 6


  81      742952B4 
  81      52D3D22B 
  82 0314 A2BAFAF6 		.ascii	"\242\272\372\366\007\307\304R\247\323\350\364\246\343"
  82      07C7C452 
  82      A7D3E8F4 
  82      A6E3
  83 0322 94BBDF10 		.ascii	"\224\273\337\0200$]\336\222\206R\235G/\310\306\353\237"
  83      30245DDE 
  83      9286529D 
  83      472FC8C6 
  83      EB9F
  84 0334 E40D2D74 		.ascii	"\344\015-t\337\232*\376\237\203a\307\301\210\333\301"
  84      DF9A2AFE 
  84      9F8361C7 
  84      C188DBC1 
  85 0344 E19967DD 		.ascii	"\341\231g\335\232xWZ\210\366\236\250\315[\370\303\323"
  85      9A78575A 
  85      88F69EA8 
  85      CD5BF8C3 
  85      D3
  86 0355 90B7E083 		.ascii	"\220\267\340\203Qe\341\3452x\31110&\237\272\323:\037"
  86      5165E1E5 
  86      3278C931 
  86      30269FBA 
  86      D33A1F
  87 0368 5E1AB7FD 		.ascii	"^\032\267\375d\2472\276\245~>\037\340T`\373\021\313"
  87      64A732BE 
  87      A57E3E1F 
  87      E05460FB 
  87      11CB
  88 037a FC4C483F 		.ascii	"\374LH??K?\363\363\217\026\324_\246&\357\247\266\273"
  88      3F4B3FF3 
  88      F38F16D4 
  88      5FA626EF 
  88      A7B6BB
  89 038d F95FDDF1 		.ascii	"\371_\335\361#`\3229\346\267\311\017\361\376\002\221"
  89      2360D239 
  89      E6B7C90F 
  89      F1FE0291 
  90 039d E4B17708 		.ascii	"\344\261w\010\237\324e\360t\340\233\015_U[\3376\366"
  90      9FD465F0 
  90      74E09B0D 
  90      5F555BDF 
  90      36F6
  91 03af 1AA1DD61 		.ascii	"\032\241\335a\243b\327\216`u\250\334\330\271}G\360\255"
  91      A362D78E 
  91      6075A8DC 
  91      D8B97D47 
  91      F0AD
  92 03c1 D776BE19 		.ascii	"\327v\276\031\014\206?\012\356\2560B\357\033\037\033"
  92      0C863F0A 
  92      EEAE3042 
  92      EF1B1F1B 
  93 03d1 E10F2AF7 		.ascii	"\341\017*\367\030\241\255\345L\2532B\225\301\012\277"
  93      18A1ADE5 
  93      4CAB3242 
  93      95C10ABF 
ARM GAS  C:\Users\Bruger\AppData\Local\Temp\cc4mFk61.s 			page 7


  94 03e1 5A76858D 		.ascii	"Zv\205\215=Uzy\260zo\330\010\025UR\014UW\205\337\013"
  94      3D557A79 
  94      B07A6FD8 
  94      08155552 
  94      0C555785 
  95 03f7 5618FF01 		.ascii	"V\030\377\001\242o\270!"
  95      A26FB821 
  96              		.text
  97              		.section	.gnu.lto_BootloaderResetTimer_Enable.24c04894,"",%progbits
  98 0000 789C7D92 		.ascii	"x\234}\222\313K\002Q\024\207\317\271\223\203\"e\264"
  98      CB4B0251 
  98      1487CFB9 
  98      93832265 
  98      B4
  99 0011 12976DDC 		.ascii	"\022\227m\334E\233\376\201Z\264\213\250\226B\210\316"
  99      459BFE81 
  99      5AB48BA8 
  99      964288CE 
 100 0021 22A806CC 		.ascii	"\"\250\006\314\326\315\220\321ce.\"(\243\220\350\241"
 100      D6CD90D1 
 100      63652E22 
 100      28A390E8 
 100      A1
 101 0032 353E085A 		.ascii	"5>\010Z\212A\265\311(\210 \2506F\266\0102\3030\012;"
 101      8A41B5C9 
 101      288820A8 
 101      3646B608 
 101      32C3300A 
 102 0047 77C60C94 		.ascii	"w\306\014\224\032\230s\347q~\337\371\206;\0024\036\016"
 102      1A9873E7 
 102      717EDFF9 
 102      863B0234 
 102      1E0E
 103 0059 3A7B1840 		.ascii	":{\030@'\255(\000\262`\026@53D~\001\010S\014\247\360"
 103      27AD2800 
 103      B2601640 
 103      3533447E 
 103      0108530C 
 104 006f 89151806 		.ascii	"\211\025\030\006\323\321e\253sSQ\224\227\314\255}\306"
 104      D3D165AB 
 104      73535194 
 104      97CCAD7D 
 104      C6
 105 0080 5EA65891 		.ascii	"^\246X\221\031\030\334B'PO!\360um\025\003\324\323j\274"
 105      1918DC42 
 105      27504F21 
 105      F0756D15 
 105      03D4D36A 
 106 0095 C36D1491 		.ascii	"\303m\024\221V\255-\255T*\305Rh\256]\2602(3\032F\305"
 106      56AD2DAD 
 106      542AC552 
 106      68AE5DB0 
 106      3228331A 
 107 00ab C48BC88B 		.ascii	"\304\213\310\213\231\027\013/\0009J\362\361\017\214"
 107      99170B2F 
 107      00394AF2 
 107      F10F8C
ARM GAS  C:\Users\Bruger\AppData\Local\Temp\cc4mFk61.s 			page 8


 108 00ba F155B8C1 		.ascii	"\361U\270\301Li\341X;DN{g\\\346,zzg\313\2632c\221YU"
 108      4C69E158 
 108      3B444E7B 
 108      675CE62C 
 108      7A7A67CB 
 109 00d4 69E2B3EF 		.ascii	"i\342\263\357s\347\027f\375\021\360\333\330\322\301"
 109      73E71766 
 109      FD11F0DB 
 109      D8D2C1
 110 00e3 464B1857 		.ascii	"FK\030W\324\000\226\231\200;\350\300]\244\317\305(\206"
 110      D4009699 
 110      803BE8C0 
 110      5DA4CFC5 
 110      2886
 111 00f5 116E70FA 		.ascii	"\021np\372M4p\202A<\011\347\223M<\216\010\030\243N\232"
 111      4D347082 
 111      413C09E7 
 111      934D3C8E 
 111      0818A34E 
 112 010a 1AD227FE 		.ascii	"\032\322'\376\007\333#\030!@W\314j\227UE\023eB\217\363"
 112      07DB2318 
 112      214057CC 
 112      6A975545 
 112      1365428F 
 113 011f AFCDBA4F 		.ascii	"\257\315\272O\352G\361\352c]\265\375b\366k\030\255\316"
 113      EA47F1EA 
 113      635DB5FD 
 113      62F66B18 
 113      ADCE
 114 0131 89231A24 		.ascii	"\211#\032$\376L\307u\011\321\220(i\253U\0113e\022\317"
 114      FE4CC775 
 114      09D19028 
 114      69AB5509 
 114      336512CF 
 115 0145 F118EA12 		.ascii	"\361\030\352\022\312ZU\342 r\364\331\374\213I\3240\311"
 115      CA5A55E2 
 115      2072F4D9 
 115      FC8B49D4 
 115      30C9
 116 0157 3A090B21 		.ascii	":\011\013!\032$\376L\247t\011\013\334\241\232^\354\343"
 116      1A24FE4C 
 116      A774090B 
 116      DCA19A5E 
 116      ECE3
 117 0169 DDFCC7C8 		.ascii	"\335\374\307\310\321~\322\026\322\226t\364J\343\222"
 117      D17ED216 
 117      D29674F4 
 117      4AE392
 118 0178 CFED97BC 		.ascii	"\317\355\227\274\303\203\362\244\317#\271\372\007\345"
 118      C383F2A4 
 118      CF23B9FA 
 118      07E5
 119 0186 9E2E57B7 		.ascii	"\236.W\267,\373Ge\267W\362\015H\023\222\177hdL\362u"
 119      2CFB4765 
 119      B757F20D 
 119      4813927F 
 119      68644CF2 
ARM GAS  C:\Users\Bruger\AppData\Local\Temp\cc4mFk61.s 			page 9


 120 019b 78E01B54 		.ascii	"x\340\033Tp\325l"
 120      70D56C
 121              		.text
 122              		.section	.gnu.lto_BootloaderResetTimer_Start.24c04894,"",%progbits
 123 0000 789C7D93 		.ascii	"x\234}\223\337KSq\024\300\317\371~\257\373]FO\342\303"
 123      DF4B5371 
 123      14C0CFF9 
 123      7EAFFB5D 
 123      464FE2C3 
 124 0014 E8CD378B 		.ascii	"\350\3157\213\242\177\240\036z,\262G!D\357CP\015\326"
 124      A27FA01E 
 124      7A2CB247 
 124      2144EF43 
 124      500DD6
 125 0027 7A1CDEDB 		.ascii	"z\034\336\333\226eT\310V\020\245\276Df\315\234:K\233"
 125      966554C8 
 125      5610A5BE 
 125      4466CD9C 
 125      3A4B9B
 126 003a 0597A0F2 		.ascii	"\005\227\240\362\245\211I?\220\261\036RT\"\330\\)#\304"
 126      A589493F 
 126      90B11E52 
 126      5422D85C 
 126      2923C4
 127 004d CEF9DEB9 		.ascii	"\316\371\336\271t\303\006;\337\355\334s>\337\317\367"
 127      74C3063B 
 127      DFEDDC73 
 127      3EDFCFF7 
 128 005d DC7B25D4 		.ascii	"\334{%\324~\216\320\367\226\0048D+\326\001\212\236\014"
 128      7E8ED0F7 
 128      96043844 
 128      2BD6018A 
 128      9E0C
 129 006f 80E91242 		.ascii	"\200\351\022B\246\375`x\264\317\007\301\360I\324\354"
 129      A6FD6078 
 129      B4CF07C1 
 129      F049D4EC 
 130 007f B486C83F 		.ascii	"\264\206\310?\000\241SH\015;qE\024\004\366X\211{\336"
 130      00A15348 
 130      0D3B7145 
 130      1404F658 
 130      897BDE
 131 0092 A6478661 		.ascii	"\246G\206a\344W\1777\\m(\011\200\242\260\371\370\030"
 131      E4577F37 
 131      5C6D2809 
 131      80A2B0F9 
 131      F818
 132 00a4 9B806A0A 		.ascii	"\233\200j\012\321\215/^G\224j\366\331\327p\020\035H"
 132      D18D2F5E 
 132      47946AF6 
 132      D9D77010 
 132      1D48
 133 00b6 6B72BF65 		.ascii	"kr\277eln\246\262\361\351\303\262^BI\240\223\203\213"
 133      6C6EA6B2 
 133      F1E9C3B2 
 133      5E4249A0 
 133      93838B
ARM GAS  C:\Users\Bruger\AppData\Local\Temp\cc4mFk61.s 			page 10


 134 00c9 839B8387 		.ascii	"\203\233\203\207\203\227\203\217\003\300\002\265\263"
 134      8397838F 
 134      03C002B5 
 134      B3
 135 00d6 C5A210BC 		.ascii	"\305\242\020\274\312y\274\022+d\347\334L\\\027\2226"
 135      CA79BC12 
 135      2B64E7DC 
 135      4C5C1792 
 135      36
 136 00e7 EB9FBB3D 		.ascii	"\353\237\273=,\302\177\214\353\206\253$\304\006oG\331"
 136      2CC27F8C 
 136      EB86AB24 
 136      C4066F47 
 136      D9
 137 00f8 6F0B33B3 		.ascii	"o\0133\263\256eA\031\365w\320\214\366b\037>0\015\256"
 137      AE654119 
 137      F577D08C 
 137      F6621F3E 
 137      300DAE
 138 010b 92F804C3 		.ascii	"\222\370\004\303\370\024\033\311,Ai\370\204\321\257"
 138      F8141BC9 
 138      2C4169F8 
 138      84D1AF
 139 011a 11FF3FA6 		.ascii	"\021\377?\24690u\323\311\335d\200C\\\007\254 !\355\227"
 139      393075D3 
 139      C9DD6480 
 139      435C07AC 
 139      2021ED97 
 140 012e 598C58EB 		.ascii	"Y\214X\353\031\037\027C\365\366ZQu<\3030\331\327\001"
 140      191F1743 
 140      F5F65A51 
 140      753CC330 
 140      D9D701
 141 0141 C9E6F3B9 		.ascii	"\311\346\363\271\357JvW\323j\265\341\212Z\222\322T0"
 141      EF4A7657 
 141      D36AB5E1 
 141      8A5A92D2 
 141      5430
 142 0153 7B7F2052 		.ascii	"{\177 R\3172\022\001G\224\314\242\320\312\323x\263v"
 142      CF321201 
 142      4794CCA2 
 142      D0CAD378 
 142      B376
 143 0165 E35D7212 		.ascii	"\343]r\022w\014\335\212\317\0105\362\"\235\276\352v"
 143      770CDD8A 
 143      CF0835F2 
 143      229DBEEA 
 143      76
 144 0176 E0286903 		.ascii	"\340(i\003\216\361I\235t\355Cb:\247\340\216\207\327"
 144      8EF1499D 
 144      74ED4362 
 144      3AA7E08E 
 144      87D7
 145 0188 4C43DB31 		.ascii	"LC\3331:\207\362{\033\317XN\366\273c\222\237\023S\330"
 145      3A87F27B 
 145      1BCF584E 
 145      F6BB6392 
ARM GAS  C:\Users\Bruger\AppData\Local\Temp\cc4mFk61.s 			page 11


 145      9F1353D8 
 146 019c 88E3CAEF 		.ascii	"\210\343\312\3579\217n\036#\277\272X\301f\272l\354\373"
 146      398F6E1E 
 146      23BFBA58 
 146      C166BA6C 
 146      ECFB
 147 01ae BEE5314D 		.ascii	"\276\3451M\015\220\234_P5\231\306T\311\177\211\023D"
 147      0D909C5F 
 147      503599C6 
 147      54C97F89 
 147      1344
 148 01c0 2406A873 		.ascii	"$\006\250se\222\037\313P75\305\226\272W\367(\253\324"
 148      65921FCB 
 148      503735C5 
 148      96BA57F7 
 148      28ABD4
 149 01d3 96E8CA44 		.ascii	"\226\350\312D\327\370\336m\234\311\012\347\345\226\231"
 149      D7F8DE6D 
 149      9CC90AE7 
 149      E59699
 150 01e2 C3067888 		.ascii	"\303\006x\210Q\243\261{{Zixl\215\265doY\303KM\243?G"
 150      51A3B17B 
 150      7B5A6978 
 150      6C8DB564 
 150      6F59C34B 
 151 01fa 86506918 		.ascii	"\206Pi\030\375e\215\037\371\356\003\3330S\025\314\253"
 151      FD658D1F 
 151      F9EE03DB 
 151      305315CC 
 151      AB
 152 020b 2A0B1F21 		.ascii	"*\013\037!j,v\355~\255$|\220C\323\272{R=n\300\357\003"
 152      6A2C76ED 
 152      7EAD247C 
 152      9043D3BA 
 152      7B523D6E 
 153 0222 F29DA767 		.ascii	"\362\235\247g\247\371\204~Q\017\266\205\364\216\263"
 153      A7F9847E 
 153      510FB685 
 153      F48EB3
 154 0231 2D81CBC1 		.ascii	"-\201\313\301v\275\365TK\340\370\321\326c\201@\350|"
 154      76BDF554 
 154      4BE0F8D1 
 154      D6638140 
 154      E87C
 155 0243 A0AD430F 		.ascii	"\240\255C\017\236\326/\351\2413\347.\350\301\346v\370"
 155      9ED62FE9 
 155      A133E72E 
 155      E8C1E676 
 155      F8
 156 0254 0B22AC50 		.ascii	"\013\"\254P\266"
 156      B6
 157              		.text
 158              		.section	.gnu.lto_BootloaderResetTimer_Stop.24c04894,"",%progbits
 159 0000 789C7D92 		.ascii	"x\234}\222\313K\002Q\024\207\317\271c\303\210\364\240"
 159      CB4B0251 
 159      1487CFB9 
 159      63C388F4 
ARM GAS  C:\Users\Bruger\AppData\Local\Temp\cc4mFk61.s 			page 12


 159      A0
 160 0011 95B86CE3 		.ascii	"\225\270l\343N\332\364\017T\3206\262\245\020\242\263"
 160      4EDAF40F 
 160      54D036B2 
 160      A510A2B3 
 161 0021 08AA01B3 		.ascii	"\010\252\001\263u3dD\255\254\240\202\036\024\022=\264"
 161      75336444 
 161      ADACA082 
 161      1E14123D 
 161      B4
 162 0032 B44C6897 		.ascii	"\264Lh\227\024\204\233\212\202\010Z\330\306\250\026"
 162      14849B8A 
 162      82085AD8 
 162      C6A816
 163 0041 41195486 		.ascii	"A\031T\206f\347\316X\202b\003s\356<\316\357;\337pG\200"
 163      66E7CE58 
 163      82620373 
 163      EE3CCEEF 
 163      3BDF7047 
 164 0056 EAC34667 		.ascii	"\352\303Fg'\003h\245\025\005@\026<\007\320$\206\310"
 164      270368A5 
 164      15054016 
 164      3C07D024 
 164      86C8
 165 0068 2F006194 		.ascii	"/\000a\224\341(>\261W\206\301dx\301b_WU\365%[\260\216"
 165      E1283EB1 
 165      5786C164 
 165      78C1625F 
 165      5755F525 
 166 007f 5B73147B 		.ascii	"[s\024{c\006\0067\320\016\324\363\032(\334X\304\000"
 166      63060637 
 166      D00ED4F3 
 166      1A28DC58 
 166      C400
 167 0091 F53419EF 		.ascii	"\3654\031\357p\023E\2445\332\234T\213\305x~\366\261"
 167      701345A4 
 167      35DA9C54 
 167      8BC5787E 
 167      F6B1
 168 00a3 C5646190 		.ascii	"\305da\220c4\214J\035/\"/\022/f^\0002\224\344\343\357"
 168      63348C4A 
 168      1D2F222F 
 168      122F665E 
 168      003294E4 
 169 00b9 19E3AB70 		.ascii	"\031\343\253p\213\307\357S\351\243%\344\264\017\306"
 169      8BC7EF53 
 169      E9A325E4 
 169      B40FC6
 170 00c8 65F69E63 		.ascii	"e\366\236c\021|d9\306\324\025M5\361\331w\231\213KI\177"
 170      117C6439 
 170      C6D4154D 
 170      35F1D977 
 170      998B4B49 
 171 00dd 04FC3611 		.ascii	"\004\3746\021:\311\327/\343\242\026\300\034\023p\013"
 171      3AC9D72F 
 171      E3A216C0 
 171      1C13700B 
ARM GAS  C:\Users\Bruger\AppData\Local\Temp\cc4mFk61.s 			page 13


 172 00ed 6DB88DF4 		.ascii	"m\270\215\364\271\030\306e\204[\034\373\024\015\234"
 172      B918C665 
 172      845B1CFB 
 172      140D9C
 173 00fc 6010A7A7 		.ascii	"`\020\247\247\017V\032x\\\370F\300\010\265\322\330\031"
 173      0F561A78 
 173      5CF846C0 
 173      08B5D2D8 
 173      19
 174 010d 7DE47FB4 		.ascii	"}\344\177\264\035\242\021\003t\307\323\324a\311\261"
 174      1DA21103 
 174      74C7D3D4 
 174      61C9B1
 175 011c 8E3267E1 		.ascii	"\2162g\341T\272Q\027\012M\224\034#s\211\265\2062f\367"
 175      54BA5117 
 175      0A4D941C 
 175      237389B5 
 175      863266F7 
 176 0130 0F13AD90 		.ascii	"\017\023\255\220\342\210*\211\232\351\230.!\032\022"
 176      E2882A89 
 176      9AE9982E 
 176      211A12
 177 013f E7A9AB92 		.ascii	"\347\251\253\222\204D\231\231\207\311l\275.\021\377"
 177      84449999 
 177      87C96CBD 
 177      2E11FF
 178 014e 95B8FE5A 		.ascii	"\225\270\376Z\325\032\313\230\275?\314~\205\204\231"
 178      D51ACB98 
 178      BD3FCC7E 
 178      858499
 179 015d 10551235 		.ascii	"\020U\0225\323q]\302\014i\324\222\363=\274\233\377\031"
 179      D3715DC2 
 179      0C69D492 
 179      F33DBC9B 
 179      FF19
 180 016f 19DA50DA 		.ascii	"\031\332P\332C\332\023G\227<$\373\334~\331\333\347T"
 180      43DA1347 
 180      973C24FB 
 180      DC7ED9DB 
 180      E754
 181 0181 467C1ED9 		.ascii	"F|\036\331\325\355T:\332\\\355\212\342\037P\334^\331"
 181      D5ED543A 
 181      DA5CED8A 
 181      E21F50DC 
 181      5ED9
 182 0193 D7230FCB 		.ascii	"\327#\017\313\376\336\376A\331\347\360\300\0170\340"
 182      FEDEFE41 
 182      D9E7F0C0 
 182      0F30E0
 183 01a2 D6A5     		.ascii	"\326\245"
 184              		.text
 185              		.section	.gnu.lto_BootloaderResetTimer_SetInterruptMode.24c04894,"",%progbits
 186 0000 789C6366 		.ascii	"x\234cf\300\004R@\314\305\310\300`\007\244\031\231\031"
 186      C0045240 
 186      CCC5C8C0 
 186      6007A419 
 186      9919
ARM GAS  C:\Users\Bruger\AppData\Local\Temp\cc4mFk61.s 			page 14


 187 0012 1899269C 		.ascii	"\030\231&\234c`h\344`bd\0041\030\030\031\352\231\030"
 187      636068E4 
 187      60626404 
 187      31181819 
 187      EA9918
 188 0025 EB195F32 		.ascii	"\353\031_2}db\234p`\365\014n\365\245\015\015\015\037"
 188      7D64629C 
 188      7060F50C 
 188      6EF5A50D 
 188      0D0D1F
 189 0038 3E4D956C 		.ascii	">M\225l\225\370\311\304\300\360\231\011b\014\343rFu"
 189      95F8C9C4 
 189      C0F09909 
 189      620CE372 
 189      4675
 190 004a A092FE07 		.ascii	"\240\222\376\007\177w\2601\03322\000\331\247>}{\307"
 190      7F77B031 
 190      1B323200 
 190      D9A73E7D 
 190      7BC7
 191 005c A4BAB8A1 		.ascii	"\244\272\270\241\241\351\300\253u\015\016\214?\201f"
 191      A1E9C0AB 
 191      750D0E8C 
 191      3F8166
 192 006b AE606406 		.ascii	"\256`d\006\352`\324\221b\324\224b\000\01200\256dT\005"
 192      EA60D491 
 192      62D49462 
 192      000A3030 
 192      AE645405 
 193 007f 29FED8F2 		.ascii	")\376\330\362\367:7[\013\320l\001\210\231\214\253\030"
 193      F73A375B 
 193      0BD06C01 
 193      88998CAB 
 193      18
 194 0090 D980CE62 		.ascii	"\331\200\316bX/t\240\341\377\377\315w\246\234\320ca"
 194      582F74A0 
 194      E1FFFFCD 
 194      77A69CD0 
 194      6361
 195 00a2 019A0052 		.ascii	"\001\232\000R\317\360\004\250\002\344\274\247LL \232"
 195      CFF004A8 
 195      02E4BCA7 
 195      4C4C209A 
 196 00b2 F916E3A1 		.ascii	"\371\026\343\241i\037\357<\341\004i\002\032\366\345"
 196      691FEF3C 
 196      E1046902 
 196      1AF6E5
 197 00c1 CBDB1FEC 		.ascii	"\313\333\037\354/\230~215\317kl`\001\231\177\377\311"
 197      2F987E32 
 197      3135CF6B 
 197      6C600199 
 197      7FFFC9
 198 00d4 F98B1C60 		.ascii	"\371\213\034`!\006\020\367\346\335\263\273\230\3462"
 198      210610F7 
 198      E6DDB3BB 
 198      98E632
 199 00e3 CE6E6C69 		.ascii	"\316nli<\300\372\223\211\231q5\243\024\343\032F``0\256"
ARM GAS  C:\Users\Bruger\AppData\Local\Temp\cc4mFk61.s 			page 15


 199      3CC0FA93 
 199      89997135 
 199      A314E31A 
 199      46606030 
 200 00f8 659CCBF8 		.ascii	"e\234\313\370\035\250\354\036c\343\201\257A \023A\376"
 200      1DA8EC1E 
 200      63E381AF 
 200      41201341 
 200      FE
 201 0109 7B02742B 		.ascii	"{\002t+\320&\240n=\367\324\274\324\242\304\222\324\224"
 201      D026A06E 
 201      3DF7D4BC 
 201      D4A2C492 
 201      D494
 202 011b F8E0FCD2 		.ascii	"\370\340\374\322\242\344\324\230\200\340|g\323\030\247"
 202      A2E4D498 
 202      80E07C67 
 202      D318A7
 203 012a FCFC929C 		.ascii	"\374\374\222\234\374\304\224\324\242\240\324\342\324"
 203      FCC494D4 
 203      A2A0D4E2 
 203      D4
 204 0137 9290CCDC 		.ascii	"\222\220\314\334\324\"\275d\006\336\314\274\222\324"
 204      D422BD64 
 204      06DECCBC 
 204      92D4
 205 0145 A2A2D282 		.ascii	"\242\242\322\202\022\337\374\224T\000\257\311w\320"
 205      12DFFC94 
 205      5400AFC9 
 205      77D0
 206              		.text
 207              		.section	.gnu.lto_BootloaderResetTimer_SoftwareCapture.24c04894,"",%progbits
 208 0000 789C6366 		.ascii	"x\234cf\300\004R@|\036\210\015\200\230\221\231\201\221"
 208      C0045240 
 208      7C1E880D 
 208      80989199 
 208      8191
 209 0012 69C23906 		.ascii	"i\3029\006\206F\016&FF\020\203\201\221\241\236\211\261"
 209      86460E26 
 209      46461083 
 209      8191A19E 
 209      89B1
 210 0024 9EF125D3 		.ascii	"\236\361%\323G&\306\011\007V\317\340V_\332\320\320\360"
 210      4726C609 
 210      0756CFE0 
 210      565FDAD0 
 210      D0F0
 211 0036 E1D16CC9 		.ascii	"\341\321l\311V\211\237L\014\014\237\231 \3060.gTg\000"
 211      56899F4C 
 211      0C0C9F99 
 211      20C6302E 
 211      67546700 
 212 004a AAF9D8F2 		.ascii	"\252\371\330\362\367:7[\013P\215\000D\216q\005#\033"
 212      F73A375B 
 212      0B508D00 
 212      448E7105 
 212      231B
ARM GAS  C:\Users\Bruger\AppData\Local\Temp\cc4mFk61.s 			page 16


 213 005c 23905E2F 		.ascii	"#\220^/t\240\341\377\377\317\357\247\274\260fafb\370"
 213      74A0E1FF 
 213      FFCFEFA7 
 213      BCB06661 
 213      6662F8
 214 006f C904147C 		.ascii	"\311\004\024|\002T\000\262\345)\023\023\210f\276\305"
 214      025400B2 
 214      E5291313 
 214      8866BEC5 
 215 007f 78E85BD7 		.ascii	"x\350[\327\265sF =\337\231@V\036\3372q'\377\013\246"
 215      B5734620 
 215      3DDF9940 
 215      561EDF32 
 215      7127FF0B 
 216 0094 9F4C4C6D 		.ascii	"\237LLm\363\032\033X@6\334\177r\376\"\007X\210\001\304"
 216      F31A1B58 
 216      4036DC7F 
 216      72FE2207 
 216      588801C4 
 217 00a8 5DF5FDE0 		.ascii	"]\365\375\340\033\226\271\214\263\033[\030\177213\256"
 217      1B96B98C 
 217      B31B5B18 
 217      7F323133 
 217      AE
 218 00b9 6494625C 		.ascii	"d\224b\\\305\010\364\024\343j\306\271\214\014\367\030"
 218      C508F414 
 218      E36AC6B9 
 218      8C0CF718 
 219 00c9 1B0FDC0F 		.ascii	"\033\017\334\017\006\231\007r\344\023\240\245@{\200"
 219      06990772 
 219      E413A0A5 
 219      407B80
 220 00d8 1AF5DC53 		.ascii	"\032\365\334S\363R\213\022KRS\342\203\363K\213\222S"
 220      F3528B12 
 220      4B5253E2 
 220      83F34B8B 
 220      9253
 221 00ea 630282F3 		.ascii	"c\002\202\363\235Mc\234\362\363Kr\362\023SR\213\202"
 221      9D4D639C 
 221      F2F34B72 
 221      F2135352 
 221      8B82
 222 00fc 528B534B 		.ascii	"R\213SKB2sS\213\364\222\031\000\332\375^\034"
 222      42327353 
 222      8BF49219 
 222      00DAFD5E 
 222      1C
 223              		.text
 224              		.section	.gnu.lto_BootloaderResetTimer_ReadStatusRegister.24c04894,"",%progbits
 225 0000 789C6366 		.ascii	"x\234cf\300\004R@|\035\210\015\200\230\221\231\201\221"
 225      C0045240 
 225      7C1D880D 
 225      80989199 
 225      8191
 226 0012 69C23906 		.ascii	"i\3029\006\206F\016&FF\020\203\201\221\241\236\211\261"
 226      86460E26 
 226      46461083 
ARM GAS  C:\Users\Bruger\AppData\Local\Temp\cc4mFk61.s 			page 17


 226      8191A19E 
 226      89B1
 227 0024 9EF125D3 		.ascii	"\236\361%\323G&\3063;\377]fT_\332\320\320\364\341\322"
 227      4726C633 
 227      3BFF5D66 
 227      545FDAD0 
 227      D0F4E1D2 
 228 0038 E6D4E953 		.ascii	"\346\324\351S\022~210|fb`\324\221b\324\004\231\303\270"
 228      127E3231 
 228      307C6662 
 228      60D49162 
 228      D40499C3 
 229 004d 9C519D01 		.ascii	"\234Q\235\001\250\360c\313\337\353\334l-\015\015\015"
 229      A8F063CB 
 229      DFEBDC6C 
 229      2D0D0D0D 
 230 005d 022079A0 		.ascii	"\002 y\240\304\012F6F \275^\350@\303\377\377\233\317"
 230      C40A4636 
 230      4620BD5E 
 230      E840C3FF 
 230      FF9BCF
 231 0070 4FEDD062 		.ascii	"O\355\320befb\000\351gx\002$@V=eb\002\321\314\267\030"
 231      65666200 
 231      E9677802 
 231      2440563D 
 231      656202D1 
 232 0087 0F7DEBFA 		.ascii	"\017}\353\372w\223\013\244\347;\023\310\336/_\336\376"
 232      77930BA4 
 232      E73B13C8 
 232      DE2F5FDE 
 232      FE
 233 0098 607FC1F4 		.ascii	"`\177\301\364\223\211\261y^c\003\013\310\206\373O\316"
 233      9389B179 
 233      5E63030B 
 233      C886FB4F 
 233      CE
 234 00a9 5FE4000B 		.ascii	"_\344\000\0131\200\2707\357\236\335\3054\227qvcK\343"
 234      3180B837 
 234      EF9EDDC5 
 234      34977176 
 234      634BE3
 235 00bc 01D99F4C 		.ascii	"\001\331\237LL\214+\031\245\030W1\002\335\304\270\232"
 235      4C8C2B19 
 235      A5185731 
 235      02DDC4B8 
 235      9A
 236 00cd 712E23C3 		.ascii	"q.#\303=\306\306\006n\250\201`+\031AV\001\231z\356\251"
 236      3DC6C606 
 236      6EA88160 
 236      2B194156 
 236      01997AEE 
 237 00e2 79A94589 		.ascii	"y\251E\211%\251)\361\301\371\245E\311\2511\001\301\371"
 237      25A929F1 
 237      C1F9A545 
 237      C9A93101 
 237      C1F9
 238 00f4 CEA6314E 		.ascii	"\316\2461N\371\371%9\371\211)\251EA\251\305\251%!\231"
ARM GAS  C:\Users\Bruger\AppData\Local\Temp\cc4mFk61.s 			page 18


 238      F9F92539 
 238      F98929A9 
 238      4541A9C5 
 238      A9252199 
 239 0108 B9A9457A 		.ascii	"\271\251Ez\311\014\000\301Sa\277"
 239      C90C00C1 
 239      5361BF
 240              		.text
 241              		.section	.gnu.lto_BootloaderResetTimer_ReadControlRegister.24c04894,"",%progbits
 242 0000 789C6366 		.ascii	"x\234cf\300\004R@|\035\210\015\200\230\221\231\201\221"
 242      C0045240 
 242      7C1D880D 
 242      80989199 
 242      8191
 243 0012 69C23906 		.ascii	"i\3029\006\206F\016&FF\020\203\201\221\241\236\211\261"
 243      86460E26 
 243      46461083 
 243      8191A19E 
 243      89B1
 244 0024 9EF125D3 		.ascii	"\236\361%\323G&\3063;\377]fT_\332\320\320\364\341\320"
 244      4726C633 
 244      3BFF5D66 
 244      545FDAD0 
 244      D0F4E1D0 
 245 0038 CEBBDCAD 		.ascii	"\316\273\334\255\022?\231\030\030>310\352H1j\202\314"
 245      123F9918 
 245      183E3331 
 245      30EA4831 
 245      6A82CC
 246 004b 615CCEA8 		.ascii	"a\\\316\250\316\000T\370\261\345\357un\266\226\206\206"
 246      CE0054F8 
 246      B1E5EF75 
 246      6EB69686 
 246      86
 247 005c 0601903C 		.ascii	"\006\001\220<Pb\005#\033#\220^/t\240\341\377\377\317"
 247      50620523 
 247      1B23905E 
 247      2F74A0E1 
 247      FFFFCF
 248 006f CFA6BE30 		.ascii	"\317\246\2760cefb\000\351gx\002$@V=eb\002\321\314\267"
 248      63656662 
 248      00E96778 
 248      02244056 
 248      3D656202 
 249 0086 180F7DEB 		.ascii	"\030\017}\353\372w\307\010\244\347;\023\310\336\215"
 249      FA77C708 
 249      A4E73B13 
 249      C8DE8D
 250 0095 6F37AC61 		.ascii	"o7\254a|\301\364\223\211\261a^c\003\013\310\206\373"
 250      7CC1F493 
 250      89B1615E 
 250      63030BC8 
 250      86FB
 251 00a7 4FCE5FE4 		.ascii	"O\316_\344\000\0131\200\270[\027\037\376\303;\227qv"
 251      000B3180 
 251      B85B171F 
 251      FEC33B97 
ARM GAS  C:\Users\Bruger\AppData\Local\Temp\cc4mFk61.s 			page 19


 251      7176
 252 00b9 634BE301 		.ascii	"cK\343\001\315\237LL\214+\031\245\030W1\002\335\304"
 252      CD9F4C4C 
 252      8C2B19A5 
 252      18573102 
 252      DDC4
 253 00cb B89A712E 		.ascii	"\270\232q.#\303=\306\306\006c\250\201`+\031AV\001\231"
 253      23C33DC6 
 253      C60663A8 
 253      81602B19 
 253      41560199 
 254 00df 7AEEA979 		.ascii	"z\356\251y\251E\211%\251)\361\301\371\245E\311\2511"
 254      A9458925 
 254      A929F1C1 
 254      F9A545C9 
 254      A931
 255 00f1 01C1F9CE 		.ascii	"\001\301\371\316\2461N\371\371%9\371\211)\251EA\251"
 255      A6314EF9 
 255      F92539F9 
 255      8929A945 
 255      41A9
 256 0103 C5A92521 		.ascii	"\305\251%!\231\271\251Ez\311\014\000\206jau"
 256      99B9A945 
 256      7AC90C00 
 256      866A6175 
 257              		.text
 258              		.section	.gnu.lto_BootloaderResetTimer_WriteControlRegister.24c04894,"",%progbits
 259 0000 789C6590 		.ascii	"x\234e\220?HBQ\024\306\317w\237\230\"A4\345\033\003"
 259      3F484251 
 259      14C6CF77 
 259      9F982241 
 259      34E51B03 
 260 0014 91208486 		.ascii	"\221 \204\206\2401jh\215l\012!D\337\020\230\017^\257"
 260      A0316A68 
 260      8D6C0A21 
 260      44DF1098 
 260      0F5EAF
 261 0027 D9FBC276 		.ascii	"\331\373\302v\011\214 l\221\376j\177L\232{TDS\321\024"
 261      098C206C 
 261      91FE6A7F 
 261      4C9A7B54 
 261      4453D114 
 262 003b 34D4A250 		.ascii	"4\324\242PC\2214\304\213\312\316\315\261\013\227s\356"
 262      439134C4 
 262      8BCACECD 
 262      B10B9773 
 262      EE
 263 004c E1FB7EF7 		.ascii	"\341\373~\367\273W\243\377K\347\035\004\321\010Wh\004"
 263      BB57A3FF 
 263      4BE71D04 
 263      D1085768 
 263      04
 264 005d 51B82672 		.ascii	"Q\270&r\002\002P\015\201r\0029<\213\226@\301\255\254"
 264      0202500D 
 264      81720239 
 264      3C8B9640 
 264      C1ADAC
ARM GAS  C:\Users\Bruger\AppData\Local\Temp\cc4mFk61.s 			page 20


 265 0070 85A29B52 		.ascii	"\205\242\233R\312\267\343\323\360r\237'\210\336E\007"
 265      CAB7E3D3 
 265      F0729F27 
 265      88DE4507 
 266 0080 836D4459 		.ascii	"\203mDY\262uq\251kC n?\353+\225`\244,\345\222\373z "
 266      B27571A9 
 266      6B43206E 
 266      3FEB2B95 
 266      60A42CE5 
 267 0098 47E13172 		.ascii	"G\3411r\007\032\0330\250c@'\036\020v\021Q\342V\376\373"
 267      071A1B30 
 267      A8634027 
 267      1E107611 
 267      51E256FE 
 268 00ad 2EE4CF33 		.ascii	".\344\3173\272\247\203\304\036\374\234\212\016{]\331"
 268      BAA783C4 
 268      1EFC9C8A 
 268      0E7B5DD9 
 269 00bd 6ED77F8A 		.ascii	"n\327\177\212W\375~\037\023\224\236\032\254P\351\232"
 269      57FD7E1F 
 269      13949E1A 
 269      AC50E99A 
 270 00cd 42A8AADD 		.ascii	"B\250\252\335\343l\265\326n\006\225\211a\265\227\243"
 270      E36CB5D6 
 270      6E069589 
 270      61B597A3 
 271 00dd 2A9E8427 		.ascii	"*\236\204'\204\334p\244O\361\037\0337\267\201\277\021"
 271      84DC70A4 
 271      4FF11F1B 
 271      37B781BF 
 271      11
 272 00ee A9E349F9 		.ascii	"\251\343I\371\374\253\273\204u'\357\270aOh\250@G\025"
 272      FCABBB84 
 272      7527EFB8 
 272      614F68A8 
 272      404715
 273 0101 FC17D847 		.ascii	"\374\027\330G\011\037,{\200\343\026g\024Q=\257\301Y"
 273      091F2C7B 
 273      80E31667 
 273      14513DAF 
 273      C159
 274 0113 F92676C7 		.ascii	"\371&v\307&\214\254a%m#=\0337\027\255\224\221\230\214"
 274      268CAC61 
 274      256D233D 
 274      1B3717AD 
 274      9491988C 
 275 0127 9BE3C389 		.ascii	"\233\343\303\2111\323\2643f2mXS\306\202aO\317\315\033"
 275      31D3B433 
 275      66326D58 
 275      53C68261 
 275      4FCFCD1B 
 276 013b 562C455D 		.ascii	"V,E])3k[f\346\027k\320rs"
 276      29336B5B 
 276      66E6176B 
 276      D07273
 277              		.text
 278              		.section	.gnu.lto_BootloaderResetTimer_ReadPeriod.24c04894,"",%progbits
ARM GAS  C:\Users\Bruger\AppData\Local\Temp\cc4mFk61.s 			page 21


 279 0000 789C6366 		.ascii	"x\234cf\300\004R@\374\003\210\015\200\230\221\231\201"
 279      C0045240 
 279      FC03880D 
 279      80989199 
 279      81
 280 0011 9169C239 		.ascii	"\221i\3029\006\206F\016&FF\020\203\201\221\241\236\211"
 280      0686460E 
 280      26464610 
 280      838191A1 
 280      9E89
 281 0023 B19EF125 		.ascii	"\261\236\361%\323G&\306\323\217~|\346y\301\364\223\211"
 281      D34726C6 
 281      D38F7E7C 
 281      E679C1F4 
 281      9389
 282 0035 418001C8 		.ascii	"A\200\001\310\235u\375\351\027f\020\227\221\011\304"
 282      9D75FDE9 
 282      17661097 
 282      9109C4
 283 0044 DDFDF9DC 		.ascii	"\335\375\371\334#6\365\245\015\015M\037.]M\2341e\001"
 283      2336F5A5 
 283      0D0D4D1F 
 283      2E5D4D9C 
 283      316501
 284 0057 E34F2626 		.ascii	"\343O&&\206\317L\014\214\313\031\245\030W0\202,b\\\311"
 284      86CF4C0C 
 284      8CCB19A5 
 284      18573082 
 284      2C625CC9 
 285 006b A80E52FB 		.ascii	"\250\016R\373\261\345\357un\266\226\206\206\006\001"
 285      B1E5EF75 
 285      6EB69686 
 285      860601
 286 007a 900AA0C4 		.ascii	"\220\012\240\304*F6F \275^\350@\303\377\377\233\257"
 286      2A463646 
 286      20BD5EE8 
 286      40C3FFFF 
 286      9BAF
 287 008c 4FEBD067 		.ascii	"O\353\320gcfb\000\231\300\360\004\210Any\012\344\000"
 287      63666200 
 287      99C0F004 
 287      88416E79 
 287      0AE400
 288 009f 69E65B8C 		.ascii	"i\346[\214\207\276u\035{m\000\322\363\235\011\344\260"
 288      87BE751D 
 288      7B6D00D2 
 288      F39D09E4 
 288      B0
 289 00b0 CD973F6E 		.ascii	"\315\227?nf\002\271\204\271e^c\003\013\310\206\373O"
 289      6602B984 
 289      B9655E63 
 289      030BC886 
 289      FB4F
 290 00c2 CE5FE400 		.ascii	"\316_\344\000\0131\200\270\273\376\\\234\310=\227qv"
 290      0B3180B8 
 290      BBFE5C9C 
 290      C83D9771 
ARM GAS  C:\Users\Bruger\AppData\Local\Temp\cc4mFk61.s 			page 22


 290      76
 291 00d3 634BE301 		.ascii	"cK\343\001\215\237L,\214\253\201nZ\003r\023\343Z\306"
 291      8D9F4C2C 
 291      8CAB816E 
 291      5A037213 
 291      E35AC6
 292 00e6 B98C0CF7 		.ascii	"\271\214\014\367\030\033\033\014\241\0062\200\254d\004"
 292      181B1B0C 
 292      A1063280 
 292      AC6404
 293 00f5 590564EA 		.ascii	"Y\005d\352\271\247\346\245\026%\226\244\246\304\007"
 293      B9A7E6A5 
 293      162596A4 
 293      A6C407
 294 0104 E7971625 		.ascii	"\347\227\026%\247\306\004\004\347;\233\3068\345\347"
 294      A7C60404 
 294      E73B9BC6 
 294      38E5E7
 295 0113 97E4E427 		.ascii	"\227\344\344'\246\244\026\005\245\026\247\226\204d\346"
 295      A6A41605 
 295      A516A796 
 295      8464E6
 296 0122 A616E925 		.ascii	"\246\026\351%3\000\000\355\344o\224"
 296      330000ED 
 296      E46F94
 297              		.text
 298              		.section	.gnu.lto_BootloaderResetTimer_WritePeriod.24c04894,"",%progbits
 299 0000 789C6550 		.ascii	"x\234eP=H[Q\024>\337\2751\006\342 \342P\263\024*\222"
 299      3D485B51 
 299      143EDFBD 
 299      3106E220 
 299      E250B314 
 300 0016 2DD0A120 		.ascii	"-\320\241 t\021\035\272JuS\0201w\020\214O\236q\024o"
 300      74111DBA 
 300      4A755310 
 300      3177108C 
 300      4F9E7114 
 301 002b E449A1A5 		.ascii	"\344I\241\245\020;\210(\212R\244\266\266\376\220-\323"
 301      103B8828 
 301      8A52A4B6 
 301      B6FE902D 
 301      D3
 302 003c 43DC044B 		.ascii	"C\334\004K(i@\213\011\022\301:\371\374\301\006\224\327"
 302      2869408B 
 302      0912C13A 
 302      F9FCC106 
 302      94D7
 303 004e 735FA6D2 		.ascii	"s_\246\322\003\227s\316\3079\337\367\235+\351\377\210"
 303      039773CE 
 303      C739DFF7 
 303      9D2BE9FF 
 303      88
 304 005f F19B0651 		.ascii	"\361\233\006Q\017gH\202\310\036\021e\"\0020\005\201"
 304      0F674882 
 304      C81E1165 
 304      22023005 
 304      81
ARM GAS  C:\Users\Bruger\AppData\Local\Temp\cc4mFk61.s 			page 23


 305 0070 660466F0 		.ascii	"f\004f\360[x\002Ywk1\032\337\320Z_]\237\264\315=\251"
 305      5B780259 
 305      776B311A 
 305      DFD05A5F 
 305      5D9FB4CD 
 306 0086 09A21B51 		.ascii	"\011\242\033Q\247\301'\304y\304\317y\205F\371\034\304"
 306      A7C127C4 
 306      79C4CF79 
 306      8546F91C 
 306      C4
 307 0097 F5E1D99F 		.ascii	"\365\341\331\237\233\246\013Q\023h6\355R\351\374V\232"
 307      9BA60B51 
 307      136836ED 
 307      52E9FC56 
 307      9A
 308 00a8 5608D316 		.ascii	"V\010\323\026/O\326\"\035\037\265\236uOwu\027\343\022"
 308      2F4FD622 
 308      1D1FB59E 
 308      754F7775 
 308      17E312
 309 00bb 9B90CC87 		.ascii	"\233\220\314\207\317\210\341\013b\304\020a\013\035f"
 309      CF88E10B 
 309      62C41061 
 309      0B1D66
 310 00ca DCDBC81F 		.ascii	"\334\333\310\0374\312\316\200\370\335\2577\317\332\327"
 310      34CACE80 
 310      F8DDAF37 
 310      CFDAD7
 311 00d9 79B372F9 		.ascii	"y\263r\371\376m\223\336\324N\305\367\237\032\202\257"
 311      FE6D93DE 
 311      D44EC5F7 
 311      9F1A82AF 
 312 00e9 FF12D4C3 		.ascii	"\377\022\324\303l;\217\245h\330a\347\315\370\206\366"
 312      6C3B8FA5 
 312      68D861E7 
 312      CDF886F6 
 313 00f9 BA6B6C23 		.ascii	"\272kl#\314\207\323N\213\253}?w\273p\3612\034\002\002"
 313      CC87D34E 
 313      8BAB7D3F 
 313      77BB70F1 
 313      321C0202 
 314 010d 45AAF284 		.ascii	"E\252\362\204\371\200sv\313Y\376\304\254[\\n\015v\230"
 314      F9807376 
 314      CB59FEC4 
 314      AC5B5C6E 
 314      0D7698
 315 0120 E15E808E 		.ascii	"\341^\200\216\261\377\301\273[\220\006c\215\334\017"
 315      B1FFC1BB 
 315      5B900663 
 315      8DDC0F
 316 012f 2F27CC7D 		.ascii	"/'\314}!g5\243CF\266\\\375^\210\004P\340\"\377P\230"
 316      216735A3 
 316      4346B65C 
 316      FD5E8804 
 316      50E022FF 
 317 0145 8FAE6039 		.ascii	"\217\256`9\343\240&\032\260\303.w\215K\354a\005\206"
 317      E3A0261A 
ARM GAS  C:\Users\Bruger\AppData\Local\Temp\cc4mFk61.s 			page 24


 317      B0C32E77 
 317      8D4BEC61 
 317      0586
 318 0157 F11419B7 		.ascii	"\361\024\031\267<`\370\214\357*#,\315F\022\257\324\270"
 318      3C60F88C 
 318      EF2A232C 
 318      CD4612AF 
 318      D4B8
 319 0169 B287D32A 		.ascii	"\262\207\323*9\324gM\331#j\260\267\317\352y1\330mY\351"
 319      39D4674D 
 319      D9236AB0 
 319      B7CFEA79 
 319      31D86D59 
 320 017e 316B38A9 		.ascii	"1k8\251\354\327jR\245\373GS\312N\214PxB\331\243V2ZO"
 320      ECD76A52 
 320      A5FB4753 
 320      CA4E8C50 
 320      7842D9A3 
 321 0196 4369959A 		.ascii	"Ci\225\232\370\013\205\340\242\277"
 321      F80B85E0 
 321      A2BF
 322              		.text
 323              		.section	.gnu.lto_BootloaderResetTimer_ReadCapture.24c04894,"",%progbits
 324 0000 789C658E 		.ascii	"x\234e\216?K\003A\020\305\347\315\205$\242E\260\314"
 324      3F4B0341 
 324      10C5E7CD 
 324      8524A245 
 324      B0CC
 325 0012 1738AB10 		.ascii	"\0278\253\020\013\277\200\026\266b,\003r$[\010\352\301"
 325      0BBF8016 
 325      B6622C03 
 325      72245B08 
 325      EAC1
 326 0024 19EBEC85 		.ascii	"\031\353\354\205\024b%((J\304F\374\217\266b\023m\225"
 326      14622528 
 326      284AC446 
 326      FC8FB662 
 326      136D95
 327 0037 88552045 		.ascii	"\210U E\304\220@\004\013\303\211\346\012\211;b\347\302"
 327      C4904004 
 327      0BC389E6 
 327      0A893B62 
 327      E7C2
 328 0049 63E6B73B 		.ascii	"c\346\267;;\357Y\364\377$\215\372Fi#X\004\336\250\021"
 328      3BEF59F4 
 328      FF248DFA 
 328      46692358 
 328      04DEA811 
 329 005d F97106A4 		.ascii	"\371q\006\244!P\221Q\304+\367\030\367\255~0\322\345"
 329      21509151 
 329      C42BF718 
 329      F7AD7E30 
 329      D2E5
 330 006f 90294106 		.ascii	"\220)A\006w\353\235\017K\020,x\023\324ZQ\373P\353\322"
 330      77EB9D0F 
 330      4B102C78 
 330      13D45A51 
ARM GAS  C:\Users\Bruger\AppData\Local\Temp\cc4mFk61.s 			page 25


 330      FB50EBD2 
 331 0083 7B297076 		.ascii	"{)pv\266\016\0202S\300\204#$q\0141\302\011l\231\355"
 331      B60E1032 
 331      53C08423 
 331      24710C31 
 331      C2096C99 
 332 0098 95BFEBC3 		.ascii	"\225\277\353\303\321\262\326:!\023\346\341\024Q\230"
 332      D1B2D63A 
 332      2113E6E1 
 332      145198
 333 00a7 7A395AD5 		.ascii	"z9Z\325\203A\360\260\335\265c\026\223l\240\266\221d"
 333      8341F0B0 
 333      DDB56316 
 333      936CA0B6 
 333      9164
 334 00b9 E91830D5 		.ascii	"\351\0300\325j\340\356s\275\031\246\345\317\027K\260"
 334      6AE0EE73 
 334      BD19A6E5 
 334      CF174BB0 
 335 00c9 EBDAED4B 		.ascii	"\353\332\355KL\222Xk\373\276\216\210\303s\373\361)\376"
 335      4C92586B 
 335      FBBE8E88 
 335      C373FBF1 
 335      29FE
 336 00db 7B45826F 		.ascii	"{E\202o\233\215\253\241\012\366\374\262_\035\0139\202"
 336      9B8DABA1 
 336      0AF6FCB2 
 336      5F1D0B39 
 336      82
 337 00ec 3393E95C 		.ascii	"3\223\351\\2\341\002\025P\023\276\036\377[Hb\011\261"
 337      32E10215 
 337      5013BE1E 
 337      FF5B4862 
 337      09B1
 338 00fe 326D6A5A 		.ascii	"2mjZ-+\317)\250\374|\306]\365r*;\223q\247&\262\223\256"
 338      2D2BCF29 
 338      A8FC7CC6 
 338      5DF5722A 
 338      3B9371A7 
 339 0116 5B58749D 		.ascii	"[Xt\235\274\362f\325\212*\314-,)/\225\243\0377Pp\016"
 339      BCF266D5 
 339      8A2ACC2D 
 339      2C292F95 
 339      A31F3750 
 340              		.text
 341              		.section	.gnu.lto_BootloaderResetTimer_WriteCounter.24c04894,"",%progbits
 342 0000 789C654F 		.ascii	"x\234eO1HBQ\024\275\367\275\237\012\006JS\271\213\233"
 342      31484251 
 342      14BDF7BD 
 342      9F0A064A 
 342      53B98B9B 
 343 0014 D0503446 		.ascii	"\320P4F\015\255\221\215\202\210\276!(?\374\276\263\357"
 343      0DAD918D 
 343      8288BE21 
 343      283FFCBE 
 343      B3EF
 344 0026 9B35DB92 		.ascii	"\2335\333\222Q\350\022QieA\020.\361k\211\010\214&\241"
ARM GAS  C:\Users\Bruger\AppData\Local\Temp\cc4mFk61.s 			page 26


 344      51E81251 
 344      69654110 
 344      2EF16B89 
 344      088C26A1 
 345 003a 2121BE64 		.ascii	"!!\276d\320\220\030\230C\330}5\366\340q\3579\234w\316"
 345      D0901898 
 345      43D87D35 
 345      F6E071EF 
 345      399C77CE 
 346 004e 791CFE9F 		.ascii	"y\034\376\237\000\335\020\002L\321D\016\310\362u\000"
 346      00DD1002 
 346      4CD1440E 
 346      C8F27500 
 347 005e CBC310D5 		.ascii	"\313\303\020\325\002\010\031\206\031|c\035\206y\273"
 347      02081986 
 347      197C631D 
 347      8679BB
 348 006d B2ED0DED 		.ascii	"\262\355\015\355K)?\262\375\261\365\321>\003\350\262"
 348      4B293FB2 
 348      FDB1F5D1 
 348      3E03E8B2 
 349 007d 3F1B3CC0 		.ascii	"?\033<\300\020I\352wk&\037G\240\365\376\345\253;\334"
 349      1049EA77 
 349      6B261F47 
 349      A0F5FEE5 
 349      AB3BDC
 350 0090 667D867E 		.ascii	"f}\206~\005w\032\255O\256 c\012\326\032W%_pO\312\254"
 350      05771AAD 
 350      4FAE2063 
 350      0AD61A57 
 350      255F704F 
 351 00a6 DD3C93D3 		.ascii	"\335<\223\323\304s<DNvx\204\001,c\000\210\002\254`P"
 351      C4733C44 
 351      4E767884 
 351      012C6300 
 351      8802AC60 
 352 00bb C93BB9EF 		.ascii	"\311;\271\357\206\327\225\243h\377_$\036\243\213ZCu"
 352      86D795A3 
 352      68FF5F24 
 352      1EA38B5A 
 352      4375
 353 00cd C4968341 		.ascii	"\304\226\203A\327)\264'\335\032\225VzpH\241\332\267"
 353      D729B427 
 353      DD1A9556 
 353      7A7048A1 
 353      DAB7
 354 00df 288B267F 		.ascii	"(\213&\177\302\233\255\363\327\002W\217\310\354\366"
 354      C29BADF3 
 354      D702578F 
 354      C8ECF6
 355 00ee 62B3E653 		.ascii	"b\263\346SU\264\215\222%5\345\337t\036\036=\277\024"
 355      55B48D92 
 355      2535E5DF 
 355      741E1E3D 
 355      BF14
 356 0100 2858EE5D 		.ascii	"(X\356]\277kE\334\265r\330gCxB\215N\251\021`\025\213"
 356      BF6B45DC 
ARM GAS  C:\Users\Bruger\AppData\Local\Temp\cc4mFk61.s 			page 27


 356      B572D867 
 356      4378428D 
 356      4EA91160 
 357 0116 D823D767 		.ascii	"\330#\327g\264\354\313\230\362S\237w\030\252\034J\015"
 357      B4ECCB98 
 357      F2539F77 
 357      18AA1C4A 
 357      0D
 358 0127 CF899430 		.ascii	"\317\211\2240\342\246H\306\"z\332H\210\350|D\237\235"
 358      E2A648C6 
 358      227ADA48 
 358      88E87C44 
 358      9F9D
 359 0139 88CEE8BA 		.ascii	"\210\316\350\272\271\254\307\223\302X\020\253\302\\"
 359      B9ACC793 
 359      C25810AB 
 359      C25C
 360 0147 5C5A1146 		.ascii	"\\Z\021F8\001\356\204\236N\231\302\370\001\365j\177"
 360      3801EE84 
 360      9E4E99C2 
 360      F801F56A 
 360      7F
 361 0158 78       		.ascii	"x"
 362              		.text
 363              		.section	.gnu.lto_BootloaderResetTimer_ReadCounter.24c04894,"",%progbits
 364 0000 789C6366 		.ascii	"x\234cf\300\004R@\354\310\310\300`\000\244\031\231\031"
 364      C0045240 
 364      ECC8C8C0 
 364      6000A419 
 364      9919
 365 0012 1899269C 		.ascii	"\030\231&\234c`h\344`bd\0041\030\030\031\352\231\030"
 365      636068E4 
 365      60626404 
 365      31181819 
 365      EA9918
 366 0025 EB195F32 		.ascii	"\353\031_2}db<\375\350\307g\236\027L?\231\030\004\030"
 366      7D64623C 
 366      FDE8C767 
 366      9E174C3F 
 366      99180418 
 367 0039 80DC59D7 		.ascii	"\200\334Y\327\237~a\006q\031\231@\334\335\237\317=b"
 367      9F7E6106 
 367      71199940 
 367      DCDD9FCF 
 367      3D62
 368 004b 535FDAD0 		.ascii	"S_\332\320\320\364\341\320\377\304\031S\0260\376dbb"
 368      D0F4E1D0 
 368      FFC41953 
 368      1630FE64 
 368      6262
 369 005d F8CCC4C0 		.ascii	"\370\314\304\300\270\234Q\212q\005#\310\"\306\225\214"
 369      B89C518A 
 369      710523C8 
 369      22C6958C 
 370 006d EA20B51F 		.ascii	"\352 \265\037[\376^\347fkihh\020\000\251\000J\254bd"
 370      5BFE5EE7 
 370      666B6968 
ARM GAS  C:\Users\Bruger\AppData\Local\Temp\cc4mFk61.s 			page 28


 370      681000A9 
 370      004AAC62 
 371 0082 033A8261 		.ascii	"\003:\202a\275\320\201\206\377\377?\377\233\276B]\202"
 371      BDD08186 
 371      FFFF3FFF 
 371      9BBE425D 
 371      82
 372 0093 8589E127 		.ascii	"\205\211\341'\02333\003\310\030\206'@\014r\320S \007"
 372      13333303 
 372      C8188627 
 372      400C72D0 
 372      532007
 373 00a6 4833DF62 		.ascii	"H3\337b<\364\255\353Z\307b6\220\316\357L \347\035\337"
 373      3CF4ADEB 
 373      5AC76236 
 373      90CEEF4C 
 373      20E71DDF 
 374 00ba 3271273F 		.ascii	"2q'?\310=,m\363\032\033X@\366\334\177r\376\"\007X\210"
 374      C83D2C6D 
 374      F31A1B58 
 374      40F6DC7F 
 374      72FE2207 
 375 00d0 01C45DF5 		.ascii	"\001\304]\365\375\340\033\226\271\214\263\033[\200n"
 375      FDE01B96 
 375      B98CB31B 
 375      5B806E
 376 00df 63655C0D 		.ascii	"ce\\\015t\327\032\220\273\030\3272\316ed\000\033y\252"
 376      74D71A90 
 376      BB18D732 
 376      CE656400 
 376      1B79AA
 377 00f2 93196222 		.ascii	"\223\031b\"3P\375\316s\007\037\262\203\265w\300L|3\371"
 377      3350FDCE 
 377      73071FB2 
 377      83B577C0 
 377      4C7C33F9 
 378 0106 D6064EB0 		.ascii	"\326\006N\260\021\215\0074A\206\254\203\033\262\036"
 378      118D0734 
 378      4186AC83 
 378      1BB21E
 379 0115 64C83DC6 		.ascii	"d\310=\306\306\006c\250\011\014 g3\202\234\013t\274"
 379      C60663A8 
 379      090C2067 
 379      33829C0B 
 379      74BC
 380 0127 9E7B6A5E 		.ascii	"\236{j^jQbIjJ|p~iQrjL@p\276\263i\214S~~IN~bJjQPjqjI"
 380      6A516249 
 380      6A4A7C70 
 380      7E695172 
 380      6A4C4070 
 381 014e 48666E6A 		.ascii	"Hfnj\221^2\003\0008B\211\021"
 381      915E3203 
 381      00384289 
 381      11
 382              		.text
 383              		.section	.gnu.lto_.symbol_nodes.24c04894,"",%progbits
 384 0000 789C55CA 		.ascii	"x\234U\312\313\021@@\024\005\321\353\215a|\243\221_"
ARM GAS  C:\Users\Bruger\AppData\Local\Temp\cc4mFk61.s 			page 29


 384      CB114040 
 384      1405D1EB 
 384      8D617CA3 
 384      915F
 385 0012 A7200245 		.ascii	"\247 \002E\016\342\020\204\010\204`c\341\366\356Tu\222"
 385      0EE21084 
 385      08846063 
 385      E1F6EE54 
 385      7592
 386 0024 F4E82B2A 		.ascii	"\364\350+*\244\365\222@\333^\024AeN\304\337Y:\002EM"
 386      A4F59240 
 386      DB5E1441 
 386      654EC4DF 
 386      593A0245 
 387 0039 B22D539B 		.ascii	"\262-S\233\033\262\271\2451\027ZsG1\367t\346\201\336"
 387      1BB2B9A5 
 387      31175A73 
 387      4731F774 
 387      E681DE
 388 004c 3C329827 		.ascii	"<2\230'F\363\314\364w\012\351>\027\275\177\332>\230"
 388      46F3CCF4 
 388      770AE93E 
 388      17BD7FDA 
 388      3E98
 389              		.text
 390              		.section	.gnu.lto_.refs.24c04894,"",%progbits
 391 0000 789C6366 		.ascii	"x\234cf``\340d\200\000&&\006fFFf\026\006\000\001;\000"
 391      6060E064 
 391      80002626 
 391      06664646 
 391      66160600 
 392 0017 1D       		.ascii	"\035"
 393              		.text
 394              		.section	.gnu.lto_.decls.24c04894,"",%progbits
 395 0000 789C8D95 		.ascii	"x\234\215\225}L\023g\034\307\357\351\323\226R\012\372"
 395      7D4C1367 
 395      1CC7EFE9 
 395      D396520A 
 395      FA
 396 0011 976E6C89 		.ascii	"\227nl\2115nn&\306\304?f\374\317ed1n\331B`/\177hb:\271"
 396      356E6E26 
 396      C6C43F66 
 396      FCCF6564 
 396      316ED942 
 397 002c 39124749 		.ascii	"9\022GI9\262\370\337) \310D+\352`DM\235 \242R\020\005"
 397      39B2F8DF 
 397      2920C844 
 397      2BEA6044 
 397      4D9D20A2 
 398 0043 E5A5502A 		.ascii	"\345\245P**ZAA\304\002\012\005\345E@\251N\361\005b\367"
 398      2A5A4141 
 398      C4020A05 
 398      E54540A9 
 398      4EF10562 
 399 0058 BBE7B9B3 		.ascii	"\273\347\271\263w\354@.\371\025\256\374\276\237\337"
 399      77EC402E 
 399      F915AEFC 
ARM GAS  C:\Users\Bruger\AppData\Local\Temp\cc4mFk61.s 			page 30


 399      BE9FDF
 400 0067 CBF3BD03 		.ascii	"\313\363\275\0033\014c\307\014\023\204\313i`\230\004"
 400      330C63C7 
 400      0C1384CB 
 400      69609804 
 401 0077 0DC32C80 		.ascii	"\015\303,\200\357b\231\320\025\005q\006\302\011Q\016"
 401      EF6299D0 
 401      15057106 
 401      C209510E 
 402 0087 5101510B 		.ascii	"Q\001Q\013\341\202pCx \232 Z!\332!: :!|\020\010\242"
 402      E1827043 
 402      78209A20 
 402      5A21DA21 
 402      3A203A21 
 403 009f 87515E02 		.ascii	"\207Q^\002\313(\326X\004\341\207\350\025\353\230 \274"
 403      CB28D658 
 403      04E187E8 
 403      15EB9820 
 403      BC
 404 00b0 1083100F 		.ascii	"\020\203\020\017!\252D\215V\324\265\213\354Z\346\377"
 404      21AA448D 
 404      56D4B58B 
 404      EC5AE6FF 
 405 00c0 9753CC9B 		.ascii	"\227S\314\233\311e\304>\234*\032a\036\203L3$\326\034"
 405      C965C43E 
 405      9C2A1A61 
 405      1E834C33 
 405      24D61C
 406 00d3 862899C1 		.ascii	"\206(\231\301\300b\276\264\013\265\331*\336\323C\205"
 406      C062BEB4 
 406      0BB5D92A 
 406      DED34385 
 407 00e3 4A0FB532 		.ascii	"J\017\2652M\225\212FmV\227Lc\206x\0041\"\323\270T4n"
 407      4D958A46 
 407      6D56974C 
 407      63867804 
 407      3122D3B8 
 408 00fa 7106B51A 		.ascii	"q\006\265\032n\225|\317\034\371\036\225\374\246\367"
 408      6E957CCF 
 408      1CF91E95 
 408      FCA6F7
 409 0109 CCD1A4A2 		.ascii	"\314\321\244\242\021<\243c\224g?s\226V\025\235\340\003"
 409      113CA363 
 409      94673F73 
 409      9656159D 
 409      E003
 410 011b BD584BCD 		.ascii	"\275XK\3157\222\266]E\3331\217\232\035*\272\316y\326"
 410      3792B65D 
 410      45DB318F 
 410      9A1D2ABA 
 410      CE79D6
 411 012e EC54D1FA 		.ascii	"\354T\321\372D\255\\gV\251\353S\321>\325\240j\347\363"
 411      44AD5C67 
 411      56A9EB53 
 411      D13ED5A0 
 411      6AE7F3
 412 0141 9688110D 		.ascii	"\226\210\021\015\2122\232\205\333\232\334\346|=\334"
ARM GAS  C:\Users\Bruger\AppData\Local\Temp\cc4mFk61.s 			page 31


 412      8A329A85 
 412      DB9ADCE6 
 412      7C3DDC
 413 0150 9A8C5AE1 		.ascii	"\232\214Z\341\266vj\240C\273\370\020\017\227=\215_\250"
 413      B6766AA0 
 413      43BBF810 
 413      0F973D8D 
 413      5FA8
 414 0162 45B18B50 		.ascii	"E\261\213P1\212F'Q4PK\320b\370\334\250\245\244\211\342"
 414      318A4627 
 414      5134504B 
 414      D062F8DC 
 414      A8A5A489 
 415 0177 CC9C08AC 		.ascii	"\314\234\010\254A\302\357\307\363\373;\214+O\201,\213"
 415      41C2EFC7 
 415      F3FB3B8C 
 415      2B4F812C 
 415      8B
 416 0188 77FB71A8 		.ascii	"w\373q\250\334\201]\356\372(\363Q\336_\036\360Vu\231"
 416      DC815DEE 
 416      FA28F351 
 416      DE5F1EF0 
 416      567599
 417 019b F866DE1D 		.ascii	"\370f\336\035\014\256#(t\012at\032\255$\015\303\357"
 417      0CAE2328 
 417      740A6174 
 417      1AAD240D 
 417      C3EF
 418 01ad B4F333C8 		.ascii	"\264\3633\310\014\262\222\342\234\011\214\343\010\273"
 418      0CB292E2 
 418      9C098CE3 
 418      08BB
 419 01bb F398CF6F 		.ascii	"\363\230\317o$\010\307x\221\236\000\032xD\010\2452B"
 419      2408C778 
 419      919E001A 
 419      784408A5 
 419      3242
 420 01cd A9447012 		.ascii	"\251Dp\022\302\370\255\3005\015N\"\204\256\272!'\006"
 420      C2F8ADC0 
 420      350D4E22 
 420      84AEBA21 
 420      2706
 421 01df 82A3DC51 		.ascii	"\202\243\334QVL\011\353\210\276L\246/\223\364\345D\357"
 421      564C09EB 
 421      88BE4CA6 
 421      2F93F4E5 
 421      44EF
 422 01f1 B3F7B785 		.ascii	"\263\367\267\205\343\335\210\000\322\212\016>6P\300"
 422      E3DD8800 
 422      D28A0E3E 
 422      3650C0
 423 0200 84027056 		.ascii	"\204\002pV\0068+\001*\010\240\263!3\323\200\217S\300"
 423      06382B01 
 423      2A08A0B3 
 423      2133D380 
 423      8F53C0
 424 0213 8E13B57B 		.ascii	"\216\023\265{\302`\315\213\214d+{\275\005\215\230\334"
ARM GAS  C:\Users\Bruger\AppData\Local\Temp\cc4mFk61.s 			page 32


 424      C260CD8B 
 424      8C642B7B 
 424      BD058D98 
 424      DC
 425 0224 06853F6B 		.ascii	"\006\205?k\272\272\016\276\306\310\270<\213\347w\362"
 425      BABA0EBE 
 425      C6C8B83C 
 425      8BE777F2 
 426 0234 815C1E7F 		.ascii	"\201\\\036\177\300\240\225\321hE4\203.\240\345\220F"
 426      C0A095D1 
 426      68453483 
 426      2EA0E590 
 426      46
 427 0245 8AA0F370 		.ascii	"\212\240\363p\022\225p\022\205\260\347@WF\3757i\374"
 427      12957012 
 427      85B0E740 
 427      5746FD37 
 427      69FC
 428 0257 97A80A19 		.ascii	"\227\250\012\031\321\271wm\220\012\342\356\355\031\215"
 428      D1B9776D 
 428      900AE2EE 
 428      ED198D
 429 0266 76AD165E 		.ascii	"v\255\026^\303$g#9\340\027\301\376\"\315\254\007\\M"
 429      C3246723 
 429      39E017C1 
 429      FE22CDAC 
 429      075C4D
 430 0279 0EF82212 		.ascii	"\016\370\"\022O8md0\327\204\275t\204\227\005\243\305"
 430      4F386D64 
 430      30D784BD 
 430      74849705 
 430      A3C5
 431 028b 46F1247B 		.ascii	"F\361${s\361\337\274c'\3776\030D\032A\205jd\213\250"
 431      73F1DFBC 
 431      6327FF36 
 431      18441A41 
 431      856A648B 
 432 02a0 9116514B 		.ascii	"\221\026QK\026\3216\236\351\323\341\247\224\262\337"
 432      16D1369E 
 432      E9D3E1A7 
 432      94B2DF
 433 02af 93B13792 		.ascii	"\223\2617\222n\262\267D\276\311:\031\240N\002\270\010"
 433      6EB2B744 
 433      BEC93A19 
 433      A04E02B8 
 433      08
 434 02c0 60777A39 		.ascii	"`wz9\226\267,L\023\352\271^a\312\306\213Ue\221\370/"
 434      96B72C4C 
 434      13EAB95E 
 434      61CAC68B 
 434      556591F8 
 435 02d5 EACA12CF 		.ascii	"\352\312\022\317\241\003FR\314\177\344\364\225\220\371"
 435      A1034652 
 435      CC7FE4F4 
 435      9590F9
 436 02e4 40821A64 		.ascii	"@\202\032d\365\032\244znR/c_]\316\002\\O\031v\373\345"
 436      F51AA47A 
ARM GAS  C:\Users\Bruger\AppData\Local\Temp\cc4mFk61.s 			page 33


 436      6E522F63 
 436      5F5DCE02 
 436      5C4F1976 
 437 02fa 7D119471 		.ascii	"}\021\224qc\214u\247\363\323\301 \246\210F\031\242Q"
 437      638C75A7 
 437      F3D3C120 
 437      A6884619 
 437      A251
 438 030c 42780822 		.ascii	"Bx\010\"\375\331\275Q\023\036\246\210\251\322\306l\023"
 438      FDD9BD51 
 438      131EA688 
 438      A9D2C66C 
 438      13
 439 031d 454C7943 		.ascii	"ELyC\010am\227d\210K\022\242\211 \274\003\257\3765\221"
 439      08616D97 
 439      64884B12 
 439      A28920BC 
 439      03AFFE35 
 440 0332 0775A100 		.ascii	"\007u\241\000)\270;\370\034\223\007U#\334\036y\366\244"
 440      29B83BF8 
 440      1C930755 
 440      23DC1E79 
 440      F6A4
 441 0344 2E1CEFC7 		.ascii	".\034\357\307\012w\231\251\273\362\306^\2357\220[\241"
 441      0A7799A9 
 441      BBF2C65E 
 441      9D37905B 
 441      A1
 442 0355 0ED86BEA 		.ascii	"\016\330k\352\201\263X\217\226\033\251o\212\250o\274"
 442      81B3588F 
 442      961BA96F 
 442      8AA86FBC 
 443 0365 B0C5AB21 		.ascii	"\260\305\253!\337\230E\337\020\013\362i\274\356d\024"
 443      DF9845DF 
 443      100BF269 
 443      BCEE6414 
 444 0375 832EC396 		.ascii	"\203.\303\226\257\300\226\321up\241Yta3|y\015\276\204"
 444      AFC096D1 
 444      7570A159 
 444      7461337C 
 444      790DBE84 
 445 0389 4AAF335A 		.ascii	"J\2573Z\372\024G\343U\034\315\015\305\321\324\354\351"
 445      FA1447E3 
 445      551CCD0D 
 445      C5D1D4EC 
 445      E9
 446 039a 9932E27C 		.ascii	"\2312\342|\332\362\244k\332\031Ev\022\360v\027\230\336"
 446      DAF2A46B 
 446      DA194576 
 446      12F07617 
 446      98DE
 447 03ac B9898850 		.ascii	"\271\211\210P\213l--\322ZZ\311Z\352\012G\237D\020S{"
 447      8B6C2D2D 
 447      D25A5AC9 
 447      5AEA0A47 
 447      9F441053 
 448 03c1 DF99BAAF 		.ascii	"\337\231\272\257r\362\202qVS\337\"]\334\224L\355r\334"
ARM GAS  C:\Users\Bruger\AppData\Local\Temp\cc4mFk61.s 			page 34


 448      72F28271 
 448      5653DF22 
 448      5DDC944C 
 448      ED72DC
 449 03d4 38A3C717 		.ascii	"8\243\307\027i\033\327+_\246\033\210\251\375}-\342\321"
 449      691BD72B 
 449      5FA61B88 
 449      A9FD7D2D 
 449      E2D1
 450 03e6 A4198806 		.ascii	"\244\031\210\006\265\311\232h\223\232h'M\034xU\230\203"
 450      B5C99A68 
 450      939A6827 
 450      4D1C7855 
 450      9883
 451 03f8 7117658C 		.ascii	"q\027e\214u\273'4\364x\363\367\311\\&\014r[\306\270"
 451      75BB2734 
 451      F478F3F7 
 451      C95C260C 
 451      725BC6B8 
 452 040c 2D313A08 		.ascii	"-1:\010c\327\343{\231a\370\015e\274\231\014\224\351"
 452      63D7E37B 
 452      9961F80D 
 452      65BC990C 
 452      94E9
 453 041e 681FCD37 		.ascii	"h\037\3157g\364qG\306\270#1:\011cG\317\364\3250|XK\030"
 453      67F47147 
 453      C6B82331 
 453      3A096347 
 453      CFF4D530 
 454 0436 39BED11A 		.ascii	"9\276\321\032=\355czf\037we\214\273\022\303G\030\316"
 454      3DED637A 
 454      661F7765 
 454      8CBB12C3 
 454      4718CE
 455 0449 81137961 		.ascii	"\201\023ya\330E\031o{\312/\010\377\016\340\021#\313"
 455      D845196F 
 455      7BCA2F08 
 455      FF0EE011 
 455      23CB
 456 045b 1A7F7AAB 		.ascii	"\032\177z\253.r\3311\336\361\217\277\346\211.\237\347"
 456      2E72D931 
 456      DEF18FBF 
 456      E6892E9F 
 456      E7
 457 046c FDC1E012 		.ascii	"\375\301\340\022\362\000vQ\242\370\232b\204{\370\354"
 457      F2007651 
 457      A2F89A62 
 457      847BF8EC 
 458 047c 16CCD283 		.ascii	"\026\314\322\203\226\201\224\317\373\263\320\200\273"
 458      968194CF 
 458      FBB3D080 
 458      BB
 459 0489 29B77232 		.ascii	")\267r2\273:\322\230%\030\353\375\2577plGkvg8}!\316"
 459      BB3AD298 
 459      2518EBFD 
 459      AF37706C 
 459      476B7667 
ARM GAS  C:\Users\Bruger\AppData\Local\Temp\cc4mFk61.s 			page 35


 460 04a1 54F4CDFA 		.ascii	"T\364\315\372B\274\374\354\333t0v/tw/d\354\373(\364"
 460      42BCFCEC 
 460      DB743076 
 460      2F74772F 
 460      64ECFB28 
 461 04b6 46DC3D50 		.ascii	"F\334=P\320b2e\013\026\007\243\2047G\221\344\220U\374"
 461      D0623265 
 461      0B1607A3 
 461      84374791 
 461      E49055FC 
 462 04ca C8443603 		.ascii	"\310D6\003?\205\177\225\255=\275\030\367\321\011\002"
 462      3F857F95 
 462      AD3DBD18 
 462      F7D10902 
 463 04da 5939635A 		.ascii	"Y9cZ:\301<\237\016M^\351\375\002$>v\016\357\002\204"
 463      3AC13C9F 
 463      0E4D5EE9 
 463      FD02243E 
 463      760EEF02 
 464 04ef 1E42B1FE 		.ascii	"\036B\261\376Pg\003(\364\314\251P\037\250?sE\373\257"
 464      50670328 
 464      F4CCA950 
 464      1FA83F73 
 464      45FBAF
 465 0502 60C5080F 		.ascii	"`\305\010\017\025#\014\212#\014\222\021\362\216\006"
 465      15230C8A 
 465      230C9211 
 465      F28E06
 466 0511 A6C215D9 		.ascii	"\246\302\025\331\312\227\347\220\230=D\262{\363\335"
 466      CA97E790 
 466      983D44B2 
 466      7BF3DD
 467 0520 D95A45B6 		.ascii	"\331ZE\266\360f\016e\017#\223\324\3730\021\354\031y"
 467      F0660E65 
 467      0F2393D4 
 467      FB3011EC 
 467      1979
 468 0532 713C425A 		.ascii	"q<BZJ\326\274\332/\361T\037\216P\324\030Qt\364H\354"
 468      4AD6BCDA 
 468      2FF1541F 
 468      8E50D418 
 468      5174F448 
 469 0547 48F8F9E1 		.ascii	"H\370\371\341WV+\267\315jI`mql\012\313\375\220\370;"
 469      57562BB7 
 469      CD6A4960 
 469      6D716C0A 
 469      CBFD90F8 
 470 055c 6BDBBC21 		.ascii	"k\333\274!)\221\323\257\377\376Gs\014\263j=\233\304"
 470      2991D3AF 
 470      FFFE4773 
 470      0CB36A3D 
 470      9BC4
 471 056e DA2C1C9B 		.ascii	"\332,\034\233\2609\336\232j\333\302n\212\215\267\306"
 471      B039DE9A 
 471      6ADBC26E 
 471      8A8DB7C6 
 472 057e 7CB1494D 		.ascii	"|\261IM\267j\013\363\221*\357\353$\313/\333\330h\325"
ARM GAS  C:\Users\Bruger\AppData\Local\Temp\cc4mFk61.s 			page 36


 472      B76A0BF3 
 472      912AEFEB 
 472      24CB2FDB 
 472      D868D5
 473 0591 BFC57316 		.ascii	"\277\305s\026\033\247\336F<gM\326\245&&qk\227\316\322"
 473      1BA7DE46 
 473      3C674DD6 
 473      A5262671 
 473      6B97CED2 
 474 05a5 C596EDDC 		.ascii	"\305\226\355\334\366d6e\325o\314\247\352\004\226\333"
 474      F6643665 
 474      D56FCCA7 
 474      EA0496DB 
 475 05b5 90C4B136 		.ascii	"\220\304\2616[j2\367\2355\201\375D=\313\372+\367\207"
 475      5B6A32F7 
 475      9D3581FD 
 475      443DCBFA 
 475      2BF787
 476 05c8 C5C6C658 		.ascii	"\305\306\306X\222\271T\033\373\231jR\034kI\200^\271"
 476      92B9541B 
 476      FB996A52 
 476      1C6B4980 
 476      5EB9
 477 05da D4943876 		.ascii	"\324\2248vkb\012@?\2375/\306\232\304\331\254\333\244"
 477      6B620A40 
 477      3F9F352F 
 477      C69AC4D9 
 477      ACDBA4
 478 05ed C415AA89 		.ascii	"\304\025\252\211?\333\0229vF\246^\230v\365\232%\263"
 478      3FDB1239 
 478      7646A65E 
 478      9876F59A 
 478      25B3
 479 05ff 9263595B 		.ascii	"\222cY[\2425\301<;p\256\004\322\032\235q\351\\-\245"
 479      A235C13C 
 479      3B70AE04 
 479      D21A9D71 
 479      E95C2DA5 
 480 0613 0A2B9B03 		.ascii	"\012+\233\003A\023>VMH\004\353\374d\261im\354\326\265"
 480      41133E56 
 480      4D4804EB 
 480      FC64B169 
 480      6DECD6B5 
 481 0627 3AF858BD 		.ascii	":\370X\275\346?\224\001\363-"
 481      E63F9401 
 481      F32D
 482              		.text
 483              		.section	.gnu.lto_.symtab.24c04894,"",%progbits
 484 0000 426F6F74 		.ascii	"BootloaderResetTimer_Init\000\000\000\000\000\000\000"
 484      6C6F6164 
 484      65725265 
 484      73657454 
 484      696D6572 
 485 0020 00000000 		.ascii	"\000\000\000\000\000\254\000\000\000BootloaderReset"
 485      00AC0000 
 485      00426F6F 
 485      746C6F61 
ARM GAS  C:\Users\Bruger\AppData\Local\Temp\cc4mFk61.s 			page 37


 485      64657252 
 486 0038 54696D65 		.ascii	"Timer_Enable\000\000\000\000\000\000\000\000\000\000"
 486      725F456E 
 486      61626C65 
 486      00000000 
 486      00000000 
 487 004e 0000AE00 		.ascii	"\000\000\256\000\000\000BootloaderResetTimer_Start\000"
 487      0000426F 
 487      6F746C6F 
 487      61646572 
 487      52657365 
 488 006f 00000000 		.ascii	"\000\000\000\000\000\000\000\000\000\000\000\260\000"
 488      00000000 
 488      000000B0 
 488      00
 489 007c 0000426F 		.ascii	"\000\000BootloaderResetTimer_initVar\000\000\000\000"
 489      6F746C6F 
 489      61646572 
 489      52657365 
 489      7454696D 
 490 009e 00000000 		.ascii	"\000\000\000\000\000\000\000\000\333\000\000\000Boo"
 490      00000000 
 490      DB000000 
 490      426F6F
 491 00ad 746C6F61 		.ascii	"tloaderResetTimer_Stop\000\000\000\000\000\000\000\000"
 491      64657252 
 491      65736574 
 491      54696D65 
 491      725F5374 
 492 00cb 00000000 		.ascii	"\000\000\000\000\262\000\000\000BootloaderResetTime"
 492      B2000000 
 492      426F6F74 
 492      6C6F6164 
 492      65725265 
 493 00e6 725F5365 		.ascii	"r_SetInterruptMode\000\000\000\000\000\000\000\000\000"
 493      74496E74 
 493      65727275 
 493      70744D6F 
 493      64650000 
 494 0101 000000BB 		.ascii	"\000\000\000\273\000\000\000BootloaderResetTimer_So"
 494      00000042 
 494      6F6F746C 
 494      6F616465 
 494      72526573 
 495 011f 66747761 		.ascii	"ftwareCapture\000\000\000\000\000\000\000\000\000\000"
 495      72654361 
 495      70747572 
 495      65000000 
 495      00000000 
 496 0136 0000BD00 		.ascii	"\000\000\275\000\000\000BootloaderResetTimer_ReadSt"
 496      0000426F 
 496      6F746C6F 
 496      61646572 
 496      52657365 
 497 0157 61747573 		.ascii	"atusRegister\000\000\000\000\000\000\000\000\000\000"
 497      52656769 
 497      73746572 
ARM GAS  C:\Users\Bruger\AppData\Local\Temp\cc4mFk61.s 			page 38


 497      00000000 
 497      00000000 
 498 016d 0000C000 		.ascii	"\000\000\300\000\000\000BootloaderResetTimer_ReadCo"
 498      0000426F 
 498      6F746C6F 
 498      61646572 
 498      52657365 
 499 018e 6E74726F 		.ascii	"ntrolRegister\000\000\000\000\000\000\000\000\000\000"
 499      6C526567 
 499      69737465 
 499      72000000 
 499      00000000 
 500 01a5 0000C200 		.ascii	"\000\000\302\000\000\000BootloaderResetTimer_WriteC"
 500      0000426F 
 500      6F746C6F 
 500      61646572 
 500      52657365 
 501 01c6 6F6E7472 		.ascii	"ontrolRegister\000\000\000\000\000\000\000\000\000\000"
 501      6F6C5265 
 501      67697374 
 501      65720000 
 501      00000000 
 502 01de 0000C400 		.ascii	"\000\000\304\000\000\000BootloaderResetTimer_ReadPe"
 502      0000426F 
 502      6F746C6F 
 502      61646572 
 502      52657365 
 503 01ff 72696F64 		.ascii	"riod\000\000\000\000\000\000\000\000\000\000\000\000"
 503      00000000 
 503      00000000 
 503      00000000 
 504 020f CE000000 		.ascii	"\316\000\000\000BootloaderResetTimer_WritePeriod\000"
 504      426F6F74 
 504      6C6F6164 
 504      65725265 
 504      73657454 
 505 0234 00000000 		.ascii	"\000\000\000\000\000\000\000\000\000\000\000\322\000"
 505      00000000 
 505      000000D2 
 505      00
 506 0241 0000426F 		.ascii	"\000\000BootloaderResetTimer_ReadCapture\000\000\000"
 506      6F746C6F 
 506      61646572 
 506      52657365 
 506      7454696D 
 507 0266 00000000 		.ascii	"\000\000\000\000\000\000\000\000\000\324\000\000\000"
 507      00000000 
 507      00D40000 
 507      00
 508 0273 426F6F74 		.ascii	"BootloaderResetTimer_WriteCounter\000\000\000\000\000"
 508      6C6F6164 
 508      65725265 
 508      73657454 
 508      696D6572 
 509 0299 00000000 		.ascii	"\000\000\000\000\000\000\000\326\000\000\000Bootloa"
 509      000000D6 
 509      00000042 
ARM GAS  C:\Users\Bruger\AppData\Local\Temp\cc4mFk61.s 			page 39


 509      6F6F746C 
 509      6F61
 510 02ab 64657252 		.ascii	"derResetTimer_ReadCounter\000\000\000\000\000\000\000"
 510      65736574 
 510      54696D65 
 510      725F5265 
 510      6164436F 
 511 02cb 00000000 		.ascii	"\000\000\000\000\000\330\000\000\000"
 511      00D80000 
 511      00
 512              		.text
 513              		.section	.gnu.lto_.opts,"",%progbits
 514 0000 272D666E 		.ascii	"'-fno-trapv' '-mcpu=cortex-m3' '-mthumb' '-g' '-O3'"
 514      6F2D7472 
 514      61707627 
 514      20272D6D 
 514      6370753D 
 515 0033 20272D66 		.ascii	" '-ffunction-sections' '-finline-functions' '-flto'"
 515      66756E63 
 515      74696F6E 
 515      2D736563 
 515      74696F6E 
 516 0066 20272D66 		.ascii	" '-ffat-lto-objects'\000"
 516      6661742D 
 516      6C746F2D 
 516      6F626A65 
 516      63747327 
 517              		.text
 518              		.cfi_sections	.debug_frame
 519              		.section	.text.BootloaderResetTimer_Init,"ax",%progbits
 520              		.align	2
 521              		.global	BootloaderResetTimer_Init
 522              		.thumb
 523              		.thumb_func
 524              		.type	BootloaderResetTimer_Init, %function
 525              	BootloaderResetTimer_Init:
 526              	.LFB0:
 527              		.file 1 "Generated_Source\\PSoC5\\BootloaderResetTimer.c"
   1:Generated_Source\PSoC5/BootloaderResetTimer.c **** /*******************************************************************************
   2:Generated_Source\PSoC5/BootloaderResetTimer.c **** * File Name: BootloaderResetTimer.c
   3:Generated_Source\PSoC5/BootloaderResetTimer.c **** * Version 2.70
   4:Generated_Source\PSoC5/BootloaderResetTimer.c **** *
   5:Generated_Source\PSoC5/BootloaderResetTimer.c **** * Description:
   6:Generated_Source\PSoC5/BootloaderResetTimer.c **** *  The Timer component consists of a 8, 16, 24 or 32-bit timer with
   7:Generated_Source\PSoC5/BootloaderResetTimer.c **** *  a selectable period between 2 and 2^Width - 1.  The timer may free run
   8:Generated_Source\PSoC5/BootloaderResetTimer.c **** *  or be used as a capture timer as well.  The capture can be initiated
   9:Generated_Source\PSoC5/BootloaderResetTimer.c **** *  by a positive or negative edge signal as well as via software.
  10:Generated_Source\PSoC5/BootloaderResetTimer.c **** *  A trigger input can be programmed to enable the timer on rising edge
  11:Generated_Source\PSoC5/BootloaderResetTimer.c **** *  falling edge, either edge or continous run.
  12:Generated_Source\PSoC5/BootloaderResetTimer.c **** *  Interrupts may be generated due to a terminal count condition
  13:Generated_Source\PSoC5/BootloaderResetTimer.c **** *  or a capture event.
  14:Generated_Source\PSoC5/BootloaderResetTimer.c **** *
  15:Generated_Source\PSoC5/BootloaderResetTimer.c **** * Note:
  16:Generated_Source\PSoC5/BootloaderResetTimer.c **** *
  17:Generated_Source\PSoC5/BootloaderResetTimer.c **** ********************************************************************************
  18:Generated_Source\PSoC5/BootloaderResetTimer.c **** * Copyright 2008-2014, Cypress Semiconductor Corporation.  All rights reserved.
  19:Generated_Source\PSoC5/BootloaderResetTimer.c **** * You may use this file only in accordance with the license, terms, conditions,
ARM GAS  C:\Users\Bruger\AppData\Local\Temp\cc4mFk61.s 			page 40


  20:Generated_Source\PSoC5/BootloaderResetTimer.c **** * disclaimers, and limitations in the end user license agreement accompanying
  21:Generated_Source\PSoC5/BootloaderResetTimer.c **** * the software package with which this file was provided.
  22:Generated_Source\PSoC5/BootloaderResetTimer.c **** ********************************************************************************/
  23:Generated_Source\PSoC5/BootloaderResetTimer.c **** 
  24:Generated_Source\PSoC5/BootloaderResetTimer.c **** #include "BootloaderResetTimer.h"
  25:Generated_Source\PSoC5/BootloaderResetTimer.c **** 
  26:Generated_Source\PSoC5/BootloaderResetTimer.c **** uint8 BootloaderResetTimer_initVar = 0u;
  27:Generated_Source\PSoC5/BootloaderResetTimer.c **** 
  28:Generated_Source\PSoC5/BootloaderResetTimer.c **** 
  29:Generated_Source\PSoC5/BootloaderResetTimer.c **** /*******************************************************************************
  30:Generated_Source\PSoC5/BootloaderResetTimer.c **** * Function Name: BootloaderResetTimer_Init
  31:Generated_Source\PSoC5/BootloaderResetTimer.c **** ********************************************************************************
  32:Generated_Source\PSoC5/BootloaderResetTimer.c **** *
  33:Generated_Source\PSoC5/BootloaderResetTimer.c **** * Summary:
  34:Generated_Source\PSoC5/BootloaderResetTimer.c **** *  Initialize to the schematic state
  35:Generated_Source\PSoC5/BootloaderResetTimer.c **** *
  36:Generated_Source\PSoC5/BootloaderResetTimer.c **** * Parameters:
  37:Generated_Source\PSoC5/BootloaderResetTimer.c **** *  void
  38:Generated_Source\PSoC5/BootloaderResetTimer.c **** *
  39:Generated_Source\PSoC5/BootloaderResetTimer.c **** * Return:
  40:Generated_Source\PSoC5/BootloaderResetTimer.c **** *  void
  41:Generated_Source\PSoC5/BootloaderResetTimer.c **** *
  42:Generated_Source\PSoC5/BootloaderResetTimer.c **** *******************************************************************************/
  43:Generated_Source\PSoC5/BootloaderResetTimer.c **** void BootloaderResetTimer_Init(void) 
  44:Generated_Source\PSoC5/BootloaderResetTimer.c **** {
 528              		.loc 1 44 0
 529              		.cfi_startproc
 530              		@ args = 0, pretend = 0, frame = 0
 531              		@ frame_needed = 0, uses_anonymous_args = 0
 532              		@ link register save eliminated.
 533 0000 F0B4     		push	{r4, r5, r6, r7}
 534              		.cfi_def_cfa_offset 16
 535              		.cfi_offset 4, -16
 536              		.cfi_offset 5, -12
 537              		.cfi_offset 6, -8
 538              		.cfi_offset 7, -4
 539              	.LBB16:
 540              	.LBB17:
  45:Generated_Source\PSoC5/BootloaderResetTimer.c ****     #if(!BootloaderResetTimer_UsingFixedFunction)
  46:Generated_Source\PSoC5/BootloaderResetTimer.c ****             /* Interrupt State Backup for Critical Region*/
  47:Generated_Source\PSoC5/BootloaderResetTimer.c ****             uint8 BootloaderResetTimer_interruptState;
  48:Generated_Source\PSoC5/BootloaderResetTimer.c ****     #endif /* Interrupt state back up for Fixed Function only */
  49:Generated_Source\PSoC5/BootloaderResetTimer.c **** 
  50:Generated_Source\PSoC5/BootloaderResetTimer.c ****     #if (BootloaderResetTimer_UsingFixedFunction)
  51:Generated_Source\PSoC5/BootloaderResetTimer.c ****         /* Clear all bits but the enable bit (if it's already set) for Timer operation */
  52:Generated_Source\PSoC5/BootloaderResetTimer.c ****         BootloaderResetTimer_CONTROL &= BootloaderResetTimer_CTRL_ENABLE;
  53:Generated_Source\PSoC5/BootloaderResetTimer.c **** 
  54:Generated_Source\PSoC5/BootloaderResetTimer.c ****         /* Clear the mode bits for continuous run mode */
  55:Generated_Source\PSoC5/BootloaderResetTimer.c ****         #if (CY_PSOC5A)
  56:Generated_Source\PSoC5/BootloaderResetTimer.c ****             BootloaderResetTimer_CONTROL2 &= ((uint8)(~BootloaderResetTimer_CTRL_MODE_MASK));
  57:Generated_Source\PSoC5/BootloaderResetTimer.c ****         #endif /* Clear bits in CONTROL2 only in PSOC5A */
  58:Generated_Source\PSoC5/BootloaderResetTimer.c **** 
  59:Generated_Source\PSoC5/BootloaderResetTimer.c ****         #if (CY_PSOC3 || CY_PSOC5LP)
  60:Generated_Source\PSoC5/BootloaderResetTimer.c ****             BootloaderResetTimer_CONTROL3 &= ((uint8)(~BootloaderResetTimer_CTRL_MODE_MASK));
  61:Generated_Source\PSoC5/BootloaderResetTimer.c ****         #endif /* CONTROL3 register exists only in PSoC3 OR PSoC5LP */
  62:Generated_Source\PSoC5/BootloaderResetTimer.c **** 
  63:Generated_Source\PSoC5/BootloaderResetTimer.c ****         /* Check if One Shot mode is enabled i.e. RunMode !=0*/
ARM GAS  C:\Users\Bruger\AppData\Local\Temp\cc4mFk61.s 			page 41


  64:Generated_Source\PSoC5/BootloaderResetTimer.c ****         #if (BootloaderResetTimer_RunModeUsed != 0x0u)
  65:Generated_Source\PSoC5/BootloaderResetTimer.c ****             /* Set 3rd bit of Control register to enable one shot mode */
  66:Generated_Source\PSoC5/BootloaderResetTimer.c ****             BootloaderResetTimer_CONTROL |= 0x04u;
  67:Generated_Source\PSoC5/BootloaderResetTimer.c ****         #endif /* One Shot enabled only when RunModeUsed is not Continuous*/
  68:Generated_Source\PSoC5/BootloaderResetTimer.c **** 
  69:Generated_Source\PSoC5/BootloaderResetTimer.c ****         #if (BootloaderResetTimer_RunModeUsed == 2)
  70:Generated_Source\PSoC5/BootloaderResetTimer.c ****             #if (CY_PSOC5A)
  71:Generated_Source\PSoC5/BootloaderResetTimer.c ****                 /* Set last 2 bits of control2 register if one shot(halt on
  72:Generated_Source\PSoC5/BootloaderResetTimer.c ****                 interrupt) is enabled*/
  73:Generated_Source\PSoC5/BootloaderResetTimer.c ****                 BootloaderResetTimer_CONTROL2 |= 0x03u;
  74:Generated_Source\PSoC5/BootloaderResetTimer.c ****             #endif /* Set One-Shot Halt on Interrupt bit in CONTROL2 for PSoC5A */
  75:Generated_Source\PSoC5/BootloaderResetTimer.c **** 
  76:Generated_Source\PSoC5/BootloaderResetTimer.c ****             #if (CY_PSOC3 || CY_PSOC5LP)
  77:Generated_Source\PSoC5/BootloaderResetTimer.c ****                 /* Set last 2 bits of control3 register if one shot(halt on
  78:Generated_Source\PSoC5/BootloaderResetTimer.c ****                 interrupt) is enabled*/
  79:Generated_Source\PSoC5/BootloaderResetTimer.c ****                 BootloaderResetTimer_CONTROL3 |= 0x03u;
  80:Generated_Source\PSoC5/BootloaderResetTimer.c ****             #endif /* Set One-Shot Halt on Interrupt bit in CONTROL3 for PSoC3 or PSoC5LP */
  81:Generated_Source\PSoC5/BootloaderResetTimer.c **** 
  82:Generated_Source\PSoC5/BootloaderResetTimer.c ****         #endif /* Remove section if One Shot Halt on Interrupt is not enabled */
  83:Generated_Source\PSoC5/BootloaderResetTimer.c **** 
  84:Generated_Source\PSoC5/BootloaderResetTimer.c ****         #if (BootloaderResetTimer_UsingHWEnable != 0)
  85:Generated_Source\PSoC5/BootloaderResetTimer.c ****             #if (CY_PSOC5A)
  86:Generated_Source\PSoC5/BootloaderResetTimer.c ****                 /* Set the default Run Mode of the Timer to Continuous */
  87:Generated_Source\PSoC5/BootloaderResetTimer.c ****                 BootloaderResetTimer_CONTROL2 |= BootloaderResetTimer_CTRL_MODE_PULSEWIDTH;
  88:Generated_Source\PSoC5/BootloaderResetTimer.c ****             #endif /* Set Continuous Run Mode in CONTROL2 for PSoC5A */
  89:Generated_Source\PSoC5/BootloaderResetTimer.c **** 
  90:Generated_Source\PSoC5/BootloaderResetTimer.c ****             #if (CY_PSOC3 || CY_PSOC5LP)
  91:Generated_Source\PSoC5/BootloaderResetTimer.c ****                 /* Clear and Set ROD and COD bits of CFG2 register */
  92:Generated_Source\PSoC5/BootloaderResetTimer.c ****                 BootloaderResetTimer_CONTROL3 &= ((uint8)(~BootloaderResetTimer_CTRL_RCOD_MASK));
  93:Generated_Source\PSoC5/BootloaderResetTimer.c ****                 BootloaderResetTimer_CONTROL3 |= BootloaderResetTimer_CTRL_RCOD;
  94:Generated_Source\PSoC5/BootloaderResetTimer.c **** 
  95:Generated_Source\PSoC5/BootloaderResetTimer.c ****                 /* Clear and Enable the HW enable bit in CFG2 register */
  96:Generated_Source\PSoC5/BootloaderResetTimer.c ****                 BootloaderResetTimer_CONTROL3 &= ((uint8)(~BootloaderResetTimer_CTRL_ENBL_MASK));
  97:Generated_Source\PSoC5/BootloaderResetTimer.c ****                 BootloaderResetTimer_CONTROL3 |= BootloaderResetTimer_CTRL_ENBL;
  98:Generated_Source\PSoC5/BootloaderResetTimer.c **** 
  99:Generated_Source\PSoC5/BootloaderResetTimer.c ****                 /* Set the default Run Mode of the Timer to Continuous */
 100:Generated_Source\PSoC5/BootloaderResetTimer.c ****                 BootloaderResetTimer_CONTROL3 |= BootloaderResetTimer_CTRL_MODE_CONTINUOUS;
 101:Generated_Source\PSoC5/BootloaderResetTimer.c ****             #endif /* Set Continuous Run Mode in CONTROL3 for PSoC3ES3 or PSoC5A */
 102:Generated_Source\PSoC5/BootloaderResetTimer.c **** 
 103:Generated_Source\PSoC5/BootloaderResetTimer.c ****         #endif /* Configure Run Mode with hardware enable */
 104:Generated_Source\PSoC5/BootloaderResetTimer.c **** 
 105:Generated_Source\PSoC5/BootloaderResetTimer.c ****         /* Clear and Set SYNCTC and SYNCCMP bits of RT1 register */
 106:Generated_Source\PSoC5/BootloaderResetTimer.c ****         BootloaderResetTimer_RT1 &= ((uint8)(~BootloaderResetTimer_RT1_MASK));
 107:Generated_Source\PSoC5/BootloaderResetTimer.c ****         BootloaderResetTimer_RT1 |= BootloaderResetTimer_SYNC;
 108:Generated_Source\PSoC5/BootloaderResetTimer.c **** 
 109:Generated_Source\PSoC5/BootloaderResetTimer.c ****         /*Enable DSI Sync all all inputs of the Timer*/
 110:Generated_Source\PSoC5/BootloaderResetTimer.c ****         BootloaderResetTimer_RT1 &= ((uint8)(~BootloaderResetTimer_SYNCDSI_MASK));
 111:Generated_Source\PSoC5/BootloaderResetTimer.c ****         BootloaderResetTimer_RT1 |= BootloaderResetTimer_SYNCDSI_EN;
 112:Generated_Source\PSoC5/BootloaderResetTimer.c **** 
 113:Generated_Source\PSoC5/BootloaderResetTimer.c ****         /* Set the IRQ to use the status register interrupts */
 114:Generated_Source\PSoC5/BootloaderResetTimer.c ****         BootloaderResetTimer_CONTROL2 |= BootloaderResetTimer_CTRL2_IRQ_SEL;
 115:Generated_Source\PSoC5/BootloaderResetTimer.c ****     #endif /* Configuring registers of fixed function implementation */
 116:Generated_Source\PSoC5/BootloaderResetTimer.c **** 
 117:Generated_Source\PSoC5/BootloaderResetTimer.c ****     /* Set Initial values from Configuration */
 118:Generated_Source\PSoC5/BootloaderResetTimer.c ****     BootloaderResetTimer_WritePeriod(BootloaderResetTimer_INIT_PERIOD);
 119:Generated_Source\PSoC5/BootloaderResetTimer.c ****     BootloaderResetTimer_WriteCounter(BootloaderResetTimer_INIT_PERIOD);
 120:Generated_Source\PSoC5/BootloaderResetTimer.c **** 
ARM GAS  C:\Users\Bruger\AppData\Local\Temp\cc4mFk61.s 			page 42


 121:Generated_Source\PSoC5/BootloaderResetTimer.c ****     #if (BootloaderResetTimer_UsingHWCaptureCounter)/* Capture counter is enabled */
 122:Generated_Source\PSoC5/BootloaderResetTimer.c ****         BootloaderResetTimer_CAPTURE_COUNT_CTRL |= BootloaderResetTimer_CNTR_ENABLE;
 123:Generated_Source\PSoC5/BootloaderResetTimer.c ****         BootloaderResetTimer_SetCaptureCount(BootloaderResetTimer_INIT_CAPTURE_COUNT);
 124:Generated_Source\PSoC5/BootloaderResetTimer.c ****     #endif /* Configure capture counter value */
 125:Generated_Source\PSoC5/BootloaderResetTimer.c **** 
 126:Generated_Source\PSoC5/BootloaderResetTimer.c ****     #if (!BootloaderResetTimer_UsingFixedFunction)
 127:Generated_Source\PSoC5/BootloaderResetTimer.c ****         #if (BootloaderResetTimer_SoftwareCaptureMode)
 128:Generated_Source\PSoC5/BootloaderResetTimer.c ****             BootloaderResetTimer_SetCaptureMode(BootloaderResetTimer_INIT_CAPTURE_MODE);
 129:Generated_Source\PSoC5/BootloaderResetTimer.c ****         #endif /* Set Capture Mode for UDB implementation if capture mode is software controlled */
 130:Generated_Source\PSoC5/BootloaderResetTimer.c **** 
 131:Generated_Source\PSoC5/BootloaderResetTimer.c ****         #if (BootloaderResetTimer_SoftwareTriggerMode)
 132:Generated_Source\PSoC5/BootloaderResetTimer.c ****             #if (!BootloaderResetTimer_UDB_CONTROL_REG_REMOVED)
 133:Generated_Source\PSoC5/BootloaderResetTimer.c ****                 if (0u == (BootloaderResetTimer_CONTROL & BootloaderResetTimer__B_TIMER__TM_SOFTWAR
 134:Generated_Source\PSoC5/BootloaderResetTimer.c ****                 {
 135:Generated_Source\PSoC5/BootloaderResetTimer.c ****                     BootloaderResetTimer_SetTriggerMode(BootloaderResetTimer_INIT_TRIGGER_MODE);
 136:Generated_Source\PSoC5/BootloaderResetTimer.c ****                 }
 137:Generated_Source\PSoC5/BootloaderResetTimer.c ****             #endif /* (!BootloaderResetTimer_UDB_CONTROL_REG_REMOVED) */
 138:Generated_Source\PSoC5/BootloaderResetTimer.c ****         #endif /* Set trigger mode for UDB Implementation if trigger mode is software controlled */
 139:Generated_Source\PSoC5/BootloaderResetTimer.c **** 
 140:Generated_Source\PSoC5/BootloaderResetTimer.c ****         /* CyEnterCriticalRegion and CyExitCriticalRegion are used to mark following region critica
 141:Generated_Source\PSoC5/BootloaderResetTimer.c ****         /* Enter Critical Region*/
 142:Generated_Source\PSoC5/BootloaderResetTimer.c ****         BootloaderResetTimer_interruptState = CyEnterCriticalSection();
 143:Generated_Source\PSoC5/BootloaderResetTimer.c **** 
 144:Generated_Source\PSoC5/BootloaderResetTimer.c ****         /* Use the interrupt output of the status register for IRQ output */
 145:Generated_Source\PSoC5/BootloaderResetTimer.c ****         BootloaderResetTimer_STATUS_AUX_CTRL |= BootloaderResetTimer_STATUS_ACTL_INT_EN_MASK;
 146:Generated_Source\PSoC5/BootloaderResetTimer.c **** 
 147:Generated_Source\PSoC5/BootloaderResetTimer.c ****         /* Exit Critical Region*/
 148:Generated_Source\PSoC5/BootloaderResetTimer.c ****         CyExitCriticalSection(BootloaderResetTimer_interruptState);
 149:Generated_Source\PSoC5/BootloaderResetTimer.c **** 
 150:Generated_Source\PSoC5/BootloaderResetTimer.c ****         #if (BootloaderResetTimer_EnableTriggerMode)
 151:Generated_Source\PSoC5/BootloaderResetTimer.c ****             BootloaderResetTimer_EnableTrigger();
 152:Generated_Source\PSoC5/BootloaderResetTimer.c ****         #endif /* Set Trigger enable bit for UDB implementation in the control register*/
 153:Generated_Source\PSoC5/BootloaderResetTimer.c **** 		
 154:Generated_Source\PSoC5/BootloaderResetTimer.c **** 		
 155:Generated_Source\PSoC5/BootloaderResetTimer.c ****         #if (BootloaderResetTimer_InterruptOnCaptureCount && !BootloaderResetTimer_UDB_CONTROL_REG_
 156:Generated_Source\PSoC5/BootloaderResetTimer.c ****             BootloaderResetTimer_SetInterruptCount(BootloaderResetTimer_INIT_INT_CAPTURE_COUNT);
 157:Generated_Source\PSoC5/BootloaderResetTimer.c ****         #endif /* Set interrupt count in UDB implementation if interrupt count feature is checked.*
 158:Generated_Source\PSoC5/BootloaderResetTimer.c **** 
 159:Generated_Source\PSoC5/BootloaderResetTimer.c ****         BootloaderResetTimer_ClearFIFO();
 160:Generated_Source\PSoC5/BootloaderResetTimer.c ****     #endif /* Configure additional features of UDB implementation */
 161:Generated_Source\PSoC5/BootloaderResetTimer.c **** 
 162:Generated_Source\PSoC5/BootloaderResetTimer.c ****     BootloaderResetTimer_SetInterruptMode(BootloaderResetTimer_INIT_INTERRUPT_MODE);
 163:Generated_Source\PSoC5/BootloaderResetTimer.c **** }
 164:Generated_Source\PSoC5/BootloaderResetTimer.c **** 
 165:Generated_Source\PSoC5/BootloaderResetTimer.c **** 
 166:Generated_Source\PSoC5/BootloaderResetTimer.c **** /*******************************************************************************
 167:Generated_Source\PSoC5/BootloaderResetTimer.c **** * Function Name: BootloaderResetTimer_Enable
 168:Generated_Source\PSoC5/BootloaderResetTimer.c **** ********************************************************************************
 169:Generated_Source\PSoC5/BootloaderResetTimer.c **** *
 170:Generated_Source\PSoC5/BootloaderResetTimer.c **** * Summary:
 171:Generated_Source\PSoC5/BootloaderResetTimer.c **** *  Enable the Timer
 172:Generated_Source\PSoC5/BootloaderResetTimer.c **** *
 173:Generated_Source\PSoC5/BootloaderResetTimer.c **** * Parameters:
 174:Generated_Source\PSoC5/BootloaderResetTimer.c **** *  void
 175:Generated_Source\PSoC5/BootloaderResetTimer.c **** *
 176:Generated_Source\PSoC5/BootloaderResetTimer.c **** * Return:
 177:Generated_Source\PSoC5/BootloaderResetTimer.c **** *  void
ARM GAS  C:\Users\Bruger\AppData\Local\Temp\cc4mFk61.s 			page 43


 178:Generated_Source\PSoC5/BootloaderResetTimer.c **** *
 179:Generated_Source\PSoC5/BootloaderResetTimer.c **** *******************************************************************************/
 180:Generated_Source\PSoC5/BootloaderResetTimer.c **** void BootloaderResetTimer_Enable(void) 
 181:Generated_Source\PSoC5/BootloaderResetTimer.c **** {
 182:Generated_Source\PSoC5/BootloaderResetTimer.c ****     /* Globally Enable the Fixed Function Block chosen */
 183:Generated_Source\PSoC5/BootloaderResetTimer.c ****     #if (BootloaderResetTimer_UsingFixedFunction)
 184:Generated_Source\PSoC5/BootloaderResetTimer.c ****         BootloaderResetTimer_GLOBAL_ENABLE |= BootloaderResetTimer_BLOCK_EN_MASK;
 185:Generated_Source\PSoC5/BootloaderResetTimer.c ****         BootloaderResetTimer_GLOBAL_STBY_ENABLE |= BootloaderResetTimer_BLOCK_STBY_EN_MASK;
 186:Generated_Source\PSoC5/BootloaderResetTimer.c ****     #endif /* Set Enable bit for enabling Fixed function timer*/
 187:Generated_Source\PSoC5/BootloaderResetTimer.c **** 
 188:Generated_Source\PSoC5/BootloaderResetTimer.c ****     /* Remove assignment if control register is removed */
 189:Generated_Source\PSoC5/BootloaderResetTimer.c ****     #if (!BootloaderResetTimer_UDB_CONTROL_REG_REMOVED || BootloaderResetTimer_UsingFixedFunction)
 190:Generated_Source\PSoC5/BootloaderResetTimer.c ****         BootloaderResetTimer_CONTROL |= BootloaderResetTimer_CTRL_ENABLE;
 191:Generated_Source\PSoC5/BootloaderResetTimer.c ****     #endif /* Remove assignment if control register is removed */
 192:Generated_Source\PSoC5/BootloaderResetTimer.c **** }
 193:Generated_Source\PSoC5/BootloaderResetTimer.c **** 
 194:Generated_Source\PSoC5/BootloaderResetTimer.c **** 
 195:Generated_Source\PSoC5/BootloaderResetTimer.c **** /*******************************************************************************
 196:Generated_Source\PSoC5/BootloaderResetTimer.c **** * Function Name: BootloaderResetTimer_Start
 197:Generated_Source\PSoC5/BootloaderResetTimer.c **** ********************************************************************************
 198:Generated_Source\PSoC5/BootloaderResetTimer.c **** *
 199:Generated_Source\PSoC5/BootloaderResetTimer.c **** * Summary:
 200:Generated_Source\PSoC5/BootloaderResetTimer.c **** *  The start function initializes the timer with the default values, the
 201:Generated_Source\PSoC5/BootloaderResetTimer.c **** *  enables the timerto begin counting.  It does not enable interrupts,
 202:Generated_Source\PSoC5/BootloaderResetTimer.c **** *  the EnableInt command should be called if interrupt generation is required.
 203:Generated_Source\PSoC5/BootloaderResetTimer.c **** *
 204:Generated_Source\PSoC5/BootloaderResetTimer.c **** * Parameters:
 205:Generated_Source\PSoC5/BootloaderResetTimer.c **** *  void
 206:Generated_Source\PSoC5/BootloaderResetTimer.c **** *
 207:Generated_Source\PSoC5/BootloaderResetTimer.c **** * Return:
 208:Generated_Source\PSoC5/BootloaderResetTimer.c **** *  void
 209:Generated_Source\PSoC5/BootloaderResetTimer.c **** *
 210:Generated_Source\PSoC5/BootloaderResetTimer.c **** * Global variables:
 211:Generated_Source\PSoC5/BootloaderResetTimer.c **** *  BootloaderResetTimer_initVar: Is modified when this function is called for the
 212:Generated_Source\PSoC5/BootloaderResetTimer.c **** *   first time. Is used to ensure that initialization happens only once.
 213:Generated_Source\PSoC5/BootloaderResetTimer.c **** *
 214:Generated_Source\PSoC5/BootloaderResetTimer.c **** *******************************************************************************/
 215:Generated_Source\PSoC5/BootloaderResetTimer.c **** void BootloaderResetTimer_Start(void) 
 216:Generated_Source\PSoC5/BootloaderResetTimer.c **** {
 217:Generated_Source\PSoC5/BootloaderResetTimer.c ****     if(BootloaderResetTimer_initVar == 0u)
 218:Generated_Source\PSoC5/BootloaderResetTimer.c ****     {
 219:Generated_Source\PSoC5/BootloaderResetTimer.c ****         BootloaderResetTimer_Init();
 220:Generated_Source\PSoC5/BootloaderResetTimer.c **** 
 221:Generated_Source\PSoC5/BootloaderResetTimer.c ****         BootloaderResetTimer_initVar = 1u;   /* Clear this bit for Initialization */
 222:Generated_Source\PSoC5/BootloaderResetTimer.c ****     }
 223:Generated_Source\PSoC5/BootloaderResetTimer.c **** 
 224:Generated_Source\PSoC5/BootloaderResetTimer.c ****     /* Enable the Timer */
 225:Generated_Source\PSoC5/BootloaderResetTimer.c ****     BootloaderResetTimer_Enable();
 226:Generated_Source\PSoC5/BootloaderResetTimer.c **** }
 227:Generated_Source\PSoC5/BootloaderResetTimer.c **** 
 228:Generated_Source\PSoC5/BootloaderResetTimer.c **** 
 229:Generated_Source\PSoC5/BootloaderResetTimer.c **** /*******************************************************************************
 230:Generated_Source\PSoC5/BootloaderResetTimer.c **** * Function Name: BootloaderResetTimer_Stop
 231:Generated_Source\PSoC5/BootloaderResetTimer.c **** ********************************************************************************
 232:Generated_Source\PSoC5/BootloaderResetTimer.c **** *
 233:Generated_Source\PSoC5/BootloaderResetTimer.c **** * Summary:
 234:Generated_Source\PSoC5/BootloaderResetTimer.c **** *  The stop function halts the timer, but does not change any modes or disable
ARM GAS  C:\Users\Bruger\AppData\Local\Temp\cc4mFk61.s 			page 44


 235:Generated_Source\PSoC5/BootloaderResetTimer.c **** *  interrupts.
 236:Generated_Source\PSoC5/BootloaderResetTimer.c **** *
 237:Generated_Source\PSoC5/BootloaderResetTimer.c **** * Parameters:
 238:Generated_Source\PSoC5/BootloaderResetTimer.c **** *  void
 239:Generated_Source\PSoC5/BootloaderResetTimer.c **** *
 240:Generated_Source\PSoC5/BootloaderResetTimer.c **** * Return:
 241:Generated_Source\PSoC5/BootloaderResetTimer.c **** *  void
 242:Generated_Source\PSoC5/BootloaderResetTimer.c **** *
 243:Generated_Source\PSoC5/BootloaderResetTimer.c **** * Side Effects: If the Enable mode is set to Hardware only then this function
 244:Generated_Source\PSoC5/BootloaderResetTimer.c **** *               has no effect on the operation of the timer.
 245:Generated_Source\PSoC5/BootloaderResetTimer.c **** *
 246:Generated_Source\PSoC5/BootloaderResetTimer.c **** *******************************************************************************/
 247:Generated_Source\PSoC5/BootloaderResetTimer.c **** void BootloaderResetTimer_Stop(void) 
 248:Generated_Source\PSoC5/BootloaderResetTimer.c **** {
 249:Generated_Source\PSoC5/BootloaderResetTimer.c ****     /* Disable Timer */
 250:Generated_Source\PSoC5/BootloaderResetTimer.c ****     #if(!BootloaderResetTimer_UDB_CONTROL_REG_REMOVED || BootloaderResetTimer_UsingFixedFunction)
 251:Generated_Source\PSoC5/BootloaderResetTimer.c ****         BootloaderResetTimer_CONTROL &= ((uint8)(~BootloaderResetTimer_CTRL_ENABLE));
 252:Generated_Source\PSoC5/BootloaderResetTimer.c ****     #endif /* Remove assignment if control register is removed */
 253:Generated_Source\PSoC5/BootloaderResetTimer.c **** 
 254:Generated_Source\PSoC5/BootloaderResetTimer.c ****     /* Globally disable the Fixed Function Block chosen */
 255:Generated_Source\PSoC5/BootloaderResetTimer.c ****     #if (BootloaderResetTimer_UsingFixedFunction)
 256:Generated_Source\PSoC5/BootloaderResetTimer.c ****         BootloaderResetTimer_GLOBAL_ENABLE &= ((uint8)(~BootloaderResetTimer_BLOCK_EN_MASK));
 257:Generated_Source\PSoC5/BootloaderResetTimer.c ****         BootloaderResetTimer_GLOBAL_STBY_ENABLE &= ((uint8)(~BootloaderResetTimer_BLOCK_STBY_EN_MAS
 258:Generated_Source\PSoC5/BootloaderResetTimer.c ****     #endif /* Disable global enable for the Timer Fixed function block to stop the Timer*/
 259:Generated_Source\PSoC5/BootloaderResetTimer.c **** }
 260:Generated_Source\PSoC5/BootloaderResetTimer.c **** 
 261:Generated_Source\PSoC5/BootloaderResetTimer.c **** 
 262:Generated_Source\PSoC5/BootloaderResetTimer.c **** /*******************************************************************************
 263:Generated_Source\PSoC5/BootloaderResetTimer.c **** * Function Name: BootloaderResetTimer_SetInterruptMode
 264:Generated_Source\PSoC5/BootloaderResetTimer.c **** ********************************************************************************
 265:Generated_Source\PSoC5/BootloaderResetTimer.c **** *
 266:Generated_Source\PSoC5/BootloaderResetTimer.c **** * Summary:
 267:Generated_Source\PSoC5/BootloaderResetTimer.c **** *  This function selects which of the interrupt inputs may cause an interrupt.
 268:Generated_Source\PSoC5/BootloaderResetTimer.c **** *  The twosources are caputure and terminal.  One, both or neither may
 269:Generated_Source\PSoC5/BootloaderResetTimer.c **** *  be selected.
 270:Generated_Source\PSoC5/BootloaderResetTimer.c **** *
 271:Generated_Source\PSoC5/BootloaderResetTimer.c **** * Parameters:
 272:Generated_Source\PSoC5/BootloaderResetTimer.c **** *  interruptMode:   This parameter is used to enable interrups on either/or
 273:Generated_Source\PSoC5/BootloaderResetTimer.c **** *                   terminal count or capture.
 274:Generated_Source\PSoC5/BootloaderResetTimer.c **** *
 275:Generated_Source\PSoC5/BootloaderResetTimer.c **** * Return:
 276:Generated_Source\PSoC5/BootloaderResetTimer.c **** *  void
 277:Generated_Source\PSoC5/BootloaderResetTimer.c **** *
 278:Generated_Source\PSoC5/BootloaderResetTimer.c **** *******************************************************************************/
 279:Generated_Source\PSoC5/BootloaderResetTimer.c **** void BootloaderResetTimer_SetInterruptMode(uint8 interruptMode) 
 280:Generated_Source\PSoC5/BootloaderResetTimer.c **** {
 281:Generated_Source\PSoC5/BootloaderResetTimer.c ****     BootloaderResetTimer_STATUS_MASK = interruptMode;
 282:Generated_Source\PSoC5/BootloaderResetTimer.c **** }
 283:Generated_Source\PSoC5/BootloaderResetTimer.c **** 
 284:Generated_Source\PSoC5/BootloaderResetTimer.c **** 
 285:Generated_Source\PSoC5/BootloaderResetTimer.c **** /*******************************************************************************
 286:Generated_Source\PSoC5/BootloaderResetTimer.c **** * Function Name: BootloaderResetTimer_SoftwareCapture
 287:Generated_Source\PSoC5/BootloaderResetTimer.c **** ********************************************************************************
 288:Generated_Source\PSoC5/BootloaderResetTimer.c **** *
 289:Generated_Source\PSoC5/BootloaderResetTimer.c **** * Summary:
 290:Generated_Source\PSoC5/BootloaderResetTimer.c **** *  This function forces a capture independent of the capture signal.
 291:Generated_Source\PSoC5/BootloaderResetTimer.c **** *
ARM GAS  C:\Users\Bruger\AppData\Local\Temp\cc4mFk61.s 			page 45


 292:Generated_Source\PSoC5/BootloaderResetTimer.c **** * Parameters:
 293:Generated_Source\PSoC5/BootloaderResetTimer.c **** *  void
 294:Generated_Source\PSoC5/BootloaderResetTimer.c **** *
 295:Generated_Source\PSoC5/BootloaderResetTimer.c **** * Return:
 296:Generated_Source\PSoC5/BootloaderResetTimer.c **** *  void
 297:Generated_Source\PSoC5/BootloaderResetTimer.c **** *
 298:Generated_Source\PSoC5/BootloaderResetTimer.c **** * Side Effects:
 299:Generated_Source\PSoC5/BootloaderResetTimer.c **** *  An existing hardware capture could be overwritten.
 300:Generated_Source\PSoC5/BootloaderResetTimer.c **** *
 301:Generated_Source\PSoC5/BootloaderResetTimer.c **** *******************************************************************************/
 302:Generated_Source\PSoC5/BootloaderResetTimer.c **** void BootloaderResetTimer_SoftwareCapture(void) 
 303:Generated_Source\PSoC5/BootloaderResetTimer.c **** {
 304:Generated_Source\PSoC5/BootloaderResetTimer.c ****     /* Generate a software capture by reading the counter register */
 305:Generated_Source\PSoC5/BootloaderResetTimer.c ****     #if(BootloaderResetTimer_UsingFixedFunction)
 306:Generated_Source\PSoC5/BootloaderResetTimer.c ****         (void)CY_GET_REG16(BootloaderResetTimer_COUNTER_LSB_PTR);
 307:Generated_Source\PSoC5/BootloaderResetTimer.c ****     #else
 308:Generated_Source\PSoC5/BootloaderResetTimer.c ****         (void)CY_GET_REG8(BootloaderResetTimer_COUNTER_LSB_PTR_8BIT);
 309:Generated_Source\PSoC5/BootloaderResetTimer.c ****     #endif/* (BootloaderResetTimer_UsingFixedFunction) */
 310:Generated_Source\PSoC5/BootloaderResetTimer.c ****     /* Capture Data is now in the FIFO */
 311:Generated_Source\PSoC5/BootloaderResetTimer.c **** }
 312:Generated_Source\PSoC5/BootloaderResetTimer.c **** 
 313:Generated_Source\PSoC5/BootloaderResetTimer.c **** 
 314:Generated_Source\PSoC5/BootloaderResetTimer.c **** /*******************************************************************************
 315:Generated_Source\PSoC5/BootloaderResetTimer.c **** * Function Name: BootloaderResetTimer_ReadStatusRegister
 316:Generated_Source\PSoC5/BootloaderResetTimer.c **** ********************************************************************************
 317:Generated_Source\PSoC5/BootloaderResetTimer.c **** *
 318:Generated_Source\PSoC5/BootloaderResetTimer.c **** * Summary:
 319:Generated_Source\PSoC5/BootloaderResetTimer.c **** *  Reads the status register and returns it's state. This function should use
 320:Generated_Source\PSoC5/BootloaderResetTimer.c **** *  defined types for the bit-field information as the bits in this register may
 321:Generated_Source\PSoC5/BootloaderResetTimer.c **** *  be permuteable.
 322:Generated_Source\PSoC5/BootloaderResetTimer.c **** *
 323:Generated_Source\PSoC5/BootloaderResetTimer.c **** * Parameters:
 324:Generated_Source\PSoC5/BootloaderResetTimer.c **** *  void
 325:Generated_Source\PSoC5/BootloaderResetTimer.c **** *
 326:Generated_Source\PSoC5/BootloaderResetTimer.c **** * Return:
 327:Generated_Source\PSoC5/BootloaderResetTimer.c **** *  The contents of the status register
 328:Generated_Source\PSoC5/BootloaderResetTimer.c **** *
 329:Generated_Source\PSoC5/BootloaderResetTimer.c **** * Side Effects:
 330:Generated_Source\PSoC5/BootloaderResetTimer.c **** *  Status register bits may be clear on read.
 331:Generated_Source\PSoC5/BootloaderResetTimer.c **** *
 332:Generated_Source\PSoC5/BootloaderResetTimer.c **** *******************************************************************************/
 333:Generated_Source\PSoC5/BootloaderResetTimer.c **** uint8   BootloaderResetTimer_ReadStatusRegister(void) 
 334:Generated_Source\PSoC5/BootloaderResetTimer.c **** {
 335:Generated_Source\PSoC5/BootloaderResetTimer.c ****     return (BootloaderResetTimer_STATUS);
 336:Generated_Source\PSoC5/BootloaderResetTimer.c **** }
 337:Generated_Source\PSoC5/BootloaderResetTimer.c **** 
 338:Generated_Source\PSoC5/BootloaderResetTimer.c **** 
 339:Generated_Source\PSoC5/BootloaderResetTimer.c **** #if (!BootloaderResetTimer_UDB_CONTROL_REG_REMOVED) /* Remove API if control register is unused */
 340:Generated_Source\PSoC5/BootloaderResetTimer.c **** 
 341:Generated_Source\PSoC5/BootloaderResetTimer.c **** 
 342:Generated_Source\PSoC5/BootloaderResetTimer.c **** /*******************************************************************************
 343:Generated_Source\PSoC5/BootloaderResetTimer.c **** * Function Name: BootloaderResetTimer_ReadControlRegister
 344:Generated_Source\PSoC5/BootloaderResetTimer.c **** ********************************************************************************
 345:Generated_Source\PSoC5/BootloaderResetTimer.c **** *
 346:Generated_Source\PSoC5/BootloaderResetTimer.c **** * Summary:
 347:Generated_Source\PSoC5/BootloaderResetTimer.c **** *  Reads the control register and returns it's value.
 348:Generated_Source\PSoC5/BootloaderResetTimer.c **** *
ARM GAS  C:\Users\Bruger\AppData\Local\Temp\cc4mFk61.s 			page 46


 349:Generated_Source\PSoC5/BootloaderResetTimer.c **** * Parameters:
 350:Generated_Source\PSoC5/BootloaderResetTimer.c **** *  void
 351:Generated_Source\PSoC5/BootloaderResetTimer.c **** *
 352:Generated_Source\PSoC5/BootloaderResetTimer.c **** * Return:
 353:Generated_Source\PSoC5/BootloaderResetTimer.c **** *  The contents of the control register
 354:Generated_Source\PSoC5/BootloaderResetTimer.c **** *
 355:Generated_Source\PSoC5/BootloaderResetTimer.c **** *******************************************************************************/
 356:Generated_Source\PSoC5/BootloaderResetTimer.c **** uint8 BootloaderResetTimer_ReadControlRegister(void) 
 357:Generated_Source\PSoC5/BootloaderResetTimer.c **** {
 358:Generated_Source\PSoC5/BootloaderResetTimer.c ****     #if (!BootloaderResetTimer_UDB_CONTROL_REG_REMOVED) 
 359:Generated_Source\PSoC5/BootloaderResetTimer.c ****         return ((uint8)BootloaderResetTimer_CONTROL);
 360:Generated_Source\PSoC5/BootloaderResetTimer.c ****     #else
 361:Generated_Source\PSoC5/BootloaderResetTimer.c ****         return (0);
 362:Generated_Source\PSoC5/BootloaderResetTimer.c ****     #endif /* (!BootloaderResetTimer_UDB_CONTROL_REG_REMOVED) */
 363:Generated_Source\PSoC5/BootloaderResetTimer.c **** }
 364:Generated_Source\PSoC5/BootloaderResetTimer.c **** 
 365:Generated_Source\PSoC5/BootloaderResetTimer.c **** 
 366:Generated_Source\PSoC5/BootloaderResetTimer.c **** /*******************************************************************************
 367:Generated_Source\PSoC5/BootloaderResetTimer.c **** * Function Name: BootloaderResetTimer_WriteControlRegister
 368:Generated_Source\PSoC5/BootloaderResetTimer.c **** ********************************************************************************
 369:Generated_Source\PSoC5/BootloaderResetTimer.c **** *
 370:Generated_Source\PSoC5/BootloaderResetTimer.c **** * Summary:
 371:Generated_Source\PSoC5/BootloaderResetTimer.c **** *  Sets the bit-field of the control register.
 372:Generated_Source\PSoC5/BootloaderResetTimer.c **** *
 373:Generated_Source\PSoC5/BootloaderResetTimer.c **** * Parameters:
 374:Generated_Source\PSoC5/BootloaderResetTimer.c **** *  control: The contents of the control register
 375:Generated_Source\PSoC5/BootloaderResetTimer.c **** *
 376:Generated_Source\PSoC5/BootloaderResetTimer.c **** * Return:
 377:Generated_Source\PSoC5/BootloaderResetTimer.c **** *
 378:Generated_Source\PSoC5/BootloaderResetTimer.c **** *******************************************************************************/
 379:Generated_Source\PSoC5/BootloaderResetTimer.c **** void BootloaderResetTimer_WriteControlRegister(uint8 control) 
 380:Generated_Source\PSoC5/BootloaderResetTimer.c **** {
 381:Generated_Source\PSoC5/BootloaderResetTimer.c ****     #if (!BootloaderResetTimer_UDB_CONTROL_REG_REMOVED) 
 382:Generated_Source\PSoC5/BootloaderResetTimer.c ****         BootloaderResetTimer_CONTROL = control;
 383:Generated_Source\PSoC5/BootloaderResetTimer.c ****     #else
 384:Generated_Source\PSoC5/BootloaderResetTimer.c ****         control = 0u;
 385:Generated_Source\PSoC5/BootloaderResetTimer.c ****     #endif /* (!BootloaderResetTimer_UDB_CONTROL_REG_REMOVED) */
 386:Generated_Source\PSoC5/BootloaderResetTimer.c **** }
 387:Generated_Source\PSoC5/BootloaderResetTimer.c **** 
 388:Generated_Source\PSoC5/BootloaderResetTimer.c **** #endif /* Remove API if control register is unused */
 389:Generated_Source\PSoC5/BootloaderResetTimer.c **** 
 390:Generated_Source\PSoC5/BootloaderResetTimer.c **** 
 391:Generated_Source\PSoC5/BootloaderResetTimer.c **** /*******************************************************************************
 392:Generated_Source\PSoC5/BootloaderResetTimer.c **** * Function Name: BootloaderResetTimer_ReadPeriod
 393:Generated_Source\PSoC5/BootloaderResetTimer.c **** ********************************************************************************
 394:Generated_Source\PSoC5/BootloaderResetTimer.c **** *
 395:Generated_Source\PSoC5/BootloaderResetTimer.c **** * Summary:
 396:Generated_Source\PSoC5/BootloaderResetTimer.c **** *  This function returns the current value of the Period.
 397:Generated_Source\PSoC5/BootloaderResetTimer.c **** *
 398:Generated_Source\PSoC5/BootloaderResetTimer.c **** * Parameters:
 399:Generated_Source\PSoC5/BootloaderResetTimer.c **** *  void
 400:Generated_Source\PSoC5/BootloaderResetTimer.c **** *
 401:Generated_Source\PSoC5/BootloaderResetTimer.c **** * Return:
 402:Generated_Source\PSoC5/BootloaderResetTimer.c **** *  The present value of the counter.
 403:Generated_Source\PSoC5/BootloaderResetTimer.c **** *
 404:Generated_Source\PSoC5/BootloaderResetTimer.c **** *******************************************************************************/
 405:Generated_Source\PSoC5/BootloaderResetTimer.c **** uint16 BootloaderResetTimer_ReadPeriod(void) 
ARM GAS  C:\Users\Bruger\AppData\Local\Temp\cc4mFk61.s 			page 47


 406:Generated_Source\PSoC5/BootloaderResetTimer.c **** {
 407:Generated_Source\PSoC5/BootloaderResetTimer.c ****    #if(BootloaderResetTimer_UsingFixedFunction)
 408:Generated_Source\PSoC5/BootloaderResetTimer.c ****        return ((uint16)CY_GET_REG16(BootloaderResetTimer_PERIOD_LSB_PTR));
 409:Generated_Source\PSoC5/BootloaderResetTimer.c ****    #else
 410:Generated_Source\PSoC5/BootloaderResetTimer.c ****        return (CY_GET_REG16(BootloaderResetTimer_PERIOD_LSB_PTR));
 411:Generated_Source\PSoC5/BootloaderResetTimer.c ****    #endif /* (BootloaderResetTimer_UsingFixedFunction) */
 412:Generated_Source\PSoC5/BootloaderResetTimer.c **** }
 413:Generated_Source\PSoC5/BootloaderResetTimer.c **** 
 414:Generated_Source\PSoC5/BootloaderResetTimer.c **** 
 415:Generated_Source\PSoC5/BootloaderResetTimer.c **** /*******************************************************************************
 416:Generated_Source\PSoC5/BootloaderResetTimer.c **** * Function Name: BootloaderResetTimer_WritePeriod
 417:Generated_Source\PSoC5/BootloaderResetTimer.c **** ********************************************************************************
 418:Generated_Source\PSoC5/BootloaderResetTimer.c **** *
 419:Generated_Source\PSoC5/BootloaderResetTimer.c **** * Summary:
 420:Generated_Source\PSoC5/BootloaderResetTimer.c **** *  This function is used to change the period of the counter.  The new period
 421:Generated_Source\PSoC5/BootloaderResetTimer.c **** *  will be loaded the next time terminal count is detected.
 422:Generated_Source\PSoC5/BootloaderResetTimer.c **** *
 423:Generated_Source\PSoC5/BootloaderResetTimer.c **** * Parameters:
 424:Generated_Source\PSoC5/BootloaderResetTimer.c **** *  period: This value may be between 1 and (2^Resolution)-1.  A value of 0 will
 425:Generated_Source\PSoC5/BootloaderResetTimer.c **** *          result in the counter remaining at zero.
 426:Generated_Source\PSoC5/BootloaderResetTimer.c **** *
 427:Generated_Source\PSoC5/BootloaderResetTimer.c **** * Return:
 428:Generated_Source\PSoC5/BootloaderResetTimer.c **** *  void
 429:Generated_Source\PSoC5/BootloaderResetTimer.c **** *
 430:Generated_Source\PSoC5/BootloaderResetTimer.c **** *******************************************************************************/
 431:Generated_Source\PSoC5/BootloaderResetTimer.c **** void BootloaderResetTimer_WritePeriod(uint16 period) 
 432:Generated_Source\PSoC5/BootloaderResetTimer.c **** {
 433:Generated_Source\PSoC5/BootloaderResetTimer.c ****     #if(BootloaderResetTimer_UsingFixedFunction)
 434:Generated_Source\PSoC5/BootloaderResetTimer.c ****         uint16 period_temp = (uint16)period;
 435:Generated_Source\PSoC5/BootloaderResetTimer.c ****         CY_SET_REG16(BootloaderResetTimer_PERIOD_LSB_PTR, period_temp);
 541              		.loc 1 435 0
 542 0002 4FF6FF71 		movw	r1, #65535
 543              	.LBE17:
 544              	.LBE16:
  52:Generated_Source\PSoC5/BootloaderResetTimer.c **** 
 545              		.loc 1 52 0
 546 0006 1348     		ldr	r0, .L3
  60:Generated_Source\PSoC5/BootloaderResetTimer.c ****         #endif /* CONTROL3 register exists only in PSoC3 OR PSoC5LP */
 547              		.loc 1 60 0
 548 0008 134C     		ldr	r4, .L3+4
  52:Generated_Source\PSoC5/BootloaderResetTimer.c **** 
 549              		.loc 1 52 0
 550 000a 0278     		ldrb	r2, [r0]	@ zero_extendqisi2
 106:Generated_Source\PSoC5/BootloaderResetTimer.c ****         BootloaderResetTimer_RT1 |= BootloaderResetTimer_SYNC;
 551              		.loc 1 106 0
 552 000c 134B     		ldr	r3, .L3+8
  52:Generated_Source\PSoC5/BootloaderResetTimer.c **** 
 553              		.loc 1 52 0
 554 000e 02F00102 		and	r2, r2, #1
 555 0012 0270     		strb	r2, [r0]
  60:Generated_Source\PSoC5/BootloaderResetTimer.c ****         #endif /* CONTROL3 register exists only in PSoC3 OR PSoC5LP */
 556              		.loc 1 60 0
 557 0014 2278     		ldrb	r2, [r4]	@ zero_extendqisi2
 558              	.LBB19:
 559              	.LBB20:
 436:Generated_Source\PSoC5/BootloaderResetTimer.c ****     #else
 437:Generated_Source\PSoC5/BootloaderResetTimer.c ****         CY_SET_REG16(BootloaderResetTimer_PERIOD_LSB_PTR, period);
ARM GAS  C:\Users\Bruger\AppData\Local\Temp\cc4mFk61.s 			page 48


 438:Generated_Source\PSoC5/BootloaderResetTimer.c ****     #endif /*Write Period value with appropriate resolution suffix depending on UDB or fixed functi
 439:Generated_Source\PSoC5/BootloaderResetTimer.c **** }
 440:Generated_Source\PSoC5/BootloaderResetTimer.c **** 
 441:Generated_Source\PSoC5/BootloaderResetTimer.c **** 
 442:Generated_Source\PSoC5/BootloaderResetTimer.c **** /*******************************************************************************
 443:Generated_Source\PSoC5/BootloaderResetTimer.c **** * Function Name: BootloaderResetTimer_ReadCapture
 444:Generated_Source\PSoC5/BootloaderResetTimer.c **** ********************************************************************************
 445:Generated_Source\PSoC5/BootloaderResetTimer.c **** *
 446:Generated_Source\PSoC5/BootloaderResetTimer.c **** * Summary:
 447:Generated_Source\PSoC5/BootloaderResetTimer.c **** *  This function returns the last value captured.
 448:Generated_Source\PSoC5/BootloaderResetTimer.c **** *
 449:Generated_Source\PSoC5/BootloaderResetTimer.c **** * Parameters:
 450:Generated_Source\PSoC5/BootloaderResetTimer.c **** *  void
 451:Generated_Source\PSoC5/BootloaderResetTimer.c **** *
 452:Generated_Source\PSoC5/BootloaderResetTimer.c **** * Return:
 453:Generated_Source\PSoC5/BootloaderResetTimer.c **** *  Present Capture value.
 454:Generated_Source\PSoC5/BootloaderResetTimer.c **** *
 455:Generated_Source\PSoC5/BootloaderResetTimer.c **** *******************************************************************************/
 456:Generated_Source\PSoC5/BootloaderResetTimer.c **** uint16 BootloaderResetTimer_ReadCapture(void) 
 457:Generated_Source\PSoC5/BootloaderResetTimer.c **** {
 458:Generated_Source\PSoC5/BootloaderResetTimer.c ****    #if(BootloaderResetTimer_UsingFixedFunction)
 459:Generated_Source\PSoC5/BootloaderResetTimer.c ****        return ((uint16)CY_GET_REG16(BootloaderResetTimer_CAPTURE_LSB_PTR));
 460:Generated_Source\PSoC5/BootloaderResetTimer.c ****    #else
 461:Generated_Source\PSoC5/BootloaderResetTimer.c ****        return (CY_GET_REG16(BootloaderResetTimer_CAPTURE_LSB_PTR));
 462:Generated_Source\PSoC5/BootloaderResetTimer.c ****    #endif /* (BootloaderResetTimer_UsingFixedFunction) */
 463:Generated_Source\PSoC5/BootloaderResetTimer.c **** }
 464:Generated_Source\PSoC5/BootloaderResetTimer.c **** 
 465:Generated_Source\PSoC5/BootloaderResetTimer.c **** 
 466:Generated_Source\PSoC5/BootloaderResetTimer.c **** /*******************************************************************************
 467:Generated_Source\PSoC5/BootloaderResetTimer.c **** * Function Name: BootloaderResetTimer_WriteCounter
 468:Generated_Source\PSoC5/BootloaderResetTimer.c **** ********************************************************************************
 469:Generated_Source\PSoC5/BootloaderResetTimer.c **** *
 470:Generated_Source\PSoC5/BootloaderResetTimer.c **** * Summary:
 471:Generated_Source\PSoC5/BootloaderResetTimer.c **** *  This funtion is used to set the counter to a specific value
 472:Generated_Source\PSoC5/BootloaderResetTimer.c **** *
 473:Generated_Source\PSoC5/BootloaderResetTimer.c **** * Parameters:
 474:Generated_Source\PSoC5/BootloaderResetTimer.c **** *  counter:  New counter value.
 475:Generated_Source\PSoC5/BootloaderResetTimer.c **** *
 476:Generated_Source\PSoC5/BootloaderResetTimer.c **** * Return:
 477:Generated_Source\PSoC5/BootloaderResetTimer.c **** *  void
 478:Generated_Source\PSoC5/BootloaderResetTimer.c **** *
 479:Generated_Source\PSoC5/BootloaderResetTimer.c **** *******************************************************************************/
 480:Generated_Source\PSoC5/BootloaderResetTimer.c **** void BootloaderResetTimer_WriteCounter(uint16 counter) 
 481:Generated_Source\PSoC5/BootloaderResetTimer.c **** {
 482:Generated_Source\PSoC5/BootloaderResetTimer.c ****    #if(BootloaderResetTimer_UsingFixedFunction)
 483:Generated_Source\PSoC5/BootloaderResetTimer.c ****         /* This functionality is removed until a FixedFunction HW update to
 484:Generated_Source\PSoC5/BootloaderResetTimer.c ****          * allow this register to be written
 485:Generated_Source\PSoC5/BootloaderResetTimer.c ****          */
 486:Generated_Source\PSoC5/BootloaderResetTimer.c ****         CY_SET_REG16(BootloaderResetTimer_COUNTER_LSB_PTR, (uint16)counter);
 560              		.loc 1 486 0
 561 0016 124E     		ldr	r6, .L3+12
 562              	.LBE20:
 563              	.LBE19:
  60:Generated_Source\PSoC5/BootloaderResetTimer.c ****         #endif /* CONTROL3 register exists only in PSoC3 OR PSoC5LP */
 564              		.loc 1 60 0
 565 0018 02F0FC02 		and	r2, r2, #252
 566 001c 2270     		strb	r2, [r4]
ARM GAS  C:\Users\Bruger\AppData\Local\Temp\cc4mFk61.s 			page 49


 106:Generated_Source\PSoC5/BootloaderResetTimer.c ****         BootloaderResetTimer_RT1 |= BootloaderResetTimer_SYNC;
 567              		.loc 1 106 0
 568 001e 1A78     		ldrb	r2, [r3]	@ zero_extendqisi2
 569              	.LBB22:
 570              	.LBB23:
 281:Generated_Source\PSoC5/BootloaderResetTimer.c **** }
 571              		.loc 1 281 0
 572 0020 104D     		ldr	r5, .L3+16
 573              	.LBE23:
 574              	.LBE22:
 106:Generated_Source\PSoC5/BootloaderResetTimer.c ****         BootloaderResetTimer_RT1 |= BootloaderResetTimer_SYNC;
 575              		.loc 1 106 0
 576 0022 02F0CF02 		and	r2, r2, #207
 577 0026 1A70     		strb	r2, [r3]
 107:Generated_Source\PSoC5/BootloaderResetTimer.c **** 
 578              		.loc 1 107 0
 579 0028 1A78     		ldrb	r2, [r3]	@ zero_extendqisi2
 580              	.LBB26:
 581              	.LBB24:
 281:Generated_Source\PSoC5/BootloaderResetTimer.c **** }
 582              		.loc 1 281 0
 583 002a 0027     		movs	r7, #0
 584              	.LBE24:
 585              	.LBE26:
 107:Generated_Source\PSoC5/BootloaderResetTimer.c **** 
 586              		.loc 1 107 0
 587 002c 42F03002 		orr	r2, r2, #48
 588 0030 1A70     		strb	r2, [r3]
 110:Generated_Source\PSoC5/BootloaderResetTimer.c ****         BootloaderResetTimer_RT1 |= BootloaderResetTimer_SYNCDSI_EN;
 589              		.loc 1 110 0
 590 0032 1A78     		ldrb	r2, [r3]	@ zero_extendqisi2
 591 0034 02F0F002 		and	r2, r2, #240
 592 0038 1A70     		strb	r2, [r3]
 111:Generated_Source\PSoC5/BootloaderResetTimer.c **** 
 593              		.loc 1 111 0
 594 003a 1A78     		ldrb	r2, [r3]	@ zero_extendqisi2
 595 003c 42F00F02 		orr	r2, r2, #15
 596 0040 1A70     		strb	r2, [r3]
 114:Generated_Source\PSoC5/BootloaderResetTimer.c ****     #endif /* Configuring registers of fixed function implementation */
 597              		.loc 1 114 0
 598 0042 4378     		ldrb	r3, [r0, #1]	@ zero_extendqisi2
 599 0044 43F00103 		orr	r3, r3, #1
 600 0048 4370     		strb	r3, [r0, #1]
 601              	.LVL0:
 602              	.LBB27:
 603              	.LBB18:
 435:Generated_Source\PSoC5/BootloaderResetTimer.c ****     #else
 604              		.loc 1 435 0
 605 004a 6180     		strh	r1, [r4, #2]	@ movhi
 606              	.LVL1:
 607              	.LBE18:
 608              	.LBE27:
 609              	.LBB28:
 610              	.LBB21:
 611              		.loc 1 486 0
 612 004c 3180     		strh	r1, [r6]	@ movhi
 613              	.LVL2:
ARM GAS  C:\Users\Bruger\AppData\Local\Temp\cc4mFk61.s 			page 50


 614              	.LBE21:
 615              	.LBE28:
 616              	.LBB29:
 617              	.LBB25:
 281:Generated_Source\PSoC5/BootloaderResetTimer.c **** }
 618              		.loc 1 281 0
 619 004e 2F70     		strb	r7, [r5]
 620              	.LBE25:
 621              	.LBE29:
 163:Generated_Source\PSoC5/BootloaderResetTimer.c **** 
 622              		.loc 1 163 0
 623 0050 F0BC     		pop	{r4, r5, r6, r7}
 624              		.cfi_restore 7
 625              		.cfi_restore 6
 626              		.cfi_restore 5
 627              		.cfi_restore 4
 628              		.cfi_def_cfa_offset 0
 629 0052 7047     		bx	lr
 630              	.L4:
 631              		.align	2
 632              	.L3:
 633 0054 004F0040 		.word	1073762048
 634 0058 024F0040 		.word	1073762050
 635 005c 0B4F0040 		.word	1073762059
 636 0060 064F0040 		.word	1073762054
 637 0064 034F0040 		.word	1073762051
 638              		.cfi_endproc
 639              	.LFE0:
 640              		.size	BootloaderResetTimer_Init, .-BootloaderResetTimer_Init
 641              		.section	.text.BootloaderResetTimer_Enable,"ax",%progbits
 642              		.align	2
 643              		.global	BootloaderResetTimer_Enable
 644              		.thumb
 645              		.thumb_func
 646              		.type	BootloaderResetTimer_Enable, %function
 647              	BootloaderResetTimer_Enable:
 648              	.LFB1:
 181:Generated_Source\PSoC5/BootloaderResetTimer.c ****     /* Globally Enable the Fixed Function Block chosen */
 649              		.loc 1 181 0
 650              		.cfi_startproc
 651              		@ args = 0, pretend = 0, frame = 0
 652              		@ frame_needed = 0, uses_anonymous_args = 0
 653              		@ link register save eliminated.
 184:Generated_Source\PSoC5/BootloaderResetTimer.c ****         BootloaderResetTimer_GLOBAL_STBY_ENABLE |= BootloaderResetTimer_BLOCK_STBY_EN_MASK;
 654              		.loc 1 184 0
 655 0000 0748     		ldr	r0, .L6
 185:Generated_Source\PSoC5/BootloaderResetTimer.c ****     #endif /* Set Enable bit for enabling Fixed function timer*/
 656              		.loc 1 185 0
 657 0002 0849     		ldr	r1, .L6+4
 184:Generated_Source\PSoC5/BootloaderResetTimer.c ****         BootloaderResetTimer_GLOBAL_STBY_ENABLE |= BootloaderResetTimer_BLOCK_STBY_EN_MASK;
 658              		.loc 1 184 0
 659 0004 0378     		ldrb	r3, [r0]	@ zero_extendqisi2
 190:Generated_Source\PSoC5/BootloaderResetTimer.c ****     #endif /* Remove assignment if control register is removed */
 660              		.loc 1 190 0
 661 0006 084A     		ldr	r2, .L6+8
 184:Generated_Source\PSoC5/BootloaderResetTimer.c ****         BootloaderResetTimer_GLOBAL_STBY_ENABLE |= BootloaderResetTimer_BLOCK_STBY_EN_MASK;
 662              		.loc 1 184 0
ARM GAS  C:\Users\Bruger\AppData\Local\Temp\cc4mFk61.s 			page 51


 663 0008 43F00103 		orr	r3, r3, #1
 664 000c 0370     		strb	r3, [r0]
 185:Generated_Source\PSoC5/BootloaderResetTimer.c ****     #endif /* Set Enable bit for enabling Fixed function timer*/
 665              		.loc 1 185 0
 666 000e 0B78     		ldrb	r3, [r1]	@ zero_extendqisi2
 667 0010 43F00103 		orr	r3, r3, #1
 668 0014 0B70     		strb	r3, [r1]
 190:Generated_Source\PSoC5/BootloaderResetTimer.c ****     #endif /* Remove assignment if control register is removed */
 669              		.loc 1 190 0
 670 0016 1378     		ldrb	r3, [r2]	@ zero_extendqisi2
 671 0018 43F00103 		orr	r3, r3, #1
 672 001c 1370     		strb	r3, [r2]
 673 001e 7047     		bx	lr
 674              	.L7:
 675              		.align	2
 676              	.L6:
 677 0020 A3430040 		.word	1073759139
 678 0024 B3430040 		.word	1073759155
 679 0028 004F0040 		.word	1073762048
 680              		.cfi_endproc
 681              	.LFE1:
 682              		.size	BootloaderResetTimer_Enable, .-BootloaderResetTimer_Enable
 683              		.section	.text.BootloaderResetTimer_Start,"ax",%progbits
 684              		.align	2
 685              		.global	BootloaderResetTimer_Start
 686              		.thumb
 687              		.thumb_func
 688              		.type	BootloaderResetTimer_Start, %function
 689              	BootloaderResetTimer_Start:
 690              	.LFB2:
 216:Generated_Source\PSoC5/BootloaderResetTimer.c ****     if(BootloaderResetTimer_initVar == 0u)
 691              		.loc 1 216 0
 692              		.cfi_startproc
 693              		@ args = 0, pretend = 0, frame = 0
 694              		@ frame_needed = 0, uses_anonymous_args = 0
 695 0000 F0B5     		push	{r4, r5, r6, r7, lr}
 696              		.cfi_def_cfa_offset 20
 697              		.cfi_offset 4, -20
 698              		.cfi_offset 5, -16
 699              		.cfi_offset 6, -12
 700              		.cfi_offset 7, -8
 701              		.cfi_offset 14, -4
 217:Generated_Source\PSoC5/BootloaderResetTimer.c ****     {
 702              		.loc 1 217 0
 703 0002 1F4A     		ldr	r2, .L12
 704 0004 1178     		ldrb	r1, [r2]	@ zero_extendqisi2
 705 0006 59BB     		cbnz	r1, .L9
 706              	.LBB40:
 707              	.LBB41:
 708              	.LBB42:
 709              	.LBB43:
 435:Generated_Source\PSoC5/BootloaderResetTimer.c ****     #else
 710              		.loc 1 435 0
 711 0008 4FF6FF74 		movw	r4, #65535
 712              	.LBE43:
 713              	.LBE42:
  52:Generated_Source\PSoC5/BootloaderResetTimer.c **** 
ARM GAS  C:\Users\Bruger\AppData\Local\Temp\cc4mFk61.s 			page 52


 714              		.loc 1 52 0
 715 000c 1D4D     		ldr	r5, .L12+4
  60:Generated_Source\PSoC5/BootloaderResetTimer.c ****         #endif /* CONTROL3 register exists only in PSoC3 OR PSoC5LP */
 716              		.loc 1 60 0
 717 000e 1E4E     		ldr	r6, .L12+8
  52:Generated_Source\PSoC5/BootloaderResetTimer.c **** 
 718              		.loc 1 52 0
 719 0010 2878     		ldrb	r0, [r5]	@ zero_extendqisi2
 106:Generated_Source\PSoC5/BootloaderResetTimer.c ****         BootloaderResetTimer_RT1 |= BootloaderResetTimer_SYNC;
 720              		.loc 1 106 0
 721 0012 1E4B     		ldr	r3, .L12+12
  52:Generated_Source\PSoC5/BootloaderResetTimer.c **** 
 722              		.loc 1 52 0
 723 0014 00F00100 		and	r0, r0, #1
 724 0018 2870     		strb	r0, [r5]
  60:Generated_Source\PSoC5/BootloaderResetTimer.c ****         #endif /* CONTROL3 register exists only in PSoC3 OR PSoC5LP */
 725              		.loc 1 60 0
 726 001a 3078     		ldrb	r0, [r6]	@ zero_extendqisi2
 727              	.LBE41:
 728              	.LBE40:
 221:Generated_Source\PSoC5/BootloaderResetTimer.c ****     }
 729              		.loc 1 221 0
 730 001c 4FF0010C 		mov	ip, #1
 731              	.LBB55:
 732              	.LBB54:
  60:Generated_Source\PSoC5/BootloaderResetTimer.c ****         #endif /* CONTROL3 register exists only in PSoC3 OR PSoC5LP */
 733              		.loc 1 60 0
 734 0020 00F0FC00 		and	r0, r0, #252
 735 0024 3070     		strb	r0, [r6]
 106:Generated_Source\PSoC5/BootloaderResetTimer.c ****         BootloaderResetTimer_RT1 |= BootloaderResetTimer_SYNC;
 736              		.loc 1 106 0
 737 0026 1878     		ldrb	r0, [r3]	@ zero_extendqisi2
 738              	.LBB46:
 739              	.LBB44:
 435:Generated_Source\PSoC5/BootloaderResetTimer.c ****     #else
 740              		.loc 1 435 0
 741 0028 194F     		ldr	r7, .L12+16
 742              	.LBE44:
 743              	.LBE46:
 106:Generated_Source\PSoC5/BootloaderResetTimer.c ****         BootloaderResetTimer_RT1 |= BootloaderResetTimer_SYNC;
 744              		.loc 1 106 0
 745 002a 00F0CF00 		and	r0, r0, #207
 746 002e 1870     		strb	r0, [r3]
 107:Generated_Source\PSoC5/BootloaderResetTimer.c **** 
 747              		.loc 1 107 0
 748 0030 1878     		ldrb	r0, [r3]	@ zero_extendqisi2
 749              	.LBB47:
 750              	.LBB48:
 281:Generated_Source\PSoC5/BootloaderResetTimer.c **** }
 751              		.loc 1 281 0
 752 0032 DFF868E0 		ldr	lr, .L12+28
 753              	.LBE48:
 754              	.LBE47:
 107:Generated_Source\PSoC5/BootloaderResetTimer.c **** 
 755              		.loc 1 107 0
 756 0036 40F03000 		orr	r0, r0, #48
 757 003a 1870     		strb	r0, [r3]
ARM GAS  C:\Users\Bruger\AppData\Local\Temp\cc4mFk61.s 			page 53


 110:Generated_Source\PSoC5/BootloaderResetTimer.c ****         BootloaderResetTimer_RT1 |= BootloaderResetTimer_SYNCDSI_EN;
 758              		.loc 1 110 0
 759 003c 1878     		ldrb	r0, [r3]	@ zero_extendqisi2
 760 003e 00F0F000 		and	r0, r0, #240
 761 0042 1870     		strb	r0, [r3]
 111:Generated_Source\PSoC5/BootloaderResetTimer.c **** 
 762              		.loc 1 111 0
 763 0044 1878     		ldrb	r0, [r3]	@ zero_extendqisi2
 764 0046 40F00F00 		orr	r0, r0, #15
 765 004a 1870     		strb	r0, [r3]
 114:Generated_Source\PSoC5/BootloaderResetTimer.c ****     #endif /* Configuring registers of fixed function implementation */
 766              		.loc 1 114 0
 767 004c 6B78     		ldrb	r3, [r5, #1]	@ zero_extendqisi2
 768 004e 43EA0C03 		orr	r3, r3, ip
 769 0052 6B70     		strb	r3, [r5, #1]
 770              	.LVL3:
 771              	.LBB50:
 772              	.LBB45:
 435:Generated_Source\PSoC5/BootloaderResetTimer.c ****     #else
 773              		.loc 1 435 0
 774 0054 3C80     		strh	r4, [r7]	@ movhi
 775              	.LVL4:
 776              	.LBE45:
 777              	.LBE50:
 778              	.LBB51:
 779              	.LBB52:
 780              		.loc 1 486 0
 781 0056 B480     		strh	r4, [r6, #4]	@ movhi
 782              	.LVL5:
 783              	.LBE52:
 784              	.LBE51:
 785              	.LBB53:
 786              	.LBB49:
 281:Generated_Source\PSoC5/BootloaderResetTimer.c **** }
 787              		.loc 1 281 0
 788 0058 8EF80010 		strb	r1, [lr]
 789              	.LBE49:
 790              	.LBE53:
 791              	.LBE54:
 792              	.LBE55:
 221:Generated_Source\PSoC5/BootloaderResetTimer.c ****     }
 793              		.loc 1 221 0
 794 005c 82F800C0 		strb	ip, [r2]
 795              	.LVL6:
 796              	.L9:
 797              	.LBB56:
 798              	.LBB57:
 184:Generated_Source\PSoC5/BootloaderResetTimer.c ****         BootloaderResetTimer_GLOBAL_STBY_ENABLE |= BootloaderResetTimer_BLOCK_STBY_EN_MASK;
 799              		.loc 1 184 0
 800 0060 0C48     		ldr	r0, .L12+20
 185:Generated_Source\PSoC5/BootloaderResetTimer.c ****     #endif /* Set Enable bit for enabling Fixed function timer*/
 801              		.loc 1 185 0
 802 0062 0D49     		ldr	r1, .L12+24
 184:Generated_Source\PSoC5/BootloaderResetTimer.c ****         BootloaderResetTimer_GLOBAL_STBY_ENABLE |= BootloaderResetTimer_BLOCK_STBY_EN_MASK;
 803              		.loc 1 184 0
 804 0064 0378     		ldrb	r3, [r0]	@ zero_extendqisi2
 190:Generated_Source\PSoC5/BootloaderResetTimer.c ****     #endif /* Remove assignment if control register is removed */
ARM GAS  C:\Users\Bruger\AppData\Local\Temp\cc4mFk61.s 			page 54


 805              		.loc 1 190 0
 806 0066 074A     		ldr	r2, .L12+4
 184:Generated_Source\PSoC5/BootloaderResetTimer.c ****         BootloaderResetTimer_GLOBAL_STBY_ENABLE |= BootloaderResetTimer_BLOCK_STBY_EN_MASK;
 807              		.loc 1 184 0
 808 0068 43F00103 		orr	r3, r3, #1
 809 006c 0370     		strb	r3, [r0]
 185:Generated_Source\PSoC5/BootloaderResetTimer.c ****     #endif /* Set Enable bit for enabling Fixed function timer*/
 810              		.loc 1 185 0
 811 006e 0B78     		ldrb	r3, [r1]	@ zero_extendqisi2
 812 0070 43F00103 		orr	r3, r3, #1
 813 0074 0B70     		strb	r3, [r1]
 190:Generated_Source\PSoC5/BootloaderResetTimer.c ****     #endif /* Remove assignment if control register is removed */
 814              		.loc 1 190 0
 815 0076 1378     		ldrb	r3, [r2]	@ zero_extendqisi2
 816 0078 43F00103 		orr	r3, r3, #1
 817 007c 1370     		strb	r3, [r2]
 818 007e F0BD     		pop	{r4, r5, r6, r7, pc}
 819              	.L13:
 820              		.align	2
 821              	.L12:
 822 0080 00000000 		.word	.LANCHOR0
 823 0084 004F0040 		.word	1073762048
 824 0088 024F0040 		.word	1073762050
 825 008c 0B4F0040 		.word	1073762059
 826 0090 044F0040 		.word	1073762052
 827 0094 A3430040 		.word	1073759139
 828 0098 B3430040 		.word	1073759155
 829 009c 034F0040 		.word	1073762051
 830              	.LBE57:
 831              	.LBE56:
 832              		.cfi_endproc
 833              	.LFE2:
 834              		.size	BootloaderResetTimer_Start, .-BootloaderResetTimer_Start
 835              		.section	.text.BootloaderResetTimer_Stop,"ax",%progbits
 836              		.align	2
 837              		.global	BootloaderResetTimer_Stop
 838              		.thumb
 839              		.thumb_func
 840              		.type	BootloaderResetTimer_Stop, %function
 841              	BootloaderResetTimer_Stop:
 842              	.LFB3:
 248:Generated_Source\PSoC5/BootloaderResetTimer.c ****     /* Disable Timer */
 843              		.loc 1 248 0
 844              		.cfi_startproc
 845              		@ args = 0, pretend = 0, frame = 0
 846              		@ frame_needed = 0, uses_anonymous_args = 0
 847              		@ link register save eliminated.
 251:Generated_Source\PSoC5/BootloaderResetTimer.c ****     #endif /* Remove assignment if control register is removed */
 848              		.loc 1 251 0
 849 0000 0748     		ldr	r0, .L15
 256:Generated_Source\PSoC5/BootloaderResetTimer.c ****         BootloaderResetTimer_GLOBAL_STBY_ENABLE &= ((uint8)(~BootloaderResetTimer_BLOCK_STBY_EN_MAS
 850              		.loc 1 256 0
 851 0002 0849     		ldr	r1, .L15+4
 251:Generated_Source\PSoC5/BootloaderResetTimer.c ****     #endif /* Remove assignment if control register is removed */
 852              		.loc 1 251 0
 853 0004 0378     		ldrb	r3, [r0]	@ zero_extendqisi2
 257:Generated_Source\PSoC5/BootloaderResetTimer.c ****     #endif /* Disable global enable for the Timer Fixed function block to stop the Timer*/
ARM GAS  C:\Users\Bruger\AppData\Local\Temp\cc4mFk61.s 			page 55


 854              		.loc 1 257 0
 855 0006 084A     		ldr	r2, .L15+8
 251:Generated_Source\PSoC5/BootloaderResetTimer.c ****     #endif /* Remove assignment if control register is removed */
 856              		.loc 1 251 0
 857 0008 03F0FE03 		and	r3, r3, #254
 858 000c 0370     		strb	r3, [r0]
 256:Generated_Source\PSoC5/BootloaderResetTimer.c ****         BootloaderResetTimer_GLOBAL_STBY_ENABLE &= ((uint8)(~BootloaderResetTimer_BLOCK_STBY_EN_MAS
 859              		.loc 1 256 0
 860 000e 0B78     		ldrb	r3, [r1]	@ zero_extendqisi2
 861 0010 03F0FE03 		and	r3, r3, #254
 862 0014 0B70     		strb	r3, [r1]
 257:Generated_Source\PSoC5/BootloaderResetTimer.c ****     #endif /* Disable global enable for the Timer Fixed function block to stop the Timer*/
 863              		.loc 1 257 0
 864 0016 1378     		ldrb	r3, [r2]	@ zero_extendqisi2
 865 0018 03F0FE03 		and	r3, r3, #254
 866 001c 1370     		strb	r3, [r2]
 867 001e 7047     		bx	lr
 868              	.L16:
 869              		.align	2
 870              	.L15:
 871 0020 004F0040 		.word	1073762048
 872 0024 A3430040 		.word	1073759139
 873 0028 B3430040 		.word	1073759155
 874              		.cfi_endproc
 875              	.LFE3:
 876              		.size	BootloaderResetTimer_Stop, .-BootloaderResetTimer_Stop
 877              		.section	.text.BootloaderResetTimer_SetInterruptMode,"ax",%progbits
 878              		.align	2
 879              		.global	BootloaderResetTimer_SetInterruptMode
 880              		.thumb
 881              		.thumb_func
 882              		.type	BootloaderResetTimer_SetInterruptMode, %function
 883              	BootloaderResetTimer_SetInterruptMode:
 884              	.LFB4:
 280:Generated_Source\PSoC5/BootloaderResetTimer.c ****     BootloaderResetTimer_STATUS_MASK = interruptMode;
 885              		.loc 1 280 0
 886              		.cfi_startproc
 887              		@ args = 0, pretend = 0, frame = 0
 888              		@ frame_needed = 0, uses_anonymous_args = 0
 889              		@ link register save eliminated.
 890              	.LVL7:
 281:Generated_Source\PSoC5/BootloaderResetTimer.c **** }
 891              		.loc 1 281 0
 892 0000 014B     		ldr	r3, .L18
 893 0002 1870     		strb	r0, [r3]
 894 0004 7047     		bx	lr
 895              	.L19:
 896 0006 00BF     		.align	2
 897              	.L18:
 898 0008 034F0040 		.word	1073762051
 899              		.cfi_endproc
 900              	.LFE4:
 901              		.size	BootloaderResetTimer_SetInterruptMode, .-BootloaderResetTimer_SetInterruptMode
 902              		.section	.text.BootloaderResetTimer_SoftwareCapture,"ax",%progbits
 903              		.align	2
 904              		.global	BootloaderResetTimer_SoftwareCapture
 905              		.thumb
ARM GAS  C:\Users\Bruger\AppData\Local\Temp\cc4mFk61.s 			page 56


 906              		.thumb_func
 907              		.type	BootloaderResetTimer_SoftwareCapture, %function
 908              	BootloaderResetTimer_SoftwareCapture:
 909              	.LFB5:
 303:Generated_Source\PSoC5/BootloaderResetTimer.c ****     /* Generate a software capture by reading the counter register */
 910              		.loc 1 303 0
 911              		.cfi_startproc
 912              		@ args = 0, pretend = 0, frame = 0
 913              		@ frame_needed = 0, uses_anonymous_args = 0
 914              		@ link register save eliminated.
 306:Generated_Source\PSoC5/BootloaderResetTimer.c ****     #else
 915              		.loc 1 306 0
 916 0000 014B     		ldr	r3, .L21
 917 0002 1B88     		ldrh	r3, [r3]
 918 0004 7047     		bx	lr
 919              	.L22:
 920 0006 00BF     		.align	2
 921              	.L21:
 922 0008 064F0040 		.word	1073762054
 923              		.cfi_endproc
 924              	.LFE5:
 925              		.size	BootloaderResetTimer_SoftwareCapture, .-BootloaderResetTimer_SoftwareCapture
 926              		.section	.text.BootloaderResetTimer_ReadStatusRegister,"ax",%progbits
 927              		.align	2
 928              		.global	BootloaderResetTimer_ReadStatusRegister
 929              		.thumb
 930              		.thumb_func
 931              		.type	BootloaderResetTimer_ReadStatusRegister, %function
 932              	BootloaderResetTimer_ReadStatusRegister:
 933              	.LFB6:
 334:Generated_Source\PSoC5/BootloaderResetTimer.c ****     return (BootloaderResetTimer_STATUS);
 934              		.loc 1 334 0
 935              		.cfi_startproc
 936              		@ args = 0, pretend = 0, frame = 0
 937              		@ frame_needed = 0, uses_anonymous_args = 0
 938              		@ link register save eliminated.
 335:Generated_Source\PSoC5/BootloaderResetTimer.c **** }
 939              		.loc 1 335 0
 940 0000 014B     		ldr	r3, .L24
 941 0002 1878     		ldrb	r0, [r3]	@ zero_extendqisi2
 336:Generated_Source\PSoC5/BootloaderResetTimer.c **** 
 942              		.loc 1 336 0
 943 0004 7047     		bx	lr
 944              	.L25:
 945 0006 00BF     		.align	2
 946              	.L24:
 947 0008 034F0040 		.word	1073762051
 948              		.cfi_endproc
 949              	.LFE6:
 950              		.size	BootloaderResetTimer_ReadStatusRegister, .-BootloaderResetTimer_ReadStatusRegister
 951              		.section	.text.BootloaderResetTimer_ReadControlRegister,"ax",%progbits
 952              		.align	2
 953              		.global	BootloaderResetTimer_ReadControlRegister
 954              		.thumb
 955              		.thumb_func
 956              		.type	BootloaderResetTimer_ReadControlRegister, %function
 957              	BootloaderResetTimer_ReadControlRegister:
ARM GAS  C:\Users\Bruger\AppData\Local\Temp\cc4mFk61.s 			page 57


 958              	.LFB7:
 357:Generated_Source\PSoC5/BootloaderResetTimer.c ****     #if (!BootloaderResetTimer_UDB_CONTROL_REG_REMOVED) 
 959              		.loc 1 357 0
 960              		.cfi_startproc
 961              		@ args = 0, pretend = 0, frame = 0
 962              		@ frame_needed = 0, uses_anonymous_args = 0
 963              		@ link register save eliminated.
 359:Generated_Source\PSoC5/BootloaderResetTimer.c ****     #else
 964              		.loc 1 359 0
 965 0000 014B     		ldr	r3, .L27
 966 0002 1878     		ldrb	r0, [r3]	@ zero_extendqisi2
 363:Generated_Source\PSoC5/BootloaderResetTimer.c **** 
 967              		.loc 1 363 0
 968 0004 7047     		bx	lr
 969              	.L28:
 970 0006 00BF     		.align	2
 971              	.L27:
 972 0008 004F0040 		.word	1073762048
 973              		.cfi_endproc
 974              	.LFE7:
 975              		.size	BootloaderResetTimer_ReadControlRegister, .-BootloaderResetTimer_ReadControlRegister
 976              		.section	.text.BootloaderResetTimer_WriteControlRegister,"ax",%progbits
 977              		.align	2
 978              		.global	BootloaderResetTimer_WriteControlRegister
 979              		.thumb
 980              		.thumb_func
 981              		.type	BootloaderResetTimer_WriteControlRegister, %function
 982              	BootloaderResetTimer_WriteControlRegister:
 983              	.LFB8:
 380:Generated_Source\PSoC5/BootloaderResetTimer.c ****     #if (!BootloaderResetTimer_UDB_CONTROL_REG_REMOVED) 
 984              		.loc 1 380 0
 985              		.cfi_startproc
 986              		@ args = 0, pretend = 0, frame = 0
 987              		@ frame_needed = 0, uses_anonymous_args = 0
 988              		@ link register save eliminated.
 989              	.LVL8:
 382:Generated_Source\PSoC5/BootloaderResetTimer.c ****     #else
 990              		.loc 1 382 0
 991 0000 014B     		ldr	r3, .L30
 992 0002 1870     		strb	r0, [r3]
 993 0004 7047     		bx	lr
 994              	.L31:
 995 0006 00BF     		.align	2
 996              	.L30:
 997 0008 004F0040 		.word	1073762048
 998              		.cfi_endproc
 999              	.LFE8:
 1000              		.size	BootloaderResetTimer_WriteControlRegister, .-BootloaderResetTimer_WriteControlRegister
 1001              		.section	.text.BootloaderResetTimer_ReadPeriod,"ax",%progbits
 1002              		.align	2
 1003              		.global	BootloaderResetTimer_ReadPeriod
 1004              		.thumb
 1005              		.thumb_func
 1006              		.type	BootloaderResetTimer_ReadPeriod, %function
 1007              	BootloaderResetTimer_ReadPeriod:
 1008              	.LFB9:
 406:Generated_Source\PSoC5/BootloaderResetTimer.c ****    #if(BootloaderResetTimer_UsingFixedFunction)
ARM GAS  C:\Users\Bruger\AppData\Local\Temp\cc4mFk61.s 			page 58


 1009              		.loc 1 406 0
 1010              		.cfi_startproc
 1011              		@ args = 0, pretend = 0, frame = 0
 1012              		@ frame_needed = 0, uses_anonymous_args = 0
 1013              		@ link register save eliminated.
 408:Generated_Source\PSoC5/BootloaderResetTimer.c ****    #else
 1014              		.loc 1 408 0
 1015 0000 014B     		ldr	r3, .L33
 1016 0002 1888     		ldrh	r0, [r3]
 412:Generated_Source\PSoC5/BootloaderResetTimer.c **** 
 1017              		.loc 1 412 0
 1018 0004 80B2     		uxth	r0, r0
 1019 0006 7047     		bx	lr
 1020              	.L34:
 1021              		.align	2
 1022              	.L33:
 1023 0008 044F0040 		.word	1073762052
 1024              		.cfi_endproc
 1025              	.LFE9:
 1026              		.size	BootloaderResetTimer_ReadPeriod, .-BootloaderResetTimer_ReadPeriod
 1027              		.section	.text.BootloaderResetTimer_WritePeriod,"ax",%progbits
 1028              		.align	2
 1029              		.global	BootloaderResetTimer_WritePeriod
 1030              		.thumb
 1031              		.thumb_func
 1032              		.type	BootloaderResetTimer_WritePeriod, %function
 1033              	BootloaderResetTimer_WritePeriod:
 1034              	.LFB10:
 432:Generated_Source\PSoC5/BootloaderResetTimer.c ****     #if(BootloaderResetTimer_UsingFixedFunction)
 1035              		.loc 1 432 0
 1036              		.cfi_startproc
 1037              		@ args = 0, pretend = 0, frame = 0
 1038              		@ frame_needed = 0, uses_anonymous_args = 0
 1039              		@ link register save eliminated.
 1040              	.LVL9:
 435:Generated_Source\PSoC5/BootloaderResetTimer.c ****     #else
 1041              		.loc 1 435 0
 1042 0000 014B     		ldr	r3, .L36
 1043 0002 1880     		strh	r0, [r3]	@ movhi
 1044 0004 7047     		bx	lr
 1045              	.L37:
 1046 0006 00BF     		.align	2
 1047              	.L36:
 1048 0008 044F0040 		.word	1073762052
 1049              		.cfi_endproc
 1050              	.LFE10:
 1051              		.size	BootloaderResetTimer_WritePeriod, .-BootloaderResetTimer_WritePeriod
 1052              		.section	.text.BootloaderResetTimer_ReadCapture,"ax",%progbits
 1053              		.align	2
 1054              		.global	BootloaderResetTimer_ReadCapture
 1055              		.thumb
 1056              		.thumb_func
 1057              		.type	BootloaderResetTimer_ReadCapture, %function
 1058              	BootloaderResetTimer_ReadCapture:
 1059              	.LFB11:
 457:Generated_Source\PSoC5/BootloaderResetTimer.c ****    #if(BootloaderResetTimer_UsingFixedFunction)
 1060              		.loc 1 457 0
ARM GAS  C:\Users\Bruger\AppData\Local\Temp\cc4mFk61.s 			page 59


 1061              		.cfi_startproc
 1062              		@ args = 0, pretend = 0, frame = 0
 1063              		@ frame_needed = 0, uses_anonymous_args = 0
 1064              		@ link register save eliminated.
 459:Generated_Source\PSoC5/BootloaderResetTimer.c ****    #else
 1065              		.loc 1 459 0
 1066 0000 014B     		ldr	r3, .L39
 1067 0002 1888     		ldrh	r0, [r3]
 463:Generated_Source\PSoC5/BootloaderResetTimer.c **** 
 1068              		.loc 1 463 0
 1069 0004 80B2     		uxth	r0, r0
 1070 0006 7047     		bx	lr
 1071              	.L40:
 1072              		.align	2
 1073              	.L39:
 1074 0008 084F0040 		.word	1073762056
 1075              		.cfi_endproc
 1076              	.LFE11:
 1077              		.size	BootloaderResetTimer_ReadCapture, .-BootloaderResetTimer_ReadCapture
 1078              		.section	.text.BootloaderResetTimer_WriteCounter,"ax",%progbits
 1079              		.align	2
 1080              		.global	BootloaderResetTimer_WriteCounter
 1081              		.thumb
 1082              		.thumb_func
 1083              		.type	BootloaderResetTimer_WriteCounter, %function
 1084              	BootloaderResetTimer_WriteCounter:
 1085              	.LFB12:
 481:Generated_Source\PSoC5/BootloaderResetTimer.c ****    #if(BootloaderResetTimer_UsingFixedFunction)
 1086              		.loc 1 481 0
 1087              		.cfi_startproc
 1088              		@ args = 0, pretend = 0, frame = 0
 1089              		@ frame_needed = 0, uses_anonymous_args = 0
 1090              		@ link register save eliminated.
 1091              	.LVL10:
 1092              		.loc 1 486 0
 1093 0000 014B     		ldr	r3, .L42
 1094 0002 1880     		strh	r0, [r3]	@ movhi
 1095 0004 7047     		bx	lr
 1096              	.L43:
 1097 0006 00BF     		.align	2
 1098              	.L42:
 1099 0008 064F0040 		.word	1073762054
 1100              		.cfi_endproc
 1101              	.LFE12:
 1102              		.size	BootloaderResetTimer_WriteCounter, .-BootloaderResetTimer_WriteCounter
 1103              		.section	.text.BootloaderResetTimer_ReadCounter,"ax",%progbits
 1104              		.align	2
 1105              		.global	BootloaderResetTimer_ReadCounter
 1106              		.thumb
 1107              		.thumb_func
 1108              		.type	BootloaderResetTimer_ReadCounter, %function
 1109              	BootloaderResetTimer_ReadCounter:
 1110              	.LFB13:
 487:Generated_Source\PSoC5/BootloaderResetTimer.c ****         
 488:Generated_Source\PSoC5/BootloaderResetTimer.c ****     #else
 489:Generated_Source\PSoC5/BootloaderResetTimer.c ****         CY_SET_REG16(BootloaderResetTimer_COUNTER_LSB_PTR, counter);
 490:Generated_Source\PSoC5/BootloaderResetTimer.c ****     #endif /* Set Write Counter only for the UDB implementation (Write Counter not available in fix
ARM GAS  C:\Users\Bruger\AppData\Local\Temp\cc4mFk61.s 			page 60


 491:Generated_Source\PSoC5/BootloaderResetTimer.c **** }
 492:Generated_Source\PSoC5/BootloaderResetTimer.c **** 
 493:Generated_Source\PSoC5/BootloaderResetTimer.c **** 
 494:Generated_Source\PSoC5/BootloaderResetTimer.c **** /*******************************************************************************
 495:Generated_Source\PSoC5/BootloaderResetTimer.c **** * Function Name: BootloaderResetTimer_ReadCounter
 496:Generated_Source\PSoC5/BootloaderResetTimer.c **** ********************************************************************************
 497:Generated_Source\PSoC5/BootloaderResetTimer.c **** *
 498:Generated_Source\PSoC5/BootloaderResetTimer.c **** * Summary:
 499:Generated_Source\PSoC5/BootloaderResetTimer.c **** *  This function returns the current counter value.
 500:Generated_Source\PSoC5/BootloaderResetTimer.c **** *
 501:Generated_Source\PSoC5/BootloaderResetTimer.c **** * Parameters:
 502:Generated_Source\PSoC5/BootloaderResetTimer.c **** *  void
 503:Generated_Source\PSoC5/BootloaderResetTimer.c **** *
 504:Generated_Source\PSoC5/BootloaderResetTimer.c **** * Return:
 505:Generated_Source\PSoC5/BootloaderResetTimer.c **** *  Present compare value.
 506:Generated_Source\PSoC5/BootloaderResetTimer.c **** *
 507:Generated_Source\PSoC5/BootloaderResetTimer.c **** *******************************************************************************/
 508:Generated_Source\PSoC5/BootloaderResetTimer.c **** uint16 BootloaderResetTimer_ReadCounter(void) 
 509:Generated_Source\PSoC5/BootloaderResetTimer.c **** {
 1111              		.loc 1 509 0
 1112              		.cfi_startproc
 1113              		@ args = 0, pretend = 0, frame = 0
 1114              		@ frame_needed = 0, uses_anonymous_args = 0
 1115              		@ link register save eliminated.
 510:Generated_Source\PSoC5/BootloaderResetTimer.c ****     /* Force capture by reading Accumulator */
 511:Generated_Source\PSoC5/BootloaderResetTimer.c ****     /* Must first do a software capture to be able to read the counter */
 512:Generated_Source\PSoC5/BootloaderResetTimer.c ****     /* It is up to the user code to make sure there isn't already captured data in the FIFO */
 513:Generated_Source\PSoC5/BootloaderResetTimer.c ****     #if(BootloaderResetTimer_UsingFixedFunction)
 514:Generated_Source\PSoC5/BootloaderResetTimer.c ****         (void)CY_GET_REG16(BootloaderResetTimer_COUNTER_LSB_PTR);
 515:Generated_Source\PSoC5/BootloaderResetTimer.c ****     #else
 516:Generated_Source\PSoC5/BootloaderResetTimer.c ****         (void)CY_GET_REG8(BootloaderResetTimer_COUNTER_LSB_PTR_8BIT);
 517:Generated_Source\PSoC5/BootloaderResetTimer.c ****     #endif/* (BootloaderResetTimer_UsingFixedFunction) */
 518:Generated_Source\PSoC5/BootloaderResetTimer.c **** 
 519:Generated_Source\PSoC5/BootloaderResetTimer.c ****     /* Read the data from the FIFO (or capture register for Fixed Function)*/
 520:Generated_Source\PSoC5/BootloaderResetTimer.c ****     #if(BootloaderResetTimer_UsingFixedFunction)
 521:Generated_Source\PSoC5/BootloaderResetTimer.c ****         return ((uint16)CY_GET_REG16(BootloaderResetTimer_CAPTURE_LSB_PTR));
 1116              		.loc 1 521 0
 1117 0000 024B     		ldr	r3, .L45
 514:Generated_Source\PSoC5/BootloaderResetTimer.c ****     #else
 1118              		.loc 1 514 0
 1119 0002 034A     		ldr	r2, .L45+4
 1120 0004 1288     		ldrh	r2, [r2]
 1121              		.loc 1 521 0
 1122 0006 1888     		ldrh	r0, [r3]
 522:Generated_Source\PSoC5/BootloaderResetTimer.c ****     #else
 523:Generated_Source\PSoC5/BootloaderResetTimer.c ****         return (CY_GET_REG16(BootloaderResetTimer_CAPTURE_LSB_PTR));
 524:Generated_Source\PSoC5/BootloaderResetTimer.c ****     #endif /* (BootloaderResetTimer_UsingFixedFunction) */
 525:Generated_Source\PSoC5/BootloaderResetTimer.c **** }
 1123              		.loc 1 525 0
 1124 0008 80B2     		uxth	r0, r0
 1125 000a 7047     		bx	lr
 1126              	.L46:
 1127              		.align	2
 1128              	.L45:
 1129 000c 084F0040 		.word	1073762056
 1130 0010 064F0040 		.word	1073762054
 1131              		.cfi_endproc
ARM GAS  C:\Users\Bruger\AppData\Local\Temp\cc4mFk61.s 			page 61


 1132              	.LFE13:
 1133              		.size	BootloaderResetTimer_ReadCounter, .-BootloaderResetTimer_ReadCounter
 1134              		.global	BootloaderResetTimer_initVar
 1135              		.bss
 1136              		.set	.LANCHOR0,. + 0
 1137              		.type	BootloaderResetTimer_initVar, %object
 1138              		.size	BootloaderResetTimer_initVar, 1
 1139              	BootloaderResetTimer_initVar:
 1140 0000 00       		.space	1
 1141              		.text
 1142              	.Letext0:
 1143              		.file 2 "Generated_Source\\PSoC5\\cytypes.h"