ARM GAS  C:\Users\Bruger\AppData\Local\Temp\cccZxlS9.s 			page 1


   1              		.syntax unified
   2              		.cpu cortex-m3
   3              		.fpu softvfp
   4              		.eabi_attribute 20, 1
   5              		.eabi_attribute 21, 1
   6              		.eabi_attribute 23, 3
   7              		.eabi_attribute 24, 1
   8              		.eabi_attribute 25, 1
   9              		.eabi_attribute 26, 1
  10              		.eabi_attribute 30, 2
  11              		.eabi_attribute 34, 1
  12              		.eabi_attribute 18, 4
  13              		.thumb
  14              		.file	"CAN_TX_RX_func.c"
  15              		.text
  16              	.Ltext0:
  17              		.section	.gnu.lto_.profile.24c0bc4d,"",%progbits
  18 0000 789C6366 		.ascii	"x\234cf```a\200\000F\206\224p\000\001\223\000\304"
  18      60606061 
  18      80004686 
  18      94700001 
  18      9300C4
  19              		.text
  20              		.section	.gnu.lto_.jmpfuncs.24c0bc4d,"",%progbits
  21 0000 789C6366 		.ascii	"x\234cf\300\016d\2404\013\003##c=#\230`.\007\0120\201"
  21      C00E64A0 
  21      340B0323 
  21      23633D23 
  21      98602E07 
  22 0017 98CC2082 		.ascii	"\230\314 \202\001\000&D\002\255"
  22      01002644 
  22      02AD
  23              		.text
  24              		.section	.gnu.lto_.inline.24c0bc4d,"",%progbits
  25 0000 789C6366 		.ascii	"x\234cf\300\016&Bi\026\006\006N\016FF\006F\006\006f"
  25      C00E2642 
  25      69160606 
  25      4E0E4646 
  25      06460606 
  26 0015 8E03760C 		.ascii	"\216\003v\014l\013\344\231\030X\026\310\263\200$\031"
  26      6C0BE499 
  26      185816C8 
  26      B3802419 
  27 0025 19D8B919 		.ascii	"\031\330\271\031\231\031R?21~\377s\274\225\377\005\323"
  27      9919523F 
  27      32317EFF 
  27      73BC95FF 
  27      05D3
  28 0037 4F260676 		.ascii	"O&\006v\006\306\345\214R\014\014i\020\012\244\021\250"
  28      06C6E58C 
  28      520C0C69 
  28      100AA411 
  28      A8
  29 0048 14A64F00 		.ascii	"\024\246O\000\244\217\211\033h.\343\004?&\206\303\014"
  29      A48F891B 
  29      682EE304 
  29      3F2686C3 
ARM GAS  C:\Users\Bruger\AppData\Local\Temp\cccZxlS9.s 			page 2


  29      0C
  30 0059 AD1C8C0C 		.ascii	"\255\034\214\014L\025\347g\2242\360\265\357\340`\002"
  30      4C15E767 
  30      9432F0B5 
  30      EFE06002 
  31 0069 493333F0 		.ascii	"I33\360pA\255\344\353\211F\265\222\001\000\245#\026"
  31      7041ADE4 
  31      EB8946B5 
  31      920100A5 
  31      2316
  32 007b 0A       		.ascii	"\012"
  33              		.text
  34              		.section	.gnu.lto_.pureconst.24c0bc4d,"",%progbits
  35 0000 789C6366 		.ascii	"x\234cf``\340d\200\000\026\006)F\011&)f)\000\002\273"
  35      6060E064 
  35      80001606 
  35      29460926 
  35      29662900 
  36 0016 007D     		.ascii	"\000}"
  37              		.text
  38              		.section	.gnu.lto_CAN_TxCancel.part.0.24c0bc4d,"",%progbits
  39 0000 789C9551 		.ascii	"x\234\225QMh\023Q\020~\337{\273\233\015\315\241x*\271"
  39      4D681351 
  39      107EDF7B 
  39      BB9B0DCD 
  39      A1782AB9 
  40 0014 872A3606 		.ascii	"\207*6\006\024\357J\017R\004\021\353\241\207B\32049"
  40      14EF4A0F 
  40      520411EB 
  40      A18742D0 
  40      3439
  41 0026 B610CCB9 		.ascii	"\266\020\314\271\2731\342El\025*E)\024\3775m\352O\325"
  41      BB31E245 
  41      6C152A45 
  41      2914FF35 
  41      6DEA4FD5 
  42 003a 6805831E 		.ascii	"h\005\203\036EK\004+\024\032ER\264\255\207\246\025\223"
  42      454B042B 
  42      141A4552 
  42      B4AD87A6 
  42      1593
  43 004c 8025CEBC 		.ascii	"\200%\316\274]\244\"\036\\\330\231y3\337|o\276yJ\374"
  43      5DA4221E 
  43      5CD89979 
  43      33DF7C6F 
  43      BE794AFC 
  44 0060 FD75D15F 		.ascii	"\375u\321_\226B\354#\017S\300\030}K\201\001\251\275"
  44      9642EC23 
  44      0F53C018 
  44      7D4B8101 
  44      A9BD
  45 0072 8462EFDA 		.ascii	"\204b\357\332\012\340@@\014\033Ra\030+\262&1Z\312\217"
  45      0AE04040 
  45      0C1B5261 
  45      182BB226 
  45      315ACA8F 
  46 0086 B775DE70 		.ascii	"\267u\336p\034g\375\352R\307\231\216&\021mJ\217\030"
ARM GAS  C:\Users\Bruger\AppData\Local\Temp\cccZxlS9.s 			page 3


  46      1C67FDEA 
  46      52C7998E 
  46      26116D4A 
  46      8F18
  47 0098 B7D04990 		.ascii	"\267\320I\220z~m\025j7\004\305sS\357\267B\221k\216\223"
  47      7A7E6D15 
  47      6A3704C5 
  47      7353EFB7 
  47      42916B8E 
  48 00ad 2D3D2D38 		.ascii	"-=-8\007\320\224\300m(\352@W\030\273\302\202\022\002"
  48      07D094C0 
  48      6D28EA40 
  48      5718BBC2 
  48      821202
  49 00c0 77106170 		.ascii	"w\020ap-\267\365\241\315\312\021w\273\307\211\273\260"
  49      2DB7F5A1 
  49      CDCA1177 
  49      BBC789BB 
  49      B0
  50 00d1 407E6687 		.ascii	"@~f\207\343\264Z_\032\221\020\300`ImR\2611\310(\223"
  50      E3B45A5F 
  50      1A9110C0 
  50      60496D52 
  50      B131C828 
  51 00e6 8C619131 		.ascii	"\214a\2211\003ll6A\316\011Q%\032VQ\245\003y\265,\245"
  51      036C6C36 
  51      41CE0951 
  51      251A5651 
  51      A50379B5 
  52 00fc F68BC856 		.ascii	"\366\213\310V\316\376(\354\345\033\352R\326i\212E\234"
  52      CEFE28EC 
  52      E51BEA52 
  52      D6698A45 
  52      9C
  53 010d BE647967 		.ascii	"\276dygE)\232\347\365\347\306f\350\253\244k\332\005"
  53      45299AE7 
  53      F5E7C666 
  53      E8ABA46B 
  53      DA05
  54 011f F2083364 		.ascii	"\362\0103d\334\207\030T_\037[]\320u5Y\312:\206\300\024"
  54      DC871854 
  54      5F1F5B5D 
  54      D0753559 
  54      CA3A86C0 
  55 0134 C2D44CB0 		.ascii	"\302\324L\260\227\317\340\301L\202}\254\316\227m\015"
  55      97CFE0C1 
  55      4C827DAC 
  55      CE976D0D 
  56 0144 13ACF2F2 		.ascii	"\023\254\362\362\205\342Bp\002W\334\234k7%Sa\232\270"
  56      85E24270 
  56      0257DC9C 
  56      6B372553 
  56      619AB8
  57 0157 B9B4F4ED 		.ascii	"\271\264\364\355\305\212\025\315;9\332S\000\005L`C\257"
  57      C58A15CD 
  57      3B39DA53 
  57      00054C60 
ARM GAS  C:\Users\Bruger\AppData\Local\Temp\cccZxlS9.s 			page 4


  57      43AF
  58 0169 964AE7AF 		.ascii	"\226J\347\257\277{n\372%\0333\210nHx\025\367\346\334"
  58      BF7B6EFA 
  58      251B3388 
  58      6E487815 
  58      F7E6DC
  59 017c B9809E52 		.ascii	"\271\200\236R\037+\225r\321\214Mk`\020\367\020\305}"
  59      1F2B9572 
  59      D18C4D6B 
  59      6010F710 
  59      C57D
  60 018e 66A7653E 		.ascii	"f\247e>@L\260\356\2007\032O\307\212\032\276\242\000"
  60      404CB0EE 
  60      80371A4F 
  60      C78A1ABE 
  60      A200
  61 01a0 A5A87F6D 		.ascii	"\245\250\177m\366\315\244d:\363g\313\377\350\355\037"
  61      F6CDA464 
  61      3AF367CB 
  61      FFE8ED1F 
  62 01b0 7AEABFFB 		.ascii	"z\352\277\373X\233\340\204\235\377\364jD/\300\244\367"
  62      589BE084 
  62      9DFFF46A 
  62      442FC0A4 
  62      F7
  63 01c1 9CD590DF 		.ascii	"\234\325\220\337\364AB\361&.\352M\374\217\356G\377\326"
  63      F44142F1 
  63      262EEA4D 
  63      FC8FEE47 
  63      FFD6
  64 01d3 FD789BEE 		.ascii	"\375x\233\356?\205>\331&\264\210\030\335O\3212\255\234"
  64      3F853ED9 
  64      26B48818 
  64      DD4FD132 
  64      AD9C
  65 01e5 5FBB02B7 		.ascii	"_\273\002\267T;\314sp\275J\014\224\245\033v\036J\016"
  65      543BCC73 
  65      70BD4A0C 
  65      94A51B76 
  65      1E4A0E
  66 01f8 26D3274E 		.ascii	"&\323'N%\007\342\275C\231t\"\331\177\264w\250{\177\177"
  66      2507E2BD 
  66      43997422 
  66      D97FB477 
  66      A87B7F7F 
  67 020c F7C123F1 		.ascii	"\367\301#\361\343}\361c}\361Tf0\261'!\354\223\231T*"
  67      E37DF163 
  67      7DF15466 
  67      30B12721 
  67      EC939954 
  68 0221 99EE19F8 		.ascii	"\231\356\031\370\005\305\"\011w"
  68      05C52209 
  68      77
  69              		.text
  70              		.section	.gnu.lto_CAN_TxCancel.24c0bc4d,"",%progbits
  71 0000 789C658E 		.ascii	"x\234e\216O(\303a\030\307\237\357\363\376\260le9\315"
  71      4F28C361 
ARM GAS  C:\Users\Bruger\AppData\Local\Temp\cccZxlS9.s 			page 5


  71      18C79FEF 
  71      F3FEB06C 
  71      6539CD
  72 0013 0E6E0B11 		.ascii	"\016n\013\021E\256\"\007II\346\340\240\026\363\333q"
  72      45AE2207 
  72      4949E6E0 
  72      A016F3DB 
  72      71
  73 0024 AB65C7B5 		.ascii	"\253e\307\265\027\277\225\223\344\302\311\201\344\317"
  73      17BF9593 
  73      E4C2C981 
  73      E4CF
  74 0032 C4C1491C 		.ascii	"\304\301I\034~7'.,\027\234(\177.\326\322\372\205\346"
  74      7E37272E 
  74      2C179C28 
  74      7F2ED6D2 
  74      FA85E6
  75 0045 79E7E8AD 		.ascii	"y\347\350\255\267\347\351\351\373\347\243\350\377\353"
  75      B7E7E9E9 
  75      FBE7A3E8 
  75      FFEB
  76 0053 95DF02A2 		.ascii	"\225\337\002\242>\231\250#\360\3325\321\242\217Y\335"
  76      3E99A823 
  76      F0DA35D1 
  76      A28F59DD 
  77 0063 F6906EB4 		.ascii	"\366\220n\264.ZI\007\024,s\206\005\230I\240\034+\013"
  77      2E5A4907 
  77      142C7386 
  77      059849A0 
  77      1C2B0B
  78 0076 39BC7289 		.ascii	"9\274r\211\261\346\0266\375m\273Z\353\217\355\207P>"
  78      B1E61636 
  78      FD6DBB5A 
  78      EB8FED87 
  78      503E
  79 0088 E4315199 		.ascii	"\3441Q\231\377\342\261\2076\221T\012\357oP\235 \331"
  79      FFE2B187 
  79      3691540A 
  79      EF6F509D 
  79      20D9
  80 009a CF8F8A3F 		.ascii	"\317\217\212?\201\310\216\326K\356\331\261\036\204\307"
  80      81C88ED6 
  80      4BEED9B1 
  80      1E84C7
  81 00a9 C03E9438 		.ascii	"\300>\2248\320\025FG\230\344@8@\304\210K\316\317\235"
  81      D0154647 
  81      98E44038 
  81      40C4884B 
  81      CECF9D
  82 00bc BFDE91EC 		.ascii	"\277\336\221\354\340_&\016Q/\270t\322\354\352j\265\374"
  82      E05F260E 
  82      512FB874 
  82      D2ECEA6A 
  82      B5FC
  83 00ce B9BE32C0 		.ascii	"\271\2762\300u@MOO\2420\200\317\314f\252\"\234\253\345"
  83      75404D4F 
  83      4FA23080 
ARM GAS  C:\Users\Bruger\AppData\Local\Temp\cccZxlS9.s 			page 6


  83      CFCC66AA 
  83      229CABE5 
  84 00e2 D38D9031 		.ascii	"\323\215\2201U$L@\276/\363M/,\025\015\204\002\3025\310"
  84      55244C40 
  84      BE2FF34D 
  84      2F2C150D 
  84      8402C235 
  85 00f7 675674DB 		.ascii	"gVt\333\243\356\341\004\215\322\364n\335\254\036s\366"
  85      A3EEE104 
  85      8DD2F46E 
  85      DDAC1E73 
  85      F6
  86 0108 4BAF689F 		.ascii	"K\257h\237\307\\\026\"\302\021\262$)\236\250\215\307"
  86      C75C1622 
  86      C211B224 
  86      299EA88D 
  86      C7
  87 0119 AA553C62 		.ascii	"\252U<b\321-\215\325ld\000`\256\202\321>b'\355\364\354"
  87      D12D8DD5 
  87      6C640060 
  87      AE82D13E 
  87      6227EDF4 
  88 012e 823D1F8B 		.ascii	"\202=\037\213\2462\351\270=3\021M\015\367\317\014\017"
  88      A632E9B8 
  88      3D33114D 
  88      0DF7CF0C 
  88      0F
  89 013f 8DC7A6A6 		.ascii	"\215\307\246\246c\223\323\261D&\031\357\216\223o.\223"
  89      6393D3B1 
  89      442619EF 
  89      8E936F2E 
  89      93
  90 0150 48D8E9D1 		.ascii	"H\330\351\321\371_\320!t;"
  90      F95FD021 
  90      743B
  91              		.text
  92              		.section	.gnu.lto_CAN_SendMsg.24c0bc4d,"",%progbits
  93 0000 789C8D57 		.ascii	"x\234\215WiPT\331\025\276\347\275\356\327Mo\354[\003"
  93      695054D9 
  93      15BEE7BD 
  93      EED74D6F 
  93      EC5B03
  94 0013 8E71631C 		.ascii	"\216qc\034E\034\327\3212#\226\345\232\252\324,V\312"
  94      451CD7D1 
  94      322396E5 
  94      9AAAD42C 
  94      56CA
  95 0025 1FA62CCB 		.ascii	"\037\246,\313\301\311\244\342L\012\365G\362g\232\305"
  95      C1C9A4E2 
  95      4C0AF547 
  95      F2679AC5 
  96 0035 2513838A 		.ascii	"%\023\203\212\243qc\304\214c\304\015qC\324\321\246U"
  96      A37163C4 
  96      8C63C40D 
  96      7143D4D1 
  96      A655
  97 0047 348E60D0 		.ascii	"4\216`\320Q\024\0257\300\015d\021m\230q\3119\347\276"
ARM GAS  C:\Users\Bruger\AppData\Local\Temp\cccZxlS9.s 			page 7


  97      51141537 
  97      C00D6411 
  97      6D9871C9 
  97      39E7BE
  98 005a 6E9A8EA9 		.ascii	"n\232\216\251@\025\207\373\356=\313w\226{\316E\025\377"
  98      401587FB 
  98      EE3DCB77 
  98      967BCE45 
  98      15FF
  99 006c FDB31884 		.ascii	"\375\263\030\204\350\035.\304\207\270\206^\002\224\225"
  99      E81D2EC4 
  99      87B8865E 
  99      029495
 100 007b 9542649A 		.ascii	"\225Bd\232\025H\220\013U1,K\026.K\014Q\233A1\362\227"
 100      1548900B 
 100      55312C4B 
 100      162E4B0C 
 100      519B4131 
 101 0091 C65F46D0 		.ascii	"\306_F\320$\223\246\230x\333\314\333&\010\221\333f\337"
 101      2493A698 
 101      78DBCCDB 
 101      260891DB 
 101      66DF
 102 00a3 2244B1F0 		.ascii	"\"D\261\360\271\225\317-`\223\333V\337\302\246\330\371"
 102      B995CF2D 
 102      6093DB56 
 102      DFC2A6D8 
 102      F9
 103 00b4 DCC1E776 		.ascii	"\334\301\347vp\310m\007D\312E\250\022\306\347\341|\036"
 103      70C86D07 
 103      44CA45A8 
 103      12C6E7E1 
 103      7C1E
 104 00c6 0611723B 		.ascii	"\006\021r;\334\267\210\220\214e\346H%\252\362\234@\316"
 104      DCB78890 
 104      8C65E648 
 104      25AAF29C 
 104      40CE
 105 00d8 688F8A9C 		.ascii	"h\217\212\234QJh\351i\376\2546\343g4\304H\376\030%\236"
 105      514A68E9 
 105      69FEAC36 
 105      E36734C4 
 105      48FE1825 
 106 00ed CE2DB1CC 		.ascii	"\316-\261\314l\213\2058)\036\247\250\222?\236\371\343"
 106      6C8B8538 
 106      291EA7A8 
 106      923F9EF9 
 106      E3
 107 00fe 95246673 		.ascii	"\225$fsJ6\247\214I\2319AI<?\026\367\223NE\342v\242\224"
 107      4A36A78C 
 107      49993941 
 107      493C3F16 
 107      F7934E45 
 108 0116 862400FA 		.ascii	"\206$\000\372+@|\251\250\006\243f2\207X\2546\273#4,"
 108      2B407CA9 
 108      A806A366 
 108      328758AC 
ARM GAS  C:\Users\Bruger\AppData\Local\Temp\cccZxlS9.s 			page 8


 108      36BB2334 
 109 012b 3C22322A 		.ascii	"<\"2*:&6.\336\231\220\230\004_\032\022\004\250\034\374"
 109      3A26362E 
 109      DE999098 
 109      045F1A12 
 109      04A81CFC 
 110 013f 3801665E 		.ascii	"8\001f^D\322B\256\037*\255\012\234/}u\011\222\277s\271"
 110      44D242AE 
 110      1F2AAD0A 
 110      9C2F7D75 
 110      0992BF73 
 111 0154 B25A3C4D 		.ascii	"\262Z<M7?pC\247\"\304SE\300`'\014t\222\221\177B2\362"
 111      373F7043 
 111      A722C453 
 111      45C06027 
 111      0C749291 
 112 016c 6DBFB7EA 		.ascii	"m\277\267\352\270\246\016\002\201\353\322=\355\025\326"
 112      B8A60E02 
 112      81EBD23D 
 112      ED15D6
 113 017b 074AA702 		.ascii	"\007J\247\002\275\351\363H\336\331u\032}*\006\372,\314"
 113      BDE9F348 
 113      DED9751A 
 113      7D2A06FA 
 113      2CCC
 114 018d BDD366EB 		.ascii	"\275\323f\353\377-jtW\354s\245\031:\025\025\266\203"
 114      FF2D6A74 
 114      57EC73A5 
 114      193A1515 
 114      B683
 115 019f 4A3A0BC1 		.ascii	"J:\013\301\011;\300)pK\300N\350O\354\355K\213\256\233"
 115      093BC029 
 115      704BC04E 
 115      E84FECED 
 115      4B8BAE9B 
 116 01b3 D4E1AC78 		.ascii	"\324\341\254xg\226w\207\265\357\026\024\275\375\344"
 116      67967787 
 116      B5EF1614 
 116      BDFDE4
 117 01c2 D02C7766 		.ascii	"\320,wf\201\353\325\353\327\204\010vI\005>P\364\203"
 117      81EBD5EB 
 117      D7840876 
 117      49053E50 
 117      F483
 118 01d4 FC3F545D 		.ascii	"\374?T]\256\327\324\221,\333\376\227\233O\314,\353\376"
 118      AED7D491 
 118      2CDBFE97 
 118      9B4FCC2C 
 118      EBFE
 119 01e6 668F2B2D 		.ascii	"f\217+-@v\317\033e\017\037~\371\302\240\216\226\262"
 119      4076CF1B 
 119      650F1F7E 
 119      F9C2A08E 
 119      96B2
 120 01f8 7935DF6B 		.ascii	"y5\337kR\266\260\273\354\3367\312\326\0264=\014U\177"
 120      52B6B0BB 
 120      ECDE37CA 
ARM GAS  C:\Users\Bruger\AppData\Local\Temp\cccZxlS9.s 			page 9


 120      D616343D 
 120      0C557F
 121 020b C9B2C72F 		.ascii	"\311\262\307//\276o\220\230\233\273c\336\367F\331\302"
 121      2FBE6F90 
 121      989BBB63 
 121      DEF746D9 
 121      C2
 122 021c 1BCFDC0E 		.ascii	"\033\317\334\016u\"\313\376\275\354\273\265\026\226"
 122      7522CBFE 
 122      BDECBBB5 
 122      1696
 123 022a 2DE8E86E 		.ascii	"-\350\350n\367\300\033eK\177>\262YS\247\263\354\253"
 123      F7C01B65 
 123      4B7F3EB2 
 123      5953A7B3 
 123      ECAB
 124 023c D6EB8DBA 		.ascii	"\326\353\215\272\335\316\303\237\270s|\262\0068\324"
 124      DDCEC39F 
 124      B8737CB2 
 124      0638D4
 125 024b 3DD87EE9 		.ascii	"=\330~\351\326\234\227\325V-\307\345r\205\301n\350\013"
 125      D69C97D5 
 125      562DC7E5 
 125      7285C16E 
 125      E80B
 126 025d 45F85B8C 		.ascii	"E\370[\214\277\373\361\367 \376\226@_\312<\246\3740"
 126      BFFBF1F7 
 126      20FE9640 
 126      5FCA3CA6 
 126      FC30
 127 026f 687859B5 		.ascii	"hxY\265\377\305U\024\341v\275~\375\364P\331J\353\257"
 127      FFC55514 
 127      E176BD7E 
 127      FDF450D9 
 127      4AEBAF
 128 0282 4010179A 		.ascii	"@\020\027\232C>L*r\032\004\361\032\005qkLML\315LC\230"
 128      433E4C2A 
 128      721A04F1 
 128      1A05716B 
 128      4C4D4CCD 
 129 0299 5A04E9B1 		.ascii	"Z\004\351\2612\2651\2653u`i\030c\221hqD\342\201\252"
 129      32B531B5 
 129      33756069 
 129      18639168 
 129      7144E281 
 130 02ae 84EA454B 		.ascii	"\204\352EK \222H\307IDz!1\275\205\304\334\233H\037\226"
 130      209248C7 
 130      49447A21 
 130      31BD85C4 
 130      DC9B481F 
 131 02c3 EE4B27FD 		.ascii	"\356K'\375\210\364\247\343\001t\222Ld \011\277C\253"
 131      88F4A7E3 
 131      0174924C 
 131      642009BF 
 131      43AB
 132 02d5 41440633 		.ascii	"AD\0063w\012\323!t\224\312\313\241\264|\227\304\207"
 132      770AD321 
ARM GAS  C:\Users\Bruger\AppData\Local\Temp\cccZxlS9.s 			page 10


 132      7494CACB 
 132      A1B47C97 
 132      C487
 133 02e7 11194E3A 		.ascii	"\021\031N:F\320j$\221QDF\023y\017I\310\030$\226\261"
 133      46D06A24 
 133      91514446 
 133      13790F49 
 133      C8182496 
 134 02fc 24318E7D 		.ascii	"$1\216}\177\237N\306\023I#\271\011dg\022\307c2{<\205"
 134      7F9F4EC6 
 134      134923B9 
 134      09646712 
 134      C763327B 
 135 0312 E3349577 		.ascii	"\3434\225w\246q\204\246\363\216\020u\030r\017\210zE"
 135      A67184A6 
 135      F38E1075 
 135      18720F88 
 135      7A45
 136 0324 C13FEA15 		.ascii	"\301?\352\025\310r\337\232\317\031@\036\314\332\255"
 136      C872DF9A 
 136      CF19401E 
 136      CCDAAD
 137 0333 BA0B5566 		.ascii	"\272\013Uf\272]\224\230R\314'q\264\000s\034d\216\252"
 137      BA5D9498 
 137      52CC2771 
 137      B400731C 
 137      648EAA
 138 0346 0DDBB243 		.ascii	"\015\333\262C\231\003\223q\2043^\217\027\2542V\255\001"
 138      99039371 
 138      84335E8F 
 138      17AC3256 
 138      AD01
 139 0358 CF91D6F2 		.ascii	"\317\221\326\362*+1{\225X\344]\341=Zo#^\3532w\226\213"
 139      2A2B317B 
 139      9558E45D 
 139      E13D5A6F 
 139      235EEB32 
 140 036f EFABDF80 		.ascii	"\357\253\337\200\225\253\344\253\365?m4\345\303\306"
 140      95ABE4AB 
 140      F53F6D34 
 140      E5C3C6
 141 037e CC9C4CF7 		.ascii	"\314\234L\367\330N\305\006G\261\216\216\221V<\254\376"
 141      D84EC506 
 141      47B18E8E 
 141      91563CAC 
 141      FE
 142 038f 5B51AE31 		.ascii	"[Q\2561e\247\013\317fv*v\370\036\362\241M\321\353kC"
 142      65A70BCF 
 142      66762A76 
 142      F81EF2A1 
 142      4DD1EB6B 
 143 03a4 757DBB4A 		.ascii	"u}\273J\212,\012}n\333[\274\301\236\272\233x\177\333"
 143      8A2C0A7D 
 143      6EDB5BBC 
 143      C19EBA9B 
 143      787FDB
 144 03b7 A938E038 		.ascii	"\2518\3408\244\300\011Y\217\340\206TQ\003\331\035K~"
ARM GAS  C:\Users\Bruger\AppData\Local\Temp\cccZxlS9.s 			page 11


 144      A4C00959 
 144      8FE08654 
 144      5103D91D 
 144      4B7E
 145 03c9 34496C71 		.ascii	"4Ilq\010\317\213\240/C\316\325\354\273\240o\242\226"
 145      08CF8BA0 
 145      2F43CED5 
 145      ECBBA06F 
 145      A296
 146 03db CC6D4797 		.ascii	"\314mG\227\233H\251\206bez9\327c\247\271o\345X\225\224"
 146      9B48A986 
 146      62657A39 
 146      D763A7B9 
 146      6FE55895 
 147 03f0 F7E35094 		.ascii	"\367\343P\224t\017\226\001\271=\310]\003Y\207\212/\224"
 147      740F9601 
 147      B93DC85D 
 147      0359878A 
 147      2F94
 148 0402 854885CE 		.ascii	"\205H\205\316@\026\225A\037\354\330\334dGw\361\346\204"
 148      40169541 
 148      1FECD8DC 
 148      644777F1 
 148      E684
 149 0414 7A957838 		.ascii	"z\225x8\251{\372\304\223\373S(z\032\326\251\204\301"
 149      A97BFAC4 
 149      93FB5328 
 149      7A1AD6A9 
 149      84C1
 150 0426 29761308 		.ascii	")v\023\010\371iH!\220\327\262\333t\220\316\000TF\321"
 150      F9694821 
 150      90D7B2DB 
 150      7490CE00 
 150      5446D1
 151 0439 6E645455 		.ascii	"ndTU\345\003\002P\375\365\326\275\365\354\203\031\357"
 151      E5030250 
 151      FDF5D6BD 
 151      F5EC8319 
 151      EF
 152 044a 1EE6A85C 		.ascii	"\036\346\250\\\317\221\246;\021\306\345\347U,\014\267"
 152      CF91A63B 
 152      11C6E5E7 
 152      552C0CB7 
 153 045a F5B20F6E 		.ascii	"\365\262\017nBO\361\235a|\\!g%\276\253~|\011>|\015`"
 153      424FF19D 
 153      617C5C21 
 153      6725BEAB 
 153      7E7C093E 
 154 0471 A190188E 		.ascii	"\241\220\030\216\355\337\252\020\004\343\362\203\007"
 154      EDDFAA10 
 154      04E3F283 
 154      07
 155 047e 14446122 		.ascii	"\024Da\"\320h\270v\351\223\015\177\2262\211^t\026\363"
 155      D068B876 
 155      E9930D7F 
 155      9632895E 
 155      7416F3
ARM GAS  C:\Users\Bruger\AppData\Local\Temp\cccZxlS9.s 			page 12


 156 0491 B35693DF 		.ascii	"\263V\223\337I\270E\355\366n\307S.\036#\"\376\027G7"
 156      49B845ED 
 156      F66EC753 
 156      2E1E2322 
 156      FE174737 
 157 04a5 7B9DCED2 		.ascii	"{\235\316\322\013\317[\326<\272\302\347\246\002..8\007"
 157      0BCF5BD6 
 157      3CBAC2E7 
 157      A6022E2E 
 157      3807
 158 04b7 4E1466AF 		.ascii	"N\024f\257t4o\365\314\245p\370\201]\242\341\005\347"
 158      74346FF5 
 158      CCA570F8 
 158      815DA2E1 
 158      05E7
 159 04c9 D125B474 		.ascii	"\321%\264tC\267\324[j9\261\276y3\033\263D\013\250`0"
 159      43B7D45B 
 159      6A39B1BE 
 159      79331BB3 
 159      440BA860 
 160 04de 9E3CB682 		.ascii	"\236<\266\202\207[\253nUq)Fp\211\327\235^;\207K\032"
 160      875BAB6E 
 160      55712946 
 160      7089D79D 
 160      5E3B874B 
 161 04f3 4D462256 		.ascii	"MF\"V\250$\223p\001m\240>\316\205YF!\273}I\345\306\015"
 161      A8249370 
 161      016DA03E 
 161      CE855946 
 161      21BB7D49 
 162 050a 3AD83E98 		.ascii	":\330>\230\022\224^\335\264\343e\210\236\2764\001\377"
 162      12945EDD 
 162      B4E36588 
 162      9EBE3401 
 162      FF
 163 051b E63BA8F8 		.ascii	"\346;\250\370\362\213l\202\243we\243\036\275\276A\321"
 163      F28B6C82 
 163      A37765A3 
 163      1EBDBE41 
 163      D1
 164 052c EB875BC1 		.ascii	"\353\207[\301\341\352/c\323/06\003z\032\233\252\256"
 164      E1EA2F63 
 164      D32F3036 
 164      037A1A9B 
 164      AAAE
 165 053e D85CEC1E 		.ascii	"\330\\\354\036\233d\324B\01530\026A\316\367\327\235"
 165      9B64D442 
 165      0D333016 
 165      41CEF7D7 
 165      9D
 166 054f BFC4CE27 		.ascii	"\277\304\316'\263\363!A\205h\225\205X\353+\304\201="
 166      B3F32141 
 166      85689585 
 166      58EB2BC4 
 166      813D
 167 0561 2DC41F19 		.ascii	"-\304\037\031\231\201\220]\226\205X\341/DR\342}qf1\267"
 167      9981905D 
ARM GAS  C:\Users\Bruger\AppData\Local\Temp\cccZxlS9.s 			page 13


 167      968558E1 
 167      2F4452E2 
 167      7D716631 
 168 0576 AA309C09 		.ascii	"\2520\234\011W|ui\3058\233\020L\037\363\246\022.I\213"
 168      577C7569 
 168      C5389B10 
 168      4C1FF3A6 
 168      122E498B 
 169 058a BF245F6D 		.ascii	"\277$_m\334\247\213\277\203\032\330\325%\247\342\344"
 169      DCA78BBF 
 169      831AD8D5 
 169      25A7E2E4 
 170 059a CE20DC0C 		.ascii	"\316 \334\014\254J\013\302\257\226an_\322h\220L\203"
 170      AC4A0BC2 
 170      AF96616E 
 170      5FD26890 
 170      4C83
 171 05ac 99CFDA3D 		.ascii	"\231\317\332=c\203\331k\253?\3455\211\2229\0059Q\343"
 171      6383D96B 
 171      AB3FE535 
 171      89923905 
 171      3951E3
 172 05bf F5A6EA8B 		.ascii	"\365\246\352\213\276\373\332[\300\325\340\204\247\260"
 172      BEFBDA5B 
 172      C0D5E084 
 172      A7B0
 173 05cd B82D2868 		.ascii	"\270-(h6\331l\356\373\2026\244\247A\273\306A3R\320j"
 173      36D96CEE 
 173      FB8236A4 
 173      A741BBC6 
 173      413352D0 
 174 05e2 82BBCB90 		.ascii	"\202\273\313\220\256\333kC\334\226\027\030 \004`=0\006"
 174      AEDB6B43 
 174      DC961718 
 174      2004603D 
 174      3006
 175 05f4 11D8FD0E 		.ascii	"\021\330\375\016x\222${*\302\010|\221\231\361\022^\017"
 175      7892247B 
 175      2AC2087C 
 175      9199F112 
 175      5E0F
 176 0606 869FCAF0 		.ascii	"\206\237\312\360\035A\360\355<XJ\226\312vJS\237\206"
 176      1D41F0ED 
 176      3C584A96 
 176      CA764A53 
 176      9F86
 177 0618 0DDAB5A3 		.ascii	"\015\332\265\243N\033f'\325\276\374(g'T\024z\204L\317"
 177      4E1B6627 
 177      D5BEFC28 
 177      67275414 
 177      7A844CCF 
 178 062c F3FC3C1D 		.ascii	"\363\374<\035\350\273AE?\014\267\202\213~\270,\372a"
 178      E8BB4145 
 178      3F0CB782 
 178      8B7EB82C 
 178      FA61
 179 063e E462A52A 		.ascii	"\344b\245*\367\350\015\232\273g\353S\256\012\015_\020"
ARM GAS  C:\Users\Bruger\AppData\Local\Temp\cccZxlS9.s 			page 14


 179      F7E80D9A 
 179      BB67EB53 
 179      AE0A0D5F 
 179      10
 180 064f 37FCDD34 		.ascii	"7\374\3354L|\375\0136\243\317\210\021\310M\352\276\326"
 180      4C7CFD0B 
 180      36A3CF88 
 180      11C84DEA 
 180      BED6
 181 0661 D58D44D1 		.ascii	"\325\215D\321\373+\267\027\311\226\204\217\211\233\244"
 181      FB2BB717 
 181      C996848F 
 181      899BA4
 182 0670 7D04CB86 		.ascii	"}\004\313\206\007\311\216\012\222\035\035h\326\210f"
 182      07C98E0A 
 182      921D1D68 
 182      D68866
 183 067f 6B497614 		.ascii	"kIv\024\313F\370\374;t\347\224\356\335{=\313e\024\334"
 183      CB46F8FC 
 183      3B74E794 
 183      EEDD7B3D 
 183      CB6514DC 
 184 0693 E25C6A94 		.ascii	"\342\\j\224\313\333|51Hu\361R\311\030\211!\353\210\256"
 184      CBDB7C35 
 184      314875F1 
 184      52C91889 
 184      21EB88AE 
 185 06a7 746CE034 		.ascii	"tl\3404\212\3526\2152].w\256\332\251D\243i\270\243\033"
 185      8AEA368D 
 185      325D2E77 
 185      AEDAA944 
 185      A369B8A3 
 186 06bc DAD4BEFA 		.ascii	"\332\324\276\372Zh\312\240N%\006\356\262\031\223\234"
 186      5A68CAA0 
 186      4E2506EE 
 186      B219939C 
 187 06cc BB8F76FD 		.ascii	"\273\217v\375\3542\340\240E\231M*\275\002\356\001\026"
 187      EC32E0A0 
 187      45994D2A 
 187      BD02EE01 
 187      16
 188 06dd F2181EB4 		.ascii	"\362\030\036\264u<h=y[\306\351\335\300o\320$g\366\252"
 188      753C683D 
 188      795BC6E9 
 188      DDC06FD0 
 188      2467F6AA 
 189 06f1 C35742F4 		.ascii	"\303WB\364i?\255\223f\360p\250\327\355\335l<\361P\243"
 189      693FAD93 
 189      66F070A8 
 189      D7EDDD6C 
 189      3CF150A3 
 190 0705 618F1EC7 		.ascii	"a\217\036\307A\003\2334K\223\271[/\0363\352G\361p\037"
 190      41039B34 
 190      4B93B95B 
 190      2F1E33EA 
 190      47F1701F 
 191 0719 52DAB087 		.ascii	"R\332\260\207\360IAG\361j\215\246>\320\314\177@H\034"
ARM GAS  C:\Users\Bruger\AppData\Local\Temp\cccZxlS9.s 			page 15


 191      F0494147 
 191      F16A8DA6 
 191      3ED0CC7F 
 191      40481C
 192 072c 8CE42160 		.ascii	"\214\344!`q\216\245\034\344-\251\315o\323\3630\016c"
 192      718EA51C 
 192      E42DA9CD 
 192      6FD3F330 
 192      0E63
 193 073e C26F165F 		.ascii	"\302o\026_\205\026Q-\216\243\272s`\206\303\032\217n"
 193      8516512D 
 193      8EA3BA73 
 193      6086C31A 
 193      8F6E
 194 0750 C57A1F1D 		.ascii	"\305z\037\035Ny\211\024\370_\217^\262\314\246\3106\325"
 194      4E798914 
 194      F85F8F5E 
 194      B2CCA6C8 
 194      36D5
 195 0762 B4C52E95 		.ascii	"\264\305.\225\015\355\351\215{\324\325\246\036\313\033"
 195      0DEDE98D 
 195      7BD4D5A6 
 195      1ECB1B
 196 0771 5799DDA0 		.ascii	"W\231\335\240ge\250\227\007)\002P\350\0068\226\205 "
 196      6765A897 
 196      07290250 
 196      E8063896 
 196      8520
 197 0783 9E8875A3 		.ascii	"\236\210u\243\021@\224\300\177\317Tnj\015\001\345\353"
 197      114094C0 
 197      7FCF546E 
 197      6A0D01E5 
 197      EB
 198 0794 6F6A029B 		.ascii	"oj\002\233Z\243\277|\243\351\202a\354[Z\236\177\250"
 198      5AA3BF7C 
 198      A3E98261 
 198      EC5B5A9E 
 198      7FA8
 199 07a6 077F55F3 		.ascii	"\007\177U\363\322\012\013\217%\327\311l\227\243\333"
 199      D20A0B8F 
 199      25D7C96C 
 199      97A3DB
 200 07b5 EB2B8261 		.ascii	"\353+\202aV\345\270^\032\375\335\032\232\360\355\365"
 200      56E5B85E 
 200      1AFDDD1A 
 200      9AF0EDF5 
 201 07c5 84DB7533 		.ascii	"\204\333u3B\306\363\265\317\266\027"
 201      42C6F3B5 
 201      CFB617
 202 07d0 6A7A6BC2 		.ascii	"jzk\302\273\335\"\2378\265K\3137gH@\357\007\335\303"
 202      BBDD229F 
 202      38B54BCB 
 202      37674840 
 202      EF07DDC3 
 203 07e4 F1B8157C 		.ascii	"\361\270\025|\017\323\344=\034\317\235R\337\233\200"
 203      0FD3E43D 
 203      1CCF9D52 
ARM GAS  C:\Users\Bruger\AppData\Local\Temp\cccZxlS9.s 			page 16


 203      DF9B80
 204 07f3 1D00F57F 		.ascii	"\035\000\365\177S\234_\316\203\323\274\214\015\264\006"
 204      539C5FCE 
 204      83D3BC8C 
 204      0DB406
 205 0802 0DD6AE7A 		.ascii	"\015\326\256z\221\323$M\207\327\306\323d\202`\177_V"
 205      91D3244D 
 205      87D7C6D3 
 205      6482607F 
 205      5F56
 206 0814 99FE0FFB 		.ascii	"\231\376\017\373S\351\315\231\374\007\373\014l\015_"
 206      53E9CD99 
 206      FC07FB0C 
 206      6C0D5F
 207 0823 45EDD254 		.ascii	"E\355\322T\313\336\212\217t\351\266\307\256|\203\014"
 207      CBDE8A8F 
 207      74E9B6C7 
 207      AE7C830C 
 208 0833 97470F57 		.ascii	"\227G\017W{\333?\362\354]\361y\346\217\317s\324\310"
 208      7BDB3FF2 
 208      EC5DF179 
 208      E68FCF73 
 208      D4C8
 209 0845 E1A02E56 		.ascii	"\341\240.V\372U?\337\373Xv1LG\014=\210e\361\034\244"
 209      FA553FDF 
 209      FB587631 
 209      4C470C3D 
 209      8865F11C 
 210 085a E231CA61 		.ascii	"\3421\312a\362\252\36072\000\223\360\371\331\255\022"
 210      F2AAF037 
 210      320093F0 
 210      F9D9AD12 
 211 086a 8B896B92 		.ascii	"\213\211k\222|L}\273\346m\311e\354\352\307FR\035}\376"
 211      7C4C7DBB 
 211      E66DC965 
 211      ECEAC746 
 211      521D7DFE 
 212 087e 520116A8 		.ascii	"R\001\026\250\246\322\003>V\224\307\250\\\340\317\275"
 212      A6D2033E 
 212      5694C7A8 
 212      5CE0CFBD 
 213 088e 7A494EC1 		.ascii	"zIN\301tt\323\272\233\264NaDq\342\254\023\002\020iB"
 213      7474D3BA 
 213      9BB44E61 
 213      4471E2AC 
 213      13021069 
 214 08a3 7EB06155 		.ascii	"~\260aU\377`~\220\223t\236\324\011\276\"\303\222\365"
 214      FF607E90 
 214      93749ED4 
 214      09BE22C3 
 214      92F5
 215 08b5 2AD31391 		.ascii	"*\323\023\221L\211\355\2607\200\352U\246\322\327\244"
 215      4C89EDB0 
 215      3780EA55 
 215      A6D2D7A4 
 216 08c5 D8179776 		.ascii	"\330\027\227v\341\205E\336\311\364m\214%t\361\"\313"
 216      E18545DE 
ARM GAS  C:\Users\Bruger\AppData\Local\Temp\cccZxlS9.s 			page 17


 216      C9F46D8C 
 216      2574F122 
 216      CB
 217 08d6 10180093 		.ascii	"\020\030\000\223t\255d\215>\374L]\256\231P&\006\005"
 217      74AD648D 
 217      3EFC4C5D 
 217      AE995026 
 217      0605
 218 08e8 B5381274 		.ascii	"\2658\022t\212\307\252t\253v\347\014\311;\315\213\377"
 218      8AC7AA74 
 218      AB76E70C 
 218      C93BCD8B 
 218      FF
 219 08f9 6706BAB5 		.ascii	"g\006\272\265\2374Nc\267\022\304nc\240\035\263\356\011"
 219      9F344E63 
 219      B712C46E 
 219      63A01DB3 
 219      EE09
 220 090b B318A427 		.ascii	"\263\030\244'\315\327\365\333f\300\234^\270}r\005\367"
 220      CDD7F5DB 
 220      66C09C5E 
 220      B87D7205 
 220      F7
 221 091c 7081BDCB 		.ascii	"p\201\275\313\353\303`\240\360*\3558}\2469\217UoGw\314"
 221      EBC360A0 
 221      F02AED38 
 221      7DA6398F 
 221      556F4777 
 222 0931 645159DE 		.ascii	"dQY\336LX\235\004,\221<B\326\351\304\232\320\270\302"
 222      4C589D04 
 222      2C913C42 
 222      D6E9C49A 
 222      D0B8C2
 223 0944 D2005389 		.ascii	"\322\000S\211'\341F\263\251\001&\243\351\004bK\322\377"
 223      27E146B3 
 223      A90126A3 
 223      E904624B 
 223      D2FF
 224 0956 AFF2010A 		.ascii	"\257\362\001\012\021\265\220\351~}N\221\020B\310\032"
 224      11B590E9 
 224      7E7D4E91 
 224      1042C81A 
 225 0966 5E72533C 		.ascii	"^rS<H\211:\214\267\007\260\011\274=%\375\363\364\214"
 225      48893A8C 
 225      B707B009 
 225      BC3D25FD 
 225      F3F48C
 226 0979 390BD33F 		.ascii	"9\013\323?\231\375\361\027\2132\346\246\317\372\340"
 226      99FDF117 
 226      8B32E6A6 
 226      CFFAE0
 227 0988 E32F268E 		.ascii	"\343/&\216\2345q\302\257g\317\2309\373\243\231\263\347"
 227      9C3571C2 
 227      AF67CF98 
 227      39FBA399 
 227      B3E7
 228 099a 2DFA7CEE 		.ascii	"-\372|\356\220\271\3024?}\301\2029\237\246\303g\360"
ARM GAS  C:\Users\Bruger\AppData\Local\Temp\cccZxlS9.s 			page 18


 228      90B9C234 
 228      3F7DC182 
 228      399FA6C3 
 228      67F0
 229 09ac 7BE382DF 		.ascii	"{\343\202\337}6o\2411#}a\306\237\264\214\364\005\213"
 229      7D366FA1 
 229      31237D61 
 229      C69FB48C 
 229      F4058B
 230 09bf FEB0D094 		.ascii	"\376\260\320\224\221\376\351\214\364\371\177\374\017"
 230      91FEE98C 
 230      F4F97FFC 
 230      0F
 231 09cc 9FEDF29B 		.ascii	"\237\355\362\233"
 232              		.text
 233              		.section	.gnu.lto_CAN_ReceiveMsg.24c0bc4d,"",%progbits
 234 0000 789C9552 		.ascii	"x\234\225RMh\023A\024\236of\223l\222\212\342Ir\020/"
 234      4D681341 
 234      149E6F66 
 234      936C928A 
 234      E2497210 
 235 0015 A58A8D41 		.ascii	"\245\212\215A\324\263J\017\236\252b=\024)\304\032#\010"
 235      D4B34A0F 
 235      9EAA623D 
 235      1429C41A 
 235      2308
 236 0027 D240B0D0 		.ascii	"\322@\260\320['?\326\213H\225\"m%\242\370\027\215M\265"
 236      5B273FD6 
 236      8B489522 
 236      6D25A2F8 
 236      178D4DB5 
 237 003b 564D9B80 		.ascii	"VM\233\200\321\213\010\032\251D\305\202\021$b+BM[\254"
 237      D18B081A 
 237      A944C582 
 237      1124622B 
 237      424D5BAC 
 238 004f 7B90F866 		.ascii	"{\220\370f7`D+\270\260of\337\373\3367\337\367f\005\373"
 238      3760442B 
 238      B8B06F66 
 238      DFFBDE37 
 238      DFF76605 
 239 0064 F3D942EF 		.ascii	"\363\331B\357\036\301\330VZac\340\375\005\306\":\347"
 239      1EC1D856 
 239      5A6163E0 
 239      FD05C622 
 239      3AE7
 240 0076 A2E863D2 		.ascii	"\242\350c\322\245\345\3262\331 \240Yi\015P\033\006\326"
 240      A5E5D632 
 240      D920A059 
 240      690D501B 
 240      06D6
 241 0088 CB85865E 		.ascii	"\313\205\206^\314\362\012G\177>5\350n\272*\245\374\372"
 241      CCF20A47 
 241      7F3E35E8 
 241      6EBA2AA5 
 241      FCFA
 242 009a 21DB27E4 		.ascii	"!\333'\344\300A\2033\266\300\255\023p\035M\004\372T"
ARM GAS  C:\Users\Bruger\AppData\Local\Temp\cccZxlS9.s 			page 19


 242      C0418333 
 242      B6C0AD13 
 242      701D4D04 
 242      FA54
 243 00ac 18972BC4 		.ascii	"\030\227+\304F0\332'\007N\014\213\306\313RF\363\331"
 243      4630DA27 
 243      074E0C8B 
 243      C6CB5246 
 243      F3D9
 244 00be B4DC0183 		.ascii	"\264\334\001\203\003I\010\352@\263\007\033<\214\022"
 244      034908EA 
 244      40B3071B 
 244      3C8C12
 245 00cd 0C37D0A8 		.ascii	"\0147\320\250\300\225\370\2177n{\234\330WY\234\270\011"
 245      C095F88F 
 245      376E7B9C 
 245      D857599C 
 245      B809
 246 00df 3B681D5D 		.ascii	";h\035]\235\227\325\352\302\334PtsR4\020\0055\010j\345"
 246      9D97D5EA 
 246      C2DC5074 
 246      73523410 
 246      0535086A 
 247 00f4 9A0A360A 		.ascii	"\232\0126\012\302AA\323Up\252\340R\201\2612\261(\033"
 247      C24141D3 
 247      5570AAE0 
 247      5281B132 
 247      B1281B
 248 0107 1F3957AB 		.ascii	"\0379W\253\230F\264t\262p!\346V\314K\\,Q~\032\261sv"
 248      9846B474 
 248      B27021E6 
 248      56CC4B5C 
 248      2C517E1A 
 249 011e EB5BA314 		.ascii	"\353[\243\024\351\230H/>w\317p\242^\307\220\202GA\006"
 249      E998482F 
 249      3E77CF70 
 249      A25EC790 
 249      82474106 
 250 0132 6B101BD5 		.ascii	"k\020\033\325\347*O\277\255Tuq\361QTj\014\267\340\241"
 250      E72A4FBF 
 250      AD547571 
 250      F151546A 
 250      0CB7E0A1 
 251 0146 66823D9E 		.ascii	"f\202=\236\274\344\265p\016\302\275/\277\230\322M\034"
 251      BCE4B570 
 251      0EC2BD2F 
 251      BF98D24D 
 251      1C
 252 0157 53F686CF 		.ascii	"S\366\206\317d^;\0238\037\211G\362\315\006\267\021\031"
 252      645E3B13 
 252      381F8947 
 252      F2CD06B7 
 252      1119
 253 0169 46885DD5 		.ascii	"F\210]\325\336}y8k\367\246$\225\266\033\334\2164\022"
 253      DE7D7938 
 253      6BF7A624 
 253      95B61BDC 
ARM GAS  C:\Users\Bruger\AppData\Local\Temp\cccZxlS9.s 			page 20


 253      8E3412
 254 017c 9837C74A 		.ascii	"\2307\307J\305\323W^\346lV\261\325\340\016\214\302;"
 254      C5D3575E 
 254      E66C56B1 
 254      D5E00E8C 
 254      C23B
 255 018e CF61D522 		.ascii	"\317a\325\"\327\262\247\034\246V\363\263T\232\312\330"
 255      D7B2A71C 
 255      A656F3B3 
 255      549ACAD8 
 256 019e 7C230A7A 		.ascii	"|#\012z\300\340:n\303\213;\352\014\032\346\030|\312"
 256      C0E03A6E 
 256      C38B3BEA 
 256      0C1AE618 
 256      7CCA
 257 01b0 C9F7BE67 		.ascii	"\311\367\276gk,\215\272%\363IbfLS\024\032]\305]\002"
 257      6B2C8DBA 
 257      25F34962 
 257      664C5314 
 257      1A5DC55D 
 258 01c5 BF42FC6D 		.ascii	"\277B\374m,\\\303\324\237A\023\305\270\305F#\025\254"
 258      2C5CC3D4 
 258      9F4113C5 
 258      B8C54623 
 258      15AC
 259 01d7 E813CA73 		.ascii	"\350\023\312s\245:T\204\005w\376\346\023\313\272\324"
 259      A53A5484 
 259      0577FEE6 
 259      13CBBAD4 
 260 01e7 95C97B7F 		.ascii	"\225\311{\1777\251+\217\367\353<\3762\245+O\017\352"
 260      37A92B8F 
 260      F7EB3CFE 
 260      32A52B4F 
 260      0FEA
 261 01f9 3C652C4F 		.ascii	"<e,O\213\265\333q\221\002\323\002\311:kJ\372\037=\023"
 261      8BB5DB71 
 261      9102D302 
 261      C93A6B4A 
 261      FA1F3D13 
 262 020d FFD033B9 		.ascii	"\377\3203\271\274\236l\235\236\034|\244\302\034\217"
 262      BC9E6C9D 
 262      9E1C7CA4 
 262      C21C8F
 263 021c 66FE7125 		.ascii	"f\376q%D\362C\237u%E\001\312\304Ai:d\375\256`W0\334"
 263      44F2439F 
 263      75254501 
 263      CAC44169 
 263      3A64FDAE 
 264 0234 793C78D8 		.ascii	"y<x\330\337\026\352\016\007\202\035{\333B-\333:Zv\356"
 264      DF16EA0E 
 264      07821D7B 
 264      DB422DDB 
 264      3A5A76EE 
 265 0248 F6EF6FF7 		.ascii	"\366\357o\367\357k\367\037\351\356\012l\0120g\270\247"
 265      EF6BF71F 
 265      E9EE0A6C 
 265      0A3067B8 
ARM GAS  C:\Users\Bruger\AppData\Local\Temp\cccZxlS9.s 			page 21


 265      A7
 266 0259 B5F3E8B1 		.ascii	"\265\363\350\261C\241\236\237Y\2714\344"
 266      43A19E9F 
 266      59B934E4 
 267              		.text
 268              		.section	.gnu.lto_.symbol_nodes.24c0bc4d,"",%progbits
 269 0000 789C55C7 		.ascii	"x\234U\3071\025\300 \020D\301\277wM\264\305\324Z\300"
 269      3115C020 
 269      1044C1BF 
 269      774DB4C5 
 269      D45AC0
 270 0013 00BCBC54 		.ascii	"\000\274\274T\321\201\0004\221\202\002\246\233\004n"
 270      D1810034 
 270      918202A6 
 270      9B046E
 271 0022 96484319 		.ascii	"\226HC\031`\253\276\027!k\235\366\374\307q<\234\373"
 271      60ABBE17 
 271      216B9DF6 
 271      FCC7713C 
 271      9CFB
 272 0034 53D0BF21 		.ascii	"S\320\277!&\307P\023%"
 272      26C75013 
 272      25
 273              		.text
 274              		.section	.gnu.lto_.refs.24c0bc4d,"",%progbits
 275 0000 789C6366 		.ascii	"x\234cf```d\200\002\000\000=\000\005"
 275      60606064 
 275      80020000 
 275      3D0005
 276              		.text
 277              		.section	.gnu.lto_.decls.24c0bc4d,"",%progbits
 278 0000 789C9D57 		.ascii	"x\234\235W{LT\331\031\277\347\236\031`.\003Xi\324\220"
 278      7B4C54D9 
 278      19BFE79E 
 278      19602E03 
 278      5869D490 
 279 0014 3615B225 		.ascii	"6\025\262%nc\254\253i\342\177\325Zk\263\215\033#nbS"
 279      6E63ACAB 
 279      69E27FD5 
 279      5A6BB38D 
 279      1B236E62 
 280 0029 13CAC2D4 		.ascii	"\023\312\302\324\222\254\354\35686\232\376\321\013\212"
 280      92ACECEE 
 280      38369AFE 
 280      D10B8A
 281 0038 0E2008B3 		.ascii	"\016 \010\263\242 *\303\012\212\017\020\237\253\200"
 281      A2202AC3 
 281      0A8A0F10 
 281      9FAB80
 282 0047 0AD24594 		.ascii	"\012\322E\224\207\342\203\207\017\030T\\|\260\014\002"
 282      87E28387 
 282      0F18545C 
 282      7CB00C02 
 283 0057 0AE232FD 		.ascii	"\012\3422\375\316\343\316\275\003\027u{\223o\346~\367"
 283      CEE3CEBD 
 283      0317757B 
 283      936FE67E 
ARM GAS  C:\Users\Bruger\AppData\Local\Temp\cccZxlS9.s 			page 22


 283      F7
 284 0068 7CEFEF9C 		.ascii	"|\357\357\234\337w/\026\004\241\016\011\202\007\256"
 284      DF772F16 
 284      04A10E09 
 284      8207AE
 285 0077 25530561 		.ascii	"%S\005a\035\334\033\341\331r \270\025\216\010\3542\000"
 285      1DDC1BE1 
 285      D97220B8 
 285      158E08EC 
 285      3200
 286 0089 9D003A03 		.ascii	"\235\000:\003\364\010\350\2610\361\"\353\022\327%z\177"
 286      F408E8B1 
 286      30F122EB 
 286      12D7257A 
 286      7F
 287 009a 06328191 		.ascii	"\0062\201\221i\360\037\010\377\001@A@n\340\237\003\211"
 287      69F01F08 
 287      FF014041 
 287      406EE09F 
 287      0389
 288 00ac 8480EFE7 		.ascii	"\204\200\357\347\276N\350\330<\303}+6\203A\260\214\257"
 288      BE4EE8D8 
 288      3CC37D2B 
 288      368341B0 
 288      8CAF
 289 00be 897C5D4F 		.ascii	"\211|]O\217\304\030\246\350\000\231\201\\@\347y\\\323"
 289      8FC418A6 
 289      E8009981 
 289      5C40E779 
 289      5CD3
 290 00d0 786CE1F0 		.ascii	"xl\341\360\177\003\350c\240\220q\361u\002M\001\376g"
 290      7F03E863 
 290      A09071F1 
 290      75024D01 
 290      FE67
 291 00e2 2407A09F 		.ascii	"$\007\240\237\003M\007j\206\347\365\002\313g\006\320"
 291      034D076A 
 291      86E7F502 
 291      CB6706D0 
 292 00f2 08CF9BE4 		.ascii	"\010\317\233\344q\007\250\035\250\025\350\026P\033\320"
 292      7107A81D 
 292      A815E816 
 292      501BD0
 293 0101 6DA04681 		.ascii	"m\240F\201%\371\232\347\372H'fRS\323\270\372\315\345"
 293      25F99AE7 
 293      FA482766 
 293      5253D3B8 
 293      FACDE5
 294 0114 F5FBAD4E 		.ascii	"\365\373\255N\355\"5\265\323\353G\277\210Z.n\335\032"
 294      ED2235B5 
 294      D3EB47BF 
 294      885A2E6E 
 294      DD1A
 295 0126 80A1C870 		.ascii	"\200\241\310p\277?\247\353\2264\373\260,\313v\271\252"
 295      BF3FA7EB 
 295      9634FBB0 
 295      2CCB76B9 
ARM GAS  C:\Users\Bruger\AppData\Local\Temp\cccZxlS9.s 			page 23


 295      AA
 296 0137 0AA94289 		.ascii	"\012\251B\211\007*\266\371\367\210h\232D\331\214\372"
 296      072AB6F9 
 296      F788689A 
 296      44D98CFA 
 297 0147 DDD598B2 		.ascii	"\335\325\230\262\036\242'\266\267\357\030\301H\212\264"
 297      1EA227B6 
 297      B7EF18C1 
 297      488AB4
 298 0156 CB7292EC 		.ascii	"\313r\222\354v\310x\206\200f\207\241\017\303\004t\024"
 298      76C87886 
 298      806687A1 
 298      0FC30474 
 298      14
 299 0167 4582182A 		.ascii	"E\202\030*F\263\005t\010\205\241\303(L(\004\007\356"
 299      46B30574 
 299      0885A1C3 
 299      284C2804 
 299      07EE
 300 0179 7CF7CD5F 		.ascii	"|\367\315_\310\262\001\035A\022:\2100\225\200@\211\007"
 300      C8B2011D 
 300      41123A88 
 300      30958040 
 300      8907
 301 018b 5A08780E 		.ascii	"Z\010x\016\236\316\225\0166\006\202\247`i&q\\\356\250"
 301      9ECE950E 
 301      360682A7 
 301      60692671 
 301      5CEEA8
 302 019e CBF103D6 		.ascii	"\313\361\003\326,\031\010\233\231\\\235i0\210L\032\375"
 302      2C19089B 
 302      995C9D69 
 302      30884C1A 
 302      FD
 303 01af 8D3E1BF2 		.ascii	"\215>\033\362t\025\211\323\263\301\205\234\271I\236"
 303      741589D3 
 303      B3C1859C 
 303      B9499E
 304 01be 6240CBA7 		.ascii	"b@\313\247\241\022p\\\012\216\005T\206\246\303\3571"
 304      A112705C 
 304      0A8E0554 
 304      86A6C3EF 
 304      31
 305 01cf 6460799D 		.ascii	"d`y\235|q\241J\302\037\321\344K\354M\205\206\231\373"
 305      7C71A14A 
 305      C21FD1E4 
 305      4BEC4D85 
 305      8699FB
 306 01e2 E4AA3277 		.ascii	"\344\2522wzM\371G\271\231\316$y\314\343A\262H\264\320"
 306      7A4DF947 
 306      B999CE24 
 306      79CCE341 
 306      B248B4D0 
 307 01f6 716F8C02 		.ascii	"qo\214\002\271gA\236@3\377\2570N\3210N*a\274\310\275"
 307      B967419E 
 307      4033FFAF 
 307      304ED130 
ARM GAS  C:\Users\Bruger\AppData\Local\Temp\cccZxlS9.s 			page 24


 307      4E2A61BC 
 308 020c D2178813 		.ascii	"\322\027\210\023h\030\371\031\217\247@\024\31629Wv\212"
 308      6818F919 
 308      8FA74014 
 308      CE323957 
 308      768A
 309 021e 321C3A08 		.ascii	"2\034:\010\000\344\321iM\000\247\225\000\316\320\000"
 309      00E4D169 
 309      4D00A795 
 309      00CED000 
 310 022e CA2E1E49 		.ascii	"\312.\036I1\321*\375\235\230x\225\354N\221h\225\314"
 310      31D12AFD 
 310      9D987895 
 310      EC4E9168 
 310      95CC
 311 0240 84ED6A6B 		.ascii	"\204\355jk\255\364\307\377F\332F\206\263Fv\346\215\024"
 311      ADF4C7FF 
 311      46DA4686 
 311      B34676E6 
 311      8D14
 312 0252 9A284B4E 		.ascii	"\232(KNw\010\351e\305%G\263\204\"%\326\244A\326\244"
 312      7708E965 
 312      C52547B3 
 312      842225D6 
 312      A441D6A4 
 313 0266 F390D739 		.ascii	"\363\220\3279\265I\341\274I\264\337\220\236\251.X\360"
 313      B549E1BC 
 313      49B4DF90 
 313      9EA92E58 
 313      F0
 314 0277 66872AA1 		.ascii	"f\207*\241\345\341\274\345\345\360\260\002\036\202\257"
 314      E5E1BCE5 
 314      E5F0B002 
 314      1E82AF
 315 0286 B1DD4D99 		.ascii	"\261\335M\231~8\011\3218\372\356\2179\3148\2311\243"
 315      7E3809D1 
 315      38FAEE8F 
 315      39CC3899 
 315      31A3
 316 0298 A53FD69A 		.ascii	"\245?\326\232q\012c\212\03749\202h.\263\350Z~s8NgK\235"
 316      710A638A 
 316      1F343982 
 316      682EB3E8 
 316      5A7E7338 
 317 02b0 AF3A2FF9 		.ascii	"\257:/\371\323\245\271\204\255p\277\314\015\302Yl-\261"
 317      D3A5B984 
 317      AD70BFCC 
 317      0DC2596C 
 317      2DB1
 318 02c2 AAE4265B 		.ascii	"\252\344&[[@\330\023\373\213\316\260\212,$la\366\316"
 318      5B40D813 
 318      FB8BCEB0 
 318      8A2C246C 
 318      61F6CE
 319 02d5 A3465A91 		.ascii	"\243FZ\221\000\302\236kO\253\361\307\331L\363\325~\327"
 319      00C29E6B 
 319      4FABF1C7 
ARM GAS  C:\Users\Bruger\AppData\Local\Temp\cccZxlS9.s 			page 25


 319      D94CF3D5 
 319      7ED7
 320 02e7 3344D7FC 		.ascii	"3D\327\374\011\353\032\313\224C$;o\034d\006\013\232"
 320      09EB1ACB 
 320      9443243B 
 320      6F1C6406 
 320      0B9A
 321 02f9 CE5D4590 		.ascii	"\316]E\220;\232\025\206\256\260\254\256\313M\307\304"
 321      3B9A1586 
 321      AEB0ACAE 
 321      CB4DC7C4 
 322 0309 A99954DC 		.ascii	"\251\231T\334)\317Dt\013\324\202\370e*^\217\246*JDz"
 322      29CF4474 
 322      0BD482F8 
 322      652A5E8F 
 322      A62A4A44 
 323 031e EFEDF427 		.ascii	"\357\355\364'\006\\L\035\343g\275y\231F\024\021\032"
 323      065C4C1D 
 323      E367BD79 
 323      99461411 
 323      1A
 324 032f E924A5BE 		.ascii	"\351$\245\276_\364zU\226,o\233AtP\003\024\273\011\205"
 324      5FF47A55 
 324      962C6F9B 
 324      41745003 
 324      14BB0985 
 325 0343 7A2D8147 		.ascii	"z-\201G\260\363\033\202WY\334\327\302\257\004\215#\""
 325      B0F31B82 
 325      5759DCD7 
 325      C2AF048D 
 325      2322
 326 0355 0C1547D7 		.ascii	"\014\025G\327\240\370\215(\202\266\207\264\320\325\271"
 326      A0F88D28 
 326      82B687B4 
 326      D0D5B9
 327 0364 DF4F4664 		.ascii	"\337OFdYPv\217r\252\305\241\372|G\000\212\014\245rO"
 327      5950768F 
 327      72AAC5A1 
 327      FA7C4700 
 327      8A0CA572 
 328 0379 63035033 		.ascii	"c\003P3\030\251S\333L\224\350\245\347\022]\007Oz^!\315"
 328      18A953DB 
 328      4C94E8A5 
 328      E7125D07 
 328      4F7A5E21 
 329 038e 43B5F7BF 		.ascii	"C\265\367\277\0174\247\252\273\203ZV\213x\003\231\271"
 329      0F34A7AA 
 329      BB835A56 
 329      8B780399 
 329      B9
 330 039f E4C19EDE 		.ascii	"\344\301\236\336\263\030\327\323\202\004d\0148\217\373"
 330      B318D7D3 
 330      8204640C 
 330      388FFB
 331 03ae A38888D0 		.ascii	"\243\210\210\320\010\270HU\222\\\031\335\265\201r\316"
 331      08B84855 
 331      925C19DD 
ARM GAS  C:\Users\Bruger\AppData\Local\Temp\cccZxlS9.s 			page 26


 331      B58172CE 
 332 03be 5C5AD54B 		.ascii	"\\Z\325K\020Y\013\330\341\310B+RC\354\011T4\257\250"
 332      10590BD8 
 332      E1C8422B 
 332      5243EC09 
 332      5434AFA8 
 333 03d2 C92CD7CD 		.ascii	"\311,\327\315%\306\321M.\352\335\223\254H\232\372\311"
 333      25C6D14D 
 333      2EEADD93 
 333      AC489AFA 
 333      C9
 334 03e3 F2429B80 		.ascii	"\362B\233\200\276\205\365\263t\251\205gr\0272iE\021"
 334      BE85F5B3 
 334      74A98567 
 334      72173269 
 334      4511
 335 03f5 E80E503B 		.ascii	"\350\016P;\320-\2406\240\333<;\352*-\3712uE\216\305"
 335      D02DA036 
 335      A0DB3C3B 
 335      EA2A2DF9 
 335      3275458E 
 336 040a 85F1AED4 		.ascii	"\205\361\256\324NQ\331\355\232\014\376\253\223\301w"
 336      4E51D9ED 
 336      9A0CFEAB 
 336      93C177
 337 0419 DE0C9CE9 		.ascii	"\336\014\234\351\335F.X\245#X\255\012n\363\012^\324"
 337      DD462E58 
 337      A52358AD 
 337      0A6EF30A 
 337      5ED4
 338 042b 112CA182 		.ascii	"\021,\241\202\264\251)E\244\371-:\315G]\307s\267\230"
 338      B4A92945 
 338      A4F92D3A 
 338      CD475DC7 
 338      73B798
 339 043e F0355A79 		.ascii	"\3605Zy\261\347Z\343\236`\024\032\251W\033\324\001%"
 339      B1E75AE3 
 339      9E60141A 
 339      A9571BD4 
 339      0125
 340 0450 79DFF250 		.ascii	"y\337\362P\257{,\001\350>(\334S\267R\213\262\225\300"
 340      AF7B2C01 
 340      E83E28DC 
 340      53B7528B 
 340      B295C0
 341 0463 F360F99D 		.ascii	"\363`\371\235\273\206P\356\3129\231+\341\255~\300L\301"
 341      BB8650EE 
 341      CA39992B 
 341      E1AD7EC0 
 341      4CC1
 342 0475 BE27D7CC 		.ascii	"\276'\327\314>\233\254\323g\223\271\274\233\354\315"
 342      3E9BACD3 
 342      6793B9BC 
 342      9BECCD
 343 0484 DE6F6B4D 		.ascii	"\336okM\024\237\341\031\307\347\256\272\254\216@->\223"
 343      149FE119 
 343      C7E7AEBA 
ARM GAS  C:\Users\Bruger\AppData\Local\Temp\cccZxlS9.s 			page 27


 343      AC8E402D 
 343      3E93
 344 0496 6AAACA0F 		.ascii	"j\252\312\017(@w)\000]V\343\310\011\301w\030`\364\336"
 344      28407729 
 344      005D56E3 
 344      C809C177 
 344      1860F4DE 
 345 04aa DB670FA4 		.ascii	"\333g\017\244\020\355N\337t\027\003L\263AA\265\320C"
 345      10ED4EDF 
 345      7417034C 
 345      B34141B5 
 345      D043
 346 04bc 0D4C3F54 		.ascii	"\015L?T`\372\021\205\351\035y\203?\230\361cf\245\276"
 346      60FA1185 
 346      E91D7983 
 346      3F98F163 
 346      66A5BE
 347 04cf E272BB1F 		.ascii	"\342r\273\037\265\342\3528\331\006\333I\256\362x~OG"
 347      B5E2EA38 
 347      D906DB49 
 347      AEF2787E 
 347      4F47
 348 04e1 03EAD6D8 		.ascii	"\003\352\326\330\350Vl<\2466\262+\3678\030\260\311\314"
 348      E8566C3C 
 348      A636B22B 
 348      F73818B0 
 348      C9CC
 349 04f3 CC83E101 		.ascii	"\314\203\341\0013E\257)t\210%\016\214`<\304\\\310\273"
 349      3345AF29 
 349      7488250E 
 349      8C603CC4 
 349      5CC8BB
 350 0506 D20A03B0 		.ascii	"\322\012\003\260\314f\373\351\227\251\347\202\010\256"
 350      CC66FBE9 
 350      97A9E782 
 350      08AE
 351 0514 6D7A8F09 		.ascii	"mz\217\011\015[\342VSj\213\211\315\364\361\032\275\223"
 351      0D5BE256 
 351      536A8B89 
 351      CDF4F11A 
 351      BD93
 352 0526 CEF41D9D 		.ascii	"\316\364\035\235\037\220q\361\034j\371Tm\3763$y\233"
 352      1F9071F1 
 352      1C6AF954 
 352      6DFE3324 
 352      799B
 353 0538 9F515A38 		.ascii	"\237QZ8\020B\343\305\024\355\013\3565\340\311\321\266"
 353      1042E3C5 
 353      14ED0BEE 
 353      35E0C9D1 
 353      B6
 354 0549 4F41DB1F 		.ascii	"OA\333\037\030\332v4\246\244\031\265h\373\334\247kn"
 354      18DA7634 
 354      A6A419B5 
 354      68FBDCA7 
 354      6B6E
 355 055b 8AB67D1C 		.ascii	"\212\266}\034mq\256\335\275\032ED\206:\345\315\211\200"
ARM GAS  C:\Users\Bruger\AppData\Local\Temp\cccZxlS9.s 			page 28


 355      6D71AEDD 
 355      BD1A4544 
 355      863AE5CD 
 355      8980
 356 056d AF9EE50C 		.ascii	"\257\236\345\014_\335\034_\007\364O-\335\302\243\024"
 356      5FDD1C5F 
 356      07F44F2D 
 356      DDC2A314 
 357 057d 3507261C 		.ascii	"5\007&\034\034-\022\252~\007\370\351x\001\205\351\367"
 357      1C2D12AA 
 357      7E07F8E9 
 357      780185E9 
 357      F7
 358 058e EE5031EB 		.ascii	"\356P1\353to\205Y\301\3271\300\327!\220{\242\326e@\017"
 358      746F8559 
 358      C1D731C0 
 358      D721907B 
 358      A2D66540 
 359 05a3 5FBD110D 		.ascii	"_\275\021\015\2021}\303\350\310\255\242\002\003Nf\215"
 359      82317DC3 
 359      E8C8ADA2 
 359      02034E66 
 359      8D
 360 05b4 BDD77FA0 		.ascii	"\275\327\177\240\022\3414\306\264\266\272\313%\234\311"
 360      12E134C6 
 360      B4B6BACB 
 360      259CC9
 361 05c3 988EC30F 		.ascii	"\230\216\303\017\207L\343\253\245\216\214\021\237\331"
 361      874CE3AB 
 361      A58E8C11 
 361      9FD9
 362 05d1 844BCF9E 		.ascii	"\204K\317\236\253\014f\343hs\242\253\257\346O\004\265"
 362      AB0C66E3 
 362      6873A2AB 
 362      AFE64F04 
 362      B5
 363 05e2 4678AD46 		.ascii	"Fx\255F\177\312,\032\345Q\277\201\250_k\201\241\227"
 363      7FCA2C1A 
 363      E551BF81 
 363      A85F6B81 
 363      A197
 364 05f4 5675546F 		.ascii	"VuTo\026U\276\331W))\265\032\206Z\215\201\221a\265V"
 364      1655BED9 
 364      572929B5 
 364      1A865A8D 
 364      819161B5 
 365 0609 A36F9D45 		.ascii	"\243o\235E?\202'=\257P\204\303y\271\036\003\316\247"
 365      3F82273D 
 365      AF5084C3 
 365      79B91E03 
 365      CEA7
 366 061b 15313EBD 		.ascii	"\0251>\275\264y\300\204\310\200\241C\327\325\223\374"
 366      B479C084 
 366      C880A143 
 366      D7D593FC 
 367 062b 179225F1 		.ascii	"\027\222%\361\345\001_\211\242&K\275\221\001>\277\207"
 367      E5015F89 
ARM GAS  C:\Users\Bruger\AppData\Local\Temp\cccZxlS9.s 			page 29


 367      A2264BBD 
 367      91013EBF 
 367      87
 368 063c F51EBA44 		.ascii	"\365\036\272D\244\211\303\315b$J\022#\320& Y\364\216"
 368      A489C3CD 
 368      62244A12 
 368      23D02620 
 368      59F48E
 369 064f 09D9D591 		.ascii	"\011\331\325\221\3741\261N\272\376\222[\327\237\022"
 369      FC31B14E 
 369      BAFE925B 
 369      D79F12
 370 065e B2B3F3D7 		.ascii	"\262\263\363\327\\\360\225\256\240\006\322\357QH\007"
 370      5CF095AE 
 370      A006D2EF 
 370      514807
 371 066d 9189909E 		.ascii	"\221\211\220\236\327_s=\030\037\240\251\212%\351'N\007"
 371      D75F733D 
 371      181FA0A9 
 371      8A25E927 
 371      4E07
 372 067f 68215D13 		.ascii	"h!]\023;\332\012!\277-|\352\351\011\300\370\026\020"
 372      3BDA0A21 
 372      BF2D7CEA 
 372      E909C0F8 
 372      1610
 373 0691 4A16BD5D 		.ascii	"J\026\275] n\025o\351\251\211\316 \002\343\211o3/L\260"
 373      206E156F 
 373      E9A989CE 
 373      2002E389 
 373      6F332F4C 
 374 06a6 4DBE3986 		.ascii	"M\2769\206\3177\373\373@\267]\324Bw\212H\241\233\374"
 374      CF37FBFB 
 374      40B75DD4 
 374      42778A48 
 374      A19BFC
 375 06b9 C3C6AC3E 		.ascii	"\303\306\254>X}GBaRX\016|\226\014\377\012\245\211\222"
 375      587D4742 
 375      6152580E 
 375      7C960CFF 
 375      0AA58992 
 376 06cd 4011C39D 		.ascii	"@\021\303\235$\343\234`\005\226\004\272 \240mb\030J"
 376      24E39C60 
 376      059604BA 
 376      20A06D62 
 376      184A
 377 06df 15C30422 		.ascii	"\025\303\004\"]\325\343\361\374\307\303\256\355\376"
 377      5DD5E3F1 
 377      FCC7C3AE 
 377      EDFE
 378 06ed 5480FC40 		.ascii	"T\200\374@\010G\373\023\355\210G?\371\301\023\274\247"
 378      0847FB13 
 378      ED88473F 
 378      F9C113BC 
 378      A7
 379 06fe 0EA58BA1 		.ascii	"\016\245\213\241\344U\337\221w\301\344\0239\3716P#\317"
 379      E455DF91 
ARM GAS  C:\Users\Bruger\AppData\Local\Temp\cccZxlS9.s 			page 30


 379      77C1E413 
 379      39F93650 
 379      23CF
 380 0710 E0916790 		.ascii	"\340\221g\220\310\321\316\027wK\202|\244\323}\362\334"
 380      C8D1CE17 
 380      774B827C 
 380      A4D37DF2 
 380      DC
 381 0721 CEA5B753 		.ascii	"\316\245\267S\351\246\335\366AI\342\337P\366w 4\312"
 381      E9A6DDF6 
 381      4149E2DF 
 381      50F67720 
 381      34CA
 382 0733 A469ECDC 		.ascii	"\244i\354\334\332\320\352/\361\367p\373\273\337\303"
 382      DAD0EA2F 
 382      F1F770FB 
 382      BBDFC3
 383 0742 511655B3 		.ascii	"Q\026U\263;\316<3\342S\014&nd\367\347\007\260\311\360"
 383      3BCE3C33 
 383      E2530C26 
 383      6E64F7E7 
 383      07B0C9F0 
 384 0756 9EEFF262 		.ascii	"\236\357\362b\332pO\177\2602\034&(e\213\023\225\330"
 384      DA704F7F 
 384      B0321C26 
 384      28658B13 
 384      95D8
 385 0768 7CC861F3 		.ascii	"|\310a\363a\207(!\207\272\253\276\026\325\371p\366\312"
 385      61872821 
 385      87BAABBE 
 385      16D5F970 
 385      F6CA
 386 077a F107A24F 		.ascii	"\361\007\242O\311\210\260Z\262\235\274d;i\311\216\276"
 386      C988B05A 
 386      B29DBC64 
 386      3B69C98E 
 386      BE
 387 078b 1CEBF0B6 		.ascii	"\034\353\360\266\303>\351\213&\332E\245{\372\206\273"
 387      C33EE98B 
 387      26DA45A5 
 387      7BFA86BB 
 388 079b 0D3E3DD7 		.ascii	"\015>=\327\003\020\301\213\036(\207\366\274\242\341"
 388      0310C18B 
 388      1E2887F6 
 388      BCA2E1
 389 07aa D031918D 		.ascii	"\3201\221\215\\Q\320|\223\232\3317i\305\315\2524\021"
 389      5C51D07C 
 389      939AD937 
 389      69C5CDAA 
 389      3411
 390 07bc 97B35ABE 		.ascii	"\227\263Z\276i\271\226\217p\025c\236\244\246]\010\301"
 390      69B9968F 
 390      7015639E 
 390      A4A65D08 
 390      C1
 391 07cd DF31E6   		.ascii	"\3371\346"
 392 07d0 E2378DED 		.ascii	"\3427\215\355~\270\2011Y\245\247\016\372\343\033\214"
ARM GAS  C:\Users\Bruger\AppData\Local\Temp\cccZxlS9.s 			page 31


 392      7EB88131 
 392      59A5A70E 
 392      FAE31B8C 
 393 07e0 A9DE55F4 		.ascii	"\251\336U\3640\004\2671&\367UC-\233\2173\010\353\036"
 393      3004B731 
 393      26F75543 
 393      2D9B8F33 
 393      08EB1E
 394 07f3 1EC81571 		.ascii	"\036\310\025q']3\271\277n\276\002\010M\256\320\210\310"
 394      275D33B9 
 394      BF6EBE02 
 394      084DAED0 
 394      88C8
 395 0805 08F6D9D0 		.ascii	"\010\366\331\320}r\221\203\2165\202\036NRT-z\024\210"
 395      7D729183 
 395      8E35821E 
 395      4E52542D 
 395      7A1488
 396 0818 3E38E36A 		.ascii	">8\343jP\001o/\227\325\003<*\333\246\302\3277\372vK"
 396      50016F2F 
 396      97D5033C 
 396      2ADBA6C2 
 396      D737FA76 
 397 082d 9017C0AE 		.ascii	"\220\027\300\256*\000\2267^t\034\3225*\202\373\306\013"
 397      2A009637 
 397      5E741CD2 
 397      352A82FB 
 397      C60B
 398 083f F6E8036E 		.ascii	"\366\350\003n.\234\347\335\324]1G\254\303\260\277\016"
 398      2E9CE7DD 
 398      D45D3147 
 398      ACC3B0BF 
 398      0E
 399 0850 00A21C01 		.ascii	"\000\242\034\001*\004:\010t\010h?P\221\006\200\235M"
 399      2A043A08 
 399      7408683F 
 399      50910680 
 399      9D4D
 400 0862 8AAF7C7D 		.ascii	"\212\257|}_\032X\255\243\260Z<\001Vi%\352\325J\354\321"
 400      5F1A58AD 
 400      A3B05A3C 
 400      01566925 
 400      EAD54AEC 
 401 0877 4D8F1922 		.ascii	"M\217\031\"\357\266[\206\236\212\3701\203\340\342\266"
 401      EFB65B86 
 401      9E8AF831 
 401      83E0E2B6 
 402 0887 AB43E238 		.ascii	"\253C\3428\010V\262A\245\220\304OI\210F\331\016\220"
 402      0856B241 
 402      A590C44F 
 402      498846D9 
 402      0E90
 403 0899 5C024A47 		.ascii	"\\\002JG\325\303S\254\201dW{\201\323\340\003\311z\356"
 403      D5C353AC 
 403      8164577B 
 403      81D3E003 
 403      C97AEE
ARM GAS  C:\Users\Bruger\AppData\Local\Temp\cccZxlS9.s 			page 32


 404 08ac 8477FA02 		.ascii	"\204w\372\002Si\305\351\225\276\320u\314\007\272\312"
 404      5369C5E9 
 404      95BED075 
 404      CC07BACA 
 405 08bc F83924FF 		.ascii	"\3709$\377\306\365\361\011\266\005~K?\371t\346b!|\251"
 405      C6F5F109 
 405      B6057E4B 
 405      3FF974E6 
 405      62217CA9 
 406 08d0 25C1628D 		.ascii	"%\301b\215\261Y\342\242\243\276Xo\215\265\254^\036\365"
 406      B159E2A2 
 406      A3BE586F 
 406      8DB5AC5E 
 406      1EF5
 407 08e2 C5E2DFAD 		.ascii	"\305\342\337\255\216\335h\333\370\245e\335\234\177\012"
 407      8EDD68DB 
 407      F8A565DD 
 407      9C7F0A
 408 08f1 A18B177D 		.ascii	"\241\213\027}\022\275r\303\342\230\204X\313\347s\276"
 408      12BD72C3 
 408      E2988458 
 408      CBE773BE 
 409 0901 8CB1DAE6 		.ascii	"\214\261\332\346\314\2355\211\026\025]\025\275bU\364"
 409      CC9D3589 
 409      16155D15 
 409      BD6255F4 
 410 0911 3FD627C4 		.ascii	"?\326'\304\316\211\025\314Ze?\342x\376<1>\016[mV\034"
 410      CE8915CC 
 410      5A653FE2 
 410      78FE3C31 
 410      3E0E5B6D 
 411 0927 1F67C171 		.ascii	"\037g\301q\237\307\342x\353WS\211\330\037\027\255\\"
 411      9FC7E278 
 411      EB575389 
 411      D81F17AD 
 411      5C
 412 0938 14FD87BF 		.ascii	"\024\375\207\277\256\\\022\025\275,j\251\341\263\215"
 412      AE5C1215 
 412      BD2C6AA9 
 412      E1B38D
 413 0947 36CB2F27 		.ascii	"6\313/'\367\003\221\341\265\353\326H\334%h\004\222\333"
 413      F70391E1 
 413      B5EBD648 
 413      DC256804 
 413      92DB
 414 0959 284B42DC 		.ascii	"(KB\334\262uk\202\311\375\012K\254%\376_\226e\\j\305"
 414      B2756B82 
 414      C9FD0A4B 
 414      AC25FE5F 
 414      96655C6A 
 415 096e 92A5D1F3 		.ascii	"\222\245\321\363\347\031\254\2265\013\214\266\015\261"
 415      E719AC96 
 415      350B8CB6 
 415      0DB1
 416 097c 6BE30CB6 		.ascii	"k\343\014\266\015\361q\301\276\256\375l\033\342bl1A"
 416      0DF171C1 
 416      BEAEFD6C 
ARM GAS  C:\Users\Bruger\AppData\Local\Temp\cccZxlS9.s 			page 33


 416      1BE2626C 
 416      3141
 417 098e DC6CD4CA 		.ascii	"\334l\324\312\025\237.^i\004\235\371\363\214V\252d\005"
 417      159F2E5E 
 417      69049DF9 
 417      F38C56AA 
 417      6405
 418 09a0 253F2B95 		.ascii	"%?+\225\202'1k\255\3447\326\352G\357\311\0120qT\177"
 418      8227316B 
 418      ADE437D6 
 418      EA47EFC9 
 418      0A307154 
 419 09b5 85A2FF3F 		.ascii	"\205\242\377?\355\376\301\037"
 419      EDFEC11F 
 420              		.text
 421              		.section	.gnu.lto_.symtab.24c0bc4d,"",%progbits
 422 0000 43414E5F 		.ascii	"CAN_TxCancel\000\000\000\000\000\000\000\000\000\000"
 422      54784361 
 422      6E63656C 
 422      00000000 
 422      00000000 
 423 0016 0000B600 		.ascii	"\000\000\266\000\000\000CAN_SendMsg\000\000\000\000"
 423      00004341 
 423      4E5F5365 
 423      6E644D73 
 423      67000000 
 424 002b 00000000 		.ascii	"\000\000\000\000\000\000\000\000\344\000\000\000CAN"
 424      00000000 
 424      E4000000 
 424      43414E
 425 003a 5F526563 		.ascii	"_ReceiveMsg\000\000\000\000\000\000\000\000\000\000"
 425      65697665 
 425      4D736700 
 425      00000000 
 425      00000000 
 426 004f 0000E600 		.ascii	"\000\000\346\000\000\000"
 426      0000
 427              		.text
 428              		.section	.gnu.lto_.opts,"",%progbits
 429 0000 272D666E 		.ascii	"'-fno-trapv' '-mcpu=cortex-m3' '-mthumb' '-g' '-O3'"
 429      6F2D7472 
 429      61707627 
 429      20272D6D 
 429      6370753D 
 430 0033 20272D66 		.ascii	" '-ffunction-sections' '-finline-functions' '-flto'"
 430      66756E63 
 430      74696F6E 
 430      2D736563 
 430      74696F6E 
 431 0066 20272D66 		.ascii	" '-ffat-lto-objects'\000"
 431      6661742D 
 431      6C746F2D 
 431      6F626A65 
 431      63747327 
 432              		.text
 433              		.cfi_sections	.debug_frame
 434              		.section	.text.CAN_SendMsg,"ax",%progbits
ARM GAS  C:\Users\Bruger\AppData\Local\Temp\cccZxlS9.s 			page 34


 435              		.align	2
 436              		.global	CAN_SendMsg
 437              		.thumb
 438              		.thumb_func
 439              		.type	CAN_SendMsg, %function
 440              	CAN_SendMsg:
 441              	.LFB0:
 442              		.file 1 "Generated_Source\\PSoC5\\CAN_TX_RX_func.c"
   1:Generated_Source\PSoC5/CAN_TX_RX_func.c **** /*******************************************************************************
   2:Generated_Source\PSoC5/CAN_TX_RX_func.c **** * File Name: CAN_TX_RX_func.c
   3:Generated_Source\PSoC5/CAN_TX_RX_func.c **** * Version 3.0
   4:Generated_Source\PSoC5/CAN_TX_RX_func.c **** *
   5:Generated_Source\PSoC5/CAN_TX_RX_func.c **** * Description:
   6:Generated_Source\PSoC5/CAN_TX_RX_func.c **** *  There are functions process "Full" Receive and Transmit mailboxes:
   7:Generated_Source\PSoC5/CAN_TX_RX_func.c **** *     - CAN_SendMsg0-7();
   8:Generated_Source\PSoC5/CAN_TX_RX_func.c **** *     - CAN_ReceiveMsg0-15();
   9:Generated_Source\PSoC5/CAN_TX_RX_func.c **** *  Transmission of message, and receive routine for "Basic" mailboxes:
  10:Generated_Source\PSoC5/CAN_TX_RX_func.c **** *     - CAN_SendMsg();
  11:Generated_Source\PSoC5/CAN_TX_RX_func.c **** *     - CAN_TxCancel();
  12:Generated_Source\PSoC5/CAN_TX_RX_func.c **** *     - CAN_ReceiveMsg();
  13:Generated_Source\PSoC5/CAN_TX_RX_func.c **** *
  14:Generated_Source\PSoC5/CAN_TX_RX_func.c **** *  Note:
  15:Generated_Source\PSoC5/CAN_TX_RX_func.c **** *   None
  16:Generated_Source\PSoC5/CAN_TX_RX_func.c **** *
  17:Generated_Source\PSoC5/CAN_TX_RX_func.c **** ********************************************************************************
  18:Generated_Source\PSoC5/CAN_TX_RX_func.c **** * Copyright 2008-2015, Cypress Semiconductor Corporation.  All rights reserved.
  19:Generated_Source\PSoC5/CAN_TX_RX_func.c **** * You may use this file only in accordance with the license, terms, conditions,
  20:Generated_Source\PSoC5/CAN_TX_RX_func.c **** * disclaimers, and limitations in the end user license agreement accompanying
  21:Generated_Source\PSoC5/CAN_TX_RX_func.c **** * the software package with which this file was provided.
  22:Generated_Source\PSoC5/CAN_TX_RX_func.c **** *******************************************************************************/
  23:Generated_Source\PSoC5/CAN_TX_RX_func.c **** 
  24:Generated_Source\PSoC5/CAN_TX_RX_func.c **** #include "CAN.h"
  25:Generated_Source\PSoC5/CAN_TX_RX_func.c **** 
  26:Generated_Source\PSoC5/CAN_TX_RX_func.c **** 
  27:Generated_Source\PSoC5/CAN_TX_RX_func.c **** /* `#START TX_RX_FUNCTION` */
  28:Generated_Source\PSoC5/CAN_TX_RX_func.c **** 
  29:Generated_Source\PSoC5/CAN_TX_RX_func.c **** /* `#END` */
  30:Generated_Source\PSoC5/CAN_TX_RX_func.c **** 
  31:Generated_Source\PSoC5/CAN_TX_RX_func.c **** 
  32:Generated_Source\PSoC5/CAN_TX_RX_func.c **** /*******************************************************************************
  33:Generated_Source\PSoC5/CAN_TX_RX_func.c **** * FUNCTION NAME:   CAN_SendMsg
  34:Generated_Source\PSoC5/CAN_TX_RX_func.c **** ********************************************************************************
  35:Generated_Source\PSoC5/CAN_TX_RX_func.c **** *
  36:Generated_Source\PSoC5/CAN_TX_RX_func.c **** * Summary:
  37:Generated_Source\PSoC5/CAN_TX_RX_func.c **** *  This function is Send Message from one of Basic mailboxes. The function loops
  38:Generated_Source\PSoC5/CAN_TX_RX_func.c **** *  through the transmit message buffer designed as Basic CAN mailboxes for the
  39:Generated_Source\PSoC5/CAN_TX_RX_func.c **** *  first free available and sends from it. The number of retries is limited.
  40:Generated_Source\PSoC5/CAN_TX_RX_func.c **** *
  41:Generated_Source\PSoC5/CAN_TX_RX_func.c **** * Parameters:
  42:Generated_Source\PSoC5/CAN_TX_RX_func.c **** *  message: The pointer to a structure that contains all required data to send
  43:Generated_Source\PSoC5/CAN_TX_RX_func.c **** *           messages.
  44:Generated_Source\PSoC5/CAN_TX_RX_func.c **** *
  45:Generated_Source\PSoC5/CAN_TX_RX_func.c **** * Return:
  46:Generated_Source\PSoC5/CAN_TX_RX_func.c **** *  Indication if message has been sent.
  47:Generated_Source\PSoC5/CAN_TX_RX_func.c **** *   Define                             Description
  48:Generated_Source\PSoC5/CAN_TX_RX_func.c **** *    CYRET_SUCCESS                      The function passed successfully
  49:Generated_Source\PSoC5/CAN_TX_RX_func.c **** *    CAN_FAIL              The function failed
ARM GAS  C:\Users\Bruger\AppData\Local\Temp\cccZxlS9.s 			page 35


  50:Generated_Source\PSoC5/CAN_TX_RX_func.c **** *
  51:Generated_Source\PSoC5/CAN_TX_RX_func.c **** *******************************************************************************/
  52:Generated_Source\PSoC5/CAN_TX_RX_func.c **** uint8 CAN_SendMsg(const CAN_TX_MSG *message) 
  53:Generated_Source\PSoC5/CAN_TX_RX_func.c **** {
 443              		.loc 1 53 0
 444              		.cfi_startproc
 445              		@ args = 0, pretend = 0, frame = 0
 446              		@ frame_needed = 0, uses_anonymous_args = 0
 447              		@ link register save eliminated.
 448              	.LVL0:
 449 0000 30B4     		push	{r4, r5}
 450              		.cfi_def_cfa_offset 8
 451              		.cfi_offset 4, -8
 452              		.cfi_offset 5, -4
  54:Generated_Source\PSoC5/CAN_TX_RX_func.c ****     uint8 i, j, shift;
  55:Generated_Source\PSoC5/CAN_TX_RX_func.c ****     uint8 retry = 0u;
  56:Generated_Source\PSoC5/CAN_TX_RX_func.c ****     uint8 result = CAN_FAIL;
  57:Generated_Source\PSoC5/CAN_TX_RX_func.c ****     uint32 regTemp;
  58:Generated_Source\PSoC5/CAN_TX_RX_func.c **** 
  59:Generated_Source\PSoC5/CAN_TX_RX_func.c ****     while (retry < CAN_RETRY_NUMBER)
  60:Generated_Source\PSoC5/CAN_TX_RX_func.c ****     {
  61:Generated_Source\PSoC5/CAN_TX_RX_func.c ****         shift = 1u;    /* Start from first mailbox */
  62:Generated_Source\PSoC5/CAN_TX_RX_func.c ****         for (i = 0u; i < CAN_NUMBER_OF_TX_MAILBOXES; i++)
  63:Generated_Source\PSoC5/CAN_TX_RX_func.c ****         {
  64:Generated_Source\PSoC5/CAN_TX_RX_func.c ****             /* Find Basic TX mailboxes */
  65:Generated_Source\PSoC5/CAN_TX_RX_func.c ****             if ((CAN_TX_MAILBOX_TYPE & shift) == 0u)
  66:Generated_Source\PSoC5/CAN_TX_RX_func.c ****             {
  67:Generated_Source\PSoC5/CAN_TX_RX_func.c ****                 /* Find free mailbox */
  68:Generated_Source\PSoC5/CAN_TX_RX_func.c ****                 #if (CY_PSOC3 || CY_PSOC5)
  69:Generated_Source\PSoC5/CAN_TX_RX_func.c ****                     if ((CAN_BUF_SR_REG.byte[2] & shift) == 0u)
 453              		.loc 1 69 0
 454 0002 604B     		ldr	r3, .L46
 455 0004 9A78     		ldrb	r2, [r3, #2]	@ zero_extendqisi2
 456 0006 D507     		lsls	r5, r2, #31
 457 0008 65D5     		bpl	.L30
 458              	.LVL1:
 459 000a 9A78     		ldrb	r2, [r3, #2]	@ zero_extendqisi2
 460 000c 9107     		lsls	r1, r2, #30
 461 000e 64D4     		bmi	.L44
 462              	.L31:
  62:Generated_Source\PSoC5/CAN_TX_RX_func.c ****         {
 463              		.loc 1 62 0
 464 0010 0122     		movs	r2, #1
 465              	.LVL2:
 466              	.L3:
 467 0012 5D4B     		ldr	r3, .L46+4
 468 0014 1201     		lsls	r2, r2, #4
 469 0016 1344     		add	r3, r3, r2
 470              	.L2:
 471              	.LVL3:
  70:Generated_Source\PSoC5/CAN_TX_RX_func.c ****                 #else  /* CY_PSOC4 */
  71:Generated_Source\PSoC5/CAN_TX_RX_func.c ****                     if ((CAN_BUF_SR_REG &
  72:Generated_Source\PSoC5/CAN_TX_RX_func.c ****                         (uint32) ((uint32) shift << CAN_TWO_BYTE_OFFSET)) == 0u)
  73:Generated_Source\PSoC5/CAN_TX_RX_func.c ****                 #endif /* CY_PSOC3 || CY_PSOC5 */
  74:Generated_Source\PSoC5/CAN_TX_RX_func.c ****                     {
  75:Generated_Source\PSoC5/CAN_TX_RX_func.c ****                         regTemp = 0u;
  76:Generated_Source\PSoC5/CAN_TX_RX_func.c **** 
ARM GAS  C:\Users\Bruger\AppData\Local\Temp\cccZxlS9.s 			page 36


  77:Generated_Source\PSoC5/CAN_TX_RX_func.c ****                         /* Set message parameters */
  78:Generated_Source\PSoC5/CAN_TX_RX_func.c ****                         if (message->rtr != CAN_STANDARD_MESSAGE)
 472              		.loc 1 78 0
 473 0018 0279     		ldrb	r2, [r0, #4]	@ zero_extendqisi2
  79:Generated_Source\PSoC5/CAN_TX_RX_func.c ****                         {
  80:Generated_Source\PSoC5/CAN_TX_RX_func.c ****                             regTemp = CAN_TX_RTR_MASK;    /* RTR message Enable */
  81:Generated_Source\PSoC5/CAN_TX_RX_func.c ****                         }
  82:Generated_Source\PSoC5/CAN_TX_RX_func.c **** 
  83:Generated_Source\PSoC5/CAN_TX_RX_func.c ****                         if (message->ide == CAN_STANDARD_MESSAGE)
 474              		.loc 1 83 0
 475 001a 4179     		ldrb	r1, [r0, #5]	@ zero_extendqisi2
  78:Generated_Source\PSoC5/CAN_TX_RX_func.c ****                         {
 476              		.loc 1 78 0
 477 001c 002A     		cmp	r2, #0
 478 001e 0BBF     		itete	eq
 479 0020 4FF48012 		moveq	r2, #1048576
 480 0024 4FF44012 		movne	r2, #3145728
 481 0028 0024     		moveq	r4, #0
 482 002a 4FF40014 		movne	r4, #2097152
 483              	.LVL4:
 484              		.loc 1 83 0
 485 002e 0029     		cmp	r1, #0
 486 0030 4DD1     		bne	.L6
 487 0032 2246     		mov	r2, r4
  84:Generated_Source\PSoC5/CAN_TX_RX_func.c ****                         {
  85:Generated_Source\PSoC5/CAN_TX_RX_func.c ****                             CAN_SET_TX_ID_STANDARD_MSG(i, message->id);
 488              		.loc 1 85 0
 489 0034 0168     		ldr	r1, [r0]
 490 0036 4905     		lsls	r1, r1, #21
 491 0038 5960     		str	r1, [r3, #4]
 492              	.LVL5:
 493              	.L7:
  86:Generated_Source\PSoC5/CAN_TX_RX_func.c ****                         }
  87:Generated_Source\PSoC5/CAN_TX_RX_func.c ****                         else
  88:Generated_Source\PSoC5/CAN_TX_RX_func.c ****                         {
  89:Generated_Source\PSoC5/CAN_TX_RX_func.c ****                             regTemp |= CAN_TX_IDE_MASK;
  90:Generated_Source\PSoC5/CAN_TX_RX_func.c ****                             CAN_SET_TX_ID_EXTENDED_MSG(i, message->id);
  91:Generated_Source\PSoC5/CAN_TX_RX_func.c ****                         }
  92:Generated_Source\PSoC5/CAN_TX_RX_func.c **** 
  93:Generated_Source\PSoC5/CAN_TX_RX_func.c ****                         if (message->dlc < CAN_TX_DLC_MAX_VALUE)
 494              		.loc 1 93 0
 495 003a 8179     		ldrb	r1, [r0, #6]	@ zero_extendqisi2
  94:Generated_Source\PSoC5/CAN_TX_RX_func.c ****                         {
  95:Generated_Source\PSoC5/CAN_TX_RX_func.c ****                             regTemp |= ((uint32) message->dlc) << CAN_TWO_BYTE_OFFSET;
  96:Generated_Source\PSoC5/CAN_TX_RX_func.c ****                         }
  97:Generated_Source\PSoC5/CAN_TX_RX_func.c ****                         else
  98:Generated_Source\PSoC5/CAN_TX_RX_func.c ****                         {
  99:Generated_Source\PSoC5/CAN_TX_RX_func.c ****                             regTemp |= CAN_TX_DLC_UPPER_VALUE;
 100:Generated_Source\PSoC5/CAN_TX_RX_func.c ****                         }
 101:Generated_Source\PSoC5/CAN_TX_RX_func.c **** 
 102:Generated_Source\PSoC5/CAN_TX_RX_func.c ****                         if (message->irq != CAN_TRANSMIT_INT_DISABLE)
 496              		.loc 1 102 0
 497 003c C479     		ldrb	r4, [r0, #7]	@ zero_extendqisi2
  93:Generated_Source\PSoC5/CAN_TX_RX_func.c ****                         {
 498              		.loc 1 93 0
 499 003e 0729     		cmp	r1, #7
  95:Generated_Source\PSoC5/CAN_TX_RX_func.c ****                         }
ARM GAS  C:\Users\Bruger\AppData\Local\Temp\cccZxlS9.s 			page 37


 500              		.loc 1 95 0
 501 0040 94BF     		ite	ls
 502 0042 42EA0142 		orrls	r2, r2, r1, lsl #16
 503              	.LVL6:
  99:Generated_Source\PSoC5/CAN_TX_RX_func.c ****                         }
 504              		.loc 1 99 0
 505 0046 42F40022 		orrhi	r2, r2, #524288
 506              	.LVL7:
 507              		.loc 1 102 0
 508 004a 0CB1     		cbz	r4, .L10
 103:Generated_Source\PSoC5/CAN_TX_RX_func.c ****                         {
 104:Generated_Source\PSoC5/CAN_TX_RX_func.c ****                             regTemp |= CAN_TX_INT_ENABLE_MASK;    /* Transmit Interrupt Enable */
 509              		.loc 1 104 0
 510 004c 42F00402 		orr	r2, r2, #4
 511              	.LVL8:
 512              	.L10:
 105:Generated_Source\PSoC5/CAN_TX_RX_func.c ****                         }
 106:Generated_Source\PSoC5/CAN_TX_RX_func.c **** 
 107:Generated_Source\PSoC5/CAN_TX_RX_func.c ****                         for (j = 0u; (j < message->dlc) && (j < CAN_TX_DLC_MAX_VALUE); j++)
 513              		.loc 1 107 0
 514 0050 0029     		cmp	r1, #0
 515 0052 2CD0     		beq	.L12
 108:Generated_Source\PSoC5/CAN_TX_RX_func.c ****                         {
 109:Generated_Source\PSoC5/CAN_TX_RX_func.c ****                             #if (CY_PSOC3 || CY_PSOC5)
 110:Generated_Source\PSoC5/CAN_TX_RX_func.c ****                                 CAN_TX_DATA_BYTE(i, j) = message->msg->byte[j];
 516              		.loc 1 110 0
 517 0054 8168     		ldr	r1, [r0, #8]
 518 0056 0978     		ldrb	r1, [r1]	@ zero_extendqisi2
 519 0058 D972     		strb	r1, [r3, #11]
 520              	.LVL9:
 107:Generated_Source\PSoC5/CAN_TX_RX_func.c ****                         {
 521              		.loc 1 107 0
 522 005a 8179     		ldrb	r1, [r0, #6]	@ zero_extendqisi2
 523 005c 0129     		cmp	r1, #1
 524 005e 26D9     		bls	.L12
 525              		.loc 1 110 0
 526 0060 8168     		ldr	r1, [r0, #8]
 527 0062 4978     		ldrb	r1, [r1, #1]	@ zero_extendqisi2
 528 0064 9972     		strb	r1, [r3, #10]
 529              	.LVL10:
 107:Generated_Source\PSoC5/CAN_TX_RX_func.c ****                         {
 530              		.loc 1 107 0
 531 0066 8179     		ldrb	r1, [r0, #6]	@ zero_extendqisi2
 532 0068 0229     		cmp	r1, #2
 533 006a 20D9     		bls	.L12
 534              		.loc 1 110 0
 535 006c 8168     		ldr	r1, [r0, #8]
 536 006e 8978     		ldrb	r1, [r1, #2]	@ zero_extendqisi2
 537 0070 5972     		strb	r1, [r3, #9]
 538              	.LVL11:
 107:Generated_Source\PSoC5/CAN_TX_RX_func.c ****                         {
 539              		.loc 1 107 0
 540 0072 8179     		ldrb	r1, [r0, #6]	@ zero_extendqisi2
 541 0074 0329     		cmp	r1, #3
 542 0076 1AD9     		bls	.L12
 543              		.loc 1 110 0
 544 0078 8168     		ldr	r1, [r0, #8]
ARM GAS  C:\Users\Bruger\AppData\Local\Temp\cccZxlS9.s 			page 38


 545 007a C978     		ldrb	r1, [r1, #3]	@ zero_extendqisi2
 546 007c 1972     		strb	r1, [r3, #8]
 547              	.LVL12:
 107:Generated_Source\PSoC5/CAN_TX_RX_func.c ****                         {
 548              		.loc 1 107 0
 549 007e 8179     		ldrb	r1, [r0, #6]	@ zero_extendqisi2
 550 0080 0429     		cmp	r1, #4
 551 0082 14D9     		bls	.L12
 552              		.loc 1 110 0
 553 0084 8168     		ldr	r1, [r0, #8]
 554 0086 0979     		ldrb	r1, [r1, #4]	@ zero_extendqisi2
 555 0088 D973     		strb	r1, [r3, #15]
 556              	.LVL13:
 107:Generated_Source\PSoC5/CAN_TX_RX_func.c ****                         {
 557              		.loc 1 107 0
 558 008a 8179     		ldrb	r1, [r0, #6]	@ zero_extendqisi2
 559 008c 0529     		cmp	r1, #5
 560 008e 0ED9     		bls	.L12
 561              		.loc 1 110 0
 562 0090 8168     		ldr	r1, [r0, #8]
 563 0092 4979     		ldrb	r1, [r1, #5]	@ zero_extendqisi2
 564 0094 9973     		strb	r1, [r3, #14]
 565              	.LVL14:
 107:Generated_Source\PSoC5/CAN_TX_RX_func.c ****                         {
 566              		.loc 1 107 0
 567 0096 8179     		ldrb	r1, [r0, #6]	@ zero_extendqisi2
 568 0098 0629     		cmp	r1, #6
 569 009a 08D9     		bls	.L12
 570              		.loc 1 110 0
 571 009c 8168     		ldr	r1, [r0, #8]
 572 009e 8979     		ldrb	r1, [r1, #6]	@ zero_extendqisi2
 573 00a0 5973     		strb	r1, [r3, #13]
 574              	.LVL15:
 107:Generated_Source\PSoC5/CAN_TX_RX_func.c ****                         {
 575              		.loc 1 107 0
 576 00a2 8179     		ldrb	r1, [r0, #6]	@ zero_extendqisi2
 577 00a4 0729     		cmp	r1, #7
 578 00a6 02D9     		bls	.L12
 579              		.loc 1 110 0
 580 00a8 8168     		ldr	r1, [r0, #8]
 581 00aa C979     		ldrb	r1, [r1, #7]	@ zero_extendqisi2
 582 00ac 1973     		strb	r1, [r3, #12]
 583              	.LVL16:
 584              	.L12:
 111:Generated_Source\PSoC5/CAN_TX_RX_func.c ****                             #else /* CY_PSOC4 */
 112:Generated_Source\PSoC5/CAN_TX_RX_func.c ****                                 CAN_TX_DATA_BYTE(i, j, message->msg->byte[j]);
 113:Generated_Source\PSoC5/CAN_TX_RX_func.c ****                             #endif /* CY_PSOC3 || CY_PSOC5 */
 114:Generated_Source\PSoC5/CAN_TX_RX_func.c ****                         }
 115:Generated_Source\PSoC5/CAN_TX_RX_func.c **** 
 116:Generated_Source\PSoC5/CAN_TX_RX_func.c ****                         /* Disable isr */
 117:Generated_Source\PSoC5/CAN_TX_RX_func.c ****     CyIntDisable(CAN_ISR_NUMBER);
 585              		.loc 1 117 0
 586 00ae 3748     		ldr	r0, .L46+8
 587              	.LVL17:
 118:Generated_Source\PSoC5/CAN_TX_RX_func.c **** 
 119:Generated_Source\PSoC5/CAN_TX_RX_func.c ****                         /* WPN[23] and WPN[3] set to 1 for write to CAN Control reg */
 120:Generated_Source\PSoC5/CAN_TX_RX_func.c ****                         CY_SET_REG32(CAN_TX_CMD_PTR(i), (regTemp | CAN_TX_WPN_SET));
ARM GAS  C:\Users\Bruger\AppData\Local\Temp\cccZxlS9.s 			page 39


 588              		.loc 1 120 0
 589 00b0 42F40002 		orr	r2, r2, #8388608
 590              	.LVL18:
 121:Generated_Source\PSoC5/CAN_TX_RX_func.c **** 
 122:Generated_Source\PSoC5/CAN_TX_RX_func.c ****                         #if (CY_PSOC3 || CY_PSOC5)
 123:Generated_Source\PSoC5/CAN_TX_RX_func.c ****                             CY_SET_REG32(CAN_TX_CMD_PTR(i), CAN_SEND_MESSAGE);
 124:Generated_Source\PSoC5/CAN_TX_RX_func.c ****                         #else /* CY_PSOC4 */
 125:Generated_Source\PSoC5/CAN_TX_RX_func.c ****                             if (message->sst != CAN_STANDARD_MESSAGE)
 126:Generated_Source\PSoC5/CAN_TX_RX_func.c ****                             {
 127:Generated_Source\PSoC5/CAN_TX_RX_func.c ****                                 /* Single Shot Transmission */
 128:Generated_Source\PSoC5/CAN_TX_RX_func.c ****                                 CAN_TX_CMD_REG(i) |= CAN_SEND_MESSAGE |
 129:Generated_Source\PSoC5/CAN_TX_RX_func.c ****                                 CAN_TX_ABORT_MASK;
 130:Generated_Source\PSoC5/CAN_TX_RX_func.c ****                             }
 131:Generated_Source\PSoC5/CAN_TX_RX_func.c ****                             else
 132:Generated_Source\PSoC5/CAN_TX_RX_func.c ****                             {
 133:Generated_Source\PSoC5/CAN_TX_RX_func.c ****                                 CAN_TX_CMD_REG(i) |= CAN_SEND_MESSAGE;
 134:Generated_Source\PSoC5/CAN_TX_RX_func.c ****                             }
 135:Generated_Source\PSoC5/CAN_TX_RX_func.c ****                         #endif /* CY_PSOC3 || CY_PSOC5 */
 136:Generated_Source\PSoC5/CAN_TX_RX_func.c **** 
 137:Generated_Source\PSoC5/CAN_TX_RX_func.c ****                         /* Enable isr */
 138:Generated_Source\PSoC5/CAN_TX_RX_func.c ****     CyIntEnable(CAN_ISR_NUMBER);
 591              		.loc 1 138 0
 592 00b4 364C     		ldr	r4, .L46+12
 117:Generated_Source\PSoC5/CAN_TX_RX_func.c **** 
 593              		.loc 1 117 0
 594 00b6 4FF48031 		mov	r1, #65536
 120:Generated_Source\PSoC5/CAN_TX_RX_func.c **** 
 595              		.loc 1 120 0
 596 00ba 42F00802 		orr	r2, r2, #8
 123:Generated_Source\PSoC5/CAN_TX_RX_func.c ****                         #else /* CY_PSOC4 */
 597              		.loc 1 123 0
 598 00be 0125     		movs	r5, #1
 117:Generated_Source\PSoC5/CAN_TX_RX_func.c **** 
 599              		.loc 1 117 0
 600 00c0 0160     		str	r1, [r0]
 120:Generated_Source\PSoC5/CAN_TX_RX_func.c **** 
 601              		.loc 1 120 0
 602 00c2 1A60     		str	r2, [r3]
 603              		.loc 1 138 0
 604 00c4 0020     		movs	r0, #0
 123:Generated_Source\PSoC5/CAN_TX_RX_func.c ****                         #else /* CY_PSOC4 */
 605              		.loc 1 123 0
 606 00c6 1D60     		str	r5, [r3]
 607              		.loc 1 138 0
 608 00c8 2160     		str	r1, [r4]
 609              	.LVL19:
 610              	.L4:
 139:Generated_Source\PSoC5/CAN_TX_RX_func.c **** 
 140:Generated_Source\PSoC5/CAN_TX_RX_func.c ****                         result = CYRET_SUCCESS;
 141:Generated_Source\PSoC5/CAN_TX_RX_func.c ****                     }
 142:Generated_Source\PSoC5/CAN_TX_RX_func.c ****             }
 143:Generated_Source\PSoC5/CAN_TX_RX_func.c ****             shift <<= 1u;
 144:Generated_Source\PSoC5/CAN_TX_RX_func.c ****             if (result == CYRET_SUCCESS)
 145:Generated_Source\PSoC5/CAN_TX_RX_func.c ****             {
 146:Generated_Source\PSoC5/CAN_TX_RX_func.c ****                 break;
 147:Generated_Source\PSoC5/CAN_TX_RX_func.c ****             }
 148:Generated_Source\PSoC5/CAN_TX_RX_func.c ****         }
ARM GAS  C:\Users\Bruger\AppData\Local\Temp\cccZxlS9.s 			page 40


 149:Generated_Source\PSoC5/CAN_TX_RX_func.c ****         if (result == CYRET_SUCCESS)
 150:Generated_Source\PSoC5/CAN_TX_RX_func.c ****         {
 151:Generated_Source\PSoC5/CAN_TX_RX_func.c ****             break;
 152:Generated_Source\PSoC5/CAN_TX_RX_func.c ****         }
 153:Generated_Source\PSoC5/CAN_TX_RX_func.c ****         else
 154:Generated_Source\PSoC5/CAN_TX_RX_func.c ****         {
 155:Generated_Source\PSoC5/CAN_TX_RX_func.c ****             retry++;
 156:Generated_Source\PSoC5/CAN_TX_RX_func.c ****         }
 157:Generated_Source\PSoC5/CAN_TX_RX_func.c ****     }
 158:Generated_Source\PSoC5/CAN_TX_RX_func.c **** 
 159:Generated_Source\PSoC5/CAN_TX_RX_func.c ****     return (result);
 160:Generated_Source\PSoC5/CAN_TX_RX_func.c **** }
 611              		.loc 1 160 0
 612 00ca 30BC     		pop	{r4, r5}
 613              		.cfi_remember_state
 614              		.cfi_restore 5
 615              		.cfi_restore 4
 616              		.cfi_def_cfa_offset 0
 617 00cc 7047     		bx	lr
 618              	.LVL20:
 619              	.L6:
 620              		.cfi_restore_state
  90:Generated_Source\PSoC5/CAN_TX_RX_func.c ****                         }
 621              		.loc 1 90 0
 622 00ce 0168     		ldr	r1, [r0]
 623 00d0 C900     		lsls	r1, r1, #3
 624 00d2 5960     		str	r1, [r3, #4]
 625 00d4 B1E7     		b	.L7
 626              	.LVL21:
 627              	.L30:
  69:Generated_Source\PSoC5/CAN_TX_RX_func.c ****                 #else  /* CY_PSOC4 */
 628              		.loc 1 69 0
 629 00d6 2C4B     		ldr	r3, .L46+4
 630 00d8 9EE7     		b	.L2
 631              	.LVL22:
 632              	.L44:
 633 00da 9A78     		ldrb	r2, [r3, #2]	@ zero_extendqisi2
 634 00dc 5207     		lsls	r2, r2, #29
 635 00de 10D5     		bpl	.L32
 636              	.LVL23:
 637 00e0 9A78     		ldrb	r2, [r3, #2]	@ zero_extendqisi2
 638 00e2 1507     		lsls	r5, r2, #28
 639 00e4 11D5     		bpl	.L33
 640              	.LVL24:
 641 00e6 9A78     		ldrb	r2, [r3, #2]	@ zero_extendqisi2
 642 00e8 D106     		lsls	r1, r2, #27
 643 00ea 0CD5     		bpl	.L34
 644              	.LVL25:
 645 00ec 9A78     		ldrb	r2, [r3, #2]	@ zero_extendqisi2
 646 00ee 9206     		lsls	r2, r2, #26
 647 00f0 43D5     		bpl	.L35
 648              	.LVL26:
 649 00f2 9A78     		ldrb	r2, [r3, #2]	@ zero_extendqisi2
 650 00f4 5506     		lsls	r5, r2, #25
 651 00f6 42D5     		bpl	.L36
 652              	.LVL27:
 653 00f8 9A78     		ldrb	r2, [r3, #2]	@ zero_extendqisi2
ARM GAS  C:\Users\Bruger\AppData\Local\Temp\cccZxlS9.s 			page 41


 654 00fa 1106     		lsls	r1, r2, #24
 655 00fc 07D4     		bmi	.L45
 656              	.L29:
  62:Generated_Source\PSoC5/CAN_TX_RX_func.c ****         {
 657              		.loc 1 62 0
 658 00fe 0722     		movs	r2, #7
 659 0100 87E7     		b	.L3
 660              	.LVL28:
 661              	.L32:
 662 0102 0222     		movs	r2, #2
 663 0104 85E7     		b	.L3
 664              	.LVL29:
 665              	.L34:
 666 0106 0422     		movs	r2, #4
 667 0108 83E7     		b	.L3
 668              	.LVL30:
 669              	.L33:
 670 010a 0322     		movs	r2, #3
 671 010c 81E7     		b	.L3
 672              	.LVL31:
 673              	.L45:
  69:Generated_Source\PSoC5/CAN_TX_RX_func.c ****                 #else  /* CY_PSOC4 */
 674              		.loc 1 69 0
 675 010e 9A78     		ldrb	r2, [r3, #2]	@ zero_extendqisi2
 676 0110 D207     		lsls	r2, r2, #31
 677 0112 E0D5     		bpl	.L30
 678              	.LVL32:
 679 0114 9B78     		ldrb	r3, [r3, #2]	@ zero_extendqisi2
 680 0116 9B07     		lsls	r3, r3, #30
 681 0118 7FF57AAF 		bpl	.L31
 682              	.LVL33:
 683 011c 194B     		ldr	r3, .L46
 684 011e 9A78     		ldrb	r2, [r3, #2]	@ zero_extendqisi2
 685 0120 5507     		lsls	r5, r2, #29
 686 0122 EED5     		bpl	.L32
 687              	.LVL34:
 688 0124 9A78     		ldrb	r2, [r3, #2]	@ zero_extendqisi2
 689 0126 1107     		lsls	r1, r2, #28
 690 0128 EFD5     		bpl	.L33
 691              	.LVL35:
 692 012a 9A78     		ldrb	r2, [r3, #2]	@ zero_extendqisi2
 693 012c D206     		lsls	r2, r2, #27
 694 012e EAD5     		bpl	.L34
 695              	.LVL36:
 696 0130 9A78     		ldrb	r2, [r3, #2]	@ zero_extendqisi2
 697 0132 9506     		lsls	r5, r2, #26
 698 0134 21D5     		bpl	.L35
 699              	.LVL37:
 700 0136 9A78     		ldrb	r2, [r3, #2]	@ zero_extendqisi2
 701 0138 5106     		lsls	r1, r2, #25
 702 013a 20D5     		bpl	.L36
 703              	.LVL38:
 704 013c 9A78     		ldrb	r2, [r3, #2]	@ zero_extendqisi2
 705 013e 1206     		lsls	r2, r2, #24
 706 0140 DDD5     		bpl	.L29
 707              	.LVL39:
 708 0142 9A78     		ldrb	r2, [r3, #2]	@ zero_extendqisi2
ARM GAS  C:\Users\Bruger\AppData\Local\Temp\cccZxlS9.s 			page 42


 709 0144 D507     		lsls	r5, r2, #31
 710 0146 C6D5     		bpl	.L30
 711              	.LVL40:
 712 0148 9A78     		ldrb	r2, [r3, #2]	@ zero_extendqisi2
 713 014a 9107     		lsls	r1, r2, #30
 714 014c 7FF560AF 		bpl	.L31
 715              	.LVL41:
 716 0150 9A78     		ldrb	r2, [r3, #2]	@ zero_extendqisi2
 717 0152 5207     		lsls	r2, r2, #29
 718 0154 D5D5     		bpl	.L32
 719              	.LVL42:
 720 0156 9B78     		ldrb	r3, [r3, #2]	@ zero_extendqisi2
 721 0158 1B07     		lsls	r3, r3, #28
 722 015a D6D5     		bpl	.L33
 723              	.LVL43:
 724 015c 094B     		ldr	r3, .L46
 725 015e 9A78     		ldrb	r2, [r3, #2]	@ zero_extendqisi2
 726 0160 D506     		lsls	r5, r2, #27
 727 0162 D0D5     		bpl	.L34
 728              	.LVL44:
 729 0164 9A78     		ldrb	r2, [r3, #2]	@ zero_extendqisi2
 730 0166 9106     		lsls	r1, r2, #26
 731 0168 07D5     		bpl	.L35
 732              	.LVL45:
 733 016a 9A78     		ldrb	r2, [r3, #2]	@ zero_extendqisi2
 734 016c 5206     		lsls	r2, r2, #25
 735 016e 06D5     		bpl	.L36
 736              	.LVL46:
 737 0170 9B78     		ldrb	r3, [r3, #2]	@ zero_extendqisi2
 738 0172 1B06     		lsls	r3, r3, #24
 739 0174 C3D5     		bpl	.L29
 740 0176 0120     		movs	r0, #1
 741              	.LVL47:
 742 0178 A7E7     		b	.L4
 743              	.LVL48:
 744              	.L35:
  62:Generated_Source\PSoC5/CAN_TX_RX_func.c ****         {
 745              		.loc 1 62 0
 746 017a 0522     		movs	r2, #5
 747 017c 49E7     		b	.L3
 748              	.LVL49:
 749              	.L36:
 750 017e 0622     		movs	r2, #6
 751 0180 47E7     		b	.L3
 752              	.L47:
 753 0182 00BF     		.align	2
 754              	.L46:
 755 0184 08A00040 		.word	1073782792
 756 0188 20A00040 		.word	1073782816
 757 018c 80E100E0 		.word	-536813184
 758 0190 00E100E0 		.word	-536813312
 759              		.cfi_endproc
 760              	.LFE0:
 761              		.size	CAN_SendMsg, .-CAN_SendMsg
 762              		.section	.text.CAN_TxCancel,"ax",%progbits
 763              		.align	2
 764              		.global	CAN_TxCancel
ARM GAS  C:\Users\Bruger\AppData\Local\Temp\cccZxlS9.s 			page 43


 765              		.thumb
 766              		.thumb_func
 767              		.type	CAN_TxCancel, %function
 768              	CAN_TxCancel:
 769              	.LFB1:
 161:Generated_Source\PSoC5/CAN_TX_RX_func.c **** 
 162:Generated_Source\PSoC5/CAN_TX_RX_func.c **** 
 163:Generated_Source\PSoC5/CAN_TX_RX_func.c **** /*******************************************************************************
 164:Generated_Source\PSoC5/CAN_TX_RX_func.c **** * FUNCTION NAME:   CAN_TxCancel
 165:Generated_Source\PSoC5/CAN_TX_RX_func.c **** ********************************************************************************
 166:Generated_Source\PSoC5/CAN_TX_RX_func.c **** *
 167:Generated_Source\PSoC5/CAN_TX_RX_func.c **** * Summary:
 168:Generated_Source\PSoC5/CAN_TX_RX_func.c **** *  This function cancels transmission of a message that has been queued to be
 169:Generated_Source\PSoC5/CAN_TX_RX_func.c **** *  transmitted. Values between 0 and 7 are valid.
 170:Generated_Source\PSoC5/CAN_TX_RX_func.c **** *
 171:Generated_Source\PSoC5/CAN_TX_RX_func.c **** * Parameters:
 172:Generated_Source\PSoC5/CAN_TX_RX_func.c **** *  bufferId: The mailbox number.
 173:Generated_Source\PSoC5/CAN_TX_RX_func.c **** *
 174:Generated_Source\PSoC5/CAN_TX_RX_func.c **** * Return:
 175:Generated_Source\PSoC5/CAN_TX_RX_func.c **** *  None.
 176:Generated_Source\PSoC5/CAN_TX_RX_func.c **** *
 177:Generated_Source\PSoC5/CAN_TX_RX_func.c **** *******************************************************************************/
 178:Generated_Source\PSoC5/CAN_TX_RX_func.c **** void CAN_TxCancel(uint8 bufferId) 
 179:Generated_Source\PSoC5/CAN_TX_RX_func.c **** {
 770              		.loc 1 179 0
 771              		.cfi_startproc
 772              		@ args = 0, pretend = 0, frame = 0
 773              		@ frame_needed = 0, uses_anonymous_args = 0
 774              		@ link register save eliminated.
 775              	.LVL50:
 180:Generated_Source\PSoC5/CAN_TX_RX_func.c ****     if (bufferId < CAN_NUMBER_OF_TX_MAILBOXES)
 776              		.loc 1 180 0
 777 0000 0728     		cmp	r0, #7
 778 0002 07D8     		bhi	.L48
 779              	.LVL51:
 780              	.LBB4:
 781              	.LBB5:
 181:Generated_Source\PSoC5/CAN_TX_RX_func.c ****     {
 182:Generated_Source\PSoC5/CAN_TX_RX_func.c ****         CAN_TX_ABORT_MESSAGE(bufferId);
 782              		.loc 1 182 0
 783 0004 044A     		ldr	r2, .L50
 784 0006 0001     		lsls	r0, r0, #4
 785              	.LVL52:
 786 0008 835C     		ldrb	r3, [r0, r2]	@ zero_extendqisi2
 787 000a 03F0FC03 		and	r3, r3, #252
 788 000e 43F00203 		orr	r3, r3, #2
 789 0012 8354     		strb	r3, [r0, r2]
 790              	.LVL53:
 791              	.L48:
 792 0014 7047     		bx	lr
 793              	.L51:
 794 0016 00BF     		.align	2
 795              	.L50:
 796 0018 20A00040 		.word	1073782816
 797              	.LBE5:
 798              	.LBE4:
 799              		.cfi_endproc
ARM GAS  C:\Users\Bruger\AppData\Local\Temp\cccZxlS9.s 			page 44


 800              	.LFE1:
 801              		.size	CAN_TxCancel, .-CAN_TxCancel
 802              		.section	.text.CAN_ReceiveMsg,"ax",%progbits
 803              		.align	2
 804              		.global	CAN_ReceiveMsg
 805              		.thumb
 806              		.thumb_func
 807              		.type	CAN_ReceiveMsg, %function
 808              	CAN_ReceiveMsg:
 809              	.LFB2:
 183:Generated_Source\PSoC5/CAN_TX_RX_func.c ****     }
 184:Generated_Source\PSoC5/CAN_TX_RX_func.c **** }
 185:Generated_Source\PSoC5/CAN_TX_RX_func.c **** 
 186:Generated_Source\PSoC5/CAN_TX_RX_func.c **** 
 187:Generated_Source\PSoC5/CAN_TX_RX_func.c **** #if (CAN_TX0_FUNC_ENABLE)
 188:Generated_Source\PSoC5/CAN_TX_RX_func.c ****     /*******************************************************************************
 189:Generated_Source\PSoC5/CAN_TX_RX_func.c ****     * FUNCTION NAME:   CAN_SendMsg0
 190:Generated_Source\PSoC5/CAN_TX_RX_func.c ****     ********************************************************************************
 191:Generated_Source\PSoC5/CAN_TX_RX_func.c ****     *
 192:Generated_Source\PSoC5/CAN_TX_RX_func.c ****     * Summary:
 193:Generated_Source\PSoC5/CAN_TX_RX_func.c ****     *  This function is the entry point to Transmit Message 0. The function checks
 194:Generated_Source\PSoC5/CAN_TX_RX_func.c ****     *  if mailbox 0 doesn't already have un-transmitted messages waiting for
 195:Generated_Source\PSoC5/CAN_TX_RX_func.c ****     *  arbitration. If not initiate transmission of the message.
 196:Generated_Source\PSoC5/CAN_TX_RX_func.c ****     *  Generated only for the Transmit mailbox designed as Full.
 197:Generated_Source\PSoC5/CAN_TX_RX_func.c ****     *
 198:Generated_Source\PSoC5/CAN_TX_RX_func.c ****     * Parameters:
 199:Generated_Source\PSoC5/CAN_TX_RX_func.c ****     *  None.
 200:Generated_Source\PSoC5/CAN_TX_RX_func.c ****     *
 201:Generated_Source\PSoC5/CAN_TX_RX_func.c ****     * Return:
 202:Generated_Source\PSoC5/CAN_TX_RX_func.c ****     *  Indication if Message has been sent.
 203:Generated_Source\PSoC5/CAN_TX_RX_func.c ****     *   Define                             Description
 204:Generated_Source\PSoC5/CAN_TX_RX_func.c ****     *    CYRET_SUCCESS                      The function passed successfully
 205:Generated_Source\PSoC5/CAN_TX_RX_func.c ****     *    CAN_FAIL              The function failed
 206:Generated_Source\PSoC5/CAN_TX_RX_func.c ****     *
 207:Generated_Source\PSoC5/CAN_TX_RX_func.c ****     *******************************************************************************/
 208:Generated_Source\PSoC5/CAN_TX_RX_func.c ****     uint8 CAN_SendMsg0(void) 
 209:Generated_Source\PSoC5/CAN_TX_RX_func.c ****     {
 210:Generated_Source\PSoC5/CAN_TX_RX_func.c ****         uint8 result = CYRET_SUCCESS;
 211:Generated_Source\PSoC5/CAN_TX_RX_func.c **** 
 212:Generated_Source\PSoC5/CAN_TX_RX_func.c ****         #if (CY_PSOC3 || CY_PSOC5)
 213:Generated_Source\PSoC5/CAN_TX_RX_func.c ****             if ((CAN_TX[0u].txcmd.byte[0u] & CAN_TX_REQUEST_PENDING) != 0u)
 214:Generated_Source\PSoC5/CAN_TX_RX_func.c ****         #else  /* CY_PSOC4 */
 215:Generated_Source\PSoC5/CAN_TX_RX_func.c ****             if ((CAN_TX_CMD_REG(0u) & CAN_TX_REQUEST_PENDING) != 0u)
 216:Generated_Source\PSoC5/CAN_TX_RX_func.c ****         #endif /* CY_PSOC3 || CY_PSOC5 */
 217:Generated_Source\PSoC5/CAN_TX_RX_func.c ****             {
 218:Generated_Source\PSoC5/CAN_TX_RX_func.c ****                 result = CAN_FAIL;
 219:Generated_Source\PSoC5/CAN_TX_RX_func.c ****             }
 220:Generated_Source\PSoC5/CAN_TX_RX_func.c ****             else
 221:Generated_Source\PSoC5/CAN_TX_RX_func.c ****             {
 222:Generated_Source\PSoC5/CAN_TX_RX_func.c ****                 /* `#START MESSAGE_0_TRASMITTED` */
 223:Generated_Source\PSoC5/CAN_TX_RX_func.c **** 
 224:Generated_Source\PSoC5/CAN_TX_RX_func.c ****                 /* `#END` */
 225:Generated_Source\PSoC5/CAN_TX_RX_func.c **** 
 226:Generated_Source\PSoC5/CAN_TX_RX_func.c ****                 #ifdef CAN_SEND_MSG_0_CALLBACK
 227:Generated_Source\PSoC5/CAN_TX_RX_func.c ****                     CAN_SendMsg_0_Callback();
 228:Generated_Source\PSoC5/CAN_TX_RX_func.c ****                 #endif /* CAN_SEND_MSG_0_CALLBACK */
 229:Generated_Source\PSoC5/CAN_TX_RX_func.c **** 
ARM GAS  C:\Users\Bruger\AppData\Local\Temp\cccZxlS9.s 			page 45


 230:Generated_Source\PSoC5/CAN_TX_RX_func.c ****                 CY_SET_REG32(CAN_TX_CMD_PTR(0u),
 231:Generated_Source\PSoC5/CAN_TX_RX_func.c ****                 CY_GET_REG32(CAN_TX_CMD_PTR(0u)) | CAN_SEND_MESSAGE);
 232:Generated_Source\PSoC5/CAN_TX_RX_func.c ****             }
 233:Generated_Source\PSoC5/CAN_TX_RX_func.c **** 
 234:Generated_Source\PSoC5/CAN_TX_RX_func.c ****         return (result);
 235:Generated_Source\PSoC5/CAN_TX_RX_func.c ****     }
 236:Generated_Source\PSoC5/CAN_TX_RX_func.c **** #endif /* CAN_TX0_FUNC_ENABLE */
 237:Generated_Source\PSoC5/CAN_TX_RX_func.c **** 
 238:Generated_Source\PSoC5/CAN_TX_RX_func.c **** 
 239:Generated_Source\PSoC5/CAN_TX_RX_func.c **** #if (CAN_TX1_FUNC_ENABLE)
 240:Generated_Source\PSoC5/CAN_TX_RX_func.c ****     /*******************************************************************************
 241:Generated_Source\PSoC5/CAN_TX_RX_func.c ****     * FUNCTION NAME:   CAN_SendMsg1
 242:Generated_Source\PSoC5/CAN_TX_RX_func.c ****     ********************************************************************************
 243:Generated_Source\PSoC5/CAN_TX_RX_func.c ****     *
 244:Generated_Source\PSoC5/CAN_TX_RX_func.c ****     * Summary:
 245:Generated_Source\PSoC5/CAN_TX_RX_func.c ****     *  This function is the entry point to Transmit Message 1. The function checks
 246:Generated_Source\PSoC5/CAN_TX_RX_func.c ****     *  if mailbox 1 doesn't already have un-transmitted messages waiting for
 247:Generated_Source\PSoC5/CAN_TX_RX_func.c ****     *  arbitration. If not initiate transmission of the message.
 248:Generated_Source\PSoC5/CAN_TX_RX_func.c ****     *  Generated only for the Transmit mailbox designed as Full.
 249:Generated_Source\PSoC5/CAN_TX_RX_func.c ****     *
 250:Generated_Source\PSoC5/CAN_TX_RX_func.c ****     * Parameters:
 251:Generated_Source\PSoC5/CAN_TX_RX_func.c ****     *  None.
 252:Generated_Source\PSoC5/CAN_TX_RX_func.c ****     *
 253:Generated_Source\PSoC5/CAN_TX_RX_func.c ****     * Return:
 254:Generated_Source\PSoC5/CAN_TX_RX_func.c ****     *  Indication if Message has been sent.
 255:Generated_Source\PSoC5/CAN_TX_RX_func.c ****     *   Define                             Description
 256:Generated_Source\PSoC5/CAN_TX_RX_func.c ****     *    CYRET_SUCCESS                      The function passed successfully
 257:Generated_Source\PSoC5/CAN_TX_RX_func.c ****     *    CAN_FAIL              The function failed
 258:Generated_Source\PSoC5/CAN_TX_RX_func.c ****     *
 259:Generated_Source\PSoC5/CAN_TX_RX_func.c ****     *******************************************************************************/
 260:Generated_Source\PSoC5/CAN_TX_RX_func.c ****     uint8 CAN_SendMsg1(void) 
 261:Generated_Source\PSoC5/CAN_TX_RX_func.c ****     {
 262:Generated_Source\PSoC5/CAN_TX_RX_func.c ****         uint8 result = CYRET_SUCCESS;
 263:Generated_Source\PSoC5/CAN_TX_RX_func.c **** 
 264:Generated_Source\PSoC5/CAN_TX_RX_func.c ****         #if (CY_PSOC3 || CY_PSOC5)
 265:Generated_Source\PSoC5/CAN_TX_RX_func.c ****             if ((CAN_TX[1u].txcmd.byte[0u] & CAN_TX_REQUEST_PENDING) != 0u)
 266:Generated_Source\PSoC5/CAN_TX_RX_func.c ****         #else  /* CY_PSOC4 */
 267:Generated_Source\PSoC5/CAN_TX_RX_func.c ****             if ((CAN_TX_CMD_REG(1u) & CAN_TX_REQUEST_PENDING) != 0u)
 268:Generated_Source\PSoC5/CAN_TX_RX_func.c ****         #endif /* CY_PSOC3 || CY_PSOC5 */
 269:Generated_Source\PSoC5/CAN_TX_RX_func.c ****             {
 270:Generated_Source\PSoC5/CAN_TX_RX_func.c ****                 result = CAN_FAIL;
 271:Generated_Source\PSoC5/CAN_TX_RX_func.c ****             }
 272:Generated_Source\PSoC5/CAN_TX_RX_func.c ****             else
 273:Generated_Source\PSoC5/CAN_TX_RX_func.c ****             {
 274:Generated_Source\PSoC5/CAN_TX_RX_func.c ****                 /* `#START MESSAGE_1_TRASMITTED` */
 275:Generated_Source\PSoC5/CAN_TX_RX_func.c **** 
 276:Generated_Source\PSoC5/CAN_TX_RX_func.c ****                 /* `#END` */
 277:Generated_Source\PSoC5/CAN_TX_RX_func.c **** 
 278:Generated_Source\PSoC5/CAN_TX_RX_func.c ****                 #ifdef CAN_SEND_MSG_1_CALLBACK
 279:Generated_Source\PSoC5/CAN_TX_RX_func.c ****                     CAN_SendMsg_1_Callback();
 280:Generated_Source\PSoC5/CAN_TX_RX_func.c ****                 #endif /* CAN_SEND_MSG_1_CALLBACK */
 281:Generated_Source\PSoC5/CAN_TX_RX_func.c **** 
 282:Generated_Source\PSoC5/CAN_TX_RX_func.c ****                 CY_SET_REG32(CAN_TX_CMD_PTR(1u),
 283:Generated_Source\PSoC5/CAN_TX_RX_func.c ****                 CY_GET_REG32(CAN_TX_CMD_PTR(1u)) | CAN_SEND_MESSAGE);
 284:Generated_Source\PSoC5/CAN_TX_RX_func.c ****             }
 285:Generated_Source\PSoC5/CAN_TX_RX_func.c **** 
 286:Generated_Source\PSoC5/CAN_TX_RX_func.c ****         return (result);
ARM GAS  C:\Users\Bruger\AppData\Local\Temp\cccZxlS9.s 			page 46


 287:Generated_Source\PSoC5/CAN_TX_RX_func.c ****     }
 288:Generated_Source\PSoC5/CAN_TX_RX_func.c **** #endif /* CAN_TX1_FUNC_ENABLE */
 289:Generated_Source\PSoC5/CAN_TX_RX_func.c **** 
 290:Generated_Source\PSoC5/CAN_TX_RX_func.c **** 
 291:Generated_Source\PSoC5/CAN_TX_RX_func.c **** #if (CAN_TX2_FUNC_ENABLE)
 292:Generated_Source\PSoC5/CAN_TX_RX_func.c ****     /*******************************************************************************
 293:Generated_Source\PSoC5/CAN_TX_RX_func.c ****     * FUNCTION NAME:   CAN_SendMsg2
 294:Generated_Source\PSoC5/CAN_TX_RX_func.c ****     ********************************************************************************
 295:Generated_Source\PSoC5/CAN_TX_RX_func.c ****     *
 296:Generated_Source\PSoC5/CAN_TX_RX_func.c ****     * Summary:
 297:Generated_Source\PSoC5/CAN_TX_RX_func.c ****     *  This function is the entry point to Transmit Message 2. The function checks
 298:Generated_Source\PSoC5/CAN_TX_RX_func.c ****     *  if mailbox 2 doesn't already have un-transmitted messages waiting for
 299:Generated_Source\PSoC5/CAN_TX_RX_func.c ****     *  arbitration. If not initiate transmission of the message.
 300:Generated_Source\PSoC5/CAN_TX_RX_func.c ****     *  Generated only for the Transmit mailbox designed as Full.
 301:Generated_Source\PSoC5/CAN_TX_RX_func.c ****     *
 302:Generated_Source\PSoC5/CAN_TX_RX_func.c ****     * Parameters:
 303:Generated_Source\PSoC5/CAN_TX_RX_func.c ****     *  None.
 304:Generated_Source\PSoC5/CAN_TX_RX_func.c ****     *
 305:Generated_Source\PSoC5/CAN_TX_RX_func.c ****     * Return:
 306:Generated_Source\PSoC5/CAN_TX_RX_func.c ****     *  Indication if Message has been sent.
 307:Generated_Source\PSoC5/CAN_TX_RX_func.c ****     *   Define                             Description
 308:Generated_Source\PSoC5/CAN_TX_RX_func.c ****     *    CYRET_SUCCESS                      The function passed successfully
 309:Generated_Source\PSoC5/CAN_TX_RX_func.c ****     *    CAN_FAIL              The function failed
 310:Generated_Source\PSoC5/CAN_TX_RX_func.c ****     *
 311:Generated_Source\PSoC5/CAN_TX_RX_func.c ****     *******************************************************************************/
 312:Generated_Source\PSoC5/CAN_TX_RX_func.c ****     uint8 CAN_SendMsg2(void) 
 313:Generated_Source\PSoC5/CAN_TX_RX_func.c ****     {
 314:Generated_Source\PSoC5/CAN_TX_RX_func.c ****         uint8 result = CYRET_SUCCESS;
 315:Generated_Source\PSoC5/CAN_TX_RX_func.c **** 
 316:Generated_Source\PSoC5/CAN_TX_RX_func.c ****         #if (CY_PSOC3 || CY_PSOC5)
 317:Generated_Source\PSoC5/CAN_TX_RX_func.c ****             if ((CAN_TX[2u].txcmd.byte[0u] & CAN_TX_REQUEST_PENDING) != 0u)
 318:Generated_Source\PSoC5/CAN_TX_RX_func.c ****         #else  /* CY_PSOC4 */
 319:Generated_Source\PSoC5/CAN_TX_RX_func.c ****             if ((CAN_TX_CMD_REG(2u) & CAN_TX_REQUEST_PENDING) != 0u)
 320:Generated_Source\PSoC5/CAN_TX_RX_func.c ****         #endif /* CY_PSOC3 || CY_PSOC5 */
 321:Generated_Source\PSoC5/CAN_TX_RX_func.c ****             {
 322:Generated_Source\PSoC5/CAN_TX_RX_func.c ****                 result = CAN_FAIL;
 323:Generated_Source\PSoC5/CAN_TX_RX_func.c ****             }
 324:Generated_Source\PSoC5/CAN_TX_RX_func.c ****             else
 325:Generated_Source\PSoC5/CAN_TX_RX_func.c ****             {
 326:Generated_Source\PSoC5/CAN_TX_RX_func.c ****                 /* `#START MESSAGE_2_TRASMITTED` */
 327:Generated_Source\PSoC5/CAN_TX_RX_func.c **** 
 328:Generated_Source\PSoC5/CAN_TX_RX_func.c ****                 /* `#END` */
 329:Generated_Source\PSoC5/CAN_TX_RX_func.c **** 
 330:Generated_Source\PSoC5/CAN_TX_RX_func.c ****                 #ifdef CAN_SEND_MSG_2_CALLBACK
 331:Generated_Source\PSoC5/CAN_TX_RX_func.c ****                     CAN_SendMsg_2_Callback();
 332:Generated_Source\PSoC5/CAN_TX_RX_func.c ****                 #endif /* CAN_SEND_MSG_2_CALLBACK */
 333:Generated_Source\PSoC5/CAN_TX_RX_func.c **** 
 334:Generated_Source\PSoC5/CAN_TX_RX_func.c ****                 CY_SET_REG32(CAN_TX_CMD_PTR(2u),
 335:Generated_Source\PSoC5/CAN_TX_RX_func.c ****                 CY_GET_REG32(CAN_TX_CMD_PTR(2u)) | CAN_SEND_MESSAGE);
 336:Generated_Source\PSoC5/CAN_TX_RX_func.c ****             }
 337:Generated_Source\PSoC5/CAN_TX_RX_func.c **** 
 338:Generated_Source\PSoC5/CAN_TX_RX_func.c ****         return (result);
 339:Generated_Source\PSoC5/CAN_TX_RX_func.c ****     }
 340:Generated_Source\PSoC5/CAN_TX_RX_func.c **** #endif /* CAN_TX2_FUNC_ENABLE */
 341:Generated_Source\PSoC5/CAN_TX_RX_func.c **** 
 342:Generated_Source\PSoC5/CAN_TX_RX_func.c **** 
 343:Generated_Source\PSoC5/CAN_TX_RX_func.c **** #if (CAN_TX3_FUNC_ENABLE)
ARM GAS  C:\Users\Bruger\AppData\Local\Temp\cccZxlS9.s 			page 47


 344:Generated_Source\PSoC5/CAN_TX_RX_func.c ****     /*******************************************************************************
 345:Generated_Source\PSoC5/CAN_TX_RX_func.c ****     * FUNCTION NAME:   CAN_SendMsg3
 346:Generated_Source\PSoC5/CAN_TX_RX_func.c ****     ********************************************************************************
 347:Generated_Source\PSoC5/CAN_TX_RX_func.c ****     *
 348:Generated_Source\PSoC5/CAN_TX_RX_func.c ****     * Summary:
 349:Generated_Source\PSoC5/CAN_TX_RX_func.c ****     *  This function is the entry point to Transmit Message 3. The function checks
 350:Generated_Source\PSoC5/CAN_TX_RX_func.c ****     *  if mailbox 3 doesn't already have un-transmitted messages waiting for
 351:Generated_Source\PSoC5/CAN_TX_RX_func.c ****     *  arbitration. If not initiate transmission of the message.
 352:Generated_Source\PSoC5/CAN_TX_RX_func.c ****     *  Generated only for the Transmit mailbox designed as Full.
 353:Generated_Source\PSoC5/CAN_TX_RX_func.c ****     *
 354:Generated_Source\PSoC5/CAN_TX_RX_func.c ****     * Parameters:
 355:Generated_Source\PSoC5/CAN_TX_RX_func.c ****     *  None.
 356:Generated_Source\PSoC5/CAN_TX_RX_func.c ****     *
 357:Generated_Source\PSoC5/CAN_TX_RX_func.c ****     * Return:
 358:Generated_Source\PSoC5/CAN_TX_RX_func.c ****     *  Indication if Message has been sent.
 359:Generated_Source\PSoC5/CAN_TX_RX_func.c ****     *   Define                             Description
 360:Generated_Source\PSoC5/CAN_TX_RX_func.c ****     *    CYRET_SUCCESS                      The function passed successfully
 361:Generated_Source\PSoC5/CAN_TX_RX_func.c ****     *    CAN_FAIL              The function failed
 362:Generated_Source\PSoC5/CAN_TX_RX_func.c ****     *
 363:Generated_Source\PSoC5/CAN_TX_RX_func.c ****     *******************************************************************************/
 364:Generated_Source\PSoC5/CAN_TX_RX_func.c ****     uint8 CAN_SendMsg3(void) 
 365:Generated_Source\PSoC5/CAN_TX_RX_func.c ****     {
 366:Generated_Source\PSoC5/CAN_TX_RX_func.c ****         uint8 result = CYRET_SUCCESS;
 367:Generated_Source\PSoC5/CAN_TX_RX_func.c **** 
 368:Generated_Source\PSoC5/CAN_TX_RX_func.c ****         #if (CY_PSOC3 || CY_PSOC5)
 369:Generated_Source\PSoC5/CAN_TX_RX_func.c ****             if ((CAN_TX[3u].txcmd.byte[0u] & CAN_TX_REQUEST_PENDING) != 0u)
 370:Generated_Source\PSoC5/CAN_TX_RX_func.c ****         #else  /* CY_PSOC4 */
 371:Generated_Source\PSoC5/CAN_TX_RX_func.c ****             if ((CAN_TX_CMD_REG(3u) & CAN_TX_REQUEST_PENDING) != 0u)
 372:Generated_Source\PSoC5/CAN_TX_RX_func.c ****         #endif /* CY_PSOC3 || CY_PSOC5 */
 373:Generated_Source\PSoC5/CAN_TX_RX_func.c ****             {
 374:Generated_Source\PSoC5/CAN_TX_RX_func.c ****                 result = CAN_FAIL;
 375:Generated_Source\PSoC5/CAN_TX_RX_func.c ****             }
 376:Generated_Source\PSoC5/CAN_TX_RX_func.c ****             else
 377:Generated_Source\PSoC5/CAN_TX_RX_func.c ****             {
 378:Generated_Source\PSoC5/CAN_TX_RX_func.c ****                 /* `#START MESSAGE_3_TRASMITTED` */
 379:Generated_Source\PSoC5/CAN_TX_RX_func.c **** 
 380:Generated_Source\PSoC5/CAN_TX_RX_func.c ****                 /* `#END` */
 381:Generated_Source\PSoC5/CAN_TX_RX_func.c **** 
 382:Generated_Source\PSoC5/CAN_TX_RX_func.c ****                 #ifdef CAN_SEND_MSG_3_CALLBACK
 383:Generated_Source\PSoC5/CAN_TX_RX_func.c ****                     CAN_SendMsg_3_Callback();
 384:Generated_Source\PSoC5/CAN_TX_RX_func.c ****                 #endif /* CAN_SEND_MSG_3_CALLBACK */
 385:Generated_Source\PSoC5/CAN_TX_RX_func.c **** 
 386:Generated_Source\PSoC5/CAN_TX_RX_func.c ****                 CY_SET_REG32(CAN_TX_CMD_PTR(3u),
 387:Generated_Source\PSoC5/CAN_TX_RX_func.c ****                 CY_GET_REG32(CAN_TX_CMD_PTR(3u)) | CAN_SEND_MESSAGE);
 388:Generated_Source\PSoC5/CAN_TX_RX_func.c ****             }
 389:Generated_Source\PSoC5/CAN_TX_RX_func.c **** 
 390:Generated_Source\PSoC5/CAN_TX_RX_func.c ****         return (result);
 391:Generated_Source\PSoC5/CAN_TX_RX_func.c ****     }
 392:Generated_Source\PSoC5/CAN_TX_RX_func.c **** #endif /* CAN_TX3_FUNC_ENABLE */
 393:Generated_Source\PSoC5/CAN_TX_RX_func.c **** 
 394:Generated_Source\PSoC5/CAN_TX_RX_func.c **** 
 395:Generated_Source\PSoC5/CAN_TX_RX_func.c **** #if (CAN_TX4_FUNC_ENABLE)
 396:Generated_Source\PSoC5/CAN_TX_RX_func.c ****     /*******************************************************************************
 397:Generated_Source\PSoC5/CAN_TX_RX_func.c ****     * FUNCTION NAME:   CAN_SendMsg4
 398:Generated_Source\PSoC5/CAN_TX_RX_func.c ****     ********************************************************************************
 399:Generated_Source\PSoC5/CAN_TX_RX_func.c ****     *
 400:Generated_Source\PSoC5/CAN_TX_RX_func.c ****     * Summary:
ARM GAS  C:\Users\Bruger\AppData\Local\Temp\cccZxlS9.s 			page 48


 401:Generated_Source\PSoC5/CAN_TX_RX_func.c ****     *  This function is the entry point to Transmit Message 4. The function checks
 402:Generated_Source\PSoC5/CAN_TX_RX_func.c ****     *  if mailbox 4 doesn't already have un-transmitted messages waiting for
 403:Generated_Source\PSoC5/CAN_TX_RX_func.c ****     *  arbitration. If not initiate transmission of the message.
 404:Generated_Source\PSoC5/CAN_TX_RX_func.c ****     *  Generated only for the Transmit mailbox designed as Full.
 405:Generated_Source\PSoC5/CAN_TX_RX_func.c ****     *
 406:Generated_Source\PSoC5/CAN_TX_RX_func.c ****     * Parameters:
 407:Generated_Source\PSoC5/CAN_TX_RX_func.c ****     *  None.
 408:Generated_Source\PSoC5/CAN_TX_RX_func.c ****     *
 409:Generated_Source\PSoC5/CAN_TX_RX_func.c ****     * Return:
 410:Generated_Source\PSoC5/CAN_TX_RX_func.c ****     *  Indication if Message has been sent.
 411:Generated_Source\PSoC5/CAN_TX_RX_func.c ****     *   Define                             Description
 412:Generated_Source\PSoC5/CAN_TX_RX_func.c ****     *    CYRET_SUCCESS                      The function passed successfully
 413:Generated_Source\PSoC5/CAN_TX_RX_func.c ****     *    CAN_FAIL              The function failed
 414:Generated_Source\PSoC5/CAN_TX_RX_func.c ****     *
 415:Generated_Source\PSoC5/CAN_TX_RX_func.c ****     *******************************************************************************/
 416:Generated_Source\PSoC5/CAN_TX_RX_func.c ****     uint8 CAN_SendMsg4(void) 
 417:Generated_Source\PSoC5/CAN_TX_RX_func.c ****     {
 418:Generated_Source\PSoC5/CAN_TX_RX_func.c ****         uint8 result = CYRET_SUCCESS;
 419:Generated_Source\PSoC5/CAN_TX_RX_func.c **** 
 420:Generated_Source\PSoC5/CAN_TX_RX_func.c ****         #if (CY_PSOC3 || CY_PSOC5)
 421:Generated_Source\PSoC5/CAN_TX_RX_func.c ****             if ((CAN_TX[4u].txcmd.byte[0u] & CAN_TX_REQUEST_PENDING) != 0u)
 422:Generated_Source\PSoC5/CAN_TX_RX_func.c ****         #else  /* CY_PSOC4 */
 423:Generated_Source\PSoC5/CAN_TX_RX_func.c ****             if ((CAN_TX_CMD_REG(4u) & CAN_TX_REQUEST_PENDING) != 0u)
 424:Generated_Source\PSoC5/CAN_TX_RX_func.c ****         #endif /* CY_PSOC3 || CY_PSOC5 */
 425:Generated_Source\PSoC5/CAN_TX_RX_func.c ****             {
 426:Generated_Source\PSoC5/CAN_TX_RX_func.c ****                 result = CAN_FAIL;
 427:Generated_Source\PSoC5/CAN_TX_RX_func.c ****             }
 428:Generated_Source\PSoC5/CAN_TX_RX_func.c ****             else
 429:Generated_Source\PSoC5/CAN_TX_RX_func.c ****             {
 430:Generated_Source\PSoC5/CAN_TX_RX_func.c ****                 /* `#START MESSAGE_4_TRASMITTED` */
 431:Generated_Source\PSoC5/CAN_TX_RX_func.c **** 
 432:Generated_Source\PSoC5/CAN_TX_RX_func.c ****                 /* `#END` */
 433:Generated_Source\PSoC5/CAN_TX_RX_func.c **** 
 434:Generated_Source\PSoC5/CAN_TX_RX_func.c ****                 #ifdef CAN_SEND_MSG_4_CALLBACK
 435:Generated_Source\PSoC5/CAN_TX_RX_func.c ****                     CAN_SendMsg_4_Callback();
 436:Generated_Source\PSoC5/CAN_TX_RX_func.c ****                 #endif /* CAN_SEND_MSG_4_CALLBACK */
 437:Generated_Source\PSoC5/CAN_TX_RX_func.c **** 
 438:Generated_Source\PSoC5/CAN_TX_RX_func.c ****                 CY_SET_REG32(CAN_TX_CMD_PTR(4u),
 439:Generated_Source\PSoC5/CAN_TX_RX_func.c ****                 CY_GET_REG32(CAN_TX_CMD_PTR(4u)) | CAN_SEND_MESSAGE);
 440:Generated_Source\PSoC5/CAN_TX_RX_func.c ****             }
 441:Generated_Source\PSoC5/CAN_TX_RX_func.c **** 
 442:Generated_Source\PSoC5/CAN_TX_RX_func.c ****         return (result);
 443:Generated_Source\PSoC5/CAN_TX_RX_func.c ****     }
 444:Generated_Source\PSoC5/CAN_TX_RX_func.c **** #endif /* CAN_TX4_FUNC_ENABLE */
 445:Generated_Source\PSoC5/CAN_TX_RX_func.c **** 
 446:Generated_Source\PSoC5/CAN_TX_RX_func.c **** 
 447:Generated_Source\PSoC5/CAN_TX_RX_func.c **** #if (CAN_TX5_FUNC_ENABLE)
 448:Generated_Source\PSoC5/CAN_TX_RX_func.c ****     /*******************************************************************************
 449:Generated_Source\PSoC5/CAN_TX_RX_func.c ****     * FUNCTION NAME:   CAN_SendMsg5
 450:Generated_Source\PSoC5/CAN_TX_RX_func.c ****     ********************************************************************************
 451:Generated_Source\PSoC5/CAN_TX_RX_func.c ****     *
 452:Generated_Source\PSoC5/CAN_TX_RX_func.c ****     * Summary:
 453:Generated_Source\PSoC5/CAN_TX_RX_func.c ****     *  This function is the entry point to Transmit Message 5. The function checks
 454:Generated_Source\PSoC5/CAN_TX_RX_func.c ****     *  if mailbox 5 doesn't already have un-transmitted messages waiting for
 455:Generated_Source\PSoC5/CAN_TX_RX_func.c ****     *  arbitration. If not initiate transmission of the message.
 456:Generated_Source\PSoC5/CAN_TX_RX_func.c ****     *  Generated only for the Transmit mailbox designed as Full.
 457:Generated_Source\PSoC5/CAN_TX_RX_func.c ****     *
ARM GAS  C:\Users\Bruger\AppData\Local\Temp\cccZxlS9.s 			page 49


 458:Generated_Source\PSoC5/CAN_TX_RX_func.c ****     * Parameters:
 459:Generated_Source\PSoC5/CAN_TX_RX_func.c ****     *  None.
 460:Generated_Source\PSoC5/CAN_TX_RX_func.c ****     *
 461:Generated_Source\PSoC5/CAN_TX_RX_func.c ****     * Return:
 462:Generated_Source\PSoC5/CAN_TX_RX_func.c ****     *  Indication if Message has been sent.
 463:Generated_Source\PSoC5/CAN_TX_RX_func.c ****     *   Define                             Description
 464:Generated_Source\PSoC5/CAN_TX_RX_func.c ****     *    CYRET_SUCCESS                      The function passed successfully
 465:Generated_Source\PSoC5/CAN_TX_RX_func.c ****     *    CAN_FAIL              The function failed
 466:Generated_Source\PSoC5/CAN_TX_RX_func.c ****     *
 467:Generated_Source\PSoC5/CAN_TX_RX_func.c ****     *******************************************************************************/
 468:Generated_Source\PSoC5/CAN_TX_RX_func.c ****     uint8 CAN_SendMsg5(void) 
 469:Generated_Source\PSoC5/CAN_TX_RX_func.c ****     {
 470:Generated_Source\PSoC5/CAN_TX_RX_func.c ****         uint8 result = CYRET_SUCCESS;
 471:Generated_Source\PSoC5/CAN_TX_RX_func.c **** 
 472:Generated_Source\PSoC5/CAN_TX_RX_func.c ****         #if (CY_PSOC3 || CY_PSOC5)
 473:Generated_Source\PSoC5/CAN_TX_RX_func.c ****             if ((CAN_TX[5u].txcmd.byte[0u] & CAN_TX_REQUEST_PENDING) != 0u)
 474:Generated_Source\PSoC5/CAN_TX_RX_func.c ****         #else  /* CY_PSOC4 */
 475:Generated_Source\PSoC5/CAN_TX_RX_func.c ****             if ((CAN_TX_CMD_REG(5u) & CAN_TX_REQUEST_PENDING) != 0u)
 476:Generated_Source\PSoC5/CAN_TX_RX_func.c ****         #endif /* CY_PSOC3 || CY_PSOC5 */
 477:Generated_Source\PSoC5/CAN_TX_RX_func.c ****             {
 478:Generated_Source\PSoC5/CAN_TX_RX_func.c ****                 result = CAN_FAIL;
 479:Generated_Source\PSoC5/CAN_TX_RX_func.c ****             }
 480:Generated_Source\PSoC5/CAN_TX_RX_func.c ****             else
 481:Generated_Source\PSoC5/CAN_TX_RX_func.c ****             {
 482:Generated_Source\PSoC5/CAN_TX_RX_func.c ****                 /* `#START MESSAGE_5_TRASMITTED` */
 483:Generated_Source\PSoC5/CAN_TX_RX_func.c **** 
 484:Generated_Source\PSoC5/CAN_TX_RX_func.c ****                 /* `#END` */
 485:Generated_Source\PSoC5/CAN_TX_RX_func.c **** 
 486:Generated_Source\PSoC5/CAN_TX_RX_func.c ****                 #ifdef CAN_SEND_MSG_5_CALLBACK
 487:Generated_Source\PSoC5/CAN_TX_RX_func.c ****                     CAN_SendMsg_5_Callback();
 488:Generated_Source\PSoC5/CAN_TX_RX_func.c ****                 #endif /* CAN_SEND_MSG_5_CALLBACK */
 489:Generated_Source\PSoC5/CAN_TX_RX_func.c **** 
 490:Generated_Source\PSoC5/CAN_TX_RX_func.c ****                 CY_SET_REG32(CAN_TX_CMD_PTR(5u),
 491:Generated_Source\PSoC5/CAN_TX_RX_func.c ****                 CY_GET_REG32(CAN_TX_CMD_PTR(5u)) | CAN_SEND_MESSAGE);
 492:Generated_Source\PSoC5/CAN_TX_RX_func.c ****             }
 493:Generated_Source\PSoC5/CAN_TX_RX_func.c **** 
 494:Generated_Source\PSoC5/CAN_TX_RX_func.c ****         return (result);
 495:Generated_Source\PSoC5/CAN_TX_RX_func.c ****     }
 496:Generated_Source\PSoC5/CAN_TX_RX_func.c **** #endif /* CAN_TX5_FUNC_ENABLE */
 497:Generated_Source\PSoC5/CAN_TX_RX_func.c **** 
 498:Generated_Source\PSoC5/CAN_TX_RX_func.c **** 
 499:Generated_Source\PSoC5/CAN_TX_RX_func.c **** #if (CAN_TX6_FUNC_ENABLE)
 500:Generated_Source\PSoC5/CAN_TX_RX_func.c ****     /*******************************************************************************
 501:Generated_Source\PSoC5/CAN_TX_RX_func.c ****     * FUNCTION NAME:   CAN_SendMsg6
 502:Generated_Source\PSoC5/CAN_TX_RX_func.c ****     ********************************************************************************
 503:Generated_Source\PSoC5/CAN_TX_RX_func.c ****     *
 504:Generated_Source\PSoC5/CAN_TX_RX_func.c ****     * Summary:
 505:Generated_Source\PSoC5/CAN_TX_RX_func.c ****     *  This function is the entry point to Transmit Message 6. The function checks
 506:Generated_Source\PSoC5/CAN_TX_RX_func.c ****     *  if mailbox 6 doesn't already have un-transmitted messages waiting for
 507:Generated_Source\PSoC5/CAN_TX_RX_func.c ****     *  arbitration. If not initiate transmission of the message.
 508:Generated_Source\PSoC5/CAN_TX_RX_func.c ****     *  Generated only for the Transmit mailbox designed as Full.
 509:Generated_Source\PSoC5/CAN_TX_RX_func.c ****     *
 510:Generated_Source\PSoC5/CAN_TX_RX_func.c ****     * Parameters:
 511:Generated_Source\PSoC5/CAN_TX_RX_func.c ****     *  None.
 512:Generated_Source\PSoC5/CAN_TX_RX_func.c ****     *
 513:Generated_Source\PSoC5/CAN_TX_RX_func.c ****     * Return:
 514:Generated_Source\PSoC5/CAN_TX_RX_func.c ****     *  Indication if Message has been sent.
ARM GAS  C:\Users\Bruger\AppData\Local\Temp\cccZxlS9.s 			page 50


 515:Generated_Source\PSoC5/CAN_TX_RX_func.c ****     *   Define                             Description
 516:Generated_Source\PSoC5/CAN_TX_RX_func.c ****     *    CYRET_SUCCESS                      The function passed successfully
 517:Generated_Source\PSoC5/CAN_TX_RX_func.c ****     *    CAN_FAIL              The function failed
 518:Generated_Source\PSoC5/CAN_TX_RX_func.c ****     *
 519:Generated_Source\PSoC5/CAN_TX_RX_func.c ****     *******************************************************************************/
 520:Generated_Source\PSoC5/CAN_TX_RX_func.c ****     uint8 CAN_SendMsg6(void) 
 521:Generated_Source\PSoC5/CAN_TX_RX_func.c ****     {
 522:Generated_Source\PSoC5/CAN_TX_RX_func.c ****         uint8 result = CYRET_SUCCESS;
 523:Generated_Source\PSoC5/CAN_TX_RX_func.c **** 
 524:Generated_Source\PSoC5/CAN_TX_RX_func.c ****         #if (CY_PSOC3 || CY_PSOC5)
 525:Generated_Source\PSoC5/CAN_TX_RX_func.c ****             if ((CAN_TX[6u].txcmd.byte[0u] & CAN_TX_REQUEST_PENDING) != 0u)
 526:Generated_Source\PSoC5/CAN_TX_RX_func.c ****         #else  /* CY_PSOC4 */
 527:Generated_Source\PSoC5/CAN_TX_RX_func.c ****             if ((CAN_TX_CMD_REG(6u) & CAN_TX_REQUEST_PENDING) != 0u)
 528:Generated_Source\PSoC5/CAN_TX_RX_func.c ****         #endif /* CY_PSOC3 || CY_PSOC5 */
 529:Generated_Source\PSoC5/CAN_TX_RX_func.c ****             {
 530:Generated_Source\PSoC5/CAN_TX_RX_func.c ****                 result = CAN_FAIL;
 531:Generated_Source\PSoC5/CAN_TX_RX_func.c ****             }
 532:Generated_Source\PSoC5/CAN_TX_RX_func.c ****             else
 533:Generated_Source\PSoC5/CAN_TX_RX_func.c ****             {
 534:Generated_Source\PSoC5/CAN_TX_RX_func.c ****                 /* `#START MESSAGE_6_TRASMITTED` */
 535:Generated_Source\PSoC5/CAN_TX_RX_func.c **** 
 536:Generated_Source\PSoC5/CAN_TX_RX_func.c ****                 /* `#END` */
 537:Generated_Source\PSoC5/CAN_TX_RX_func.c **** 
 538:Generated_Source\PSoC5/CAN_TX_RX_func.c ****                 #ifdef CAN_SEND_MSG_6_CALLBACK
 539:Generated_Source\PSoC5/CAN_TX_RX_func.c ****                     CAN_SendMsg_6_Callback();
 540:Generated_Source\PSoC5/CAN_TX_RX_func.c ****                 #endif /* CAN_SEND_MSG_6_CALLBACK */
 541:Generated_Source\PSoC5/CAN_TX_RX_func.c **** 
 542:Generated_Source\PSoC5/CAN_TX_RX_func.c ****                 CY_SET_REG32(CAN_TX_CMD_PTR(6u),
 543:Generated_Source\PSoC5/CAN_TX_RX_func.c ****                 CY_GET_REG32(CAN_TX_CMD_PTR(6u)) | CAN_SEND_MESSAGE);
 544:Generated_Source\PSoC5/CAN_TX_RX_func.c ****             }
 545:Generated_Source\PSoC5/CAN_TX_RX_func.c **** 
 546:Generated_Source\PSoC5/CAN_TX_RX_func.c ****         return (result);
 547:Generated_Source\PSoC5/CAN_TX_RX_func.c ****     }
 548:Generated_Source\PSoC5/CAN_TX_RX_func.c **** #endif /* CAN_TX6_FUNC_ENABLE */
 549:Generated_Source\PSoC5/CAN_TX_RX_func.c **** 
 550:Generated_Source\PSoC5/CAN_TX_RX_func.c **** 
 551:Generated_Source\PSoC5/CAN_TX_RX_func.c **** #if (CAN_TX7_FUNC_ENABLE)
 552:Generated_Source\PSoC5/CAN_TX_RX_func.c ****     /*******************************************************************************
 553:Generated_Source\PSoC5/CAN_TX_RX_func.c ****     * FUNCTION NAME:   CAN_SendMsg7)
 554:Generated_Source\PSoC5/CAN_TX_RX_func.c ****     ********************************************************************************
 555:Generated_Source\PSoC5/CAN_TX_RX_func.c ****     *
 556:Generated_Source\PSoC5/CAN_TX_RX_func.c ****     * Summary:
 557:Generated_Source\PSoC5/CAN_TX_RX_func.c ****     *  This function is the entry point to Transmit Message 7. The function checks
 558:Generated_Source\PSoC5/CAN_TX_RX_func.c ****     *  if mailbox 7 doesn't already have un-transmitted messages waiting for
 559:Generated_Source\PSoC5/CAN_TX_RX_func.c ****     *  arbitration. If not initiate transmission of the message.
 560:Generated_Source\PSoC5/CAN_TX_RX_func.c ****     *  Generated only for the Transmit mailbox designed as Full.
 561:Generated_Source\PSoC5/CAN_TX_RX_func.c ****     *
 562:Generated_Source\PSoC5/CAN_TX_RX_func.c ****     * Parameters:
 563:Generated_Source\PSoC5/CAN_TX_RX_func.c ****     *  None.
 564:Generated_Source\PSoC5/CAN_TX_RX_func.c ****     *
 565:Generated_Source\PSoC5/CAN_TX_RX_func.c ****     * Return:
 566:Generated_Source\PSoC5/CAN_TX_RX_func.c ****     *  Indication if Message has been sent.
 567:Generated_Source\PSoC5/CAN_TX_RX_func.c ****     *   Define                             Description
 568:Generated_Source\PSoC5/CAN_TX_RX_func.c ****     *    CYRET_SUCCESS                      The function passed successfully
 569:Generated_Source\PSoC5/CAN_TX_RX_func.c ****     *    CAN_FAIL              The function failed
 570:Generated_Source\PSoC5/CAN_TX_RX_func.c ****     *
 571:Generated_Source\PSoC5/CAN_TX_RX_func.c ****     *******************************************************************************/
ARM GAS  C:\Users\Bruger\AppData\Local\Temp\cccZxlS9.s 			page 51


 572:Generated_Source\PSoC5/CAN_TX_RX_func.c ****     uint8 CAN_SendMsg7(void) 
 573:Generated_Source\PSoC5/CAN_TX_RX_func.c ****     {
 574:Generated_Source\PSoC5/CAN_TX_RX_func.c ****         uint8 result = CYRET_SUCCESS;
 575:Generated_Source\PSoC5/CAN_TX_RX_func.c **** 
 576:Generated_Source\PSoC5/CAN_TX_RX_func.c ****         #if (CY_PSOC3 || CY_PSOC5)
 577:Generated_Source\PSoC5/CAN_TX_RX_func.c ****             if ((CAN_TX[7u].txcmd.byte[0u] & CAN_TX_REQUEST_PENDING) != 0u)
 578:Generated_Source\PSoC5/CAN_TX_RX_func.c ****         #else  /* CY_PSOC4 */
 579:Generated_Source\PSoC5/CAN_TX_RX_func.c ****             if ((CAN_TX_CMD_REG(7u) & CAN_TX_REQUEST_PENDING) != 0u)
 580:Generated_Source\PSoC5/CAN_TX_RX_func.c ****         #endif /* CY_PSOC3 || CY_PSOC5 */
 581:Generated_Source\PSoC5/CAN_TX_RX_func.c ****             {
 582:Generated_Source\PSoC5/CAN_TX_RX_func.c ****                 result = CAN_FAIL;
 583:Generated_Source\PSoC5/CAN_TX_RX_func.c ****             }
 584:Generated_Source\PSoC5/CAN_TX_RX_func.c ****             else
 585:Generated_Source\PSoC5/CAN_TX_RX_func.c ****             {
 586:Generated_Source\PSoC5/CAN_TX_RX_func.c ****                 /* `#START MESSAGE_7_TRASMITTED` */
 587:Generated_Source\PSoC5/CAN_TX_RX_func.c **** 
 588:Generated_Source\PSoC5/CAN_TX_RX_func.c ****                 /* `#END` */
 589:Generated_Source\PSoC5/CAN_TX_RX_func.c **** 
 590:Generated_Source\PSoC5/CAN_TX_RX_func.c ****                 #ifdef CAN_SEND_MSG_7_CALLBACK
 591:Generated_Source\PSoC5/CAN_TX_RX_func.c ****                     CAN_SendMsg_7_Callback();
 592:Generated_Source\PSoC5/CAN_TX_RX_func.c ****                 #endif /* CAN_SEND_MSG_7_CALLBACK */
 593:Generated_Source\PSoC5/CAN_TX_RX_func.c **** 
 594:Generated_Source\PSoC5/CAN_TX_RX_func.c ****                 CY_SET_REG32(CAN_TX_CMD_PTR(7u),
 595:Generated_Source\PSoC5/CAN_TX_RX_func.c ****                 CY_GET_REG32(CAN_TX_CMD_PTR(7u)) | CAN_SEND_MESSAGE);
 596:Generated_Source\PSoC5/CAN_TX_RX_func.c ****             }
 597:Generated_Source\PSoC5/CAN_TX_RX_func.c **** 
 598:Generated_Source\PSoC5/CAN_TX_RX_func.c ****         return (result);
 599:Generated_Source\PSoC5/CAN_TX_RX_func.c ****     }
 600:Generated_Source\PSoC5/CAN_TX_RX_func.c **** #endif /* CAN_TX7_FUNC_ENABLE */
 601:Generated_Source\PSoC5/CAN_TX_RX_func.c **** 
 602:Generated_Source\PSoC5/CAN_TX_RX_func.c **** 
 603:Generated_Source\PSoC5/CAN_TX_RX_func.c **** /*******************************************************************************
 604:Generated_Source\PSoC5/CAN_TX_RX_func.c **** * FUNCTION NAME:   CAN_ReceiveMsg
 605:Generated_Source\PSoC5/CAN_TX_RX_func.c **** ********************************************************************************
 606:Generated_Source\PSoC5/CAN_TX_RX_func.c **** *
 607:Generated_Source\PSoC5/CAN_TX_RX_func.c **** * Summary:
 608:Generated_Source\PSoC5/CAN_TX_RX_func.c **** *  This function is the entry point to Receive Message Interrupt for Basic
 609:Generated_Source\PSoC5/CAN_TX_RX_func.c **** *  mailboxes. Clears the Receive particular Message interrupt flag. Generated
 610:Generated_Source\PSoC5/CAN_TX_RX_func.c **** *  only if one of the Receive mailboxes is designed as Basic.
 611:Generated_Source\PSoC5/CAN_TX_RX_func.c **** *
 612:Generated_Source\PSoC5/CAN_TX_RX_func.c **** * Parameters:
 613:Generated_Source\PSoC5/CAN_TX_RX_func.c **** *  rxMailbox: The mailbox number that trig Receive Message Interrupt.
 614:Generated_Source\PSoC5/CAN_TX_RX_func.c **** *
 615:Generated_Source\PSoC5/CAN_TX_RX_func.c **** * Return:
 616:Generated_Source\PSoC5/CAN_TX_RX_func.c **** *  None.
 617:Generated_Source\PSoC5/CAN_TX_RX_func.c **** *
 618:Generated_Source\PSoC5/CAN_TX_RX_func.c **** * Reentrant:
 619:Generated_Source\PSoC5/CAN_TX_RX_func.c **** *  Depends on the Customer code.
 620:Generated_Source\PSoC5/CAN_TX_RX_func.c **** *
 621:Generated_Source\PSoC5/CAN_TX_RX_func.c **** *******************************************************************************/
 622:Generated_Source\PSoC5/CAN_TX_RX_func.c **** void CAN_ReceiveMsg(uint8 rxMailbox) 
 623:Generated_Source\PSoC5/CAN_TX_RX_func.c **** {
 810              		.loc 1 623 0
 811              		.cfi_startproc
 812              		@ args = 0, pretend = 0, frame = 0
 813              		@ frame_needed = 0, uses_anonymous_args = 0
 814              		@ link register save eliminated.
ARM GAS  C:\Users\Bruger\AppData\Local\Temp\cccZxlS9.s 			page 52


 815              	.LVL54:
 624:Generated_Source\PSoC5/CAN_TX_RX_func.c ****     #if (CY_PSOC3 || CY_PSOC5)
 625:Generated_Source\PSoC5/CAN_TX_RX_func.c ****         if ((CAN_RX[rxMailbox].rxcmd.byte[0u] & CAN_RX_ACK_MSG) != 0u)
 816              		.loc 1 625 0
 817 0000 044B     		ldr	r3, .L57
 818 0002 4001     		lsls	r0, r0, #5
 819              	.LVL55:
 820 0004 C25C     		ldrb	r2, [r0, r3]	@ zero_extendqisi2
 821 0006 D207     		lsls	r2, r2, #31
 822 0008 03D5     		bpl	.L52
 626:Generated_Source\PSoC5/CAN_TX_RX_func.c ****     #else  /* CY_PSOC4 */
 627:Generated_Source\PSoC5/CAN_TX_RX_func.c ****         if ((CAN_RX_CMD_REG(rxMailbox) & CAN_RX_ACK_MSG) != 0u)
 628:Generated_Source\PSoC5/CAN_TX_RX_func.c ****     #endif /* CY_PSOC3 || CY_PSOC5 */
 629:Generated_Source\PSoC5/CAN_TX_RX_func.c ****         {
 630:Generated_Source\PSoC5/CAN_TX_RX_func.c ****             /* `#START MESSAGE_BASIC_RECEIVED` */
 631:Generated_Source\PSoC5/CAN_TX_RX_func.c **** 
 632:Generated_Source\PSoC5/CAN_TX_RX_func.c ****             /* `#END` */
 633:Generated_Source\PSoC5/CAN_TX_RX_func.c **** 
 634:Generated_Source\PSoC5/CAN_TX_RX_func.c ****             #ifdef CAN_RECEIVE_MSG_CALLBACK
 635:Generated_Source\PSoC5/CAN_TX_RX_func.c ****                 CAN_ReceiveMsg_Callback();
 636:Generated_Source\PSoC5/CAN_TX_RX_func.c ****             #endif /* CAN_RECEIVE_MSG_CALLBACK */
 637:Generated_Source\PSoC5/CAN_TX_RX_func.c **** 
 638:Generated_Source\PSoC5/CAN_TX_RX_func.c ****             #if (CY_PSOC3 || CY_PSOC5)
 639:Generated_Source\PSoC5/CAN_TX_RX_func.c ****                 CAN_RX[rxMailbox].rxcmd.byte[0u] |= CAN_RX_ACK_MSG;
 823              		.loc 1 639 0
 824 000a C25C     		ldrb	r2, [r0, r3]	@ zero_extendqisi2
 825 000c 42F00102 		orr	r2, r2, #1
 826 0010 C254     		strb	r2, [r0, r3]
 827              	.L52:
 828 0012 7047     		bx	lr
 829              	.L58:
 830              		.align	2
 831              	.L57:
 832 0014 A0A00040 		.word	1073782944
 833              		.cfi_endproc
 834              	.LFE2:
 835              		.size	CAN_ReceiveMsg, .-CAN_ReceiveMsg
 836              		.text
 837              	.Letext0:
 838              		.file 2 "Generated_Source\\PSoC5\\cytypes.h"
 839              		.file 3 "Generated_Source\\PSoC5\\CAN.h"