ARM GAS  C:\Users\Bruger\AppData\Local\Temp\ccYYUhYC.s 			page 1


   1              		.syntax unified
   2              		.cpu cortex-m3
   3              		.fpu softvfp
   4              		.eabi_attribute 20, 1
   5              		.eabi_attribute 21, 1
   6              		.eabi_attribute 23, 3
   7              		.eabi_attribute 24, 1
   8              		.eabi_attribute 25, 1
   9              		.eabi_attribute 26, 1
  10              		.eabi_attribute 30, 2
  11              		.eabi_attribute 34, 1
  12              		.eabi_attribute 18, 4
  13              		.thumb
  14              		.file	"CAN_INT.c"
  15              		.text
  16              	.Ltext0:
  17              		.section	.gnu.lto_.profile.24c0af11,"",%progbits
  18 0000 789C6366 		.ascii	"x\234cf```a\200\000F\206\030e\000\001O\000\210"
  18      60606061 
  18      80004686 
  18      18650001 
  18      4F0088
  19              		.text
  20              		.section	.gnu.lto_.jmpfuncs.24c0af11,"",%progbits
  21 0000 789C6366 		.ascii	"x\234cf\300\016\204\24143\230d\004#&\210\020\000\003"
  21      C00E84A1 
  21      34339864 
  21      04232688 
  21      100003
  22 0013 2B001E   		.ascii	"+\000\036"
  23              		.text
  24              		.section	.gnu.lto_.inline.24c0af11,"",%progbits
  25 0000 789C6366 		.ascii	"x\234cf\300\016\342\24043\003\003\2338#\003\023\323"
  25      C00EE2A0 
  25      34330303 
  25      9B382303 
  25      13D3
  26 0012 057E06B6 		.ascii	"\005~\006\266\005\362L 1F.8\301 r\236\021(+\367\345"
  26      05F24C20 
  26      31462E38 
  26      C120729E 
  26      11282BF7 
  27 0027 AD285C9A 		.ascii	"\255(\\\232\211\233\221\201q\202\037\023\003\277\010"
  27      899B9181 
  27      71821F13 
  27      03BF08
  28 0036 504AE848 		.ascii	"PJ\350H##6\235 \202\001\000\363_\011["
  28      2323369D 
  28      20820100 
  28      F35F095B 
  29              		.text
  30              		.section	.gnu.lto_.pureconst.24c0af11,"",%progbits
  31 0000 789C6366 		.ascii	"x\234cf```g\200\000f\006)F)&)\000\001\274\000_"
  31      60606067 
  31      80006606 
  31      29462926 
  31      290001BC 
ARM GAS  C:\Users\Bruger\AppData\Local\Temp\ccYYUhYC.s 			page 2


  32              		.text
  33              		.section	.gnu.lto_CAN_BusOffIsr.24c0af11,"",%progbits
  34 0000 789C7590 		.ascii	"x\234u\220?HBQ\024\306\317w\236\351\013\033\242\246"
  34      3F484251 
  34      14C6CF77 
  34      9EE90B1B 
  34      A2A6
  35 0012 DCA2C1C9 		.ascii	"\334\242\301\311\234Z\252%\034\242%\002\033\003\013"
  35      9C5AAA25 
  35      1CA22502 
  35      1B030B
  36 0021 73684990 		.ascii	"shI\220\232B\274\257\204t\011\203\206H\014\"\242?f\377"
  36      9A42BCAF 
  36      84740983 
  36      86480C22 
  36      A23F66FF 
  37 0035 B6B6474B 		.ascii	"\266\266GK[\022\006B\210.\005\006\005\226\005=\"\352"
  37      5B120642 
  37      882E0506 
  37      0596053D 
  37      22EA
  38 0047 DE575B74 		.ascii	"\336W[t\341r\356\271\337\357~\367\343h\364wy\344^\000"
  38      E172EEB9 
  38      DFEF7EF7 
  38      E368F477 
  38      79E45E00 
  39 005b 518FACD0 		.ascii	"Q\217\254\320\010\234\271\"2t\006\324\201@\011F\002"
  39      089CB922 
  39      327406D4 
  39      81400946 
  39      02
  40 006c 0FFCCCC8 		.ascii	"\017\374\314\310\230\371u\267wG\010\321X\314\316\210"
  40      98F975B7 
  40      774708D1 
  40      58CCCE88 
  41 007c B5498B89 		.ascii	"\265I\213\211\232\374\343\203]xIB\317\311\317\262\333"
  41      9AFCE383 
  41      5D784942 
  41      CFC9CFB2 
  41      DB
  42 008d 999450FB 		.ascii	"\231\224P\373\217\206=8\245?\035w\230\342\353\253\371"
  42      8F863D38 
  42      A53F1D77 
  42      98E2EBAB 
  42      F9
  43 009e 78531F70 		.ascii	"xS\037p\264\020\335IM\375p\317\254\252v\213\213F\343"
  43      B410DD49 
  43      4DFD70CF 
  43      ACAA768B 
  43      8B46E3
  44 00b1 69AD55E1 		.ascii	"i\255U\341\322\346}{\265\277\316\026C\230\213\302\241"
  44      D2E67D7B 
  44      B5BFCE16 
  44      43988BC2 
  44      A1
  45 00c2 8C6B77C5 		.ascii	"\214kw\305k\335\276\"\325\226\337\326_]9d\215\244av"
  45      6BDDBE22 
ARM GAS  C:\Users\Bruger\AppData\Local\Temp\ccYYUhYC.s 			page 3


  45      D596DFD6 
  45      5F5D3964 
  45      8DA46176 
  46 00d6 59CCD887 		.ascii	"Y\314\330\207\007\007\360\330\342r\265\230v\373\362"
  46      0707F0D8 
  46      E272B598 
  46      76FBF2
  47 00e5 426A7E8B 		.ascii	"Bj~\2135\344\221\303\213\035T\212\227\271\372\231C\031"
  47      35E491C3 
  47      8B1D548A 
  47      97B9FA99 
  47      4319
  48 00f7 39A0DAAD 		.ascii	"9\240\332\255\364n\312\351/(v\320\342\026\034\302\207"
  48      F46ECAE9 
  48      2F2876D0 
  48      E2161CC2 
  48      87
  49 0108 82F291D1 		.ascii	"\202\362\221\321\217\340\227\304F\371\376US\017\234"
  49      8FE097C4 
  49      46F9FE55 
  49      530F9C
  50 0117 4C389652 		.ascii	"L8\226R\005K\346y\251MEU\016\233\245\225#\216\177\210"
  50      054BE679 
  50      A94D4555 
  50      0E9BA595 
  50      238E7F88 
  51 012b 94D02D76 		.ascii	"\224\320-v5U@\234 N\026\3536Z\351\374\217\224\221p\372"
  51      3555409C 
  51      204E16EB 
  51      365AE9FC 
  51      8F949170 
  52 0140 4B566198 		.ascii	"KVa\230\265\022\333(\251\371@\315E\022\335\303\221\331"
  52      B512DB28 
  52      A9F940CD 
  52      4512DDC3 
  52      91D9
  53 0152 486C6A2E 		.ascii	"Hlj.2\035\012F\347c\341\310\304X0\032\350\233\010\014"
  53      321D0A46 
  53      E763E1C8 
  53      C458301A 
  53      E89B080C 
  54 0166 8D864646 		.ascii	"\215\206FF\307{\303\364\015\256\327\226J"
  54      C77BC3F4 
  54      0DAED796 
  54      4A
  55              		.text
  56              		.section	.gnu.lto_CAN_MsgRXIsr.24c0af11,"",%progbits
  57 0000 789C6554 		.ascii	"x\234eTkhTG\024\236s\356s_\315ZJ\301m\241-\021B\301"
  57      6B685447 
  57      149E73EE 
  57      735FCD5A 
  57      4AC16DA1 
  58 0018 34209440 		.ascii	"4 \224@\333?EJ\351\237PP\372\247\202U\273\322\200\032"
  58      DB3F454A 
  58      E99F5050 
  58      FAA78255 
  58      BBD2801A 
ARM GAS  C:\Users\Bruger\AppData\Local\Temp\ccYYUhYC.s 			page 4


  59 002c 4C15FC23 		.ascii	"L\025\374#\336\315.1\006k\265\024\331&\244m\372P\323"
  59      DECD2E31 
  59      066BB514 
  59      D926A46D 
  59      FA50D3
  60 003f 34599BBE 		.ascii	"4Y\233\276V\223\352&>\242\370\010\321fCk\262\021\311"
  60      5693EA26 
  60      3EA2F808 
  60      D166436B 
  60      B211C9
  61 0052 8608D19A 		.ascii	"\206\010\321\232&\315\346\266Jz\316\314\315\262\340"
  61      26CDE6B6 
  61      4A7ACECC 
  61      CDB2E0
  62 0061 6577F6CE 		.ascii	"ew\366\316\234\357|s\276\357\314\254&\036\177v\322\367"
  62      9CEF7C73 
  62      BEEFCCAC 
  62      261E7F76 
  62      D2F7
  63 0073 0D43886A 		.ascii	"\015C\210j\372\005\237\000<|]\210\230\215`\251\027\015"
  63      FA059F00 
  63      3C7C5D88 
  63      988D60A9 
  63      170D
  64 0085 F5A60AE1 		.ascii	"\365\246\012\341\370M\036\203:\032\277?\315\263\276"
  64      F84D1E83 
  64      3A1ABF3F 
  64      CDB3BE
  65 0094 6A9A1960 		.ascii	"j\232\031`*\220\251\320\375\266\205\332\371\313\202"
  65      2A90A9D0 
  65      FDB685DA 
  65      F9CB82
  66 00a3 00F6559D 		.ascii	"\000\366U\235\0006\000\257\013\020\373P\323\015\323"
  66      003600AF 
  66      0B10FB50 
  66      D30DD3
  67 00b2 B2611F5A 		.ascii	"\262a\037Z\002\302\374\241\347.\316\"\034\316t&\003"
  67      02C2FCA1 
  67      E72ECE22 
  67      1CCE7426 
  67      03
  68 00c3 15DF3A8E 		.ascii	"\025\337:\216\363``\244\326\371\364=\027\205\230CU\036"
  68      F36060A4 
  68      D6F9F43D 
  68      17859843 
  68      551E
  69 00d5 1C870A41 		.ascii	"\034\207\012A\240Tb\370`H[\005\374\376Ek\342\206^\336"
  69      A05462F8 
  69      60485B05 
  69      FCFE456B 
  69      E2865EDE 
  70 00e9 EE380DB7 		.ascii	"\3568\015\267\273\357\015\006\234\244\223\270\275\264"
  70      BBEF0D06 
  70      9CA493B8 
  70      BDB4
  71 00f7 F49C8B00 		.ascii	"\364\234\213\000'@\243LX\035\201\027#\236@JH\247\037"
  71      2740A34C 
ARM GAS  C:\Users\Bruger\AppData\Local\Temp\ccYYUhYC.s 			page 5


  71      581D8117 
  71      239E404A 
  71      48A71F
  72 010a 3DD4B535 		.ascii	"=\324\26552\371\312\235\305\271\3404\272\210a\236\266"
  72      32F9CA9D 
  72      C5B9E034 
  72      BA88619E 
  72      B6
  73 011b 8CE6E735 		.ascii	"\214\346\3475\236j\310\323\376\261\302\020*\352\324"
  73      9E6AC8D3 
  73      FEB1C210 
  73      2AEAD4
  74 012a 47CD41E7 		.ascii	"G\315A\347\3042\265\016\337)\352N\210\300\367PB>\233"
  74      C432B50E 
  74      DF29EA4E 
  74      88C0F750 
  74      423E9B
  75 013d 78341A30 		.ascii	"x4\0320\023T~\030:\240\034\272\240\\U\017\335`\202\020"
  75      13547E18 
  75      3AA01CBA 
  75      A05C550F 
  75      DD608210 
  76 0151 B8BC9A7A 		.ascii	"\270\274\232z2\343,-\315e\263\323\257\232+@\3602\361"
  76      32E32C2D 
  76      CD65B3D3 
  76      AF9A2B40 
  76      F032F1
  77 0164 51C0122E 		.ascii	"Q\300\022.\0326\015\246\217\007?\015V\200\207 \015v"
  77      1A360DA6 
  77      8F073F0D 
  77      56808720 
  77      0D76
  78 0176 88A36512 		.ascii	"\210\243e\022\030\226IBL\022=\371\233G\244\037-\013"
  78      18964942 
  78      4C123DF9 
  78      9B47A41F 
  78      2D0B
  79 0188 0D998996 		.ascii	"\015\231\211\226\247\344v\004\242\222\206[\216\305\313"
  79      A7E47604 
  79      A292865B 
  79      8EC5CB
  80 0197 58944EDB 		.ascii	"X\224N\333\244\250\330?a\340\301\311\361\243>\306P|"
  80      A4A8D83F 
  80      61E0C1C9 
  80      F1A33EC6 
  80      507C
  81 01a9 F1EB23AF 		.ascii	"\361\353#\257p\330\347d\032\034\235ELL\016\015\333r"
  81      70D8E764 
  81      1A1C9D45 
  81      4C4C0E0D 
  81      DB72
  82 01bb 496A1AFD 		.ascii	"Ij\032\375'9o\265Ak,\021\313\254t\321\017'I\365\017"
  82      27396FB5 
  82      416B2C11 
  82      CBAC74D1 
  82      0F2749F5 
  83 01d0 AC9A82FB 		.ascii	"\254\232\202\373sC\007\002\225\235\016\305\252\\\014"
ARM GAS  C:\Users\Bruger\AppData\Local\Temp\ccYYUhYC.s 			page 6


  83      73430702 
  83      959D0EC5 
  83      AA5C0C
  84 01df 400FB4C1 		.ascii	"@\017\264\301\337\350\2711\3306\335\2433\221%\335n?"
  84      DFE8B931 
  84      D836DDA3 
  84      339125DD 
  84      6E3F
  85 01f1 70BCC9AC 		.ascii	"p\274\311\254\352b\354k.\006\341G\250\204\237\224{\360"
  85      EA62EC6B 
  85      2E06E147 
  85      A8849F94 
  85      7BF0
  86 0203 335495F6 		.ascii	"3T\225\366\303 u\277P\210\345$\237\221j:\244\232bmd"
  86      C32075BF 
  86      5088E524 
  86      9F916A3A 
  86      A49A626D 
  87 0218 26FC2A93 		.ascii	"&\374*\223\363\250\011:g\032\351Zh^\230Y\317\350\002"
  87      F3A8093A 
  87      671AE95A 
  87      685E9859 
  87      CFE802
  88 022b DA04FEB8 		.ascii	"\332\004\376\270\320\233\227t\241\246\307\264\205d\205"
  88      D09B9774 
  88      A1A6C7B4 
  88      856485
  89 023a CD9FFDDB 		.ascii	"\315\237\375\333\252\264\201\213O@\232\224\235bR8M:"
  89      AAB4818B 
  89      4F409A94 
  89      9D625238 
  89      4D3A
  90 024c C8A9F862 		.ascii	"\310\251\370b\343\344JE\350#\316\002\231<\002\211?\342"
  90      E3E44A45 
  90      E823CE02 
  90      993C0289 
  90      3FE2
  91 025e 5F81B748 		.ascii	"_\201\267H\034\261c\275\007-\2464)\257\327;\015y\324"
  91      1CB163BD 
  91      072DA634 
  91      29AFD73B 
  91      0D79D4
  92 0271 C59D5554 		.ascii	"\305\235UTSCn\377\305{{\024\332_@Iz\324T\363\000-\021"
  92      53436EFF 
  92      C57B7B14 
  92      DA5F4049 
  92      7AD454F3 
  93 0288 C1A9EEF9 		.ascii	"\301\251\356\371k\001i\323\363\002\372d\207\342I\017"
  93      6B0169D3 
  93      F302FA64 
  93      87E2490F 
  94 0298 12A4F85F 		.ascii	"\022\244\370_\263\227\027d\007\355/\373Y\006\374\006"
  94      B3971764 
  94      07ED2FFB 
  94      5906FC06 
  95 02a8 114AE646 		.ascii	"\021J\346F\236n\257V\270P\2516[jk9\222\316\372\274\276"
  95      9E6EAF56 
ARM GAS  C:\Users\Bruger\AppData\Local\Temp\ccYYUhYC.s 			page 7


  95      B850A936 
  95      5B6A6B39 
  95      92CEFABC 
  96 02bd 91DF6544 		.ascii	"\221\337eD\006g\274\266\215\317\234\275k\252\266\275"
  96      0667BCB6 
  96      8DCF9CBD 
  96      6BAAB6BD 
  97 02cd CB2D3D2B 		.ascii	"\313-=+\333\006\252m\207\276\271\321g\250`-\3674\003"
  97      DB06AA6D 
  97      87BEB9D1 
  97      67A8602D 
  97      F73403
  98 02e0 95C59616 		.ascii	"\225\305\226\026\305Zr\232\313\015\247\015\325\322\035"
  98      C55A729A 
  98      CB0DA70D 
  98      D5D21D
  99 02ef DCD27E6A 		.ascii	"\334\322~j\351\200\327\322sP\245\034\234\211\250\032"
  99      E980D7D2 
  99      7350A51C 
  99      9C89A81A 
 100 02ff 2D556651 		.ascii	"-UfQ\256Ar\317\023X:\332\3439j\225nB\177Ep\241\350\250"
 100      AE4172CF 
 100      13583ADA 
 100      E3396A95 
 100      6E427F45 
 101 0317 2146FCDA 		.ascii	"!F\374\332\030$27o=\313`.\340\363\233\207\272q\357\177"
 101      18243237 
 101      6F3DCB60 
 101      2EE0F39B 
 101      87BA71EF 
 102 032c 4E9363BB 		.ascii	"N\223c\273\030\236\223\307\342\"\354\025\344\264\213"
 102      189E93C7 
 102      E222EC15 
 102      E4B48B
 103 033b 2B649AE9 		.ascii	"+d\232\351\235\216\370X\343\375\373\357\250]\310\014"
 103      9D8EF858 
 103      E3FDFBEF 
 103      A85DC80C 
 104 034b 9497210B 		.ascii	"\224\227!\013\270|Wh\225\353\375\244qjf\301s?L4\245"
 104      B87C5768 
 104      95EBFDA4 
 104      716A66C1 
 104      733F4C34 
 105 0360 5708E80A 		.ascii	"W\010\350\012\015\226dupVX\356b\011\372s\343\353\027"
 105      0D966475 
 105      705658EE 
 105      6209FA73 
 105      E3EB17
 106 0373 168A0C85 		.ascii	"\026\212\014\205\232H\014\260\310k\361\255\212\2269"
 106      9A480CB0 
 106      C86BF1AD 
 106      8A9639
 107 0382 5317AE0C 		.ascii	"S\027\256\014\230\222\223\256\363%\245q\012\200\317"
 107      989293AE 
 107      F325A571 
 107      0A80CF
 108 0391 345E22A7 		.ascii	"4^\"\247\302f\272z\012d\221\370p\244\035\250:sl\274"
ARM GAS  C:\Users\Bruger\AppData\Local\Temp\ccYYUhYC.s 			page 8


 108      C266BA7A 
 108      0A6491F8 
 108      70A41DA8 
 108      3A736CBC 
 109 03a5 0B682B9B 		.ascii	"\013h+\233/z\016b\231\211[\262\014N\235\244-\256\352"
 109      2F7A0E62 
 109      99895BB2 
 109      0C4E9DA4 
 109      2DAEEA
 110 03b8 D4A517DE 		.ascii	"\324\245\027\336\214\356\210\326o\332\025}\177\343\272"
 110      8CEE88D6 
 110      6FDA157D 
 110      7FE3BA
 111 03c7 BADDF55B 		.ascii	"\272\335\365[\242\033\336^W\267\366\345\015k_\257\331"
 111      A21BDE5E 
 111      57B7F6E5 
 111      0D6B5FAF 
 111      D9
 112 03d8 F856CDFA 		.ascii	"\370V\315\372\227\266\210\320\366M\265\3336\327\355"
 112      97B688D0 
 112      F64DB5DB 
 112      36D7ED
 113 03e7 A9D9BD7D 		.ascii	"\251\331\275}s\264\336\370\360\203\332\255\273\376\007"
 113      73B4DEF8 
 113      F083DAAD 
 113      BBFE07
 114 03f6 0339EF7D 		.ascii	"\0039\357}"
 115              		.text
 116              		.section	.gnu.lto_CAN_ISR.24c0af11,"",%progbits
 117 0000 789C9592 		.ascii	"x\234\225\222_HSq\024\307\177\347\334\277\272=D\201"
 117      5F485371 
 117      14C77FE7 
 117      DCBFBA3D 
 117      4481
 118 0012 840F83F0 		.ascii	"\204\017\203\360\301'\333S\004\341K\370\020BH`\275\011"
 118      C127DB53 
 118      04E14BF8 
 118      10424860 
 118      BD09
 119 0024 1236E829 		.ascii	"\0226\350)a\324\243x\227\253\024\"V\3700\212E\021e\265"
 119      61D4A378 
 119      97AB1422 
 119      56F8308A 
 119      451165B5 
 120 0038 D45C7F9D 		.ascii	"\324\\\177\235\006\027_|\010\224\330je\313\312?0\241"
 120      06175F7C 
 120      0894D86A 
 120      65CBCA3F 
 120      30A1
 121 004a 60F35A6E 		.ascii	"`\363Zn\205\3309\277;eMz\350\302\375\375v\317\371\376"
 121      85D839BF 
 121      3B654D7A 
 121      E8C2FDFD 
 121      76CFF9FE 
 122 005e CEF97DCE 		.ascii	"\316\371}\316w\212\330\371\034\245\367\264\"D\003\355"
 122      778AD8F9 
 122      1CA5F7B4 
ARM GAS  C:\Users\Bruger\AppData\Local\Temp\ccYYUhYC.s 			page 9


 122      224403ED 
 123 006e 6008C0C8 		.ascii	"`\010\300\310\214\020!\023QI\327\011\253V\235<(,\257"
 123      8C102113 
 123      5149D709 
 123      AB569D3C 
 123      282CAF
 124 0081 02AA1B56 		.ascii	"\002\252\033VQK\372(\254\277\363SX\003\335\015\353\000"
 124      514BFA28 
 124      ACBFF353 
 124      5803DD0D 
 124      EB00
 125 0093 FC4380E8 		.ascii	"\374C\200\350EE\325t\350\205\025, D\354x\324\323x\327"
 125      4545D574 
 125      E885152C 
 125      2044EC78 
 125      D4D378D7 
 126 00a7 B2ACFC94 		.ascii	"\262\254\374\224\243]\330[B!\034t\033\303\0204\012\322"
 126      A35DD85B 
 126      42211C74 
 126      1BC31034 
 126      0AD2
 127 00b9 14C21B19 		.ascii	"\024\302\033\031\217\036&\315.7\007\367A\007\332Gw\333"
 127      8F1E26CD 
 127      2E3707F7 
 127      4107DA47 
 127      77DB
 128 00cb D6E6666A 		.ascii	"\326\346fjfz\265\001\274\252(!h\274\030\274\230\274"
 128      667AB501 
 128      BCAA2821 
 128      68BC18BC 
 128      98BC
 129 00dd 08B1447A 		.ascii	"\010\261Dzn\274\214\310\2732\007S\311B6z\015\270\306"
 129      6EBC8CC8 
 129      BB320753 
 129      C942367A 
 129      0DB8C6
 130 00f0 3AAA54BE 		.ascii	":\252T\276x\347\352\241\034\226\020-\373\274\245r\303"
 130      78E7EAA1 
 130      1C96102D 
 130      FBBCA572 
 130      C3
 131 0101 CF4BB36F 		.ascii	"\317K\263oL\031\022\374\231\371\021]3bp#\024\016\331"
 131      4C1912FC 
 131      99F9115D 
 131      33627023 
 131      140ED9
 132 0114 BE122AF0 		.ascii	"\276\022*\360\000\352\341!\324\313\344\245\371\331\001"
 132      00EAE121 
 132      D4CBE4A5 
 132      F9D901
 133 0123 4F53DCA2 		.ascii	"OS\334\242\\s\011U\210C\014V%\000%\247c\271\204\312"
 133      5C730955 
 133      88430C56 
 133      250025A7 
 133      63B984CA 
 134 0137 8534E0CF 		.ascii	"\2054\340\317\333\003C\375\272\177\230\265\255%\324"
 134      DB0343FD 
ARM GAS  C:\Users\Bruger\AppData\Local\Temp\ccYYUhYC.s 			page 10


 134      BA7F98B5 
 134      AD25D4
 135 0146 E11134C1 		.ascii	"\341\0214\3010\327!\244\021\360\2139\350+^L\033\356"
 135      30D721A4 
 135      11F08B39 
 135      E82B5E4C 
 135      1BEE
 136 0158 D50CF776 		.ascii	"\325\014\367v\3273\313k\012\227\000\0240J\342\267\020"
 136      D733CB6B 
 136      0A970014 
 136      304AE2B7 
 136      10
 137 0169 FED0172C 		.ascii	"\376\320\027,kH\020\2727q\331\220\002\252\362\330\255"
 137      6B4810BA 
 137      3771D990 
 137      02AAF2D8 
 137      AD
 138 017a 46B88A48 		.ascii	"F\270\212H\3271m>\377}\260\346\257!\332\353\0139\220"
 138      D7316D3E 
 138      FF7DB0E6 
 138      AF21DAEB 
 138      0B3990
 139 018d 337410AA 		.ascii	"3t\020\252\347\013c\240S\235\004\350\224\370\372\313"
 139      E70B63A0 
 139      539D04E8 
 139      94F8FACB 
 140 019d 39C1DC83 		.ascii	"9\301\334\203!\263\032;\021\317D4\211\375\345\343\212"
 140      21B31A3B 
 140      11CF4434 
 140      89FDE5E3 
 140      8A
 141 01ae 87C19F94 		.ascii	"\207\301\237\224\301e\005R\274\177\265q\013]\330f\206"
 141      C1650552 
 141      BC7FB571 
 141      0B5DD866 
 141      86
 142 01bf 7DBA052B 		.ascii	"}\272\005+\005\360\014\374\022'\013}\366x\312\313\035"
 142      05F00CFC 
 142      12270B7D 
 142      F678CACB 
 142      1D
 143 01d0 F9D4CDD4 		.ascii	"\371\324\315\324\225\021\354\371m\365[\324\322p\020"
 143      9511ECF9 
 143      6DF55BD4 
 143      D27010
 144 01df 5DF573E8 		.ascii	"]\365s\350!?M\251\316\356\371\227Xq\305/\312b\036\203"
 144      213F4DA9 
 144      CEEEF997 
 144      5871C52F 
 144      CA621E83 
 145 01f3 BAEDFAD8 		.ascii	"\272\355\372\330\317m\327\315\3775\365e\245\251\325"
 145      CF6DD7CD 
 145      FF35F565 
 145      A5A9D5
 146 0202 2E8E57B8 		.ascii	".\216W\270\230\334r\361[\331E\315\355\366z\241\350x"
 146      98DC72F1 
 146      5BD945CD 
ARM GAS  C:\Users\Bruger\AppData\Local\Temp\ccYYUhYC.s 			page 11


 146      EDF67AA1 
 146      E878
 147 0214 A54934E2 		.ascii	"\245I4\342\211*\027\265\012\3334\221\364)L\371i1'o\273"
 147      892A17B5 
 147      0ADB3491 
 147      F4294CF9 
 147      6931276F 
 148 0229 83B3C621 		.ascii	"\203\263\306!(\001\223\022\262V\036\322%\344<\204lg"
 148      28019312 
 148      B2561ED2 
 148      25E43C84 
 148      6C67
 149 023b D1948704 		.ascii	"\321\224\207\004\377\363\201\303t\353}G\002g\002\301"
 149      FFF381C3 
 149      74EB7D47 
 149      026702C1 
 150 024b 936703A7 		.ascii	"\223g\003\247:\333\273\317\005\273\002\035\307\332\273"
 150      3ADBBBCF 
 150      05BB021D 
 150      C7DABB
 151 025a 5B0E74B4 		.ascii	"[\016t\264\034n\353lm;\276\277K\374\001*\325E^"
 151      1C6EEB6C 
 151      6D3BBEBF 
 151      4BFC012A 
 151      D5455E
 152              		.text
 153              		.section	.gnu.lto_.symbol_nodes.24c0af11,"",%progbits
 154 0000 789C55C7 		.ascii	"x\234U\307\301\015@P\020E\321;3\377\213JT\243\247\321"
 154      C10D4050 
 154      1045D13B 
 154      33FF8B4A 
 154      54A3A7D1 
 155 0014 80440562 		.ascii	"\200D\005ba\243\015\021vV\012\260P\207 ,\276\267\271"
 155      61A30D11 
 155      76560AB0 
 155      5087202C 
 155      BEB7B9
 156 0027 EF1850F3 		.ascii	"\357\030P\363MqhVp\247\355rT\\~V\327\324\022\334^SU"
 156      4D716856 
 156      70A7ED72 
 156      545C7E56 
 156      D7D412DC 
 157 003e 37CD43CA 		.ascii	"7\315C\312\3501\241\021\230\366S\354~\307S\211\364\313"
 157      E831A111 
 157      98F653EC 
 157      7EC75389 
 157      F4CB
 158 0050 569A06FA 		.ascii	"V\232\006\372\24105\246'\3028\317\031\027\010n$\277"
 158      A13035A6 
 158      27C238CF 
 158      1917086E 
 158      24BF
 159              		.text
 160              		.section	.gnu.lto_.refs.24c0af11,"",%progbits
 161 0000 789C6366 		.ascii	"x\234cf```d\200\002\000\000=\000\005"
 161      60606064 
 161      80020000 
ARM GAS  C:\Users\Bruger\AppData\Local\Temp\ccYYUhYC.s 			page 12


 161      3D0005
 162              		.text
 163              		.section	.gnu.lto_.decls.24c0af11,"",%progbits
 164 0000 789C9556 		.ascii	"x\234\225VyL\024g\024\2377\337\260,\353\002F\032kH\232"
 164      794C1467 
 164      149F37DF 
 164      B02CEB02 
 164      461A6B48 
 165 0015 6E494A6C 		.ascii	"nIJlkL\217\324\264\177\325\243\326\252)5\200I\233\232"
 165      6B4C8FD4 
 165      B47FD5A3 
 165      D6AA2935 
 165      80499B9A 
 166 0029 1084B525 		.ascii	"\020\204\265%\301\243\0136\372\337 h\021\244\001\253"
 166      C1A30B36 
 166      FADF2068 
 166      11A401AB 
 167 0039 025E5DCB 		.ascii	"\002^]\313ma\241\326\213C\004m-\312e+\202x\320\025\252"
 167      6D61A1D6 
 167      8B43046D 
 167      2DCA652B 
 167      8278D015 
 168 004e 45A976E5 		.ascii	"E\251v\345P\024\313\366}of\330]\334m\355$o\347\373f"
 168      5014CBF6 
 168      7D6F66D8 
 168      5DDC6DED 
 168      246FE7FB 
 169 0063 7EEFF7CE 		.ascii	"~\357\367\316\357\3152A\020\022A\020\234x\371\031\005"
 169      EFCD3241 
 169      10124110 
 169      9C78F919 
 169      05
 170 0074 E1155C4B 		.ascii	"\341\025\\K\370l\231\340\272t(\345(6\224*\224\343(5"
 170      F86C99E0 
 170      BA7428E5 
 170      2836942A 
 170      94E32835 
 171 0088 28F5C293 		.ascii	"(\365\302\223\027\307\005\250\372m(\255(?\241\274\217"
 171      17C705A8 
 171      FA6D28AD 
 171      283FA1BC 
 171      8F
 172 0099 D288321D 		.ascii	"\322\2102\035\245\035\345(\012\232\022~Fa\252^\215\312"
 172      A51DE528 
 172      0A9A127E 
 172      4661AA5E 
 172      8DCA
 173 00ab 3DF9E276 		.ascii	"=\371\342v\247\251\234\207Q\202P\320U\241S\3453\251"
 173      A7A99C87 
 173      518250D0 
 173      55A153E5 
 173      33A9
 174 00bd FC8F26D9 		.ascii	"\374\217&\331\344\366\270\021'\336\036\362%\256\353"
 174      E4F6B811 
 174      27DE1EF2 
 174      25AEEB
 175 00cc F02EAA76 		.ascii	"\360.\252v\035\352\332\346#\026\036\353\024\325\356"
ARM GAS  C:\Users\Bruger\AppData\Local\Temp\ccYYUhYC.s 			page 13


 175      1DEADAE6 
 175      23161EEB 
 175      14D5EE
 176 00db 741FF168 		.ascii	"t\037\361h\261\210\310]\346\026\223\237\252\357\036"
 176      B188C85D 
 176      E616939F 
 176      AAEF1E
 177 00ea 97CD8B8D 		.ascii	"\227\315\213\215{\"T\333\206[\247\364\213\020d0\361"
 177      7B2254DB 
 177      865BA7F4 
 177      8B106430 
 177      F1
 178 00fb 6DCDF6A6 		.ascii	"m\315\366\246<\035n\215\006\211ok\307z;\244gw\312xe"
 178      3C1D6E8D 
 178      06896F6B 
 178      C77A3BA4 
 178      6777CA78 
 179 0110 A7CA5325 		.ascii	"\247\312S%X6\035J \024J!\024\255\225\301\263\370\373"
 179      58361D4A 
 179      20144A21 
 179      14AD95C1 
 179      B3F8FB
 180 0123 89A430ED 		.ascii	"\211\2440\355r8\212\030CWp]\220w\275\3030\353 \252\245"
 180      72388A18 
 180      4357705D 
 180      9077BDC3 
 180      30EB20AA 
 181 0138 CB0D0DA2 		.ascii	"\313\015\015\242\313\\\341\316M\333\375M\373e{\225\243"
 181      CB5CE1CE 
 181      4DDBFD4D 
 181      FB657B95 
 181      A3
 182 0149 B2EAEBC0 		.ascii	"\262\352\353\300|\331\272I\036w:A\344dp\020\030|\007"
 182      7CD9BA49 
 182      1E773A41 
 182      E4647010 
 182      187C07
 183 015c B32873B8 		.ascii	"\263(s\270&%(\007\023*\236\031\330\262Wbo\023{y\301"
 183      26252807 
 183      132A9E19 
 183      D8B25762 
 183      6F137B79 
 184 0171 E6F34144 		.ascii	"\346\363ADb-\257\3205\311\015N\347;\244_\341\246_\241"
 184      622DAFD0 
 184      35C90D4E 
 184      E73BA45F 
 184      E1A65FA1 
 185 0185 E9DB48BF 		.ascii	"\351\333H\277-\353\362e={\217\364\233\273\372g\241\272"
 185      2DEBF265 
 185      3D7B8FF4 
 185      9BBBFA67 
 185      A1BA
 186 0197 B5CABEB7 		.ascii	"\265\312\276\2672\276!M~\354t2\212\006*\335\010*5\202"
 186      32BE214D 
 186      7EEC7432 
 186      8A062ADD 
 186      082A3582 
ARM GAS  C:\Users\Bruger\AppData\Local\Temp\ccYYUhYC.s 			page 14


 187 01ab 2A22E83C 		.ascii	"*\"\350<\371\345\227z\026A\004)\305\265\333\3741K\323"
 187      F9E5977A 
 187      16410429 
 187      C5B5DBFC 
 187      314BD3
 188 01be 0D14D457 		.ascii	"\015\024\324W\315\273\033\031m\235\374\265\330\335\275"
 188      CDBB1B19 
 188      6D9DFCB5 
 188      D8DDBD
 189 01cd E3210343 		.ascii	"\343!\003Cx\272,o\222\035\333e6C\200Y\241\360R\250\000"
 189      78BA2C6F 
 189      921DDB65 
 189      36438059 
 189      A1F052A8 
 190 01e2 47201C61 		.ascii	"G \034ad\003\016a\"\177\300D\026b\232\034\345\251\365"
 190      64030E61 
 190      227FC044 
 190      16629A1C 
 190      E5A9F5
 191 01f5 4B52E5B9 		.ascii	"KR\345\271p\030\014\360\375\204\027dAM\335\326\264*"
 191      70180CF0 
 191      FD841764 
 191      414DDDD6 
 191      B42A
 192 0207 E65E0A8E 		.ascii	"\346^\012\216t\325\342\250G-\216\025\247\365\030\330"
 192      74D5E2A8 
 192      472D8E15 
 192      A7F518D8 
 193 0217 17E4ECA1 		.ascii	"\027\344\354\241\342\363\035\022\317\226\354p\236\356"
 193      E2F31D12 
 193      CF96EC70 
 193      9EEE
 194 0225 9B97939A 		.ascii	"\233\227\223\232](\333\235\316\347I\007\216\271E|L\213"
 194      5D28DB9D 
 194      CEE74907 
 194      8EB9457C 
 194      4C8B
 195 0237 F83845BC 		.ascii	"\3708E\274\265\"\253Bb\373@\251h\361\257\271zb\261\346"
 195      B522AB42 
 195      62FB40A9 
 195      68F1AFB9 
 195      7A62B1E6 
 196 024b 976C31A9 		.ascii	"\227l1\251I\347\014\325n\014\325\032C\0151don\314\226"
 196      49E70CD5 
 196      6E0CD51A 
 196      430D3164 
 196      6F6ECC96 
 197 025f 242C3F39 		.ascii	"$,?9\373\011\265\324\210\363z\221\350\263\245\352(\214"
 197      FB09B5D4 
 197      88F37A91 
 197      E8B3A5EA 
 197      288C
 198 0271 5A50E3D8 		.ascii	"ZP\343\330\261g\370\256\221\035R\\x\260\363\3741\003"
 198      B167F8AE 
 198      911D525C 
 198      78B0F3FC 
 198      3103
ARM GAS  C:\Users\Bruger\AppData\Local\Temp\ccYYUhYC.s 			page 15


 199 0283 B960AFB9 		.ascii	"\271`\257\271e>\245\325\015U\340\204\233\017'4\037\352"
 199      653EA5D5 
 199      0D55E084 
 199      9B0F2734 
 199      1FEA
 200 0295 C9073937 		.ascii	"\311\00797\263P\317\032\025\212#\3673\252\003\015X\227"
 200      B350CF1A 
 200      158A23F7 
 200      33AA030D 
 200      5897
 201 02a7 D4A7A80B 		.ascii	"\324\247\250\013V\262\243-\2433@\251\344d\215S>+yzp"
 201      56B2A32D 
 201      A33340A9 
 201      E4648D53 
 201      3E2B797A 
 202 02bc 691A56B2 		.ascii	"i\032V\262\021C>\351\252d\003\270J\371\225\255p(\230"
 202      11433EE9 
 202      AA6403B8 
 202      4AF995AD 
 202      702898
 203 02cf 4E19E3DB 		.ascii	"N\031\343\333\322\003W[\030\367\212R\022\320\024\204"
 203      D203575B 
 203      18F78A52 
 203      12D01484 
 204 02df 2FDC72F2 		.ascii	"/\334r\362#\327\204\231\241p\232\234\202\236\326\255"
 204      23D78499 
 204      A1709A9C 
 204      829ED6AD 
 205 02ef 997ED3B2 		.ascii	"\231~\323\262\011n\225M@\226\\\360\237`\232\246\304"
 205      096E954D 
 205      40965CF0 
 205      9F609AA6 
 205      C4
 206 0300 D1FB2E66 		.ascii	"\321\373.f\335\222\330\031\212\237\345\247;V@Xx\210"
 206      DD92D819 
 206      8A9FE5A7 
 206      3B564058 
 206      7888
 207 0312 554E4B71 		.ascii	"UNKq8\013\234\313rdy\333\014\256\002g\320\325\263\020"
 207      380B9CCB 
 207      726479DB 
 207      0CAE0267 
 207      D0D5B310 
 208 0326 32418406 		.ascii	"2A\204\006\221\346e\374\241\260\354c\005:\0318B\320"
 208      91E665FC 
 208      A1B0EC63 
 208      053A1938 
 208      42D0
 209 0338 32AD5C39 		.ascii	"2\255\\9\252\037s?\027\334\234\340L\010\203&\314\322"
 209      AA1F733F 
 209      17DC9CE0 
 209      4C088326 
 209      CCD2
 210 034a CF10A605 		.ascii	"\317\020\246\005^\2212\364\220\261frF\3149r\247\326"
 210      5E9132F4 
 210      90B16672 
 210      46CC3972 
ARM GAS  C:\Users\Bruger\AppData\Local\Temp\ccYYUhYC.s 			page 16


 210      A7D6
 211 035c 08E12144 		.ascii	"\010\341!D?\036\247\207\026T:\347\312\030\267\345\323"
 211      3F1EA787 
 211      16543AE7 
 211      CA18B7E5 
 211      D3
 212 036d 043423B3 		.ascii	"\0044#\263\017+\345\367R\322!\004\265R\376MKpW\3315"
 212      0F2BE5F7 
 212      52D22104 
 212      B552FE4D 
 212      4B7057D9 
 213 0382 78A522D0 		.ascii	"x\245\"\320\230\301\017\254Z\202V\267\\\010\320\006"
 213      98C10FAC 
 213      5A8256B7 
 213      5C08D006 
 214 0392 46EA29BC 		.ascii	"F\352)\274#z\364\300\365\233\301\036h~\020\\\350v\025"
 214      237AF4C0 
 214      F59BC11E 
 214      687E105C 
 214      E87615
 215 03a5 DD4EE8E6 		.ascii	"\335N\350\346\336\321!#\215\330\251\334\324\356\256"
 215      DED12123 
 215      8DD8A9DC 
 215      D4EEAE
 216 03b4 1BC38C8A 		.ascii	"\033\303\214\212/R}\006\357\326\005\260N\360\030,&e"
 216      2F527D06 
 216      EFD605B0 
 216      4EF0182C 
 216      2665
 217 03c6 B0E40E8C 		.ascii	"\260\344\016\214\036\326\323\226w:\246l\254\317V\242"
 217      1ED6D396 
 217      773AA66C 
 217      ACCF56A2 
 218 03d6 837083D2 		.ascii	"\203p\203\322h\005\312\310\350\304\362\377\352J\233"
 218      6805CAC8 
 218      E8C4F2FF 
 218      EA4A9B
 219 03e5 49ED339A 		.ascii	"I\3553\232>\330\266~\245A\002\234G\337~\341\011\270"
 219      3ED8B67E 
 219      A541029C 
 219      47DF7EE1 
 219      09B8
 220 03f7 880930A9 		.ascii	"\210\0110\251m{\001\037v\360\207\310\300\207}KY\245"
 220      6D7B011F 
 220      76F087C8 
 220      C0877D4B 
 220      59A5
 221 0409 487ECAA2 		.ascii	"H~\312\242\373\247\301\250|\032j/4d\212\354\232\342"
 221      FBA7C1A8 
 221      7C1A6A2F 
 221      34648AEC 
 221      9AE2
 222 041b E8E3CEF6 		.ascii	"\350\343\316\366o\200\365)\233C\005EG\003Hq\2562\343"
 222      6F80F529 
 222      9B430545 
 222      47034871 
 222      AE32E3
ARM GAS  C:\Users\Bruger\AppData\Local\Temp\ccYYUhYC.s 			page 17


 223 042e 7795FB91 		.ascii	"w\225\373\221\236\236o\273\272\0345\006\326\257\236"
 223      9E9E6FBB 
 223      BA1C3506 
 223      D6AF9E
 224 043d E102FB00 		.ascii	"\341\002\373\000\320;\177\276\265\217g\313\301\276;"
 224      D03B7FBE 
 224      B58F67CB 
 224      C1BE3B
 225 044c FF37ADF3 		.ascii	"\3777\255\363{\324\316?\3307\0220\271\363\257 \374*"
 225      7BD4CE3F 
 225      D8371230 
 225      B9F3AF20 
 225      FC2A
 226 045e C1EDD4F9 		.ascii	"\301\355\324\371\277\251\235\317l\307\253\353\202 ,"
 226      BFA99DCF 
 226      6CC7ABEB 
 226      82202C
 227 046d 245CE9F6 		.ascii	"$\\\351\366\2761\265\333\355j\267\367b\2055e\267nw\357"
 227      BE31B5DB 
 227      ED6AB7F7 
 227      62853565 
 227      B76E77EF 
 228 0481 361777AF 		.ascii	"6\027w\257\332j}\230\277\353j\337P\343\336\241s\321"
 228      DA6A7D98 
 228      BFEB6ADF 
 228      50E3DEA1 
 228      73D1
 229 0493 FBC4B9C0 		.ascii	"\373\304\271\300j\325=\336_g\320\032|\024\033\374\006"
 229      6AD53DDE 
 229      5F67D01A 
 229      7C141BFC 
 229      06
 230 04a4 925C7355 		.ascii	"\222\\sU\252\327[\203Ox\364;Z\362f\025\363p+#\263>\230"
 230      AAD75B83 
 230      4F78F43B 
 230      5AF26615 
 230      F3702B23 
 231 04bb 3D50527A 		.ascii	"=PRz\362\333\326n\035\033W6Z\257\031\225^\313\261\035"
 231      F2DBD66E 
 231      1D1B5736 
 231      5AAF1995 
 231      5ECBB11D 
 232 04cf 2EF16769 		.ascii	".\361gi\312G\2711\267\250/\230e(\233\374\007-g\224\021"
 232      CA47B931 
 232      B7A82F98 
 232      65289BFC 
 232      072D6794 
 233 04e4 34836F1D 		.ascii	"4\203o\035\243C\371\"\313\241w\001\216\257\1779\213"
 233      A343F922 
 233      CBA17701 
 233      8EAF7F39 
 233      8B
 234 04f5 89E35748 		.ascii	"\211\343WHXx\230\225\273\337\276y\211\234\367*\035\321"
 234      58789895 
 234      BBDFBE79 
 234      899CF72A 
 234      1DD1
ARM GAS  C:\Users\Bruger\AppData\Local\Temp\ccYYUhYC.s 			page 18


 235 0507 DB18C1A0 		.ascii	"\333\030\301\240\373\244\030\200\211\344\021\266e\363"
 235      FBA41880 
 235      89E411B6 
 235      65F3
 236 0515 528EE5D1 		.ascii	"R\216\345\321\336T\261\023Q]\235\204\275\344\342\375"
 236      DE54B113 
 236      515D9D84 
 236      BDE4E2FD 
 237 0525 D33B6F09 		.ascii	"\323;o\011h`\353\271\027Uh\367d\350L\017Vk\253\006\374"
 237      6860EBB9 
 237      175568F7 
 237      64E84C0F 
 237      566BAB06 
 238 053a 6332B01F 		.ascii	"c2\260\037&\025Z\246\254w\341\373K\364jPM\3710\246\334"
 238      26155AA6 
 238      AC77E1FB 
 238      4BF46A50 
 238      4DF930A6 
 239 054f 01613082 		.ascii	"\001a0\202r\027\345\036\312\020\312\035\224\277\324"
 239      7217E51E 
 239      CA10CA1D 
 239      94BFD4
 240 055e 5290AD36 		.ascii	"R\220\2556\315\326-\357\266\024\377\251\007\232\212"
 240      CDD62DEF 
 240      B614FFA9 
 240      079A8A
 241 056d 78AF0C3E 		.ascii	"x\257\014>\321+\224\211fW&.{\015O!\302b\015o\031\271"
 241      D12B9489 
 241      6657262E 
 241      7B0D4F21 
 241      C2620D6F 
 242 0583 2DB23C2A 		.ascii	"-\262<*\226Xz\351\334\210\010!\341\336\242\201Q\014"
 242      96587AE9 
 242      DC880821 
 242      E1DEA281 
 242      510C
 243 0595 E2FF0444 		.ascii	"\342\377\004D^v\233\365\360\000\225\356\273:uP\353T"
 243      5E769BF5 
 243      F00095EE 
 243      BB3A7550 
 243      EB54
 244 05a7 7E66BB0F 		.ascii	"~f\273\017X%u\272\3726'\374\247-\244\312,\315\252\363"
 244      582575BA 
 244      FA3627FC 
 244      A72DA4CA 
 244      2CCDAAF3 
 245 05bb 9CBA0F3D 		.ascii	"\234\272\017=\246\356#u\216>\2429Z\335v\245\207\261"
 245      A6EE2375 
 245      8E3EA239 
 245      5ADD76A5 
 245      87B1
 246 05cd 62A57F1D 		.ascii	"b\245\177\035\351Y\003\222\362%\177\252\031\207\231"
 246      E9590392 
 246      F2257FAA 
 246      198799
 247 05dc CAADB8B6 		.ascii	"\312\255\270\266\033&\206g\237\362\225\036\307\0112"
 247      1B268667 
ARM GAS  C:\Users\Bruger\AppData\Local\Temp\ccYYUhYC.s 			page 19


 247      9FF2951E 
 247      C70932
 248 05eb E60AF431 		.ascii	"\346\012\3641\270\246\247\027\346\277\2752\303\266\376"
 248      B8A6A717 
 248      E6BFBD32 
 248      C3B6FE
 249 05fa 9182299A 		.ascii	"\221\202)\2323\351O\245Rv\252z\357\024\217\320\235\036"
 249      33E94FA5 
 249      5276AA7A 
 249      EF148FD0 
 249      9D1E
 250 060c 5F715954 		.ascii	"_qYTB\307;\377#\265}O}\200\007\272\316\343\203\223\242"
 250      42C73BFF 
 250      23B57D4F 
 250      7D8007BA 
 250      CEE38393 
 251 0621 A25308DD 		.ascii	"\242S\010\335\223\327\220!y\240\313<\320\233D\243\026"
 251      93D79021 
 251      79A0CB3C 
 251      D09B44A3 
 251      16
 252 0632 2F2E85C0 		.ascii	"/.\205\300\005\363\"b\346\257O\372p\325\252\305I\026"
 252      05F32262 
 252      E6AF4FFA 
 252      70D5AAC5 
 252      4916
 253 0644 DDA288E5 		.ascii	"\335\242\210\345\246\005\302\013\213\314k\314\226\330"
 253      A605C20B 
 253      8BCC6BCC 
 253      96D8
 254 0652 64737C4C 		.ascii	"ds|L\324\332\365\2268\363\212eQk\027\274\271\202c\027"
 254      D4DAF596 
 254      38F38A65 
 254      516B17BC 
 254      B9826317 
 255 0666 4744CF8E 		.ascii	"GD\317\216\023\214|\371A\322\247\221\037\241\226?=\217"
 255      138C7CF9 
 255      41D2A791 
 255      1FA1963F 
 255      3D8F
 256 0678 8AF45B9F 		.ascii	"\212\364[\237\260&\371-_\312q\033\2237\2563'\315\376"
 256      B026F92D 
 256      5FCA711B 
 256      9337AE33 
 256      27CDFE
 257 068b 4CD0737C 		.ascii	"L\320s|T\362\332u\317\371\266\203\260g8lQ\342\332\225"
 257      54F2DA75 
 257      CFF9B683 
 257      B067386C 
 257      51E2DA95 
 258 069f B1898BD7 		.ascii	"\261\211\213\327$\277\233\220\024\2732\321\034\304\037"
 258      24BF9B90 
 258      14BB32D1 
 258      1CC41F
 259 06ae 469AE3CC 		.ascii	"F\232\343\314\011_\230\321\276d1\177\372\226\264rc\262"
 259      095F98D1 
 259      BE64317F 
ARM GAS  C:\Users\Bruger\AppData\Local\Temp\ccYYUhYC.s 			page 20


 259      FA96B472 
 259      63B2
 260 06c0 D9402F16 		.ascii	"\331@/\026.\212y\343u\035\367\343\2659~\226\015q\253"
 260      2E8A79E3 
 260      751DF7E3 
 260      B5397E96 
 260      0D71AB
 261 06d3 E325CB86 		.ascii	"\343%\313\206\204x\322zw^\364\274\230\371\037G/\214"
 261      8478D27A 
 261      775EF4BC 
 261      98F91F47 
 261      2F8C
 262 06e5 D25936C4 		.ascii	"\322Y6\304\307&\307\" v\265\205\377\306Yt\264\216\327"
 262      C726C722 
 262      2076B585 
 262      FFC65974 
 262      B48ED7
 263 06f8 D1269EB2 		.ascii	"\321&\236\262\022\371QLTt\344\362\005\321~h\344\265"
 263      12F9514C 
 263      5474E4F2 
 263      05D17E68 
 263      E4B5
 264 070a 39FF004A 		.ascii	"9\377\000Jb\007Z"
 264      62075A
 265              		.text
 266              		.section	.gnu.lto_.symtab.24c0af11,"",%progbits
 267 0000 43414E5F 		.ascii	"CAN_BusOffIsr\000\000\000\000\000\000\000\000\000\000"
 267      4275734F 
 267      66664973 
 267      72000000 
 267      00000000 
 268 0017 0000AC00 		.ascii	"\000\000\254\000\000\000CAN_MsgRXIsr\000\000\000\000"
 268      00004341 
 268      4E5F4D73 
 268      67525849 
 268      73720000 
 269 002d 00000000 		.ascii	"\000\000\000\000\000\000\000\000\256\000\000\000CAN"
 269      00000000 
 269      AE000000 
 269      43414E
 270 003c 5F495352 		.ascii	"_ISR\000\000\000\000\000\000\000\000\000\000\000\000"
 270      00000000 
 270      00000000 
 270      00000000 
 271 004c B0000000 		.ascii	"\260\000\000\000CAN_Stop\000\000\002\000\000\000\000"
 271      43414E5F 
 271      53746F70 
 271      00000200 
 271      000000
 272 005f 00000000 		.ascii	"\000\000\000\000\000\270\000\000\000CAN_GlobalIntDi"
 272      00B80000 
 272      0043414E 
 272      5F476C6F 
 272      62616C49 
 273 0077 7361626C 		.ascii	"sable\000\000\002\000\000\000\000\000\000\000\000\000"
 273      65000002 
 273      00000000 
ARM GAS  C:\Users\Bruger\AppData\Local\Temp\ccYYUhYC.s 			page 21


 273      00000000 
 273      00
 274 0088 BA000000 		.ascii	"\272\000\000\000CAN_ReceiveMsg\000\000\002\000\000\000"
 274      43414E5F 
 274      52656365 
 274      6976654D 
 274      73670000 
 275 00a0 00000000 		.ascii	"\000\000\000\000\000\000\276\000\000\000"
 275      0000BE00 
 275      0000
 276              		.text
 277              		.section	.gnu.lto_.opts,"",%progbits
 278 0000 272D666E 		.ascii	"'-fno-trapv' '-mcpu=cortex-m3' '-mthumb' '-g' '-O3'"
 278      6F2D7472 
 278      61707627 
 278      20272D6D 
 278      6370753D 
 279 0033 20272D66 		.ascii	" '-ffunction-sections' '-finline-functions' '-flto'"
 279      66756E63 
 279      74696F6E 
 279      2D736563 
 279      74696F6E 
 280 0066 20272D66 		.ascii	" '-ffat-lto-objects'\000"
 280      6661742D 
 280      6C746F2D 
 280      6F626A65 
 280      63747327 
 281              		.text
 282              		.cfi_sections	.debug_frame
 283              		.section	.text.CAN_BusOffIsr,"ax",%progbits
 284              		.align	2
 285              		.global	CAN_BusOffIsr
 286              		.thumb
 287              		.thumb_func
 288              		.type	CAN_BusOffIsr, %function
 289              	CAN_BusOffIsr:
 290              	.LFB0:
 291              		.file 1 "Generated_Source\\PSoC5\\CAN_INT.c"
   1:Generated_Source\PSoC5/CAN_INT.c **** /*******************************************************************************
   2:Generated_Source\PSoC5/CAN_INT.c **** * File Name: CAN_INT.c
   3:Generated_Source\PSoC5/CAN_INT.c **** * Version 3.0
   4:Generated_Source\PSoC5/CAN_INT.c **** *
   5:Generated_Source\PSoC5/CAN_INT.c **** * Description:
   6:Generated_Source\PSoC5/CAN_INT.c **** *  This file contains Interrupt Service Routine (ISR) for CAN Component.
   7:Generated_Source\PSoC5/CAN_INT.c **** *  The Interrupt handlers functions are generated accordingly to the PSoC
   8:Generated_Source\PSoC5/CAN_INT.c **** *  Creator Customizer inputs.
   9:Generated_Source\PSoC5/CAN_INT.c **** *
  10:Generated_Source\PSoC5/CAN_INT.c **** * Note:
  11:Generated_Source\PSoC5/CAN_INT.c **** *  None
  12:Generated_Source\PSoC5/CAN_INT.c **** *
  13:Generated_Source\PSoC5/CAN_INT.c **** ********************************************************************************
  14:Generated_Source\PSoC5/CAN_INT.c **** * Copyright 2008-2015, Cypress Semiconductor Corporation.  All rights reserved.
  15:Generated_Source\PSoC5/CAN_INT.c **** * You may use this file only in accordance with the license, terms, conditions,
  16:Generated_Source\PSoC5/CAN_INT.c **** * disclaimers, and limitations in the end user license agreement accompanying
  17:Generated_Source\PSoC5/CAN_INT.c **** * the software package with which this file was provided.
  18:Generated_Source\PSoC5/CAN_INT.c **** *******************************************************************************/
  19:Generated_Source\PSoC5/CAN_INT.c **** 
ARM GAS  C:\Users\Bruger\AppData\Local\Temp\ccYYUhYC.s 			page 22


  20:Generated_Source\PSoC5/CAN_INT.c **** #include "CAN.h"
  21:Generated_Source\PSoC5/CAN_INT.c **** 
  22:Generated_Source\PSoC5/CAN_INT.c **** 
  23:Generated_Source\PSoC5/CAN_INT.c **** /* `#START CAN_INT_C_CODE_DEFINITION` */
  24:Generated_Source\PSoC5/CAN_INT.c **** 
  25:Generated_Source\PSoC5/CAN_INT.c **** /* `#END` */
  26:Generated_Source\PSoC5/CAN_INT.c **** 
  27:Generated_Source\PSoC5/CAN_INT.c **** #if (CAN_ARB_LOST)
  28:Generated_Source\PSoC5/CAN_INT.c ****     /*******************************************************************************
  29:Generated_Source\PSoC5/CAN_INT.c ****     * FUNCTION NAME:   CAN_ArbLostIsr
  30:Generated_Source\PSoC5/CAN_INT.c ****     ********************************************************************************
  31:Generated_Source\PSoC5/CAN_INT.c ****     *
  32:Generated_Source\PSoC5/CAN_INT.c ****     * Summary:
  33:Generated_Source\PSoC5/CAN_INT.c ****     *  This function is entry point to Arbitration Lost Interrupt. Clears
  34:Generated_Source\PSoC5/CAN_INT.c ****     *  Arbitration Lost interrupt flag. Only generated if Arbitration Lost
  35:Generated_Source\PSoC5/CAN_INT.c ****     *  Interrupt enable in Customizer.
  36:Generated_Source\PSoC5/CAN_INT.c ****     *
  37:Generated_Source\PSoC5/CAN_INT.c ****     * Parameters:
  38:Generated_Source\PSoC5/CAN_INT.c ****     *  None.
  39:Generated_Source\PSoC5/CAN_INT.c ****     *
  40:Generated_Source\PSoC5/CAN_INT.c ****     * Return:
  41:Generated_Source\PSoC5/CAN_INT.c ****     *  None.
  42:Generated_Source\PSoC5/CAN_INT.c ****     *
  43:Generated_Source\PSoC5/CAN_INT.c ****     * Reentrant:
  44:Generated_Source\PSoC5/CAN_INT.c ****     *  Depends on Customer code.
  45:Generated_Source\PSoC5/CAN_INT.c ****     *
  46:Generated_Source\PSoC5/CAN_INT.c ****     *******************************************************************************/
  47:Generated_Source\PSoC5/CAN_INT.c ****     void CAN_ArbLostIsr(void) 
  48:Generated_Source\PSoC5/CAN_INT.c ****     {
  49:Generated_Source\PSoC5/CAN_INT.c ****         /* Clear Arbitration Lost flag */
  50:Generated_Source\PSoC5/CAN_INT.c ****         CAN_INT_SR_REG.byte[0u] = CAN_ARBITRATION_LOST_MASK;
  51:Generated_Source\PSoC5/CAN_INT.c **** 
  52:Generated_Source\PSoC5/CAN_INT.c ****         /* `#START ARBITRATION_LOST_ISR` */
  53:Generated_Source\PSoC5/CAN_INT.c **** 
  54:Generated_Source\PSoC5/CAN_INT.c ****         /* `#END` */
  55:Generated_Source\PSoC5/CAN_INT.c **** 
  56:Generated_Source\PSoC5/CAN_INT.c ****         #ifdef CAN_ARB_LOST_ISR_CALLBACK
  57:Generated_Source\PSoC5/CAN_INT.c ****             CAN_ArbLostIsr_Callback();
  58:Generated_Source\PSoC5/CAN_INT.c ****         #endif /* CAN_ARB_LOST_ISR_CALLBACK */
  59:Generated_Source\PSoC5/CAN_INT.c ****     }
  60:Generated_Source\PSoC5/CAN_INT.c **** #endif /* CAN_ARB_LOST */
  61:Generated_Source\PSoC5/CAN_INT.c **** 
  62:Generated_Source\PSoC5/CAN_INT.c **** 
  63:Generated_Source\PSoC5/CAN_INT.c **** #if (CAN_OVERLOAD)
  64:Generated_Source\PSoC5/CAN_INT.c ****     /*******************************************************************************
  65:Generated_Source\PSoC5/CAN_INT.c ****     * FUNCTION NAME:   CAN_OvrLdErrorIsr
  66:Generated_Source\PSoC5/CAN_INT.c ****     ********************************************************************************
  67:Generated_Source\PSoC5/CAN_INT.c ****     *
  68:Generated_Source\PSoC5/CAN_INT.c ****     * Summary:
  69:Generated_Source\PSoC5/CAN_INT.c ****     *  This function is entry point to Overload Error Interrupt. Clears Overload
  70:Generated_Source\PSoC5/CAN_INT.c ****     *  Error interrupt flag. Only generated if Overload Error Interrupt enable
  71:Generated_Source\PSoC5/CAN_INT.c ****     *  in Customizer.
  72:Generated_Source\PSoC5/CAN_INT.c ****     *
  73:Generated_Source\PSoC5/CAN_INT.c ****     * Parameters:
  74:Generated_Source\PSoC5/CAN_INT.c ****     *  None.
  75:Generated_Source\PSoC5/CAN_INT.c ****     *
  76:Generated_Source\PSoC5/CAN_INT.c ****     * Return:
ARM GAS  C:\Users\Bruger\AppData\Local\Temp\ccYYUhYC.s 			page 23


  77:Generated_Source\PSoC5/CAN_INT.c ****     *  None.
  78:Generated_Source\PSoC5/CAN_INT.c ****     *
  79:Generated_Source\PSoC5/CAN_INT.c ****     * Reentrant:
  80:Generated_Source\PSoC5/CAN_INT.c ****     *  Depends on Customer code.
  81:Generated_Source\PSoC5/CAN_INT.c ****     *
  82:Generated_Source\PSoC5/CAN_INT.c ****     *******************************************************************************/
  83:Generated_Source\PSoC5/CAN_INT.c ****     void CAN_OvrLdErrorIsr(void) 
  84:Generated_Source\PSoC5/CAN_INT.c ****     {
  85:Generated_Source\PSoC5/CAN_INT.c ****         /* Clear Overload Error flag */
  86:Generated_Source\PSoC5/CAN_INT.c ****         CAN_INT_SR_REG.byte[0u] = CAN_OVERLOAD_ERROR_MASK;
  87:Generated_Source\PSoC5/CAN_INT.c **** 
  88:Generated_Source\PSoC5/CAN_INT.c ****         /* `#START OVER_LOAD_ERROR_ISR` */
  89:Generated_Source\PSoC5/CAN_INT.c **** 
  90:Generated_Source\PSoC5/CAN_INT.c ****         /* `#END` */
  91:Generated_Source\PSoC5/CAN_INT.c **** 
  92:Generated_Source\PSoC5/CAN_INT.c ****         #ifdef CAN_OVR_LD_ERROR_ISR_CALLBACK
  93:Generated_Source\PSoC5/CAN_INT.c ****             CAN_OvrLdErrorIsr_Callback();
  94:Generated_Source\PSoC5/CAN_INT.c ****         #endif /* CAN_OVR_LD_ERROR_ISR_CALLBACK */
  95:Generated_Source\PSoC5/CAN_INT.c ****     }
  96:Generated_Source\PSoC5/CAN_INT.c **** #endif /* CAN_OVERLOAD */
  97:Generated_Source\PSoC5/CAN_INT.c **** 
  98:Generated_Source\PSoC5/CAN_INT.c **** 
  99:Generated_Source\PSoC5/CAN_INT.c **** #if (CAN_BIT_ERR)
 100:Generated_Source\PSoC5/CAN_INT.c ****     /*******************************************************************************
 101:Generated_Source\PSoC5/CAN_INT.c ****     * FUNCTION NAME:   CAN_BitErrorIsr
 102:Generated_Source\PSoC5/CAN_INT.c ****     ********************************************************************************
 103:Generated_Source\PSoC5/CAN_INT.c ****     *
 104:Generated_Source\PSoC5/CAN_INT.c ****     * Summary:
 105:Generated_Source\PSoC5/CAN_INT.c ****     *  This function is entry point to Bit Error Interrupt. Clears Bit Error
 106:Generated_Source\PSoC5/CAN_INT.c ****     *  interrupt flag. Only generated if Bit Error Interrupt enable in Customizer.
 107:Generated_Source\PSoC5/CAN_INT.c ****     *
 108:Generated_Source\PSoC5/CAN_INT.c ****     * Parameters:
 109:Generated_Source\PSoC5/CAN_INT.c ****     *  None.
 110:Generated_Source\PSoC5/CAN_INT.c ****     *
 111:Generated_Source\PSoC5/CAN_INT.c ****     * Return:
 112:Generated_Source\PSoC5/CAN_INT.c ****     *  None.
 113:Generated_Source\PSoC5/CAN_INT.c ****     *
 114:Generated_Source\PSoC5/CAN_INT.c ****     * Reentrant:
 115:Generated_Source\PSoC5/CAN_INT.c ****     *  Depends on Customer code.
 116:Generated_Source\PSoC5/CAN_INT.c ****     *
 117:Generated_Source\PSoC5/CAN_INT.c ****     *******************************************************************************/
 118:Generated_Source\PSoC5/CAN_INT.c ****     void CAN_BitErrorIsr(void) 
 119:Generated_Source\PSoC5/CAN_INT.c ****     {
 120:Generated_Source\PSoC5/CAN_INT.c ****         /* Clear Bit Error flag */
 121:Generated_Source\PSoC5/CAN_INT.c ****         CAN_INT_SR_REG.byte[0u] = CAN_BIT_ERROR_MASK;
 122:Generated_Source\PSoC5/CAN_INT.c **** 
 123:Generated_Source\PSoC5/CAN_INT.c ****         /* `#START BIT_ERROR_ISR` */
 124:Generated_Source\PSoC5/CAN_INT.c **** 
 125:Generated_Source\PSoC5/CAN_INT.c ****         /* `#END` */
 126:Generated_Source\PSoC5/CAN_INT.c **** 
 127:Generated_Source\PSoC5/CAN_INT.c ****         #ifdef CAN_BIT_ERROR_ISR_CALLBACK
 128:Generated_Source\PSoC5/CAN_INT.c ****             CAN_BitErrorIsr_Callback();
 129:Generated_Source\PSoC5/CAN_INT.c ****         #endif /* CAN_BIT_ERROR_ISR_CALLBACK */
 130:Generated_Source\PSoC5/CAN_INT.c ****     }
 131:Generated_Source\PSoC5/CAN_INT.c **** #endif /* CAN_BIT_ERR */
 132:Generated_Source\PSoC5/CAN_INT.c **** 
 133:Generated_Source\PSoC5/CAN_INT.c **** 
ARM GAS  C:\Users\Bruger\AppData\Local\Temp\ccYYUhYC.s 			page 24


 134:Generated_Source\PSoC5/CAN_INT.c **** #if (CAN_STUFF_ERR)
 135:Generated_Source\PSoC5/CAN_INT.c ****     /*******************************************************************************
 136:Generated_Source\PSoC5/CAN_INT.c ****     * FUNCTION NAME:   CAN_BitStuffErrorIsr
 137:Generated_Source\PSoC5/CAN_INT.c ****     ********************************************************************************
 138:Generated_Source\PSoC5/CAN_INT.c ****     *
 139:Generated_Source\PSoC5/CAN_INT.c ****     * Summary:
 140:Generated_Source\PSoC5/CAN_INT.c ****     *  This function is entry point to Bit Stuff Error Interrupt. Clears Bit Stuff
 141:Generated_Source\PSoC5/CAN_INT.c ****     *  Error interrupt flag. Only generated if Bit Stuff Error Interrupt enable
 142:Generated_Source\PSoC5/CAN_INT.c ****     *  in Customizer.
 143:Generated_Source\PSoC5/CAN_INT.c ****     *
 144:Generated_Source\PSoC5/CAN_INT.c ****     * Parameters:
 145:Generated_Source\PSoC5/CAN_INT.c ****     *  None.
 146:Generated_Source\PSoC5/CAN_INT.c ****     *
 147:Generated_Source\PSoC5/CAN_INT.c ****     * Return:
 148:Generated_Source\PSoC5/CAN_INT.c ****     *  None.
 149:Generated_Source\PSoC5/CAN_INT.c ****     *
 150:Generated_Source\PSoC5/CAN_INT.c ****     * Reentrant:
 151:Generated_Source\PSoC5/CAN_INT.c ****     *  Depends on Customer code.
 152:Generated_Source\PSoC5/CAN_INT.c ****     *
 153:Generated_Source\PSoC5/CAN_INT.c ****     *******************************************************************************/
 154:Generated_Source\PSoC5/CAN_INT.c ****     void CAN_BitStuffErrorIsr(void) 
 155:Generated_Source\PSoC5/CAN_INT.c ****     {
 156:Generated_Source\PSoC5/CAN_INT.c ****         /* Clear Stuff Error flag */
 157:Generated_Source\PSoC5/CAN_INT.c ****         CAN_INT_SR_REG.byte[0u] = CAN_STUFF_ERROR_MASK;
 158:Generated_Source\PSoC5/CAN_INT.c **** 
 159:Generated_Source\PSoC5/CAN_INT.c ****         /* `#START BIT_STUFF_ERROR_ISR` */
 160:Generated_Source\PSoC5/CAN_INT.c **** 
 161:Generated_Source\PSoC5/CAN_INT.c ****         /* `#END` */
 162:Generated_Source\PSoC5/CAN_INT.c **** 
 163:Generated_Source\PSoC5/CAN_INT.c ****         #ifdef CAN_BIT_STUFF_ERROR_ISR_CALLBACK
 164:Generated_Source\PSoC5/CAN_INT.c ****             CAN_BitStuffErrorIsr_Callback();
 165:Generated_Source\PSoC5/CAN_INT.c ****         #endif /* CAN_BIT_STUFF_ERROR_ISR_CALLBACK */
 166:Generated_Source\PSoC5/CAN_INT.c ****     }
 167:Generated_Source\PSoC5/CAN_INT.c **** #endif /* CAN_STUFF_ERR */
 168:Generated_Source\PSoC5/CAN_INT.c **** 
 169:Generated_Source\PSoC5/CAN_INT.c **** 
 170:Generated_Source\PSoC5/CAN_INT.c **** #if (CAN_ACK_ERR)
 171:Generated_Source\PSoC5/CAN_INT.c ****     /*******************************************************************************
 172:Generated_Source\PSoC5/CAN_INT.c ****     * FUNCTION NAME:   CAN_AckErrorIsr
 173:Generated_Source\PSoC5/CAN_INT.c ****     ********************************************************************************
 174:Generated_Source\PSoC5/CAN_INT.c ****     *
 175:Generated_Source\PSoC5/CAN_INT.c ****     * Summary:
 176:Generated_Source\PSoC5/CAN_INT.c ****     *  This function is entry point to Acknowledge Error Interrupt. Clears
 177:Generated_Source\PSoC5/CAN_INT.c ****     *  Acknowledge Error interrupt flag. Only generated if Acknowledge Error
 178:Generated_Source\PSoC5/CAN_INT.c ****     *  Interrupt enable in Customizer.
 179:Generated_Source\PSoC5/CAN_INT.c ****     *
 180:Generated_Source\PSoC5/CAN_INT.c ****     * Parameters:
 181:Generated_Source\PSoC5/CAN_INT.c ****     *  None.
 182:Generated_Source\PSoC5/CAN_INT.c ****     *
 183:Generated_Source\PSoC5/CAN_INT.c ****     * Return:
 184:Generated_Source\PSoC5/CAN_INT.c ****     *  None.
 185:Generated_Source\PSoC5/CAN_INT.c ****     *
 186:Generated_Source\PSoC5/CAN_INT.c ****     * Reentrant:
 187:Generated_Source\PSoC5/CAN_INT.c ****     *  Depends on Customer code.
 188:Generated_Source\PSoC5/CAN_INT.c ****     *
 189:Generated_Source\PSoC5/CAN_INT.c ****     *******************************************************************************/
 190:Generated_Source\PSoC5/CAN_INT.c ****     void CAN_AckErrorIsr(void) 
ARM GAS  C:\Users\Bruger\AppData\Local\Temp\ccYYUhYC.s 			page 25


 191:Generated_Source\PSoC5/CAN_INT.c ****     {
 192:Generated_Source\PSoC5/CAN_INT.c ****         /* Clear Acknoledge Error flag */
 193:Generated_Source\PSoC5/CAN_INT.c ****         CAN_INT_SR_REG.byte[0u] = CAN_ACK_ERROR_MASK;
 194:Generated_Source\PSoC5/CAN_INT.c **** 
 195:Generated_Source\PSoC5/CAN_INT.c ****         /* `#START ACKNOWLEDGE_ERROR_ISR` */
 196:Generated_Source\PSoC5/CAN_INT.c **** 
 197:Generated_Source\PSoC5/CAN_INT.c ****         /* `#END` */
 198:Generated_Source\PSoC5/CAN_INT.c **** 
 199:Generated_Source\PSoC5/CAN_INT.c ****         #ifdef CAN_ACK_ERROR_ISR_CALLBACK
 200:Generated_Source\PSoC5/CAN_INT.c ****             CAN_AckErrorIsr_Callback();
 201:Generated_Source\PSoC5/CAN_INT.c ****         #endif /* CAN_ACK_ERROR_ISR_CALLBACK */
 202:Generated_Source\PSoC5/CAN_INT.c ****     }
 203:Generated_Source\PSoC5/CAN_INT.c **** #endif /* CAN_ACK_ERR */
 204:Generated_Source\PSoC5/CAN_INT.c **** 
 205:Generated_Source\PSoC5/CAN_INT.c **** 
 206:Generated_Source\PSoC5/CAN_INT.c **** #if (CAN_FORM_ERR)
 207:Generated_Source\PSoC5/CAN_INT.c ****     /*******************************************************************************
 208:Generated_Source\PSoC5/CAN_INT.c ****     * FUNCTION NAME:   CAN_MsgErrorIsr
 209:Generated_Source\PSoC5/CAN_INT.c ****     ********************************************************************************
 210:Generated_Source\PSoC5/CAN_INT.c ****     *
 211:Generated_Source\PSoC5/CAN_INT.c ****     * Summary:
 212:Generated_Source\PSoC5/CAN_INT.c ****     *  This function is entry point to Form Error Interrupt. Clears Form Error
 213:Generated_Source\PSoC5/CAN_INT.c ****     *  interrupt flag. Only generated if Form Error Interrupt enable in Customizer.
 214:Generated_Source\PSoC5/CAN_INT.c ****     *
 215:Generated_Source\PSoC5/CAN_INT.c ****     * Parameters:
 216:Generated_Source\PSoC5/CAN_INT.c ****     *  None.
 217:Generated_Source\PSoC5/CAN_INT.c ****     *
 218:Generated_Source\PSoC5/CAN_INT.c ****     * Return:
 219:Generated_Source\PSoC5/CAN_INT.c ****     *  None.
 220:Generated_Source\PSoC5/CAN_INT.c ****     *
 221:Generated_Source\PSoC5/CAN_INT.c ****     * Reentrant:
 222:Generated_Source\PSoC5/CAN_INT.c ****     *  Depends on Customer code.
 223:Generated_Source\PSoC5/CAN_INT.c ****     *
 224:Generated_Source\PSoC5/CAN_INT.c ****     *******************************************************************************/
 225:Generated_Source\PSoC5/CAN_INT.c ****     void CAN_MsgErrorIsr(void) 
 226:Generated_Source\PSoC5/CAN_INT.c ****     {
 227:Generated_Source\PSoC5/CAN_INT.c ****         /* Clear Form Error flag */
 228:Generated_Source\PSoC5/CAN_INT.c ****         CAN_INT_SR_REG.byte[0u] = CAN_FORM_ERROR_MASK;
 229:Generated_Source\PSoC5/CAN_INT.c **** 
 230:Generated_Source\PSoC5/CAN_INT.c ****         /* `#START MESSAGE_ERROR_ISR` */
 231:Generated_Source\PSoC5/CAN_INT.c **** 
 232:Generated_Source\PSoC5/CAN_INT.c ****         /* `#END` */
 233:Generated_Source\PSoC5/CAN_INT.c **** 
 234:Generated_Source\PSoC5/CAN_INT.c ****         #ifdef CAN_MSG_ERROR_ISR_CALLBACK
 235:Generated_Source\PSoC5/CAN_INT.c ****             CAN_MsgErrorIsr_Callback();
 236:Generated_Source\PSoC5/CAN_INT.c ****         #endif /* CAN_MSG_ERROR_ISR_CALLBACK */
 237:Generated_Source\PSoC5/CAN_INT.c ****     }
 238:Generated_Source\PSoC5/CAN_INT.c **** #endif /* CAN_FORM_ERR */
 239:Generated_Source\PSoC5/CAN_INT.c **** 
 240:Generated_Source\PSoC5/CAN_INT.c **** 
 241:Generated_Source\PSoC5/CAN_INT.c **** #if (CAN_CRC_ERR)
 242:Generated_Source\PSoC5/CAN_INT.c ****     /*******************************************************************************
 243:Generated_Source\PSoC5/CAN_INT.c ****     * FUNCTION NAME:   CAN_CrcErrorIsr
 244:Generated_Source\PSoC5/CAN_INT.c ****     ********************************************************************************
 245:Generated_Source\PSoC5/CAN_INT.c ****     *
 246:Generated_Source\PSoC5/CAN_INT.c ****     * Summary:
 247:Generated_Source\PSoC5/CAN_INT.c ****     *  This function is entry point to CRC Error Interrupt. Clears CRC Error
ARM GAS  C:\Users\Bruger\AppData\Local\Temp\ccYYUhYC.s 			page 26


 248:Generated_Source\PSoC5/CAN_INT.c ****     *  interrupt flag. Only generated if CRC Error Interrupt enable in Customizer.
 249:Generated_Source\PSoC5/CAN_INT.c ****     *
 250:Generated_Source\PSoC5/CAN_INT.c ****     * Parameters:
 251:Generated_Source\PSoC5/CAN_INT.c ****     *  None.
 252:Generated_Source\PSoC5/CAN_INT.c ****     *
 253:Generated_Source\PSoC5/CAN_INT.c ****     * Return:
 254:Generated_Source\PSoC5/CAN_INT.c ****     *  None.
 255:Generated_Source\PSoC5/CAN_INT.c ****     *
 256:Generated_Source\PSoC5/CAN_INT.c ****     * Reentrant:
 257:Generated_Source\PSoC5/CAN_INT.c ****     *  Depends on Customer code.
 258:Generated_Source\PSoC5/CAN_INT.c ****     *
 259:Generated_Source\PSoC5/CAN_INT.c ****     *******************************************************************************/
 260:Generated_Source\PSoC5/CAN_INT.c ****     void CAN_CrcErrorIsr(void) 
 261:Generated_Source\PSoC5/CAN_INT.c ****     {
 262:Generated_Source\PSoC5/CAN_INT.c ****         /* Clear CRC Error flag */
 263:Generated_Source\PSoC5/CAN_INT.c ****         CAN_INT_SR_REG.byte[1u] = CAN_CRC_ERROR_MASK;
 264:Generated_Source\PSoC5/CAN_INT.c **** 
 265:Generated_Source\PSoC5/CAN_INT.c ****         /* `#START CRC_ERROR_ISR` */
 266:Generated_Source\PSoC5/CAN_INT.c **** 
 267:Generated_Source\PSoC5/CAN_INT.c ****         /* `#END` */
 268:Generated_Source\PSoC5/CAN_INT.c **** 
 269:Generated_Source\PSoC5/CAN_INT.c ****         #ifdef CAN_CRC_ERROR_ISR_CALLBACK
 270:Generated_Source\PSoC5/CAN_INT.c ****             CAN_CrcErrorIsr_Callback();
 271:Generated_Source\PSoC5/CAN_INT.c ****         #endif /* CAN_CRC_ERROR_ISR_CALLBACK */
 272:Generated_Source\PSoC5/CAN_INT.c ****     }
 273:Generated_Source\PSoC5/CAN_INT.c **** #endif /* CAN_CRC_ERR */
 274:Generated_Source\PSoC5/CAN_INT.c **** 
 275:Generated_Source\PSoC5/CAN_INT.c **** 
 276:Generated_Source\PSoC5/CAN_INT.c **** #if (CAN_BUS_OFF)
 277:Generated_Source\PSoC5/CAN_INT.c ****     /*******************************************************************************
 278:Generated_Source\PSoC5/CAN_INT.c ****     * FUNCTION NAME:   CAN_BusOffIsr
 279:Generated_Source\PSoC5/CAN_INT.c ****     ********************************************************************************
 280:Generated_Source\PSoC5/CAN_INT.c ****     *
 281:Generated_Source\PSoC5/CAN_INT.c ****     * Summary:
 282:Generated_Source\PSoC5/CAN_INT.c ****     *  This function is entry point to Bus Off Interrupt. Places CAN Component
 283:Generated_Source\PSoC5/CAN_INT.c ****     *  to Stop mode. Only generated if Bus Off Interrupt enable in Customizer.
 284:Generated_Source\PSoC5/CAN_INT.c ****     *  Recommended setting to enable this interrupt.
 285:Generated_Source\PSoC5/CAN_INT.c ****     *
 286:Generated_Source\PSoC5/CAN_INT.c ****     * Parameters:
 287:Generated_Source\PSoC5/CAN_INT.c ****     *  None.
 288:Generated_Source\PSoC5/CAN_INT.c ****     *
 289:Generated_Source\PSoC5/CAN_INT.c ****     * Return:
 290:Generated_Source\PSoC5/CAN_INT.c ****     *  None.
 291:Generated_Source\PSoC5/CAN_INT.c ****     *
 292:Generated_Source\PSoC5/CAN_INT.c ****     * Side Effects:
 293:Generated_Source\PSoC5/CAN_INT.c ****     *  Stops CAN component operation.
 294:Generated_Source\PSoC5/CAN_INT.c ****     *
 295:Generated_Source\PSoC5/CAN_INT.c ****     *******************************************************************************/
 296:Generated_Source\PSoC5/CAN_INT.c ****     void CAN_BusOffIsr(void) 
 297:Generated_Source\PSoC5/CAN_INT.c ****     {
 292              		.loc 1 297 0
 293              		.cfi_startproc
 294              		@ args = 0, pretend = 0, frame = 0
 295              		@ frame_needed = 0, uses_anonymous_args = 0
 296 0000 08B5     		push	{r3, lr}
 297              		.cfi_def_cfa_offset 8
 298              		.cfi_offset 3, -8
ARM GAS  C:\Users\Bruger\AppData\Local\Temp\ccYYUhYC.s 			page 27


 299              		.cfi_offset 14, -4
 298:Generated_Source\PSoC5/CAN_INT.c ****         /* Clear Bus Off flag */
 299:Generated_Source\PSoC5/CAN_INT.c ****         CAN_INT_SR_REG.byte[1u] = CAN_BUS_OFF_MASK;
 300              		.loc 1 299 0
 301 0002 044B     		ldr	r3, .L3
 302 0004 0222     		movs	r2, #2
 303 0006 5A70     		strb	r2, [r3, #1]
 300:Generated_Source\PSoC5/CAN_INT.c ****         (void) CAN_GlobalIntDisable();
 304              		.loc 1 300 0
 305 0008 FFF7FEFF 		bl	CAN_GlobalIntDisable
 306              	.LVL0:
 301:Generated_Source\PSoC5/CAN_INT.c **** 
 302:Generated_Source\PSoC5/CAN_INT.c ****         /* `#START BUS_OFF_ISR` */
 303:Generated_Source\PSoC5/CAN_INT.c **** 
 304:Generated_Source\PSoC5/CAN_INT.c ****         /* `#END` */
 305:Generated_Source\PSoC5/CAN_INT.c **** 
 306:Generated_Source\PSoC5/CAN_INT.c ****         #ifdef CAN_BUS_OFF_ISR_CALLBACK
 307:Generated_Source\PSoC5/CAN_INT.c ****             CAN_BusOffIsr_Callback();
 308:Generated_Source\PSoC5/CAN_INT.c ****         #endif /* CAN_BUS_OFF_ISR_CALLBACK */
 309:Generated_Source\PSoC5/CAN_INT.c **** 
 310:Generated_Source\PSoC5/CAN_INT.c ****         (void) CAN_Stop();
 311:Generated_Source\PSoC5/CAN_INT.c ****     }
 307              		.loc 1 311 0
 308 000c BDE80840 		pop	{r3, lr}
 309              		.cfi_restore 14
 310              		.cfi_restore 3
 311              		.cfi_def_cfa_offset 0
 310:Generated_Source\PSoC5/CAN_INT.c ****     }
 312              		.loc 1 310 0
 313 0010 FFF7FEBF 		b	CAN_Stop
 314              	.LVL1:
 315              	.L4:
 316              		.align	2
 317              	.L3:
 318 0014 00A00040 		.word	1073782784
 319              		.cfi_endproc
 320              	.LFE0:
 321              		.size	CAN_BusOffIsr, .-CAN_BusOffIsr
 322              		.section	.text.CAN_MsgRXIsr,"ax",%progbits
 323              		.align	2
 324              		.global	CAN_MsgRXIsr
 325              		.thumb
 326              		.thumb_func
 327              		.type	CAN_MsgRXIsr, %function
 328              	CAN_MsgRXIsr:
 329              	.LFB1:
 312:Generated_Source\PSoC5/CAN_INT.c **** #endif /* CAN_BUS_OFF */
 313:Generated_Source\PSoC5/CAN_INT.c **** 
 314:Generated_Source\PSoC5/CAN_INT.c **** 
 315:Generated_Source\PSoC5/CAN_INT.c **** #if (CAN_RX_MSG_LOST)
 316:Generated_Source\PSoC5/CAN_INT.c ****     /*******************************************************************************
 317:Generated_Source\PSoC5/CAN_INT.c ****     * FUNCTION NAME:   CAN_MsgLostIsr
 318:Generated_Source\PSoC5/CAN_INT.c ****     ********************************************************************************
 319:Generated_Source\PSoC5/CAN_INT.c ****     *
 320:Generated_Source\PSoC5/CAN_INT.c ****     * Summary:
 321:Generated_Source\PSoC5/CAN_INT.c ****     *  This function is entry point to Message Lost Interrupt. Clears Message Lost
 322:Generated_Source\PSoC5/CAN_INT.c ****     *  interrupt flag. Only generated if Message Lost Interrupt enable in Customizer
ARM GAS  C:\Users\Bruger\AppData\Local\Temp\ccYYUhYC.s 			page 28


 323:Generated_Source\PSoC5/CAN_INT.c ****     *
 324:Generated_Source\PSoC5/CAN_INT.c ****     * Parameters:
 325:Generated_Source\PSoC5/CAN_INT.c ****     *  None.
 326:Generated_Source\PSoC5/CAN_INT.c ****     *
 327:Generated_Source\PSoC5/CAN_INT.c ****     * Return:
 328:Generated_Source\PSoC5/CAN_INT.c ****     *  None.
 329:Generated_Source\PSoC5/CAN_INT.c ****     *
 330:Generated_Source\PSoC5/CAN_INT.c ****     * Reentrant:
 331:Generated_Source\PSoC5/CAN_INT.c ****     *  Depends on Customer code.
 332:Generated_Source\PSoC5/CAN_INT.c ****     *
 333:Generated_Source\PSoC5/CAN_INT.c ****     *******************************************************************************/
 334:Generated_Source\PSoC5/CAN_INT.c ****     void CAN_MsgLostIsr(void) 
 335:Generated_Source\PSoC5/CAN_INT.c ****     {
 336:Generated_Source\PSoC5/CAN_INT.c ****         /* Clear Receive Message Lost flag */
 337:Generated_Source\PSoC5/CAN_INT.c ****         CAN_INT_SR_REG.byte[1u] = CAN_RX_MSG_LOST_MASK;
 338:Generated_Source\PSoC5/CAN_INT.c **** 
 339:Generated_Source\PSoC5/CAN_INT.c ****         /* `#START MESSAGE_LOST_ISR` */
 340:Generated_Source\PSoC5/CAN_INT.c **** 
 341:Generated_Source\PSoC5/CAN_INT.c ****         /* `#END` */
 342:Generated_Source\PSoC5/CAN_INT.c **** 
 343:Generated_Source\PSoC5/CAN_INT.c ****         #ifdef CAN_MSG_LOST_ISR_CALLBACK
 344:Generated_Source\PSoC5/CAN_INT.c ****             CAN_MsgLostIsr_Callback();
 345:Generated_Source\PSoC5/CAN_INT.c ****         #endif /* CAN_MSG_LOST_ISR_CALLBACK */
 346:Generated_Source\PSoC5/CAN_INT.c ****     }
 347:Generated_Source\PSoC5/CAN_INT.c **** #endif /* CAN_RX_MSG_LOST */
 348:Generated_Source\PSoC5/CAN_INT.c **** 
 349:Generated_Source\PSoC5/CAN_INT.c **** 
 350:Generated_Source\PSoC5/CAN_INT.c **** #if (CAN_TX_MESSAGE)
 351:Generated_Source\PSoC5/CAN_INT.c ****     /*******************************************************************************
 352:Generated_Source\PSoC5/CAN_INT.c ****     * FUNCTION NAME:   CAN_MsgTXIsr
 353:Generated_Source\PSoC5/CAN_INT.c ****     ********************************************************************************
 354:Generated_Source\PSoC5/CAN_INT.c ****     *
 355:Generated_Source\PSoC5/CAN_INT.c ****     * Summary:
 356:Generated_Source\PSoC5/CAN_INT.c ****     *  This function is entry point to Transmit Message Interrupt. Clears Transmit
 357:Generated_Source\PSoC5/CAN_INT.c ****     *  Message interrupt flag. Only generated if Transmit Message Interrupt enable
 358:Generated_Source\PSoC5/CAN_INT.c ****     *  in Customizer.
 359:Generated_Source\PSoC5/CAN_INT.c ****     *
 360:Generated_Source\PSoC5/CAN_INT.c ****     * Parameters:
 361:Generated_Source\PSoC5/CAN_INT.c ****     *  None.
 362:Generated_Source\PSoC5/CAN_INT.c ****     *
 363:Generated_Source\PSoC5/CAN_INT.c ****     * Return:
 364:Generated_Source\PSoC5/CAN_INT.c ****     *  None.
 365:Generated_Source\PSoC5/CAN_INT.c ****     *
 366:Generated_Source\PSoC5/CAN_INT.c ****     * Reentrant:
 367:Generated_Source\PSoC5/CAN_INT.c ****     *  Depends on Customer code.
 368:Generated_Source\PSoC5/CAN_INT.c ****     *
 369:Generated_Source\PSoC5/CAN_INT.c ****     *******************************************************************************/
 370:Generated_Source\PSoC5/CAN_INT.c ****     void CAN_MsgTXIsr(void) 
 371:Generated_Source\PSoC5/CAN_INT.c ****     {
 372:Generated_Source\PSoC5/CAN_INT.c ****         /* Clear Transmit Message flag */
 373:Generated_Source\PSoC5/CAN_INT.c ****         CAN_INT_SR_REG.byte[1u] = CAN_TX_MESSAGE_MASK;
 374:Generated_Source\PSoC5/CAN_INT.c **** 
 375:Generated_Source\PSoC5/CAN_INT.c ****         /* `#START MESSAGE_TRANSMITTED_ISR` */
 376:Generated_Source\PSoC5/CAN_INT.c **** 
 377:Generated_Source\PSoC5/CAN_INT.c ****         /* `#END` */
 378:Generated_Source\PSoC5/CAN_INT.c **** 
 379:Generated_Source\PSoC5/CAN_INT.c ****         #ifdef CAN_MSG_TX_ISR_CALLBACK
ARM GAS  C:\Users\Bruger\AppData\Local\Temp\ccYYUhYC.s 			page 29


 380:Generated_Source\PSoC5/CAN_INT.c ****             CAN_MsgTXIsr_Callback();
 381:Generated_Source\PSoC5/CAN_INT.c ****         #endif /* CAN_MSG_TX_ISR_CALLBACK */
 382:Generated_Source\PSoC5/CAN_INT.c ****     }
 383:Generated_Source\PSoC5/CAN_INT.c **** #endif /* CAN_TX_MESSAGE */
 384:Generated_Source\PSoC5/CAN_INT.c **** 
 385:Generated_Source\PSoC5/CAN_INT.c **** 
 386:Generated_Source\PSoC5/CAN_INT.c **** #if (CAN_RX_MESSAGE)
 387:Generated_Source\PSoC5/CAN_INT.c ****     /*******************************************************************************
 388:Generated_Source\PSoC5/CAN_INT.c ****     * FUNCTION NAME:   CAN_MsgRXIsr
 389:Generated_Source\PSoC5/CAN_INT.c ****     ********************************************************************************
 390:Generated_Source\PSoC5/CAN_INT.c ****     *
 391:Generated_Source\PSoC5/CAN_INT.c ****     * Summary:
 392:Generated_Source\PSoC5/CAN_INT.c ****     *  This function is entry point to Receive Message Interrupt. Clears Receive
 393:Generated_Source\PSoC5/CAN_INT.c ****     *  Message interrupt flag and call appropriate handlers for Basic and Full
 394:Generated_Source\PSoC5/CAN_INT.c ****     *  interrupt based mailboxes. Only generated if Receive Message Interrupt
 395:Generated_Source\PSoC5/CAN_INT.c ****     *  enable in Customizer. Recommended setting to enable this interrupt.
 396:Generated_Source\PSoC5/CAN_INT.c ****     *
 397:Generated_Source\PSoC5/CAN_INT.c ****     * Parameters:
 398:Generated_Source\PSoC5/CAN_INT.c ****     *  None.
 399:Generated_Source\PSoC5/CAN_INT.c ****     *
 400:Generated_Source\PSoC5/CAN_INT.c ****     * Return:
 401:Generated_Source\PSoC5/CAN_INT.c ****     *  None.
 402:Generated_Source\PSoC5/CAN_INT.c ****     *
 403:Generated_Source\PSoC5/CAN_INT.c ****     *******************************************************************************/
 404:Generated_Source\PSoC5/CAN_INT.c ****     void CAN_MsgRXIsr(void) 
 405:Generated_Source\PSoC5/CAN_INT.c ****     {
 330              		.loc 1 405 0
 331              		.cfi_startproc
 332              		@ args = 0, pretend = 0, frame = 0
 333              		@ frame_needed = 0, uses_anonymous_args = 0
 334              	.LVL2:
 335 0000 F8B5     		push	{r3, r4, r5, r6, r7, lr}
 336              		.cfi_def_cfa_offset 24
 337              		.cfi_offset 3, -24
 338              		.cfi_offset 4, -20
 339              		.cfi_offset 5, -16
 340              		.cfi_offset 6, -12
 341              		.cfi_offset 7, -8
 342              		.cfi_offset 14, -4
 406:Generated_Source\PSoC5/CAN_INT.c ****         uint8 mailboxNumber;
 407:Generated_Source\PSoC5/CAN_INT.c ****         uint16 shift = 0x01u;
 408:Generated_Source\PSoC5/CAN_INT.c **** 
 409:Generated_Source\PSoC5/CAN_INT.c ****         /* Clear Receive Message flag */
 410:Generated_Source\PSoC5/CAN_INT.c ****         CAN_INT_SR_REG.byte[1u] = CAN_RX_MESSAGE_MASK;
 343              		.loc 1 410 0
 344 0002 0D4B     		ldr	r3, .L18
 345 0004 1022     		movs	r2, #16
 346 0006 0D4E     		ldr	r6, .L18+4
 411:Generated_Source\PSoC5/CAN_INT.c **** 
 412:Generated_Source\PSoC5/CAN_INT.c ****         /* `#START MESSAGE_RECEIVE_ISR` */
 413:Generated_Source\PSoC5/CAN_INT.c **** 
 414:Generated_Source\PSoC5/CAN_INT.c ****         /* `#END` */
 415:Generated_Source\PSoC5/CAN_INT.c **** 
 416:Generated_Source\PSoC5/CAN_INT.c ****         #ifdef CAN_MSG_RX_ISR_CALLBACK
 417:Generated_Source\PSoC5/CAN_INT.c ****             CAN_MsgRXIsr_Callback();
 418:Generated_Source\PSoC5/CAN_INT.c ****         #endif /* CAN_MSG_RX_ISR_CALLBACK */
 419:Generated_Source\PSoC5/CAN_INT.c **** 
ARM GAS  C:\Users\Bruger\AppData\Local\Temp\ccYYUhYC.s 			page 30


 420:Generated_Source\PSoC5/CAN_INT.c ****         for (mailboxNumber = 0u; mailboxNumber < CAN_NUMBER_OF_RX_MAILBOXES; mailboxNumber++)
 421:Generated_Source\PSoC5/CAN_INT.c ****         {
 422:Generated_Source\PSoC5/CAN_INT.c ****             if ((CY_GET_REG16((reg16 *) &CAN_BUF_SR_REG.byte[0u]) & shift) != 0u)
 347              		.loc 1 422 0
 348 0008 0D4F     		ldr	r7, .L18+8
 410:Generated_Source\PSoC5/CAN_INT.c **** 
 349              		.loc 1 410 0
 350 000a 5A70     		strb	r2, [r3, #1]
 351              	.LVL3:
 407:Generated_Source\PSoC5/CAN_INT.c **** 
 352              		.loc 1 407 0
 353 000c 0125     		movs	r5, #1
 420:Generated_Source\PSoC5/CAN_INT.c ****         {
 354              		.loc 1 420 0
 355 000e 0024     		movs	r4, #0
 356 0010 07E0     		b	.L7
 357              	.LVL4:
 358              	.L6:
 420:Generated_Source\PSoC5/CAN_INT.c ****         {
 359              		.loc 1 420 0 is_stmt 0 discriminator 2
 360 0012 0134     		adds	r4, r4, #1
 361              	.LVL5:
 362 0014 E4B2     		uxtb	r4, r4
 423:Generated_Source\PSoC5/CAN_INT.c ****             {
 424:Generated_Source\PSoC5/CAN_INT.c ****                 if ((CAN_RX[mailboxNumber].rxcmd.byte[0u] & CAN_RX_INT_ENABLE_MASK) != 0u)
 425:Generated_Source\PSoC5/CAN_INT.c ****                 {
 426:Generated_Source\PSoC5/CAN_INT.c ****                     if ((CAN_RX_MAILBOX_TYPE & shift) != 0u)
 427:Generated_Source\PSoC5/CAN_INT.c ****                     {
 428:Generated_Source\PSoC5/CAN_INT.c ****                         /* RX Full mailboxes handler */
 429:Generated_Source\PSoC5/CAN_INT.c ****                     }
 430:Generated_Source\PSoC5/CAN_INT.c ****                     else
 431:Generated_Source\PSoC5/CAN_INT.c ****                     {
 432:Generated_Source\PSoC5/CAN_INT.c ****                         /* RX Basic mailbox handler */
 433:Generated_Source\PSoC5/CAN_INT.c ****                         CAN_ReceiveMsg(mailboxNumber);
 434:Generated_Source\PSoC5/CAN_INT.c ****                     }
 435:Generated_Source\PSoC5/CAN_INT.c ****                 }
 436:Generated_Source\PSoC5/CAN_INT.c ****             }
 437:Generated_Source\PSoC5/CAN_INT.c ****             shift <<= 1u;
 363              		.loc 1 437 0 is_stmt 1 discriminator 2
 364 0016 6D00     		lsls	r5, r5, #1
 365              	.LVL6:
 420:Generated_Source\PSoC5/CAN_INT.c ****         {
 366              		.loc 1 420 0 discriminator 2
 367 0018 102C     		cmp	r4, #16
 368              		.loc 1 437 0 discriminator 2
 369 001a ADB2     		uxth	r5, r5
 370              	.LVL7:
 371 001c 06F12006 		add	r6, r6, #32
 420:Generated_Source\PSoC5/CAN_INT.c ****         {
 372              		.loc 1 420 0 discriminator 2
 373 0020 09D0     		beq	.L17
 374              	.LVL8:
 375              	.L7:
 422:Generated_Source\PSoC5/CAN_INT.c ****             {
 376              		.loc 1 422 0
 377 0022 3B88     		ldrh	r3, [r7]
 378 0024 1D42     		tst	r5, r3
ARM GAS  C:\Users\Bruger\AppData\Local\Temp\ccYYUhYC.s 			page 31


 379 0026 F4D0     		beq	.L6
 424:Generated_Source\PSoC5/CAN_INT.c ****                 {
 380              		.loc 1 424 0
 381 0028 3378     		ldrb	r3, [r6]	@ zero_extendqisi2
 382 002a 9B06     		lsls	r3, r3, #26
 383 002c F1D5     		bpl	.L6
 433:Generated_Source\PSoC5/CAN_INT.c ****                     }
 384              		.loc 1 433 0
 385 002e 2046     		mov	r0, r4
 386 0030 FFF7FEFF 		bl	CAN_ReceiveMsg
 387              	.LVL9:
 388 0034 EDE7     		b	.L6
 389              	.L17:
 438:Generated_Source\PSoC5/CAN_INT.c ****         }
 439:Generated_Source\PSoC5/CAN_INT.c ****     }
 390              		.loc 1 439 0
 391 0036 F8BD     		pop	{r3, r4, r5, r6, r7, pc}
 392              	.LVL10:
 393              	.L19:
 394              		.align	2
 395              	.L18:
 396 0038 00A00040 		.word	1073782784
 397 003c A0A00040 		.word	1073782944
 398 0040 08A00040 		.word	1073782792
 399              		.cfi_endproc
 400              	.LFE1:
 401              		.size	CAN_MsgRXIsr, .-CAN_MsgRXIsr
 402              		.section	.text.CAN_ISR,"ax",%progbits
 403              		.align	2
 404              		.global	CAN_ISR
 405              		.thumb
 406              		.thumb_func
 407              		.type	CAN_ISR, %function
 408              	CAN_ISR:
 409              	.LFB2:
 440:Generated_Source\PSoC5/CAN_INT.c **** #endif /* CAN_RX_MESSAGE */
 441:Generated_Source\PSoC5/CAN_INT.c **** 
 442:Generated_Source\PSoC5/CAN_INT.c **** 
 443:Generated_Source\PSoC5/CAN_INT.c **** /*******************************************************************************
 444:Generated_Source\PSoC5/CAN_INT.c **** * Function Name: CAN_ISR
 445:Generated_Source\PSoC5/CAN_INT.c **** ********************************************************************************
 446:Generated_Source\PSoC5/CAN_INT.c **** *
 447:Generated_Source\PSoC5/CAN_INT.c **** * Summary:
 448:Generated_Source\PSoC5/CAN_INT.c **** *  This ISR is executed when CAN Core generates and interrupt on one of events:
 449:Generated_Source\PSoC5/CAN_INT.c **** *  Arb_lost, Overload, Bit_err, Stuff_err, Ack_err, Form_err, Crc_err,
 450:Generated_Source\PSoC5/CAN_INT.c **** *  Buss_off, Rx_msg_lost, Tx_msg or Rx_msg. The interrupt sources depends
 451:Generated_Source\PSoC5/CAN_INT.c **** *  on the Customizer inputs.
 452:Generated_Source\PSoC5/CAN_INT.c **** *
 453:Generated_Source\PSoC5/CAN_INT.c **** * Parameters:
 454:Generated_Source\PSoC5/CAN_INT.c **** *  None.
 455:Generated_Source\PSoC5/CAN_INT.c **** *
 456:Generated_Source\PSoC5/CAN_INT.c **** * Return:
 457:Generated_Source\PSoC5/CAN_INT.c **** *  None.
 458:Generated_Source\PSoC5/CAN_INT.c **** *
 459:Generated_Source\PSoC5/CAN_INT.c **** *******************************************************************************/
 460:Generated_Source\PSoC5/CAN_INT.c **** CY_ISR(CAN_ISR)
 461:Generated_Source\PSoC5/CAN_INT.c **** {
ARM GAS  C:\Users\Bruger\AppData\Local\Temp\ccYYUhYC.s 			page 32


 410              		.loc 1 461 0
 411              		.cfi_startproc
 412              		@ args = 0, pretend = 0, frame = 0
 413              		@ frame_needed = 0, uses_anonymous_args = 0
 414 0000 F8B5     		push	{r3, r4, r5, r6, r7, lr}
 415              		.cfi_def_cfa_offset 24
 416              		.cfi_offset 3, -24
 417              		.cfi_offset 4, -20
 418              		.cfi_offset 5, -16
 419              		.cfi_offset 6, -12
 420              		.cfi_offset 7, -8
 421              		.cfi_offset 14, -4
 462:Generated_Source\PSoC5/CAN_INT.c ****     #ifdef CAN_ISR_INTERRUPT_CALLBACK
 463:Generated_Source\PSoC5/CAN_INT.c ****         CAN_ISR_InterruptCallback();
 464:Generated_Source\PSoC5/CAN_INT.c ****     #endif /* CAN_ISR_INTERRUPT_CALLBACK */
 465:Generated_Source\PSoC5/CAN_INT.c ****     
 466:Generated_Source\PSoC5/CAN_INT.c ****     /* Place your Interrupt code here. */
 467:Generated_Source\PSoC5/CAN_INT.c ****     /* `#START CAN_ISR` */
 468:Generated_Source\PSoC5/CAN_INT.c **** 
 469:Generated_Source\PSoC5/CAN_INT.c ****     /* `#END` */
 470:Generated_Source\PSoC5/CAN_INT.c ****     
 471:Generated_Source\PSoC5/CAN_INT.c ****     /* Arbitration */
 472:Generated_Source\PSoC5/CAN_INT.c ****     #if (CAN_ARB_LOST && (CAN_ARB_LOST_USE_HELPER || \
 473:Generated_Source\PSoC5/CAN_INT.c ****         (!CAN_ADVANCED_INTERRUPT_CFG)))
 474:Generated_Source\PSoC5/CAN_INT.c ****         if ((CAN_INT_SR_REG.byte[0u] & CAN_ARBITRATION_LOST_MASK) != 0u)
 475:Generated_Source\PSoC5/CAN_INT.c ****         {
 476:Generated_Source\PSoC5/CAN_INT.c ****             CAN_ArbLostIsr();
 477:Generated_Source\PSoC5/CAN_INT.c ****         }
 478:Generated_Source\PSoC5/CAN_INT.c ****     #endif /* CAN_ARB_LOST && CAN_ARB_LOST_USE_HELPER */
 479:Generated_Source\PSoC5/CAN_INT.c **** 
 480:Generated_Source\PSoC5/CAN_INT.c ****     /* Overload Error */
 481:Generated_Source\PSoC5/CAN_INT.c ****     #if (CAN_OVERLOAD && (CAN_OVERLOAD_USE_HELPER || \
 482:Generated_Source\PSoC5/CAN_INT.c ****         (!CAN_ADVANCED_INTERRUPT_CFG)))
 483:Generated_Source\PSoC5/CAN_INT.c ****         if ((CAN_INT_SR_REG.byte[0u] & CAN_OVERLOAD_ERROR_MASK) != 0u)
 484:Generated_Source\PSoC5/CAN_INT.c ****         {
 485:Generated_Source\PSoC5/CAN_INT.c ****             CAN_OvrLdErrorIsr();
 486:Generated_Source\PSoC5/CAN_INT.c ****         }
 487:Generated_Source\PSoC5/CAN_INT.c ****     #endif /* CAN_OVERLOAD && CAN_OVERLOAD_USE_HELPER */
 488:Generated_Source\PSoC5/CAN_INT.c **** 
 489:Generated_Source\PSoC5/CAN_INT.c ****     /* Bit Error */
 490:Generated_Source\PSoC5/CAN_INT.c ****     #if (CAN_BIT_ERR && (CAN_BIT_ERR_USE_HELPER || \
 491:Generated_Source\PSoC5/CAN_INT.c ****         (!CAN_ADVANCED_INTERRUPT_CFG)))
 492:Generated_Source\PSoC5/CAN_INT.c ****         if ((CAN_INT_SR_REG.byte[0u] & CAN_BIT_ERROR_MASK) != 0u)
 493:Generated_Source\PSoC5/CAN_INT.c ****         {
 494:Generated_Source\PSoC5/CAN_INT.c ****             CAN_BitErrorIsr();
 495:Generated_Source\PSoC5/CAN_INT.c ****         }
 496:Generated_Source\PSoC5/CAN_INT.c ****     #endif /* CAN_BIT_ERR && CAN_BIT_ERR_USE_HELPER */
 497:Generated_Source\PSoC5/CAN_INT.c **** 
 498:Generated_Source\PSoC5/CAN_INT.c ****     /* Bit Staff Error */
 499:Generated_Source\PSoC5/CAN_INT.c ****     #if (CAN_STUFF_ERR && (CAN_STUFF_ERR_USE_HELPER || \
 500:Generated_Source\PSoC5/CAN_INT.c ****         (!CAN_ADVANCED_INTERRUPT_CFG)))
 501:Generated_Source\PSoC5/CAN_INT.c ****         if ((CAN_INT_SR_REG.byte[0u] & CAN_STUFF_ERROR_MASK) != 0u)
 502:Generated_Source\PSoC5/CAN_INT.c ****         {
 503:Generated_Source\PSoC5/CAN_INT.c ****             CAN_BitStuffErrorIsr();
 504:Generated_Source\PSoC5/CAN_INT.c ****         }
 505:Generated_Source\PSoC5/CAN_INT.c ****     #endif /* CAN_STUFF_ERR && CAN_STUFF_ERR_USE_HELPER */
 506:Generated_Source\PSoC5/CAN_INT.c **** 
ARM GAS  C:\Users\Bruger\AppData\Local\Temp\ccYYUhYC.s 			page 33


 507:Generated_Source\PSoC5/CAN_INT.c ****     /* ACK Error */
 508:Generated_Source\PSoC5/CAN_INT.c ****     #if (CAN_ACK_ERR && (CAN_ACK_ERR_USE_HELPER || \
 509:Generated_Source\PSoC5/CAN_INT.c ****         (!CAN_ADVANCED_INTERRUPT_CFG)))
 510:Generated_Source\PSoC5/CAN_INT.c ****         if ((CAN_INT_SR_REG.byte[0u] & CAN_ACK_ERROR_MASK) != 0u)
 511:Generated_Source\PSoC5/CAN_INT.c ****         {
 512:Generated_Source\PSoC5/CAN_INT.c ****             CAN_AckErrorIsr();
 513:Generated_Source\PSoC5/CAN_INT.c ****         }
 514:Generated_Source\PSoC5/CAN_INT.c ****     #endif /* CAN_ACK_ERR && CAN_ACK_ERR_USE_HELPER */
 515:Generated_Source\PSoC5/CAN_INT.c **** 
 516:Generated_Source\PSoC5/CAN_INT.c ****     /* Form(msg) Error */
 517:Generated_Source\PSoC5/CAN_INT.c ****     #if (CAN_FORM_ERR && (CAN_FORM_ERR_USE_HELPER || \
 518:Generated_Source\PSoC5/CAN_INT.c ****         (!CAN_ADVANCED_INTERRUPT_CFG)))
 519:Generated_Source\PSoC5/CAN_INT.c ****         if ((CAN_INT_SR_REG.byte[0u] & CAN_FORM_ERROR_MASK) != 0u)
 520:Generated_Source\PSoC5/CAN_INT.c ****         {
 521:Generated_Source\PSoC5/CAN_INT.c ****             CAN_MsgErrorIsr();
 522:Generated_Source\PSoC5/CAN_INT.c ****         }
 523:Generated_Source\PSoC5/CAN_INT.c ****     #endif /* CAN_FORM_ERR && CAN_FORM_ERR_USE_HELPER */
 524:Generated_Source\PSoC5/CAN_INT.c **** 
 525:Generated_Source\PSoC5/CAN_INT.c ****     /* CRC Error */
 526:Generated_Source\PSoC5/CAN_INT.c ****     #if (CAN_CRC_ERR && (CAN_CRC_ERR_USE_HELPER || \
 527:Generated_Source\PSoC5/CAN_INT.c ****         (!CAN_ADVANCED_INTERRUPT_CFG)))
 528:Generated_Source\PSoC5/CAN_INT.c ****         if ((CAN_INT_SR_REG.byte[1u] & CAN_CRC_ERROR_MASK) != 0u)
 529:Generated_Source\PSoC5/CAN_INT.c ****         {
 530:Generated_Source\PSoC5/CAN_INT.c ****             CAN_CrcErrorIsr();
 531:Generated_Source\PSoC5/CAN_INT.c ****         }
 532:Generated_Source\PSoC5/CAN_INT.c ****     #endif /* CAN_CRC_ERR && CAN_CRC_ERR_USE_HELPER */
 533:Generated_Source\PSoC5/CAN_INT.c **** 
 534:Generated_Source\PSoC5/CAN_INT.c ****     /* Bus Off state */
 535:Generated_Source\PSoC5/CAN_INT.c ****     #if (CAN_BUS_OFF && (CAN_BUS_OFF_USE_HELPER || \
 536:Generated_Source\PSoC5/CAN_INT.c ****         (!CAN_ADVANCED_INTERRUPT_CFG)))
 537:Generated_Source\PSoC5/CAN_INT.c ****         if ((CAN_INT_SR_REG.byte[1u] & CAN_BUS_OFF_MASK) != 0u)
 422              		.loc 1 537 0
 423 0002 144B     		ldr	r3, .L39
 424 0004 5A78     		ldrb	r2, [r3, #1]	@ zero_extendqisi2
 425 0006 9107     		lsls	r1, r2, #30
 426 0008 1DD4     		bmi	.L37
 427              	.L21:
 538:Generated_Source\PSoC5/CAN_INT.c ****         {
 539:Generated_Source\PSoC5/CAN_INT.c ****             CAN_BusOffIsr();
 540:Generated_Source\PSoC5/CAN_INT.c ****         }
 541:Generated_Source\PSoC5/CAN_INT.c ****     #endif /* CAN_BUS_OFF && CAN_BUS_OFF_USE_HELPER */
 542:Generated_Source\PSoC5/CAN_INT.c **** 
 543:Generated_Source\PSoC5/CAN_INT.c ****     /* Message Lost */
 544:Generated_Source\PSoC5/CAN_INT.c ****     #if (CAN_RX_MSG_LOST && (CAN_RX_MSG_LOST_USE_HELPER || \
 545:Generated_Source\PSoC5/CAN_INT.c ****         (!CAN_ADVANCED_INTERRUPT_CFG)))
 546:Generated_Source\PSoC5/CAN_INT.c ****         if ((CAN_INT_SR_REG.byte[1u] & CAN_RX_MSG_LOST_MASK) != 0u)
 547:Generated_Source\PSoC5/CAN_INT.c ****         {
 548:Generated_Source\PSoC5/CAN_INT.c ****             CAN_MsgLostIsr();
 549:Generated_Source\PSoC5/CAN_INT.c ****         }
 550:Generated_Source\PSoC5/CAN_INT.c ****     #endif /* CAN_RX_MSG_LOST && CAN_RX_MSG_LOST_USE_HELPER */
 551:Generated_Source\PSoC5/CAN_INT.c **** 
 552:Generated_Source\PSoC5/CAN_INT.c ****     /* TX Message Send */
 553:Generated_Source\PSoC5/CAN_INT.c ****     #if (CAN_TX_MESSAGE && (CAN_TX_MESSAGE_USE_HELPER || \
 554:Generated_Source\PSoC5/CAN_INT.c ****         (!CAN_ADVANCED_INTERRUPT_CFG)))
 555:Generated_Source\PSoC5/CAN_INT.c ****         if ((CAN_INT_SR_REG.byte[1u] & CAN_TX_MESSAGE_MASK) != 0u)
 556:Generated_Source\PSoC5/CAN_INT.c ****         {
 557:Generated_Source\PSoC5/CAN_INT.c ****             CAN_MsgTXIsr();
ARM GAS  C:\Users\Bruger\AppData\Local\Temp\ccYYUhYC.s 			page 34


 558:Generated_Source\PSoC5/CAN_INT.c ****         }
 559:Generated_Source\PSoC5/CAN_INT.c ****     #endif /* CAN_TX_MESSAGE && CAN_TX_MESSAGE_USE_HELPER */
 560:Generated_Source\PSoC5/CAN_INT.c **** 
 561:Generated_Source\PSoC5/CAN_INT.c ****     /* RX Message Available */
 562:Generated_Source\PSoC5/CAN_INT.c ****     #if (CAN_RX_MESSAGE && (CAN_RX_MESSAGE_USE_HELPER || \
 563:Generated_Source\PSoC5/CAN_INT.c ****         (!CAN_ADVANCED_INTERRUPT_CFG)))
 564:Generated_Source\PSoC5/CAN_INT.c ****         if ((CAN_INT_SR_REG.byte[1u] & CAN_RX_MESSAGE_MASK) != 0u)
 428              		.loc 1 564 0
 429 000a 124B     		ldr	r3, .L39
 430 000c 5A78     		ldrb	r2, [r3, #1]	@ zero_extendqisi2
 431 000e D206     		lsls	r2, r2, #27
 432 0010 00D4     		bmi	.L38
 433              	.L20:
 434 0012 F8BD     		pop	{r3, r4, r5, r6, r7, pc}
 435              	.L38:
 436              	.LVL11:
 437              	.LBB8:
 438              	.LBB9:
 410:Generated_Source\PSoC5/CAN_INT.c **** 
 439              		.loc 1 410 0
 440 0014 1022     		movs	r2, #16
 441 0016 104E     		ldr	r6, .L39+4
 422:Generated_Source\PSoC5/CAN_INT.c ****             {
 442              		.loc 1 422 0
 443 0018 104F     		ldr	r7, .L39+8
 410:Generated_Source\PSoC5/CAN_INT.c **** 
 444              		.loc 1 410 0
 445 001a 5A70     		strb	r2, [r3, #1]
 446              	.LVL12:
 420:Generated_Source\PSoC5/CAN_INT.c ****         {
 447              		.loc 1 420 0
 448 001c 0024     		movs	r4, #0
 407:Generated_Source\PSoC5/CAN_INT.c **** 
 449              		.loc 1 407 0
 450 001e 0125     		movs	r5, #1
 451 0020 07E0     		b	.L24
 452              	.LVL13:
 453              	.L23:
 420:Generated_Source\PSoC5/CAN_INT.c ****         {
 454              		.loc 1 420 0
 455 0022 0134     		adds	r4, r4, #1
 456              	.LVL14:
 457 0024 E4B2     		uxtb	r4, r4
 437:Generated_Source\PSoC5/CAN_INT.c ****         }
 458              		.loc 1 437 0
 459 0026 6D00     		lsls	r5, r5, #1
 460              	.LVL15:
 420:Generated_Source\PSoC5/CAN_INT.c ****         {
 461              		.loc 1 420 0
 462 0028 102C     		cmp	r4, #16
 437:Generated_Source\PSoC5/CAN_INT.c ****         }
 463              		.loc 1 437 0
 464 002a ADB2     		uxth	r5, r5
 465              	.LVL16:
 466 002c 06F12006 		add	r6, r6, #32
 420:Generated_Source\PSoC5/CAN_INT.c ****         {
 467              		.loc 1 420 0
ARM GAS  C:\Users\Bruger\AppData\Local\Temp\ccYYUhYC.s 			page 35


 468 0030 EFD0     		beq	.L20
 469              	.LVL17:
 470              	.L24:
 422:Generated_Source\PSoC5/CAN_INT.c ****             {
 471              		.loc 1 422 0
 472 0032 3B88     		ldrh	r3, [r7]
 473 0034 1D42     		tst	r5, r3
 474 0036 F4D0     		beq	.L23
 424:Generated_Source\PSoC5/CAN_INT.c ****                 {
 475              		.loc 1 424 0
 476 0038 3378     		ldrb	r3, [r6]	@ zero_extendqisi2
 477 003a 9B06     		lsls	r3, r3, #26
 478 003c F1D5     		bpl	.L23
 433:Generated_Source\PSoC5/CAN_INT.c ****                     }
 479              		.loc 1 433 0
 480 003e 2046     		mov	r0, r4
 481 0040 FFF7FEFF 		bl	CAN_ReceiveMsg
 482              	.LVL18:
 483 0044 EDE7     		b	.L23
 484              	.LVL19:
 485              	.L37:
 486              	.LBE9:
 487              	.LBE8:
 488              	.LBB10:
 489              	.LBB11:
 299:Generated_Source\PSoC5/CAN_INT.c ****         (void) CAN_GlobalIntDisable();
 490              		.loc 1 299 0
 491 0046 0222     		movs	r2, #2
 492 0048 5A70     		strb	r2, [r3, #1]
 300:Generated_Source\PSoC5/CAN_INT.c **** 
 493              		.loc 1 300 0
 494 004a FFF7FEFF 		bl	CAN_GlobalIntDisable
 495              	.LVL20:
 310:Generated_Source\PSoC5/CAN_INT.c ****     }
 496              		.loc 1 310 0
 497 004e FFF7FEFF 		bl	CAN_Stop
 498              	.LVL21:
 499 0052 DAE7     		b	.L21
 500              	.L40:
 501              		.align	2
 502              	.L39:
 503 0054 00A00040 		.word	1073782784
 504 0058 A0A00040 		.word	1073782944
 505 005c 08A00040 		.word	1073782792
 506              	.LBE11:
 507              	.LBE10:
 508              		.cfi_endproc
 509              	.LFE2:
 510              		.size	CAN_ISR, .-CAN_ISR
 511              		.text
 512              	.Letext0:
 513              		.file 2 "Generated_Source\\PSoC5\\cytypes.h"
 514              		.file 3 "Generated_Source\\PSoC5\\CAN.h"