ARM GAS  C:\Users\Bruger\AppData\Local\Temp\cc6AEA3I.s 			page 1


   1              		.syntax unified
   2              		.cpu cortex-m3
   3              		.fpu softvfp
   4              		.eabi_attribute 20, 1
   5              		.eabi_attribute 21, 1
   6              		.eabi_attribute 23, 3
   7              		.eabi_attribute 24, 1
   8              		.eabi_attribute 25, 1
   9              		.eabi_attribute 26, 1
  10              		.eabi_attribute 30, 2
  11              		.eabi_attribute 34, 1
  12              		.eabi_attribute 18, 4
  13              		.thumb
  14              		.file	"CrankTriggerCaptureCounter.c"
  15              		.text
  16              	.Ltext0:
  17              		.section	.gnu.lto_.profile.150956ac,"",%progbits
  18 0000 789C6366 		.ascii	"x\234cf```a\200\000F\206b\017\000\001\242\000\304"
  18      60606061 
  18      80004686 
  18      620F0001 
  18      A200C4
  19              		.text
  20              		.section	.gnu.lto_.jmpfuncs.150956ac,"",%progbits
  21 0000 789C6366 		.ascii	"x\234cf\300\016\034\241\264\000\0203B0\023\220ba``e"
  21      C00E1CA1 
  21      B4001033 
  21      42301390 
  21      62616060 
  22 0015 6464AC67 		.ascii	"dd\254gc``g`\340\00019A\004\027\003\0037\003\003\017"
  22      63606067 
  22      60E00031 
  22      39410417 
  22      03033703 
  23 002b 88C9CBC0 		.ascii	"\210\311\313\300\300\007\242\371!\232\001d\025\003e"
  23      C007A2F9 
  23      219A0164 
  23      150365
  24              		.text
  25              		.section	.gnu.lto_.inline.150956ac,"",%progbits
  26 0000 789C6DCA 		.ascii	"x\234m\312\261\015\2030\024\004\320\263\261?\216M\200"
  26      B10D8330 
  26      1404D0B3 
  26      B13F8E4D 
  26      80
  27 0011 0122D153 		.ascii	"\001\"\321S\320g\201\224Y\"\013e\004\246`\014\224\202"
  27      D0678194 
  27      59220B65 
  27      04A6600C 
  27      9482
  28 0023 9E3E5546 		.ascii	"\236>UF\340\243H\2468~\361Ozw\005\316\357a\376\331\002"
  28      E0A348A6 
  28      387EF14F 
  28      7A7705CE 
  28      EF61FED9 
  29 0038 B71506B6 		.ascii	"\267\025\006\266\237\346\000\031;\273\253M\200y?\367"
  29      9FE60019 
ARM GAS  C:\Users\Bruger\AppData\Local\Temp\cc6AEA3I.s 			page 2


  29      3BBBAB4D 
  29      80793FF7 
  30 0048 D04EBCF6 		.ascii	"\320N\274\366\362\033\216\032\251R\252\277\257L&\352"
  30      F21B8E1A 
  30      A952AABF 
  30      AF4C26EA 
  31 0058 733CF570 		.ascii	"s<\365p\205\222\3754\231\204\251d\012L\027\246\010\357"
  31      8592FD34 
  31      9984A964 
  31      0A4C17A6 
  31      08EF
  32 006a 94DCD865 		.ascii	"\224\334\330eJ\274\252\230\256L5S\303\324\"\334\225"
  32      4ABCAA98 
  32      AE4C3553 
  32      C3D422DC 
  32      95
  33 007b E2B44836 		.ascii	"\342\264H6l\256\232 \274"
  33      6CAE9A20 
  33      BC
  34              		.text
  35              		.section	.gnu.lto_.pureconst.150956ac,"",%progbits
  36 0000 789C25C1 		.ascii	"x\234%\301\267\001\000 \014\004\261'gp}\035\373/I\201"
  36      B7010020 
  36      0C04B127 
  36      67707D1D 
  36      FB2F4981 
  37 0014 14245D7D 		.ascii	"\024$]}&\034\236H\"S\2504:\203\311bs0\036(\023\002Z"
  37      261C9E48 
  37      2253A834 
  37      3A83C962 
  37      73301E28 
  38              		.text
  39              		.section	.gnu.lto_CrankTriggerCaptureCounter_Init.150956ac,"",%progbits
  40 0000 789C7D56 		.ascii	"x\234}V]LTG\024\2363\367\356\336eY~$Q\033\322\246\017"
  40      5D4C5447 
  40      149E33F7 
  40      EEDE6559 
  40      7E24511B 
  41 0017 3C1092C6 		.ascii	"<\020\222\306\207\246\215/}0!\215OML\350C\037H\014\301"
  41      87A68D2F 
  41      7D30218D 
  41      4F4D4CE8 
  41      431F480C 
  42 002c ADA15620 		.ascii	"\255\241V \353\362h\274++\261\226\020\244J\267X\321"
  42      EBF268BC 
  42      2B2BB196 
  42      10A44AB7 
  42      58D1
  43 003e B650A0E8 		.ascii	"\266P\240\350R\240\370SD\026\374Y\250\210 \010\210\374"
  43      52A0F853 
  43      4416FC59 
  43      A8882008 
  43      88FC
  44 0050 C98F8A29 		.ascii	"\311\217\212)\224\005\302O\244l\317\314\334\275e\177"
  44      9405C24F 
  44      A46CCFCC 
  44      DCBD657F 
ARM GAS  C:\Users\Bruger\AppData\Local\Temp\cc6AEA3I.s 			page 3


  45 0060 6493BD3B 		.ascii	"d\223\275;w\346\2343\337w\3167gV\"\341\237O\361\233"
  45      77E69C33 
  45      DF77CE37 
  45      675622E1 
  45      9F4FF19B 
  46 0074 1C45C8B7 		.ascii	"\034E\310\267\370\013F\002\264\270\233\020\207\211\202"
  46      F80B4602 
  46      B4B89B10 
  46      878982
  47 0083 2C069218 		.ascii	",\006\222\030\264\231d*\025z\011Q\315\006\247BT\213"
  47      B499642A 
  47      157A0951 
  47      CD06A742 
  47      548B
  48 0095 0180CD13 		.ascii	"\001\200\315\023 '\250$\033\340\004\225E\300Y\352\243"
  48      2027A824 
  48      1BE00495 
  48      45C059EA 
  48      A3
  49 00a6 50ECA975 		.ascii	"P\354\251uE'W\252\252\272\360\270\323q\300\003\353\224"
  49      452757AA 
  49      AABAF0B8 
  49      D371C003 
  49      EB94
  50 00b8 90252A2C 		.ascii	"\220%*,\240\012\222\011\032m8\353\236\307I{\201\215"
  50      A00A9209 
  50      1A6D38EB 
  50      9EC7497B 
  50      818D
  51 00ca DF549C99 		.ascii	"\337T\234\2316'\375\244\252''\206\006\322=\216\313\352"
  51      3627FDA4 
  51      AA272786 
  51      06D23D8E 
  51      CBEA
  52 00dc A6DF8F5E 		.ascii	"\246\337\217^\000\325 \241#|\220\010)\211\032f\264w"
  52      00D520A1 
  52      237C9008 
  52      29891A66 
  52      B477
  53 00ee 55F95A2D 		.ascii	"U\371Z-\322'\334\267an|-\216\373^\036u\253\373\266\370"
  53      D227DCB7 
  53      616E7C2D 
  53      8EFB5E1E 
  53      75ABFBB6 
  54 0103 FE16D1D7 		.ascii	"\376\026\321\327\347\374w0\332\350Dp\361P\003IP\013"
  54      E7FC7730 
  54      DAE84470 
  54      F1500349 
  54      500B
  55 0115 49021B5C 		.ascii	"I\002\033\\\001#\020B\003\263u\011\036\325\357o\254"
  55      01231042 
  55      03B37509 
  55      1ED5EF6F 
  55      AC
  56 0126 6A5B51DE 		.ascii	"j[Q\336\241d\235R\211\260%\231\015\215\354\241\360w"
  56      A1649D52 
  56      89B02599 
ARM GAS  C:\Users\Bruger\AppData\Local\Temp\cc6AEA3I.s 			page 4


  56      0D8DECA1 
  56      F077
  57 0138 131B5AF0 		.ascii	"\023\033Z\360\001\361\204\271\355`\357\011\354\261\023"
  57      01F184B9 
  57      ED60EF09 
  57      ECB113
  58 0147 1FD22EB6 		.ascii	"\037\322.\266\262\233\275\0222\215_L\337\014\216\235"
  58      B29BBD12 
  58      328D5F4C 
  58      DF0C8E9D 
  59 0157 8A340CED 		.ascii	"\2124\014\355+g6\177\370\202\355\273JY\336\346^\216"
  59      2B67367F 
  59      F882EDBB 
  59      4A59DEE6 
  59      5E8E
  60 0169 FDACBCA2 		.ascii	"\375\254\274\242\353T\336\354p\2502C;>\375\250\327\304"
  60      EB54DEEC 
  60      70A83243 
  60      3B3EFDA8 
  60      D7C4
  61 017b A738F8F2 		.ascii	"\2478\370\362\371\366\207p\021.8\234\310\320\000W!\021"
  61      F9F68770 
  61      112E389C 
  61      C8D00057 
  61      2111
  62 018d DC80E4A0 		.ascii	"\334\200\344\240\016g\3110\344\257\025\364S\021P\022"
  62      0E67C930 
  62      E4AF15F4 
  62      53115012 
  63 019d 31E7A736 		.ascii	"1\347\2476\362y\000X\003\002\277\243\361\000p\013\206"
  63      F2790058 
  63      0302BFA3 
  63      F100700B 
  63      86
  64 01ae 1DAD98D3 		.ascii	"\035\255\230\323r\301\375\262\036\020n2\316\241[\221"
  64      72C1FDB2 
  64      1E106E32 
  64      CEA15B91 
  65 01be BB62298E 		.ascii	"\273b)\216\2711\326\365\350\205hK\270I\020\012\207\347"
  65      B931D6F5 
  65      E885684B 
  65      B849100A 
  65      87E7
  66 01d0 BD601C0D 		.ascii	"\275`\034\0158\217A\010'7V\246\2213n\007\2751\014\272"
  66      388F4108 
  66      273756A6 
  66      91336E07 
  66      BD310CBA 
  67 01e4 223CEEDD 		.ascii	"\"<\356\335n\2354s\350\033\010\375\217P\350\212\200"
  67      6E9D3473 
  67      E81B08FD 
  67      8F50E88A 
  67      80
  68 01f5 BE5236A4 		.ascii	"\276R6\244A7\341\034\272U\234/\275b\340\320M\004\232"
  68      4137E11C 
  68      BA559C2F 
  68      BD62E0D0 
ARM GAS  C:\Users\Bruger\AppData\Local\Temp\cc6AEA3I.s 			page 5


  68      4D049A
  69 0208 B6819E12 		.ascii	"\266\201\236\022\214\343\032\207nB%\314 iT\273\250\320"
  69      8CE31A87 
  69      6E4225CC 
  69      206954BB 
  69      A8D0
  70 021a D8EC8741 		.ascii	"\330\354\207A\252\361\234\365\306r\255,Q\010\321\023"
  70      AAF19CF5 
  70      C672AD2C 
  70      5108D113 
  71 022a 81EB7888 		.ascii	"\201\353x\210\202'=\203S\035\210\376\006\263\247a\366"
  71      82273D83 
  71      531D88FE 
  71      06B3A761 
  71      F6
  72 023b 37993DFC 		.ascii	"7\231=\374\311\320\357\304\265\346V\347\255\030\006"
  72      C9D0EFC4 
  72      B5E656E7 
  72      AD1806
  73 024a DDE8EA0D 		.ascii	"\335\350\352\015\025\200\010\374c\215\373\224\314\360"
  73      158008FC 
  73      638DFB94 
  73      CCF0
  74 0258 9F7398D6 		.ascii	"\237s\230\326\251\002\315\010\377\026\207\337\302\322"
  74      A902CD08 
  74      FF1687DF 
  74      C2D2
  75 0266 C8B0CB04 		.ascii	"\310\260\313\004\217\246\246\256\016s0\230\276\251\036"
  75      8FA6A6AE 
  75      0E733098 
  75      BEA91E
  76 0275 AA8191C2 		.ascii	"\252\201\221\302\300\334\346`Z\031\230]\270V\375L]\214"
  76      C0DCE660 
  76      5A19985D 
  76      B856FD4C 
  76      5D8C
  77 0287 E6D29B0F 		.ascii	"\346\322\233\017\250q\305\2758\000\372\356\006\360\350"
  77      A871C5BD 
  77      3800FAEE 
  77      06F0E8
  78 0296 C96BD38B 		.ascii	"\311k\323\213\270\014,\376*\335-\2424\374Ry-\212Wc\037"
  78      B80C2CFE 
  78      2ADD2DA2 
  78      34FC5279 
  78      2D8A5763 
  79 02ab 8176B47D 		.ascii	"\201v\264}\002\316\247\371_i6h\340\370\265\271\220\213"
  79      02CEA7F9 
  79      5F693668 
  79      E0F8B5B9 
  79      908B
  80 02bd 1E0F07DC 		.ascii	"\036\017\007\334\001qRg\250\201\035\221\0018\031\317"
  80      01715267 
  80      A8811D91 
  80      013819CF 
  81 02cd F6F537FA 		.ascii	"\366\3657\372z\025\351K\236\357\007\223kK\026fo\342"
  81      7A15E94B 
  81      9EEF0793 
ARM GAS  C:\Users\Bruger\AppData\Local\Temp\cc6AEA3I.s 			page 6


  81      6B4B1666 
  81      6FE2
  82 02df 4B658333 		.ascii	"Ke\2033\313\022{\215\342\331=5\335Wc\020\235\344a\241"
  82      CB127B8D 
  82      E2D93D35 
  82      DD576310 
  82      9DE461A1 
  83 02f3 B15A754E 		.ascii	"\261ZuN\370\375\357\3431\204\273\242\031\334C\304\367"
  83      F8FDEFE3 
  83      3184BBA2 
  83      19DC43C4 
  83      F7
  84 0304 21D00EC0 		.ascii	"!\320\016\300\013I\350t\256\251\325\305\305.\371\375"
  84      0B49E874 
  84      AEA9D5C5 
  84      C52EF9FD 
  85 0314 28F70EA1 		.ascii	"(\367\016\241\231\322\372\027\245Rp\372\\\012\363\320"
  85      99D2FA17 
  85      A55270FA 
  85      5C0AF3D0 
  86 0324 AA2F8725 		.ascii	"\252/\207%\260\223'\360/.\264\263\355\013\005\234\226"
  86      B09327F0 
  86      2F2EB4B3 
  86      ED0B059C 
  86      96
  87 0335 79A827B4 		.ascii	"y\250'\264\224f^\312\331\3576J\342\364dF\303\003\204"
  87      94665ECA 
  87      D9EF364A 
  87      E2F46446 
  87      C30384
  88 0348 D6C593C9 		.ascii	"\326\305\223\311\024\312Q\004\370ww\346\333\245\243"
  88      14CA5104 
  88      F87777E6 
  88      DBA5A3
  89 0357 9C7E6561 		.ascii	"\234~ea\263#&\022\301\356\210\004\037q\202\372\316\022"
  89      B3232612 
  89      C1EE8804 
  89      1F7182FA 
  89      CE12
  90 0369 4EF568F4 		.ascii	"N\365h\364|\375\347C\350]\364\3062\007\215\237!\214"
  90      7CFDE743 
  90      E85DF4C6 
  90      32078D9F 
  90      218C
  91 037b 5F2FE7F7 		.ascii	"_/\347\367\230\363S\213N\373dN\306\025\340w\253\315"
  91      98F3538B 
  91      4EFB644E 
  91      C615E077 
  91      ABCD
  92 038d 3B61D942 		.ascii	";a\331B\250O'\324\317\010\365l!\364\315\325\276&E\312"
  92      A84F27D4 
  92      CF08F56C 
  92      21F4CDD5 
  92      BE2645CA 
  93 03a1 1307A870 		.ascii	"\023\007\250p\261%Jc\364\267\301\025`\004\360$\274\177"
  93      B1254A63 
  93      F4B7C115 
ARM GAS  C:\Users\Bruger\AppData\Local\Temp\cc6AEA3I.s 			page 7


  93      6004F024 
  93      BC7F
  94 03b3 C300E773 		.ascii	"\303\000\347scq\356\222\350\014\357\022\030\014\360"
  94      6371EE92 
  94      E80CEF12 
  94      180CF0
  95 03c2 F9E74E74 		.ascii	"\371\347Nt0\237z\257\2059h|\214a|\2068\237\247\202\317"
  95      309F7AAF 
  95      8539687C 
  95      8C617C86 
  95      389FA782 
  96 03d7 F048310F 		.ascii	"\360H1\017)\027uj|\012\356\216\215FoQ\373\260\256\366"
  96      2917756A 
  96      7C0AEE8E 
  96      8D466F51 
  96      FBB0AEF6 
  97 03eb 678C8FB6 		.ascii	"g\214\217\266o\204SvS\357\020\341\207l\204\3579\312"
  97      6F845376 
  97      53EF10E1 
  97      876C84EF 
  97      39CA
  98 03fd D46FD9F6 		.ascii	"\324o\331\366D\215\261\023\025\310\227\247\244\263'"
  98      448DB113 
  98      15C897A7 
  98      A4B327
  99 040c 4672024F 		.ascii	"Fr\002O\330b\305\353\371\270H\022\030\217(\201\011\274"
  99      D862C5EB 
  99      F9B84812 
  99      188F2881 
  99      09BC
 100 041e CE0292F6 		.ascii	"\316\002\222\366\015~\037R\363\026\254\371\204\236#"
 100      0D7E1F52 
 100      F316ACF9 
 100      849E23
 101 042d 250CEF73 		.ascii	"%\014\357s\216w\222\347\250\362R\207[hz-P\363\246\311"
 101      8E7792E7 
 101      A8F25287 
 101      5B687A2D 
 101      50F3A6C9 
 102 0441 4AA7694B 		.ascii	"J\247iK\315\247\364\232O\007D<\002\371\236A\357^\321"
 102      CDA7F49A 
 102      4F07443C 
 102      02F99E41 
 102      EF5ED1
 103 0454 A3E3590F 		.ascii	"\243\343Y\017\356+r\323\343o\324\323*\272X\226X\313"
 103      EE2B72D3 
 103      E36FD4D3 
 103      2ABA5896 
 103      58CB
 104 0466 8519388E 		.ascii	"\205\0318\216wd\214\336\341kY\207\217\027\371\235/_"
 104      77648CDE 
 104      E16B5987 
 104      8F17F99D 
 104      2F5F
 105 0478 D03AFC0E 		.ascii	"\320:\374\016\364\356\252\270\320b\344\205*\017\024"
 105      F4EEAAB8 
 105      D062E485 
ARM GAS  C:\Users\Bruger\AppData\Local\Temp\cc6AEA3I.s 			page 8


 105      2A0F14
 106 0487 AABBEB7A 		.ascii	"\252\273\353z\243\345\377\253\345\205\236\303\227ZW"
 106      A3E5FFAB 
 106      E5859EC3 
 106      975A57
 107 0496 5A360AFF 		.ascii	"Z6\012\377\004\021Bo!\270\003\274\012\271!\336\032l"
 107      0411426F 
 107      21B803BC 
 107      0AB921DE 
 107      1A6C
 108 04a8 96DF0F09 		.ascii	"\226\337\017\011\310\307\351\361a\326\320\234\204\262"
 108      C8C7E9F1 
 108      61D6D09C 
 108      84B2
 109 04b6 895DA2F8 		.ascii	"\211]\242\370o\012^#\033\204\277N\343\310\0308<\253"
 109      6F0A5E23 
 109      1B84BF4E 
 109      E3C81838 
 109      3CAB
 110 04c8 FBB93161 		.ascii	"\373\2711a\377\000\000\373\032v\272\217\366[\263\255"
 110      FF0000FB 
 110      1A76BA8F 
 110      F65BB3AD 
 111 04d8 B60CBBF5 		.ascii	"\266\014\273\365\320\301\264\234<[\2465\375@ZN\352\307"
 111      D0C1B49C 
 111      3C5BA635 
 111      FD405A4E 
 111      EAC7
 112 04ea E9A9B68C 		.ascii	"\351\251\266\214\354#\237\333\262\016\037\266\332R3"
 112      EC239FDB 
 112      B20E1FB6 
 112      DA5233
 113 04f9 72ED7936 		.ascii	"r\355y6kjN^\266\335j\333\223I\344L\273\355\353\224\267"
 113      6B6A4E5E 
 113      B6DD6ADB 
 113      9349E44C 
 113      BBEDEB94 
 114 050e 9B1CCC62 		.ascii	"\233\034\314bO[^\256=\315\216\241\215\271V[V\316!%S"
 114      4F5B5EAE 
 114      3DCD8EA1 
 114      8DB9565B 
 114      56CE2125 
 115 0523 ACC6EAAB 		.ascii	"\254\306\352\253\307>\3138v\004\247\217\346f\330\254"
 115      C73ECB38 
 115      7604A78F 
 115      E666D8AC 
 116 0533 FF01B844 		.ascii	"\377\001\270Dz\344"
 116      7AE4
 117              		.text
 118              		.section	.gnu.lto_CrankTriggerCaptureCounter_Enable.150956ac,"",%progbits
 119 0000 789C6366 		.ascii	"x\234cf\300\004R@\254\306\310\300`\006\244\031\231\031"
 119      C0045240 
 119      ACC6C8C0 
 119      6006A419 
 119      9919
 120 0012 1899269C 		.ascii	"\030\231&\234c`h\344`bd\0041\030\030\031\352\231\030"
 120      636068E4 
ARM GAS  C:\Users\Bruger\AppData\Local\Temp\cc6AEA3I.s 			page 9


 120      60626404 
 120      31181819 
 120      EA9918
 121 0025 EB195F32 		.ascii	"\353\031_2}db\234p`\365\014n\365\245\015\015\015\037"
 121      7D64629C 
 121      7060F50C 
 121      6EF5A50D 
 121      0D0D1F
 122 0038 3E5D9668 		.ascii	">]\226h\225\370\311\304\300\360\231\011b\014\343rFu"
 122      95F8C9C4 
 122      C0F09909 
 122      620CE372 
 122      4675
 123 004a 06A09A8F 		.ascii	"\006\240\232\217-\177\257s\263\265\000\325\010@\344"
 123      2D7FAF73 
 123      B3B500D5 
 123      0840E4
 124 0059 185730B2 		.ascii	"\030W0\262\001\215gX/t\240\341\377\377\315W&\235\320"
 124      018D6758 
 124      2F74A0E1 
 124      FFFFCD57 
 124      269DD0
 125 006c 67626562 		.ascii	"gbeb\370\311\004\264\014H00<\001\252\002Y\365\224\211"
 125      F8C904B4 
 125      0C483030 
 125      3C01AA02 
 125      59F59489 
 126 0080 094433DF 		.ascii	"\011D3\337b<\364\255\353\336\352\035\214 \235\337\231"
 126      623CF4AD 
 126      EBDEEA1D 
 126      8C209DDF 
 126      99
 127 0091 4016BF7D 		.ascii	"@\026\277}~o\021\373\013\246\237LL\377N46\260\200\354"
 127      7E6F11FB 
 127      0BA69F4C 
 127      4CFF4E34 
 127      36B080EC 
 128 00a5 B9FFE4FC 		.ascii	"\271\377\344\374E\016\260\020\003\210;\357\335\241\263"
 128      450EB010 
 128      03883BEF 
 128      DDA1B3
 129 00b4 8C731967 		.ascii	"\214s\031g7\2660\376dbf\\\311(\305\270\212\021\3505"
 129      37B630FE 
 129      6462665C 
 129      C928C5B8 
 129      8A11E835 
 130 00c8 C6D54051 		.ascii	"\306\325@Q\206[\214\315_\330 \3061CL\234\272g\316$N"
 130      865B8CCD 
 130      5FD820C6 
 130      31434C9C 
 130      BA67CE24 
 131 00dd 9076C606 		.ascii	"\220v\306\006F\006\3065@\245@k'\201\255\304g\332Z\240"
 131      4606C635 
 131      40A5406B 
 131      2781ADC4 
 131      67DA5AA0 
 132 00f1 28D00C86 		.ascii	"(\320\014\206{\214\215\007\376z\201T\203\374\376\004"
ARM GAS  C:\Users\Bruger\AppData\Local\Temp\cc6AEA3I.s 			page 10


 132      7B8C8D07 
 132      FE7A8154 
 132      83FCFE04 
 133 0101 E80DA0CB 		.ascii	"\350\015\240\313\201.1qO\315K-J,IM\211\017\316/-JN\215"
 133      812E3171 
 133      4FCD4B2D 
 133      4A2C494D 
 133      890FCE2F 
 134 0119 0908CE77 		.ascii	"\011\010\316w6\215q.J\314\313\016)\312LOO-rN,()-Ju\316"
 134      368D712E 
 134      4ACCCB0E 
 134      29CA4C4F 
 134      4F2D724E 
 135 0134 2FCD2B49 		.ascii	"/\315+I-\322Kf\000\000\177\360{\304"
 135      2DD24B66 
 135      00007FF0 
 135      7BC4
 136              		.text
 137              		.section	.gnu.lto_CrankTriggerCaptureCounter_Start.150956ac,"",%progbits
 138 0000 789C7D92 		.ascii	"x\234}\222Mh\023A\030\206\277\367\233m\2625\005\245"
 138      4D681341 
 138      1886BFF7 
 138      9B6DB235 
 138      05A5
 139 0012 A7D243AE 		.ascii	"\247\322C\256=\010z\360\347\352!\007\017^\204z,H\250"
 139      3D087AF0 
 139      E7EA2107 
 139      0F5E847A 
 139      2C48A8
 140 0025 4B112591 		.ascii	"K\021%\221%9\206\316\232(\"\"%(\024\255\036\202\266"
 140      253986CE 
 140      9A282222 
 140      252814AD 
 140      1E82B6
 141 0038 D168FFFC 		.ascii	"\321h\377\374\245zXz\022\012j\021\177\0106^Z\324\203"
 141      A57A587A 
 141      120A6A11 
 141      7F08365E 
 141      5AD483
 142 004b D0126D09 		.ascii	"\320\022m\011\265\326o&\2424\242\013;\263\373\315;\357"
 142      B5D66F26 
 142      A234A20B 
 142      3BB3FBCD 
 142      3BEF
 143 005d 3CDFCB28 		.ascii	"<\337\313(\372\373\331#\357I&\332/3\332\010<\364\234"
 143      FAFBD923 
 143      EF4926DA 
 143      2F33DA08 
 143      3CF49C
 144 0070 287099D5 		.ascii	"(p\231\325L\234\3646\347\315n\322\035\012N\263\354\000"
 144      4C9CF436 
 144      E7CD6ED2 
 144      1D0A4EB3 
 144      EC00
 145 0082 E6834083 		.ascii	"\346\203@\203\254\034\014\3423\2570\206\302\312p\254"
 145      AC1C0CE2 
 145      33AF3086 
ARM GAS  C:\Users\Bruger\AppData\Local\Temp\cc6AEA3I.s 			page 11


 145      C2CA70AC 
 146 0092 E7A6D67A 		.ascii	"\347\246\326z\271\264\320u\246\253!~un\372c\014=$\232"
 146      B9B4D075 
 146      A6AB217E 
 146      756EFA63 
 146      0C3D249A 
 147 00a6 95C2C6DB 		.ascii	"\225\302\306\333X\244 \232\035\3155\224\021\201\314"
 147      58A4209A 
 147      1DCD3594 
 147      1181CC
 148 00b5 139DA1DE 		.ascii	"\023\235\241\336\334\254\177+\226\017p\273\242\006#"
 148      DCAC7F2B 
 148      960F70BB 
 148      A20623
 149 00c4 6A06D70C 		.ascii	"j\006\327\014D\213\"5'.1\233YUq\2728\265:\0353\273\327"
 149      448B2235 
 149      272E319B 
 149      595571BA 
 149      38B53A1D 
 150 00db 5889F1F5 		.ascii	"X\211\361\365W\027\3079\267\256\317i\267\301\274a\254"
 150      5717C739 
 150      B7AECF69 
 150      B7C1BC61 
 150      AC
 151 00ec A5FA61F1 		.ascii	"\245\372a\361\305\274\373\211\245b\177\313Aa\004\327"
 151      C5BCFB89 
 151      A5627FCB 
 151      416104D7 
 152 00fc 7035D046 		.ascii	"p5\320F\245p\0139\334F\267PT\244L\257Qx\227\217\377"
 152      A5700B39 
 152      DC46B750 
 152      54A44CAF 
 152      5178978F 
 153 0111 F10C469F 		.ascii	"\361\014F\237\\\210\232\335B\200;FG\006A\321L\\\275"
 153      5C889ADD 
 153      42803B46 
 153      470641D1 
 153      4C5CBD
 154 0124 473E5C98 		.ascii	"G>\\\230\3530bj=\336\251\333\035w\221\023\3726\022\330"
 154      EB30626A 
 154      3DDEA9DB 
 154      1D779113 
 154      FA3612D8 
 155 0138 E5C9EFB3 		.ascii	"\345\311\357\263\026\366\237\244\255h\343\277\321&\244"
 155      16F69FA4 
 155      AD68E3BF 
 155      D126A4
 156 0147 2C82F92B 		.ascii	",\202\371+\243\371\355\006F\2010ia\226\330\371\225\306"
 156      A3F9ED06 
 156      46813069 
 156      6196D8F9 
 156      95C6
 157 0159 ECEAF9EA 		.ascii	"\354\352\371\352\316-\361\206\2159\266\341\326\245\367"
 157      CE2DF186 
 157      8D39B6E1 
 157      D6A5F7
 158 0168 96E03125 		.ascii	"\226\3401%\320\204i\323gT\326\276|\254\225l\237\221"
ARM GAS  C:\Users\Bruger\AppData\Local\Temp\cc6AEA3I.s 			page 12


 158      D08469D3 
 158      6754D6BE 
 158      7CAC956C 
 158      9F91
 159 017a 1FCF02ED 		.ascii	"\037\317\002\355l\011.b\351Jc7^*Cw)\020\272(\356\241"
 159      6C092E62 
 159      E94A6337 
 159      5E2A4377 
 159      2910BA28 
 160 0190 1BF72DDD 		.ascii	"\033\367-\335\003\023\\\025\371\257gk\225\307hz\272"
 160      03135C15 
 160      F9AF676B 
 160      95C7687A 
 160      BA
 161 01a1 4DDBCB4F 		.ascii	"M\333\313OG\212\3556>-\310\017E.\240E\253\371\257\345"
 161      478AED36 
 161      3E2DC80F 
 161      452EA045 
 161      ABF9AFE5 
 162 01b5 23B11413 		.ascii	"#\261\024\023\252!\010\327\017\331\204\311\\\001\230"
 162      AA2108D7 
 162      0FD984C9 
 162      5C0198
 163 01c4 6625AEBD 		.ascii	"f%\256\275\007\275\224\347'3\336\261\243\275\351\254"
 163      07BD94E7 
 163      2733DEB1 
 163      A3BDE9AC 
 164 01d4 DFEFF51D 		.ascii	"\337\357\365\035\356M'\366\365%\374d\352\304\021\377"
 164      EE4D27F6 
 164      F525FC64 
 164      EAC411FF 
 165 01e4 F8C080E7 		.ascii	"\370\300\200\347'\222\2472Y\337K\244\263\251\214\347"
 165      2792A732 
 165      59DF4BA4 
 165      B3A98CE7 
 166 01f4 EFEAA79F 		.ascii	"\357\352\247\237{\020\362\025"
 166      7B10F215 
 167              		.text
 168              		.section	.gnu.lto_CrankTriggerCaptureCounter_Stop.150956ac,"",%progbits
 169 0000 789C6366 		.ascii	"x\234cf\300\004R@\254\312\310\300`\006\244\031\231\031"
 169      C0045240 
 169      ACCAC8C0 
 169      6006A419 
 169      9919
 170 0012 1899269C 		.ascii	"\030\231&\234c`h\344`bd\0041\030\030\031\352\231\030"
 170      636068E4 
 170      60626404 
 170      31181819 
 170      EA9918
 171 0025 EB195F32 		.ascii	"\353\031_2}db\234p`\365\014n\365\245\015\015\015\037"
 171      7D64629C 
 171      7060F50C 
 171      6EF5A50D 
 171      0D0D1F
 172 0038 9ABE4AB4 		.ascii	"\232\276J\264J\374db`\370\314\0041\206q9\243:\003P\315"
 172      4AFC6462 
 172      60F8CC04 
ARM GAS  C:\Users\Bruger\AppData\Local\Temp\cc6AEA3I.s 			page 13


 172      31867139 
 172      A33A0350 
 173 004d C796BFD7 		.ascii	"\307\226\277\327\271\331Z\200j\004 r\214+\030\331\200"
 173      B9D95A80 
 173      6A042072 
 173      8C2B18D9 
 173      80
 174 005e C633AC17 		.ascii	"\3063\254\027:\320\360\377\377\347+\223;\364\231Y\231"
 174      3AD0F0FF 
 174      FFE72B93 
 174      3BF49959 
 174      99
 175 006f 187E3201 		.ascii	"\030~2\001-\003\022\014\014O\200\252@V=eb\002\321\314"
 175      2D03120C 
 175      0C4F80AA 
 175      40563D65 
 175      6202D1CC 
 176 0083 B7180F7D 		.ascii	"\267\030\017}\353z\266k\007#H\347w&\220\305o\237\337"
 176      EB7AB66B 
 176      072348E7 
 176      772690C5 
 176      6F9FDF
 177 0096 5BC4FE82 		.ascii	"[\304\376\202\351'\023\323\277\023\215\015, {\356?9"
 177      E92713D3 
 177      BF138D0D 
 177      2C207BEE 
 177      3F39
 178 00a8 7F91032C 		.ascii	"\177\221\003,\304\000\342\316{w\350,\343\\\306\331\215"
 178      C400E2CE 
 178      7B77E82C 
 178      E35CC6D9 
 178      8D
 179 00b9 2D8C3F99 		.ascii	"-\214?\231\230\031W2J1\256b\004z\215q5P\224\341\026"
 179      98195732 
 179      4A31AE62 
 179      047A8D71 
 179      355094E1 
 180 00ce 63F30F36 		.ascii	"c\363\0176\210q\314\020\023\347\277\374\367\202\005"
 180      8871CC10 
 180      13E7BFFC 
 180      F78205
 181 00dd A49DB99E 		.ascii	"\244\235\271\236\201q\015P%\320\326I`\033\361\031\266"
 181      81710D50 
 181      25D0D649 
 181      601BF119 
 181      B6
 182 00ee 16280A34 		.ascii	"\026(\0124\202\341\036c\343\201\237~ \325 \257?\001"
 182      82E11E63 
 182      E3819F7E 
 182      20D520AF 
 182      3F01
 183 0100 FA02E870 		.ascii	"\372\002\350p\240CL\334S\363R\213\022KRS\342\203\363"
 183      A0434CDC 
 183      53F3528B 
 183      124B5253 
 183      E283F3
 184 0113 4B8B9253 		.ascii	"K\213\222Sc\002\202\363\235Mc\234\213\022\363\262C\212"
ARM GAS  C:\Users\Bruger\AppData\Local\Temp\cc6AEA3I.s 			page 14


 184      630282F3 
 184      9D4D639C 
 184      8B12F3B2 
 184      438A
 185 0125 32D3D353 		.ascii	"2\323\323S\213\234\023\013JJ\213R\235\363K\363JR\213"
 185      8B9C130B 
 185      4A4A8B52 
 185      9DF34BF3 
 185      4A528B
 186 0138 F4921900 		.ascii	"\364\222\031\000^:||"
 186      5E3A7C7C 
 187              		.text
 188              		.section	.gnu.lto_CrankTriggerCaptureCounter_SetInterruptMode.150956ac,"",%progbits
 189 0000 789C6366 		.ascii	"x\234cf\300\004R@\314\305\310\300\340\012\244\031\231"
 189      C0045240 
 189      CCC5C8C0 
 189      E00AA419 
 189      99
 190 0011 19189926 		.ascii	"\031\030\231&\234c`h\344`bd\0041\030\030\031\352\231"
 190      9C636068 
 190      E4606264 
 190      04311818 
 190      19EA99
 191 0024 18EB195F 		.ascii	"\030\353\031_2}db\234p`\365\014n\365\245\015\015\015"
 191      327D6462 
 191      9C7060F5 
 191      0C6EF5A5 
 191      0D0D0D
 192 0037 1F2EFD96 		.ascii	"\037.\375\226h\225\370\311\304\300\360\231\011b\014"
 192      6895F8C9 
 192      C4C0F099 
 192      09620C
 193 0046 E3724675 		.ascii	"\343rFu\240\222\316\265\227\267\2623\23332\000\331S"
 193      A092CEB5 
 193      97B7B233 
 193      9B333200 
 193      D953
 194 0058 F62FE967 		.ascii	"\366/\351gT]\334\320\320t\340\307\272\006\007\306\237"
 194      545DDCD0 
 194      D074E0C7 
 194      BA0607C6 
 194      9F
 195 0069 40335730 		.ascii	"@3W02\003u0\352H1jJ1\000\005\030\030W2\252\202\024\177"
 195      32037530 
 195      EA48316A 
 195      4A310005 
 195      18185732 
 196 0081 6CF97B9D 		.ascii	"l\371{\235\233\255\005h\266\000\304L\306U\214l@g1\254"
 196      9BAD0568 
 196      B600C44C 
 196      C6558C6C 
 196      406731AC 
 197 0095 173AD0F0 		.ascii	"\027:\320\360\377\377\346\367\223;\254\230Y\200&\200"
 197      FFFFE6F7 
 197      933BAC98 
 197      59802680 
 198 00a5 D4333C01 		.ascii	"\3243<\001\252\0009\357)\023\023\210f\276\305xh\332"
ARM GAS  C:\Users\Bruger\AppData\Local\Temp\cc6AEA3I.s 			page 15


 198      AA0039EF 
 198      29131388 
 198      66BEC578 
 198      68DA
 199 00b7 C7F787B9 		.ascii	"\307\367\207\271A\232\200\2065\334\2723\201\353\005"
 199      419A8086 
 199      35DCBA33 
 199      81EB05
 200 00c6 D34F26A6 		.ascii	"\323O&\246\276\223\215\015, \363\357?9\177\221\003,"
 200      BE938D0D 
 200      2C20F3EF 
 200      3F397F91 
 200      032C
 201 00d8 C400E29E 		.ascii	"\304\000\342\236\273\370\274\213q.\343\354\306\226\306"
 201      BBF8BC8B 
 201      712EE3EC 
 201      C696C6
 202 00e7 03AC3F99 		.ascii	"\003\254?\231\230\031W3J1\256a\004\006\006\343Z\240"
 202      98195733 
 202      4A31AE61 
 202      040606E3 
 202      5AA0
 203 00f9 F877A0B2 		.ascii	"\370w\240\262{\214\215\007.\372\203L\004\371\357\011"
 203      7B8C8D07 
 203      2EFA834C 
 203      04F9EF09 
 204 0109 D0AD409B 		.ascii	"\320\255@\233\200\272M\334S\363R\213\022KRS\342\203"
 204      80BA4DDC 
 204      53F3528B 
 204      124B5253 
 204      E283
 205 011b F34B8B92 		.ascii	"\363K\213\222Sc\002\202\363\235Mc\234\213\022\363\262"
 205      53630282 
 205      F39D4D63 
 205      9C8B12F3 
 205      B2
 206 012c 438A32D3 		.ascii	"C\2122\323\323S\213\234\023\013JJ\213R\235\363K\363"
 206      D3538B9C 
 206      130B4A4A 
 206      8B529DF3 
 206      4BF3
 207 013e 4A528BF4 		.ascii	"JR\213\364\222\031\3702A\214\242\322\202\222b\337\304"
 207      9219F832 
 207      418CA2D2 
 207      829262DF 
 207      C4
 208 014f E26C0006 		.ascii	"\342l\000\006\262xG"
 208      B27847
 209              		.text
 210              		.section	.gnu.lto_CrankTriggerCaptureCounter_ReadStatusRegister.150956ac,"",%progbits
 211 0000 789C6366 		.ascii	"x\234cf\300\004R@|\035\210\315\200\230\221\231\201\221"
 211      C0045240 
 211      7C1D88CD 
 211      80989199 
 211      8191
 212 0012 69C23906 		.ascii	"i\3029\006\206F\016&FF\020\203\201\221\241\236\211\261"
 212      86460E26 
ARM GAS  C:\Users\Bruger\AppData\Local\Temp\cc6AEA3I.s 			page 16


 212      46461083 
 212      8191A19E 
 212      89B1
 213 0024 9EF125D3 		.ascii	"\236\361%\323G&\3063;\377]fT_\332\320\320\364\341\322"
 213      4726C633 
 213      3BFF5D66 
 213      545FDAD0 
 213      D0F4E1D2 
 214 0038 C4D4E953 		.ascii	"\304\324\351S\022~210|fb`\324\221b\324\004\231\303\270"
 214      127E3231 
 214      307C6662 
 214      60D49162 
 214      D40499C3 
 215 004d 9C519D01 		.ascii	"\234Q\235\001\250\360c\313\337\353\334l-\015\015\015"
 215      A8F063CB 
 215      DFEBDC6C 
 215      2D0D0D0D 
 216 005d 022079A0 		.ascii	"\002 y\240\304\012F6F \275^\350@\303\377\377\233\217"
 216      C40A4636 
 216      4620BD5E 
 216      E840C3FF 
 216      FF9B8F
 217 0070 4FE95063 		.ascii	"O\351Pcafb\000\351gx\002$@V=eb\002\321\314\267\030\017"
 217      61666200 
 217      E9677802 
 217      2440563D 
 217      656202D1 
 218 0088 7DEBFA77 		.ascii	"}\353\372w\202\013\244\347;\023\310\336\025\267\033"
 218      820BA4E7 
 218      3B13C8DE 
 218      15B71B
 219 0097 3E71BF60 		.ascii	">q\277`\372\311\304\370\356Dc\003\013\310\206\373O\316"
 219      FAC9C4F8 
 219      EE446303 
 219      0BC886FB 
 219      4FCE
 220 00a9 5FE4000B 		.ascii	"_\344\000\0131\200\270\223N\376z\3057\227qvcK\343\001"
 220      3180B893 
 220      4EFE7AC5 
 220      37977176 
 220      634BE301 
 221 00bd 999F4C4C 		.ascii	"\231\237LL\214+\031\245\030W1\002\335\304\270\232q."
 221      8C2B19A5 
 221      18573102 
 221      DDC4B89A 
 221      712E
 222 00cf 23C33DC6 		.ascii	"#\303=\306\306\006n\250\201`+\031AV\001\231&\356\251"
 222      C6066EA8 
 222      81602B19 
 222      41560199 
 222      26EEA9
 223 00e2 79A94589 		.ascii	"y\251E\211%\251)\361\301\371\245E\311\2511\001\301\371"
 223      25A929F1 
 223      C1F9A545 
 223      C9A93101 
 223      C1F9
 224 00f4 CEA631CE 		.ascii	"\316\2461\316E\211y\331!E\231\351\351\251E\316\211\005"
ARM GAS  C:\Users\Bruger\AppData\Local\Temp\cc6AEA3I.s 			page 17


 224      458979D9 
 224      214599E9 
 224      E9A945CE 
 224      8905
 225 0106 25A545A9 		.ascii	"%\245E\251\316\371\245y%\251Ez\311\014\000\304%c\300"
 225      CEF9A579 
 225      25A9457A 
 225      C90C00C4 
 225      2563C0
 226              		.text
 227              		.section	.gnu.lto_CrankTriggerCaptureCounter_ReadControlRegister.150956ac,"",%progbits
 228 0000 789C6366 		.ascii	"x\234cf\300\004R@|\035\210\315\200\230\221\231\201\221"
 228      C0045240 
 228      7C1D88CD 
 228      80989199 
 228      8191
 229 0012 69C23906 		.ascii	"i\3029\006\206F\016&FF\020\203\201\221\241\236\211\261"
 229      86460E26 
 229      46461083 
 229      8191A19E 
 229      89B1
 230 0024 9EF125D3 		.ascii	"\236\361%\323G&\3063;\377]fT_\332\320\320\364a\323\364"
 230      4726C633 
 230      3BFF5D66 
 230      545FDAD0 
 230      D0F461D3 
 231 0039 D4E95312 		.ascii	"\324\351S\022~210|fb`\324\221b\324\004\231\303\270\234"
 231      7E323130 
 231      7C666260 
 231      D49162D4 
 231      0499C3B8 
 232 004e 519D01A8 		.ascii	"Q\235\001\250\360c\313\337\353\334l-\015\015\015\002"
 232      F063CBDF 
 232      EBDC6C2D 
 232      0D0D0D02 
 233 005e 2079A0C4 		.ascii	" y\240\304\012F6F \275^\350@\303\377\377\233\357M9\241"
 233      0A463646 
 233      20BD5EE8 
 233      40C3FFFF 
 233      9BEF4D39 
 234 0073 CFC2CCC4 		.ascii	"\317\302\314\304\000\322\317\360\004H\200\254z\312\304"
 234      00D2CFF0 
 234      044880AC 
 234      7ACAC4
 235 0082 04A2996F 		.ascii	"\004\242\231o1\036\372\326\365\3564\027H\317w&\220\275"
 235      311EFAD6 
 235      F5EE3417 
 235      48CF7726 
 235      90BD
 236 0094 6F9FDF5B 		.ascii	"o\237\337[\304\376\202\351'\023\343\277\023\215\015"
 236      C4FE82E9 
 236      2713E3BF 
 236      138D0D
 237 00a3 2C201BEE 		.ascii	", \033\356?9\177\221\003,\304\000\342\316{w\350,\343"
 237      3F397F91 
 237      032CC400 
 237      E2CE7B77 
ARM GAS  C:\Users\Bruger\AppData\Local\Temp\cc6AEA3I.s 			page 18


 237      E82CE3
 238 00b6 5CC6D98D 		.ascii	"\\\306\331\215-\215\007d~211\256d\224b\\\305\010t\023"
 238      2D8D0764 
 238      7E323131 
 238      AE649462 
 238      5CC50874 
 239 00cb E36AA038 		.ascii	"\343j\2408\303=\306\306\006n\250\201`+\031AV\001\231"
 239      C33DC6C6 
 239      066EA881 
 239      602B1941 
 239      560199
 240 00de 26EEA979 		.ascii	"&\356\251y\251E\211%\251)\361\301\371\245E\311\2511"
 240      A9458925 
 240      A929F1C1 
 240      F9A545C9 
 240      A931
 241 00f0 01C1F9CE 		.ascii	"\001\301\371\316\2461\316E\211y\331!E\231\351\351\251"
 241      A631CE45 
 241      8979D921 
 241      4599E9E9 
 241      A9
 242 0101 45CE8905 		.ascii	"E\316\211\005%\245E\251\316\371\245y%\251Ez\311\014"
 242      25A545A9 
 242      CEF9A579 
 242      25A9457A 
 242      C90C
 243 0113 00111564 		.ascii	"\000\021\025d3"
 243      33
 244              		.text
 245              		.section	.gnu.lto_CrankTriggerCaptureCounter_WriteControlRegister.150956ac,"",%progbits
 246 0000 789C6590 		.ascii	"x\234e\220=K\003A\020\206g\366\316$\232F,\257\017A\020"
 246      3D4B0341 
 246      108667F6 
 246      CE249A46 
 246      2CAF0F41 
 247 0015 2B45B010 		.ascii	"+E\260\020\341\012[!\226\001\015q\011\242\334\311r\251"
 247      E10A5B21 
 247      96010D71 
 247      09A2DCC9 
 247      72A9
 248 0027 B317EE07 		.ascii	"\263\027\356\007\004\011\"H,\224\370\025?\020\377\300"
 248      04092248 
 248      2C94F815 
 248      3F10FFC0 
 249 0037 11446C54 		.ascii	"\021DlT\254\002\026\26191\026\212!\212\234\240q\326"
 249      AC0216B1 
 249      3931168A 
 249      218A9CA0 
 249      71D6
 250 0049 942E2C33 		.ascii	"\224.,3\373\362\316\263\357\256\006\377\227A{\000\001"
 250      FBF2CEB3 
 250      EFAE06FF 
 250      97417B00 
 250      01
 251 005a A6A8A206 		.ascii	"\246\250\242\006\310J7\000n\214!\252\006\020\012\014"
 251      C84A3700 
 251      6E8C21AA 
ARM GAS  C:\Users\Bruger\AppData\Local\Temp\cc6AEA3I.s 			page 19


 251      06100A0C 
 252 006a 0BF8CCDA 		.ascii	"\013\370\314\332\014K~m#\236\254J)\337\212\025.\313"
 252      0C4B7E6D 
 252      239EAC4A 
 252      29DF8A15 
 252      2ECB
 253 007c 0B2103E8 		.ascii	"\013!\003\350\260\036\007\3670I\236\335\213KC\233@\240"
 253      B01E07F7 
 253      30499EDD 
 253      8B4B439B 
 253      40A0
 254 008e F6EB7CAD 		.ascii	"\366\353|\255\326\237\330\221\262\350wO\3444\206\304"
 254      D69FD891 
 254      B2E8774F 
 254      E43486C4 
 255 009e DC478D06 		.ascii	"\334G\215\006p\304\300a\003H\000<\300\2042\267\275\357"
 255      70C4C061 
 255      0348003C 
 255      C08432B7 
 255      BDEF
 256 00b0 463CE211 		.ascii	"F<\342\021{\260\207\304C\214P,8\035\362e\267\333y/\267"
 256      7BB087C4 
 256      438C502C 
 256      381DF265 
 256      B7DB792F 
 257 00c5 26759D08 		.ascii	"&u\235\010\312\017\0019T\274G\306T\325\356\261\276~"
 257      CA0F0139 
 257      54BC47C6 
 257      54D5EEB1 
 257      BE7E
 258 00d7 F6E1C5D5 		.ascii	"\366\341\305\325\020\301^\236\232\333\321\026\013\031"
 258      10C15E9E 
 258      9ADBD116 
 258      0B19
 259 00e5 FBB972A5 		.ascii	"\373\271r\245\256\370\017\301\355]\354O\002u\334z\255"
 259      AEF80FC1 
 259      ED5DEC4F 
 259      0275DC7A 
 259      AD
 260 00f6 5F630537 		.ascii	"_c\0057]\317\365\373B\246a\015\015<B\372\014<&\375\223"
 260      5DCFF5FB 
 260      42A6610D 
 260      0D3C42FA 
 260      0C3C26FD 
 261 010b 6C4D74FD 		.ascii	"lMt\375FJ\021\325\363\002\312J7\321\364\330\014\267"
 261      464A11D5 
 261      F302CA4A 
 261      37D1F4D8 
 261      0CB7
 262 011d B8C8387C 		.ascii	"\270\3108|q>e\347E\226\247gS\2669\2366E\306Z\236\023"
 262      713E65E7 
 262      4596A767 
 262      53B6399E 
 262      3645C65A 
 263 0133 4BB91C17 		.ascii	"K\271\034\027ff\325\311\013n\332y\313\341b4\013\321"
 263      6666D5C9 
 263      0B6EDA79 
ARM GAS  C:\Users\Bruger\AppData\Local\Temp\cc6AEA3I.s 			page 20


 263      CBE16234 
 263      0BD1
 264 0145 AC6D39C2 		.ascii	"\254m9\302^\371\005\001/v\371"
 264      5EF90501 
 264      2F76F9
 265              		.text
 266              		.section	.gnu.lto_CrankTriggerCaptureCounter_WriteCounter.150956ac,"",%progbits
 267 0000 789C654F 		.ascii	"x\234eO=HBQ\030\375\316}O\023\024\222\246r\027\241\241"
 267      3D484251 
 267      18FDCE7D 
 267      4F131492 
 267      A67217A1 
 268 0015 A9688BE0 		.ascii	"\251h\213\340\015\255\201\321$\204\330C\"\320x\350\354"
 268      0DAD81D1 
 268      2484D843 
 268      22D078E8 
 268      EC
 269 0026 B50C9AC2 		.ascii	"\265\014\232\302\305\220\242\226\210~\254,\202 \250"
 269      C590A296 
 269      887EAC2C 
 269      8220A8
 270 0035 90B628AC 		.ascii	"\220\266(\254 \020\032\012D\301\206\240\207A:\204}7"
 270      20101A0A 
 270      44C186A0 
 270      87413A84 
 270      7D37
 271 0047 C72E5CBE 		.ascii	"\307.\\\276s>\316=\347\\\215\376\037\037\337\000\210"
 271      733ECE3D 
 271      E75C8DFE 
 271      1F1FDF00 
 271      88
 272 0058 C6784223 		.ascii	"\306xB#\210l\231(\355\022\200\002\004J\011\244\360."
 272      886C9928 
 272      ED128002 
 272      044A09A4 
 272      F02E
 273 006a 6C816CA9 		.ascii	"l\201l\251\220w\007v\244\224\237\325\323\201\345\376"
 273      90770776 
 273      A4949FD5 
 273      D381E5FE 
 274 007a B6206A8A 		.ascii	"\266 j\212\256\015v\021`I\371v)\241\215\202\030\336"
 274      AE0D7611 
 274      6049F976 
 274      29A18D82 
 274      18DE
 275 008c 555B4D4F 		.ascii	"U[MOC\264\005\274\212\256W\352_\232\242B(zQ\271\336"
 275      43B405BC 
 275      8AAE57EA 
 275      5F9AA242 
 275      287A51B9 
 276 00a1 EAF56F4B 		.ascii	"\352\365oK\271X\3728\221\343\274\327\260\007\215\355"
 276      B958FA38 
 276      91E3BCD7 
 276      B0078DED 
 277 00b1 B00F1F0E 		.ascii	"\260\017\037\016\340#^\021\012\360+\271\235\371\251"
 277      E0235E11 
 277      0AF02BB9 
ARM GAS  C:\Users\Bruger\AppData\Local\Temp\cc6AEA3I.s 			page 21


 277      9DF9A9
 278 00c0 B89D198E 		.ascii	"\270\235\031\216\366v#q\010'\267\246b_Iv:g\367\271\306"
 278      F6762371 
 278      0827B7A6 
 278      625F4976 
 278      3A67F7B9 
 279 00d5 A043E7D2 		.ascii	"\240C\347\322JO5V\250\366u\316\342\251\275\340f\315"
 279      4A4F3556 
 279      A8F675CE 
 279      E2A9BDE0 
 279      66CD
 280 00e7 7ECE69EA 		.ascii	"~\316i\352\021\233\311\325\025[WU\364\374cZ\352\312"
 280      119BC9D5 
 280      155B5755 
 280      F4FC635A 
 280      EACA
 281 00f9 FFADF6F0 		.ascii	"\377\255\366\360\344\372[\221\242\227\347W-\317&6\322"
 281      E4FA5B91 
 281      A297E757 
 281      2DCF2636 
 281      D2
 282 010a 19B48503 		.ascii	"\031\264\205\003G\334\350\230\033\021\212\330\3047\273"
 282      47DCE898 
 282      1B118AD8 
 282      C437BB
 283 0119 BE225DAA 		.ascii	"\276\"]\252L+?\365\371\232\200\312\341\324\341\0113"
 283      4C2B3FF5 
 283      F99A80CA 
 283      E1D4E109 
 283      33
 284 012a 665AE184 		.ascii	"fZ\341\2049;\023\214'\255\210\031\232\014\306\215\221"
 284      393B138C 
 284      27AD8819 
 284      9A0CC68D 
 284      91
 285 013b 90618563 		.ascii	"\220a\205c\363S\326\\4jZFx!\221\264L#\236\214%Lk(B="
 285      F353D65C 
 285      346A5A46 
 285      782191B4 
 285      4C239E8C 
 286 0155 912EFC05 		.ascii	"\221.\374\005\374h\201\316"
 286      FC6881CE 
 287              		.text
 288              		.section	.gnu.lto_CrankTriggerCaptureCounter_ReadCounter.150956ac,"",%progbits
 289 0000 789C658F 		.ascii	"x\234e\217\317K\002Q\020\307gfu\023*\222\216\376\003"
 289      CF4B0251 
 289      10C76766 
 289      75132A92 
 289      8EFE03
 290 0013 D2A543BF 		.ascii	"\322\245C\277.\035=t,\260\243\020\213-\022\201\306\242"
 290      2E1D3D74 
 290      2CB0A310 
 290      8B2D1281 
 290      C6A2
 291 0025 67DFD69E 		.ascii	"g\337\326\236\242C\207\002)\202.\321OS\350\024\005I"
 291      A2438702 
 291      29822ED1 
ARM GAS  C:\Users\Bruger\AppData\Local\Temp\cc6AEA3I.s 			page 22


 291      4F53E814 
 291      0549
 292 0037 10089561 		.ascii	"\020\010\225a\027!\312@\264\037\027I\224j\017ao\266"
 292      1721CA40 
 292      B41F1749 
 292      946A0F61 
 292      6FB6
 293 0049 4EF56078 		.ascii	"N\365`x\357;o\3463\337Q\340\377\361\311\030G\200\021"
 293      EF3B6FE6 
 293      33DF51E0 
 293      FFF1C918 
 293      478011
 294 005c 79A30248 		.ascii	"y\243\002H\313\005\000\323C\210\374\000\204$a\022_\251"
 294      CB0500D3 
 294      4388FC00 
 294      84246112 
 294      5FA9
 295 006e 417859F9 		.ascii	"AxY\371lv\275\220M\340\005)\327J\265\226\302\022\211"
 295      6C76BD90 
 295      4DE00529 
 295      D74AB596 
 295      C21289
 296 0081 E549B350 		.ascii	"\345I\263PQ\375[B\314\277\335\036k\251\225M\264\211"
 296      51FD5B42 
 296      CCBFDD1E 
 296      6BA9954D 
 296      B489
 297 0093 A04980DB 		.ascii	"\240I\200\333\350\303\035\344A\270\213~\256mX_\245N"
 297      E8C31DE4 
 297      41B88B7E 
 297      AE6D585F 
 297      A54E
 298 00a5 D5124278 		.ascii	"\325\022Bx\271B~\354\241*M@\2467'\332\355\243\347\325"
 298      B9427EEC 
 298      A12A4D40 
 298      A63727DA 
 298      EDA3E7D5 
 299 00b9 FCA8DB45 		.ascii	"\374\250\333E`\223\242\000c\240*\203\015\325\244\220"
 299      6093A200 
 299      63A02A83 
 299      0DD5A490 
 300 00c9 B77287E7 		.ascii	"\267r\207\347\357\213\365\007\225\033?\310q\227\275"
 300      EF8BF507 
 300      951B3FC8 
 300      7197BD
 301 00d8 B822B6E3 		.ascii	"\270\"\266\343Z\312\233\302\305c\036\2537E\217\223\002"
 301      5ACA9BC2 
 301      C5631EAB 
 301      37458F93 
 301      02
 302 00e9 96AD7AF1 		.ascii	"\226\255z\361\0327p\335\264\24457\356K[\007l\013\323"
 302      1A3770DD 
 302      B4A43537 
 302      EE4B5B07 
 302      6C0BD3
 303 00fc 320B0EF1 		.ascii	"2\013\016\361\251<\360CTx\2433\353\264\233\333\325T"
 303      A93CF043 
ARM GAS  C:\Users\Bruger\AppData\Local\Temp\cc6AEA3I.s 			page 23


 303      5478A333 
 303      EBB49BDB 
 303      D554
 304 010e F12F5175 		.ascii	"\361/Qu\210\013\367i\273\307!\232\271>\233:\360P23\016"
 304      880BF769 
 304      BBC7219A 
 304      B93E9B3A 
 304      F0503233 
 305 0123 33CBCC32 		.ascii	"3\313\3142\232b\360\027\010\274\004\262y\271\312\320"
 305      9A62F017 
 305      08BC04B2 
 305      79B9CAD0 
 306 0133 981ED50D 		.ascii	"\230\036\325\015-\256OO\005c\011#\254\207&\202\261\300"
 306      2DAE4F4F 
 306      05630923 
 306      AC872682 
 306      B1C0
 307 0145 70286068 		.ascii	"p(`h\321\331Ic&\022\321\215\2006\027O\030z \226\210"
 307      D1D94963 
 307      2612D18D 
 307      8036174F 
 307      187A2096 
 308 015a C675A33F 		.ascii	"\306u\243?\014\337r%\222V"
 308      0CDF7225 
 308      9256
 309              		.text
 310              		.section	.gnu.lto_CrankTriggerCaptureCounter_ReadCapture.150956ac,"",%progbits
 311 0000 789C658E 		.ascii	"x\234e\216?K\003A\020\305\347\315\205CP1X\346\013\004"
 311      3F4B0341 
 311      10C5E7CD 
 311      85435031 
 311      58E60B04 
 312 0014 1B0BFF7D 		.ascii	"\033\013\377}\201+l\205X\006\344\210K\020!\221#\251"
 312      812B6C85 
 312      5806E488 
 312      4B102191 
 312      23A9
 313 0026 B3A75759 		.ascii	"\263\247WYY\210\004%`#\306?\301\017\020\301`c!DR\005"
 313      59880425 
 313      6023C63F 
 313      C10F10C1 
 313      60632144 
 314 003c 44228404 		.ascii	"D\"\204\004Lg8\321\\!qG\354\\x\314\374vg\347=\213\376"
 314      4C6738D1 
 314      5C217147 
 314      EC5C78CC 
 314      FC7667E7 
 315 0053 9F84D1C8 		.ascii	"\237\204\321\310h\305\010\026\201\017\232D\376\004\003"
 315      68C50816 
 315      810F9A44 
 315      FE0403
 316 0062 D210A8C4 		.ascii	"\322\020\250\304(a\300C\306cw\024N\275q\304\024'\203"
 316      2861C043 
 316      C6637714 
 316      4EBD71C4 
 316      142783
 317 0075 C7EDFE87 		.ascii	"\307\355\376\207%\010\026\254\207\315\256\235<\323z"
ARM GAS  C:\Users\Bruger\AppData\Local\Temp\cc6AEA3I.s 			page 24


 317      250816AC 
 317      87CDAE9D 
 317      3CD37A
 318 0084 F7BDDB72 		.ascii	"\367\275\333r\313\207\247\210\230)d\3029\022\250B\214"
 318      CB87A788 
 318      982964C2 
 318      3912A842 
 318      8C
 319 0095 7081A4CC 		.ascii	"p\201\244\314\016\203\357\366\244\035h\255\3432a\036"
 319      0E83EFF6 
 319      A41D68AD 
 319      E332611E 
 320 00a5 2E61C3D4 		.ascii	".a\303\324\233\331\206\036\217\303\207\243j\322\266"
 320      9BD9861E 
 320      8FC387A3 
 320      6AD2B6
 321 00b4 986403F5 		.ascii	"\230d\003\365\214$K\337\200\251\3263\356?\367;\203\005"
 321      8C244BDF 
 321      80A9D633 
 321      EE3FF73B 
 321      8305
 322 00c6 F9F3C512 		.ascii	"\371\363\305\022\254~\027\334NK\022\253\334\362uL\034"
 322      AC7E17DC 
 322      4E4B12AB 
 322      DCF2754C 
 322      1C
 323 00d7 5E7B4FAD 		.ascii	"^{O\255\211\337+\022\334{\251E3\025\234\370\201\337"
 323      89DF2B12 
 323      DC7BA945 
 323      33159CF8 
 323      81DF
 324 00e9 988B3886 		.ascii	"\230\2138\206+\223\351Z2\241\206\012\250\003_/\376-"
 324      2B93E95A 
 324      32A1860A 
 324      A8035F2F 
 324      FE2D
 325 00fb 24B18458 		.ascii	"$\261\204X\231viU\345\224\347\026\324\346F*_\3642*\275"
 325      99766955 
 325      E594E716 
 325      D4E6462A 
 325      5FF4322A 
 326 0110 96CA3BCB 		.ascii	"\226\312;\313i\307ss\333\353\336V6\253<\307\335)\024"
 326      69C77373 
 326      DBEBDE56 
 326      36AB3CC7 
 326      DD2914
 327 0123 3DE5E48B 		.ascii	"=\345\344\213\271\202\362\3463\364\003\325\225rJ"
 327      B982F2E6 
 327      33F403D5 
 327      95724A
 328              		.text
 329              		.section	.gnu.lto_CrankTriggerCaptureCounter_WritePeriod.150956ac,"",%progbits
 330 0000 789C654F 		.ascii	"x\234eO\277KBQ\030\375\276{\355)\330 M\345.n-\025MA"
 330      BF4B4251 
 330      18FDBE7B 
 330      ED29D820 
 330      4DE52E6E 
ARM GAS  C:\Users\Bruger\AppData\Local\Temp\cc6AEA3I.s 			page 25


 331 0018 F086D6C0 		.ascii	"\360\206\326\300\266\204\020\275\210D>\271\350\354{"
 331      B68410BD 
 331      88443EB9 
 331      E8EC7B
 332 0027 61CDB648 		.ascii	"a\315\266H\024B\020\321\017+\013\377\201\207S\020T\016"
 332      144210D1 
 332      0F2B0BFF 
 332      81875310 
 332      540E
 333 0039 655414C5 		.ascii	"eT\024\3053*\0324\203r\010\373n\216]\270|\3379\234{"
 333      332A1A34 
 333      837208FB 
 333      6E8E5DB8 
 333      7CDF399C 
 334 004e CEB91CFE 		.ascii	"\316\271\034\376\037?\335 \002L\320D\016\310\362g\000"
 334      1F3FDD20 
 334      024CD044 
 334      0EC8F267 
 334      00
 335 005f 968721AA 		.ascii	"\226\207!\252\005\020\262\014\263\370\312Z\014\363v"
 335      0510B20C 
 335      B3F8CA5A 
 335      0CF376
 336 006e 69D51BDC 		.ascii	"i\325\033\3342M\263\371Q\037Z\032\3540\2006\353\331"
 336      324DB3F9 
 336      511F5A1A 
 336      EC308036 
 336      EBD9
 337 0080 E0360649 		.ascii	"\3406\006I\322\255\264jn>\216@\373\351\323w\273\377"
 337      D2ADB46A 
 337      6E3E8E40 
 337      FBE9D377 
 337      BBFF
 338 0092 857518FA 		.ascii	"\205u\030\372\024\\\2537>\271\202\214)x\371v\273\341"
 338      145CAB37 
 338      3EB9828C 
 338      2978F976 
 338      BBE1
 339 00a4 096C9AE6 		.ascii	"\011l\232\346\242\375~dN\022\317q\0079\371\341.\372"
 339      A2FD7E64 
 339      4E12CF71 
 339      0739F9E1 
 339      2EFA
 340 00b6 710FFD40 		.ascii	"q\017\375@\024`\011\003J\336\312\375\324\275Z\216\262"
 340      14600903 
 340      4ADECAFD 
 340      D4BD5A8E 
 340      B2
 341 00c7 7DBD4CDC 		.ascii	"}\275L\334G\215jCy\3006\273\335\212S8\031\321\\\324"
 341      478D6A43 
 341      79C036BB 
 341      DD8A5338 
 341      19D15CD4 
 342 00db 5AE9C121 		.ascii	"Z\351\301!\205\252\337\240,\232\374\006\253\205\343"
 342      85AADFA0 
 342      2C9AFC06 
 342      AB85E3
ARM GAS  C:\Users\Bruger\AppData\Local\Temp\cc6AEA3I.s 			page 26


 343 00ea E702578F 		.ascii	"\347\002W\217\310l\245\332\\v\253*\256\353\013\313t"
 343      C86CA5DA 
 343      5C76AB2A 
 343      AEEB0BCB 
 343      74
 344 00fb 29FF07E7 		.ascii	")\377\007\347\274\346\371\243@\301\273\253\307\205\""
 344      BCE6F9A3 
 344      40C1BBAB 
 344      C78522
 345 010a AE5B39EC 		.ascii	"\256[9\354\260><\240B\207T\010\260\214E\374\"\323{\264"
 345      B03E3CA0 
 345      42875408 
 345      B08C45FC 
 345      22D37BB4 
 346 011e ECE2ACB2 		.ascii	"\354\342\254\262S\237w\030\252\030\012\035\235\022I"
 346      539F7718 
 346      AA180A1D 
 346      9D1249
 347 012d 21236911 		.ascii	"!#i\021\233\013\031\031\031\025\341\351\220\241\217"
 347      9B0B1919 
 347      1915E1E9 
 347      90A18F
 348 013c 85751949 		.ascii	"\205u\031I\316\317\310D<.\244\036I\2453R\350F&\231\026"
 348      CECFC844 
 348      3C2EA41E 
 348      49A53352 
 348      E8462699 
 349 0151 72380A5A 		.ascii	"r8\012ZJ\310\204\021\373\005\360\357\202\253"
 349      4AC88411 
 349      FB05F0EF 
 349      82AB
 350              		.text
 351              		.section	.gnu.lto_CrankTriggerCaptureCounter_ReadPeriod.150956ac,"",%progbits
 352 0000 789C6366 		.ascii	"x\234cf\300\004R@\374\035\210\315\200\230\221\231\201"
 352      C0045240 
 352      FC1D88CD 
 352      80989199 
 352      81
 353 0011 9169C239 		.ascii	"\221i\3029\006\206F\016&FF\020\203\201\221\241\236\211"
 353      0686460E 
 353      26464610 
 353      838191A1 
 353      9E89
 354 0023 B19EF125 		.ascii	"\261\236\361%\323G&\306\323\217~|\346y\301\364\223\211"
 354      D34726C6 
 354      D38F7E7C 
 354      E679C1F4 
 354      9389
 355 0035 418001C8 		.ascii	"A\200\001\310\235u\375\351\027f\020\227\221\011\304"
 355      9D75FDE9 
 355      17661097 
 355      9109C4
 356 0044 DDFDF9DC 		.ascii	"\335\375\371\334#6\365\245\015\015M\037\036\335M\234"
 356      2336F5A5 
 356      0D0D4D1F 
 356      1EDD4D9C 
 357 0054 316501E3 		.ascii	"1e\001\343O&&\206\317L\014\214\313\031\245\030W0\202"
ARM GAS  C:\Users\Bruger\AppData\Local\Temp\cc6AEA3I.s 			page 27


 357      4F262686 
 357      CF4C0C8C 
 357      CB19A518 
 357      573082
 358 0067 2C625CC9 		.ascii	",b\\\311\250\016R\373\261\345\357un\266\226\206\206"
 358      A80E52FB 
 358      B1E5EF75 
 358      6EB69686 
 358      86
 359 0078 0601900A 		.ascii	"\006\001\220\012\240\304*F6F \275^\350@\303\377\377"
 359      A0C42A46 
 359      364620BD 
 359      5EE840C3 
 359      FFFF
 360 008a 9FBF4F5B 		.ascii	"\237\277O[a\317\306\314\304\0002\201\341\011\020\203"
 360      61CFC6CC 
 360      C4003281 
 360      E1091083 
 361 009a DCF214C8 		.ascii	"\334\362\024\310\001\322\314\267\030\017}\353\272\367"
 361      01D2CCB7 
 361      180F7DEB 
 361      BAF7
 362 00a8 DE08A4E7 		.ascii	"\336\010\244\347;\023\310a\023\017}hc\007\271\204\371"
 362      3B13C861 
 362      130F7D68 
 362      6307B984 
 362      F9
 363 00b9 C685C606 		.ascii	"\306\205\306\006\026\220\015\367\237\234\277\310\001"
 363      16900DF7 
 363      9F9CBFC8 
 363      01
 364 00c6 16620071 		.ascii	"\026b\000q\357\\{\230;\227qvcK\343\001\315\237L,\214"
 364      EF5C7B98 
 364      3B977176 
 364      634BE301 
 364      CD9F4C2C 
 365 00db AB814E5A 		.ascii	"\253\201NZ\003r\022\343Z\306\271\214\014\367\030\033"
 365      037212E3 
 365      5AC6B98C 
 365      0CF7181B 
 366 00eb 1B8CA1E6 		.ascii	"\033\214\241\3461\200ld\004\331\004d\232\270\247\346"
 366      31806C64 
 366      04D90464 
 366      9AB8A7E6 
 367 00fb A5162596 		.ascii	"\245\026%\226\244\246\304\007\347\227\026%\247\306\004"
 367      A4A6C407 
 367      E7971625 
 367      A7C604
 368 010a 04E73B9B 		.ascii	"\004\347;\233\3068\027%\346e\207\024e\246\247\247\026"
 368      C6381725 
 368      E6658714 
 368      65A6A7A7 
 368      16
 369 011b 39271694 		.ascii	"9'\026\224\224\026\245:\347\227\346\225\244\026\351"
 369      9416A53A 
 369      E797E695 
 369      A416E9
ARM GAS  C:\Users\Bruger\AppData\Local\Temp\cc6AEA3I.s 			page 28


 370 012a 25330000 		.ascii	"%3\000\000\346\261r\327"
 370      E6B172D7 
 371              		.text
 372              		.section	.gnu.lto_CrankTriggerCaptureCounter_WriteCompare.150956ac,"",%progbits
 373 0000 789C654F 		.ascii	"x\234eO1KBQ\030\375\276{M-\013\242\251\334\305&\247"
 373      314B4251 
 373      18FDBE7B 
 373      4D2D0BA2 
 373      A9DCC526 
 374 0015 A22D0287 		.ascii	"\242-\002\207\326\300F)\036v\221\210|r\321\331\367J"
 374      D6C04629 
 374      1E769188 
 374      7C72D1D9 
 374      F74A
 375 0027 7771C828 		.ascii	"wq\310(\244!$\313\322\350\027<\232\212\240,\010\241"
 375      A42124CB 
 375      D2E8173C 
 375      9A8AA02C 
 375      08A1
 376 0039 A128148A 		.ascii	"\241(\024\212\010\222W\250C\330ws\354\302\345\373\316"
 376      089257A8 
 376      43D87773 
 376      ECC2E5FB 
 376      CE
 377 004a E1DC73CE 		.ascii	"\341\334s\316\345\360\377x\351N\"\300,M\344\200,{\015"
 377      E5F0FF78 
 377      E94E22C0 
 377      2C4DE480 
 377      2C7B0D
 378 005d 60BA19A2 		.ascii	"`\272\031\242Z\000!\3050\205o\254\3050k\225\267=\376"
 378      5A0021C5 
 378      30856FAC 
 378      C5306B95 
 378      B73DFE
 379 0070 A261189F 		.ascii	"\242a\030\237\271\357\211\314x\227\001\330\254o\203"
 379      B9EF89CC 
 379      789701D8 
 379      AC6F83
 380 007f 07E82789 		.ascii	"\007\350'\211\225\273\254\215\360\031\004\332\257^:"
 380      95BBAC8D 
 380      F01904DA 
 380      AF5E3A
 381 008e F6F02BEB 		.ascii	"\366\360+\3532\034Up\247\336\374\342\0122\246\340Y\361"
 381      321C5570 
 381      A7DEFCE2 
 381      0A32A6E0 
 381      59F1
 382 00a0 EE7DC8B7 		.ascii	"\356}\310\267o\030\033\326\307\2511G<\307\022r\362\303"
 382      6F181BD6 
 382      C7A93147 
 382      3CC71272 
 382      F2C3
 383 00b2 43F4E211 		.ascii	"C\364\342\021z\201(\3002\372\224\274\225\376\251{\234"
 383      7A8128C0 
 383      32FA94BC 
 383      95FEA97B 
 383      9C
ARM GAS  C:\Users\Bruger\AppData\Local\Temp\cc6AEA3I.s 			page 29


 384 00c3 69CA1EED 		.ascii	"i\312\036\355g\3421:\2516T\307,\243\327\263\357\363"
 384      67E2313A 
 384      A93654C7 
 384      2CA3D7B3 
 384      EFF3
 385 00d5 A580CB41 		.ascii	"\245\200\313A\255\225\036\032\244P\365\233\224E\223"
 385      AD951E1A 
 385      A450F59B 
 385      944593
 386 00e4 3FE0F956 		.ascii	"?\340\371V\253\236\347\352\021\231\025\367.*.U\305\321"
 386      AB9EE7EA 
 386      119915F7 
 386      2E2A2E55 
 386      C5D1
 387 00f6 A9998643 		.ascii	"\251\231\206C\371?5nn\335\177\024(\370\234io\016\026"
 387      F93F356E 
 387      6EDD7F14 
 387      28F89C69 
 387      6F0E16
 388 0109 70D74C63 		.ascii	"p\327Lc\227\015\340\0115\252P#\300*\026\260M\256\217"
 388      970DE009 
 388      35AA5023 
 388      C02A16B0 
 388      4DAE8F
 389 011c 685AF692 		.ascii	"hZ\366\222\362S\277o0T9\224:5/bBj\011\261\262\034\322"
 389      F253BF6F 
 389      30543994 
 389      3A352F62 
 389      426A09B1 
 390 0133 933222C2 		.ascii	"\2232\"\302\013!=8\035\016J-\266\266(W\243Q!\203Z<\221"
 390      0B213D38 
 390      1D0E4A2D 
 390      B6B62857 
 390      A3512183 
 391 014a 9422A827 		.ascii	"\224\"\250'c\011!\003\021pE\364\365\270&\305/\372O\202"
 391      63092103 
 391      117045F4 
 391      F5B826C5 
 391      2FFA4F82 
 392 015e BD       		.ascii	"\275"
 393              		.text
 394              		.section	.gnu.lto_CrankTriggerCaptureCounter_ReadCompare.150956ac,"",%progbits
 395 0000 789C6366 		.ascii	"x\234cf\300\004R@\374\003\210\315\200\230\221\231\201"
 395      C0045240 
 395      FC0388CD 
 395      80989199 
 395      81
 396 0011 9169C239 		.ascii	"\221i\3029\006\206F\016&FF\020\203\201\221\241\236\211"
 396      0686460E 
 396      26464610 
 396      838191A1 
 396      9E89
 397 0023 B19EF125 		.ascii	"\261\236\361%\323G&\306\323\217~|\346y\301\364\223\211"
 397      D34726C6 
 397      D38F7E7C 
 397      E679C1F4 
 397      9389
ARM GAS  C:\Users\Bruger\AppData\Local\Temp\cc6AEA3I.s 			page 30


 398 0035 418001C8 		.ascii	"A\200\001\310\235u\375\351\027f\020\227\221\011\304"
 398      9D75FDE9 
 398      17661097 
 398      9109C4
 399 0044 DDFDF9DC 		.ascii	"\335\375\371\334#6\365\245\015\015M\037&\375N\2341e"
 399      2336F5A5 
 399      0D0D4D1F 
 399      26FD4E9C 
 399      3165
 400 0056 01E34F26 		.ascii	"\001\343O&&\206\317L\014\214\313\031\245\030W0\202,"
 400      2686CF4C 
 400      0C8CCB19 
 400      A5185730 
 400      822C
 401 0068 625CC9A8 		.ascii	"b\\\311\250\016R\373\261\345\357un\266\226\206\206\006"
 401      0E52FBB1 
 401      E5EF756E 
 401      B6968686 
 401      06
 402 0079 01900AA0 		.ascii	"\001\220\012\240\304*F6F \275^\350@\303\377\377\233"
 402      C42A4636 
 402      4620BD5E 
 402      E840C3FF 
 402      FF9B
 403 008b DF4EEF30 		.ascii	"\337N\3570ggfb\000\231\300\360\004\210Any\012\344\000"
 403      67676662 
 403      0099C0F0 
 403      0488416E 
 403      790AE400 
 404 009f 69E65B8C 		.ascii	"i\346[\214\207\276u\335\373\313\005\322\363\235\011"
 404      87BE75DD 
 404      FBCB05D2 
 404      F39D09
 405 00ae E4B0A5F3 		.ascii	"\344\260\245\363O\254c\007\271\204\371\307\205\306\006"
 405      4FAC6307 
 405      B984F9C7 
 405      85C606
 406 00bd 16900DF7 		.ascii	"\026\220\015\367\237\234\277\310\001\026b\000q\037\266"
 406      9F9CBFC8 
 406      01166200 
 406      711FB6
 407 00cc 7E6FE69C 		.ascii	"~o\346\234\3138\273\261\245\361\200\354O&\026\306\325"
 407      CB38BBB1 
 407      A5F180EC 
 407      4F2616C6 
 407      D5
 408 00dd 4037AD01 		.ascii	"@7\255\001\271\211q-\343\\F\206{\214\215\015\334P\003"
 408      B989712D 
 408      E35C4686 
 408      7B8C8D0D 
 408      DC5003
 409 00f0 19405632 		.ascii	"\031@V2\202\254\0022M\334S\363R\213\022KRS\342\203\363"
 409      82AC0232 
 409      4DDC53F3 
 409      528B124B 
 409      5253E283 
 410 0105 4B8B9253 		.ascii	"K\213\222Sc\002\202\363\235Mc\234\213\022\363\262C\212"
ARM GAS  C:\Users\Bruger\AppData\Local\Temp\cc6AEA3I.s 			page 31


 410      630282F3 
 410      9D4D639C 
 410      8B12F3B2 
 410      438A
 411 0117 32D3D353 		.ascii	"2\323\323S\213\234\023\013JJ\213R\235\363K\363JR\213"
 411      8B9C130B 
 411      4A4A8B52 
 411      9DF34BF3 
 411      4A528B
 412 012a F4921900 		.ascii	"\364\222\031\000\222&q\342"
 412      922671E2 
 413              		.text
 414              		.section	.gnu.lto_CrankTriggerCaptureCounter_ClearFIFO.150956ac,"",%progbits
 415 0000 789C6591 		.ascii	"x\234e\221\317K\033A\024\307\337{\263\273\331\032\005"
 415      CF4B1B41 
 415      14C7DF7B 
 415      B3BBD91A 
 415      05
 416 0011 E931FF80 		.ascii	"\3511\377\2007\017E\005oB\020\257\005=\006j\210\213"
 416      370F4505 
 416      6F4210AF 
 416      053D066A 
 416      888B
 417 0023 D842224B 		.ascii	"\330B\"Kr\316l]=\024)\036<\004\242'Q\243\266\361'^R"
 417      72CE6C5D 
 417      3D14291E 
 417      3C04A227 
 417      51A3B6F1 
 418 003a 30EDA59E 		.ascii	"0\355\245\236Z\245T1\242\205\032\241^\264&\242\315\241"
 418      5AA55431 
 418      A2851AA1 
 418      5EB426A2 
 418      CDA1
 419 004c 4DDFEC8A 		.ascii	"M\337\354\212\240.\354\314\354{\037\276\363\231Y\001"
 419      A02EECCC 
 419      EC7B1FBE 
 419      F3995901 
 420 005c 8F9F6E7E 		.ascii	"\217\237n~/\020\240\203g4\000i\342\013\200c\022j\376"
 420      2F10A083 
 420      67340069 
 420      E20B8063 
 420      126AFE
 421 006f 42F88B8F 		.ascii	"B\370\213\217\246Fb\3743\200l\320\335\000\310F\035Q"
 421      A64662FC 
 421      33806CD0 
 421      DD00C846 
 421      1D51
 422 0081 D501214D 		.ascii	"\325\001!MB\3231M\232\037xF\227\204\023\305\245L\260"
 422      42D3314D 
 422      9A1F7846 
 422      978413C5 
 422      A54CB0
 423 0094 65564AF9 		.ascii	"eVJ\371\373gvL\310\311\376\032\001T\311Gp\036[\200\251"
 423      FB67764C 
 423      C8C9FE1A 
 423      0154C947 
 423      701E5B80 
ARM GAS  C:\Users\Bruger\AppData\Local\Temp\cc6AEA3I.s 			page 32


 424 00a9 4BF7EF7E 		.ascii	"K\367\357~\320p\231j\366{\230C\203]`\371iQ\326\353\325"
 424      D070996A 
 424      F67B9843 
 424      835D60F9 
 424      6951D6EB 
 425 00be 8BCCEBCE 		.ascii	"\213\314\353\316\267\302\020Pc\035\036H\347A\000\224"
 425      B7C21050 
 425      631D1E48 
 425      E7410094 
 426 00ce 99658932 		.ascii	"\231e\2112\021O\342\224Kl&J\370\351\372\315\361\331"
 426      114FE294 
 426      4B6C264A 
 426      F8E9FACD 
 426      F1D9
 427 00e0 B37BC1C5 		.ascii	"\263{\301\305\275\230\227Z%|\270#.\360y\001\027\321"
 427      BD98975A 
 427      257CB823 
 427      2EF07901 
 427      17D1
 428 00f2 B8218D7B 		.ascii	"\270!\215{\205-\367C\323/\252\221\226\331u\244\246\360"
 428      852DF743 
 428      D32FAA91 
 428      96D975A4 
 428      A6F0
 429 0104 1FE5AFBB 		.ascii	"\037\345\257\273\246W\002\3659\265\220\037\325\2461"
 429      A65702F5 
 429      39B5901F 
 429      D5A631
 430 0113 EB4C3A66 		.ascii	"\353L:f\215t\\\302\020\276\303\020\207\274\307i\345"
 430      8D745CC2 
 430      10BEC310 
 430      87BCC769 
 430      E5
 431 0124 7DCA20DF 		.ascii	"}\312 \337\212\257\362o\273\341\276\312\267\223\035"
 431      8AAFF26F 
 431      BBE1BECA 
 431      B7931D
 432 0133 BA95A147 		.ascii	"\272\225\241G2yOfY\311\010\356\345\016e%\250v6\316\267"
 432      32794F66 
 432      59C908EE 
 432      E50E6525 
 432      A87636CE 
 433 0148 1FCA189E 		.ascii	"\037\312\030\236\314u\276\262\207w2\001\\a\231UOfM\311"
 433      CC75BEB2 
 433      87773201 
 433      5C619955 
 433      4F664DC9 
 434 015c 9470E4CF 		.ascii	"\224p\344\317\330\025\252\355nH\367C\327ff7\237\250"
 434      D815AAED 
 434      6E48F743 
 434      D7666637 
 434      9FA8
 435 016e 04D105B8 		.ascii	"\004\321\005\270\316\354wt\017F^\3362\0148s\205\361"
 435      CEEC7774 
 435      0F465EDE 
 435      320C3873 
 435      85F1
ARM GAS  C:\Users\Bruger\AppData\Local\Temp\cc6AEA3I.s 			page 33


 436 0180 800770CC 		.ascii	"\200\007p\314\206\012\363\016\245\253k>F\247xtb*XU\313"
 436      860AF30E 
 436      A5AB6B3E 
 436      46A77874 
 436      622A5855 
 437 0195 7CA16E80 		.ascii	"|\241n\200\177D[\217\025\267\354h\322\032x\321\233H"
 437      7F445B8F 
 437      15B7EC68 
 437      D21A78D1 
 437      9B48
 438 01a7 D9312BF2 		.ascii	"\3311+\362\2747\021n\217\204\355h\374U\237=48h\331\341"
 438      BC37116E 
 438      8F84ED68 
 438      FC559F3D 
 438      343868D9 
 439 01bc E8703265 		.ascii	"\350p2e[\341D*\236\264\354\326\030\374\007J0\313\355"
 439      5BE1442A 
 439      9EB4ECD6 
 439      18FC074A 
 439      30CBED
 440              		.text
 441              		.section	.gnu.lto_.symbol_nodes.150956ac,"",%progbits
 442 0000 789C55CA 		.ascii	"x\234U\312\275\015\3020\030\204\341\363\3478q\376\343"
 442      BD0DC230 
 442      1884E1F3 
 442      E73871FE 
 442      E3
 443 0011 2CC012D4 		.ascii	",\300\022\324\254v)\250\201\011\020H\214\300\034\031"
 443      AC7629A8 
 443      81091048 
 443      8CC01C19 
 444 0021 22354310 		.ascii	"\"5C\020)\215\357\232W\217t\036\300\305\341\2309\002"
 444      298DEF9A 
 444      578F741E 
 444      C0C5E198 
 444      3902
 445 0033 8F1520F1 		.ascii	"\217\025 \361|E\230\321\211=-w\000\336FXA/\267\300B"
 445      7C4598D1 
 445      893D2D77 
 445      00DE4658 
 445      412FB7C0 
 446 0048 5C32882B 		.ascii	"\\2\210+\226\342\310J\\3\212\033\326\342\226\215\270"
 446      96E2C84A 
 446      5C338A1B 
 446      D6E2968D 
 446      B8
 447 0059 632BEED9 		.ascii	"c+\356\331\211\007\366\342\221\203x\342\230\333\315"
 447      8907F6E2 
 447      918378E2 
 447      98DBCD
 448 0068 9C0E6359 		.ascii	"\234\016cYv&\246\214\0363\256\267\337\311#\341s\337"
 448      7626A68C 
 448      1E33AEB7 
 448      DFC923E1 
 448      73DF
 449 007a 6BC0F63D 		.ascii	"k\300\366=\343\017\320\016Q\373"
 449      E30FD00E 
ARM GAS  C:\Users\Bruger\AppData\Local\Temp\cc6AEA3I.s 			page 34


 449      51FB
 450              		.text
 451              		.section	.gnu.lto_.refs.150956ac,"",%progbits
 452 0000 789C6366 		.ascii	"x\234cf``\340d\200\000&&\006fFFf\026\006\000\001;\000"
 452      6060E064 
 452      80002626 
 452      06664646 
 452      66160600 
 453 0017 1D       		.ascii	"\035"
 454              		.text
 455              		.section	.gnu.lto_.decls.150956ac,"",%progbits
 456 0000 789C8D96 		.ascii	"x\234\215\226{LSW\030\300\357\351)\025J\005\267d\270"
 456      7B4C5357 
 456      18C0EFE9 
 456      29154A05 
 456      B764B8
 457 0013 F88FB807 		.ascii	"\370\217\270\007\3132\347b\262\031\377sI\243\306=\315"
 457      CB32E762 
 457      B219FF73 
 457      49A3C63D 
 457      CD
 458 0024 D8239966 		.ascii	"\330#\231f\246\302\215k\306(\251%\031\377,W\321\200"
 458      A6C28D6B 
 458      C628A925 
 458      19FF2C57 
 458      D180
 459 0036 4F98A222 		.ascii	"O\230\242\">\300\211hU\260\"\017\241\010\0057|`\021"
 459      3EC08968 
 459      55B0220F 
 459      A1080537 
 459      7C6011
 460 0049 11900242 		.ascii	"\021\220\002BAEDD\004t:\215\335w\316\271\327\336\333"
 460      41454444 
 460      04743A8D 
 460      DD77CEB9 
 460      D7DEDB
 461 005c 5D0A37F9 		.ascii	"]\0127\371\332\336\313\367\375\276\347\371.\230\343"
 461      DADECBF7 
 461      FDBEE7F9 
 461      2E98E3
 462 006b B8782DC7 		.ascii	"\270x-\307\371\340J\321s\334\217\230\343^\203g\3139"
 462      F9E04AD1 
 462      73DC8F98 
 462      E35E8367 
 462      CB39
 463 007d FFF53AC8 		.ascii	"\377\365:\310I\220\"\020\007H1\210\023\244\032\304\005"
 463      49902210 
 463      07483188 
 463      13A41AC4 
 463      05
 464 008e 5207E206 		.ascii	"R\007\342\006i\002i\006i\001i\003i\007\351\000\351\002"
 464      69026906 
 464      69016903 
 464      6907E900 
 464      E902
 465 00a0 E906F182 		.ascii	"\351\006\361\202 \220[\234\362\"\354\031\242\3172\220"
 465      20905B9C 
ARM GAS  C:\Users\Bruger\AppData\Local\Temp\cc6AEA3I.s 			page 35


 465      F222EC19 
 465      A2CF3290 
 466 00b0 28904B20 		.ascii	"(\220K \003 \375 \303 \017@\"@\014 \017A\206@F@\252"
 466      0320FD20 
 466      C3200F40 
 466      22400C20 
 466      0F418640 
 467 00c7 401E8154 		.ascii	"@\036\201T\210,\275\310\353\022c\251\026\343q\2131\267"
 467      882CBDC8 
 467      EB1263A9 
 467      16E3718B 
 467      31B7
 468 00d9 8B717473 		.ascii	"\213qts\377\277H~Z1\216(\231\177N\214\273H\305\206\324"
 468      FFBF487E 
 468      5A318E28 
 468      997F4E8C 
 468      BB48C586 
 469 00ee 23546633 		.ascii	"#Tf3*\3460\006b\017``Q_\252\245Z-\212'\211\241X%\006"
 469      2AE63006 
 469      620F6060 
 469      515FAAA5 
 469      5A2D8A27 
 470 0107 A7CCA64C 		.ascii	"\247\314\246L\305\306\251bS-\306\243\246_\255\242\357"
 470      C5C6A962 
 470      532DC6A3 
 470      A65FADA2 
 470      EF
 471 0118 0AA2EF52 		.ascii	"\012\242\357R\321\257\233$\246:\025\033\322#\235h#\365"
 471      D1AF9B24 
 471      A63A151B 
 471      D2239D68 
 471      23F5
 472 012a 9ACC81D4 		.ascii	"\232\314\201\324o\311\326\255bKf/4\300\216\324\3571"
 472      6FC9D6AD 
 472      624B662F 
 472      34C08ED4 
 472      EF31
 473 013c C838E79F 		.ascii	"\3108\347\237!\211\321\244\302 \363\022\022\300\010"
 473      2189D1A4 
 473      C220F312 
 473      12C008
 474 014b B46B56B1 		.ascii	"\264kV\261k\231b\334-*\266mS\360\331\246b\327>E\237"
 474      6B9962DC 
 474      2D2AB66D 
 474      53F0D9A6 
 474      62D73E45 
 475 0160 ED2AB61D 		.ascii	"\355*\266\035S\360\331\241bG\316\2244\353e\234\277\306"
 475      53F0D9A1 
 475      6247CE94 
 475      34EB659C 
 475      BFC6
 476 0172 926DE0AC 		.ascii	"\222m\340\254\313\317`\340\365H\203*\212\306\335\341"
 476      CBCF60E0 
 476      F548832A 
 476      8AC6DDE1 
 477 0182 031A14A1 		.ascii	"\003\032\024\241\217&\267\225;.f\353\340\326\240\327"
 477      8F26B795 
ARM GAS  C:\Users\Bruger\AppData\Local\Temp\cc6AEA3I.s 			page 36


 477      3B2E66EB 
 477      E0D6A0D7 
 478 0192 925BE7F3 		.ascii	"\222[\347\363\276\026\355\314]\002\\\231\251\302\014"
 478      BE16EDCC 
 478      5D025C99 
 478      A9C20C
 479 01a1 2D5A1E85 		.ascii	"-Z\036\205\216\242Y\350\030\232\005\021\332\321L\370"
 479      8EA259E8 
 479      189A0511 
 479      DAD14CF8 
 480 01b1 5CA165A4 		.ascii	"\\\241e\244\023\343\355\015\323\260\006\221\337\207"
 480      13E3ED0D 
 480      D3B00691 
 480      DF87
 481 01bf B37B5BF4 		.ascii	"\263{[\364s\217\203Y\272\340j\322\372\335\035/)x7\372"
 481      738F8359 
 481      BAE06AD2 
 481      FADD1D2F 
 481      297837FA 
 482 01d3 A0E0758C 		.ascii	"\240\340u\214xr<\006\341\242\340\362\371\026Q\022:\216"
 482      78723C06 
 482      E1A2E0F2 
 482      F9165112 
 482      3A8E
 483 01e5 303A81E6 		.ascii	"0:\201\346\322\334\3417+\302I\024\015Vw\013\036:B\360"
 483      D2DCE137 
 483      2BC24914 
 483      0D56770B 
 483      1E3A42F0 
 484 01f9 4F149D5E 		.ascii	"O\024\235^\346,\322SD^\356\021\035\005\324\010\210\022"
 484      E62CD253 
 484      445EEE11 
 484      1D05D408 
 484      8812
 485 020b 0A658442 		.ascii	"\012e\204B\211PD\0115\276\027\343\241\030\364\010\342"
 485      89504409 
 485      35BE17E3 
 485      A118F408 
 485      E2
 486 021c C0D982B6 		.ascii	"\300\331\202\266p@\3449\362\006E\304\"\0128%\003\234"
 486      7040E439 
 486      F20645C4 
 486      220A3825 
 486      039C
 487 022e 92000E0A 		.ascii	"\222\000\016\012\270\335x'\003\343C\014\260\2551\243"
 487      B8DD7827 
 487      03E3430C 
 487      B0AD31A3 
 488 023e 1231C0B1 		.ascii	"\0221\300\261\243r\300i\031\340\264\004(\246\200\266"
 488      A372C069 
 488      19E0B404 
 488      28A680B6 
 489 024e 9AB4B450 		.ascii	"\232\264\264P\\\313\000\353\012\234[\247A\231\243\364"
 489      5CCB00EB 
 489      0A9C5BA7 
 489      4199A3F4 
 490 025e B42ADB1B 		.ascii	"\264*\333\033rj1\275\365\221?k<\236\254g\030\351c\322"
ARM GAS  C:\Users\Bruger\AppData\Local\Temp\cc6AEA3I.s 			page 37


 490      726A31BD 
 490      F5913F6B 
 490      3C9EAC67 
 490      18E963D2 
 491 0272 0561BD30 		.ascii	"\005a\2750\262C\300orh\356,\364\376,\016\225\243\030"
 491      B243C06F 
 491      7268EE2C 
 491      F4FE2C0E 
 491      95A318
 492 0285 50A34E50 		.ascii	"P\243NP\011t\242\024:\221\017u\036\311H\253\376,U\370"
 492      0974A214 
 492      3A910F75 
 492      1EC948AB 
 492      FE2C55F8 
 493 0299 1495213D 		.ascii	"\024\225!=:\363*\014\352A\254}\346\306\332L\255V\003"
 493      3AF32A0C 
 493      EA41AC7D 
 493      E6C6DA4C 
 493      AD5603
 494 02ac 0F89CE0A 		.ascii	"\017\211\316\012\332\340\307\276\336#\232\011\033\\"
 494      DAE0C7BE 
 494      DE239A09 
 494      1B5C
 495 02ba 411B7C16 		.ascii	"A\033|\026\211\035v\244\216]\016\307\367X\012\377\366"
 495      891D76A4 
 495      8E5D0EC7 
 495      F7580AFF 
 495      F6
 496 02cb EFF85DEC 		.ascii	"\357\370]\354de\006\336+\344\255\027^\372|HC\214P\245"
 496      646506DE 
 496      2BE4AD17 
 496      5EFA7C48 
 496      438C50A5 
 497 02df AC0E9552 		.ascii	"\254\016\225R\035\234\264\016\23368\260\334!\211\305"
 497      1D9CB40E 
 497      9B3638B0 
 497      DC2189C5 
 498 02ef EFB14A31 		.ascii	"\357\261J1R/\274\366\254P\274\213\315T\335\246\246\301"
 498      522FBCF6 
 498      AC50BC8B 
 498      CD54DDA6 
 498      A6C1
 499 0301 E9D4A377 		.ascii	"\351\324\243w\233\275^\234\035h=5B\347d\036\317I\036"
 499      9BBD5E9C 
 499      1D683D35 
 499      42E7641E 
 499      CF491E
 500 0314 ABA9C7FD 		.ascii	"\253\251\307\375\027\262\307\014\370<\243td]/\325\261"
 500      17B2C70C 
 500      F83CA374 
 500      645D2FD5 
 500      B1
 501 0325 D639ED52 		.ascii	"\3269\355R\353\010\240F\006\250\221\000.\0128\225\375"
 501      EB08A046 
 501      06A89100 
 501      2E0A3895 
 501      FD
ARM GAS  C:\Users\Bruger\AppData\Local\Temp\cc6AEA3I.s 			page 38


 502 0336 0C7A3FCA 		.ascii	"\014z?\312\000%\003\227\2734\0140\360\012@r\256\225"
 502      00250397 
 502      BB340C30 
 502      F00A4072 
 502      AE95
 503 0348 016A2540 		.ascii	"\001j%@\035\0054\364=\0353\320C6\203 rn\334\031\307"
 503      1D0534F4 
 503      3D1D33D0 
 503      43368320 
 503      726EDC19 
 504 035d F49069E8 		.ascii	"\364\220i\3508\216\016W\205\341?\261b2\242\331d\354"
 504      388E0E57 
 504      85E13FB1 
 504      6232A2D9 
 504      64EC
 505 036f B9FFB424 		.ascii	"\271\377\264$\224\336\372|\230\214\306\363[EGu(F\317"
 505      94DEFA7C 
 505      988CC6F3 
 505      5B454775 
 505      2846CF
 506 0382 7A7E94F5 		.ascii	"z~\224\365\374\022\324\360o\177\317\243\305\236\323"
 506      FC12D4F0 
 506      6F7FCFA3 
 506      C59ED3
 507 0391 F1115285 		.ascii	"\361\021R\205\220c\021\034:\0175\376\013j\214.\302\004"
 507      9063111C 
 507      3A0F35FE 
 507      0B6A8C2E 
 507      C204
 508 03a3 458B1354 		.ascii	"E\213\023T\017\017/\300C\360T\225?8\034N\247\343\322"
 508      0F0F2FC0 
 508      43F05495 
 508      3F381C4E 
 508      A7E3D2
 509 03b6 ABE9E829 		.ascii	"\253\351\350)}R\256\237p:\032h\257.K\323\261o\240\265"
 509      7D52AE9F 
 509      703A1A68 
 509      AF2E4BD3 
 509      B16FA0B5 
 510 03ca 3F12DBC5 		.ascii	"?\022\333\3054\356\356\334\031!\216\307\376\335\362"
 510      34EEEEDC 
 510      19218EC7 
 510      FEDDF2
 511 03d9 F1002B74 		.ascii	"\361\000+tEV\252+R\251\334\264T\3176\272{\024\363qI"
 511      4556AA2B 
 511      52A9DCB4 
 511      54CF36BA 
 511      7B14F371 
 512 03ee 311F8D8A 		.ascii	"1\037\215\212\371\370\247x\303A\214\2571\227\365\335"
 512      F9F8A778 
 512      C3418CAF 
 512      3197F5DD 
 513 03fe 690D5ADA 		.ascii	"i\015Z\332\030\257{K\275\177\267\200\011\272*sxUr\330"
 513      18AF7B4B 
 513      BD7FB780 
 513      09BA2A73 
 513      785572D8 
ARM GAS  C:\Users\Bruger\AppData\Local\Temp\cc6AEA3I.s 			page 39


 514 0412 441DEE5C 		.ascii	"D\035\356\\w\373z\010~\312\030\215[\033c\330n\331^\350"
 514      77FB7A08 
 514      7ECA188D 
 514      5B1B63D8 
 514      6ED95EE8 
 515 0426 DF2D8470 		.ascii	"\337-\204pMF\270&\021\232)\301]\322\\\032\201s\265\224"
 515      4D46B826 
 515      119A29C1 
 515      5DD25C1A 
 515      8173B594 
 516 043a 90DD7CB7 		.ascii	"\220\335|\267Y\307\246\264\306\315\2736\010/|\276\324"
 516      59C7A6B4 
 516      C6CDBB36 
 516      082F7CBE 
 516      D4
 517 044b 505A2C74 		.ascii	"PZ,t]\306\270.1Z(\243\340L\226/\014\3273Fc\345\313\234"
 517      5DC6B82E 
 517      315A28A3 
 517      E04C962F 
 517      0CD73346 
 518 0463 692C93E1 		.ascii	"i,\223\341m\001\231\264\312\030\255\022\243\2152v?\030"
 518      6D0199B4 
 518      CA18AD12 
 518      A38D3276 
 518      3F18
 519 0475 C8477888 		.ascii	"\310Gx\2101\234\367\\7\264,\016\373\325\2008n\310\030"
 519      319CF75C 
 519      37B42C0E 
 519      FBD58038 
 519      6EC818
 520 0488 3724463B 		.ascii	"7$F;e\364\355\317\355\322\343\254\020\312\310\365\234"
 520      65F4EDCF 
 520      EDD2E3AC 
 520      10CAC8F5 
 520      9C
 521 0499 49636BCE 		.ascii	"Ick\316\353\311\010\210\303#cx$F\007eT\215\345\224\207"
 521      EBC90888 
 521      C3236378 
 521      24460765 
 521      548DE594 
 522 04ae 61276374 		.ascii	"a'ct\037\020Z\303Y\034\335\247\333\345\247\226\354\313"
 522      1F105AC3 
 522      591CDDA7 
 522      DBE5A796 
 522      ECCB
 523 04c0 4E19A553 		.ascii	"N\031\245S\242tQ\312P\341iG8\3662\312\341\314\252NZ"
 523      A27451CA 
 523      50E16947 
 523      38F632CA 
 523      E1CCAA4E 
 524 04d5 55C1315C 		.ascii	"U\3011\\\376\"r\257p\210\215\023]Q\350\246\214rS\242"
 524      FE2272AF 
 524      70888D13 
 524      5D51E8A6 
 524      8C7253A2 
 525 04e9 7453CAD5 		.ascii	"tS\312\325\301'{\365x\267\216RzN\034I\240\020\357\313"
 525      C1277BF5 
ARM GAS  C:\Users\Bruger\AppData\Local\Temp\cc6AEA3I.s 			page 40


 525      78B78E52 
 525      7A4E1C49 
 525      A010EFCB 
 526 04fd 5B7C1D2D 		.ascii	"[|\035-\011f\333\243GF\350\221\010^J86X\001o\243BFx"
 526      0966DBA3 
 526      4746E891 
 526      085E4A38 
 526      3658016F 
 527 0515 D9E92827 		.ascii	"\331\351('\257GXZt\000\363s\035{#\337>$\344\375\351"
 527      AF47585A 
 527      7400F373 
 527      1D7B23DF 
 527      3E24E4FD 
 528 052a F074AC74 		.ascii	"\360t\254t\255\023hTt\247\3652\244\270\2679r\017\237"
 528      AD136854 
 528      74A7F532 
 528      A4B8B739 
 528      720F9F
 529 053d 7DE404DE 		.ascii	"}\344\004\336Bo\203\255\260gK~(nb\340\322'\233+\246"
 529      426F83AD 
 529      B0674B7E 
 529      286E62E0 
 529      D2279B2B 
 530 0552 EBD3C969 		.ascii	"\353\323\311i\235|\337\303\032hi\334\334\026\306\336"
 530      9D7CDFC3 
 530      1A6869DC 
 530      DC16C6DE 
 531 0562 10811677 		.ascii	"\020\201\026w'|C\\\030\375|\003l\213~\210\356\266\177"
 531      277C435C 
 531      18FD7C03 
 531      6C8B7E88 
 531      EEB67F
 532 0575 5BDC41FE 		.ascii	"[\334A\376W\304\246\276\034\267\301\260\231\354\015"
 532      57C4A6BE 
 532      1CB7C1B0 
 532      99EC0D
 533 0584 387D6117 		.ascii	"8}a\027#\250\262\377\370\015 \003-\015|\223\377\035"
 533      23A8B2FF 
 533      F80D2003 
 533      2D0D7C93 
 533      FF1D
 534 0596 1A3BBB31 		.ascii	"\032;\2731ne\031\214\244o\273\257e\031Lq\345h\366\024"
 534      6E65198C 
 534      A46FBBAF 
 534      65194C71 
 534      E568F614 
 535 05aa DECC41E2 		.ascii	"\336\314A\342.\313k\210Dh\010\234\335\363G6\210\374"
 535      2ECB6B88 
 535      4468089C 
 535      DDF34736 
 535      88FC
 536 05bc 8B4C857A 		.ascii	"\213L\205z_}\221m\035x|8\\\012$}J&\366\272\212\375\341"
 536      5F7D916D 
 536      1D787C38 
 536      5C0A247D 
 536      4A26F6BA 
 537 05d3 8AB41F28 		.ascii	"\212\264\037(\322\036\026\323\036\246i\037\371\243\036"
ARM GAS  C:\Users\Bruger\AppData\Local\Temp\cc6AEA3I.s 			page 41


 537      D21E16D3 
 537      1EA6691F 
 537      F9A31E
 538 05e2 2B948714 		.ascii	"+\224\207\024\312\017E\345\207T\371\351\241\336\376"
 538      CA0F45E5 
 538      8754F9E9 
 538      A1DEFE
 539 05f1 48853699 		.ascii	"H\2056\2317\277\366\210\250=B\2653w\354\253\016ShW("
 539      37BFF688 
 539      A83D42B5 
 539      3377ECAB 
 539      0E536857 
 540 0606 B41F89DA 		.ascii	"\264\037\211\332\217\250\366\236\203#\317\225\332\312"
 540      8FA8F69E 
 540      8323CF95 
 540      DACA
 541 0614 97E9A8A8 		.ascii	"\227\351\250\250=J\265\273\263]\233\265\012m\273\202"
 541      3D4AB5BB 
 541      B35D9BB5 
 541      0A6DBB82 
 542 0624 3D860C52 		.ascii	"=\206\014R\341\307\250Aof}U\2304\223\351\223L\030\350"
 542      E1C7A841 
 542      6F667D55 
 542      983493E9 
 542      934C18E8 
 543 0638 D766EF3C 		.ascii	"\327f\357<>]\341`\\\021\316c1\034\362=\333h5%\376\362"
 543      3E5DE160 
 543      5C11CE63 
 543      311CF23D 
 543      DB683525 
 544 064e ADD5BC66 		.ascii	"\255\325\274f\015o5\232\222l\311V\336hIN\264\361\326"
 544      0D6F359A 
 544      926CC956 
 544      DE68494E 
 544      B4F1D6
 545 0661 55CB12CD 		.ascii	"U\313\022\3156\335\322\257\276\2136r\037/\345\023y\253"
 545      36DDD2AF 
 545      BE8B3672 
 545      1F2FE513 
 545      79AB
 546 0673 C9C6C7AF 		.ascii	"\311\306\307\257\212\265$[\343\370\225\313c-\306OVN"
 546      8AB5245B 
 546      E3F895CB 
 546      632DC64F 
 546      564E
 547 0685 6C3D2F8E 		.ascii	"l=/\216\233\023\204\2758\321\264:\201\217\016\242\021"
 547      9B1384BD 
 547      38D1B43A 
 547      818F0EA2 
 547      11
 548 0696 6B33596D 		.ascii	"k3Ym\301\302\213\265Y\222B\222\315\211\266\205s&\210"
 548      C1C28BB5 
 548      59924292 
 548      CD89B685 
 548      732688
 549 06a9 2E2EC596 		.ascii	"..\305\226\222\304\257\235\3673\367A0\016o[F~X\223\223"
 549      92C4AF9D 
ARM GAS  C:\Users\Bruger\AppData\Local\Temp\cc6AEA3I.s 			page 42


 549      F733F741 
 549      300E6F5B 
 549      467E5893 
 550 06be 6C5F5AE2 		.ascii	"l_Z\342\371\017\203\350~\303\233\342!0[\362\332o\370"
 550      F90F83E8 
 550      7EC39BE2 
 550      21305BF2 
 550      DA6FF8
 551 06d1 35E6B524 		.ascii	"5\346\265$\317I\264\215\226D\233\325\222 \251\177\024"
 551      CF49B48D 
 551      96449BD5 
 551      9220A97F 
 551      14
 552 06e2 44FD07AB 		.ascii	"D\375\007\253\331\306\007\350\353H\202\363\027\2747"
 552      D9C607E8 
 552      EB4882F3 
 552      17BC37
 553 06f1 B919BD89 		.ascii	"\271\031\275\211\2314\232\251\251\261G\301\324\250\327"
 553      99349AA9 
 553      A9B147C1 
 553      D4A8D7
 554 0700 E5BCD56C 		.ascii	"\345\274\325l\211\177w\022\032\323\232B\012\277&\231"
 554      897F7712 
 554      1AD39A42 
 554      0ABF2699 
 555 0710 823B6529 		.ascii	"\202;e)P\265w\202\250\031\023x\223u\311\262%_\277aL"
 555      50B57782 
 555      A8191378 
 555      9375C9B2 
 555      255FBF61 
 556 0725 59FC9BD9 		.ascii	"Y\374\233\331f\004\2749\316\224\020\313\307\331\314"
 556      6604BC39 
 556      CE9410CB 
 556      C7D9CC
 557 0734 96C4D913 		.ascii	"\226\304\331\023\015s\312\027\346\3250,Q`E8\001fo\005"
 557      0D73CA17 
 557      E6D5302C 
 557      51604538 
 557      01666F05 
 558 0748 F16886A3 		.ascii	"\361h\206\243\362\275\311\252\265\362k\026\206\300\307"
 558      F2BDC9AA 
 558      B5F26B16 
 558      86C0C7
 559 0757 FC05FF01 		.ascii	"\374\005\377\001\352|\005\010"
 559      EA7C0508 
 560              		.text
 561              		.section	.gnu.lto_.symtab.150956ac,"",%progbits
 562 0000 4372616E 		.ascii	"CrankTriggerCaptureCounter_Init\000\000\000\000\000"
 562      6B547269 
 562      67676572 
 562      43617074 
 562      75726543 
 563 0024 00000000 		.ascii	"\000\000\000\000\000\000\000\254\000\000\000CrankTr"
 563      000000AC 
 563      00000043 
 563      72616E6B 
 563      5472
ARM GAS  C:\Users\Bruger\AppData\Local\Temp\cc6AEA3I.s 			page 43


 564 0036 69676765 		.ascii	"iggerCaptureCounter_Enable\000\000\000\000\000\000\000"
 564      72436170 
 564      74757265 
 564      436F756E 
 564      7465725F 
 565 0057 00000000 		.ascii	"\000\000\000\000\000\256\000\000\000CrankTriggerCap"
 565      00AE0000 
 565      00437261 
 565      6E6B5472 
 565      69676765 
 566 006f 74757265 		.ascii	"tureCounter_Start\000\000\000\000\000\000\000\000\000"
 566      436F756E 
 566      7465725F 
 566      53746172 
 566      74000000 
 567 0089 000000B0 		.ascii	"\000\000\000\260\000\000\000CrankTriggerCaptureCoun"
 567      00000043 
 567      72616E6B 
 567      54726967 
 567      67657243 
 568 00a7 7465725F 		.ascii	"ter_initVar\000\000\000\000\000\000\000\000\000\000"
 568      696E6974 
 568      56617200 
 568      00000000 
 568      00000000 
 569 00bc 0000E300 		.ascii	"\000\000\343\000\000\000CrankTriggerCaptureCounter_"
 569      00004372 
 569      616E6B54 
 569      72696767 
 569      65724361 
 570 00dd 53746F70 		.ascii	"Stop\000\000\000\000\000\000\000\000\000\000\000\000"
 570      00000000 
 570      00000000 
 570      00000000 
 571 00ed B2000000 		.ascii	"\262\000\000\000CrankTriggerCaptureCounter_SetInter"
 571      4372616E 
 571      6B547269 
 571      67676572 
 571      43617074 
 572 0114 72757074 		.ascii	"ruptMode\000\000\000\000\000\000\000\000\000\000\000"
 572      4D6F6465 
 572      00000000 
 572      00000000 
 572      000000
 573 0127 00BB0000 		.ascii	"\000\273\000\000\000CrankTriggerCaptureCounter_Read"
 573      00437261 
 573      6E6B5472 
 573      69676765 
 573      72436170 
 574 014b 53746174 		.ascii	"StatusRegister\000\000\000\000\000\000\000\000\000\000"
 574      75735265 
 574      67697374 
 574      65720000 
 574      00000000 
 575 0163 0000BE00 		.ascii	"\000\000\276\000\000\000CrankTriggerCaptureCounter_"
 575      00004372 
 575      616E6B54 
ARM GAS  C:\Users\Bruger\AppData\Local\Temp\cc6AEA3I.s 			page 44


 575      72696767 
 575      65724361 
 576 0184 52656164 		.ascii	"ReadControlRegister\000\000\000\000\000\000\000\000"
 576      436F6E74 
 576      726F6C52 
 576      65676973 
 576      74657200 
 577 019f 00000000 		.ascii	"\000\000\000\000\300\000\000\000CrankTriggerCapture"
 577      C0000000 
 577      4372616E 
 577      6B547269 
 577      67676572 
 578 01ba 436F756E 		.ascii	"Counter_WriteControlRegister\000\000\000\000\000\000"
 578      7465725F 
 578      57726974 
 578      65436F6E 
 578      74726F6C 
 579 01dc 00000000 		.ascii	"\000\000\000\000\000\000\302\000\000\000CrankTrigge"
 579      0000C200 
 579      00004372 
 579      616E6B54 
 579      72696767 
 580 01f1 72436170 		.ascii	"rCaptureCounter_WriteCounter\000\000\000\000\000\000"
 580      74757265 
 580      436F756E 
 580      7465725F 
 580      57726974 
 581 0213 00000000 		.ascii	"\000\000\000\000\000\000\315\000\000\000CrankTrigge"
 581      0000CD00 
 581      00004372 
 581      616E6B54 
 581      72696767 
 582 0228 72436170 		.ascii	"rCaptureCounter_ReadCounter\000\000\000\000\000\000"
 582      74757265 
 582      436F756E 
 582      7465725F 
 582      52656164 
 583 0249 00000000 		.ascii	"\000\000\000\000\000\000\320\000\000\000CrankTrigge"
 583      0000D000 
 583      00004372 
 583      616E6B54 
 583      72696767 
 584 025e 72436170 		.ascii	"rCaptureCounter_ReadCapture\000\000\000\000\000\000"
 584      74757265 
 584      436F756E 
 584      7465725F 
 584      52656164 
 585 027f 00000000 		.ascii	"\000\000\000\000\000\000\322\000\000\000CrankTrigge"
 585      0000D200 
 585      00004372 
 585      616E6B54 
 585      72696767 
 586 0294 72436170 		.ascii	"rCaptureCounter_WritePeriod\000\000\000\000\000\000"
 586      74757265 
 586      436F756E 
 586      7465725F 
 586      57726974 
ARM GAS  C:\Users\Bruger\AppData\Local\Temp\cc6AEA3I.s 			page 45


 587 02b5 00000000 		.ascii	"\000\000\000\000\000\000\324\000\000\000CrankTrigge"
 587      0000D400 
 587      00004372 
 587      616E6B54 
 587      72696767 
 588 02ca 72436170 		.ascii	"rCaptureCounter_ReadPeriod\000\000\000\000\000\000\000"
 588      74757265 
 588      436F756E 
 588      7465725F 
 588      52656164 
 589 02eb 00000000 		.ascii	"\000\000\000\000\000\326\000\000\000CrankTriggerCap"
 589      00D60000 
 589      00437261 
 589      6E6B5472 
 589      69676765 
 590 0303 74757265 		.ascii	"tureCounter_WriteCompare\000\000\000\000\000\000\000"
 590      436F756E 
 590      7465725F 
 590      57726974 
 590      65436F6D 
 591 0322 00000000 		.ascii	"\000\000\000\000\000\330\000\000\000CrankTriggerCap"
 591      00D80000 
 591      00437261 
 591      6E6B5472 
 591      69676765 
 592 033a 74757265 		.ascii	"tureCounter_ReadCompare\000\000\000\000\000\000\000"
 592      436F756E 
 592      7465725F 
 592      52656164 
 592      436F6D70 
 593 0358 00000000 		.ascii	"\000\000\000\000\000\332\000\000\000CrankTriggerCap"
 593      00DA0000 
 593      00437261 
 593      6E6B5472 
 593      69676765 
 594 0370 74757265 		.ascii	"tureCounter_ClearFIFO\000\000\000\000\000\000\000\000"
 594      436F756E 
 594      7465725F 
 594      436C6561 
 594      72464946 
 595 038d 00000000 		.ascii	"\000\000\000\000\334\000\000\000CyExitCriticalSecti"
 595      DC000000 
 595      43794578 
 595      69744372 
 595      69746963 
 596 03a8 6F6E0000 		.ascii	"on\000\000\002\000\000\000\000\000\000\000\000\000\336"
 596      02000000 
 596      00000000 
 596      0000DE
 597 03b7 00000043 		.ascii	"\000\000\000CyEnterCriticalSection\000\000\002\000\000"
 597      79456E74 
 597      65724372 
 597      69746963 
 597      616C5365 
 598 03d5 00000000 		.ascii	"\000\000\000\000\000\000\000\340\000\000\000"
 598      000000E0 
 598      000000
ARM GAS  C:\Users\Bruger\AppData\Local\Temp\cc6AEA3I.s 			page 46


 599              		.text
 600              		.section	.gnu.lto_.opts,"",%progbits
 601 0000 272D666E 		.ascii	"'-fno-trapv' '-mcpu=cortex-m3' '-mthumb' '-g' '-O3'"
 601      6F2D7472 
 601      61707627 
 601      20272D6D 
 601      6370753D 
 602 0033 20272D66 		.ascii	" '-ffunction-sections' '-finline-functions' '-flto'"
 602      66756E63 
 602      74696F6E 
 602      2D736563 
 602      74696F6E 
 603 0066 20272D66 		.ascii	" '-ffat-lto-objects'\000"
 603      6661742D 
 603      6C746F2D 
 603      6F626A65 
 603      63747327 
 604              		.text
 605              		.cfi_sections	.debug_frame
 606              		.section	.text.CrankTriggerCaptureCounter_Init,"ax",%progbits
 607              		.align	2
 608              		.global	CrankTriggerCaptureCounter_Init
 609              		.thumb
 610              		.thumb_func
 611              		.type	CrankTriggerCaptureCounter_Init, %function
 612              	CrankTriggerCaptureCounter_Init:
 613              	.LFB0:
 614              		.file 1 "Generated_Source\\PSoC5\\CrankTriggerCaptureCounter.c"
   1:Generated_Source\PSoC5/CrankTriggerCaptureCounter.c **** /*******************************************************************************
   2:Generated_Source\PSoC5/CrankTriggerCaptureCounter.c **** * File Name: CrankTriggerCaptureCounter.c  
   3:Generated_Source\PSoC5/CrankTriggerCaptureCounter.c **** * Version 3.0
   4:Generated_Source\PSoC5/CrankTriggerCaptureCounter.c **** *
   5:Generated_Source\PSoC5/CrankTriggerCaptureCounter.c **** *  Description:
   6:Generated_Source\PSoC5/CrankTriggerCaptureCounter.c **** *     The Counter component consists of a 8, 16, 24 or 32-bit counter with
   7:Generated_Source\PSoC5/CrankTriggerCaptureCounter.c **** *     a selectable period between 2 and 2^Width - 1.  
   8:Generated_Source\PSoC5/CrankTriggerCaptureCounter.c **** *
   9:Generated_Source\PSoC5/CrankTriggerCaptureCounter.c **** *   Note:
  10:Generated_Source\PSoC5/CrankTriggerCaptureCounter.c **** *     None
  11:Generated_Source\PSoC5/CrankTriggerCaptureCounter.c **** *
  12:Generated_Source\PSoC5/CrankTriggerCaptureCounter.c **** ********************************************************************************
  13:Generated_Source\PSoC5/CrankTriggerCaptureCounter.c **** * Copyright 2008-2012, Cypress Semiconductor Corporation.  All rights reserved.
  14:Generated_Source\PSoC5/CrankTriggerCaptureCounter.c **** * You may use this file only in accordance with the license, terms, conditions, 
  15:Generated_Source\PSoC5/CrankTriggerCaptureCounter.c **** * disclaimers, and limitations in the end user license agreement accompanying 
  16:Generated_Source\PSoC5/CrankTriggerCaptureCounter.c **** * the software package with which this file was provided.
  17:Generated_Source\PSoC5/CrankTriggerCaptureCounter.c **** *******************************************************************************/
  18:Generated_Source\PSoC5/CrankTriggerCaptureCounter.c **** 
  19:Generated_Source\PSoC5/CrankTriggerCaptureCounter.c **** #include "CrankTriggerCaptureCounter.h"
  20:Generated_Source\PSoC5/CrankTriggerCaptureCounter.c **** 
  21:Generated_Source\PSoC5/CrankTriggerCaptureCounter.c **** uint8 CrankTriggerCaptureCounter_initVar = 0u;
  22:Generated_Source\PSoC5/CrankTriggerCaptureCounter.c **** 
  23:Generated_Source\PSoC5/CrankTriggerCaptureCounter.c **** 
  24:Generated_Source\PSoC5/CrankTriggerCaptureCounter.c **** /*******************************************************************************
  25:Generated_Source\PSoC5/CrankTriggerCaptureCounter.c **** * Function Name: CrankTriggerCaptureCounter_Init
  26:Generated_Source\PSoC5/CrankTriggerCaptureCounter.c **** ********************************************************************************
  27:Generated_Source\PSoC5/CrankTriggerCaptureCounter.c **** * Summary:
  28:Generated_Source\PSoC5/CrankTriggerCaptureCounter.c **** *     Initialize to the schematic state
  29:Generated_Source\PSoC5/CrankTriggerCaptureCounter.c **** * 
ARM GAS  C:\Users\Bruger\AppData\Local\Temp\cc6AEA3I.s 			page 47


  30:Generated_Source\PSoC5/CrankTriggerCaptureCounter.c **** * Parameters:  
  31:Generated_Source\PSoC5/CrankTriggerCaptureCounter.c **** *  void  
  32:Generated_Source\PSoC5/CrankTriggerCaptureCounter.c **** *
  33:Generated_Source\PSoC5/CrankTriggerCaptureCounter.c **** * Return: 
  34:Generated_Source\PSoC5/CrankTriggerCaptureCounter.c **** *  void
  35:Generated_Source\PSoC5/CrankTriggerCaptureCounter.c **** *
  36:Generated_Source\PSoC5/CrankTriggerCaptureCounter.c **** *******************************************************************************/
  37:Generated_Source\PSoC5/CrankTriggerCaptureCounter.c **** void CrankTriggerCaptureCounter_Init(void) 
  38:Generated_Source\PSoC5/CrankTriggerCaptureCounter.c **** {
 615              		.loc 1 38 0
 616              		.cfi_startproc
 617              		@ args = 0, pretend = 0, frame = 0
 618              		@ frame_needed = 0, uses_anonymous_args = 0
 619 0000 F8B5     		push	{r3, r4, r5, r6, r7, lr}
 620              		.cfi_def_cfa_offset 24
 621              		.cfi_offset 3, -24
 622              		.cfi_offset 4, -20
 623              		.cfi_offset 5, -16
 624              		.cfi_offset 6, -12
 625              		.cfi_offset 7, -8
 626              		.cfi_offset 14, -4
  39:Generated_Source\PSoC5/CrankTriggerCaptureCounter.c ****         #if (!CrankTriggerCaptureCounter_UsingFixedFunction && !CrankTriggerCaptureCounter_ControlR
  40:Generated_Source\PSoC5/CrankTriggerCaptureCounter.c ****             uint8 ctrl;
  41:Generated_Source\PSoC5/CrankTriggerCaptureCounter.c ****         #endif /* (!CrankTriggerCaptureCounter_UsingFixedFunction && !CrankTriggerCaptureCounter_Co
  42:Generated_Source\PSoC5/CrankTriggerCaptureCounter.c ****         
  43:Generated_Source\PSoC5/CrankTriggerCaptureCounter.c ****         #if(!CrankTriggerCaptureCounter_UsingFixedFunction) 
  44:Generated_Source\PSoC5/CrankTriggerCaptureCounter.c ****             /* Interrupt State Backup for Critical Region*/
  45:Generated_Source\PSoC5/CrankTriggerCaptureCounter.c ****             uint8 CrankTriggerCaptureCounter_interruptState;
  46:Generated_Source\PSoC5/CrankTriggerCaptureCounter.c ****         #endif /* (!CrankTriggerCaptureCounter_UsingFixedFunction) */
  47:Generated_Source\PSoC5/CrankTriggerCaptureCounter.c ****         
  48:Generated_Source\PSoC5/CrankTriggerCaptureCounter.c ****         #if (CrankTriggerCaptureCounter_UsingFixedFunction)
  49:Generated_Source\PSoC5/CrankTriggerCaptureCounter.c ****             /* Clear all bits but the enable bit (if it's already set for Timer operation */
  50:Generated_Source\PSoC5/CrankTriggerCaptureCounter.c ****             CrankTriggerCaptureCounter_CONTROL &= CrankTriggerCaptureCounter_CTRL_ENABLE;
  51:Generated_Source\PSoC5/CrankTriggerCaptureCounter.c ****             
  52:Generated_Source\PSoC5/CrankTriggerCaptureCounter.c ****             /* Clear the mode bits for continuous run mode */
  53:Generated_Source\PSoC5/CrankTriggerCaptureCounter.c ****             #if (CY_PSOC5A)
  54:Generated_Source\PSoC5/CrankTriggerCaptureCounter.c ****                 CrankTriggerCaptureCounter_CONTROL2 &= ((uint8)(~CrankTriggerCaptureCounter_CTRL_MO
  55:Generated_Source\PSoC5/CrankTriggerCaptureCounter.c ****             #endif /* (CY_PSOC5A) */
  56:Generated_Source\PSoC5/CrankTriggerCaptureCounter.c ****             #if (CY_PSOC3 || CY_PSOC5LP)
  57:Generated_Source\PSoC5/CrankTriggerCaptureCounter.c ****                 CrankTriggerCaptureCounter_CONTROL3 &= ((uint8)(~CrankTriggerCaptureCounter_CTRL_MO
  58:Generated_Source\PSoC5/CrankTriggerCaptureCounter.c ****             #endif /* (CY_PSOC3 || CY_PSOC5LP) */
  59:Generated_Source\PSoC5/CrankTriggerCaptureCounter.c ****             /* Check if One Shot mode is enabled i.e. RunMode !=0*/
  60:Generated_Source\PSoC5/CrankTriggerCaptureCounter.c ****             #if (CrankTriggerCaptureCounter_RunModeUsed != 0x0u)
  61:Generated_Source\PSoC5/CrankTriggerCaptureCounter.c ****                 /* Set 3rd bit of Control register to enable one shot mode */
  62:Generated_Source\PSoC5/CrankTriggerCaptureCounter.c ****                 CrankTriggerCaptureCounter_CONTROL |= CrankTriggerCaptureCounter_ONESHOT;
  63:Generated_Source\PSoC5/CrankTriggerCaptureCounter.c ****             #endif /* (CrankTriggerCaptureCounter_RunModeUsed != 0x0u) */
  64:Generated_Source\PSoC5/CrankTriggerCaptureCounter.c ****             
  65:Generated_Source\PSoC5/CrankTriggerCaptureCounter.c ****             /* Set the IRQ to use the status register interrupts */
  66:Generated_Source\PSoC5/CrankTriggerCaptureCounter.c ****             CrankTriggerCaptureCounter_CONTROL2 |= CrankTriggerCaptureCounter_CTRL2_IRQ_SEL;
  67:Generated_Source\PSoC5/CrankTriggerCaptureCounter.c ****             
  68:Generated_Source\PSoC5/CrankTriggerCaptureCounter.c ****             /* Clear and Set SYNCTC and SYNCCMP bits of RT1 register */
  69:Generated_Source\PSoC5/CrankTriggerCaptureCounter.c ****             CrankTriggerCaptureCounter_RT1 &= ((uint8)(~CrankTriggerCaptureCounter_RT1_MASK));
  70:Generated_Source\PSoC5/CrankTriggerCaptureCounter.c ****             CrankTriggerCaptureCounter_RT1 |= CrankTriggerCaptureCounter_SYNC;     
  71:Generated_Source\PSoC5/CrankTriggerCaptureCounter.c ****                     
  72:Generated_Source\PSoC5/CrankTriggerCaptureCounter.c ****             /*Enable DSI Sync all all inputs of the Timer*/
  73:Generated_Source\PSoC5/CrankTriggerCaptureCounter.c ****             CrankTriggerCaptureCounter_RT1 &= ((uint8)(~CrankTriggerCaptureCounter_SYNCDSI_MASK));
  74:Generated_Source\PSoC5/CrankTriggerCaptureCounter.c ****             CrankTriggerCaptureCounter_RT1 |= CrankTriggerCaptureCounter_SYNCDSI_EN;
ARM GAS  C:\Users\Bruger\AppData\Local\Temp\cc6AEA3I.s 			page 48


  75:Generated_Source\PSoC5/CrankTriggerCaptureCounter.c **** 
  76:Generated_Source\PSoC5/CrankTriggerCaptureCounter.c ****         #else
  77:Generated_Source\PSoC5/CrankTriggerCaptureCounter.c ****             #if(!CrankTriggerCaptureCounter_ControlRegRemoved)
  78:Generated_Source\PSoC5/CrankTriggerCaptureCounter.c ****             /* Set the default compare mode defined in the parameter */
  79:Generated_Source\PSoC5/CrankTriggerCaptureCounter.c ****             ctrl = CrankTriggerCaptureCounter_CONTROL & ((uint8)(~CrankTriggerCaptureCounter_CTRL_C
 627              		.loc 1 79 0
 628 0002 1849     		ldr	r1, .L11
 629              	.LBB40:
 630              	.LBB41:
 631              	.LBB42:
 632              	.LBB43:
  80:Generated_Source\PSoC5/CrankTriggerCaptureCounter.c ****             CrankTriggerCaptureCounter_CONTROL = ctrl | CrankTriggerCaptureCounter_DEFAULT_COMPARE_
  81:Generated_Source\PSoC5/CrankTriggerCaptureCounter.c ****             
  82:Generated_Source\PSoC5/CrankTriggerCaptureCounter.c ****             /* Set the default capture mode defined in the parameter */
  83:Generated_Source\PSoC5/CrankTriggerCaptureCounter.c ****             ctrl = CrankTriggerCaptureCounter_CONTROL & ((uint8)(~CrankTriggerCaptureCounter_CTRL_C
  84:Generated_Source\PSoC5/CrankTriggerCaptureCounter.c ****             
  85:Generated_Source\PSoC5/CrankTriggerCaptureCounter.c ****             #if( 0 != CrankTriggerCaptureCounter_CAPTURE_MODE_CONF)
  86:Generated_Source\PSoC5/CrankTriggerCaptureCounter.c ****                 CrankTriggerCaptureCounter_CONTROL = ctrl | CrankTriggerCaptureCounter_DEFAULT_CAPT
  87:Generated_Source\PSoC5/CrankTriggerCaptureCounter.c ****             #else
  88:Generated_Source\PSoC5/CrankTriggerCaptureCounter.c ****                 CrankTriggerCaptureCounter_CONTROL = ctrl;
  89:Generated_Source\PSoC5/CrankTriggerCaptureCounter.c ****             #endif /* 0 != CrankTriggerCaptureCounter_CAPTURE_MODE */ 
  90:Generated_Source\PSoC5/CrankTriggerCaptureCounter.c ****             
  91:Generated_Source\PSoC5/CrankTriggerCaptureCounter.c ****             #endif /* (!CrankTriggerCaptureCounter_ControlRegRemoved) */
  92:Generated_Source\PSoC5/CrankTriggerCaptureCounter.c ****         #endif /* (CrankTriggerCaptureCounter_UsingFixedFunction) */
  93:Generated_Source\PSoC5/CrankTriggerCaptureCounter.c ****         
  94:Generated_Source\PSoC5/CrankTriggerCaptureCounter.c ****         /* Clear all data in the FIFO's */
  95:Generated_Source\PSoC5/CrankTriggerCaptureCounter.c ****         #if (!CrankTriggerCaptureCounter_UsingFixedFunction)
  96:Generated_Source\PSoC5/CrankTriggerCaptureCounter.c ****             CrankTriggerCaptureCounter_ClearFIFO();
  97:Generated_Source\PSoC5/CrankTriggerCaptureCounter.c ****         #endif /* (!CrankTriggerCaptureCounter_UsingFixedFunction) */
  98:Generated_Source\PSoC5/CrankTriggerCaptureCounter.c ****         
  99:Generated_Source\PSoC5/CrankTriggerCaptureCounter.c ****         /* Set Initial values from Configuration */
 100:Generated_Source\PSoC5/CrankTriggerCaptureCounter.c ****         CrankTriggerCaptureCounter_WritePeriod(CrankTriggerCaptureCounter_INIT_PERIOD_VALUE);
 101:Generated_Source\PSoC5/CrankTriggerCaptureCounter.c ****         #if (!(CrankTriggerCaptureCounter_UsingFixedFunction && (CY_PSOC5A)))
 102:Generated_Source\PSoC5/CrankTriggerCaptureCounter.c ****             CrankTriggerCaptureCounter_WriteCounter(CrankTriggerCaptureCounter_INIT_COUNTER_VALUE);
 103:Generated_Source\PSoC5/CrankTriggerCaptureCounter.c ****         #endif /* (!(CrankTriggerCaptureCounter_UsingFixedFunction && (CY_PSOC5A))) */
 104:Generated_Source\PSoC5/CrankTriggerCaptureCounter.c ****         CrankTriggerCaptureCounter_SetInterruptMode(CrankTriggerCaptureCounter_INIT_INTERRUPTS_MASK
 105:Generated_Source\PSoC5/CrankTriggerCaptureCounter.c ****         
 106:Generated_Source\PSoC5/CrankTriggerCaptureCounter.c ****         #if (!CrankTriggerCaptureCounter_UsingFixedFunction)
 107:Generated_Source\PSoC5/CrankTriggerCaptureCounter.c ****             /* Read the status register to clear the unwanted interrupts */
 108:Generated_Source\PSoC5/CrankTriggerCaptureCounter.c ****             (void)CrankTriggerCaptureCounter_ReadStatusRegister();
 109:Generated_Source\PSoC5/CrankTriggerCaptureCounter.c ****             /* Set the compare value (only available to non-fixed function implementation */
 110:Generated_Source\PSoC5/CrankTriggerCaptureCounter.c ****             CrankTriggerCaptureCounter_WriteCompare(CrankTriggerCaptureCounter_INIT_COMPARE_VALUE);
 111:Generated_Source\PSoC5/CrankTriggerCaptureCounter.c ****             /* Use the interrupt output of the status register for IRQ output */
 112:Generated_Source\PSoC5/CrankTriggerCaptureCounter.c ****             
 113:Generated_Source\PSoC5/CrankTriggerCaptureCounter.c ****             /* CyEnterCriticalRegion and CyExitCriticalRegion are used to mark following region cri
 114:Generated_Source\PSoC5/CrankTriggerCaptureCounter.c ****             /* Enter Critical Region*/
 115:Generated_Source\PSoC5/CrankTriggerCaptureCounter.c ****             CrankTriggerCaptureCounter_interruptState = CyEnterCriticalSection();
 116:Generated_Source\PSoC5/CrankTriggerCaptureCounter.c ****             
 117:Generated_Source\PSoC5/CrankTriggerCaptureCounter.c ****             CrankTriggerCaptureCounter_STATUS_AUX_CTRL |= CrankTriggerCaptureCounter_STATUS_ACTL_IN
 118:Generated_Source\PSoC5/CrankTriggerCaptureCounter.c ****             
 119:Generated_Source\PSoC5/CrankTriggerCaptureCounter.c ****             /* Exit Critical Region*/
 120:Generated_Source\PSoC5/CrankTriggerCaptureCounter.c ****             CyExitCriticalSection(CrankTriggerCaptureCounter_interruptState);
 121:Generated_Source\PSoC5/CrankTriggerCaptureCounter.c ****             
 122:Generated_Source\PSoC5/CrankTriggerCaptureCounter.c ****         #endif /* (!CrankTriggerCaptureCounter_UsingFixedFunction) */
 123:Generated_Source\PSoC5/CrankTriggerCaptureCounter.c **** }
 124:Generated_Source\PSoC5/CrankTriggerCaptureCounter.c **** 
 125:Generated_Source\PSoC5/CrankTriggerCaptureCounter.c **** 
ARM GAS  C:\Users\Bruger\AppData\Local\Temp\cc6AEA3I.s 			page 49


 126:Generated_Source\PSoC5/CrankTriggerCaptureCounter.c **** /*******************************************************************************
 127:Generated_Source\PSoC5/CrankTriggerCaptureCounter.c **** * Function Name: CrankTriggerCaptureCounter_Enable
 128:Generated_Source\PSoC5/CrankTriggerCaptureCounter.c **** ********************************************************************************
 129:Generated_Source\PSoC5/CrankTriggerCaptureCounter.c **** * Summary:
 130:Generated_Source\PSoC5/CrankTriggerCaptureCounter.c **** *     Enable the Counter
 131:Generated_Source\PSoC5/CrankTriggerCaptureCounter.c **** * 
 132:Generated_Source\PSoC5/CrankTriggerCaptureCounter.c **** * Parameters:  
 133:Generated_Source\PSoC5/CrankTriggerCaptureCounter.c **** *  void  
 134:Generated_Source\PSoC5/CrankTriggerCaptureCounter.c **** *
 135:Generated_Source\PSoC5/CrankTriggerCaptureCounter.c **** * Return: 
 136:Generated_Source\PSoC5/CrankTriggerCaptureCounter.c **** *  void
 137:Generated_Source\PSoC5/CrankTriggerCaptureCounter.c **** *
 138:Generated_Source\PSoC5/CrankTriggerCaptureCounter.c **** * Side Effects: 
 139:Generated_Source\PSoC5/CrankTriggerCaptureCounter.c **** *   If the Enable mode is set to Hardware only then this function has no effect 
 140:Generated_Source\PSoC5/CrankTriggerCaptureCounter.c **** *   on the operation of the counter.
 141:Generated_Source\PSoC5/CrankTriggerCaptureCounter.c **** *
 142:Generated_Source\PSoC5/CrankTriggerCaptureCounter.c **** *******************************************************************************/
 143:Generated_Source\PSoC5/CrankTriggerCaptureCounter.c **** void CrankTriggerCaptureCounter_Enable(void) 
 144:Generated_Source\PSoC5/CrankTriggerCaptureCounter.c **** {
 145:Generated_Source\PSoC5/CrankTriggerCaptureCounter.c ****     /* Globally Enable the Fixed Function Block chosen */
 146:Generated_Source\PSoC5/CrankTriggerCaptureCounter.c ****     #if (CrankTriggerCaptureCounter_UsingFixedFunction)
 147:Generated_Source\PSoC5/CrankTriggerCaptureCounter.c ****         CrankTriggerCaptureCounter_GLOBAL_ENABLE |= CrankTriggerCaptureCounter_BLOCK_EN_MASK;
 148:Generated_Source\PSoC5/CrankTriggerCaptureCounter.c ****         CrankTriggerCaptureCounter_GLOBAL_STBY_ENABLE |= CrankTriggerCaptureCounter_BLOCK_STBY_EN_M
 149:Generated_Source\PSoC5/CrankTriggerCaptureCounter.c ****     #endif /* (CrankTriggerCaptureCounter_UsingFixedFunction) */  
 150:Generated_Source\PSoC5/CrankTriggerCaptureCounter.c ****         
 151:Generated_Source\PSoC5/CrankTriggerCaptureCounter.c ****     /* Enable the counter from the control register  */
 152:Generated_Source\PSoC5/CrankTriggerCaptureCounter.c ****     /* If Fixed Function then make sure Mode is set correctly */
 153:Generated_Source\PSoC5/CrankTriggerCaptureCounter.c ****     /* else make sure reset is clear */
 154:Generated_Source\PSoC5/CrankTriggerCaptureCounter.c ****     #if(!CrankTriggerCaptureCounter_ControlRegRemoved || CrankTriggerCaptureCounter_UsingFixedFunct
 155:Generated_Source\PSoC5/CrankTriggerCaptureCounter.c ****         CrankTriggerCaptureCounter_CONTROL |= CrankTriggerCaptureCounter_CTRL_ENABLE;              
 156:Generated_Source\PSoC5/CrankTriggerCaptureCounter.c ****     #endif /* (!CrankTriggerCaptureCounter_ControlRegRemoved || CrankTriggerCaptureCounter_UsingFix
 157:Generated_Source\PSoC5/CrankTriggerCaptureCounter.c ****     
 158:Generated_Source\PSoC5/CrankTriggerCaptureCounter.c **** }
 159:Generated_Source\PSoC5/CrankTriggerCaptureCounter.c **** 
 160:Generated_Source\PSoC5/CrankTriggerCaptureCounter.c **** 
 161:Generated_Source\PSoC5/CrankTriggerCaptureCounter.c **** /*******************************************************************************
 162:Generated_Source\PSoC5/CrankTriggerCaptureCounter.c **** * Function Name: CrankTriggerCaptureCounter_Start
 163:Generated_Source\PSoC5/CrankTriggerCaptureCounter.c **** ********************************************************************************
 164:Generated_Source\PSoC5/CrankTriggerCaptureCounter.c **** * Summary:
 165:Generated_Source\PSoC5/CrankTriggerCaptureCounter.c **** *  Enables the counter for operation 
 166:Generated_Source\PSoC5/CrankTriggerCaptureCounter.c **** *
 167:Generated_Source\PSoC5/CrankTriggerCaptureCounter.c **** * Parameters:  
 168:Generated_Source\PSoC5/CrankTriggerCaptureCounter.c **** *  void  
 169:Generated_Source\PSoC5/CrankTriggerCaptureCounter.c **** *
 170:Generated_Source\PSoC5/CrankTriggerCaptureCounter.c **** * Return: 
 171:Generated_Source\PSoC5/CrankTriggerCaptureCounter.c **** *  void
 172:Generated_Source\PSoC5/CrankTriggerCaptureCounter.c **** *
 173:Generated_Source\PSoC5/CrankTriggerCaptureCounter.c **** * Global variables:
 174:Generated_Source\PSoC5/CrankTriggerCaptureCounter.c **** *  CrankTriggerCaptureCounter_initVar: Is modified when this function is called for the  
 175:Generated_Source\PSoC5/CrankTriggerCaptureCounter.c **** *   first time. Is used to ensure that initialization happens only once.
 176:Generated_Source\PSoC5/CrankTriggerCaptureCounter.c **** *
 177:Generated_Source\PSoC5/CrankTriggerCaptureCounter.c **** *******************************************************************************/
 178:Generated_Source\PSoC5/CrankTriggerCaptureCounter.c **** void CrankTriggerCaptureCounter_Start(void) 
 179:Generated_Source\PSoC5/CrankTriggerCaptureCounter.c **** {
 180:Generated_Source\PSoC5/CrankTriggerCaptureCounter.c ****     if(CrankTriggerCaptureCounter_initVar == 0u)
 181:Generated_Source\PSoC5/CrankTriggerCaptureCounter.c ****     {
 182:Generated_Source\PSoC5/CrankTriggerCaptureCounter.c ****         CrankTriggerCaptureCounter_Init();
ARM GAS  C:\Users\Bruger\AppData\Local\Temp\cc6AEA3I.s 			page 50


 183:Generated_Source\PSoC5/CrankTriggerCaptureCounter.c ****         
 184:Generated_Source\PSoC5/CrankTriggerCaptureCounter.c ****         CrankTriggerCaptureCounter_initVar = 1u; /* Clear this bit for Initialization */        
 185:Generated_Source\PSoC5/CrankTriggerCaptureCounter.c ****     }
 186:Generated_Source\PSoC5/CrankTriggerCaptureCounter.c ****     
 187:Generated_Source\PSoC5/CrankTriggerCaptureCounter.c ****     /* Enable the Counter */
 188:Generated_Source\PSoC5/CrankTriggerCaptureCounter.c ****     CrankTriggerCaptureCounter_Enable();        
 189:Generated_Source\PSoC5/CrankTriggerCaptureCounter.c **** }
 190:Generated_Source\PSoC5/CrankTriggerCaptureCounter.c **** 
 191:Generated_Source\PSoC5/CrankTriggerCaptureCounter.c **** 
 192:Generated_Source\PSoC5/CrankTriggerCaptureCounter.c **** /*******************************************************************************
 193:Generated_Source\PSoC5/CrankTriggerCaptureCounter.c **** * Function Name: CrankTriggerCaptureCounter_Stop
 194:Generated_Source\PSoC5/CrankTriggerCaptureCounter.c **** ********************************************************************************
 195:Generated_Source\PSoC5/CrankTriggerCaptureCounter.c **** * Summary:
 196:Generated_Source\PSoC5/CrankTriggerCaptureCounter.c **** * Halts the counter, but does not change any modes or disable interrupts.
 197:Generated_Source\PSoC5/CrankTriggerCaptureCounter.c **** *
 198:Generated_Source\PSoC5/CrankTriggerCaptureCounter.c **** * Parameters:  
 199:Generated_Source\PSoC5/CrankTriggerCaptureCounter.c **** *  void  
 200:Generated_Source\PSoC5/CrankTriggerCaptureCounter.c **** *
 201:Generated_Source\PSoC5/CrankTriggerCaptureCounter.c **** * Return: 
 202:Generated_Source\PSoC5/CrankTriggerCaptureCounter.c **** *  void
 203:Generated_Source\PSoC5/CrankTriggerCaptureCounter.c **** *
 204:Generated_Source\PSoC5/CrankTriggerCaptureCounter.c **** * Side Effects: If the Enable mode is set to Hardware only then this function
 205:Generated_Source\PSoC5/CrankTriggerCaptureCounter.c **** *               has no effect on the operation of the counter.
 206:Generated_Source\PSoC5/CrankTriggerCaptureCounter.c **** *
 207:Generated_Source\PSoC5/CrankTriggerCaptureCounter.c **** *******************************************************************************/
 208:Generated_Source\PSoC5/CrankTriggerCaptureCounter.c **** void CrankTriggerCaptureCounter_Stop(void) 
 209:Generated_Source\PSoC5/CrankTriggerCaptureCounter.c **** {
 210:Generated_Source\PSoC5/CrankTriggerCaptureCounter.c ****     /* Disable Counter */
 211:Generated_Source\PSoC5/CrankTriggerCaptureCounter.c ****     #if(!CrankTriggerCaptureCounter_ControlRegRemoved || CrankTriggerCaptureCounter_UsingFixedFunct
 212:Generated_Source\PSoC5/CrankTriggerCaptureCounter.c ****         CrankTriggerCaptureCounter_CONTROL &= ((uint8)(~CrankTriggerCaptureCounter_CTRL_ENABLE));  
 213:Generated_Source\PSoC5/CrankTriggerCaptureCounter.c ****     #endif /* (!CrankTriggerCaptureCounter_ControlRegRemoved || CrankTriggerCaptureCounter_UsingFix
 214:Generated_Source\PSoC5/CrankTriggerCaptureCounter.c ****     
 215:Generated_Source\PSoC5/CrankTriggerCaptureCounter.c ****     /* Globally disable the Fixed Function Block chosen */
 216:Generated_Source\PSoC5/CrankTriggerCaptureCounter.c ****     #if (CrankTriggerCaptureCounter_UsingFixedFunction)
 217:Generated_Source\PSoC5/CrankTriggerCaptureCounter.c ****         CrankTriggerCaptureCounter_GLOBAL_ENABLE &= ((uint8)(~CrankTriggerCaptureCounter_BLOCK_EN_M
 218:Generated_Source\PSoC5/CrankTriggerCaptureCounter.c ****         CrankTriggerCaptureCounter_GLOBAL_STBY_ENABLE &= ((uint8)(~CrankTriggerCaptureCounter_BLOCK
 219:Generated_Source\PSoC5/CrankTriggerCaptureCounter.c ****     #endif /* (CrankTriggerCaptureCounter_UsingFixedFunction) */
 220:Generated_Source\PSoC5/CrankTriggerCaptureCounter.c **** }
 221:Generated_Source\PSoC5/CrankTriggerCaptureCounter.c **** 
 222:Generated_Source\PSoC5/CrankTriggerCaptureCounter.c **** 
 223:Generated_Source\PSoC5/CrankTriggerCaptureCounter.c **** /*******************************************************************************
 224:Generated_Source\PSoC5/CrankTriggerCaptureCounter.c **** * Function Name: CrankTriggerCaptureCounter_SetInterruptMode
 225:Generated_Source\PSoC5/CrankTriggerCaptureCounter.c **** ********************************************************************************
 226:Generated_Source\PSoC5/CrankTriggerCaptureCounter.c **** * Summary:
 227:Generated_Source\PSoC5/CrankTriggerCaptureCounter.c **** * Configures which interrupt sources are enabled to generate the final interrupt
 228:Generated_Source\PSoC5/CrankTriggerCaptureCounter.c **** *
 229:Generated_Source\PSoC5/CrankTriggerCaptureCounter.c **** * Parameters:  
 230:Generated_Source\PSoC5/CrankTriggerCaptureCounter.c **** *  InterruptsMask: This parameter is an or'd collection of the status bits
 231:Generated_Source\PSoC5/CrankTriggerCaptureCounter.c **** *                   which will be allowed to generate the counters interrupt.   
 232:Generated_Source\PSoC5/CrankTriggerCaptureCounter.c **** *
 233:Generated_Source\PSoC5/CrankTriggerCaptureCounter.c **** * Return: 
 234:Generated_Source\PSoC5/CrankTriggerCaptureCounter.c **** *  void
 235:Generated_Source\PSoC5/CrankTriggerCaptureCounter.c **** *
 236:Generated_Source\PSoC5/CrankTriggerCaptureCounter.c **** *******************************************************************************/
 237:Generated_Source\PSoC5/CrankTriggerCaptureCounter.c **** void CrankTriggerCaptureCounter_SetInterruptMode(uint8 interruptsMask) 
 238:Generated_Source\PSoC5/CrankTriggerCaptureCounter.c **** {
 239:Generated_Source\PSoC5/CrankTriggerCaptureCounter.c ****     CrankTriggerCaptureCounter_STATUS_MASK = interruptsMask;
ARM GAS  C:\Users\Bruger\AppData\Local\Temp\cc6AEA3I.s 			page 51


 240:Generated_Source\PSoC5/CrankTriggerCaptureCounter.c **** }
 241:Generated_Source\PSoC5/CrankTriggerCaptureCounter.c **** 
 242:Generated_Source\PSoC5/CrankTriggerCaptureCounter.c **** 
 243:Generated_Source\PSoC5/CrankTriggerCaptureCounter.c **** /*******************************************************************************
 244:Generated_Source\PSoC5/CrankTriggerCaptureCounter.c **** * Function Name: CrankTriggerCaptureCounter_ReadStatusRegister
 245:Generated_Source\PSoC5/CrankTriggerCaptureCounter.c **** ********************************************************************************
 246:Generated_Source\PSoC5/CrankTriggerCaptureCounter.c **** * Summary:
 247:Generated_Source\PSoC5/CrankTriggerCaptureCounter.c **** *   Reads the status register and returns it's state. This function should use
 248:Generated_Source\PSoC5/CrankTriggerCaptureCounter.c **** *       defined types for the bit-field information as the bits in this
 249:Generated_Source\PSoC5/CrankTriggerCaptureCounter.c **** *       register may be permuteable.
 250:Generated_Source\PSoC5/CrankTriggerCaptureCounter.c **** *
 251:Generated_Source\PSoC5/CrankTriggerCaptureCounter.c **** * Parameters:  
 252:Generated_Source\PSoC5/CrankTriggerCaptureCounter.c **** *  void
 253:Generated_Source\PSoC5/CrankTriggerCaptureCounter.c **** *
 254:Generated_Source\PSoC5/CrankTriggerCaptureCounter.c **** * Return: 
 255:Generated_Source\PSoC5/CrankTriggerCaptureCounter.c **** *  (uint8) The contents of the status register
 256:Generated_Source\PSoC5/CrankTriggerCaptureCounter.c **** *
 257:Generated_Source\PSoC5/CrankTriggerCaptureCounter.c **** * Side Effects:
 258:Generated_Source\PSoC5/CrankTriggerCaptureCounter.c **** *   Status register bits may be clear on read. 
 259:Generated_Source\PSoC5/CrankTriggerCaptureCounter.c **** *
 260:Generated_Source\PSoC5/CrankTriggerCaptureCounter.c **** *******************************************************************************/
 261:Generated_Source\PSoC5/CrankTriggerCaptureCounter.c **** uint8   CrankTriggerCaptureCounter_ReadStatusRegister(void) 
 262:Generated_Source\PSoC5/CrankTriggerCaptureCounter.c **** {
 263:Generated_Source\PSoC5/CrankTriggerCaptureCounter.c ****     return CrankTriggerCaptureCounter_STATUS;
 633              		.loc 1 263 0
 634 0004 184A     		ldr	r2, .L11+4
 635              	.LBE43:
 636              	.LBE42:
 637              	.LBE41:
 638              	.LBE40:
  79:Generated_Source\PSoC5/CrankTriggerCaptureCounter.c ****             CrankTriggerCaptureCounter_CONTROL = ctrl | CrankTriggerCaptureCounter_DEFAULT_COMPARE_
 639              		.loc 1 79 0
 640 0006 0B78     		ldrb	r3, [r1]	@ zero_extendqisi2
 641              	.LVL0:
 642 0008 03F0F803 		and	r3, r3, #248
 643              	.LVL1:
  80:Generated_Source\PSoC5/CrankTriggerCaptureCounter.c ****             CrankTriggerCaptureCounter_CONTROL = ctrl | CrankTriggerCaptureCounter_DEFAULT_COMPARE_
 644              		.loc 1 80 0
 645 000c 43F00303 		orr	r3, r3, #3
 646 0010 0B70     		strb	r3, [r1]
  83:Generated_Source\PSoC5/CrankTriggerCaptureCounter.c ****             
 647              		.loc 1 83 0
 648 0012 0B78     		ldrb	r3, [r1]	@ zero_extendqisi2
 649              	.LVL2:
 650 0014 03F0FC03 		and	r3, r3, #252
 651              	.LVL3:
  86:Generated_Source\PSoC5/CrankTriggerCaptureCounter.c ****             #else
 652              		.loc 1 86 0
 653 0018 43F00803 		orr	r3, r3, #8
 654 001c 0B70     		strb	r3, [r1]
 655              	.LBB51:
 656              	.LBB50:
 657              	.LBB46:
 658              	.LBB44:
 659              		.loc 1 263 0
 660 001e 1378     		ldrb	r3, [r2]	@ zero_extendqisi2
 661              	.LBE44:
ARM GAS  C:\Users\Bruger\AppData\Local\Temp\cc6AEA3I.s 			page 52


 662              	.LBE46:
 264:Generated_Source\PSoC5/CrankTriggerCaptureCounter.c **** }
 265:Generated_Source\PSoC5/CrankTriggerCaptureCounter.c **** 
 266:Generated_Source\PSoC5/CrankTriggerCaptureCounter.c **** 
 267:Generated_Source\PSoC5/CrankTriggerCaptureCounter.c **** #if(!CrankTriggerCaptureCounter_ControlRegRemoved)
 268:Generated_Source\PSoC5/CrankTriggerCaptureCounter.c **** /*******************************************************************************
 269:Generated_Source\PSoC5/CrankTriggerCaptureCounter.c **** * Function Name: CrankTriggerCaptureCounter_ReadControlRegister
 270:Generated_Source\PSoC5/CrankTriggerCaptureCounter.c **** ********************************************************************************
 271:Generated_Source\PSoC5/CrankTriggerCaptureCounter.c **** * Summary:
 272:Generated_Source\PSoC5/CrankTriggerCaptureCounter.c **** *   Reads the control register and returns it's state. This function should use
 273:Generated_Source\PSoC5/CrankTriggerCaptureCounter.c **** *       defined types for the bit-field information as the bits in this
 274:Generated_Source\PSoC5/CrankTriggerCaptureCounter.c **** *       register may be permuteable.
 275:Generated_Source\PSoC5/CrankTriggerCaptureCounter.c **** *
 276:Generated_Source\PSoC5/CrankTriggerCaptureCounter.c **** * Parameters:  
 277:Generated_Source\PSoC5/CrankTriggerCaptureCounter.c **** *  void
 278:Generated_Source\PSoC5/CrankTriggerCaptureCounter.c **** *
 279:Generated_Source\PSoC5/CrankTriggerCaptureCounter.c **** * Return: 
 280:Generated_Source\PSoC5/CrankTriggerCaptureCounter.c **** *  (uint8) The contents of the control register
 281:Generated_Source\PSoC5/CrankTriggerCaptureCounter.c **** *
 282:Generated_Source\PSoC5/CrankTriggerCaptureCounter.c **** *******************************************************************************/
 283:Generated_Source\PSoC5/CrankTriggerCaptureCounter.c **** uint8   CrankTriggerCaptureCounter_ReadControlRegister(void) 
 284:Generated_Source\PSoC5/CrankTriggerCaptureCounter.c **** {
 285:Generated_Source\PSoC5/CrankTriggerCaptureCounter.c ****     return CrankTriggerCaptureCounter_CONTROL;
 286:Generated_Source\PSoC5/CrankTriggerCaptureCounter.c **** }
 287:Generated_Source\PSoC5/CrankTriggerCaptureCounter.c **** 
 288:Generated_Source\PSoC5/CrankTriggerCaptureCounter.c **** 
 289:Generated_Source\PSoC5/CrankTriggerCaptureCounter.c **** /*******************************************************************************
 290:Generated_Source\PSoC5/CrankTriggerCaptureCounter.c **** * Function Name: CrankTriggerCaptureCounter_WriteControlRegister
 291:Generated_Source\PSoC5/CrankTriggerCaptureCounter.c **** ********************************************************************************
 292:Generated_Source\PSoC5/CrankTriggerCaptureCounter.c **** * Summary:
 293:Generated_Source\PSoC5/CrankTriggerCaptureCounter.c **** *   Sets the bit-field of the control register.  This function should use
 294:Generated_Source\PSoC5/CrankTriggerCaptureCounter.c **** *       defined types for the bit-field information as the bits in this
 295:Generated_Source\PSoC5/CrankTriggerCaptureCounter.c **** *       register may be permuteable.
 296:Generated_Source\PSoC5/CrankTriggerCaptureCounter.c **** *
 297:Generated_Source\PSoC5/CrankTriggerCaptureCounter.c **** * Parameters:  
 298:Generated_Source\PSoC5/CrankTriggerCaptureCounter.c **** *  void
 299:Generated_Source\PSoC5/CrankTriggerCaptureCounter.c **** *
 300:Generated_Source\PSoC5/CrankTriggerCaptureCounter.c **** * Return: 
 301:Generated_Source\PSoC5/CrankTriggerCaptureCounter.c **** *  (uint8) The contents of the control register
 302:Generated_Source\PSoC5/CrankTriggerCaptureCounter.c **** *
 303:Generated_Source\PSoC5/CrankTriggerCaptureCounter.c **** *******************************************************************************/
 304:Generated_Source\PSoC5/CrankTriggerCaptureCounter.c **** void    CrankTriggerCaptureCounter_WriteControlRegister(uint8 control) 
 305:Generated_Source\PSoC5/CrankTriggerCaptureCounter.c **** {
 306:Generated_Source\PSoC5/CrankTriggerCaptureCounter.c ****     CrankTriggerCaptureCounter_CONTROL = control;
 307:Generated_Source\PSoC5/CrankTriggerCaptureCounter.c **** }
 308:Generated_Source\PSoC5/CrankTriggerCaptureCounter.c **** 
 309:Generated_Source\PSoC5/CrankTriggerCaptureCounter.c **** #endif  /* (!CrankTriggerCaptureCounter_ControlRegRemoved) */
 310:Generated_Source\PSoC5/CrankTriggerCaptureCounter.c **** 
 311:Generated_Source\PSoC5/CrankTriggerCaptureCounter.c **** 
 312:Generated_Source\PSoC5/CrankTriggerCaptureCounter.c **** #if (!(CrankTriggerCaptureCounter_UsingFixedFunction && (CY_PSOC5A)))
 313:Generated_Source\PSoC5/CrankTriggerCaptureCounter.c **** /*******************************************************************************
 314:Generated_Source\PSoC5/CrankTriggerCaptureCounter.c **** * Function Name: CrankTriggerCaptureCounter_WriteCounter
 315:Generated_Source\PSoC5/CrankTriggerCaptureCounter.c **** ********************************************************************************
 316:Generated_Source\PSoC5/CrankTriggerCaptureCounter.c **** * Summary:
 317:Generated_Source\PSoC5/CrankTriggerCaptureCounter.c **** *   This funtion is used to set the counter to a specific value
 318:Generated_Source\PSoC5/CrankTriggerCaptureCounter.c **** *
 319:Generated_Source\PSoC5/CrankTriggerCaptureCounter.c **** * Parameters:  
ARM GAS  C:\Users\Bruger\AppData\Local\Temp\cc6AEA3I.s 			page 53


 320:Generated_Source\PSoC5/CrankTriggerCaptureCounter.c **** *  counter:  New counter value. 
 321:Generated_Source\PSoC5/CrankTriggerCaptureCounter.c **** *
 322:Generated_Source\PSoC5/CrankTriggerCaptureCounter.c **** * Return: 
 323:Generated_Source\PSoC5/CrankTriggerCaptureCounter.c **** *  void 
 324:Generated_Source\PSoC5/CrankTriggerCaptureCounter.c **** *
 325:Generated_Source\PSoC5/CrankTriggerCaptureCounter.c **** *******************************************************************************/
 326:Generated_Source\PSoC5/CrankTriggerCaptureCounter.c **** void CrankTriggerCaptureCounter_WriteCounter(uint16 counter) \
 327:Generated_Source\PSoC5/CrankTriggerCaptureCounter.c ****                                    
 328:Generated_Source\PSoC5/CrankTriggerCaptureCounter.c **** {
 329:Generated_Source\PSoC5/CrankTriggerCaptureCounter.c ****     #if(CrankTriggerCaptureCounter_UsingFixedFunction)
 330:Generated_Source\PSoC5/CrankTriggerCaptureCounter.c ****         /* assert if block is already enabled */
 331:Generated_Source\PSoC5/CrankTriggerCaptureCounter.c ****         CYASSERT (0u == (CrankTriggerCaptureCounter_GLOBAL_ENABLE & CrankTriggerCaptureCounter_BLOC
 332:Generated_Source\PSoC5/CrankTriggerCaptureCounter.c ****         /* If block is disabled, enable it and then write the counter */
 333:Generated_Source\PSoC5/CrankTriggerCaptureCounter.c ****         CrankTriggerCaptureCounter_GLOBAL_ENABLE |= CrankTriggerCaptureCounter_BLOCK_EN_MASK;
 334:Generated_Source\PSoC5/CrankTriggerCaptureCounter.c ****         CY_SET_REG16(CrankTriggerCaptureCounter_COUNTER_LSB_PTR, (uint16)counter);
 335:Generated_Source\PSoC5/CrankTriggerCaptureCounter.c ****         CrankTriggerCaptureCounter_GLOBAL_ENABLE &= ((uint8)(~CrankTriggerCaptureCounter_BLOCK_EN_M
 336:Generated_Source\PSoC5/CrankTriggerCaptureCounter.c ****     #else
 337:Generated_Source\PSoC5/CrankTriggerCaptureCounter.c ****         CY_SET_REG16(CrankTriggerCaptureCounter_COUNTER_LSB_PTR, counter);
 338:Generated_Source\PSoC5/CrankTriggerCaptureCounter.c ****     #endif /* (CrankTriggerCaptureCounter_UsingFixedFunction) */
 339:Generated_Source\PSoC5/CrankTriggerCaptureCounter.c **** }
 340:Generated_Source\PSoC5/CrankTriggerCaptureCounter.c **** #endif /* (!(CrankTriggerCaptureCounter_UsingFixedFunction && (CY_PSOC5A))) */
 341:Generated_Source\PSoC5/CrankTriggerCaptureCounter.c **** 
 342:Generated_Source\PSoC5/CrankTriggerCaptureCounter.c **** 
 343:Generated_Source\PSoC5/CrankTriggerCaptureCounter.c **** /*******************************************************************************
 344:Generated_Source\PSoC5/CrankTriggerCaptureCounter.c **** * Function Name: CrankTriggerCaptureCounter_ReadCounter
 345:Generated_Source\PSoC5/CrankTriggerCaptureCounter.c **** ********************************************************************************
 346:Generated_Source\PSoC5/CrankTriggerCaptureCounter.c **** * Summary:
 347:Generated_Source\PSoC5/CrankTriggerCaptureCounter.c **** * Returns the current value of the counter.  It doesn't matter
 348:Generated_Source\PSoC5/CrankTriggerCaptureCounter.c **** * if the counter is enabled or running.
 349:Generated_Source\PSoC5/CrankTriggerCaptureCounter.c **** *
 350:Generated_Source\PSoC5/CrankTriggerCaptureCounter.c **** * Parameters:  
 351:Generated_Source\PSoC5/CrankTriggerCaptureCounter.c **** *  void:  
 352:Generated_Source\PSoC5/CrankTriggerCaptureCounter.c **** *
 353:Generated_Source\PSoC5/CrankTriggerCaptureCounter.c **** * Return: 
 354:Generated_Source\PSoC5/CrankTriggerCaptureCounter.c **** *  (uint16) The present value of the counter.
 355:Generated_Source\PSoC5/CrankTriggerCaptureCounter.c **** *
 356:Generated_Source\PSoC5/CrankTriggerCaptureCounter.c **** *******************************************************************************/
 357:Generated_Source\PSoC5/CrankTriggerCaptureCounter.c **** uint16 CrankTriggerCaptureCounter_ReadCounter(void) 
 358:Generated_Source\PSoC5/CrankTriggerCaptureCounter.c **** {
 359:Generated_Source\PSoC5/CrankTriggerCaptureCounter.c ****     /* Force capture by reading Accumulator */
 360:Generated_Source\PSoC5/CrankTriggerCaptureCounter.c ****     /* Must first do a software capture to be able to read the counter */
 361:Generated_Source\PSoC5/CrankTriggerCaptureCounter.c ****     /* It is up to the user code to make sure there isn't already captured data in the FIFO */
 362:Generated_Source\PSoC5/CrankTriggerCaptureCounter.c ****     #if(CrankTriggerCaptureCounter_UsingFixedFunction)
 363:Generated_Source\PSoC5/CrankTriggerCaptureCounter.c **** 		(void)CY_GET_REG16(CrankTriggerCaptureCounter_COUNTER_LSB_PTR);
 364:Generated_Source\PSoC5/CrankTriggerCaptureCounter.c **** 	#else
 365:Generated_Source\PSoC5/CrankTriggerCaptureCounter.c **** 		(void)CY_GET_REG8(CrankTriggerCaptureCounter_COUNTER_LSB_PTR_8BIT);
 366:Generated_Source\PSoC5/CrankTriggerCaptureCounter.c **** 	#endif/* (CrankTriggerCaptureCounter_UsingFixedFunction) */
 367:Generated_Source\PSoC5/CrankTriggerCaptureCounter.c ****     
 368:Generated_Source\PSoC5/CrankTriggerCaptureCounter.c ****     /* Read the data from the FIFO (or capture register for Fixed Function)*/
 369:Generated_Source\PSoC5/CrankTriggerCaptureCounter.c ****     #if(CrankTriggerCaptureCounter_UsingFixedFunction)
 370:Generated_Source\PSoC5/CrankTriggerCaptureCounter.c ****         return ((uint16)CY_GET_REG16(CrankTriggerCaptureCounter_STATICCOUNT_LSB_PTR));
 371:Generated_Source\PSoC5/CrankTriggerCaptureCounter.c ****     #else
 372:Generated_Source\PSoC5/CrankTriggerCaptureCounter.c ****         return (CY_GET_REG16(CrankTriggerCaptureCounter_STATICCOUNT_LSB_PTR));
 373:Generated_Source\PSoC5/CrankTriggerCaptureCounter.c ****     #endif /* (CrankTriggerCaptureCounter_UsingFixedFunction) */
 374:Generated_Source\PSoC5/CrankTriggerCaptureCounter.c **** }
 375:Generated_Source\PSoC5/CrankTriggerCaptureCounter.c **** 
 376:Generated_Source\PSoC5/CrankTriggerCaptureCounter.c **** 
ARM GAS  C:\Users\Bruger\AppData\Local\Temp\cc6AEA3I.s 			page 54


 377:Generated_Source\PSoC5/CrankTriggerCaptureCounter.c **** /*******************************************************************************
 378:Generated_Source\PSoC5/CrankTriggerCaptureCounter.c **** * Function Name: CrankTriggerCaptureCounter_ReadCapture
 379:Generated_Source\PSoC5/CrankTriggerCaptureCounter.c **** ********************************************************************************
 380:Generated_Source\PSoC5/CrankTriggerCaptureCounter.c **** * Summary:
 381:Generated_Source\PSoC5/CrankTriggerCaptureCounter.c **** *   This function returns the last value captured.
 382:Generated_Source\PSoC5/CrankTriggerCaptureCounter.c **** *
 383:Generated_Source\PSoC5/CrankTriggerCaptureCounter.c **** * Parameters:  
 384:Generated_Source\PSoC5/CrankTriggerCaptureCounter.c **** *  void
 385:Generated_Source\PSoC5/CrankTriggerCaptureCounter.c **** *
 386:Generated_Source\PSoC5/CrankTriggerCaptureCounter.c **** * Return: 
 387:Generated_Source\PSoC5/CrankTriggerCaptureCounter.c **** *  (uint16) Present Capture value.
 388:Generated_Source\PSoC5/CrankTriggerCaptureCounter.c **** *
 389:Generated_Source\PSoC5/CrankTriggerCaptureCounter.c **** *******************************************************************************/
 390:Generated_Source\PSoC5/CrankTriggerCaptureCounter.c **** uint16 CrankTriggerCaptureCounter_ReadCapture(void) 
 391:Generated_Source\PSoC5/CrankTriggerCaptureCounter.c **** {
 392:Generated_Source\PSoC5/CrankTriggerCaptureCounter.c ****     #if(CrankTriggerCaptureCounter_UsingFixedFunction)
 393:Generated_Source\PSoC5/CrankTriggerCaptureCounter.c ****         return ((uint16)CY_GET_REG16(CrankTriggerCaptureCounter_STATICCOUNT_LSB_PTR));
 394:Generated_Source\PSoC5/CrankTriggerCaptureCounter.c ****     #else
 395:Generated_Source\PSoC5/CrankTriggerCaptureCounter.c ****         return (CY_GET_REG16(CrankTriggerCaptureCounter_STATICCOUNT_LSB_PTR));
 396:Generated_Source\PSoC5/CrankTriggerCaptureCounter.c ****     #endif /* (CrankTriggerCaptureCounter_UsingFixedFunction) */
 397:Generated_Source\PSoC5/CrankTriggerCaptureCounter.c **** }
 398:Generated_Source\PSoC5/CrankTriggerCaptureCounter.c **** 
 399:Generated_Source\PSoC5/CrankTriggerCaptureCounter.c **** 
 400:Generated_Source\PSoC5/CrankTriggerCaptureCounter.c **** /*******************************************************************************
 401:Generated_Source\PSoC5/CrankTriggerCaptureCounter.c **** * Function Name: CrankTriggerCaptureCounter_WritePeriod
 402:Generated_Source\PSoC5/CrankTriggerCaptureCounter.c **** ********************************************************************************
 403:Generated_Source\PSoC5/CrankTriggerCaptureCounter.c **** * Summary:
 404:Generated_Source\PSoC5/CrankTriggerCaptureCounter.c **** * Changes the period of the counter.  The new period 
 405:Generated_Source\PSoC5/CrankTriggerCaptureCounter.c **** * will be loaded the next time terminal count is detected.
 406:Generated_Source\PSoC5/CrankTriggerCaptureCounter.c **** *
 407:Generated_Source\PSoC5/CrankTriggerCaptureCounter.c **** * Parameters:  
 408:Generated_Source\PSoC5/CrankTriggerCaptureCounter.c **** *  period: (uint16) A value of 0 will result in
 409:Generated_Source\PSoC5/CrankTriggerCaptureCounter.c **** *         the counter remaining at zero.  
 410:Generated_Source\PSoC5/CrankTriggerCaptureCounter.c **** *
 411:Generated_Source\PSoC5/CrankTriggerCaptureCounter.c **** * Return: 
 412:Generated_Source\PSoC5/CrankTriggerCaptureCounter.c **** *  void
 413:Generated_Source\PSoC5/CrankTriggerCaptureCounter.c **** *
 414:Generated_Source\PSoC5/CrankTriggerCaptureCounter.c **** *******************************************************************************/
 415:Generated_Source\PSoC5/CrankTriggerCaptureCounter.c **** void CrankTriggerCaptureCounter_WritePeriod(uint16 period) 
 416:Generated_Source\PSoC5/CrankTriggerCaptureCounter.c **** {
 417:Generated_Source\PSoC5/CrankTriggerCaptureCounter.c ****     #if(CrankTriggerCaptureCounter_UsingFixedFunction)
 418:Generated_Source\PSoC5/CrankTriggerCaptureCounter.c ****         CY_SET_REG16(CrankTriggerCaptureCounter_PERIOD_LSB_PTR,(uint16)period);
 419:Generated_Source\PSoC5/CrankTriggerCaptureCounter.c ****     #else
 420:Generated_Source\PSoC5/CrankTriggerCaptureCounter.c ****         CY_SET_REG16(CrankTriggerCaptureCounter_PERIOD_LSB_PTR, period);
 421:Generated_Source\PSoC5/CrankTriggerCaptureCounter.c ****     #endif /* (CrankTriggerCaptureCounter_UsingFixedFunction) */
 422:Generated_Source\PSoC5/CrankTriggerCaptureCounter.c **** }
 423:Generated_Source\PSoC5/CrankTriggerCaptureCounter.c **** 
 424:Generated_Source\PSoC5/CrankTriggerCaptureCounter.c **** 
 425:Generated_Source\PSoC5/CrankTriggerCaptureCounter.c **** /*******************************************************************************
 426:Generated_Source\PSoC5/CrankTriggerCaptureCounter.c **** * Function Name: CrankTriggerCaptureCounter_ReadPeriod
 427:Generated_Source\PSoC5/CrankTriggerCaptureCounter.c **** ********************************************************************************
 428:Generated_Source\PSoC5/CrankTriggerCaptureCounter.c **** * Summary:
 429:Generated_Source\PSoC5/CrankTriggerCaptureCounter.c **** * Reads the current period value without affecting counter operation.
 430:Generated_Source\PSoC5/CrankTriggerCaptureCounter.c **** *
 431:Generated_Source\PSoC5/CrankTriggerCaptureCounter.c **** * Parameters:  
 432:Generated_Source\PSoC5/CrankTriggerCaptureCounter.c **** *  void:  
 433:Generated_Source\PSoC5/CrankTriggerCaptureCounter.c **** *
ARM GAS  C:\Users\Bruger\AppData\Local\Temp\cc6AEA3I.s 			page 55


 434:Generated_Source\PSoC5/CrankTriggerCaptureCounter.c **** * Return: 
 435:Generated_Source\PSoC5/CrankTriggerCaptureCounter.c **** *  (uint16) Present period value.
 436:Generated_Source\PSoC5/CrankTriggerCaptureCounter.c **** *
 437:Generated_Source\PSoC5/CrankTriggerCaptureCounter.c **** *******************************************************************************/
 438:Generated_Source\PSoC5/CrankTriggerCaptureCounter.c **** uint16 CrankTriggerCaptureCounter_ReadPeriod(void) 
 439:Generated_Source\PSoC5/CrankTriggerCaptureCounter.c **** {
 440:Generated_Source\PSoC5/CrankTriggerCaptureCounter.c ****     #if(CrankTriggerCaptureCounter_UsingFixedFunction)
 441:Generated_Source\PSoC5/CrankTriggerCaptureCounter.c ****         return ((uint16)CY_GET_REG16(CrankTriggerCaptureCounter_PERIOD_LSB_PTR));
 442:Generated_Source\PSoC5/CrankTriggerCaptureCounter.c ****     #else
 443:Generated_Source\PSoC5/CrankTriggerCaptureCounter.c ****         return (CY_GET_REG16(CrankTriggerCaptureCounter_PERIOD_LSB_PTR));
 444:Generated_Source\PSoC5/CrankTriggerCaptureCounter.c ****     #endif /* (CrankTriggerCaptureCounter_UsingFixedFunction) */
 445:Generated_Source\PSoC5/CrankTriggerCaptureCounter.c **** }
 446:Generated_Source\PSoC5/CrankTriggerCaptureCounter.c **** 
 447:Generated_Source\PSoC5/CrankTriggerCaptureCounter.c **** 
 448:Generated_Source\PSoC5/CrankTriggerCaptureCounter.c **** #if (!CrankTriggerCaptureCounter_UsingFixedFunction)
 449:Generated_Source\PSoC5/CrankTriggerCaptureCounter.c **** /*******************************************************************************
 450:Generated_Source\PSoC5/CrankTriggerCaptureCounter.c **** * Function Name: CrankTriggerCaptureCounter_WriteCompare
 451:Generated_Source\PSoC5/CrankTriggerCaptureCounter.c **** ********************************************************************************
 452:Generated_Source\PSoC5/CrankTriggerCaptureCounter.c **** * Summary:
 453:Generated_Source\PSoC5/CrankTriggerCaptureCounter.c **** * Changes the compare value.  The compare output will 
 454:Generated_Source\PSoC5/CrankTriggerCaptureCounter.c **** * reflect the new value on the next UDB clock.  The compare output will be 
 455:Generated_Source\PSoC5/CrankTriggerCaptureCounter.c **** * driven high when the present counter value compares true based on the 
 456:Generated_Source\PSoC5/CrankTriggerCaptureCounter.c **** * configured compare mode setting. 
 457:Generated_Source\PSoC5/CrankTriggerCaptureCounter.c **** *
 458:Generated_Source\PSoC5/CrankTriggerCaptureCounter.c **** * Parameters:  
 459:Generated_Source\PSoC5/CrankTriggerCaptureCounter.c **** *  Compare:  New compare value. 
 460:Generated_Source\PSoC5/CrankTriggerCaptureCounter.c **** *
 461:Generated_Source\PSoC5/CrankTriggerCaptureCounter.c **** * Return: 
 462:Generated_Source\PSoC5/CrankTriggerCaptureCounter.c **** *  void
 463:Generated_Source\PSoC5/CrankTriggerCaptureCounter.c **** *
 464:Generated_Source\PSoC5/CrankTriggerCaptureCounter.c **** *******************************************************************************/
 465:Generated_Source\PSoC5/CrankTriggerCaptureCounter.c **** void CrankTriggerCaptureCounter_WriteCompare(uint16 compare) \
 466:Generated_Source\PSoC5/CrankTriggerCaptureCounter.c ****                                    
 467:Generated_Source\PSoC5/CrankTriggerCaptureCounter.c **** {
 468:Generated_Source\PSoC5/CrankTriggerCaptureCounter.c ****     #if(CrankTriggerCaptureCounter_UsingFixedFunction)
 469:Generated_Source\PSoC5/CrankTriggerCaptureCounter.c ****         CY_SET_REG16(CrankTriggerCaptureCounter_COMPARE_LSB_PTR, (uint16)compare);
 470:Generated_Source\PSoC5/CrankTriggerCaptureCounter.c ****     #else
 471:Generated_Source\PSoC5/CrankTriggerCaptureCounter.c ****         CY_SET_REG16(CrankTriggerCaptureCounter_COMPARE_LSB_PTR, compare);
 472:Generated_Source\PSoC5/CrankTriggerCaptureCounter.c ****     #endif /* (CrankTriggerCaptureCounter_UsingFixedFunction) */
 473:Generated_Source\PSoC5/CrankTriggerCaptureCounter.c **** }
 474:Generated_Source\PSoC5/CrankTriggerCaptureCounter.c **** 
 475:Generated_Source\PSoC5/CrankTriggerCaptureCounter.c **** 
 476:Generated_Source\PSoC5/CrankTriggerCaptureCounter.c **** /*******************************************************************************
 477:Generated_Source\PSoC5/CrankTriggerCaptureCounter.c **** * Function Name: CrankTriggerCaptureCounter_ReadCompare
 478:Generated_Source\PSoC5/CrankTriggerCaptureCounter.c **** ********************************************************************************
 479:Generated_Source\PSoC5/CrankTriggerCaptureCounter.c **** * Summary:
 480:Generated_Source\PSoC5/CrankTriggerCaptureCounter.c **** * Returns the compare value.
 481:Generated_Source\PSoC5/CrankTriggerCaptureCounter.c **** *
 482:Generated_Source\PSoC5/CrankTriggerCaptureCounter.c **** * Parameters:  
 483:Generated_Source\PSoC5/CrankTriggerCaptureCounter.c **** *  void:
 484:Generated_Source\PSoC5/CrankTriggerCaptureCounter.c **** *
 485:Generated_Source\PSoC5/CrankTriggerCaptureCounter.c **** * Return: 
 486:Generated_Source\PSoC5/CrankTriggerCaptureCounter.c **** *  (uint16) Present compare value.
 487:Generated_Source\PSoC5/CrankTriggerCaptureCounter.c **** *
 488:Generated_Source\PSoC5/CrankTriggerCaptureCounter.c **** *******************************************************************************/
 489:Generated_Source\PSoC5/CrankTriggerCaptureCounter.c **** uint16 CrankTriggerCaptureCounter_ReadCompare(void) 
 490:Generated_Source\PSoC5/CrankTriggerCaptureCounter.c **** {
ARM GAS  C:\Users\Bruger\AppData\Local\Temp\cc6AEA3I.s 			page 56


 491:Generated_Source\PSoC5/CrankTriggerCaptureCounter.c ****     return (CY_GET_REG16(CrankTriggerCaptureCounter_COMPARE_LSB_PTR));
 492:Generated_Source\PSoC5/CrankTriggerCaptureCounter.c **** }
 493:Generated_Source\PSoC5/CrankTriggerCaptureCounter.c **** 
 494:Generated_Source\PSoC5/CrankTriggerCaptureCounter.c **** 
 495:Generated_Source\PSoC5/CrankTriggerCaptureCounter.c **** #if (CrankTriggerCaptureCounter_COMPARE_MODE_SOFTWARE)
 496:Generated_Source\PSoC5/CrankTriggerCaptureCounter.c **** /*******************************************************************************
 497:Generated_Source\PSoC5/CrankTriggerCaptureCounter.c **** * Function Name: CrankTriggerCaptureCounter_SetCompareMode
 498:Generated_Source\PSoC5/CrankTriggerCaptureCounter.c **** ********************************************************************************
 499:Generated_Source\PSoC5/CrankTriggerCaptureCounter.c **** * Summary:
 500:Generated_Source\PSoC5/CrankTriggerCaptureCounter.c **** *  Sets the software controlled Compare Mode.
 501:Generated_Source\PSoC5/CrankTriggerCaptureCounter.c **** *
 502:Generated_Source\PSoC5/CrankTriggerCaptureCounter.c **** * Parameters:
 503:Generated_Source\PSoC5/CrankTriggerCaptureCounter.c **** *  compareMode:  Compare Mode Enumerated Type.
 504:Generated_Source\PSoC5/CrankTriggerCaptureCounter.c **** *
 505:Generated_Source\PSoC5/CrankTriggerCaptureCounter.c **** * Return:
 506:Generated_Source\PSoC5/CrankTriggerCaptureCounter.c **** *  void
 507:Generated_Source\PSoC5/CrankTriggerCaptureCounter.c **** *
 508:Generated_Source\PSoC5/CrankTriggerCaptureCounter.c **** *******************************************************************************/
 509:Generated_Source\PSoC5/CrankTriggerCaptureCounter.c **** void CrankTriggerCaptureCounter_SetCompareMode(uint8 compareMode) 
 510:Generated_Source\PSoC5/CrankTriggerCaptureCounter.c **** {
 511:Generated_Source\PSoC5/CrankTriggerCaptureCounter.c ****     /* Clear the compare mode bits in the control register */
 512:Generated_Source\PSoC5/CrankTriggerCaptureCounter.c ****     CrankTriggerCaptureCounter_CONTROL &= ((uint8)(~CrankTriggerCaptureCounter_CTRL_CMPMODE_MASK));
 513:Generated_Source\PSoC5/CrankTriggerCaptureCounter.c ****     
 514:Generated_Source\PSoC5/CrankTriggerCaptureCounter.c ****     /* Write the new setting */
 515:Generated_Source\PSoC5/CrankTriggerCaptureCounter.c ****     CrankTriggerCaptureCounter_CONTROL |= compareMode;
 516:Generated_Source\PSoC5/CrankTriggerCaptureCounter.c **** }
 517:Generated_Source\PSoC5/CrankTriggerCaptureCounter.c **** #endif  /* (CrankTriggerCaptureCounter_COMPARE_MODE_SOFTWARE) */
 518:Generated_Source\PSoC5/CrankTriggerCaptureCounter.c **** 
 519:Generated_Source\PSoC5/CrankTriggerCaptureCounter.c **** 
 520:Generated_Source\PSoC5/CrankTriggerCaptureCounter.c **** #if (CrankTriggerCaptureCounter_CAPTURE_MODE_SOFTWARE)
 521:Generated_Source\PSoC5/CrankTriggerCaptureCounter.c **** /*******************************************************************************
 522:Generated_Source\PSoC5/CrankTriggerCaptureCounter.c **** * Function Name: CrankTriggerCaptureCounter_SetCaptureMode
 523:Generated_Source\PSoC5/CrankTriggerCaptureCounter.c **** ********************************************************************************
 524:Generated_Source\PSoC5/CrankTriggerCaptureCounter.c **** * Summary:
 525:Generated_Source\PSoC5/CrankTriggerCaptureCounter.c **** *  Sets the software controlled Capture Mode.
 526:Generated_Source\PSoC5/CrankTriggerCaptureCounter.c **** *
 527:Generated_Source\PSoC5/CrankTriggerCaptureCounter.c **** * Parameters:
 528:Generated_Source\PSoC5/CrankTriggerCaptureCounter.c **** *  captureMode:  Capture Mode Enumerated Type.
 529:Generated_Source\PSoC5/CrankTriggerCaptureCounter.c **** *
 530:Generated_Source\PSoC5/CrankTriggerCaptureCounter.c **** * Return:
 531:Generated_Source\PSoC5/CrankTriggerCaptureCounter.c **** *  void
 532:Generated_Source\PSoC5/CrankTriggerCaptureCounter.c **** *
 533:Generated_Source\PSoC5/CrankTriggerCaptureCounter.c **** *******************************************************************************/
 534:Generated_Source\PSoC5/CrankTriggerCaptureCounter.c **** void CrankTriggerCaptureCounter_SetCaptureMode(uint8 captureMode) 
 535:Generated_Source\PSoC5/CrankTriggerCaptureCounter.c **** {
 536:Generated_Source\PSoC5/CrankTriggerCaptureCounter.c ****     /* Clear the capture mode bits in the control register */
 537:Generated_Source\PSoC5/CrankTriggerCaptureCounter.c ****     CrankTriggerCaptureCounter_CONTROL &= ((uint8)(~CrankTriggerCaptureCounter_CTRL_CAPMODE_MASK));
 538:Generated_Source\PSoC5/CrankTriggerCaptureCounter.c ****     
 539:Generated_Source\PSoC5/CrankTriggerCaptureCounter.c ****     /* Write the new setting */
 540:Generated_Source\PSoC5/CrankTriggerCaptureCounter.c ****     CrankTriggerCaptureCounter_CONTROL |= ((uint8)((uint8)captureMode << CrankTriggerCaptureCounter
 541:Generated_Source\PSoC5/CrankTriggerCaptureCounter.c **** }
 542:Generated_Source\PSoC5/CrankTriggerCaptureCounter.c **** #endif  /* (CrankTriggerCaptureCounter_CAPTURE_MODE_SOFTWARE) */
 543:Generated_Source\PSoC5/CrankTriggerCaptureCounter.c **** 
 544:Generated_Source\PSoC5/CrankTriggerCaptureCounter.c **** 
 545:Generated_Source\PSoC5/CrankTriggerCaptureCounter.c **** /*******************************************************************************
 546:Generated_Source\PSoC5/CrankTriggerCaptureCounter.c **** * Function Name: CrankTriggerCaptureCounter_ClearFIFO
 547:Generated_Source\PSoC5/CrankTriggerCaptureCounter.c **** ********************************************************************************
ARM GAS  C:\Users\Bruger\AppData\Local\Temp\cc6AEA3I.s 			page 57


 548:Generated_Source\PSoC5/CrankTriggerCaptureCounter.c **** * Summary:
 549:Generated_Source\PSoC5/CrankTriggerCaptureCounter.c **** *   This function clears all capture data from the capture FIFO
 550:Generated_Source\PSoC5/CrankTriggerCaptureCounter.c **** *
 551:Generated_Source\PSoC5/CrankTriggerCaptureCounter.c **** * Parameters:  
 552:Generated_Source\PSoC5/CrankTriggerCaptureCounter.c **** *  void:
 553:Generated_Source\PSoC5/CrankTriggerCaptureCounter.c **** *
 554:Generated_Source\PSoC5/CrankTriggerCaptureCounter.c **** * Return: 
 555:Generated_Source\PSoC5/CrankTriggerCaptureCounter.c **** *  None
 556:Generated_Source\PSoC5/CrankTriggerCaptureCounter.c **** *
 557:Generated_Source\PSoC5/CrankTriggerCaptureCounter.c **** *******************************************************************************/
 558:Generated_Source\PSoC5/CrankTriggerCaptureCounter.c **** void CrankTriggerCaptureCounter_ClearFIFO(void) 
 559:Generated_Source\PSoC5/CrankTriggerCaptureCounter.c **** {
 560:Generated_Source\PSoC5/CrankTriggerCaptureCounter.c **** 
 561:Generated_Source\PSoC5/CrankTriggerCaptureCounter.c ****     while(0u != (CrankTriggerCaptureCounter_ReadStatusRegister() & CrankTriggerCaptureCounter_STATU
 663              		.loc 1 561 0
 664 0020 5806     		lsls	r0, r3, #25
 665 0022 05D5     		bpl	.L2
 666              	.LBB47:
 667              	.LBB48:
 395:Generated_Source\PSoC5/CrankTriggerCaptureCounter.c ****     #endif /* (CrankTriggerCaptureCounter_UsingFixedFunction) */
 668              		.loc 1 395 0
 669 0024 01F21A41 		addw	r1, r1, #1050
 670              	.L6:
 671 0028 0B88     		ldrh	r3, [r1]
 672              	.LBE48:
 673              	.LBE47:
 674              	.LBB49:
 675              	.LBB45:
 263:Generated_Source\PSoC5/CrankTriggerCaptureCounter.c **** }
 676              		.loc 1 263 0
 677 002a 1378     		ldrb	r3, [r2]	@ zero_extendqisi2
 678              	.LBE45:
 679              	.LBE49:
 680              		.loc 1 561 0
 681 002c 5B06     		lsls	r3, r3, #25
 682 002e FBD4     		bmi	.L6
 683              	.L2:
 684              	.LVL4:
 685              	.LBE50:
 686              	.LBE51:
 687              	.LBB52:
 688              	.LBB53:
 420:Generated_Source\PSoC5/CrankTriggerCaptureCounter.c ****     #endif /* (CrankTriggerCaptureCounter_UsingFixedFunction) */
 689              		.loc 1 420 0
 690 0030 4FF6FF73 		movw	r3, #65535
 691 0034 0D4F     		ldr	r7, .L11+8
 692              	.LBE53:
 693              	.LBE52:
 694              	.LBB55:
 695              	.LBB56:
 337:Generated_Source\PSoC5/CrankTriggerCaptureCounter.c ****     #endif /* (CrankTriggerCaptureCounter_UsingFixedFunction) */
 696              		.loc 1 337 0
 697 0036 0E4D     		ldr	r5, .L11+12
 698              	.LBE56:
 699              	.LBE55:
 700              	.LBB59:
 701              	.LBB60:
ARM GAS  C:\Users\Bruger\AppData\Local\Temp\cc6AEA3I.s 			page 58


 239:Generated_Source\PSoC5/CrankTriggerCaptureCounter.c **** }
 702              		.loc 1 239 0
 703 0038 0E48     		ldr	r0, .L11+16
 704              	.LBE60:
 705              	.LBE59:
 706              	.LBB63:
 707              	.LBB64:
 471:Generated_Source\PSoC5/CrankTriggerCaptureCounter.c ****     #endif /* (CrankTriggerCaptureCounter_UsingFixedFunction) */
 708              		.loc 1 471 0
 709 003a 0F4A     		ldr	r2, .L11+20
 710              	.LBE64:
 711              	.LBE63:
 712              	.LBB66:
 713              	.LBB57:
 337:Generated_Source\PSoC5/CrankTriggerCaptureCounter.c ****     #endif /* (CrankTriggerCaptureCounter_UsingFixedFunction) */
 714              		.loc 1 337 0
 715 003c 0026     		movs	r6, #0
 716              	.LBE57:
 717              	.LBE66:
 718              	.LBB67:
 719              	.LBB61:
 239:Generated_Source\PSoC5/CrankTriggerCaptureCounter.c **** }
 720              		.loc 1 239 0
 721 003e 1C24     		movs	r4, #28
 722              	.LBE61:
 723              	.LBE67:
 724              	.LBB68:
 725              	.LBB69:
 263:Generated_Source\PSoC5/CrankTriggerCaptureCounter.c **** }
 726              		.loc 1 263 0
 727 0040 0949     		ldr	r1, .L11+4
 728              	.LBE69:
 729              	.LBE68:
 730              	.LBB71:
 731              	.LBB54:
 420:Generated_Source\PSoC5/CrankTriggerCaptureCounter.c ****     #endif /* (CrankTriggerCaptureCounter_UsingFixedFunction) */
 732              		.loc 1 420 0
 733 0042 3B80     		strh	r3, [r7]	@ movhi
 734              	.LVL5:
 735              	.LBE54:
 736              	.LBE71:
 737              	.LBB72:
 738              	.LBB58:
 337:Generated_Source\PSoC5/CrankTriggerCaptureCounter.c ****     #endif /* (CrankTriggerCaptureCounter_UsingFixedFunction) */
 739              		.loc 1 337 0
 740 0044 2E80     		strh	r6, [r5]	@ movhi
 741              	.LVL6:
 742              	.LBE58:
 743              	.LBE72:
 744              	.LBB73:
 745              	.LBB62:
 239:Generated_Source\PSoC5/CrankTriggerCaptureCounter.c **** }
 746              		.loc 1 239 0
 747 0046 0470     		strb	r4, [r0]
 748              	.LBE62:
 749              	.LBE73:
 750              	.LBB74:
ARM GAS  C:\Users\Bruger\AppData\Local\Temp\cc6AEA3I.s 			page 59


 751              	.LBB70:
 263:Generated_Source\PSoC5/CrankTriggerCaptureCounter.c **** }
 752              		.loc 1 263 0
 753 0048 0978     		ldrb	r1, [r1]	@ zero_extendqisi2
 754              	.LVL7:
 755              	.LBE70:
 756              	.LBE74:
 757              	.LBB75:
 758              	.LBB65:
 471:Generated_Source\PSoC5/CrankTriggerCaptureCounter.c ****     #endif /* (CrankTriggerCaptureCounter_UsingFixedFunction) */
 759              		.loc 1 471 0
 760 004a 1380     		strh	r3, [r2]	@ movhi
 761              	.LBE65:
 762              	.LBE75:
 115:Generated_Source\PSoC5/CrankTriggerCaptureCounter.c ****             
 763              		.loc 1 115 0
 764 004c FFF7FEFF 		bl	CyEnterCriticalSection
 765              	.LVL8:
 117:Generated_Source\PSoC5/CrankTriggerCaptureCounter.c ****             
 766              		.loc 1 117 0
 767 0050 0A4A     		ldr	r2, .L11+24
 768 0052 1378     		ldrb	r3, [r2]	@ zero_extendqisi2
 769 0054 43F01003 		orr	r3, r3, #16
 770 0058 1370     		strb	r3, [r2]
 123:Generated_Source\PSoC5/CrankTriggerCaptureCounter.c **** 
 771              		.loc 1 123 0
 772 005a BDE8F840 		pop	{r3, r4, r5, r6, r7, lr}
 773              		.cfi_restore 14
 774              		.cfi_restore 7
 775              		.cfi_restore 6
 776              		.cfi_restore 5
 777              		.cfi_restore 4
 778              		.cfi_restore 3
 779              		.cfi_def_cfa_offset 0
 120:Generated_Source\PSoC5/CrankTriggerCaptureCounter.c ****             
 780              		.loc 1 120 0
 781 005e FFF7FEBF 		b	CyExitCriticalSection
 782              	.LVL9:
 783              	.L12:
 784 0062 00BF     		.align	2
 785              	.L11:
 786 0064 7E640040 		.word	1073767550
 787 0068 6E640040 		.word	1073767534
 788 006c 58680040 		.word	1073768536
 789 0070 18680040 		.word	1073768472
 790 0074 8E640040 		.word	1073767566
 791 0078 78680040 		.word	1073768568
 792 007c 9E640040 		.word	1073767582
 793              		.cfi_endproc
 794              	.LFE0:
 795              		.size	CrankTriggerCaptureCounter_Init, .-CrankTriggerCaptureCounter_Init
 796              		.section	.text.CrankTriggerCaptureCounter_Enable,"ax",%progbits
 797              		.align	2
 798              		.global	CrankTriggerCaptureCounter_Enable
 799              		.thumb
 800              		.thumb_func
 801              		.type	CrankTriggerCaptureCounter_Enable, %function
ARM GAS  C:\Users\Bruger\AppData\Local\Temp\cc6AEA3I.s 			page 60


 802              	CrankTriggerCaptureCounter_Enable:
 803              	.LFB1:
 144:Generated_Source\PSoC5/CrankTriggerCaptureCounter.c ****     /* Globally Enable the Fixed Function Block chosen */
 804              		.loc 1 144 0
 805              		.cfi_startproc
 806              		@ args = 0, pretend = 0, frame = 0
 807              		@ frame_needed = 0, uses_anonymous_args = 0
 808              		@ link register save eliminated.
 155:Generated_Source\PSoC5/CrankTriggerCaptureCounter.c ****     #endif /* (!CrankTriggerCaptureCounter_ControlRegRemoved || CrankTriggerCaptureCounter_UsingFix
 809              		.loc 1 155 0
 810 0000 024A     		ldr	r2, .L14
 811 0002 1378     		ldrb	r3, [r2]	@ zero_extendqisi2
 812 0004 43F08003 		orr	r3, r3, #128
 813 0008 1370     		strb	r3, [r2]
 814 000a 7047     		bx	lr
 815              	.L15:
 816              		.align	2
 817              	.L14:
 818 000c 7E640040 		.word	1073767550
 819              		.cfi_endproc
 820              	.LFE1:
 821              		.size	CrankTriggerCaptureCounter_Enable, .-CrankTriggerCaptureCounter_Enable
 822              		.section	.text.CrankTriggerCaptureCounter_Start,"ax",%progbits
 823              		.align	2
 824              		.global	CrankTriggerCaptureCounter_Start
 825              		.thumb
 826              		.thumb_func
 827              		.type	CrankTriggerCaptureCounter_Start, %function
 828              	CrankTriggerCaptureCounter_Start:
 829              	.LFB2:
 179:Generated_Source\PSoC5/CrankTriggerCaptureCounter.c ****     if(CrankTriggerCaptureCounter_initVar == 0u)
 830              		.loc 1 179 0
 831              		.cfi_startproc
 832              		@ args = 0, pretend = 0, frame = 0
 833              		@ frame_needed = 0, uses_anonymous_args = 0
 834 0000 F8B5     		push	{r3, r4, r5, r6, r7, lr}
 835              		.cfi_def_cfa_offset 24
 836              		.cfi_offset 3, -24
 837              		.cfi_offset 4, -20
 838              		.cfi_offset 5, -16
 839              		.cfi_offset 6, -12
 840              		.cfi_offset 7, -8
 841              		.cfi_offset 14, -4
 180:Generated_Source\PSoC5/CrankTriggerCaptureCounter.c ****     {
 842              		.loc 1 180 0
 843 0002 1E4C     		ldr	r4, .L27
 844 0004 2378     		ldrb	r3, [r4]	@ zero_extendqisi2
 845 0006 2BB1     		cbz	r3, .L26
 846              	.L17:
 847              	.LBB96:
 848              	.LBB97:
 155:Generated_Source\PSoC5/CrankTriggerCaptureCounter.c ****     #endif /* (!CrankTriggerCaptureCounter_ControlRegRemoved || CrankTriggerCaptureCounter_UsingFix
 849              		.loc 1 155 0
 850 0008 1D4A     		ldr	r2, .L27+4
 851 000a 1378     		ldrb	r3, [r2]	@ zero_extendqisi2
 852 000c 43F08003 		orr	r3, r3, #128
 853 0010 1370     		strb	r3, [r2]
ARM GAS  C:\Users\Bruger\AppData\Local\Temp\cc6AEA3I.s 			page 61


 854 0012 F8BD     		pop	{r3, r4, r5, r6, r7, pc}
 855              	.L26:
 856              	.LBE97:
 857              	.LBE96:
 858              	.LBB98:
 859              	.LBB99:
  79:Generated_Source\PSoC5/CrankTriggerCaptureCounter.c ****             CrankTriggerCaptureCounter_CONTROL = ctrl | CrankTriggerCaptureCounter_DEFAULT_COMPARE_
 860              		.loc 1 79 0
 861 0014 1A49     		ldr	r1, .L27+4
 862              	.LBB100:
 863              	.LBB101:
 864              	.LBB102:
 865              	.LBB103:
 263:Generated_Source\PSoC5/CrankTriggerCaptureCounter.c **** }
 866              		.loc 1 263 0
 867 0016 1B4A     		ldr	r2, .L27+8
 868              	.LBE103:
 869              	.LBE102:
 870              	.LBE101:
 871              	.LBE100:
  79:Generated_Source\PSoC5/CrankTriggerCaptureCounter.c ****             CrankTriggerCaptureCounter_CONTROL = ctrl | CrankTriggerCaptureCounter_DEFAULT_COMPARE_
 872              		.loc 1 79 0
 873 0018 0B78     		ldrb	r3, [r1]	@ zero_extendqisi2
 874              	.LVL10:
 875 001a 03F0F803 		and	r3, r3, #248
 876              	.LVL11:
  80:Generated_Source\PSoC5/CrankTriggerCaptureCounter.c ****             
 877              		.loc 1 80 0
 878 001e 43F00303 		orr	r3, r3, #3
 879 0022 0B70     		strb	r3, [r1]
  83:Generated_Source\PSoC5/CrankTriggerCaptureCounter.c ****             
 880              		.loc 1 83 0
 881 0024 0B78     		ldrb	r3, [r1]	@ zero_extendqisi2
 882              	.LVL12:
 883 0026 03F0FC03 		and	r3, r3, #252
 884              	.LVL13:
  86:Generated_Source\PSoC5/CrankTriggerCaptureCounter.c ****             #else
 885              		.loc 1 86 0
 886 002a 43F00803 		orr	r3, r3, #8
 887 002e 0B70     		strb	r3, [r1]
 888              	.LBB111:
 889              	.LBB110:
 890              	.LBB106:
 891              	.LBB104:
 263:Generated_Source\PSoC5/CrankTriggerCaptureCounter.c **** }
 892              		.loc 1 263 0
 893 0030 1378     		ldrb	r3, [r2]	@ zero_extendqisi2
 894              	.LBE104:
 895              	.LBE106:
 896              		.loc 1 561 0
 897 0032 5806     		lsls	r0, r3, #25
 898 0034 05D5     		bpl	.L18
 899              	.LBB107:
 900              	.LBB108:
 395:Generated_Source\PSoC5/CrankTriggerCaptureCounter.c ****     #endif /* (CrankTriggerCaptureCounter_UsingFixedFunction) */
 901              		.loc 1 395 0
 902 0036 01F21A41 		addw	r1, r1, #1050
ARM GAS  C:\Users\Bruger\AppData\Local\Temp\cc6AEA3I.s 			page 62


 903              	.L22:
 904 003a 0B88     		ldrh	r3, [r1]
 905              	.LBE108:
 906              	.LBE107:
 907              	.LBB109:
 908              	.LBB105:
 263:Generated_Source\PSoC5/CrankTriggerCaptureCounter.c **** }
 909              		.loc 1 263 0
 910 003c 1378     		ldrb	r3, [r2]	@ zero_extendqisi2
 911              	.LBE105:
 912              	.LBE109:
 913              		.loc 1 561 0
 914 003e 5B06     		lsls	r3, r3, #25
 915 0040 FBD4     		bmi	.L22
 916              	.L18:
 917              	.LVL14:
 918              	.LBE110:
 919              	.LBE111:
 920              	.LBB112:
 921              	.LBB113:
 420:Generated_Source\PSoC5/CrankTriggerCaptureCounter.c ****     #endif /* (CrankTriggerCaptureCounter_UsingFixedFunction) */
 922              		.loc 1 420 0
 923 0042 4FF6FF73 		movw	r3, #65535
 924 0046 DFF850E0 		ldr	lr, .L27+28
 925              	.LBE113:
 926              	.LBE112:
 927              	.LBB115:
 928              	.LBB116:
 239:Generated_Source\PSoC5/CrankTriggerCaptureCounter.c **** }
 929              		.loc 1 239 0
 930 004a 0F48     		ldr	r0, .L27+12
 931              	.LBE116:
 932              	.LBE115:
 933              	.LBB119:
 934              	.LBB120:
 337:Generated_Source\PSoC5/CrankTriggerCaptureCounter.c ****     #endif /* (CrankTriggerCaptureCounter_UsingFixedFunction) */
 935              		.loc 1 337 0
 936 004c 0F4E     		ldr	r6, .L27+16
 937              	.LBE120:
 938              	.LBE119:
 939              	.LBB123:
 940              	.LBB124:
 471:Generated_Source\PSoC5/CrankTriggerCaptureCounter.c ****     #endif /* (CrankTriggerCaptureCounter_UsingFixedFunction) */
 941              		.loc 1 471 0
 942 004e 104A     		ldr	r2, .L27+20
 943              	.LBE124:
 944              	.LBE123:
 945              	.LBB126:
 946              	.LBB121:
 337:Generated_Source\PSoC5/CrankTriggerCaptureCounter.c ****     #endif /* (CrankTriggerCaptureCounter_UsingFixedFunction) */
 947              		.loc 1 337 0
 948 0050 0027     		movs	r7, #0
 949              	.LBE121:
 950              	.LBE126:
 951              	.LBB127:
 952              	.LBB117:
 239:Generated_Source\PSoC5/CrankTriggerCaptureCounter.c **** }
ARM GAS  C:\Users\Bruger\AppData\Local\Temp\cc6AEA3I.s 			page 63


 953              		.loc 1 239 0
 954 0052 1C25     		movs	r5, #28
 955              	.LBE117:
 956              	.LBE127:
 957              	.LBB128:
 958              	.LBB129:
 263:Generated_Source\PSoC5/CrankTriggerCaptureCounter.c **** }
 959              		.loc 1 263 0
 960 0054 0B49     		ldr	r1, .L27+8
 961              	.LBE129:
 962              	.LBE128:
 963              	.LBB131:
 964              	.LBB114:
 420:Generated_Source\PSoC5/CrankTriggerCaptureCounter.c ****     #endif /* (CrankTriggerCaptureCounter_UsingFixedFunction) */
 965              		.loc 1 420 0
 966 0056 AEF80030 		strh	r3, [lr]	@ movhi
 967              	.LVL15:
 968              	.LBE114:
 969              	.LBE131:
 970              	.LBB132:
 971              	.LBB122:
 337:Generated_Source\PSoC5/CrankTriggerCaptureCounter.c ****     #endif /* (CrankTriggerCaptureCounter_UsingFixedFunction) */
 972              		.loc 1 337 0
 973 005a 3780     		strh	r7, [r6]	@ movhi
 974              	.LVL16:
 975              	.LBE122:
 976              	.LBE132:
 977              	.LBB133:
 978              	.LBB118:
 239:Generated_Source\PSoC5/CrankTriggerCaptureCounter.c **** }
 979              		.loc 1 239 0
 980 005c 0570     		strb	r5, [r0]
 981              	.LBE118:
 982              	.LBE133:
 983              	.LBB134:
 984              	.LBB130:
 263:Generated_Source\PSoC5/CrankTriggerCaptureCounter.c **** }
 985              		.loc 1 263 0
 986 005e 0978     		ldrb	r1, [r1]	@ zero_extendqisi2
 987              	.LVL17:
 988              	.LBE130:
 989              	.LBE134:
 990              	.LBB135:
 991              	.LBB125:
 471:Generated_Source\PSoC5/CrankTriggerCaptureCounter.c ****     #endif /* (CrankTriggerCaptureCounter_UsingFixedFunction) */
 992              		.loc 1 471 0
 993 0060 1380     		strh	r3, [r2]	@ movhi
 994              	.LBE125:
 995              	.LBE135:
 115:Generated_Source\PSoC5/CrankTriggerCaptureCounter.c ****             
 996              		.loc 1 115 0
 997 0062 FFF7FEFF 		bl	CyEnterCriticalSection
 998              	.LVL18:
 117:Generated_Source\PSoC5/CrankTriggerCaptureCounter.c ****             
 999              		.loc 1 117 0
 1000 0066 0B4A     		ldr	r2, .L27+24
 1001 0068 1378     		ldrb	r3, [r2]	@ zero_extendqisi2
ARM GAS  C:\Users\Bruger\AppData\Local\Temp\cc6AEA3I.s 			page 64


 1002 006a 43F01003 		orr	r3, r3, #16
 1003 006e 1370     		strb	r3, [r2]
 120:Generated_Source\PSoC5/CrankTriggerCaptureCounter.c ****             
 1004              		.loc 1 120 0
 1005 0070 FFF7FEFF 		bl	CyExitCriticalSection
 1006              	.LVL19:
 1007              	.LBE99:
 1008              	.LBE98:
 184:Generated_Source\PSoC5/CrankTriggerCaptureCounter.c ****     }
 1009              		.loc 1 184 0
 1010 0074 0123     		movs	r3, #1
 1011 0076 2370     		strb	r3, [r4]
 1012 0078 C6E7     		b	.L17
 1013              	.L28:
 1014 007a 00BF     		.align	2
 1015              	.L27:
 1016 007c 00000000 		.word	.LANCHOR0
 1017 0080 7E640040 		.word	1073767550
 1018 0084 6E640040 		.word	1073767534
 1019 0088 8E640040 		.word	1073767566
 1020 008c 18680040 		.word	1073768472
 1021 0090 78680040 		.word	1073768568
 1022 0094 9E640040 		.word	1073767582
 1023 0098 58680040 		.word	1073768536
 1024              		.cfi_endproc
 1025              	.LFE2:
 1026              		.size	CrankTriggerCaptureCounter_Start, .-CrankTriggerCaptureCounter_Start
 1027              		.section	.text.CrankTriggerCaptureCounter_Stop,"ax",%progbits
 1028              		.align	2
 1029              		.global	CrankTriggerCaptureCounter_Stop
 1030              		.thumb
 1031              		.thumb_func
 1032              		.type	CrankTriggerCaptureCounter_Stop, %function
 1033              	CrankTriggerCaptureCounter_Stop:
 1034              	.LFB3:
 209:Generated_Source\PSoC5/CrankTriggerCaptureCounter.c ****     /* Disable Counter */
 1035              		.loc 1 209 0
 1036              		.cfi_startproc
 1037              		@ args = 0, pretend = 0, frame = 0
 1038              		@ frame_needed = 0, uses_anonymous_args = 0
 1039              		@ link register save eliminated.
 212:Generated_Source\PSoC5/CrankTriggerCaptureCounter.c ****     #endif /* (!CrankTriggerCaptureCounter_ControlRegRemoved || CrankTriggerCaptureCounter_UsingFix
 1040              		.loc 1 212 0
 1041 0000 024A     		ldr	r2, .L30
 1042 0002 1378     		ldrb	r3, [r2]	@ zero_extendqisi2
 1043 0004 03F07F03 		and	r3, r3, #127
 1044 0008 1370     		strb	r3, [r2]
 1045 000a 7047     		bx	lr
 1046              	.L31:
 1047              		.align	2
 1048              	.L30:
 1049 000c 7E640040 		.word	1073767550
 1050              		.cfi_endproc
 1051              	.LFE3:
 1052              		.size	CrankTriggerCaptureCounter_Stop, .-CrankTriggerCaptureCounter_Stop
 1053              		.section	.text.CrankTriggerCaptureCounter_SetInterruptMode,"ax",%progbits
 1054              		.align	2
ARM GAS  C:\Users\Bruger\AppData\Local\Temp\cc6AEA3I.s 			page 65


 1055              		.global	CrankTriggerCaptureCounter_SetInterruptMode
 1056              		.thumb
 1057              		.thumb_func
 1058              		.type	CrankTriggerCaptureCounter_SetInterruptMode, %function
 1059              	CrankTriggerCaptureCounter_SetInterruptMode:
 1060              	.LFB4:
 238:Generated_Source\PSoC5/CrankTriggerCaptureCounter.c ****     CrankTriggerCaptureCounter_STATUS_MASK = interruptsMask;
 1061              		.loc 1 238 0
 1062              		.cfi_startproc
 1063              		@ args = 0, pretend = 0, frame = 0
 1064              		@ frame_needed = 0, uses_anonymous_args = 0
 1065              		@ link register save eliminated.
 1066              	.LVL20:
 239:Generated_Source\PSoC5/CrankTriggerCaptureCounter.c **** }
 1067              		.loc 1 239 0
 1068 0000 014B     		ldr	r3, .L33
 1069 0002 1870     		strb	r0, [r3]
 1070 0004 7047     		bx	lr
 1071              	.L34:
 1072 0006 00BF     		.align	2
 1073              	.L33:
 1074 0008 8E640040 		.word	1073767566
 1075              		.cfi_endproc
 1076              	.LFE4:
 1077              		.size	CrankTriggerCaptureCounter_SetInterruptMode, .-CrankTriggerCaptureCounter_SetInterruptMode
 1078              		.section	.text.CrankTriggerCaptureCounter_ReadStatusRegister,"ax",%progbits
 1079              		.align	2
 1080              		.global	CrankTriggerCaptureCounter_ReadStatusRegister
 1081              		.thumb
 1082              		.thumb_func
 1083              		.type	CrankTriggerCaptureCounter_ReadStatusRegister, %function
 1084              	CrankTriggerCaptureCounter_ReadStatusRegister:
 1085              	.LFB5:
 262:Generated_Source\PSoC5/CrankTriggerCaptureCounter.c ****     return CrankTriggerCaptureCounter_STATUS;
 1086              		.loc 1 262 0
 1087              		.cfi_startproc
 1088              		@ args = 0, pretend = 0, frame = 0
 1089              		@ frame_needed = 0, uses_anonymous_args = 0
 1090              		@ link register save eliminated.
 263:Generated_Source\PSoC5/CrankTriggerCaptureCounter.c **** }
 1091              		.loc 1 263 0
 1092 0000 014B     		ldr	r3, .L36
 1093 0002 1878     		ldrb	r0, [r3]	@ zero_extendqisi2
 264:Generated_Source\PSoC5/CrankTriggerCaptureCounter.c **** 
 1094              		.loc 1 264 0
 1095 0004 7047     		bx	lr
 1096              	.L37:
 1097 0006 00BF     		.align	2
 1098              	.L36:
 1099 0008 6E640040 		.word	1073767534
 1100              		.cfi_endproc
 1101              	.LFE5:
 1102              		.size	CrankTriggerCaptureCounter_ReadStatusRegister, .-CrankTriggerCaptureCounter_ReadStatusRegist
 1103              		.section	.text.CrankTriggerCaptureCounter_ReadControlRegister,"ax",%progbits
 1104              		.align	2
 1105              		.global	CrankTriggerCaptureCounter_ReadControlRegister
 1106              		.thumb
ARM GAS  C:\Users\Bruger\AppData\Local\Temp\cc6AEA3I.s 			page 66


 1107              		.thumb_func
 1108              		.type	CrankTriggerCaptureCounter_ReadControlRegister, %function
 1109              	CrankTriggerCaptureCounter_ReadControlRegister:
 1110              	.LFB6:
 284:Generated_Source\PSoC5/CrankTriggerCaptureCounter.c ****     return CrankTriggerCaptureCounter_CONTROL;
 1111              		.loc 1 284 0
 1112              		.cfi_startproc
 1113              		@ args = 0, pretend = 0, frame = 0
 1114              		@ frame_needed = 0, uses_anonymous_args = 0
 1115              		@ link register save eliminated.
 285:Generated_Source\PSoC5/CrankTriggerCaptureCounter.c **** }
 1116              		.loc 1 285 0
 1117 0000 014B     		ldr	r3, .L39
 1118 0002 1878     		ldrb	r0, [r3]	@ zero_extendqisi2
 286:Generated_Source\PSoC5/CrankTriggerCaptureCounter.c **** 
 1119              		.loc 1 286 0
 1120 0004 7047     		bx	lr
 1121              	.L40:
 1122 0006 00BF     		.align	2
 1123              	.L39:
 1124 0008 7E640040 		.word	1073767550
 1125              		.cfi_endproc
 1126              	.LFE6:
 1127              		.size	CrankTriggerCaptureCounter_ReadControlRegister, .-CrankTriggerCaptureCounter_ReadControlRegi
 1128              		.section	.text.CrankTriggerCaptureCounter_WriteControlRegister,"ax",%progbits
 1129              		.align	2
 1130              		.global	CrankTriggerCaptureCounter_WriteControlRegister
 1131              		.thumb
 1132              		.thumb_func
 1133              		.type	CrankTriggerCaptureCounter_WriteControlRegister, %function
 1134              	CrankTriggerCaptureCounter_WriteControlRegister:
 1135              	.LFB7:
 305:Generated_Source\PSoC5/CrankTriggerCaptureCounter.c ****     CrankTriggerCaptureCounter_CONTROL = control;
 1136              		.loc 1 305 0
 1137              		.cfi_startproc
 1138              		@ args = 0, pretend = 0, frame = 0
 1139              		@ frame_needed = 0, uses_anonymous_args = 0
 1140              		@ link register save eliminated.
 1141              	.LVL21:
 306:Generated_Source\PSoC5/CrankTriggerCaptureCounter.c **** }
 1142              		.loc 1 306 0
 1143 0000 014B     		ldr	r3, .L42
 1144 0002 1870     		strb	r0, [r3]
 1145 0004 7047     		bx	lr
 1146              	.L43:
 1147 0006 00BF     		.align	2
 1148              	.L42:
 1149 0008 7E640040 		.word	1073767550
 1150              		.cfi_endproc
 1151              	.LFE7:
 1152              		.size	CrankTriggerCaptureCounter_WriteControlRegister, .-CrankTriggerCaptureCounter_WriteControlRe
 1153              		.section	.text.CrankTriggerCaptureCounter_WriteCounter,"ax",%progbits
 1154              		.align	2
 1155              		.global	CrankTriggerCaptureCounter_WriteCounter
 1156              		.thumb
 1157              		.thumb_func
 1158              		.type	CrankTriggerCaptureCounter_WriteCounter, %function
ARM GAS  C:\Users\Bruger\AppData\Local\Temp\cc6AEA3I.s 			page 67


 1159              	CrankTriggerCaptureCounter_WriteCounter:
 1160              	.LFB8:
 328:Generated_Source\PSoC5/CrankTriggerCaptureCounter.c ****     #if(CrankTriggerCaptureCounter_UsingFixedFunction)
 1161              		.loc 1 328 0
 1162              		.cfi_startproc
 1163              		@ args = 0, pretend = 0, frame = 0
 1164              		@ frame_needed = 0, uses_anonymous_args = 0
 1165              		@ link register save eliminated.
 1166              	.LVL22:
 337:Generated_Source\PSoC5/CrankTriggerCaptureCounter.c ****     #endif /* (CrankTriggerCaptureCounter_UsingFixedFunction) */
 1167              		.loc 1 337 0
 1168 0000 014B     		ldr	r3, .L45
 1169 0002 1880     		strh	r0, [r3]	@ movhi
 1170 0004 7047     		bx	lr
 1171              	.L46:
 1172 0006 00BF     		.align	2
 1173              	.L45:
 1174 0008 18680040 		.word	1073768472
 1175              		.cfi_endproc
 1176              	.LFE8:
 1177              		.size	CrankTriggerCaptureCounter_WriteCounter, .-CrankTriggerCaptureCounter_WriteCounter
 1178              		.section	.text.CrankTriggerCaptureCounter_ReadCounter,"ax",%progbits
 1179              		.align	2
 1180              		.global	CrankTriggerCaptureCounter_ReadCounter
 1181              		.thumb
 1182              		.thumb_func
 1183              		.type	CrankTriggerCaptureCounter_ReadCounter, %function
 1184              	CrankTriggerCaptureCounter_ReadCounter:
 1185              	.LFB9:
 358:Generated_Source\PSoC5/CrankTriggerCaptureCounter.c ****     /* Force capture by reading Accumulator */
 1186              		.loc 1 358 0
 1187              		.cfi_startproc
 1188              		@ args = 0, pretend = 0, frame = 0
 1189              		@ frame_needed = 0, uses_anonymous_args = 0
 1190              		@ link register save eliminated.
 372:Generated_Source\PSoC5/CrankTriggerCaptureCounter.c ****     #endif /* (CrankTriggerCaptureCounter_UsingFixedFunction) */
 1191              		.loc 1 372 0
 1192 0000 024B     		ldr	r3, .L48
 365:Generated_Source\PSoC5/CrankTriggerCaptureCounter.c **** 	#endif/* (CrankTriggerCaptureCounter_UsingFixedFunction) */
 1193              		.loc 1 365 0
 1194 0002 034A     		ldr	r2, .L48+4
 1195 0004 1278     		ldrb	r2, [r2]	@ zero_extendqisi2
 372:Generated_Source\PSoC5/CrankTriggerCaptureCounter.c ****     #endif /* (CrankTriggerCaptureCounter_UsingFixedFunction) */
 1196              		.loc 1 372 0
 1197 0006 1888     		ldrh	r0, [r3]
 374:Generated_Source\PSoC5/CrankTriggerCaptureCounter.c **** 
 1198              		.loc 1 374 0
 1199 0008 80B2     		uxth	r0, r0
 1200 000a 7047     		bx	lr
 1201              	.L49:
 1202              		.align	2
 1203              	.L48:
 1204 000c 98680040 		.word	1073768600
 1205 0010 0C640040 		.word	1073767436
 1206              		.cfi_endproc
 1207              	.LFE9:
 1208              		.size	CrankTriggerCaptureCounter_ReadCounter, .-CrankTriggerCaptureCounter_ReadCounter
ARM GAS  C:\Users\Bruger\AppData\Local\Temp\cc6AEA3I.s 			page 68


 1209              		.section	.text.CrankTriggerCaptureCounter_ReadCapture,"ax",%progbits
 1210              		.align	2
 1211              		.global	CrankTriggerCaptureCounter_ReadCapture
 1212              		.thumb
 1213              		.thumb_func
 1214              		.type	CrankTriggerCaptureCounter_ReadCapture, %function
 1215              	CrankTriggerCaptureCounter_ReadCapture:
 1216              	.LFB10:
 391:Generated_Source\PSoC5/CrankTriggerCaptureCounter.c ****     #if(CrankTriggerCaptureCounter_UsingFixedFunction)
 1217              		.loc 1 391 0
 1218              		.cfi_startproc
 1219              		@ args = 0, pretend = 0, frame = 0
 1220              		@ frame_needed = 0, uses_anonymous_args = 0
 1221              		@ link register save eliminated.
 395:Generated_Source\PSoC5/CrankTriggerCaptureCounter.c ****     #endif /* (CrankTriggerCaptureCounter_UsingFixedFunction) */
 1222              		.loc 1 395 0
 1223 0000 014B     		ldr	r3, .L51
 1224 0002 1888     		ldrh	r0, [r3]
 397:Generated_Source\PSoC5/CrankTriggerCaptureCounter.c **** 
 1225              		.loc 1 397 0
 1226 0004 80B2     		uxth	r0, r0
 1227 0006 7047     		bx	lr
 1228              	.L52:
 1229              		.align	2
 1230              	.L51:
 1231 0008 98680040 		.word	1073768600
 1232              		.cfi_endproc
 1233              	.LFE10:
 1234              		.size	CrankTriggerCaptureCounter_ReadCapture, .-CrankTriggerCaptureCounter_ReadCapture
 1235              		.section	.text.CrankTriggerCaptureCounter_WritePeriod,"ax",%progbits
 1236              		.align	2
 1237              		.global	CrankTriggerCaptureCounter_WritePeriod
 1238              		.thumb
 1239              		.thumb_func
 1240              		.type	CrankTriggerCaptureCounter_WritePeriod, %function
 1241              	CrankTriggerCaptureCounter_WritePeriod:
 1242              	.LFB11:
 416:Generated_Source\PSoC5/CrankTriggerCaptureCounter.c ****     #if(CrankTriggerCaptureCounter_UsingFixedFunction)
 1243              		.loc 1 416 0
 1244              		.cfi_startproc
 1245              		@ args = 0, pretend = 0, frame = 0
 1246              		@ frame_needed = 0, uses_anonymous_args = 0
 1247              		@ link register save eliminated.
 1248              	.LVL23:
 420:Generated_Source\PSoC5/CrankTriggerCaptureCounter.c ****     #endif /* (CrankTriggerCaptureCounter_UsingFixedFunction) */
 1249              		.loc 1 420 0
 1250 0000 014B     		ldr	r3, .L54
 1251 0002 1880     		strh	r0, [r3]	@ movhi
 1252 0004 7047     		bx	lr
 1253              	.L55:
 1254 0006 00BF     		.align	2
 1255              	.L54:
 1256 0008 58680040 		.word	1073768536
 1257              		.cfi_endproc
 1258              	.LFE11:
 1259              		.size	CrankTriggerCaptureCounter_WritePeriod, .-CrankTriggerCaptureCounter_WritePeriod
 1260              		.section	.text.CrankTriggerCaptureCounter_ReadPeriod,"ax",%progbits
ARM GAS  C:\Users\Bruger\AppData\Local\Temp\cc6AEA3I.s 			page 69


 1261              		.align	2
 1262              		.global	CrankTriggerCaptureCounter_ReadPeriod
 1263              		.thumb
 1264              		.thumb_func
 1265              		.type	CrankTriggerCaptureCounter_ReadPeriod, %function
 1266              	CrankTriggerCaptureCounter_ReadPeriod:
 1267              	.LFB12:
 439:Generated_Source\PSoC5/CrankTriggerCaptureCounter.c ****     #if(CrankTriggerCaptureCounter_UsingFixedFunction)
 1268              		.loc 1 439 0
 1269              		.cfi_startproc
 1270              		@ args = 0, pretend = 0, frame = 0
 1271              		@ frame_needed = 0, uses_anonymous_args = 0
 1272              		@ link register save eliminated.
 443:Generated_Source\PSoC5/CrankTriggerCaptureCounter.c ****     #endif /* (CrankTriggerCaptureCounter_UsingFixedFunction) */
 1273              		.loc 1 443 0
 1274 0000 014B     		ldr	r3, .L57
 1275 0002 1888     		ldrh	r0, [r3]
 445:Generated_Source\PSoC5/CrankTriggerCaptureCounter.c **** 
 1276              		.loc 1 445 0
 1277 0004 80B2     		uxth	r0, r0
 1278 0006 7047     		bx	lr
 1279              	.L58:
 1280              		.align	2
 1281              	.L57:
 1282 0008 58680040 		.word	1073768536
 1283              		.cfi_endproc
 1284              	.LFE12:
 1285              		.size	CrankTriggerCaptureCounter_ReadPeriod, .-CrankTriggerCaptureCounter_ReadPeriod
 1286              		.section	.text.CrankTriggerCaptureCounter_WriteCompare,"ax",%progbits
 1287              		.align	2
 1288              		.global	CrankTriggerCaptureCounter_WriteCompare
 1289              		.thumb
 1290              		.thumb_func
 1291              		.type	CrankTriggerCaptureCounter_WriteCompare, %function
 1292              	CrankTriggerCaptureCounter_WriteCompare:
 1293              	.LFB13:
 467:Generated_Source\PSoC5/CrankTriggerCaptureCounter.c ****     #if(CrankTriggerCaptureCounter_UsingFixedFunction)
 1294              		.loc 1 467 0
 1295              		.cfi_startproc
 1296              		@ args = 0, pretend = 0, frame = 0
 1297              		@ frame_needed = 0, uses_anonymous_args = 0
 1298              		@ link register save eliminated.
 1299              	.LVL24:
 471:Generated_Source\PSoC5/CrankTriggerCaptureCounter.c ****     #endif /* (CrankTriggerCaptureCounter_UsingFixedFunction) */
 1300              		.loc 1 471 0
 1301 0000 014B     		ldr	r3, .L60
 1302 0002 1880     		strh	r0, [r3]	@ movhi
 1303 0004 7047     		bx	lr
 1304              	.L61:
 1305 0006 00BF     		.align	2
 1306              	.L60:
 1307 0008 78680040 		.word	1073768568
 1308              		.cfi_endproc
 1309              	.LFE13:
 1310              		.size	CrankTriggerCaptureCounter_WriteCompare, .-CrankTriggerCaptureCounter_WriteCompare
 1311              		.section	.text.CrankTriggerCaptureCounter_ReadCompare,"ax",%progbits
 1312              		.align	2
ARM GAS  C:\Users\Bruger\AppData\Local\Temp\cc6AEA3I.s 			page 70


 1313              		.global	CrankTriggerCaptureCounter_ReadCompare
 1314              		.thumb
 1315              		.thumb_func
 1316              		.type	CrankTriggerCaptureCounter_ReadCompare, %function
 1317              	CrankTriggerCaptureCounter_ReadCompare:
 1318              	.LFB14:
 490:Generated_Source\PSoC5/CrankTriggerCaptureCounter.c ****     return (CY_GET_REG16(CrankTriggerCaptureCounter_COMPARE_LSB_PTR));
 1319              		.loc 1 490 0
 1320              		.cfi_startproc
 1321              		@ args = 0, pretend = 0, frame = 0
 1322              		@ frame_needed = 0, uses_anonymous_args = 0
 1323              		@ link register save eliminated.
 491:Generated_Source\PSoC5/CrankTriggerCaptureCounter.c **** }
 1324              		.loc 1 491 0
 1325 0000 014B     		ldr	r3, .L63
 1326 0002 1888     		ldrh	r0, [r3]
 492:Generated_Source\PSoC5/CrankTriggerCaptureCounter.c **** 
 1327              		.loc 1 492 0
 1328 0004 80B2     		uxth	r0, r0
 1329 0006 7047     		bx	lr
 1330              	.L64:
 1331              		.align	2
 1332              	.L63:
 1333 0008 78680040 		.word	1073768568
 1334              		.cfi_endproc
 1335              	.LFE14:
 1336              		.size	CrankTriggerCaptureCounter_ReadCompare, .-CrankTriggerCaptureCounter_ReadCompare
 1337              		.section	.text.CrankTriggerCaptureCounter_ClearFIFO,"ax",%progbits
 1338              		.align	2
 1339              		.global	CrankTriggerCaptureCounter_ClearFIFO
 1340              		.thumb
 1341              		.thumb_func
 1342              		.type	CrankTriggerCaptureCounter_ClearFIFO, %function
 1343              	CrankTriggerCaptureCounter_ClearFIFO:
 1344              	.LFB15:
 559:Generated_Source\PSoC5/CrankTriggerCaptureCounter.c **** 
 1345              		.loc 1 559 0
 1346              		.cfi_startproc
 1347              		@ args = 0, pretend = 0, frame = 0
 1348              		@ frame_needed = 0, uses_anonymous_args = 0
 1349              		@ link register save eliminated.
 1350              	.LBB136:
 1351              	.LBB137:
 263:Generated_Source\PSoC5/CrankTriggerCaptureCounter.c **** }
 1352              		.loc 1 263 0
 1353 0000 044A     		ldr	r2, .L73
 1354 0002 1378     		ldrb	r3, [r2]	@ zero_extendqisi2
 1355              	.LBE137:
 1356              	.LBE136:
 1357              		.loc 1 561 0
 1358 0004 5906     		lsls	r1, r3, #25
 1359 0006 04D5     		bpl	.L65
 1360              	.LBB139:
 1361              	.LBB140:
 395:Generated_Source\PSoC5/CrankTriggerCaptureCounter.c ****     #endif /* (CrankTriggerCaptureCounter_UsingFixedFunction) */
 1362              		.loc 1 395 0
 1363 0008 0349     		ldr	r1, .L73+4
ARM GAS  C:\Users\Bruger\AppData\Local\Temp\cc6AEA3I.s 			page 71


 1364              	.L70:
 1365 000a 0B88     		ldrh	r3, [r1]
 1366              	.LBE140:
 1367              	.LBE139:
 1368              	.LBB141:
 1369              	.LBB138:
 263:Generated_Source\PSoC5/CrankTriggerCaptureCounter.c **** }
 1370              		.loc 1 263 0
 1371 000c 1378     		ldrb	r3, [r2]	@ zero_extendqisi2
 1372              	.LBE138:
 1373              	.LBE141:
 1374              		.loc 1 561 0
 1375 000e 5B06     		lsls	r3, r3, #25
 1376 0010 FBD4     		bmi	.L70
 1377              	.L65:
 1378 0012 7047     		bx	lr
 1379              	.L74:
 1380              		.align	2
 1381              	.L73:
 1382 0014 6E640040 		.word	1073767534
 1383 0018 98680040 		.word	1073768600
 1384              		.cfi_endproc
 1385              	.LFE15:
 1386              		.size	CrankTriggerCaptureCounter_ClearFIFO, .-CrankTriggerCaptureCounter_ClearFIFO
 1387              		.global	CrankTriggerCaptureCounter_initVar
 1388              		.bss
 1389              		.set	.LANCHOR0,. + 0
 1390              		.type	CrankTriggerCaptureCounter_initVar, %object
 1391              		.size	CrankTriggerCaptureCounter_initVar, 1
 1392              	CrankTriggerCaptureCounter_initVar:
 1393 0000 00       		.space	1
 1394              		.text
 1395              	.Letext0:
 1396              		.file 2 "Generated_Source\\PSoC5\\cytypes.h"
 1397              		.file 3 "Generated_Source\\PSoC5\\CyLib.h"