ARM GAS  C:\Users\Bruger\AppData\Local\Temp\ccCnG3ii.s 			page 1


   1              		.syntax unified
   2              		.cpu cortex-m3
   3              		.fpu softvfp
   4              		.eabi_attribute 20, 1
   5              		.eabi_attribute 21, 1
   6              		.eabi_attribute 23, 3
   7              		.eabi_attribute 24, 1
   8              		.eabi_attribute 25, 1
   9              		.eabi_attribute 26, 1
  10              		.eabi_attribute 30, 2
  11              		.eabi_attribute 34, 1
  12              		.eabi_attribute 18, 4
  13              		.thumb
  14              		.file	"CrankTrigger_Dummy_Timer.c"
  15              		.text
  16              	.Ltext0:
  17              		.section	.gnu.lto_.profile.1d797689,"",%progbits
  18 0000 789C6366 		.ascii	"x\234cf```a\200\000F\206\354\020\000\001\236\000\310"
  18      60606061 
  18      80004686 
  18      EC100001 
  18      9E00C8
  19              		.text
  20              		.section	.gnu.lto_.jmpfuncs.1d797689,"",%progbits
  21 0000 789C6DCB 		.ascii	"x\234m\313\311\011\000 \020C\321?\356{7\326g\353\316"
  21      C9090020 
  21      1043D13F 
  21      EE7B37D6 
  21      67EBCE
  22 0013 804703E1 		.ascii	"\200G\003\341\221C<\377\354\347\322\0128%@\024\221\223"
  22      91433CFF 
  22      ECE7D20A 
  22      38254014 
  22      9193
  23 0025 2043816A 		.ascii	" C\201j\253A7\007L\323\016\027>\245\002\265"
  23      AB413707 
  23      4CD30E17 
  23      3EA502B5 
  24              		.text
  25              		.section	.gnu.lto_.inline.1d797689,"",%progbits
  26 0000 789C6DCA 		.ascii	"x\234m\312\273\015\2000\020\003P_>|B\000\201D\203\004"
  26      BB0D8030 
  26      1003505F 
  26      3E7C4200 
  26      81448304 
  27 0014 D9822919 		.ascii	"\331\202)\031\202\206Ah\251\030\205\0218\204\024\212"
  27      82864168 
  27      A9188511 
  27      3884148A 
  28 0024 8B0B5B7A 		.ascii	"\213\013[z\262F:\003}\333\000\363DP\313\275kd[P/\022"
  28      B2463A03 
  28      7DDB00F3 
  28      4450CBBD 
  28      6B645B50 
  29 003a 7CC5D65F 		.ascii	"|\305\326_+ES\350z\266\361<~#\307e\022g\013\243\331"
  29      2B4553E8 
  29      7AB6F13C 
ARM GAS  C:\Users\Bruger\AppData\Local\Temp\ccCnG3ii.s 			page 2


  29      7E23C765 
  29      12670BA3 
  30 004f D4D546CA 		.ascii	"\324\325F\312$\345\222\012I\245$'\251\222\344%\325\222"
  30      24E5920A 
  30      49A52427 
  30      A992E425 
  30      D592
  31 0061 1A58C364 		.ascii	"\032X\303d\266\020\011\017\366C\033w"
  31      B610090F 
  31      F6431B77 
  32              		.text
  33              		.section	.gnu.lto_.pureconst.1d797689,"",%progbits
  34 0000 789C25C1 		.ascii	"x\234%\301\307\021\000 \014\004\261\003\223Lp\001;C"
  34      C7110020 
  34      0C04B103 
  34      934C7001 
  34      3B43
  35 0012 FF6DF240 		.ascii	"\377m\362@2IW_\210D\246Pit\006\316d\2619\004\017\036"
  35      3249575F 
  35      8844A650 
  35      697406CE 
  35      64B13904 
  36 0028 650201   		.ascii	"e\002\001"
  37              		.text
  38              		.section	.gnu.lto_CrankTrigger_Dummy_Timer_Init.1d797689,"",%progbits
  39 0000 789C8D55 		.ascii	"x\234\215U_H[W\030?\3379\311M\322\304\246\225\272\212"
  39      5F485B57 
  39      183FDF39 
  39      C94DD2C4 
  39      A695BA8A 
  40 0014 5006EB43 		.ascii	"P\006\353C\031\2141\006}\033\354\241\203\015\306@h\037"
  40      198C3106 
  40      7D1BECA1 
  40      830DC640 
  40      681F
  41 0026 3BA4E8A5 		.ascii	";\244\350\245\310\320\310%>\354\25171ec\025Z\244\263"
  41      C8D0C825 
  41      3EECA937 
  41      31656315 
  41      5AA4B3
  42 0039 9969A465 		.ascii	"\231i\244e\323\376\333\232U7\247\266\352\325\331\246"
  42      D3FEDB9A 
  42      5537A7B6 
  42      EAD5D9A6 
  43 0049 ADABD6BA 		.ascii	"\255\253\326\272\252\215\266JIW\007\035k\232n6\245\222"
  43      AA8DB64A 
  43      4957071D 
  43      6B9A6E36 
  43      A592
  44 005b 9DEF9C9B 		.ascii	"\235\357\234\2338\257\032\014\344;9\271\337\371\375"
  44      38AF1A0C 
  44      E43B39B9 
  44      DFF9FD
  45 006a BB877318 		.ascii	"\273\207s\030Y\375)\343_\227\223\220O\371\010\214\000"
  45      59FD29E3 
  45      5F979390 
  45      4FF9088C 
ARM GAS  C:\Users\Bruger\AppData\Local\Temp\ccCnG3ii.s 			page 3


  45      00
  46 007b 3D364A48 		.ascii	"=6JH\300I\001\360\007\001r\210\302!\370\223\246(\034"
  46      C04901F0 
  46      07017288 
  46      C221F893 
  46      A6281C
  47 008e 332E84DD 		.ascii	"3.\204\335\273\332t]\177\3321\022(7 C\011IS\211\003"
  47      BBDA745D 
  47      7FDA3112 
  47      28372043 
  47      09495389 
  48 00a3 676017E1 		.ascii	"g`\027\341M\251\320\322\224[\011\361\246-\362\031\234"
  48      4DA9D0D2 
  48      945B09F1 
  48      A62DF219 
  48      9C
  49 00b4 0505F818 		.ascii	"\005\005\370\030+6\364l\266\363\342`\263{\007%\031\312"
  49      2B36F46C 
  49      B6F3E260 
  49      B37B0725 
  49      19CA
  50 00c6 C978B163 		.ascii	"\311x\261cQ\2608\261\270\260\270\261x\260l\306\342\305"
  50      51B038B1 
  50      B8B0B8B1 
  50      78B06CC6 
  50      E2C5
  51 00d8 B2154B31 		.ascii	"\262\025K1\226mXJ\260l\307R\212\205\220$\247B\301\217"
  51      966D584A 
  51      B06CC752 
  51      8A859024 
  51      A742C18F 
  52 00ec 28C59125 		.ascii	"(\305\221%`\350\337\257\376hw#\373\"E\365\335\035g\342"
  52      60E8DFAF 
  52      FE687723 
  52      FB2245F5 
  52      DD1D67E2 
  53 0100 74816628 		.ascii	"t\201f(\015\267\006t\033j\235K\216\215;\305_\004\247"
  53      0DB70674 
  53      1B6A9D4B 
  53      8E8D3BC5 
  53      5F04A7
  54 0113 B7BB1742 		.ascii	"\267\273\027B,\012\221@\210;cp\016\312\340<\360|\340"
  54      2C0A9140 
  54      883B6370 
  54      0ECAE03C 
  54      F07CE0
  55 0126 02448124 		.ascii	"\002D\201$\240\341\205\"\341\230D\034oio\360\342r\006"
  55      A0E18522 
  55      E198441C 
  55      6F696FF0 
  55      E27206
  56 0139 04BEE79D 		.ascii	"\004\276\347\235\234\264\011\260\245\020\330\017\034"
  56      9CB409B0 
  56      A510D80F 
  56      1C
  57 0146 8C4310A9 		.ascii	"\214C\020\251p\321ThG9\221\343\245BMKN`\260g\350\265"
  57      70D15468 
ARM GAS  C:\Users\Bruger\AppData\Local\Temp\ccCnG3ii.s 			page 4


  57      473991E3 
  57      A5424D4B 
  57      4E60B067 
  58 015c 658C8B79 		.ascii	"e\214\213y\214\230E\220\011p\265\177\340\341&!\350\025"
  58      8C984590 
  58      0970B57F 
  58      E0E12621 
  58      E815
  59 016e 57F4A345 		.ascii	"W\364\243E\321z`\227\204 E\012\232\014_\001\211\351"
  59      D17A6097 
  59      8420450A 
  59      9A0C5F01 
  59      89E9
  60 0180 2C64A2C3 		.ascii	",d\242\303\024\360\334\024\340\222\375\275M\327\303"
  60      14F0DC14 
  60      E092FDBD 
  60      4DD7C3
  61 018f 0A0A001B 		.ascii	"\012\012\000\033\201\316\215&\362\223\020\3402\005D"
  61      81CE8D26 
  61      F29310E0 
  61      320544
  62 019e 4F9A02DC 		.ascii	"O\232\002\334|M,\365*!\"\246\337\3462\211\035\216\337"
  62      7C4D2CF5 
  62      2A2122A6 
  62      DFE63289 
  62      1D8EDF
  63 01b1 DBB40CF3 		.ascii	"\333\264\014\363s\036\246\313\022\212GBD\323]\342\035"
  63      731EA6CB 
  63      128A4742 
  63      44D35DE2 
  63      1D
  64 01c2 B3319EC9 		.ascii	"\2631\236\311/\026M\353\202u\013M\036\251)\261C\"n."
  64      2F164DEB 
  64      82750B4D 
  64      1EA929B1 
  64      43226E2E 
  65 01d6 B4A2C712 		.ascii	"\264\242\307\022\211W\366\317-\316\0159D$\357\020\350"
  65      8957F6CF 
  65      2DCE0D39 
  65      4424EF10 
  65      E8
  66 01e7 DD28FD65 		.ascii	"\335(\375eA\357\225\364\317L\372\255\205V\\\261\270"
  66      41EF95F4 
  66      CF4CFAAD 
  66      85565CB1 
  66      B8
  67 01f8 2F96FDF1 		.ascii	"/\226\375\361g-I&\354?\345\366\3736\312\337/\370\213"
  67      672D4926 
  67      EC3FE5F6 
  67      FB36CADF 
  67      2FF88B
  68 020b 25FF4B93 		.ascii	"%\377K\223\177[\241\025\003\026\373%\262\177z>x\323"
  68      7F5BA115 
  68      0316FB25 
  68      B27F7A3E 
  68      78D3
  69 021d 2DEC7B09 		.ascii	"-\354{\011\030\033\245\037\024\364%\346\216h\3552w\304"
ARM GAS  C:\Users\Bruger\AppData\Local\Temp\ccCnG3ii.s 			page 5


  69      181BA51F 
  69      14F425E6 
  69      8E68ED32 
  69      77C4
  70 022f 76BE66E0 		.ascii	"v\276f\340|\364/\020;\342\233\334\216\270s\253\247\317"
  70      7CF42F10 
  70      3BE29BDC 
  70      8EB873AB 
  70      A7CF
  71 0241 B10C3394 		.ascii	"\261\0143\224\207\371\325\242\251TB\304\243\013\035"
  71      87F9D5A2 
  71      A95442C4 
  71      A30B1D
  72 0250 36A18947 		.ascii	"6\241\211G2l\321\264.\330U\241\251\224L\0025[\263\235"
  72      326CD1B4 
  72      2ED855A1 
  72      A9944C02 
  72      355BB39D 
  73 0264 A97107DB 		.ascii	"\251q\007\333\015\250a\344\341\213\264\0071m[p\3322"
  73      0DA861E4 
  73      E18BB407 
  73      316D5B70 
  73      DA32
  74 0276 F5E8B988 		.ascii	"\365\350\271\210\335Nqz89q\316\276\363\264\256\007\347"
  74      DD4E717A 
  74      383971CE 
  74      BEF3B4AE 
  74      07E7
  75 0288 671A95B3 		.ascii	"g\032\225\263zh>\233}=C\025\270\006\214\037\222\020"
  75      7A683E9B 
  75      7D3D4315 
  75      B8068C1F 
  75      9210
  76 029a E72CD791 		.ascii	"\347,\327\221E\036\2457`'_\024\216d\372\305\316Q\262"
  76      451EA537 
  76      60275F14 
  76      8E64FAC5 
  76      CE51B2
  77 02ad 5CE74DFE 		.ascii	"\\\347M\376x\022\202\306\335\010\306\232j\353\035v\260"
  77      781282C6 
  77      DD08C69A 
  77      6AEB1D76 
  77      B0
  78 02be F704F591 		.ascii	"\367\004\365\221\331/\336\020\330zX?\005_\032\331\354"
  78      D92FDE10 
  78      D87A583F 
  78      055F1AD9 
  78      EC
  79 02cf FB083DB2 		.ascii	"\373\010=\262\026\364\212\003\332\270\037\247\310%\216"
  79      16F48A03 
  79      DAB81FA7 
  79      C8258E
  80 02de E83405CB 		.ascii	"\3504\005\313\361\015\277\341\243[\374t&0\312\317p>"
  80      F10DBFE1 
  80      A35BFC74 
  80      2630CACF 
  80      703E
ARM GAS  C:\Users\Bruger\AppData\Local\Temp\ccCnG3ii.s 			page 6


  81 02f0 152A30AD 		.ascii	"\025*0\255\324?\315\014\377D\231}m\327\304\033v\234"
  81      D43FCD0C 
  81      FF44997D 
  81      6DD7C41B 
  81      769C
  82 0302 5C75AE3A 		.ascii	"\\u\256:\004cc\2771l\303H\217\007\234\031\352\2041."
  82      046363BF 
  82      316CC348 
  82      8F079C19 
  82      EA84312E 
  83 0316 E9B6C874 		.ascii	"\351\266\310t\234g\232s&r\033\275\321\340g\037\011%"
  83      9C679A73 
  83      26721BBD 
  83      D1E0671F 
  83      0925
  84 0328 6D8D9703 		.ascii	"m\215\227\003Ekevg\315\314&\226\3255_z|\202\255t:\307"
  84      456B6576 
  84      67CDCC26 
  84      96D5355F 
  84      7A7C82AD 
  85 033f 9D4EE49D 		.ascii	"\235N\344\235R\353E\005\277\013\227w\205\241\331\330"
  85      52EB4505 
  85      BF0B9777 
  85      85A1D9D8 
  86 034f 911E91BB 		.ascii	"\221\036\221\273\2435g(z4\235)\372\237\203\311\274\203"
  86      A3356728 
  86      7A349D29 
  86      FA9F83C9 
  86      BC83
  87 0361 29AB83A3 		.ascii	")\253\203\243\363K\335\012+\027\026\202\203\247\232"
  87      F34BDD0A 
  87      2B171682 
  87      83A79A
  88 0370 72169ED8 		.ascii	"r\026\236\330\3039\013.\230\226\026\336*\2037\363\006"
  88      C3390B2E 
  88      989616DE 
  88      2A8337F3 
  88      06
  89 0381 EE89973E 		.ascii	"\356\211\227>}\372Is\021\222\363;\031\022\246\237\324"
  89      7DFA4973 
  89      1192F33B 
  89      1912A69F 
  89      D4
  90 0392 EC77EE95 		.ascii	"\354w\356\225~\276\036\241\270\300\364\303V\371\231"
  90      7EBE1EA1 
  90      B8C0F4C3 
  90      56F999
  91 03a1 117E6685 		.ascii	"\021~f\205\237\341\316\245\307\002\222Fr~\332g\376~"
  91      9FE1CEA5 
  91      C7029246 
  91      727EDA67 
  91      FE7E
  92 03b3 E9C9FB61 		.ascii	"\351\311\373ap?\277\313\037\240\037\344}\000\001\343"
  92      703FBFCB 
  92      1FA01FE4 
  92      7D0001E3 
  93 03c3 C4C7888F 		.ascii	"\304\307\210\217\352\222|w\360k\225\337\223\357~\250"
ARM GAS  C:\Users\Bruger\AppData\Local\Temp\ccCnG3ii.s 			page 7


  93      EA927C77 
  93      F06B95DF 
  93      93EF7EA8 
  94 03d3 D6AADA01 		.ascii	"\326\252\332\001\277ZU\261\327W\257U\252\373\313\367"
  94      BF5A55B1 
  94      D757AF55 
  94      AAFBCBF7 
  95 03e3 FAF6ECDE 		.ascii	"\372\366\354\336\277G;P\373\331>\255\372\340AU\253\370"
  95      BF473B50 
  95      FBD93EAD 
  95      FAE04155 
  95      ABF8
  96 03f5 A0BEA6E6 		.ascii	"\240\276\246\346\363\212}\3255\252\366v%Q\352T\255\332"
  96      F38A7DD5 
  96      35AAF676 
  96      2551EA54 
  96      ADDA
  97 0407 57E59643 		.ascii	"W\345\226C\205_\255\251sT\372\352k\375\252VT\215U\253"
  97      855FADA9 
  97      7354FAEA 
  97      6BFDAA56 
  97      548D55AB 
  98 041b AFF37FE2 		.ascii	"\257\363\177\342\253R\377\003\343\026\341\233"
  98      AB52FF03 
  98      E316E19B 
  99              		.text
 100              		.section	.gnu.lto_CrankTrigger_Dummy_Timer_Enable.1d797689,"",%progbits
 101 0000 789C7D92 		.ascii	"x\234}\222=K\303`\020\200\357.5\264\024\2558\225\216"
 101      3D4BC360 
 101      1080EF2E 
 101      35B414AD 
 101      38958E
 102 0013 2E6E0EA2 		.ascii	".n\016\242\277@\301MD\035\205Rj\020\221*\004\035\234"
 102      BF40C14D 
 102      441D8552 
 102      6A10912A 
 102      041D9C
 103 0026 4CB0E2C7 		.ascii	"L\260\342\307\244\035\244 \025E\244j\253\321\252 N\245"
 103      A41DA420 
 103      1545A46A 
 103      ABD1AA20 
 103      4EA5
 104 0038 8375F16B 		.ascii	"\203u\361k\020\241\240.\025\353\246V*\025D\357M\252"
 104      10A1A02E 
 104      15EBA656 
 104      2A1544EF 
 104      4DAA
 105 004a 428B0672 		.ascii	"B\213\006r\227\217\273\347\236\344}%\250<<|v\021@3g"
 105      978FBBE7 
 105      9EE47D25 
 105      A83C3C7C 
 105      76114033 
 106 005f 940069EE 		.ascii	"\224\000i\356\014@\267\023\242\270\000\204q\302q|\244"
 106      0C40B713 
 106      A2B80084 
 106      71C2717C 
 106      A4
ARM GAS  C:\Users\Bruger\AppData\Local\Temp\ccCnG3ii.s 			page 8


 107 0070 67C2B964 		.ascii	"g\302\271d,\354lX\3234\355)u\343\236t\027\271-O\026"
 107      2CEC6C58 
 107      D334ED29 
 107      75E39E74 
 107      17B92D4F 
 108 0085 06A3D800 		.ascii	"\006\243\330\000\\\363\034\374\270v\312A\256\251\265"
 108      5CF31CFC 
 108      B876CA41 
 108      AEA9B5
 109 0094 DEE13ACA 		.ascii	"\336\341:\312\310\331\250Kj\237\237\371Bh\272^r\022"
 109      C8D9A84B 
 109      6A9F9FF9 
 109      4268BA5E 
 109      7212
 110 00a6 14898771 		.ascii	"\024\211\207q\250\022A\026\301.\202C\004\200,w\212\361"
 110      A8124116 
 110      C12E8243 
 110      04802C77 
 110      8AF1
 111 00b8 F744224B 		.ascii	"\367D\"K\031L\025f\217\215\013\024\2647\0222\247\261"
 111      194C1566 
 111      8F8D0B14 
 111      B4371232 
 111      A7B1
 112 00ca 935B578E 		.ascii	"\223[W\216\212D\253S\272f\023\263\357\262\347\227v\363"
 112      8A44AB53 
 112      BA6613B3 
 112      EFB2E797 
 112      76F3
 113 00dc 1188DBF8 		.ascii	"\021\210\333\370\302\301JM\004\027\365 \026I\302\015"
 113      C2C14A4D 
 113      0417F520 
 113      1649C20D 
 114 00ec F4E026F2 		.ascii	"\364\340&\362\347b\014#\010\031\234x\225-\234d\021\217"
 114      E7620C23 
 114      08199C78 
 114      952D9C64 
 114      118F
 115 00fe 42276159 		.ascii	"B'aY\264\243\0150\316\225<5dN\374\017\266\3050F\200"
 115      B4A30D30 
 115      CE953C35 
 115      644EFC0F 
 115      B6C53046 
 116 0113 A9786664 		.ascii	"\251xfdJ\212U\334\023z\230y\2516}\366\276\025\257\336"
 116      4A8A55DC 
 116      137A9879 
 116      A9367DF6 
 116      BE15AFDE 
 117 0127 9775D72F 		.ascii	"\227u\327/f\373\007c\2249\011D\205\304\237\335;\246"
 117      66FB0763 
 117      94390944 
 117      85C49FDD 
 117      3BA6
 118 0139 846C4914 		.ascii	"\204lI\024\214\375\222\204\235{\016\023\3214\231\022"
 118      8CFD9284 
 118      9D7B0E13 
 118      D1349912 
ARM GAS  C:\Users\Bruger\AppData\Local\Temp\ccCnG3ii.s 			page 9


 119 0149 E1A592C4 		.ascii	"\341\245\222\304\305a.(\375bv\1770\2112\011\207\205"
 119      C5612E28 
 119      FD62767F 
 119      30893209 
 119      8785
 120 015b 48477209 		.ascii	"HGr\011\233\371c\020p\257\314\351O\330\276\351\344\200"
 120      9BF96310 
 120      70AFCCE9 
 120      4FD8BEE9 
 120      E480
 121 016d 5BD493F3 		.ascii	"[\324\223\363\035\242Z\354\223,//\257(\257PS\2732\244"
 121      1DA25AEC 
 121      932C2F2F 
 121      AF28AF50 
 121      53BB32A4 
 122 0181 A8BE11A5 		.ascii	"\250\276\021\245\317\333=<\252\372\225\336\316\356\341"
 122      CFDB3D3C 
 122      AAFA95DE 
 122      CEEEE1
 123 0190 D696DE56 		.ascii	"\326\226\336V\32574\330\243\016\364\367+\252\267m4\020"
 123      D53734D8 
 123      A30EF4F7 
 123      2BAAB76D 
 123      3410
 124 01a2 18F3F60C 		.ascii	"\030\363\366\014\004\024\265\321\017_\327\220\334o"
 124      0414B5D1 
 124      0F5FD790 
 124      DC6F
 125              		.text
 126              		.section	.gnu.lto_CrankTrigger_Dummy_Timer_Start.1d797689,"",%progbits
 127 0000 789C7D93 		.ascii	"x\234}\223\337KSQ\034\300\277\337s\256ws[\031=\211\017"
 127      DF4B5351 
 127      1CC0BFDF 
 127      73AE7773 
 127      5B193D89 
 128 0015 7BF5ADC0 		.ascii	"{\365\255\300\352/0\350\261@\037\205!6Db\012\227|\350"
 128      EA2F30E8 
 128      B1401F85 
 128      21364462 
 128      0A977CE8 
 129 0029 61786F5B 		.ascii	"axo[\366\203\010\331\012F\345^$\265\226\256\266\231"
 129      F68308D9 
 129      0A46E55E 
 129      24B596AE 
 129      B699
 130 003b 362B2E41 		.ascii	"6+.A\271\227f\022\225\214\261^\224\364ms\245\214\020"
 130      B9976612 
 130      958CB15E 
 130      94F46D73 
 130      A58C10
 131 004e FB9E73E7 		.ascii	"\373\236s\347\322\311\032\334\357\271;\367\373\375\234"
 131      D2C91ADC 
 131      EFB93BF7 
 131      FBFD9C
 132 005d CFF9DE73 		.ascii	"\317\371\336s9\034\375\235\241+\312\001\316\322\210"
 132      391CFD9D 
 132      A12BCA01 
ARM GAS  C:\Users\Bruger\AppData\Local\Temp\ccCnG3ii.s 			page 10


 132      CED288
 133 006c 4D806C2C 		.ascii	"M\200l,\013`\330\031\343i7\350\016\345\333i\320]\034"
 133      0B60D819 
 133      E36937E8 
 133      0EE5DB69 
 133      D05D1C
 134 007f 156B5A41 		.ascii	"\025kZA\0247\2000\302\270\202#\270\311J\014\307\314"
 134      14378030 
 134      C2B88223 
 134      B8C94A0C 
 134      C7CC
 135 0091 58C4D9FE 		.ascii	"X\304\331\376D\327\365\342\326\357\326\033\255\025\006"
 135      44D7F5E2 
 135      D6EFD61B 
 135      AD1506
 136 00a0 5066161F 		.ascii	"Pf\026\037\247\260\035(\247\024\334\375\356T\203\224"
 136      A7B01D28 
 136      A714DCFD 
 136      EE548394 
 137 00b0 73C27A86 		.ascii	"s\302z\206\323\250\"\215\361\223\246\276\267\227\314"
 137      D3A8228D 
 137      F193A6BE 
 137      B797CC
 138 00bf 87331DBC 		.ascii	"\2073\035\274\205C\205\241M\004\273\010\315\"8Dp\212"
 138      854385A1 
 138      4D04BB08 
 138      CD223844 
 138      708A
 139 00d1 E0120160 		.ascii	"\340\022\001`\215\312\205\305:cb\3449\274\036*\345\303"
 139      8DCA85C5 
 139      3A6362E4 
 139      39BC1E2A 
 139      E5C3
 140 00e3 4E41DC61 		.ascii	"NA\334a\234\026\213~\2717\313\374\177\364[\272\275\302"
 140      9C168B7E 
 140      B937CBFC 
 140      7FF45BBA 
 140      BDC2
 141 00f5 D8AE588E 		.ascii	"\330\256X\216f\177\254-\257\3307\030\315\310\277\323"
 141      667FAC2D 
 141      AFD83718 
 141      CDC8BFD3 
 142 0105 46F0318E 		.ascii	"F\3601\216\343#C\027Y\034\237\242\037\237a\033\231\305"
 142      E3234317 
 142      591C9FA2 
 142      1F9F611B 
 142      99C5
 143 0117 681ABE62 		.ascii	"h\032\276bp5\340\376\3074&\027\357\332D5\031\340s\221"
 143      7035E0FE 
 143      C7342617 
 143      EFDA4435 
 143      19E07391 
 144 012b 07428143 		.ascii	"\007B\201C\332\315\363\0300w\262.\221\014\365\313+e"
 144      DACDF318 
 144      3077B22E 
 144      910CF5CB 
 144      2B65
ARM GAS  C:\Users\Bruger\AppData\Local\Temp\ccCnG3ii.s 			page 11


 145 013d 5931837E 		.ascii	"Y1\203~\262o\002\222-\026\013\023R\266\241i\275\332"
 145      B26F0292 
 145      2D160B13 
 145      52B6A169 
 145      BDDA
 146 014f 6C4D2D4E 		.ascii	"lM-N\323\224\260\362p2\320\"d8\002\276\2202\353L\251"
 146      D394B0F2 
 146      7032D022 
 146      643802BE 
 146      9032EB4C 
 147 0164 76E3FDF6 		.ascii	"v\343\375\366\235\217\361\317x\250\351fx\231\311\226"
 147      9D8FF1CF 
 147      78A8E966 
 147      7899C996 
 148 0174 9769F775 		.ascii	"\227i\367u\257\003_\2226`B\354\324F\317>\3052\005\011"
 148      AF035F92 
 148      366042EC 
 148      D446CF3E 
 148      C5320509 
 149 0188 57276E1A 		.ascii	"W'n\032\272r\250u\252\364\373\020\316\2326\341w\337"
 149      BA72A875 
 149      AAF4FB10 
 149      CE9A36E1 
 149      77DF
 150 019a 203F1B26 		.ascii	" ?\033&\261\015S\322oN\264.\207\201_\243B\301b\332-"
 150      B10D53D2 
 150      6F4EB42E 
 150      87815FA3 
 150      42C162DA 
 151 01af 6C3A9489 		.ascii	"l:\224\211\250\262\201\012\340+\312&\323\220L\371/q"
 151      A8B2810A 
 151      E02BCA26 
 151      D3904CF9 
 151      2F71
 152 01c1 9E88C400 		.ascii	"\236\210\304\000\271\257l<W\2056SQ\350\347\355\255c"
 152      B9AF6C3C 
 152      57853653 
 152      51E8E7ED 
 152      AD63
 153 01d3 D22AB92F 		.ascii	"\322*\271/\2729?\232:~\200\263P\343\274\3367S-\200\203"
 153      BA393F9A 
 153      3A7E80B3 
 153      50E3BCDE 
 153      37532D80 
 154 01e8 1847341A 		.ascii	"\030G4\032\227\247\245\206\303\322\330\216\247\252\032"
 154      97A7A586 
 154      C3D2D88E 
 154      A7AA1A
 155 01f7 4E2A5A48 		.ascii	"N*ZHL-1\251\021\211V5fV\347t\373\001\316b\215\363\246"
 155      4C2D31A9 
 155      11895635 
 155      6656E774 
 155      FB01CE62 
 156 020e 4EC36531 		.ascii	"N\303e1\226\3067\022\212l\016\275\320\267uV\215i\357"
 156      96C63712 
 156      8A6C0EBD 
 156      D0B77556 
ARM GAS  C:\Users\Bruger\AppData\Local\Temp\ccCnG3ii.s 			page 12


 156      8D69EF
 157 0221 A4950B0A 		.ascii	"\244\225\013\012h\230\017.\312\363\007\342\003Aq\024"
 157      68980F2E 
 157      CAF307E2 
 157      03417114 
 158 0231 E830755C 		.ascii	"\3500u\\\360\016z\265\336\253\336\313\236\256\241a\255"
 158      F00E7AB5 
 158      DEABDECB 
 158      9EAEA161 
 158      AD
 159 0242 CFDB73A9 		.ascii	"\317\333s\251k\250\363\\O\247\326;x\245[\033\350\357"
 159      6BA8F35C 
 159      4FA7D63B 
 159      78A55B1B 
 159      E8EF
 160 0254 F76A9EF3 		.ascii	"\367j\236\363\303>\3375O\367\200\317\253\235\352\203"
 160      C33EDF35 
 160      4FF780CF 
 160      AB9DEA83 
 161 0264 BF76A658 		.ascii	"\277v\246X-"
 161      2D
 162              		.text
 163              		.section	.gnu.lto_CrankTrigger_Dummy_Timer_Stop.1d797689,"",%progbits
 164 0000 789C7D92 		.ascii	"x\234}\222\273K\303p\020\200\357.\032Z\212\017\234\244"
 164      BB4BC370 
 164      1080EF2E 
 164      1A5A8A0F 
 164      9CA4
 165 0012 A38B9B83 		.ascii	"\243\213\233\203\350_\240\340*\332Q(E\203\210T!\350"
 165      E85FA0E0 
 165      2ADA5128 
 165      45838854 
 165      21E8
 166 0024 E0648211 		.ascii	"\340d\202\021\321\311*\250 \212\"R\265\365\331\012n"
 166      D1C92AA8 
 166      208A2252 
 166      B5F5D90A 
 166      6E
 167 0035 5641EDE2 		.ascii	"VA\355\342k\020\241C]*\326\315\007\250\361}\277\244"
 167      6B10A143 
 167      5D2AD6CD 
 167      07A8F17D 
 167      BFA4
 168 0047 5A68D140 		.ascii	"Zh\321@\356\362\270\373\356\013\027\011\362\0177\237"
 168      EEF2B8FB 
 168      EE0B1709 
 168      F20F379F 
 169 0057 1E02A8E1 		.ascii	"\036\002\250\341\214\022 \215\236\000\350\016B\024\027"
 169      8C12208D 
 169      9E00E80E 
 169      421417
 170 0066 80D04FD8 		.ascii	"\200\320O\330\217\267tO8\032\013M\271*\0275M\273{\370"
 170      8FB7744F 
 170      381A0B4D 
 170      B92A1735 
 170      4DBB7BF8 
 171 007a 281F2C37 		.ascii	"(\037,7\271\355\221l\014\006\261\022\270\346\336\370"
ARM GAS  C:\Users\Bruger\AppData\Local\Temp\ccCnG3ii.s 			page 13


 171      B9ED916C 
 171      0C06B112 
 171      B8E6DEF8 
 172 008a B874C906 		.ascii	"\270t\311\006\327\224\332\357p\011e\344\274^\026\323"
 172      D794DAEF 
 172      700965E4 
 172      BC5E16D3 
 173 009a BEBE22EF 		.ascii	"\276\276\"\357\343\351\212\002\027\201I<\214C\241\010"
 173      E3E98A02 
 173      1781493C 
 173      8C43A108 
 174 00aa B2080E11 		.ascii	"\262\010\016\021\234\"\000\244\270S\214\277&\022YJ\340"
 174      9C2200A4 
 174      B8538CBF 
 174      2612594A 
 174      E0
 175 00bb FED34872 		.ascii	"\376\323Hr7\212\202\366LBfg+xDi2\211\246fu\255@\314"
 175      378A82F6 
 175      4C426667 
 175      2B784469 
 175      3289A666 
 176 00d3 BE4A9D9E 		.ascii	"\276J\235\236;\254G n\317v\322\2064\203\323\272\201"
 176      3BAC4720 
 176      6ECF76D2 
 176      863483D3 
 176      BA81
 177 00e5 2649B88C 		.ascii	"&I\270\214n\\A\376\\\014\341\014B\002\007^d\033'\331"
 177      6E5C41FE 
 177      5C0CE10C 
 177      4202075E 
 177      641B27D9 
 178 00f9 C440203A 		.ascii	"\304@ :[,\332\245O\004\014s)\217\035\263F\376G[e\032"
 178      5B2CDAA5 
 178      4F040C73 
 178      298F1DB3 
 178      46FE475B 
 179 010f 33C0723C 		.ascii	"3\300r<\214\237e\034\013\271\3478\024O\226XB\013C\031"
 179      8C9F651C 
 179      0BB9E738 
 179      144F9658 
 179      420B4319 
 180 0123 C7F0C4F6 		.ascii	"\307\360\304\366|q\026\263\366\213Y\317\221\312 \202"
 180      7C7116B3 
 180      F68B59CF 
 180      91CA2082 
 181 0133 07377B45 		.ascii	"\0077{E\226\324\033Km\344H\375I\333\264\244d[\352$\236"
 181      96D41B4B 
 181      6DE448FD 
 181      49DBB4A4 
 181      645BEA24 
 182 0148 C84839B8 		.ascii	"\310H9\270g\354f\370\301\"R\344G\352\342uN/\311b\266"
 182      67EC66F8 
 182      C12252E4 
 182      47EAE275 
 182      4E2FC962 
 183 015d 7E31911C 		.ascii	"~1\221\034)'#\362$\376\354\216Z\022NH\242\036\233l\022"
 183      292723F2 
ARM GAS  C:\Users\Bruger\AppData\Local\Temp\ccCnG3ii.s 			page 14


 183      24FEEC8E 
 183      5A124E48 
 183      A21E9B6C 
 184 0172 D5E24F49 		.ascii	"\325\342OI\361\202y\247\274\243\352\006\245KQ}=J\233"
 184      F18279A7 
 184      BCA3EA06 
 184      A54B517D 
 184      3D4A9B
 185 0185 B7B9BB57 		.ascii	"\267\271\273WmUZ\032\233\273\353j[\352T_W\247G\355h"
 185      6D555A1A 
 185      9BBBEB6A 
 185      5BEA545F 
 185      57A747ED 
 186 019a 6F57546F 		.ascii	"oWTo}\257\337\337\347\365t\370\025\265\252\025\276\001"
 186      7DAFDFDF 
 186      E7F574F8 
 186      15B5AA15 
 186      BE01
 187 01ac 038ADF17 		.ascii	"\003\212\337\027"
 188              		.text
 189              		.section	.gnu.lto_CrankTrigger_Dummy_Timer_SetInterruptMode.1d797689,"",%progbits
 190 0000 789C6590 		.ascii	"x\234e\220?HBQ\024\306\317\271\317Dz\010\321To\027\011"
 190      3F484251 
 190      14C6CFB9 
 190      CF447A08 
 190      D1546F17 
 191 0015 C221708F 		.ascii	"\302!p\217\014\232\202HGAD/\"\241\306E\207&\357\013"
 191      0C9A8248 
 191      4741442F 
 191      22A1C645 
 191      8726EF0B 
 192 0029 9B33C808 		.ascii	"\2333\310\010D\227\212\376\330\237\301\245\361\021\015"
 192      44978AFE 
 192      D89FC1A5 
 192      F1110D
 193 0038 D1503405 		.ascii	"\321P4\005!\025ad\213\244Q\361\006\261ss\354\302\345"
 193      21156164 
 193      8BA451F1 
 193      06B17373 
 193      ECC2E5
 194 004b 9C7BF8BE 		.ascii	"\234{\370\276\337\375\356\325\340\3772h\017#\300\014"
 194      DFFDEED5 
 194      E0FF3268 
 194      0F23C00C 
 195 005b 55D40059 		.ascii	"U\324\000Y\361\006\300t1D\325\000B\236a\036\337Y\207"
 195      F106C074 
 195      3144D500 
 195      429E611E 
 195      DF5987
 196 006e 61D1AA6D 		.ascii	"a\321\252m\353\336=)\345G\2674\2766f3\200O6\300\340"
 196      EBDE3D29 
 196      E547B734 
 196      BE366633 
 196      804F36C0 
 197 0083 3E7A49B2 		.ascii	">zI\262\376\334;wj~\004\352\257\273\337m\346\331\221"
 197      FEDC3B77 
 197      6A7E04EA 
ARM GAS  C:\Users\Bruger\AppData\Local\Temp\ccCnG3ii.s 			page 15


 197      AFBBDF6D 
 197      E6D991
 198 0096 72D56A9F 		.ascii	"r\325j\237\312i\264\211y\200\0329p\322\300\011\003h"
 198      CA69B489 
 198      79801A39 
 198      70D2C009 
 198      0368
 199 00a8 0078881E 		.ascii	"\000x\210\036%\356\024z\367\272\263@\354\221\001\023"
 199      25EE147A 
 199      F7BAB340 
 199      EC910113 
 200 00b8 8FD049B1 		.ascii	"\217\320I\261\340l\324\222\375~\275\261y\345s8\210\240"
 200      E06CD492 
 200      FD7EBDB1 
 200      79E57338 
 200      88A0
 201 00ca F4D02485 		.ascii	"\364\320$\205\212\367\312\230\252\332\003^lu\032\273"
 201      8AF7CA98 
 201      AADA035E 
 201      6C751ABB 
 202 00da BA3211EC 		.ascii	"\2722\021\354\262\336{s\267\230\315X\271jJ\207\342?"
 202      B2DE7B73 
 202      B798CD58 
 202      B96A4A87 
 202      E23F
 203 00ec 356FEF5C 		.ascii	"5o\357\\\177#P\307\215\227RK\257`\331,\230\326\220\315"
 203      7F2350C7 
 203      8D97524B 
 203      AF60D92C 
 203      98D690CD 
 204 0100 34ACA181 		.ascii	"4\254\241\201\307H\237\201'X\301\037\222=\242i}-*\242"
 204      C7489F81 
 204      2758C11F 
 204      923DA269 
 204      7D2D2AA2 
 205 0114 7A5F93B2 		.ascii	"z_\223\262\322M\344\236\232\343i.\242Y\036\217\0043"
 205      D24DE49E 
 205      9AE3692E 
 205      A2591E8F 
 205      0433
 206 0126 3911E3E1 		.ascii	"9\021\343\341\205`&\340\017\007D4\275\024\022\311D\202"
 206      856026E0 
 206      0F074434 
 206      BD1412C9 
 206      4482
 207 0138 8BC86C2E 		.ascii	"\213\310l.\225Z\211\204\222).|1p'\323Y.Dn9;\237\211"
 207      955A8984 
 207      92292E7C 
 207      317027D3 
 207      592E446E 
 208 0150 F35F2337 		.ascii	"\363_#7x\211"
 208      7889
 209              		.text
 210              		.section	.gnu.lto_CrankTrigger_Dummy_Timer_SoftwareCapture.1d797689,"",%progbits
 211 0000 789C6366 		.ascii	"x\234cf\300\004R@|\036\210M\200\230\221\231\201\221"
 211      C0045240 
 211      7C1E884D 
ARM GAS  C:\Users\Bruger\AppData\Local\Temp\ccCnG3ii.s 			page 16


 211      80989199 
 211      8191
 212 0012 69C23906 		.ascii	"i\3029\006\206F\016&FF\020\203\201\221\241\236\211\261"
 212      86460E26 
 212      46461083 
 212      8191A19E 
 212      89B1
 213 0024 9EF125D3 		.ascii	"\236\361%\323G&\306\011\007V\317\340V_\332\320\320\360"
 213      4726C609 
 213      0756CFE0 
 213      565FDAD0 
 213      D0F0
 214 0036 E1D16CC9 		.ascii	"\341\321l\311V\211\237L\014\014\237\231 \3060.gTg\000"
 214      56899F4C 
 214      0C0C9F99 
 214      20C6302E 
 214      67546700 
 215 004a AAF9D8F2 		.ascii	"\252\371\330\362\367:7[\013P\215\000D\216q\005#\033"
 215      F73A375B 
 215      0B508D00 
 215      448E7105 
 215      231B
 216 005c 23905E2F 		.ascii	"#\220^/t\240\341\377\377\317\357\247\274\260fafb\370"
 216      74A0E1FF 
 216      FFCFEFA7 
 216      BCB06661 
 216      6662F8
 217 006f C904147C 		.ascii	"\311\004\024|\002T\000\262\345)\023\023\210f\276\305"
 217      025400B2 
 217      E5291313 
 217      8866BEC5 
 218 007f 78E85BD7 		.ascii	"x\350[\327\265sF =\337\231@V\336Y\337\275\223\375\005"
 218      B5734620 
 218      3DDF9940 
 218      56DE59DF 
 218      BD93FD05 
 219 0093 D34F26A6 		.ascii	"\323O&\246y\363\032\033X@6\334\177r\376\"\007X\210\001"
 219      79F31A1B 
 219      584036DC 
 219      7F72FE22 
 219      07588801 
 220 00a7 C4DD7666 		.ascii	"\304\335vf\303u\316\271\214\263\033[\030\177213\256"
 220      C375CEB9 
 220      8CB31B5B 
 220      187F3231 
 220      33AE
 221 00b9 6494625C 		.ascii	"d\224b\\\305\010\364\024\343j\306\271\214\014\367\030"
 221      C508F414 
 221      E36AC6B9 
 221      8C0CF718 
 222 00c9 1B0FDC0F 		.ascii	"\033\017\334\017\006\231\007r\344\023\240\245@{\200"
 222      06990772 
 222      E413A0A5 
 222      407B80
 223 00d8 1A8DDC53 		.ascii	"\032\215\334S\363R\213\022KRS\342\203\363K\213\222S"
 223      F3528B12 
 223      4B5253E2 
ARM GAS  C:\Users\Bruger\AppData\Local\Temp\ccCnG3ii.s 			page 17


 223      83F34B8B 
 223      9253
 224 00ea 630282F3 		.ascii	"c\002\202\363\235Mc\234\213\022\363\262C\2122\323\323"
 224      9D4D639C 
 224      8B12F3B2 
 224      438A32D3 
 224      D3
 225 00fb 538BE25D 		.ascii	"S\213\342]Jss+\343C2sS\213\364\222\031\000Pg_}"
 225      4A73732B 
 225      E3433273 
 225      538BF492 
 225      19005067 
 226              		.text
 227              		.section	.gnu.lto_CrankTrigger_Dummy_Timer_ReadStatusRegister.1d797689,"",%progbits
 228 0000 789C6366 		.ascii	"x\234cf\300\004R@|\035\210M\200\230\221\231\201\221"
 228      C0045240 
 228      7C1D884D 
 228      80989199 
 228      8191
 229 0012 69C23906 		.ascii	"i\3029\006\206F\016&FF\020\203\201\221\241\236\211\261"
 229      86460E26 
 229      46461083 
 229      8191A19E 
 229      89B1
 230 0024 9EF125D3 		.ascii	"\236\361%\323G&\3063;\377]fT_\332\320\320\364\341\322"
 230      4726C633 
 230      3BFF5D66 
 230      545FDAD0 
 230      D0F4E1D2 
 231 0038 E6D4E953 		.ascii	"\346\324\351S\022~210|fb`\324\221b\324\004\231\303\270"
 231      127E3231 
 231      307C6662 
 231      60D49162 
 231      D40499C3 
 232 004d 9C519D01 		.ascii	"\234Q\235\001\250\360c\313\337\353\334l-\015\015\015"
 232      A8F063CB 
 232      DFEBDC6C 
 232      2D0D0D0D 
 233 005d 022079A0 		.ascii	"\002 y\240\304\012F6F \275^\350@\303\377\377\233\317"
 233      C40A4636 
 233      4620BD5E 
 233      E840C3FF 
 233      FF9BCF
 234 0070 4FEDD062 		.ascii	"O\355\320befb\000\351gx\002$@V=eb\002\321\314\267\030"
 234      65666200 
 234      E9677802 
 234      2440563D 
 234      656202D1 
 235 0087 0F7DEBFA 		.ascii	"\017}\353\372w\223\013\244\347;\023\310\336#\233\377"
 235      77930BA4 
 235      E73B13C8 
 235      DE239BFF 
 236 0097 3EE77DC1 		.ascii	">\347}\301\364\223\211q\366\274\306\006\026\220\015"
 236      F4938971 
 236      F6BCC606 
 236      16900D
 237 00a6 F79F9CBF 		.ascii	"\367\237\234\277\310\001\026b\000q'>\232\372\202{.\343"
ARM GAS  C:\Users\Bruger\AppData\Local\Temp\ccCnG3ii.s 			page 18


 237      C8011662 
 237      0071273E 
 237      9AFA827B 
 237      2EE3
 238 00b8 ECC696C6 		.ascii	"\354\306\226\306\003\262?\231\230\030W2J1\256b\004\272"
 238      03B23F99 
 238      98185732 
 238      4A31AE62 
 238      04BA
 239 00ca 897135E3 		.ascii	"\211q5\343\\F\206{\214\215\015\334P\003\301V2\202\254"
 239      5C46867B 
 239      8C8D0DDC 
 239      5003C156 
 239      3282AC
 240 00dd 02328DDC 		.ascii	"\0022\215\334S\363R\213\022KRS\342\203\363K\213\222"
 240      53F3528B 
 240      124B5253 
 240      E283F34B 
 240      8B92
 241 00ef 53630282 		.ascii	"Sc\002\202\363\235Mc\234\213\022\363\262C\2122\323\323"
 241      F39D4D63 
 241      9C8B12F3 
 241      B2438A32 
 241      D3D3
 242 0101 538BE25D 		.ascii	"S\213\342]Jss+\343C2sS\213\364\222\031\000\005\223b"
 242      4A73732B 
 242      E3433273 
 242      538BF492 
 242      19000593 
 243 0116 AE       		.ascii	"\256"
 244              		.text
 245              		.section	.gnu.lto_CrankTrigger_Dummy_Timer_ReadControlRegister.1d797689,"",%progbits
 246 0000 789C6366 		.ascii	"x\234cf\300\004R@|\035\210M\200\230\221\231\201\221"
 246      C0045240 
 246      7C1D884D 
 246      80989199 
 246      8191
 247 0012 69C23906 		.ascii	"i\3029\006\206F\016&FF\020\203\201\221\241\236\211\261"
 247      86460E26 
 247      46461083 
 247      8191A19E 
 247      89B1
 248 0024 9EF125D3 		.ascii	"\236\361%\323G&\3063;\377]fT_\332\320\320\364\341\320"
 248      4726C633 
 248      3BFF5D66 
 248      545FDAD0 
 248      D0F4E1D0 
 249 0038 CEBBDCAD 		.ascii	"\316\273\334\255\022?\231\030\030>310\352H1j\202\314"
 249      123F9918 
 249      183E3331 
 249      30EA4831 
 249      6A82CC
 250 004b 615CCEA8 		.ascii	"a\\\316\250\316\000T\370\261\345\357un\266\226\206\206"
 250      CE0054F8 
 250      B1E5EF75 
 250      6EB69686 
 250      86
ARM GAS  C:\Users\Bruger\AppData\Local\Temp\ccCnG3ii.s 			page 19


 251 005c 0601903C 		.ascii	"\006\001\220<Pb\005#\033#\220^/t\240\341\377\377\317"
 251      50620523 
 251      1B23905E 
 251      2F74A0E1 
 251      FFFFCF
 252 006f CFA6BE30 		.ascii	"\317\246\2760cefb\000\351gx\002$@V=eb\002\321\314\267"
 252      63656662 
 252      00E96778 
 252      02244056 
 252      3D656202 
 253 0086 180F7DEB 		.ascii	"\030\017}\353\372w\307\010\244\347;\023\310\336\035"
 253      FA77C708 
 253      A4E73B13 
 253      C8DE1D
 254 0095 9B961F67 		.ascii	"\233\226\037gz\301\364\223\211q\306\274\306\006\026"
 254      7AC1F493 
 254      8971C6BC 
 254      C60616
 255 00a4 900DF79F 		.ascii	"\220\015\367\237\234\277\310\001\026b\000q/\354x\321"
 255      9CBFC801 
 255      16620071 
 255      2FEC78D1 
 256 00b4 C23C9771 		.ascii	"\302<\227qvcK\343\001\315\237LL\214+\031\245\030W1\002"
 256      76634BE3 
 256      01CD9F4C 
 256      4C8C2B19 
 256      A5185731 
 257 00c9 DDC4B89A 		.ascii	"\335\304\270\232q.#\303=\306\306\006c\250\201`+\031"
 257      712E23C3 
 257      3DC6C606 
 257      63A88160 
 257      2B19
 258 00db 41560199 		.ascii	"AV\001\231F\356\251y\251E\211%\251)\361\301\371\245"
 258      46EEA979 
 258      A9458925 
 258      A929F1C1 
 258      F9A5
 259 00ed 45C9A931 		.ascii	"E\311\2511\001\301\371\316\2461\316E\211y\331!E\231"
 259      01C1F9CE 
 259      A631CE45 
 259      8979D921 
 259      4599
 260 00ff E9E9A945 		.ascii	"\351\351\251E\361.\245\271\271\225\361!\231\271\251"
 260      F12EA5B9 
 260      B995F121 
 260      99B9A9
 261 010e 457AC90C 		.ascii	"Ez\311\014\000\375\361b\306"
 261      00FDF162 
 261      C6
 262              		.text
 263              		.section	.gnu.lto_CrankTrigger_Dummy_Timer_WriteControlRegister.1d797689,"",%progbits
 264 0000 789C6590 		.ascii	"x\234e\220?HBQ\024\306\317w\237\230\342\022M\371\306"
 264      3F484251 
 264      14C6CF77 
 264      9F98E212 
 264      4DF9C6
 265 0013 40248886 		.ascii	"@$\210\206\300\255!0h\015l\012A\304\036\"\245\017\036"
ARM GAS  C:\Users\Bruger\AppData\Local\Temp\ccCnG3ii.s 			page 20


 265      C0AD2130 
 265      680D6C0A 
 265      41C41E22 
 265      A50F1E
 266 0026 3A34F95E 		.ascii	":4\371^\274v\011\014!l\011\263\262?\244\213[\217\210"
 266      BC76090C 
 266      216C09B3 
 266      B23FA48B 
 266      5B8F88
 267 0039 6AEACF14 		.ascii	"j\352\317\0244\324b`[\322\020O(;7\307.\\\316\271\207"
 267      34D46260 
 267      5BD2104F 
 267      283B37C7 
 267      2E5CCEB9 
 268 004e EFFBDDEF 		.ascii	"\357\373\335\357^\205\376/\225\267\037D\263\\\241\020"
 268      5E85FE2F 
 268      95B71F44 
 268      B35CA110 
 269 005e 44E98EC8 		.ascii	"D\351\216\310\362\011@6\004*\012\024\361.z\002%\247"
 269      F2094036 
 269      042A0A14 
 269      F12E7A02 
 269      25A7
 270 0070 5109846B 		.ascii	"Q\011\204k\246i~4/\202\233\343\256 \372\024C\014\352"
 270      A6697E34 
 270      2F829BE3 
 270      AE20FA14 
 270      430CEA
 271 0083 08B364FF 		.ascii	"\010\263d\377\352ZU\" n\373\255\255\206?\264g\232\033"
 271      EA5A5522 
 271      206EFBAD 
 271      AD863FB4 
 271      679A1B
 272 0096 4EFFD49C 		.ascii	"N\377\324\234\203\313\310\003(l\300\224\212I\225x@8"
 272      83CBC803 
 272      286CC094 
 272      8A499578 
 272      4038
 273 00a8 44488A7B 		.ascii	"DH\212{\366\367S\300k3zt\210\304\021\274\234\212\316"
 273      F6F753C0 
 273      6B337A74 
 273      88C411BC 
 273      9C8ACE
 274 00bb C61C7330 		.ascii	"\306\034s0h\375\224o'\274\036&H=uX!\323\275\011!\253"
 274      68FD946F 
 274      27BC1E26 
 274      483D7558 
 274      21D3BD09 
 275 00d1 F28CCBED 		.ascii	"\362\214\313\355\363A- M\014k7\3537\242+\\!*\273\226"
 275      F3412D20 
 275      4D0C6B37 
 275      EB37A22B 
 275      5C212ABB 
 276 00e6 E991FCD7 		.ascii	"\351\221\374\327\316\375\243\357oD\362\370\320\356\332"
 276      CEFDA3EF 
 276      6F44F2F8 
 276      D0EEDA
ARM GAS  C:\Users\Bruger\AppData\Local\Temp\ccCnG3ii.s 			page 21


 277 00f5 4A153B96 		.ascii	"J\025;\226m9AW(h@\3051\370/p\202*\276X\366\002\313)"
 277      6D394157 
 277      286840C5 
 277      31F82F70 
 277      822ABE58 
 278 010d 2F4BA27C 		.ascii	"/K\242|^\207\263\362M\354\236Y\320r\232\221\314k+\211"
 278      5E87B3F2 
 278      4DEC9E59 
 278      D0729A91 
 278      CC6B2B89 
 279 0121 985E3052 		.ascii	"\230^0RZ|1\246G#\361\250\221\314\255.\031\231tZ3\022"
 279      5A7C31A6 
 279      4723F1A8 
 279      91CCAD2E 
 279      1999745A 
 280 0137 F3856C76 		.ascii	"\363\205lv=\261\224\311j\306t\212FRz.o\350k\277\017"
 280      3DB194C9 
 280      6AC6748A 
 280      46527A2E 
 280      6FE86BBF 
 281 014c D67396   		.ascii	"\326s\226"
 282              		.text
 283              		.section	.gnu.lto_CrankTrigger_Dummy_Timer_ReadPeriod.1d797689,"",%progbits
 284 0000 789C6366 		.ascii	"x\234cf\300\004R@\374\003\210M\200\230\221\231\201\221"
 284      C0045240 
 284      FC03884D 
 284      80989199 
 284      8191
 285 0012 69C23906 		.ascii	"i\3029\006\206F\016&FF\020\203\201\221\241\236\211\261"
 285      86460E26 
 285      46461083 
 285      8191A19E 
 285      89B1
 286 0024 9EF125D3 		.ascii	"\236\361%\323G&\306\323\217~|\346y\301\364\223\211A"
 286      4726C6D3 
 286      8F7E7CE6 
 286      79C1F493 
 286      8941
 287 0036 8001C89D 		.ascii	"\200\001\310\235u\375\351\027f\020\227\221\011\304\335"
 287      75FDE917 
 287      66109791 
 287      09C4DD
 288 0045 FDF9DC23 		.ascii	"\375\371\334#6\365\245\015\015M\037.]M\2341e\001\343"
 288      36F5A50D 
 288      0D4D1F2E 
 288      5D4D9C31 
 288      6501E3
 289 0058 4F262686 		.ascii	"O&&\206\317L\014\214\313\031\245\030W0\202,b\\\311\250"
 289      CF4C0C8C 
 289      CB19A518 
 289      5730822C 
 289      625CC9A8 
 290 006c 0E52FBB1 		.ascii	"\016R\373\261\345\357un\266\226\206\206\006\001\220"
 290      E5EF756E 
 290      B6968686 
 290      060190
 291 007b 0AA0C42A 		.ascii	"\012\240\304*F6F \275^\350@\303\377\377\233\257O\353"
ARM GAS  C:\Users\Bruger\AppData\Local\Temp\ccCnG3ii.s 			page 22


 291      46364620 
 291      BD5EE840 
 291      C3FFFF9B 
 291      AF4FEB
 292 008e D0676366 		.ascii	"\320gcfb\000\231\300\360\004\210Any\012\344\000i\346"
 292      620099C0 
 292      F0048841 
 292      6E790AE4 
 292      0069E6
 293 00a1 5B8C87BE 		.ascii	"[\214\207\276u\035{m\000\322\363\235\011\344\260\031"
 293      751D7B6D 
 293      00D2F39D 
 293      09E4B019 
 294 00b1 7B971EE3 		.ascii	"{\227\036\343\006\271\204y\316\274\306\006\026\220\015"
 294      06B98479 
 294      CEBCC606 
 294      16900D
 295 00c0 F79F9CBF 		.ascii	"\367\237\234\277\310\001\026b\000q?t?\271\311=\227q"
 295      C8011662 
 295      00713F74 
 295      3FB9C93D 
 295      9771
 296 00d2 76634BE3 		.ascii	"vcK\343\001\215\237L,\214\253\201nZ\003r\023\343Z\306"
 296      018D9F4C 
 296      2C8CAB81 
 296      6E5A0372 
 296      13E35AC6 
 297 00e6 B98C0CF7 		.ascii	"\271\214\014\367\030\033\033\014\241\0062\200\254d\004"
 297      181B1B0C 
 297      A1063280 
 297      AC6404
 298 00f5 5905641A 		.ascii	"Y\005d\032\271\247\346\245\026%\226\244\246\304\007"
 298      B9A7E6A5 
 298      162596A4 
 298      A6C407
 299 0104 E7971625 		.ascii	"\347\227\026%\247\306\004\004\347;\233\3068\027%\346"
 299      A7C60404 
 299      E73B9BC6 
 299      381725E6 
 300 0114 65871465 		.ascii	"e\207\024e\246\247\247\026\305\273\224\346\346V\306"
 300      A6A7A716 
 300      C5BB94E6 
 300      E656C6
 301 0123 8764E6A6 		.ascii	"\207d\346\246\026\351%3\000\000\232\021p\362"
 301      16E92533 
 301      00009A11 
 301      70F2
 302              		.text
 303              		.section	.gnu.lto_CrankTrigger_Dummy_Timer_WritePeriod.1d797689,"",%progbits
 304 0000 789C6550 		.ascii	"x\234ePM(DQ\024>\337\275cL=\013\311\202\331(\222\235"
 304      4D284451 
 304      143EDFBD 
 304      634C3D0B 
 304      C982D928 
 305 0016 85B262A1 		.ascii	"\205\262b\241([\305\216\232\304K\223\306\350\305\302"
 305      285BC58E 
 305      9AC44B93 
ARM GAS  C:\Users\Bruger\AppData\Local\Temp\ccCnG3ii.s 			page 23


 305      C6E8C5C2 
 306 0026 42EE68A4 		.ascii	"B\356h\244HM\026\222\277H\223\377\277\354\224zI6\212"
 306      484D1692 
 306      BF4893FF 
 306      BFEC947A 
 306      49368A
 307 0039 2C909F90 		.ascii	",\220\237\220F1+\343'f\241\347\3347+9u;\347|\235\363"
 307      46312BE3 
 307      2766A1E7 
 307      DC372B39 
 307      753BE77C 
 308 004f 7DDFB992 		.ascii	"}\337\271\222\376\207\237_?\210\3529C\022D\354\204("
 308      FE879F5F 
 308      3F88EA39 
 308      431244EC 
 308      8428
 309 0061 E213802E 		.ascii	"\342\023\200.\0104 0\200\027\221\022\210\331k\223FY"
 309      08342030 
 309      80179112 
 309      88D96B93 
 309      4659
 310 0073 5C29F5FA 		.ascii	"\\)\365\372vS8T\220\026D\357\"C\203%\224\361\210\263"
 310      76533854 
 310      901644EF 
 310      22438325 
 310      94F188B3 
 311 0087 9B3ACB96 		.ascii	"\233:\313\226\225 \256\217\037\277\337s\236EZ W\267"
 311      9520AE8F 
 311      1FBFDF73 
 311      9E455A20 
 311      57B7
 312 0099 53974F1F 		.ascii	"S\227O\037R\267B\350\366<y3\357+]Tj\320Nn\253\032\306"
 312      52B742E8 
 312      F63C7933 
 312      EF2B5D54 
 312      6AD04E6E 
 313 00b0 25962199 		.ascii	"%\226!\231\017+\360c\025~b\210\260\206R=\236\212\357"
 313      0F2BF063 
 313      157E6288 
 313      B086523D 
 313      9E8AEF
 314 00c3 1D66CB6A 		.ascii	"\035f\313j\227x\364v\270\270d\2017\037\222c#9jYE\037"
 314      9778F476 
 314      B8B86481 
 314      371F9263 
 314      23396A59 
 315 00d9 1CA74813 		.ascii	"\034\247H\023\254\377%\310\204\336\216\376\\\032\336"
 315      ACFF25C8 
 315      84DE8EFE 
 315      5C1ADE
 316 00e8 283BCFC5 		.ascii	"(;\317\305\006J2\256\261\011/\037N[y\266r\234\335\217"
 316      064A32AE 
 316      B1092F1F 
 316      4E5B79B6 
 316      729CDD8F 
 317 00fc 89E72AAF 		.ascii	"\211\347*\257\007p\025)\301\023\372\003\236\330-gy\201"
 317      07701529 
ARM GAS  C:\Users\Bruger\AppData\Local\Temp\ccCnG3ii.s 			page 24


 317      C113FA03 
 317      9ED82D67 
 317      7981
 318 010e 41FB7C3A 		.ascii	"A\373|:\337\335a\206/\001\272\306\301x\352sBj\2145&"
 318      DFDD6186 
 318      2F01BAC6 
 318      C178EA73 
 318      426A8C35 
 319 0123 F7E34786 		.ascii	"\367\343G\206\276\31733\027Q\036-{\2378=\363\271\220"
 319      BECF3333 
 319      17511E2D 
 319      7B9F383D 
 319      F3B990
 320 0136 EBE27534 		.ascii	"\353\342u4qe\314b:\022EZda\213]nk\227\330\301,4\343"
 320      7165CC62 
 320      3A12455A 
 320      64618B5D 
 320      6E6B97D8 
 321 014e 1D22F67D 		.ascii	"\035\"\366}\263\346\323\276\023\214\2604\033\251\250"
 321      B3E6D3BE 
 321      138CB034 
 321      1BA9A8
 322 015d 37BB4CAB 		.ascii	"7\273L\253\265\307l\0174\206{\2556\263\245\2411\\[\331"
 322      B5C76C0F 
 322      34867BAD 
 322      36B3A5A1 
 322      315C5BD9 
 323 0171 526BB576 		.ascii	"Rk\265vu6Y\301\216\016\323\012\324\365\206B}\201\246"
 323      753659C1 
 323      8E0ED30A 
 323      D4F58642 
 323      7D81A6
 324 0184 60C8B4CA 		.ascii	"`\310\264\312\333\310\333mZ\301p\273\221I\201\0363\324"
 324      DBC8DB6D 
 324      5AC170BB 
 324      9149811E 
 324      33D4
 325 0196 FD0B1A46 		.ascii	"\375\013\032F\2441"
 325      A431
 326              		.text
 327              		.section	.gnu.lto_CrankTrigger_Dummy_Timer_ReadCapture.1d797689,"",%progbits
 328 0000 789C6366 		.ascii	"x\234cf\300\004R@\374\003\210M\200\230\221\231\201\221"
 328      C0045240 
 328      FC03884D 
 328      80989199 
 328      8191
 329 0012 69C23906 		.ascii	"i\3029\006\206F\016&FF\020\203\201\221\241\236\211\261"
 329      86460E26 
 329      46461083 
 329      8191A19E 
 329      89B1
 330 0024 9EF125D3 		.ascii	"\236\361%\323G&\306\323\217~|\346y\301\364\223\211A"
 330      4726C6D3 
 330      8F7E7CE6 
 330      79C1F493 
 330      8941
 331 0036 8001C89D 		.ascii	"\200\001\310\235u\375\351\027f\020\227\221\011\304\335"
ARM GAS  C:\Users\Bruger\AppData\Local\Temp\ccCnG3ii.s 			page 25


 331      75FDE917 
 331      66109791 
 331      09C4DD
 332 0045 FDF9DC23 		.ascii	"\375\371\334#6\365\245\015\015M\037\232>'\316\230\262"
 332      36F5A50D 
 332      0D4D1F9A 
 332      3E27CE98 
 332      B2
 333 0056 80F12713 		.ascii	"\200\361'\023\023\303g&\006\306\345\214R\214+\030A\026"
 333      13C36726 
 333      06C6E58C 
 333      528C2B18 
 333      4116
 334 0068 31AE6454 		.ascii	"1\256dT\007\251\375\330\362\367:7[KCC\203\000H\005P"
 334      07A9FDD8 
 334      F2F73A37 
 334      5B4B4343 
 334      83004805 
 335 007d 6215231B 		.ascii	"b\025#\033#\220^/t\240\341\377\377\317g\246\277Pggf"
 335      23905E2F 
 335      74A0E1FF 
 335      FFCF67A6 
 335      BF506767 
 336 0092 620099C0 		.ascii	"b\000\231\300\360\004\210Any\012\344\000i\346[\214\207"
 336      F0048841 
 336      6E790AE4 
 336      0069E65B 
 336      8C87
 337 00a4 BE75DDFB 		.ascii	"\276u\335\373i\000\322\363\235\011\344\260\211?N\354"
 337      6900D2F3 
 337      9D09E4B0 
 337      893F4EEC 
 338 00b4 6504B984 		.ascii	"e\004\271\204y\301\274\306\006\026\220\015\367\237\234"
 338      79C1BCC6 
 338      0616900D 
 338      F79F9C
 339 00c3 BFC80116 		.ascii	"\277\310\001\026b\000q\337\035\\\335\3167\227qvcK\343"
 339      620071DF 
 339      1D5CDDCE 
 339      37977176 
 339      634BE3
 340 00d6 018D9F4C 		.ascii	"\001\215\237L,\214\253\201nZ\003r\023\343Z\306\271\214"
 340      2C8CAB81 
 340      6E5A0372 
 340      13E35AC6 
 340      B98C
 341 00e8 0CF7181B 		.ascii	"\014\367\030\033\033\014\241\0062\200\254d\004Y\005"
 341      1B0CA106 
 341      3280AC64 
 341      045905
 342 00f7 641AB9A7 		.ascii	"d\032\271\247\346\245\026%\226\244\246\304\007\347\227"
 342      E6A51625 
 342      96A4A6C4 
 342      07E797
 343 0106 1625A7C6 		.ascii	"\026%\247\306\004\004\347;\233\3068\027%\346e\207\024"
 343      0404E73B 
 343      9BC63817 
ARM GAS  C:\Users\Bruger\AppData\Local\Temp\ccCnG3ii.s 			page 26


 343      25E66587 
 343      14
 344 0117 65A6A7A7 		.ascii	"e\246\247\247\026\305\273\224\346\346V\306\207d\346"
 344      16C5BB94 
 344      E6E656C6 
 344      8764E6
 345 0126 A616E925 		.ascii	"\246\026\351%3\000\000\355\261qi"
 345      330000ED 
 345      B17169
 346              		.text
 347              		.section	.gnu.lto_CrankTrigger_Dummy_Timer_WriteCounter.1d797689,"",%progbits
 348 0000 789C654F 		.ascii	"x\234eO=HBQ\030\375\316}\246\206A\322T\356\342\326\020"
 348      3D484251 
 348      18FDCE7D 
 348      A68641D2 
 348      54EEE2D6 
 349 0015 D8D41018 		.ascii	"\330\324\020\030\264\006:\012\017\261\207H\250\360\320"
 349      B4063A0A 
 349      0FB18748 
 349      A8F0D0
 350 0024 A1C9A7D9 		.ascii	"\241\311\247\331\324\342\224Q\350\022\321\217\225\266"
 350      D4E29451 
 350      E812D18F 
 350      95B6
 351 0032 142E216D 		.ascii	"\024.!mQ\030M\017\"\012B\311hI\014\352\015a\337\315"
 351      51184D0F 
 351      220A42C9 
 351      68490CEA 
 351      0D61DFCD 
 352 0046 B10B97EF 		.ascii	"\261\013\227\357;\207s\3179W\241\377\307\303\327\007"
 352      3B8773CF 
 352      3957A1FF 
 352      C7C3D707 
 353 0056 A2399E50 		.ascii	"\2429\236P\010\242\330\"\3129\005 \027\002e\005\262"
 353      08A2D822 
 353      CA390520 
 353      17026505 
 353      B2
 354 0067 78133D81 		.ascii	"x\023=\201b\263\272\345\362\355\031\206\361\221\267"
 354      62B3BAE5 
 354      F2ED1986 
 354      F191B7
 355 0076 A6D6272D 		.ascii	"\246\326'-A\324\027C\033\354\303\307\222\326\365ZZ\361"
 355      41D41743 
 355      1BECC3C7 
 355      92D6F55A 
 355      5AF1
 356 0088 8378BD79 		.ascii	"\203x\275y\371\356\217u\205%\340\226p\333\354|*\022"
 356      F9EE8F75 
 356      8525E096 
 356      70DBEC7C 
 356      2A12
 357 009a 0A2161C3 		.ascii	"\012!a\303\274\254\214{w\015#\337|\257\033\363\314+"
 357      BCAC8C7B 
 357      770D23DF 
 357      7CAF1BF3 
 357      CC2B
ARM GAS  C:\Users\Bruger\AppData\Local\Temp\ccCnG3ii.s 			page 27


 358 00ac 3880C276 		.ascii	"8\200\302v8\204\007G\360\020S\204*\274R\336+\374\230"
 358      38840747 
 358      F0105384 
 358      2ABC52DE 
 358      2BFC98
 359 00bf 2E7B81A3 		.ascii	".{\201\243\335\303H\034\303\316\255\2516\3214\006\203"
 359      DDC3481C 
 359      C3CEADA9 
 359      36D13406 
 359      83
 360 00d0 7EBBD49D 		.ascii	"~\273\324\235u\330\270\264\324S\233\025\262}\207\263"
 360      75D8B8B4 
 360      D4539B15 
 360      B27D87B3 
 361 00e0 782A0FB8 		.ascii	"x*\017\270\332<{-)\362\021\233=\3266\032\016Y\305V\251"
 361      DA3C7B2D 
 361      29F2119B 
 361      3DD6361A 
 361      0E59C556 
 362 00f5 E40C9BF4 		.ascii	"\344\014\233\364\177n\337\335;\377(\222\360\374\266"
 362      7F6EDFDD 
 362      3BFF2892 
 362      F0FCB6
 363 0104 6E8E96B1 		.ascii	"n\216\226\261\223+\300\022#8\341F\247\334\210PC\031"
 363      932BC012 
 363      2338E146 
 363      A7DC8850 
 363      4319
 364 0116 5FECFA84 		.ascii	"_\354\372\204\\\363B\225~\362\363m\001\231\303\2513"
 364      5CF34295 
 364      7EF2F36D 
 364      0199C3A9 
 364      33
 365 0127 8B5A52D3 		.ascii	"\213ZR\323#imY\015\2462zT\013/\005S\001\1778\240G\222"
 365      23696D59 
 365      0DA6327A 
 365      540B2F05 
 365      53017F38 
 366 013e 2B213D1E 		.ascii	"+!=\036\213i\272\272\220I$V\325P<\241\351\323QrDS\231"
 366      8B69BABA 
 366      90492456 
 366      D5503CA1 
 366      E9D35172 
 367 0155 645AD37F 		.ascii	"dZ\323\177\001\001Y\200\351"
 367      01015980 
 367      E9
 368              		.text
 369              		.section	.gnu.lto_CrankTrigger_Dummy_Timer_ReadCounter.1d797689,"",%progbits
 370 0000 789C6366 		.ascii	"x\234cf\300\004R@\354\310\310\300`\002\244\031\231\031"
 370      C0045240 
 370      ECC8C8C0 
 370      6002A419 
 370      9919
 371 0012 1899269C 		.ascii	"\030\231&\234c`h\344`bd\0041\030\030\031\352\231\030"
 371      636068E4 
 371      60626404 
 371      31181819 
ARM GAS  C:\Users\Bruger\AppData\Local\Temp\ccCnG3ii.s 			page 28


 371      EA9918
 372 0025 EB195F32 		.ascii	"\353\031_2}db<\375\350\307g\236\027L?\231\030\004\030"
 372      7D64623C 
 372      FDE8C767 
 372      9E174C3F 
 372      99180418 
 373 0039 80DC59D7 		.ascii	"\200\334Y\327\237~a\006q\031\231@\334\335\237\317=b"
 373      9F7E6106 
 373      71199940 
 373      DCDD9FCF 
 373      3D62
 374 004b 535FDAD0 		.ascii	"S_\332\320\320\364\341\320\377\304\031S\0260\376dbb"
 374      D0F4E1D0 
 374      FFC41953 
 374      1630FE64 
 374      6262
 375 005d F8CCC4C0 		.ascii	"\370\314\304\300\270\234Q\212q\005#\310\"\306\225\214"
 375      B89C518A 
 375      710523C8 
 375      22C6958C 
 376 006d EA20B51F 		.ascii	"\352 \265\037[\376^\347fkihh\020\000\251\000J\254bd"
 376      5BFE5EE7 
 376      666B6968 
 376      681000A9 
 376      004AAC62 
 377 0082 033A8261 		.ascii	"\003:\202a\275\320\201\206\377\377?\377\233\276B]\202"
 377      BDD08186 
 377      FFFF3FFF 
 377      9BBE425D 
 377      82
 378 0093 8589E127 		.ascii	"\205\211\341'\02333\003\310\030\206'@\014r\320S \007"
 378      13333303 
 378      C8188627 
 378      400C72D0 
 378      532007
 379 00a6 4833DF62 		.ascii	"H3\337b<\364\255\353Z\307b6\220\316\357L \347\335Y\337"
 379      3CF4ADEB 
 379      5AC76236 
 379      90CEEF4C 
 379      20E7DD59 
 380 00bb BD931DE4 		.ascii	"\275\223\035\344\036\226y\363\032\033X@\366\334\177"
 380      1E9679F3 
 380      1A1B5840 
 380      F6DC7F
 381 00ca 72FE2207 		.ascii	"r\376\"\007X\210\001\304\335vf\303u\316\271\214\263"
 381      588801C4 
 381      DD7666C3 
 381      75CEB98C 
 381      B3
 382 00db 1B5B806E 		.ascii	"\033[\200nce\\\015t\327\032\220\273\030\3272\316ed\000"
 382      63655C0D 
 382      74D71A90 
 382      BB18D732 
 382      CE656400 
 383 00ef 1B79AA93 		.ascii	"\033y\252\223\031b\"3P\375\304\037'\3662\202\265/\200"
 383      19622233 
 383      50FDC41F 
ARM GAS  C:\Users\Bruger\AppData\Local\Temp\ccCnG3ii.s 			page 29


 383      27F63282 
 383      B52F80
 384 0102 99F8EEE0 		.ascii	"\231\370\356\340\352v>\260\021\215\0074A\206\254\203"
 384      EA763EB0 
 384      118D0734 
 384      4186AC83 
 385 0112 1BB21E64 		.ascii	"\033\262\036d\310=\306\306\006c\250\011\014 g3\202\234"
 385      C83DC6C6 
 385      0663A809 
 385      0C206733 
 385      829C
 386 0124 0B74BC91 		.ascii	"\013t\274\221{j^jQbIjJ|p~iQrjL@p\276\263i\214sQb^vH"
 386      7B6A5E6A 
 386      5162496A 
 386      4A7C707E 
 386      6951726A 
 387 0145 51667A7A 		.ascii	"QfzzjQ\274Kinne|Hfnj\221^2\003\000=\234\212F"
 387      6A51BC4B 
 387      696E6E65 
 387      7C48666E 
 387      6A915E32 
 388              		.text
 389              		.section	.gnu.lto_.symbol_nodes.1d797689,"",%progbits
 390 0000 789C55CA 		.ascii	"x\234U\312\313\021@@\024\005\321\353\215a|\243\221_"
 390      CB114040 
 390      1405D1EB 
 390      8D617CA3 
 390      915F
 391 0012 A7200245 		.ascii	"\247 \002E\016\342\020\204\010\204`c\341\366\356Tu\222"
 391      0EE21084 
 391      08846063 
 391      E1F6EE54 
 391      7592
 392 0024 F4E82B2A 		.ascii	"\364\350+*\244\365\222@\333^\024AeN\304\337Y:\002EM"
 392      A4F59240 
 392      DB5E1441 
 392      654EC4DF 
 392      593A0245 
 393 0039 B22D539B 		.ascii	"\262-S\233\033\262\271\2451\027ZsG1\367t\346\201\336"
 393      1BB2B9A5 
 393      31175A73 
 393      4731F774 
 393      E681DE
 394 004c 3C329827 		.ascii	"<2\230'F\363\314\364w\012\351>\027\275\177\332>\230"
 394      46F3CCF4 
 394      770AE93E 
 394      17BD7FDA 
 394      3E98
 395              		.text
 396              		.section	.gnu.lto_.refs.1d797689,"",%progbits
 397 0000 789C6366 		.ascii	"x\234cf``\340d\200\000&&\006fFFf\026\006\000\001;\000"
 397      6060E064 
 397      80002626 
 397      06664646 
 397      66160600 
 398 0017 1D       		.ascii	"\035"
 399              		.text
ARM GAS  C:\Users\Bruger\AppData\Local\Temp\ccCnG3ii.s 			page 30


 400              		.section	.gnu.lto_.decls.1d797689,"",%progbits
 401 0000 789C8D95 		.ascii	"x\234\215\225\177L\023g\030\307\357\355\333\"\224\012"
 401      7F4C1367 
 401      18C7EFED 
 401      DB22940A 
 402 0010 FEA50BC9 		.ascii	"\376\245\013\311f\027733f\342\222\031\377s\011[\214"
 402      66173733 
 402      3366E292 
 402      19FF7309 
 402      5B8C
 403 0022 5BB61071 		.ascii	"[\266\020q[2ML'7\326L[r\036Y\334_\247h\004d\016\021"
 403      5B324D4C 
 403      2737D64C 
 403      5B721E59 
 403      DC5FA768 
 404 003a C68FA9C3 		.ascii	"\306\217\251\303\011\"\242\005A@~IAd\270J\021\254\005"
 404      0922A205 
 404      41407E49 
 404      4164B84A 
 404      11AC05
 405 004d 6442450A 		.ascii	"dBE\012(\233cL\215\016g\367\334\373\336\331;v\005.y"
 405      289B634C 
 405      8D0E67F7 
 405      DCFBDED9 
 405      3B76052E 
 406 0062 DA5EFB7C 		.ascii	"\332^\373|?\317\363>\357\367\336b\206a\2620\303\004"
 406      3FCFF33E 
 406      EFF7DE62 
 406      8661B230 
 406      C304
 407 0074 E02A0F67 		.ascii	"\340*\017g\230b\035\303D\303w\361L\360\212\2028\013"
 407      98621DC3 
 407      44C377F1 
 407      4CF08A82 
 407      380B
 408 0086 E180A884 		.ascii	"\341\200\250\204\250\202h\204h\206pB\264A\264C\270!"
 408      A8826884 
 408      68867042 
 408      B441B443 
 408      B821
 409 0098 7A213C10 		.ascii	"z!<\020^\210~\010\0041\310\250/\221e\224j,\205\360A"
 409      5E887E08 
 409      0431C8A8 
 409      2F916594 
 409      6A2C85F0 
 410 00ad 0C49754C 		.ascii	"\014IuL\020.\010?\304(D\255\244\321K\272^\211\335\310"
 410      102E083F 
 410      C42844AD 
 410      A4D14BBA 
 410      5E89DDC8 
 411 00c1 FCFF7248 		.ascii	"\374\377rHy\263\271\214\324\207CC#\256'\\\241\031\223"
 411      79B3B98C 
 411      D4874343 
 411      23AE275C 
 411      A11993
 412 00d4 6A8E4394 		.ascii	"j\216C\224\315b`)_\236\205\326\332\252\346\351\241J"
 412      CD626029 
ARM GAS  C:\Users\Bruger\AppData\Local\Temp\ccCnG3ii.s 			page 31


 412      5F9E85D6 
 412      DAAAE6E9 
 412      A14A
 413 00e6 A3874685 		.ascii	"\243\207F\205\246VC\243\265\326f\205\306\014q\017bB"
 413      A65643A3 
 413      B5D66685 
 413      C60C710F 
 413      6242
 414 00f8 A169D6D0 		.ascii	"\241i\326\3208\2455h\325pj\344\267\315\221\337\246\221"
 414      38A53568 
 414      D5706AE4 
 414      B7CD91DF 
 414      A691
 415 010a DF3ECF3A 		.ascii	"\337>\317:\33254\242g\014\214z\357g\257\305\255\241"
 415      DA3534A2 
 415      670C8C7A 
 415      EF67AFC5 
 415      ADA1
 416 011c 137D1026 		.ascii	"\023}\020&\325\322\362\215\254\355\325\320z\026P\323"
 416      D5D2F28D 
 416      ACEDD5D0 
 416      7A1650D3 
 417 012c A3A1F32E 		.ascii	"\243\241\363.\260\246WC\333/i\225:\263F\335~\015\355"
 417      B0A65743 
 417      DB2F6995 
 417      3AB346DD 
 417      7E0DED
 418 013f 5F3A54EF 		.ascii	"_:T\357x\330\0259\241CQF\263x\333\220\335\231\037\006"
 418      78D81539 
 418      A1435146 
 418      B378DB90 
 418      DD991F06 
 419 0153 B726A35E 		.ascii	"\267&\243^\274m\234\031\361\350\227\345\012pe\245\012"
 419      BC6D9C19 
 419      F1E897E5 
 419      0A7065A5 
 419      0A
 420 0164 4BF4287E 		.ascii	"K\364(~)*E1\3504\212\001j\031Z\006\257[\364\224t\375"
 420      292A4531 
 420      E8348A01 
 420      6A195A06 
 420      AF5BF494 
 421 017a 6047AD11 		.ascii	"`G\255\021\353\220\370\371d\376\035\2171\366\014\310"
 421      EB90F8F9 
 421      64FE1D8F 
 421      31F60CC8 
 422 018a D204A753 		.ascii	"\322\004\247S\037,\347\350\035\273j0\037\027|\225S\335"
 422      1F2CE7E8 
 422      1DBB6A30 
 422      1F177C95 
 422      53DD
 423 019c B50326A1 		.ascii	"\265\003&\241Sp\006\002\353\011\012\235A\030\225\243"
 423      53700602 
 423      EB090A9D 
 423      411895A3 
 424 01ac 58D2307C 		.ascii	"X\3220|\246\235\237Ef\220U\017\372\217 \3749ag\236\255"
 424      A69D9F45 
ARM GAS  C:\Users\Bruger\AppData\Local\Temp\ccCnG3ii.s 			page 32


 424      6690550F 
 424      FA8F20FC 
 424      3961679E 
 425 01c1 995E4410 		.ascii	"\231^D\020E\277\227\204\021@\213\200\010\341\234\202"
 425      45BF9784 
 425      11408B80 
 425      08E19C82 
 426 01d1 704E2638 		.ascii	"pN&8\010\241\264\302\177t\021\376\226\020\036z/\344"
 426      08A1B4C2 
 426      7F7411FE 
 426      96101E7A 
 426      2FE4
 427 01e3 4401A1A8 		.ascii	"D\001\241\250\262\250\242\224\022\326\023}\205B_!\353"
 427      B2A8A294 
 427      12D6137D 
 427      85425F21 
 427      EB
 428 01f4 2B893E30 		.ascii	"+\211>0\232{2\032\027 \002\230\231\376\2437\202\002"
 428      9A7B321A 
 428      17200298 
 428      99FEA337 
 428      8202
 429 0206 FE5401CE 		.ascii	"\376T\001\316+\000\347e@\025\001x[\016\034\010\307u"
 429      2B00E765 
 429      40150178 
 429      5B0E1C08 
 429      C775
 430 0218 14B0E754 		.ascii	"\024\260\347Tc\346\"\030\363R#\231\312!Wa+&\267\001"
 430      63E62218 
 430      F3522399 
 430      CA215761 
 430      2B26B701 
 431 022c F167DDC0 		.ascii	"\361g\335\300@\316S\214\214+\323\004a\2570\225-\340"
 431      40CE538C 
 431      8C2BD304 
 431      61AF3095 
 431      2DE0
 432 023e 9718141B 		.ascii	"\227\030\024\033\203V\3050\250\016\255\2044R\004]\200"
 432      8356C530 
 432      A80EAD84 
 432      3452045D 
 432      80
 433 024f 9DA8819D 		.ascii	"\235\250\201\235(\2069O\375\273\377\322\007\251\302"
 433      2886394F 
 433      FDBBFFD2 
 433      07A9C2
 434 025e BBA81619 		.ascii	"\273\250\026\031Q\365\2136H\005i\366Y\373[\263\364z"
 434      51F58B36 
 434      480569F6 
 434      59FB5BB3 
 434      F47A
 435 0270 388649CE 		.ascii	"8\206I\316\026\262\301\217\002wJt!7\270\236l\360E$\357"
 435      16B2C18F 
 435      02774A74 
 435      2137B89E 
 435      6CF04524 
 436 0285 705A4977 		.ascii	"pZIw$\036\246K\360\355\035H\015\227vr(\033\027\010E"
ARM GAS  C:\Users\Bruger\AppData\Local\Temp\ccCnG3ii.s 			page 33


 436      241EA64B 
 436      F0ED1D48 
 436      0D977672 
 436      281B1708 
 437 029a 7B85E781 		.ascii	"{\205\347\201\000\322\211*\324\240\030D\203<\210F:\311"
 437      00D2892A 
 437      D4A01844 
 437      833C8846 
 437      3AC9
 438 02ac 275D1546 		.ascii	"']\025F\234N\215r\245/3\323@'9T\246\234d\223\002\320"
 438      9C4E8D72 
 438      A52F33D3 
 438      40273954 
 438      A69C6493 
 439 02c2 24039A09 		.ascii	"$\003\232\011 }_%V\266,\256&\330\363%\225)3O\335]\202"
 439      207D5F25 
 439      56B62CAE 
 439      26D8F325 
 439      9529334F 
 440 02d9 AB682DF7 		.ascii	"\253h-\367\221\213\345\264\226\357XyG\320{\240@-\212"
 440      918BE5B4 
 440      96EF5879 
 440      47D07BA0 
 440      402D8A
 441 02ec 722D7239 		.ascii	"r-r9')\347\011\324\372#\360\020ed\215\037.@\224qm\222"
 441      2729E709 
 441      D4FA23F0 
 441      1065648D 
 441      1F2E4094 
 442 0303 75EE139E 		.ascii	"u\356\023\236\005\002\230\"Z\025\210V\031\321F\020\255"
 442      05029822 
 442      5A158856 
 442      19D14610 
 442      AD
 443 0314 693FDED3 		.ascii	"i?\336\323\343\203\230 Z[~\350\321Q\304\214+\210\020"
 443      E3839820 
 443      5A5B7EE8 
 443      D151C48C 
 443      2B8810
 444 0327 A7765981 		.ascii	"\247vY\201\270,#\332\011\3025\362\344o\023yN\227\210"
 444      B82C23DA 
 444      09C235F2 
 444      E46F1379 
 444      4E9788
 445 033a 90C23EFF 		.ascii	"\220\302>\377CL\236S\235x{l\372AS\004\256\307*s\231"
 445      434C9E53 
 445      9D787B6C 
 445      FA415304 
 445      AEC72A73 
 446 034f A9B9F226 		.ascii	"\251\271\362&\237\\\010'\267b\035p\327\314]Gi\030Zi"
 446      9F5C0827 
 446      B7621D70 
 446      D7CC5D47 
 446      69185A69 
 447 0363 A4B629A1 		.ascii	"\244\266)\241\266q\301\020\177\011\332\306,\331\206"
 447      B671C110 
 447      7F09DAC6 
ARM GAS  C:\Users\Bruger\AppData\Local\Temp\ccCnG3ii.s 			page 34


 447      2CD986
 448 0372 38504815 		.ascii	"8PH\025\014\247\243\030t\005\206\334\001CF\277\202\011"
 448      0CA7A318 
 448      740586DC 
 448      014346BF 
 448      8209
 449 0384 CD92093B 		.ascii	"\315\222\011;\341\313\253\360%Tz\272\277kX\2653.\325"
 449      E1CBABF0 
 449      25547ABA 
 449      BF6B58B5 
 449      332ED5
 450 0397 CE5C53ED 		.ascii	"\316\\S\355\214\267\343zC$v\322\226\013z&\353\242\311"
 450      8CB7E37A 
 450      432476D2 
 450      960B7A26 
 450      EBA2C9
 451 03aa 4CA6BA6F 		.ascii	"L\246\272o\025\232^\230\211\210P\227b,]\362X\334d,M"
 451      159A5E98 
 451      89885097 
 451      622C5DF2 
 451      58DC642C 
 452 03bf C5F71F44 		.ascii	"\305\367\037D\022O\273^xz\270\346q\2351\244\247\257"
 452      124FBB5E 
 452      787AB8E6 
 452      719D31A4 
 452      A7AF
 453 03d1 932EBA65 		.ascii	"\223.\272eO\227\024\367\3377\342Q\332\206\253\357\310"
 453      4F9714F7 
 453      DF37E251 
 453      DA86ABEF 
 453      C8
 454 03e2 1E3DF1B4 		.ascii	"\036=\361\264o\270K\332\232\324p\242A=\212&z\344&zI"
 454      6FB84BDA 
 454      9AD470A2 
 454      413D8A26 
 454      7AE4267A 
 455 03f7 1399D5FD 		.ascii	"\023\231\325\375\225\010\247\353\011\303\177b\317yz"
 455      9508A7EB 
 455      09C37F62 
 455      CF797A
 456 0406 36F8F2BF 		.ascii	"6\370\362\277W\270L\\\310\015\005\343\206\314\360\020"
 456      57B84C5C 
 456      C80D05E3 
 456      86CCF010 
 457 0416 863F773A 		.ascii	"\206?w:\327\210\035\224\361O\217\273\026\323>:\273g"
 457      D7881D94 
 457      F14F8FBB 
 457      16D33E3A 
 457      BB67
 458 0428 F57153C1 		.ascii	"\365qS\301\270)3\274\204\221SR_\275\030{(\303}4\307"
 458      B82933BC 
 458      84915352 
 458      5FBD187B 
 458      28C37D34 
 459 043d 46DB7836 		.ascii	"F\333x6\273\215>\005\242OF\364\023\304\355\212\274C"
 459      BB8D3E05 
 459      A24F46F4 
ARM GAS  C:\Users\Bruger\AppData\Local\Temp\ccCnG3ii.s 			page 35


 459      13C4ED8A 
 459      BC43
 460 044f 51F82945 		.ascii	"Q\370)E<\037\254\254\023\377\014\340\001#\263**\315"
 460      3C1FACAC 
 460      13FF0CE0 
 460      0123B32A 
 460      2ACD
 461 0461 5EB7E284 		.ascii	"^\267\342\204P\364\263\257\341\201!_\020|\201\300r\362"
 461      50F4B3AF 
 461      E181215F 
 461      107C81C0 
 461      72F2
 462 0473 F40D50A0 		.ascii	"\364\015P\240tF1\342=\274\336\022\2552\210V\200R\310"
 462      744631E2 
 462      3DBCDE12 
 462      AD328856 
 462      8052C8
 463 0486 3B581C8E 		.ascii	";X\034\216\013\015\004[\3638\243~\2611M\264\325\374"
 463      0B0D045B 
 463      F338A37E 
 463      B1314DB4 
 463      D5FC
 464 0498 671BF8D5 		.ascii	"g\033\370\325\343\316\360F\320\323p\266b8\344ixe\372"
 464      E3CEF046 
 464      D0D370B6 
 464      6238E469 
 464      7865FA
 465 04ab C37D60EB 		.ascii	"\303}`\353!\350\356\267\240\255o\243\340q\230>R\330"
 465      21E8EEB7 
 465      A0AD6FA3 
 465      E071983E 
 465      52D8
 466 04bd 65326588 		.ascii	"e2e\210\006\007\233DtF\221\344\240Q|\310D\006\003\357"
 466      06079B44 
 466      744691E4 
 466      A0517CC8 
 466      440603EF 
 467 04d1 E2FFA47B 		.ascii	"\342\377\244{p\010\343\237\350\012\246\322\276\233\324"
 467      7008E39F 
 467      E80AA6D2 
 467      BE9BD4
 468 04e0 D3152CF0 		.ascii	"\323\025,\360\331\320\345\235\273]\210\244\207\256\310"
 468      D9D0E59D 
 468      BB5D88A4 
 468      87AEC8
 469 04ef 158DD028 		.ascii	"\025\215\320(\024\273\023\354l\004\005\2378\015\352"
 469      14BB13EC 
 469      6C04059F 
 469      380DEA
 470 04fe 5DED27AE 		.ascii	"]\355'\256\344p\007V-aT\265\004\277\264\004?YB\336\361"
 470      E4700756 
 470      2D6154B5 
 470      04BFB404 
 470      3F5942DE 
 471 0513 A9990855 		.ascii	"\251\231\010U\266\372\344\034\223\262\307H\366P\276"
 471      B6FAE41C 
 471      93B2C748 
ARM GAS  C:\Users\Bruger\AppData\Local\Temp\ccCnG3ii.s 			page 36


 471      F650BE
 472 0522 3343AFCA 		.ascii	"3C\257\312\026\217\345`\36682\311\275\217\023A\346\304"
 472      168FE560 
 472      F63832C9 
 472      BD8F1341 
 472      E6C4
 473 0534 A39391F2 		.ascii	"\243\223\221\362P\322\026\324~Y[\375\321HU\215\011U"
 473      50D216D4 
 473      7E595BFD 
 473      D148558D 
 473      0955
 474 0546 47F7A48E 		.ascii	"G\367\244\216\304\367\227\3438\213\355\353\315\2345"
 474      C4F797E3 
 474      388BEDEB 
 474      CD9C35
 475 0555 2989E5B6 		.ascii	")\211\345\266\275\227\262s\347\356m\233\255;\341\363"
 475      BD97B273 
 475      E7EE6D9B 
 475      AD3BE1F3 
 476 0565 469B950F 		.ascii	"F\233\225\017\333\360\361'\3468\346\355\015\254\215"
 476      DBF0F127 
 476      E638E6ED 
 476      0DAC8D
 477 0574 E52C3C9B 		.ascii	"\345,<\233\270-\301\236\302mg\267\306'\330\343\336\331"
 477      B82DC19E 
 477      C26D67B7 
 477      C627D8E3 
 477      DED9
 478 0586 1A4ABB7A 		.ascii	"\032J\273z;\263<$\367}\233\345\213\035\354+!\177O\340"
 478      3BB33C24 
 478      F77D9BE5 
 478      8B1DEC2B 
 478      217F4FE0 
 479 059a 2D1C1FBA 		.ascii	"-\034\037\272\255\004\336\236lH\261\332\370u\257\206"
 479      AD04DE9E 
 479      6C48B1DA 
 479      F875AF86 
 480 05aa E86AFB6E 		.ascii	"\350j\373n~w2\273k\365W\314\252\320\024\226\337h\343"
 480      7E7732BB 
 480      6BF557CC 
 480      AAD01496 
 480      DF68E3
 481 05bd 598E4B49 		.ascii	"Y\216KI\346?\262'\262o\204\316\264\177\311\177c\341"
 481      E63FB227 
 481      B26F84CE 
 481      B47FC97F 
 481      63E1
 482 05cf D8384B32 		.ascii	"\3308K2\237\302\261o\206L\334\304Z\022\241w>e\327&6"
 482      9FC2B16F 
 482      864CDCC4 
 482      5A12A177 
 482      3E65D726 
 483 05e4 C9BA0BE0 		.ascii	"\311\272\013\340\261s\346\306\331m<g\337!'\277\0252"
 483      B173E6C6 
 483      D96D3C67 
 483      DF2127BF 
 483      1532
ARM GAS  C:\Users\Bruger\AppData\Local\Temp\ccCnG3ii.s 			page 37


 484 05f6 F933CECA 		.ascii	"\3713\316\312\263\263\262\303\304\011\254Y\273b\316"
 484      B3B3B2C3 
 484      C409AC59 
 484      BB62CE
 485 0605 0AF12C67 		.ascii	"\012\361,g\265'\27667x\276$\322*]\373\353\363\265\230"
 485      B527BE36 
 485      3778BE24 
 485      D22A5DFB 
 485      EBF3B598 
 486 0619 228E741E 		.ascii	"\"\216t\036\024M2\207L\262\202\355>\265pz\216MZg\200"
 486      144D3287 
 486      4CB282ED 
 486      3EB5707A 
 486      8E4D5A67 
 487 062e 97356BFF 		.ascii	"\2275k\377\003\363g\011."
 487      03F36709 
 487      2E
 488              		.text
 489              		.section	.gnu.lto_.symtab.1d797689,"",%progbits
 490 0000 4372616E 		.ascii	"CrankTrigger_Dummy_Timer_Init\000\000\000\000\000\000"
 490      6B547269 
 490      67676572 
 490      5F44756D 
 490      6D795F54 
 491 0023 00000000 		.ascii	"\000\000\000\000\000\000\254\000\000\000CrankTrigge"
 491      0000AC00 
 491      00004372 
 491      616E6B54 
 491      72696767 
 492 0038 725F4475 		.ascii	"r_Dummy_Timer_Enable\000\000\000\000\000\000\000\000"
 492      6D6D795F 
 492      54696D65 
 492      725F456E 
 492      61626C65 
 493 0054 00000000 		.ascii	"\000\000\000\000\256\000\000\000CrankTrigger_Dummy_"
 493      AE000000 
 493      4372616E 
 493      6B547269 
 493      67676572 
 494 006f 54696D65 		.ascii	"Timer_Start\000\000\000\000\000\000\000\000\000\000"
 494      725F5374 
 494      61727400 
 494      00000000 
 494      00000000 
 495 0084 0000B000 		.ascii	"\000\000\260\000\000\000CrankTrigger_Dummy_Timer_in"
 495      00004372 
 495      616E6B54 
 495      72696767 
 495      65725F44 
 496 00a5 69745661 		.ascii	"itVar\000\000\000\000\000\000\000\000\000\000\000\000"
 496      72000000 
 496      00000000 
 496      00000000 
 496      00
 497 00b6 DB000000 		.ascii	"\333\000\000\000CrankTrigger_Dummy_Timer_Stop\000\000"
 497      4372616E 
 497      6B547269 
ARM GAS  C:\Users\Bruger\AppData\Local\Temp\ccCnG3ii.s 			page 38


 497      67676572 
 497      5F44756D 
 498 00d9 00000000 		.ascii	"\000\000\000\000\000\000\000\000\000\000\262\000\000"
 498      00000000 
 498      0000B200 
 498      00
 499 00e6 00437261 		.ascii	"\000CrankTrigger_Dummy_Timer_SetInterruptMode\000\000"
 499      6E6B5472 
 499      69676765 
 499      725F4475 
 499      6D6D795F 
 500 0112 00000000 		.ascii	"\000\000\000\000\000\000\000\000\000\000\273\000\000"
 500      00000000 
 500      0000BB00 
 500      00
 501 011f 00437261 		.ascii	"\000CrankTrigger_Dummy_Timer_SoftwareCapture\000\000"
 501      6E6B5472 
 501      69676765 
 501      725F4475 
 501      6D6D795F 
 502 014a 00000000 		.ascii	"\000\000\000\000\000\000\000\000\000\000\275\000\000"
 502      00000000 
 502      0000BD00 
 502      00
 503 0157 00437261 		.ascii	"\000CrankTrigger_Dummy_Timer_ReadStatusRegister\000"
 503      6E6B5472 
 503      69676765 
 503      725F4475 
 503      6D6D795F 
 504 0184 00000000 		.ascii	"\000\000\000\000\000\000\000\000\000\000\000\300\000"
 504      00000000 
 504      000000C0 
 504      00
 505 0191 00004372 		.ascii	"\000\000CrankTrigger_Dummy_Timer_ReadControlRegiste"
 505      616E6B54 
 505      72696767 
 505      65725F44 
 505      756D6D79 
 506 01be 72000000 		.ascii	"r\000\000\000\000\000\000\000\000\000\000\000\000\302"
 506      00000000 
 506      00000000 
 506      00C2
 507 01cc 00000043 		.ascii	"\000\000\000CrankTrigger_Dummy_Timer_WriteControlRe"
 507      72616E6B 
 507      54726967 
 507      6765725F 
 507      44756D6D 
 508 01f6 67697374 		.ascii	"gister\000\000\000\000\000\000\000\000\000\000\000\000"
 508      65720000 
 508      00000000 
 508      00000000 
 508      0000
 509 0208 C4000000 		.ascii	"\304\000\000\000CrankTrigger_Dummy_Timer_ReadPeriod"
 509      4372616E 
 509      6B547269 
 509      67676572 
 509      5F44756D 
ARM GAS  C:\Users\Bruger\AppData\Local\Temp\ccCnG3ii.s 			page 39


 510 022f 00000000 		.ascii	"\000\000\000\000\000\000\000\000\000\000\000\000\316"
 510      00000000 
 510      00000000 
 510      CE
 511 023c 00000043 		.ascii	"\000\000\000CrankTrigger_Dummy_Timer_WritePeriod\000"
 511      72616E6B 
 511      54726967 
 511      6765725F 
 511      44756D6D 
 512 0264 00000000 		.ascii	"\000\000\000\000\000\000\000\000\000\000\000\322\000"
 512      00000000 
 512      000000D2 
 512      00
 513 0271 00004372 		.ascii	"\000\000CrankTrigger_Dummy_Timer_ReadCapture\000\000"
 513      616E6B54 
 513      72696767 
 513      65725F44 
 513      756D6D79 
 514 0299 00000000 		.ascii	"\000\000\000\000\000\000\000\000\000\000\324\000\000"
 514      00000000 
 514      0000D400 
 514      00
 515 02a6 00437261 		.ascii	"\000CrankTrigger_Dummy_Timer_WriteCounter\000\000\000"
 515      6E6B5472 
 515      69676765 
 515      725F4475 
 515      6D6D795F 
 516 02cf 00000000 		.ascii	"\000\000\000\000\000\000\000\000\000\326\000\000\000"
 516      00000000 
 516      00D60000 
 516      00
 517 02dc 4372616E 		.ascii	"CrankTrigger_Dummy_Timer_ReadCounter\000\000\000\000"
 517      6B547269 
 517      67676572 
 517      5F44756D 
 517      6D795F54 
 518 0304 00000000 		.ascii	"\000\000\000\000\000\000\000\000\330\000\000\000"
 518      00000000 
 518      D8000000 
 519              		.text
 520              		.section	.gnu.lto_.opts,"",%progbits
 521 0000 272D666E 		.ascii	"'-fno-trapv' '-mcpu=cortex-m3' '-mthumb' '-g' '-O3'"
 521      6F2D7472 
 521      61707627 
 521      20272D6D 
 521      6370753D 
 522 0033 20272D66 		.ascii	" '-ffunction-sections' '-finline-functions' '-flto'"
 522      66756E63 
 522      74696F6E 
 522      2D736563 
 522      74696F6E 
 523 0066 20272D66 		.ascii	" '-ffat-lto-objects'\000"
 523      6661742D 
 523      6C746F2D 
 523      6F626A65 
 523      63747327 
 524              		.text
ARM GAS  C:\Users\Bruger\AppData\Local\Temp\ccCnG3ii.s 			page 40


 525              		.cfi_sections	.debug_frame
 526              		.section	.text.CrankTrigger_Dummy_Timer_Init,"ax",%progbits
 527              		.align	2
 528              		.global	CrankTrigger_Dummy_Timer_Init
 529              		.thumb
 530              		.thumb_func
 531              		.type	CrankTrigger_Dummy_Timer_Init, %function
 532              	CrankTrigger_Dummy_Timer_Init:
 533              	.LFB0:
 534              		.file 1 "Generated_Source\\PSoC5\\CrankTrigger_Dummy_Timer.c"
   1:Generated_Source\PSoC5/CrankTrigger_Dummy_Timer.c **** /*******************************************************************************
   2:Generated_Source\PSoC5/CrankTrigger_Dummy_Timer.c **** * File Name: CrankTrigger_Dummy_Timer.c
   3:Generated_Source\PSoC5/CrankTrigger_Dummy_Timer.c **** * Version 2.70
   4:Generated_Source\PSoC5/CrankTrigger_Dummy_Timer.c **** *
   5:Generated_Source\PSoC5/CrankTrigger_Dummy_Timer.c **** * Description:
   6:Generated_Source\PSoC5/CrankTrigger_Dummy_Timer.c **** *  The Timer component consists of a 8, 16, 24 or 32-bit timer with
   7:Generated_Source\PSoC5/CrankTrigger_Dummy_Timer.c **** *  a selectable period between 2 and 2^Width - 1.  The timer may free run
   8:Generated_Source\PSoC5/CrankTrigger_Dummy_Timer.c **** *  or be used as a capture timer as well.  The capture can be initiated
   9:Generated_Source\PSoC5/CrankTrigger_Dummy_Timer.c **** *  by a positive or negative edge signal as well as via software.
  10:Generated_Source\PSoC5/CrankTrigger_Dummy_Timer.c **** *  A trigger input can be programmed to enable the timer on rising edge
  11:Generated_Source\PSoC5/CrankTrigger_Dummy_Timer.c **** *  falling edge, either edge or continous run.
  12:Generated_Source\PSoC5/CrankTrigger_Dummy_Timer.c **** *  Interrupts may be generated due to a terminal count condition
  13:Generated_Source\PSoC5/CrankTrigger_Dummy_Timer.c **** *  or a capture event.
  14:Generated_Source\PSoC5/CrankTrigger_Dummy_Timer.c **** *
  15:Generated_Source\PSoC5/CrankTrigger_Dummy_Timer.c **** * Note:
  16:Generated_Source\PSoC5/CrankTrigger_Dummy_Timer.c **** *
  17:Generated_Source\PSoC5/CrankTrigger_Dummy_Timer.c **** ********************************************************************************
  18:Generated_Source\PSoC5/CrankTrigger_Dummy_Timer.c **** * Copyright 2008-2014, Cypress Semiconductor Corporation.  All rights reserved.
  19:Generated_Source\PSoC5/CrankTrigger_Dummy_Timer.c **** * You may use this file only in accordance with the license, terms, conditions,
  20:Generated_Source\PSoC5/CrankTrigger_Dummy_Timer.c **** * disclaimers, and limitations in the end user license agreement accompanying
  21:Generated_Source\PSoC5/CrankTrigger_Dummy_Timer.c **** * the software package with which this file was provided.
  22:Generated_Source\PSoC5/CrankTrigger_Dummy_Timer.c **** ********************************************************************************/
  23:Generated_Source\PSoC5/CrankTrigger_Dummy_Timer.c **** 
  24:Generated_Source\PSoC5/CrankTrigger_Dummy_Timer.c **** #include "CrankTrigger_Dummy_Timer.h"
  25:Generated_Source\PSoC5/CrankTrigger_Dummy_Timer.c **** 
  26:Generated_Source\PSoC5/CrankTrigger_Dummy_Timer.c **** uint8 CrankTrigger_Dummy_Timer_initVar = 0u;
  27:Generated_Source\PSoC5/CrankTrigger_Dummy_Timer.c **** 
  28:Generated_Source\PSoC5/CrankTrigger_Dummy_Timer.c **** 
  29:Generated_Source\PSoC5/CrankTrigger_Dummy_Timer.c **** /*******************************************************************************
  30:Generated_Source\PSoC5/CrankTrigger_Dummy_Timer.c **** * Function Name: CrankTrigger_Dummy_Timer_Init
  31:Generated_Source\PSoC5/CrankTrigger_Dummy_Timer.c **** ********************************************************************************
  32:Generated_Source\PSoC5/CrankTrigger_Dummy_Timer.c **** *
  33:Generated_Source\PSoC5/CrankTrigger_Dummy_Timer.c **** * Summary:
  34:Generated_Source\PSoC5/CrankTrigger_Dummy_Timer.c **** *  Initialize to the schematic state
  35:Generated_Source\PSoC5/CrankTrigger_Dummy_Timer.c **** *
  36:Generated_Source\PSoC5/CrankTrigger_Dummy_Timer.c **** * Parameters:
  37:Generated_Source\PSoC5/CrankTrigger_Dummy_Timer.c **** *  void
  38:Generated_Source\PSoC5/CrankTrigger_Dummy_Timer.c **** *
  39:Generated_Source\PSoC5/CrankTrigger_Dummy_Timer.c **** * Return:
  40:Generated_Source\PSoC5/CrankTrigger_Dummy_Timer.c **** *  void
  41:Generated_Source\PSoC5/CrankTrigger_Dummy_Timer.c **** *
  42:Generated_Source\PSoC5/CrankTrigger_Dummy_Timer.c **** *******************************************************************************/
  43:Generated_Source\PSoC5/CrankTrigger_Dummy_Timer.c **** void CrankTrigger_Dummy_Timer_Init(void) 
  44:Generated_Source\PSoC5/CrankTrigger_Dummy_Timer.c **** {
 535              		.loc 1 44 0
 536              		.cfi_startproc
 537              		@ args = 0, pretend = 0, frame = 0
ARM GAS  C:\Users\Bruger\AppData\Local\Temp\ccCnG3ii.s 			page 41


 538              		@ frame_needed = 0, uses_anonymous_args = 0
 539              		@ link register save eliminated.
 540 0000 F0B4     		push	{r4, r5, r6, r7}
 541              		.cfi_def_cfa_offset 16
 542              		.cfi_offset 4, -16
 543              		.cfi_offset 5, -12
 544              		.cfi_offset 6, -8
 545              		.cfi_offset 7, -4
  45:Generated_Source\PSoC5/CrankTrigger_Dummy_Timer.c ****     #if(!CrankTrigger_Dummy_Timer_UsingFixedFunction)
  46:Generated_Source\PSoC5/CrankTrigger_Dummy_Timer.c ****             /* Interrupt State Backup for Critical Region*/
  47:Generated_Source\PSoC5/CrankTrigger_Dummy_Timer.c ****             uint8 CrankTrigger_Dummy_Timer_interruptState;
  48:Generated_Source\PSoC5/CrankTrigger_Dummy_Timer.c ****     #endif /* Interrupt state back up for Fixed Function only */
  49:Generated_Source\PSoC5/CrankTrigger_Dummy_Timer.c **** 
  50:Generated_Source\PSoC5/CrankTrigger_Dummy_Timer.c ****     #if (CrankTrigger_Dummy_Timer_UsingFixedFunction)
  51:Generated_Source\PSoC5/CrankTrigger_Dummy_Timer.c ****         /* Clear all bits but the enable bit (if it's already set) for Timer operation */
  52:Generated_Source\PSoC5/CrankTrigger_Dummy_Timer.c ****         CrankTrigger_Dummy_Timer_CONTROL &= CrankTrigger_Dummy_Timer_CTRL_ENABLE;
 546              		.loc 1 52 0
 547 0002 174A     		ldr	r2, .L3
  53:Generated_Source\PSoC5/CrankTrigger_Dummy_Timer.c **** 
  54:Generated_Source\PSoC5/CrankTrigger_Dummy_Timer.c ****         /* Clear the mode bits for continuous run mode */
  55:Generated_Source\PSoC5/CrankTrigger_Dummy_Timer.c ****         #if (CY_PSOC5A)
  56:Generated_Source\PSoC5/CrankTrigger_Dummy_Timer.c ****             CrankTrigger_Dummy_Timer_CONTROL2 &= ((uint8)(~CrankTrigger_Dummy_Timer_CTRL_MODE_MASK)
  57:Generated_Source\PSoC5/CrankTrigger_Dummy_Timer.c ****         #endif /* Clear bits in CONTROL2 only in PSOC5A */
  58:Generated_Source\PSoC5/CrankTrigger_Dummy_Timer.c **** 
  59:Generated_Source\PSoC5/CrankTrigger_Dummy_Timer.c ****         #if (CY_PSOC3 || CY_PSOC5LP)
  60:Generated_Source\PSoC5/CrankTrigger_Dummy_Timer.c ****             CrankTrigger_Dummy_Timer_CONTROL3 &= ((uint8)(~CrankTrigger_Dummy_Timer_CTRL_MODE_MASK)
 548              		.loc 1 60 0
 549 0004 174C     		ldr	r4, .L3+4
  52:Generated_Source\PSoC5/CrankTrigger_Dummy_Timer.c **** 
 550              		.loc 1 52 0
 551 0006 1178     		ldrb	r1, [r2]	@ zero_extendqisi2
  61:Generated_Source\PSoC5/CrankTrigger_Dummy_Timer.c ****         #endif /* CONTROL3 register exists only in PSoC3 OR PSoC5LP */
  62:Generated_Source\PSoC5/CrankTrigger_Dummy_Timer.c **** 
  63:Generated_Source\PSoC5/CrankTrigger_Dummy_Timer.c ****         /* Check if One Shot mode is enabled i.e. RunMode !=0*/
  64:Generated_Source\PSoC5/CrankTrigger_Dummy_Timer.c ****         #if (CrankTrigger_Dummy_Timer_RunModeUsed != 0x0u)
  65:Generated_Source\PSoC5/CrankTrigger_Dummy_Timer.c ****             /* Set 3rd bit of Control register to enable one shot mode */
  66:Generated_Source\PSoC5/CrankTrigger_Dummy_Timer.c ****             CrankTrigger_Dummy_Timer_CONTROL |= 0x04u;
  67:Generated_Source\PSoC5/CrankTrigger_Dummy_Timer.c ****         #endif /* One Shot enabled only when RunModeUsed is not Continuous*/
  68:Generated_Source\PSoC5/CrankTrigger_Dummy_Timer.c **** 
  69:Generated_Source\PSoC5/CrankTrigger_Dummy_Timer.c ****         #if (CrankTrigger_Dummy_Timer_RunModeUsed == 2)
  70:Generated_Source\PSoC5/CrankTrigger_Dummy_Timer.c ****             #if (CY_PSOC5A)
  71:Generated_Source\PSoC5/CrankTrigger_Dummy_Timer.c ****                 /* Set last 2 bits of control2 register if one shot(halt on
  72:Generated_Source\PSoC5/CrankTrigger_Dummy_Timer.c ****                 interrupt) is enabled*/
  73:Generated_Source\PSoC5/CrankTrigger_Dummy_Timer.c ****                 CrankTrigger_Dummy_Timer_CONTROL2 |= 0x03u;
  74:Generated_Source\PSoC5/CrankTrigger_Dummy_Timer.c ****             #endif /* Set One-Shot Halt on Interrupt bit in CONTROL2 for PSoC5A */
  75:Generated_Source\PSoC5/CrankTrigger_Dummy_Timer.c **** 
  76:Generated_Source\PSoC5/CrankTrigger_Dummy_Timer.c ****             #if (CY_PSOC3 || CY_PSOC5LP)
  77:Generated_Source\PSoC5/CrankTrigger_Dummy_Timer.c ****                 /* Set last 2 bits of control3 register if one shot(halt on
  78:Generated_Source\PSoC5/CrankTrigger_Dummy_Timer.c ****                 interrupt) is enabled*/
  79:Generated_Source\PSoC5/CrankTrigger_Dummy_Timer.c ****                 CrankTrigger_Dummy_Timer_CONTROL3 |= 0x03u;
  80:Generated_Source\PSoC5/CrankTrigger_Dummy_Timer.c ****             #endif /* Set One-Shot Halt on Interrupt bit in CONTROL3 for PSoC3 or PSoC5LP */
  81:Generated_Source\PSoC5/CrankTrigger_Dummy_Timer.c **** 
  82:Generated_Source\PSoC5/CrankTrigger_Dummy_Timer.c ****         #endif /* Remove section if One Shot Halt on Interrupt is not enabled */
  83:Generated_Source\PSoC5/CrankTrigger_Dummy_Timer.c **** 
  84:Generated_Source\PSoC5/CrankTrigger_Dummy_Timer.c ****         #if (CrankTrigger_Dummy_Timer_UsingHWEnable != 0)
  85:Generated_Source\PSoC5/CrankTrigger_Dummy_Timer.c ****             #if (CY_PSOC5A)
  86:Generated_Source\PSoC5/CrankTrigger_Dummy_Timer.c ****                 /* Set the default Run Mode of the Timer to Continuous */
ARM GAS  C:\Users\Bruger\AppData\Local\Temp\ccCnG3ii.s 			page 42


  87:Generated_Source\PSoC5/CrankTrigger_Dummy_Timer.c ****                 CrankTrigger_Dummy_Timer_CONTROL2 |= CrankTrigger_Dummy_Timer_CTRL_MODE_PULSEWIDTH;
  88:Generated_Source\PSoC5/CrankTrigger_Dummy_Timer.c ****             #endif /* Set Continuous Run Mode in CONTROL2 for PSoC5A */
  89:Generated_Source\PSoC5/CrankTrigger_Dummy_Timer.c **** 
  90:Generated_Source\PSoC5/CrankTrigger_Dummy_Timer.c ****             #if (CY_PSOC3 || CY_PSOC5LP)
  91:Generated_Source\PSoC5/CrankTrigger_Dummy_Timer.c ****                 /* Clear and Set ROD and COD bits of CFG2 register */
  92:Generated_Source\PSoC5/CrankTrigger_Dummy_Timer.c ****                 CrankTrigger_Dummy_Timer_CONTROL3 &= ((uint8)(~CrankTrigger_Dummy_Timer_CTRL_RCOD_M
  93:Generated_Source\PSoC5/CrankTrigger_Dummy_Timer.c ****                 CrankTrigger_Dummy_Timer_CONTROL3 |= CrankTrigger_Dummy_Timer_CTRL_RCOD;
  94:Generated_Source\PSoC5/CrankTrigger_Dummy_Timer.c **** 
  95:Generated_Source\PSoC5/CrankTrigger_Dummy_Timer.c ****                 /* Clear and Enable the HW enable bit in CFG2 register */
  96:Generated_Source\PSoC5/CrankTrigger_Dummy_Timer.c ****                 CrankTrigger_Dummy_Timer_CONTROL3 &= ((uint8)(~CrankTrigger_Dummy_Timer_CTRL_ENBL_M
  97:Generated_Source\PSoC5/CrankTrigger_Dummy_Timer.c ****                 CrankTrigger_Dummy_Timer_CONTROL3 |= CrankTrigger_Dummy_Timer_CTRL_ENBL;
  98:Generated_Source\PSoC5/CrankTrigger_Dummy_Timer.c **** 
  99:Generated_Source\PSoC5/CrankTrigger_Dummy_Timer.c ****                 /* Set the default Run Mode of the Timer to Continuous */
 100:Generated_Source\PSoC5/CrankTrigger_Dummy_Timer.c ****                 CrankTrigger_Dummy_Timer_CONTROL3 |= CrankTrigger_Dummy_Timer_CTRL_MODE_CONTINUOUS;
 101:Generated_Source\PSoC5/CrankTrigger_Dummy_Timer.c ****             #endif /* Set Continuous Run Mode in CONTROL3 for PSoC3ES3 or PSoC5A */
 102:Generated_Source\PSoC5/CrankTrigger_Dummy_Timer.c **** 
 103:Generated_Source\PSoC5/CrankTrigger_Dummy_Timer.c ****         #endif /* Configure Run Mode with hardware enable */
 104:Generated_Source\PSoC5/CrankTrigger_Dummy_Timer.c **** 
 105:Generated_Source\PSoC5/CrankTrigger_Dummy_Timer.c ****         /* Clear and Set SYNCTC and SYNCCMP bits of RT1 register */
 106:Generated_Source\PSoC5/CrankTrigger_Dummy_Timer.c ****         CrankTrigger_Dummy_Timer_RT1 &= ((uint8)(~CrankTrigger_Dummy_Timer_RT1_MASK));
 552              		.loc 1 106 0
 553 0008 174B     		ldr	r3, .L3+8
  52:Generated_Source\PSoC5/CrankTrigger_Dummy_Timer.c **** 
 554              		.loc 1 52 0
 555 000a 01F00101 		and	r1, r1, #1
 556 000e 1170     		strb	r1, [r2]
  60:Generated_Source\PSoC5/CrankTrigger_Dummy_Timer.c ****         #endif /* CONTROL3 register exists only in PSoC3 OR PSoC5LP */
 557              		.loc 1 60 0
 558 0010 2078     		ldrb	r0, [r4]	@ zero_extendqisi2
 107:Generated_Source\PSoC5/CrankTrigger_Dummy_Timer.c ****         CrankTrigger_Dummy_Timer_RT1 |= CrankTrigger_Dummy_Timer_SYNC;
 108:Generated_Source\PSoC5/CrankTrigger_Dummy_Timer.c **** 
 109:Generated_Source\PSoC5/CrankTrigger_Dummy_Timer.c ****         /*Enable DSI Sync all all inputs of the Timer*/
 110:Generated_Source\PSoC5/CrankTrigger_Dummy_Timer.c ****         CrankTrigger_Dummy_Timer_RT1 &= ((uint8)(~CrankTrigger_Dummy_Timer_SYNCDSI_MASK));
 111:Generated_Source\PSoC5/CrankTrigger_Dummy_Timer.c ****         CrankTrigger_Dummy_Timer_RT1 |= CrankTrigger_Dummy_Timer_SYNCDSI_EN;
 112:Generated_Source\PSoC5/CrankTrigger_Dummy_Timer.c **** 
 113:Generated_Source\PSoC5/CrankTrigger_Dummy_Timer.c ****         /* Set the IRQ to use the status register interrupts */
 114:Generated_Source\PSoC5/CrankTrigger_Dummy_Timer.c ****         CrankTrigger_Dummy_Timer_CONTROL2 |= CrankTrigger_Dummy_Timer_CTRL2_IRQ_SEL;
 559              		.loc 1 114 0
 560 0012 1649     		ldr	r1, .L3+12
  60:Generated_Source\PSoC5/CrankTrigger_Dummy_Timer.c ****         #endif /* CONTROL3 register exists only in PSoC3 OR PSoC5LP */
 561              		.loc 1 60 0
 562 0014 00F0FC00 		and	r0, r0, #252
 563 0018 2070     		strb	r0, [r4]
  66:Generated_Source\PSoC5/CrankTrigger_Dummy_Timer.c ****         #endif /* One Shot enabled only when RunModeUsed is not Continuous*/
 564              		.loc 1 66 0
 565 001a 1478     		ldrb	r4, [r2]	@ zero_extendqisi2
 566              	.LBB16:
 567              	.LBB17:
 115:Generated_Source\PSoC5/CrankTrigger_Dummy_Timer.c ****     #endif /* Configuring registers of fixed function implementation */
 116:Generated_Source\PSoC5/CrankTrigger_Dummy_Timer.c **** 
 117:Generated_Source\PSoC5/CrankTrigger_Dummy_Timer.c ****     /* Set Initial values from Configuration */
 118:Generated_Source\PSoC5/CrankTrigger_Dummy_Timer.c ****     CrankTrigger_Dummy_Timer_WritePeriod(CrankTrigger_Dummy_Timer_INIT_PERIOD);
 119:Generated_Source\PSoC5/CrankTrigger_Dummy_Timer.c ****     CrankTrigger_Dummy_Timer_WriteCounter(CrankTrigger_Dummy_Timer_INIT_PERIOD);
 120:Generated_Source\PSoC5/CrankTrigger_Dummy_Timer.c **** 
 121:Generated_Source\PSoC5/CrankTrigger_Dummy_Timer.c ****     #if (CrankTrigger_Dummy_Timer_UsingHWCaptureCounter)/* Capture counter is enabled */
 122:Generated_Source\PSoC5/CrankTrigger_Dummy_Timer.c ****         CrankTrigger_Dummy_Timer_CAPTURE_COUNT_CTRL |= CrankTrigger_Dummy_Timer_CNTR_ENABLE;
 123:Generated_Source\PSoC5/CrankTrigger_Dummy_Timer.c ****         CrankTrigger_Dummy_Timer_SetCaptureCount(CrankTrigger_Dummy_Timer_INIT_CAPTURE_COUNT);
ARM GAS  C:\Users\Bruger\AppData\Local\Temp\ccCnG3ii.s 			page 43


 124:Generated_Source\PSoC5/CrankTrigger_Dummy_Timer.c ****     #endif /* Configure capture counter value */
 125:Generated_Source\PSoC5/CrankTrigger_Dummy_Timer.c **** 
 126:Generated_Source\PSoC5/CrankTrigger_Dummy_Timer.c ****     #if (!CrankTrigger_Dummy_Timer_UsingFixedFunction)
 127:Generated_Source\PSoC5/CrankTrigger_Dummy_Timer.c ****         #if (CrankTrigger_Dummy_Timer_SoftwareCaptureMode)
 128:Generated_Source\PSoC5/CrankTrigger_Dummy_Timer.c ****             CrankTrigger_Dummy_Timer_SetCaptureMode(CrankTrigger_Dummy_Timer_INIT_CAPTURE_MODE);
 129:Generated_Source\PSoC5/CrankTrigger_Dummy_Timer.c ****         #endif /* Set Capture Mode for UDB implementation if capture mode is software controlled */
 130:Generated_Source\PSoC5/CrankTrigger_Dummy_Timer.c **** 
 131:Generated_Source\PSoC5/CrankTrigger_Dummy_Timer.c ****         #if (CrankTrigger_Dummy_Timer_SoftwareTriggerMode)
 132:Generated_Source\PSoC5/CrankTrigger_Dummy_Timer.c ****             #if (!CrankTrigger_Dummy_Timer_UDB_CONTROL_REG_REMOVED)
 133:Generated_Source\PSoC5/CrankTrigger_Dummy_Timer.c ****                 if (0u == (CrankTrigger_Dummy_Timer_CONTROL & CrankTrigger_Dummy_Timer__B_TIMER__TM
 134:Generated_Source\PSoC5/CrankTrigger_Dummy_Timer.c ****                 {
 135:Generated_Source\PSoC5/CrankTrigger_Dummy_Timer.c ****                     CrankTrigger_Dummy_Timer_SetTriggerMode(CrankTrigger_Dummy_Timer_INIT_TRIGGER_M
 136:Generated_Source\PSoC5/CrankTrigger_Dummy_Timer.c ****                 }
 137:Generated_Source\PSoC5/CrankTrigger_Dummy_Timer.c ****             #endif /* (!CrankTrigger_Dummy_Timer_UDB_CONTROL_REG_REMOVED) */
 138:Generated_Source\PSoC5/CrankTrigger_Dummy_Timer.c ****         #endif /* Set trigger mode for UDB Implementation if trigger mode is software controlled */
 139:Generated_Source\PSoC5/CrankTrigger_Dummy_Timer.c **** 
 140:Generated_Source\PSoC5/CrankTrigger_Dummy_Timer.c ****         /* CyEnterCriticalRegion and CyExitCriticalRegion are used to mark following region critica
 141:Generated_Source\PSoC5/CrankTrigger_Dummy_Timer.c ****         /* Enter Critical Region*/
 142:Generated_Source\PSoC5/CrankTrigger_Dummy_Timer.c ****         CrankTrigger_Dummy_Timer_interruptState = CyEnterCriticalSection();
 143:Generated_Source\PSoC5/CrankTrigger_Dummy_Timer.c **** 
 144:Generated_Source\PSoC5/CrankTrigger_Dummy_Timer.c ****         /* Use the interrupt output of the status register for IRQ output */
 145:Generated_Source\PSoC5/CrankTrigger_Dummy_Timer.c ****         CrankTrigger_Dummy_Timer_STATUS_AUX_CTRL |= CrankTrigger_Dummy_Timer_STATUS_ACTL_INT_EN_MAS
 146:Generated_Source\PSoC5/CrankTrigger_Dummy_Timer.c **** 
 147:Generated_Source\PSoC5/CrankTrigger_Dummy_Timer.c ****         /* Exit Critical Region*/
 148:Generated_Source\PSoC5/CrankTrigger_Dummy_Timer.c ****         CyExitCriticalSection(CrankTrigger_Dummy_Timer_interruptState);
 149:Generated_Source\PSoC5/CrankTrigger_Dummy_Timer.c **** 
 150:Generated_Source\PSoC5/CrankTrigger_Dummy_Timer.c ****         #if (CrankTrigger_Dummy_Timer_EnableTriggerMode)
 151:Generated_Source\PSoC5/CrankTrigger_Dummy_Timer.c ****             CrankTrigger_Dummy_Timer_EnableTrigger();
 152:Generated_Source\PSoC5/CrankTrigger_Dummy_Timer.c ****         #endif /* Set Trigger enable bit for UDB implementation in the control register*/
 153:Generated_Source\PSoC5/CrankTrigger_Dummy_Timer.c **** 		
 154:Generated_Source\PSoC5/CrankTrigger_Dummy_Timer.c **** 		
 155:Generated_Source\PSoC5/CrankTrigger_Dummy_Timer.c ****         #if (CrankTrigger_Dummy_Timer_InterruptOnCaptureCount && !CrankTrigger_Dummy_Timer_UDB_CONT
 156:Generated_Source\PSoC5/CrankTrigger_Dummy_Timer.c ****             CrankTrigger_Dummy_Timer_SetInterruptCount(CrankTrigger_Dummy_Timer_INIT_INT_CAPTURE_CO
 157:Generated_Source\PSoC5/CrankTrigger_Dummy_Timer.c ****         #endif /* Set interrupt count in UDB implementation if interrupt count feature is checked.*
 158:Generated_Source\PSoC5/CrankTrigger_Dummy_Timer.c **** 
 159:Generated_Source\PSoC5/CrankTrigger_Dummy_Timer.c ****         CrankTrigger_Dummy_Timer_ClearFIFO();
 160:Generated_Source\PSoC5/CrankTrigger_Dummy_Timer.c ****     #endif /* Configure additional features of UDB implementation */
 161:Generated_Source\PSoC5/CrankTrigger_Dummy_Timer.c **** 
 162:Generated_Source\PSoC5/CrankTrigger_Dummy_Timer.c ****     CrankTrigger_Dummy_Timer_SetInterruptMode(CrankTrigger_Dummy_Timer_INIT_INTERRUPT_MODE);
 163:Generated_Source\PSoC5/CrankTrigger_Dummy_Timer.c **** }
 164:Generated_Source\PSoC5/CrankTrigger_Dummy_Timer.c **** 
 165:Generated_Source\PSoC5/CrankTrigger_Dummy_Timer.c **** 
 166:Generated_Source\PSoC5/CrankTrigger_Dummy_Timer.c **** /*******************************************************************************
 167:Generated_Source\PSoC5/CrankTrigger_Dummy_Timer.c **** * Function Name: CrankTrigger_Dummy_Timer_Enable
 168:Generated_Source\PSoC5/CrankTrigger_Dummy_Timer.c **** ********************************************************************************
 169:Generated_Source\PSoC5/CrankTrigger_Dummy_Timer.c **** *
 170:Generated_Source\PSoC5/CrankTrigger_Dummy_Timer.c **** * Summary:
 171:Generated_Source\PSoC5/CrankTrigger_Dummy_Timer.c **** *  Enable the Timer
 172:Generated_Source\PSoC5/CrankTrigger_Dummy_Timer.c **** *
 173:Generated_Source\PSoC5/CrankTrigger_Dummy_Timer.c **** * Parameters:
 174:Generated_Source\PSoC5/CrankTrigger_Dummy_Timer.c **** *  void
 175:Generated_Source\PSoC5/CrankTrigger_Dummy_Timer.c **** *
 176:Generated_Source\PSoC5/CrankTrigger_Dummy_Timer.c **** * Return:
 177:Generated_Source\PSoC5/CrankTrigger_Dummy_Timer.c **** *  void
 178:Generated_Source\PSoC5/CrankTrigger_Dummy_Timer.c **** *
 179:Generated_Source\PSoC5/CrankTrigger_Dummy_Timer.c **** *******************************************************************************/
 180:Generated_Source\PSoC5/CrankTrigger_Dummy_Timer.c **** void CrankTrigger_Dummy_Timer_Enable(void) 
ARM GAS  C:\Users\Bruger\AppData\Local\Temp\ccCnG3ii.s 			page 44


 181:Generated_Source\PSoC5/CrankTrigger_Dummy_Timer.c **** {
 182:Generated_Source\PSoC5/CrankTrigger_Dummy_Timer.c ****     /* Globally Enable the Fixed Function Block chosen */
 183:Generated_Source\PSoC5/CrankTrigger_Dummy_Timer.c ****     #if (CrankTrigger_Dummy_Timer_UsingFixedFunction)
 184:Generated_Source\PSoC5/CrankTrigger_Dummy_Timer.c ****         CrankTrigger_Dummy_Timer_GLOBAL_ENABLE |= CrankTrigger_Dummy_Timer_BLOCK_EN_MASK;
 185:Generated_Source\PSoC5/CrankTrigger_Dummy_Timer.c ****         CrankTrigger_Dummy_Timer_GLOBAL_STBY_ENABLE |= CrankTrigger_Dummy_Timer_BLOCK_STBY_EN_MASK;
 186:Generated_Source\PSoC5/CrankTrigger_Dummy_Timer.c ****     #endif /* Set Enable bit for enabling Fixed function timer*/
 187:Generated_Source\PSoC5/CrankTrigger_Dummy_Timer.c **** 
 188:Generated_Source\PSoC5/CrankTrigger_Dummy_Timer.c ****     /* Remove assignment if control register is removed */
 189:Generated_Source\PSoC5/CrankTrigger_Dummy_Timer.c ****     #if (!CrankTrigger_Dummy_Timer_UDB_CONTROL_REG_REMOVED || CrankTrigger_Dummy_Timer_UsingFixedFu
 190:Generated_Source\PSoC5/CrankTrigger_Dummy_Timer.c ****         CrankTrigger_Dummy_Timer_CONTROL |= CrankTrigger_Dummy_Timer_CTRL_ENABLE;
 191:Generated_Source\PSoC5/CrankTrigger_Dummy_Timer.c ****     #endif /* Remove assignment if control register is removed */
 192:Generated_Source\PSoC5/CrankTrigger_Dummy_Timer.c **** }
 193:Generated_Source\PSoC5/CrankTrigger_Dummy_Timer.c **** 
 194:Generated_Source\PSoC5/CrankTrigger_Dummy_Timer.c **** 
 195:Generated_Source\PSoC5/CrankTrigger_Dummy_Timer.c **** /*******************************************************************************
 196:Generated_Source\PSoC5/CrankTrigger_Dummy_Timer.c **** * Function Name: CrankTrigger_Dummy_Timer_Start
 197:Generated_Source\PSoC5/CrankTrigger_Dummy_Timer.c **** ********************************************************************************
 198:Generated_Source\PSoC5/CrankTrigger_Dummy_Timer.c **** *
 199:Generated_Source\PSoC5/CrankTrigger_Dummy_Timer.c **** * Summary:
 200:Generated_Source\PSoC5/CrankTrigger_Dummy_Timer.c **** *  The start function initializes the timer with the default values, the
 201:Generated_Source\PSoC5/CrankTrigger_Dummy_Timer.c **** *  enables the timerto begin counting.  It does not enable interrupts,
 202:Generated_Source\PSoC5/CrankTrigger_Dummy_Timer.c **** *  the EnableInt command should be called if interrupt generation is required.
 203:Generated_Source\PSoC5/CrankTrigger_Dummy_Timer.c **** *
 204:Generated_Source\PSoC5/CrankTrigger_Dummy_Timer.c **** * Parameters:
 205:Generated_Source\PSoC5/CrankTrigger_Dummy_Timer.c **** *  void
 206:Generated_Source\PSoC5/CrankTrigger_Dummy_Timer.c **** *
 207:Generated_Source\PSoC5/CrankTrigger_Dummy_Timer.c **** * Return:
 208:Generated_Source\PSoC5/CrankTrigger_Dummy_Timer.c **** *  void
 209:Generated_Source\PSoC5/CrankTrigger_Dummy_Timer.c **** *
 210:Generated_Source\PSoC5/CrankTrigger_Dummy_Timer.c **** * Global variables:
 211:Generated_Source\PSoC5/CrankTrigger_Dummy_Timer.c **** *  CrankTrigger_Dummy_Timer_initVar: Is modified when this function is called for the
 212:Generated_Source\PSoC5/CrankTrigger_Dummy_Timer.c **** *   first time. Is used to ensure that initialization happens only once.
 213:Generated_Source\PSoC5/CrankTrigger_Dummy_Timer.c **** *
 214:Generated_Source\PSoC5/CrankTrigger_Dummy_Timer.c **** *******************************************************************************/
 215:Generated_Source\PSoC5/CrankTrigger_Dummy_Timer.c **** void CrankTrigger_Dummy_Timer_Start(void) 
 216:Generated_Source\PSoC5/CrankTrigger_Dummy_Timer.c **** {
 217:Generated_Source\PSoC5/CrankTrigger_Dummy_Timer.c ****     if(CrankTrigger_Dummy_Timer_initVar == 0u)
 218:Generated_Source\PSoC5/CrankTrigger_Dummy_Timer.c ****     {
 219:Generated_Source\PSoC5/CrankTrigger_Dummy_Timer.c ****         CrankTrigger_Dummy_Timer_Init();
 220:Generated_Source\PSoC5/CrankTrigger_Dummy_Timer.c **** 
 221:Generated_Source\PSoC5/CrankTrigger_Dummy_Timer.c ****         CrankTrigger_Dummy_Timer_initVar = 1u;   /* Clear this bit for Initialization */
 222:Generated_Source\PSoC5/CrankTrigger_Dummy_Timer.c ****     }
 223:Generated_Source\PSoC5/CrankTrigger_Dummy_Timer.c **** 
 224:Generated_Source\PSoC5/CrankTrigger_Dummy_Timer.c ****     /* Enable the Timer */
 225:Generated_Source\PSoC5/CrankTrigger_Dummy_Timer.c ****     CrankTrigger_Dummy_Timer_Enable();
 226:Generated_Source\PSoC5/CrankTrigger_Dummy_Timer.c **** }
 227:Generated_Source\PSoC5/CrankTrigger_Dummy_Timer.c **** 
 228:Generated_Source\PSoC5/CrankTrigger_Dummy_Timer.c **** 
 229:Generated_Source\PSoC5/CrankTrigger_Dummy_Timer.c **** /*******************************************************************************
 230:Generated_Source\PSoC5/CrankTrigger_Dummy_Timer.c **** * Function Name: CrankTrigger_Dummy_Timer_Stop
 231:Generated_Source\PSoC5/CrankTrigger_Dummy_Timer.c **** ********************************************************************************
 232:Generated_Source\PSoC5/CrankTrigger_Dummy_Timer.c **** *
 233:Generated_Source\PSoC5/CrankTrigger_Dummy_Timer.c **** * Summary:
 234:Generated_Source\PSoC5/CrankTrigger_Dummy_Timer.c **** *  The stop function halts the timer, but does not change any modes or disable
 235:Generated_Source\PSoC5/CrankTrigger_Dummy_Timer.c **** *  interrupts.
 236:Generated_Source\PSoC5/CrankTrigger_Dummy_Timer.c **** *
 237:Generated_Source\PSoC5/CrankTrigger_Dummy_Timer.c **** * Parameters:
ARM GAS  C:\Users\Bruger\AppData\Local\Temp\ccCnG3ii.s 			page 45


 238:Generated_Source\PSoC5/CrankTrigger_Dummy_Timer.c **** *  void
 239:Generated_Source\PSoC5/CrankTrigger_Dummy_Timer.c **** *
 240:Generated_Source\PSoC5/CrankTrigger_Dummy_Timer.c **** * Return:
 241:Generated_Source\PSoC5/CrankTrigger_Dummy_Timer.c **** *  void
 242:Generated_Source\PSoC5/CrankTrigger_Dummy_Timer.c **** *
 243:Generated_Source\PSoC5/CrankTrigger_Dummy_Timer.c **** * Side Effects: If the Enable mode is set to Hardware only then this function
 244:Generated_Source\PSoC5/CrankTrigger_Dummy_Timer.c **** *               has no effect on the operation of the timer.
 245:Generated_Source\PSoC5/CrankTrigger_Dummy_Timer.c **** *
 246:Generated_Source\PSoC5/CrankTrigger_Dummy_Timer.c **** *******************************************************************************/
 247:Generated_Source\PSoC5/CrankTrigger_Dummy_Timer.c **** void CrankTrigger_Dummy_Timer_Stop(void) 
 248:Generated_Source\PSoC5/CrankTrigger_Dummy_Timer.c **** {
 249:Generated_Source\PSoC5/CrankTrigger_Dummy_Timer.c ****     /* Disable Timer */
 250:Generated_Source\PSoC5/CrankTrigger_Dummy_Timer.c ****     #if(!CrankTrigger_Dummy_Timer_UDB_CONTROL_REG_REMOVED || CrankTrigger_Dummy_Timer_UsingFixedFun
 251:Generated_Source\PSoC5/CrankTrigger_Dummy_Timer.c ****         CrankTrigger_Dummy_Timer_CONTROL &= ((uint8)(~CrankTrigger_Dummy_Timer_CTRL_ENABLE));
 252:Generated_Source\PSoC5/CrankTrigger_Dummy_Timer.c ****     #endif /* Remove assignment if control register is removed */
 253:Generated_Source\PSoC5/CrankTrigger_Dummy_Timer.c **** 
 254:Generated_Source\PSoC5/CrankTrigger_Dummy_Timer.c ****     /* Globally disable the Fixed Function Block chosen */
 255:Generated_Source\PSoC5/CrankTrigger_Dummy_Timer.c ****     #if (CrankTrigger_Dummy_Timer_UsingFixedFunction)
 256:Generated_Source\PSoC5/CrankTrigger_Dummy_Timer.c ****         CrankTrigger_Dummy_Timer_GLOBAL_ENABLE &= ((uint8)(~CrankTrigger_Dummy_Timer_BLOCK_EN_MASK)
 257:Generated_Source\PSoC5/CrankTrigger_Dummy_Timer.c ****         CrankTrigger_Dummy_Timer_GLOBAL_STBY_ENABLE &= ((uint8)(~CrankTrigger_Dummy_Timer_BLOCK_STB
 258:Generated_Source\PSoC5/CrankTrigger_Dummy_Timer.c ****     #endif /* Disable global enable for the Timer Fixed function block to stop the Timer*/
 259:Generated_Source\PSoC5/CrankTrigger_Dummy_Timer.c **** }
 260:Generated_Source\PSoC5/CrankTrigger_Dummy_Timer.c **** 
 261:Generated_Source\PSoC5/CrankTrigger_Dummy_Timer.c **** 
 262:Generated_Source\PSoC5/CrankTrigger_Dummy_Timer.c **** /*******************************************************************************
 263:Generated_Source\PSoC5/CrankTrigger_Dummy_Timer.c **** * Function Name: CrankTrigger_Dummy_Timer_SetInterruptMode
 264:Generated_Source\PSoC5/CrankTrigger_Dummy_Timer.c **** ********************************************************************************
 265:Generated_Source\PSoC5/CrankTrigger_Dummy_Timer.c **** *
 266:Generated_Source\PSoC5/CrankTrigger_Dummy_Timer.c **** * Summary:
 267:Generated_Source\PSoC5/CrankTrigger_Dummy_Timer.c **** *  This function selects which of the interrupt inputs may cause an interrupt.
 268:Generated_Source\PSoC5/CrankTrigger_Dummy_Timer.c **** *  The twosources are caputure and terminal.  One, both or neither may
 269:Generated_Source\PSoC5/CrankTrigger_Dummy_Timer.c **** *  be selected.
 270:Generated_Source\PSoC5/CrankTrigger_Dummy_Timer.c **** *
 271:Generated_Source\PSoC5/CrankTrigger_Dummy_Timer.c **** * Parameters:
 272:Generated_Source\PSoC5/CrankTrigger_Dummy_Timer.c **** *  interruptMode:   This parameter is used to enable interrups on either/or
 273:Generated_Source\PSoC5/CrankTrigger_Dummy_Timer.c **** *                   terminal count or capture.
 274:Generated_Source\PSoC5/CrankTrigger_Dummy_Timer.c **** *
 275:Generated_Source\PSoC5/CrankTrigger_Dummy_Timer.c **** * Return:
 276:Generated_Source\PSoC5/CrankTrigger_Dummy_Timer.c **** *  void
 277:Generated_Source\PSoC5/CrankTrigger_Dummy_Timer.c **** *
 278:Generated_Source\PSoC5/CrankTrigger_Dummy_Timer.c **** *******************************************************************************/
 279:Generated_Source\PSoC5/CrankTrigger_Dummy_Timer.c **** void CrankTrigger_Dummy_Timer_SetInterruptMode(uint8 interruptMode) 
 280:Generated_Source\PSoC5/CrankTrigger_Dummy_Timer.c **** {
 281:Generated_Source\PSoC5/CrankTrigger_Dummy_Timer.c ****     CrankTrigger_Dummy_Timer_STATUS_MASK = interruptMode;
 568              		.loc 1 281 0
 569 001c 144E     		ldr	r6, .L3+16
 570              	.LBE17:
 571              	.LBE16:
  66:Generated_Source\PSoC5/CrankTrigger_Dummy_Timer.c ****         #endif /* One Shot enabled only when RunModeUsed is not Continuous*/
 572              		.loc 1 66 0
 573 001e 44F00404 		orr	r4, r4, #4
 574 0022 1470     		strb	r4, [r2]
 106:Generated_Source\PSoC5/CrankTrigger_Dummy_Timer.c ****         CrankTrigger_Dummy_Timer_RT1 |= CrankTrigger_Dummy_Timer_SYNC;
 575              		.loc 1 106 0
 576 0024 1A78     		ldrb	r2, [r3]	@ zero_extendqisi2
 577              	.LBB20:
 578              	.LBB21:
ARM GAS  C:\Users\Bruger\AppData\Local\Temp\ccCnG3ii.s 			page 46


 282:Generated_Source\PSoC5/CrankTrigger_Dummy_Timer.c **** }
 283:Generated_Source\PSoC5/CrankTrigger_Dummy_Timer.c **** 
 284:Generated_Source\PSoC5/CrankTrigger_Dummy_Timer.c **** 
 285:Generated_Source\PSoC5/CrankTrigger_Dummy_Timer.c **** /*******************************************************************************
 286:Generated_Source\PSoC5/CrankTrigger_Dummy_Timer.c **** * Function Name: CrankTrigger_Dummy_Timer_SoftwareCapture
 287:Generated_Source\PSoC5/CrankTrigger_Dummy_Timer.c **** ********************************************************************************
 288:Generated_Source\PSoC5/CrankTrigger_Dummy_Timer.c **** *
 289:Generated_Source\PSoC5/CrankTrigger_Dummy_Timer.c **** * Summary:
 290:Generated_Source\PSoC5/CrankTrigger_Dummy_Timer.c **** *  This function forces a capture independent of the capture signal.
 291:Generated_Source\PSoC5/CrankTrigger_Dummy_Timer.c **** *
 292:Generated_Source\PSoC5/CrankTrigger_Dummy_Timer.c **** * Parameters:
 293:Generated_Source\PSoC5/CrankTrigger_Dummy_Timer.c **** *  void
 294:Generated_Source\PSoC5/CrankTrigger_Dummy_Timer.c **** *
 295:Generated_Source\PSoC5/CrankTrigger_Dummy_Timer.c **** * Return:
 296:Generated_Source\PSoC5/CrankTrigger_Dummy_Timer.c **** *  void
 297:Generated_Source\PSoC5/CrankTrigger_Dummy_Timer.c **** *
 298:Generated_Source\PSoC5/CrankTrigger_Dummy_Timer.c **** * Side Effects:
 299:Generated_Source\PSoC5/CrankTrigger_Dummy_Timer.c **** *  An existing hardware capture could be overwritten.
 300:Generated_Source\PSoC5/CrankTrigger_Dummy_Timer.c **** *
 301:Generated_Source\PSoC5/CrankTrigger_Dummy_Timer.c **** *******************************************************************************/
 302:Generated_Source\PSoC5/CrankTrigger_Dummy_Timer.c **** void CrankTrigger_Dummy_Timer_SoftwareCapture(void) 
 303:Generated_Source\PSoC5/CrankTrigger_Dummy_Timer.c **** {
 304:Generated_Source\PSoC5/CrankTrigger_Dummy_Timer.c ****     /* Generate a software capture by reading the counter register */
 305:Generated_Source\PSoC5/CrankTrigger_Dummy_Timer.c ****     #if(CrankTrigger_Dummy_Timer_UsingFixedFunction)
 306:Generated_Source\PSoC5/CrankTrigger_Dummy_Timer.c ****         (void)CY_GET_REG16(CrankTrigger_Dummy_Timer_COUNTER_LSB_PTR);
 307:Generated_Source\PSoC5/CrankTrigger_Dummy_Timer.c ****     #else
 308:Generated_Source\PSoC5/CrankTrigger_Dummy_Timer.c ****         (void)CY_GET_REG8(CrankTrigger_Dummy_Timer_COUNTER_LSB_PTR_8BIT);
 309:Generated_Source\PSoC5/CrankTrigger_Dummy_Timer.c ****     #endif/* (CrankTrigger_Dummy_Timer_UsingFixedFunction) */
 310:Generated_Source\PSoC5/CrankTrigger_Dummy_Timer.c ****     /* Capture Data is now in the FIFO */
 311:Generated_Source\PSoC5/CrankTrigger_Dummy_Timer.c **** }
 312:Generated_Source\PSoC5/CrankTrigger_Dummy_Timer.c **** 
 313:Generated_Source\PSoC5/CrankTrigger_Dummy_Timer.c **** 
 314:Generated_Source\PSoC5/CrankTrigger_Dummy_Timer.c **** /*******************************************************************************
 315:Generated_Source\PSoC5/CrankTrigger_Dummy_Timer.c **** * Function Name: CrankTrigger_Dummy_Timer_ReadStatusRegister
 316:Generated_Source\PSoC5/CrankTrigger_Dummy_Timer.c **** ********************************************************************************
 317:Generated_Source\PSoC5/CrankTrigger_Dummy_Timer.c **** *
 318:Generated_Source\PSoC5/CrankTrigger_Dummy_Timer.c **** * Summary:
 319:Generated_Source\PSoC5/CrankTrigger_Dummy_Timer.c **** *  Reads the status register and returns it's state. This function should use
 320:Generated_Source\PSoC5/CrankTrigger_Dummy_Timer.c **** *  defined types for the bit-field information as the bits in this register may
 321:Generated_Source\PSoC5/CrankTrigger_Dummy_Timer.c **** *  be permuteable.
 322:Generated_Source\PSoC5/CrankTrigger_Dummy_Timer.c **** *
 323:Generated_Source\PSoC5/CrankTrigger_Dummy_Timer.c **** * Parameters:
 324:Generated_Source\PSoC5/CrankTrigger_Dummy_Timer.c **** *  void
 325:Generated_Source\PSoC5/CrankTrigger_Dummy_Timer.c **** *
 326:Generated_Source\PSoC5/CrankTrigger_Dummy_Timer.c **** * Return:
 327:Generated_Source\PSoC5/CrankTrigger_Dummy_Timer.c **** *  The contents of the status register
 328:Generated_Source\PSoC5/CrankTrigger_Dummy_Timer.c **** *
 329:Generated_Source\PSoC5/CrankTrigger_Dummy_Timer.c **** * Side Effects:
 330:Generated_Source\PSoC5/CrankTrigger_Dummy_Timer.c **** *  Status register bits may be clear on read.
 331:Generated_Source\PSoC5/CrankTrigger_Dummy_Timer.c **** *
 332:Generated_Source\PSoC5/CrankTrigger_Dummy_Timer.c **** *******************************************************************************/
 333:Generated_Source\PSoC5/CrankTrigger_Dummy_Timer.c **** uint8   CrankTrigger_Dummy_Timer_ReadStatusRegister(void) 
 334:Generated_Source\PSoC5/CrankTrigger_Dummy_Timer.c **** {
 335:Generated_Source\PSoC5/CrankTrigger_Dummy_Timer.c ****     return (CrankTrigger_Dummy_Timer_STATUS);
 336:Generated_Source\PSoC5/CrankTrigger_Dummy_Timer.c **** }
 337:Generated_Source\PSoC5/CrankTrigger_Dummy_Timer.c **** 
 338:Generated_Source\PSoC5/CrankTrigger_Dummy_Timer.c **** 
ARM GAS  C:\Users\Bruger\AppData\Local\Temp\ccCnG3ii.s 			page 47


 339:Generated_Source\PSoC5/CrankTrigger_Dummy_Timer.c **** #if (!CrankTrigger_Dummy_Timer_UDB_CONTROL_REG_REMOVED) /* Remove API if control register is unused
 340:Generated_Source\PSoC5/CrankTrigger_Dummy_Timer.c **** 
 341:Generated_Source\PSoC5/CrankTrigger_Dummy_Timer.c **** 
 342:Generated_Source\PSoC5/CrankTrigger_Dummy_Timer.c **** /*******************************************************************************
 343:Generated_Source\PSoC5/CrankTrigger_Dummy_Timer.c **** * Function Name: CrankTrigger_Dummy_Timer_ReadControlRegister
 344:Generated_Source\PSoC5/CrankTrigger_Dummy_Timer.c **** ********************************************************************************
 345:Generated_Source\PSoC5/CrankTrigger_Dummy_Timer.c **** *
 346:Generated_Source\PSoC5/CrankTrigger_Dummy_Timer.c **** * Summary:
 347:Generated_Source\PSoC5/CrankTrigger_Dummy_Timer.c **** *  Reads the control register and returns it's value.
 348:Generated_Source\PSoC5/CrankTrigger_Dummy_Timer.c **** *
 349:Generated_Source\PSoC5/CrankTrigger_Dummy_Timer.c **** * Parameters:
 350:Generated_Source\PSoC5/CrankTrigger_Dummy_Timer.c **** *  void
 351:Generated_Source\PSoC5/CrankTrigger_Dummy_Timer.c **** *
 352:Generated_Source\PSoC5/CrankTrigger_Dummy_Timer.c **** * Return:
 353:Generated_Source\PSoC5/CrankTrigger_Dummy_Timer.c **** *  The contents of the control register
 354:Generated_Source\PSoC5/CrankTrigger_Dummy_Timer.c **** *
 355:Generated_Source\PSoC5/CrankTrigger_Dummy_Timer.c **** *******************************************************************************/
 356:Generated_Source\PSoC5/CrankTrigger_Dummy_Timer.c **** uint8 CrankTrigger_Dummy_Timer_ReadControlRegister(void) 
 357:Generated_Source\PSoC5/CrankTrigger_Dummy_Timer.c **** {
 358:Generated_Source\PSoC5/CrankTrigger_Dummy_Timer.c ****     #if (!CrankTrigger_Dummy_Timer_UDB_CONTROL_REG_REMOVED) 
 359:Generated_Source\PSoC5/CrankTrigger_Dummy_Timer.c ****         return ((uint8)CrankTrigger_Dummy_Timer_CONTROL);
 360:Generated_Source\PSoC5/CrankTrigger_Dummy_Timer.c ****     #else
 361:Generated_Source\PSoC5/CrankTrigger_Dummy_Timer.c ****         return (0);
 362:Generated_Source\PSoC5/CrankTrigger_Dummy_Timer.c ****     #endif /* (!CrankTrigger_Dummy_Timer_UDB_CONTROL_REG_REMOVED) */
 363:Generated_Source\PSoC5/CrankTrigger_Dummy_Timer.c **** }
 364:Generated_Source\PSoC5/CrankTrigger_Dummy_Timer.c **** 
 365:Generated_Source\PSoC5/CrankTrigger_Dummy_Timer.c **** 
 366:Generated_Source\PSoC5/CrankTrigger_Dummy_Timer.c **** /*******************************************************************************
 367:Generated_Source\PSoC5/CrankTrigger_Dummy_Timer.c **** * Function Name: CrankTrigger_Dummy_Timer_WriteControlRegister
 368:Generated_Source\PSoC5/CrankTrigger_Dummy_Timer.c **** ********************************************************************************
 369:Generated_Source\PSoC5/CrankTrigger_Dummy_Timer.c **** *
 370:Generated_Source\PSoC5/CrankTrigger_Dummy_Timer.c **** * Summary:
 371:Generated_Source\PSoC5/CrankTrigger_Dummy_Timer.c **** *  Sets the bit-field of the control register.
 372:Generated_Source\PSoC5/CrankTrigger_Dummy_Timer.c **** *
 373:Generated_Source\PSoC5/CrankTrigger_Dummy_Timer.c **** * Parameters:
 374:Generated_Source\PSoC5/CrankTrigger_Dummy_Timer.c **** *  control: The contents of the control register
 375:Generated_Source\PSoC5/CrankTrigger_Dummy_Timer.c **** *
 376:Generated_Source\PSoC5/CrankTrigger_Dummy_Timer.c **** * Return:
 377:Generated_Source\PSoC5/CrankTrigger_Dummy_Timer.c **** *
 378:Generated_Source\PSoC5/CrankTrigger_Dummy_Timer.c **** *******************************************************************************/
 379:Generated_Source\PSoC5/CrankTrigger_Dummy_Timer.c **** void CrankTrigger_Dummy_Timer_WriteControlRegister(uint8 control) 
 380:Generated_Source\PSoC5/CrankTrigger_Dummy_Timer.c **** {
 381:Generated_Source\PSoC5/CrankTrigger_Dummy_Timer.c ****     #if (!CrankTrigger_Dummy_Timer_UDB_CONTROL_REG_REMOVED) 
 382:Generated_Source\PSoC5/CrankTrigger_Dummy_Timer.c ****         CrankTrigger_Dummy_Timer_CONTROL = control;
 383:Generated_Source\PSoC5/CrankTrigger_Dummy_Timer.c ****     #else
 384:Generated_Source\PSoC5/CrankTrigger_Dummy_Timer.c ****         control = 0u;
 385:Generated_Source\PSoC5/CrankTrigger_Dummy_Timer.c ****     #endif /* (!CrankTrigger_Dummy_Timer_UDB_CONTROL_REG_REMOVED) */
 386:Generated_Source\PSoC5/CrankTrigger_Dummy_Timer.c **** }
 387:Generated_Source\PSoC5/CrankTrigger_Dummy_Timer.c **** 
 388:Generated_Source\PSoC5/CrankTrigger_Dummy_Timer.c **** #endif /* Remove API if control register is unused */
 389:Generated_Source\PSoC5/CrankTrigger_Dummy_Timer.c **** 
 390:Generated_Source\PSoC5/CrankTrigger_Dummy_Timer.c **** 
 391:Generated_Source\PSoC5/CrankTrigger_Dummy_Timer.c **** /*******************************************************************************
 392:Generated_Source\PSoC5/CrankTrigger_Dummy_Timer.c **** * Function Name: CrankTrigger_Dummy_Timer_ReadPeriod
 393:Generated_Source\PSoC5/CrankTrigger_Dummy_Timer.c **** ********************************************************************************
 394:Generated_Source\PSoC5/CrankTrigger_Dummy_Timer.c **** *
 395:Generated_Source\PSoC5/CrankTrigger_Dummy_Timer.c **** * Summary:
ARM GAS  C:\Users\Bruger\AppData\Local\Temp\ccCnG3ii.s 			page 48


 396:Generated_Source\PSoC5/CrankTrigger_Dummy_Timer.c **** *  This function returns the current value of the Period.
 397:Generated_Source\PSoC5/CrankTrigger_Dummy_Timer.c **** *
 398:Generated_Source\PSoC5/CrankTrigger_Dummy_Timer.c **** * Parameters:
 399:Generated_Source\PSoC5/CrankTrigger_Dummy_Timer.c **** *  void
 400:Generated_Source\PSoC5/CrankTrigger_Dummy_Timer.c **** *
 401:Generated_Source\PSoC5/CrankTrigger_Dummy_Timer.c **** * Return:
 402:Generated_Source\PSoC5/CrankTrigger_Dummy_Timer.c **** *  The present value of the counter.
 403:Generated_Source\PSoC5/CrankTrigger_Dummy_Timer.c **** *
 404:Generated_Source\PSoC5/CrankTrigger_Dummy_Timer.c **** *******************************************************************************/
 405:Generated_Source\PSoC5/CrankTrigger_Dummy_Timer.c **** uint16 CrankTrigger_Dummy_Timer_ReadPeriod(void) 
 406:Generated_Source\PSoC5/CrankTrigger_Dummy_Timer.c **** {
 407:Generated_Source\PSoC5/CrankTrigger_Dummy_Timer.c ****    #if(CrankTrigger_Dummy_Timer_UsingFixedFunction)
 408:Generated_Source\PSoC5/CrankTrigger_Dummy_Timer.c ****        return ((uint16)CY_GET_REG16(CrankTrigger_Dummy_Timer_PERIOD_LSB_PTR));
 409:Generated_Source\PSoC5/CrankTrigger_Dummy_Timer.c ****    #else
 410:Generated_Source\PSoC5/CrankTrigger_Dummy_Timer.c ****        return (CY_GET_REG16(CrankTrigger_Dummy_Timer_PERIOD_LSB_PTR));
 411:Generated_Source\PSoC5/CrankTrigger_Dummy_Timer.c ****    #endif /* (CrankTrigger_Dummy_Timer_UsingFixedFunction) */
 412:Generated_Source\PSoC5/CrankTrigger_Dummy_Timer.c **** }
 413:Generated_Source\PSoC5/CrankTrigger_Dummy_Timer.c **** 
 414:Generated_Source\PSoC5/CrankTrigger_Dummy_Timer.c **** 
 415:Generated_Source\PSoC5/CrankTrigger_Dummy_Timer.c **** /*******************************************************************************
 416:Generated_Source\PSoC5/CrankTrigger_Dummy_Timer.c **** * Function Name: CrankTrigger_Dummy_Timer_WritePeriod
 417:Generated_Source\PSoC5/CrankTrigger_Dummy_Timer.c **** ********************************************************************************
 418:Generated_Source\PSoC5/CrankTrigger_Dummy_Timer.c **** *
 419:Generated_Source\PSoC5/CrankTrigger_Dummy_Timer.c **** * Summary:
 420:Generated_Source\PSoC5/CrankTrigger_Dummy_Timer.c **** *  This function is used to change the period of the counter.  The new period
 421:Generated_Source\PSoC5/CrankTrigger_Dummy_Timer.c **** *  will be loaded the next time terminal count is detected.
 422:Generated_Source\PSoC5/CrankTrigger_Dummy_Timer.c **** *
 423:Generated_Source\PSoC5/CrankTrigger_Dummy_Timer.c **** * Parameters:
 424:Generated_Source\PSoC5/CrankTrigger_Dummy_Timer.c **** *  period: This value may be between 1 and (2^Resolution)-1.  A value of 0 will
 425:Generated_Source\PSoC5/CrankTrigger_Dummy_Timer.c **** *          result in the counter remaining at zero.
 426:Generated_Source\PSoC5/CrankTrigger_Dummy_Timer.c **** *
 427:Generated_Source\PSoC5/CrankTrigger_Dummy_Timer.c **** * Return:
 428:Generated_Source\PSoC5/CrankTrigger_Dummy_Timer.c **** *  void
 429:Generated_Source\PSoC5/CrankTrigger_Dummy_Timer.c **** *
 430:Generated_Source\PSoC5/CrankTrigger_Dummy_Timer.c **** *******************************************************************************/
 431:Generated_Source\PSoC5/CrankTrigger_Dummy_Timer.c **** void CrankTrigger_Dummy_Timer_WritePeriod(uint16 period) 
 432:Generated_Source\PSoC5/CrankTrigger_Dummy_Timer.c **** {
 433:Generated_Source\PSoC5/CrankTrigger_Dummy_Timer.c ****     #if(CrankTrigger_Dummy_Timer_UsingFixedFunction)
 434:Generated_Source\PSoC5/CrankTrigger_Dummy_Timer.c ****         uint16 period_temp = (uint16)period;
 435:Generated_Source\PSoC5/CrankTrigger_Dummy_Timer.c ****         CY_SET_REG16(CrankTrigger_Dummy_Timer_PERIOD_LSB_PTR, period_temp);
 436:Generated_Source\PSoC5/CrankTrigger_Dummy_Timer.c ****     #else
 437:Generated_Source\PSoC5/CrankTrigger_Dummy_Timer.c ****         CY_SET_REG16(CrankTrigger_Dummy_Timer_PERIOD_LSB_PTR, period);
 438:Generated_Source\PSoC5/CrankTrigger_Dummy_Timer.c ****     #endif /*Write Period value with appropriate resolution suffix depending on UDB or fixed functi
 439:Generated_Source\PSoC5/CrankTrigger_Dummy_Timer.c **** }
 440:Generated_Source\PSoC5/CrankTrigger_Dummy_Timer.c **** 
 441:Generated_Source\PSoC5/CrankTrigger_Dummy_Timer.c **** 
 442:Generated_Source\PSoC5/CrankTrigger_Dummy_Timer.c **** /*******************************************************************************
 443:Generated_Source\PSoC5/CrankTrigger_Dummy_Timer.c **** * Function Name: CrankTrigger_Dummy_Timer_ReadCapture
 444:Generated_Source\PSoC5/CrankTrigger_Dummy_Timer.c **** ********************************************************************************
 445:Generated_Source\PSoC5/CrankTrigger_Dummy_Timer.c **** *
 446:Generated_Source\PSoC5/CrankTrigger_Dummy_Timer.c **** * Summary:
 447:Generated_Source\PSoC5/CrankTrigger_Dummy_Timer.c **** *  This function returns the last value captured.
 448:Generated_Source\PSoC5/CrankTrigger_Dummy_Timer.c **** *
 449:Generated_Source\PSoC5/CrankTrigger_Dummy_Timer.c **** * Parameters:
 450:Generated_Source\PSoC5/CrankTrigger_Dummy_Timer.c **** *  void
 451:Generated_Source\PSoC5/CrankTrigger_Dummy_Timer.c **** *
 452:Generated_Source\PSoC5/CrankTrigger_Dummy_Timer.c **** * Return:
ARM GAS  C:\Users\Bruger\AppData\Local\Temp\ccCnG3ii.s 			page 49


 453:Generated_Source\PSoC5/CrankTrigger_Dummy_Timer.c **** *  Present Capture value.
 454:Generated_Source\PSoC5/CrankTrigger_Dummy_Timer.c **** *
 455:Generated_Source\PSoC5/CrankTrigger_Dummy_Timer.c **** *******************************************************************************/
 456:Generated_Source\PSoC5/CrankTrigger_Dummy_Timer.c **** uint16 CrankTrigger_Dummy_Timer_ReadCapture(void) 
 457:Generated_Source\PSoC5/CrankTrigger_Dummy_Timer.c **** {
 458:Generated_Source\PSoC5/CrankTrigger_Dummy_Timer.c ****    #if(CrankTrigger_Dummy_Timer_UsingFixedFunction)
 459:Generated_Source\PSoC5/CrankTrigger_Dummy_Timer.c ****        return ((uint16)CY_GET_REG16(CrankTrigger_Dummy_Timer_CAPTURE_LSB_PTR));
 460:Generated_Source\PSoC5/CrankTrigger_Dummy_Timer.c ****    #else
 461:Generated_Source\PSoC5/CrankTrigger_Dummy_Timer.c ****        return (CY_GET_REG16(CrankTrigger_Dummy_Timer_CAPTURE_LSB_PTR));
 462:Generated_Source\PSoC5/CrankTrigger_Dummy_Timer.c ****    #endif /* (CrankTrigger_Dummy_Timer_UsingFixedFunction) */
 463:Generated_Source\PSoC5/CrankTrigger_Dummy_Timer.c **** }
 464:Generated_Source\PSoC5/CrankTrigger_Dummy_Timer.c **** 
 465:Generated_Source\PSoC5/CrankTrigger_Dummy_Timer.c **** 
 466:Generated_Source\PSoC5/CrankTrigger_Dummy_Timer.c **** /*******************************************************************************
 467:Generated_Source\PSoC5/CrankTrigger_Dummy_Timer.c **** * Function Name: CrankTrigger_Dummy_Timer_WriteCounter
 468:Generated_Source\PSoC5/CrankTrigger_Dummy_Timer.c **** ********************************************************************************
 469:Generated_Source\PSoC5/CrankTrigger_Dummy_Timer.c **** *
 470:Generated_Source\PSoC5/CrankTrigger_Dummy_Timer.c **** * Summary:
 471:Generated_Source\PSoC5/CrankTrigger_Dummy_Timer.c **** *  This funtion is used to set the counter to a specific value
 472:Generated_Source\PSoC5/CrankTrigger_Dummy_Timer.c **** *
 473:Generated_Source\PSoC5/CrankTrigger_Dummy_Timer.c **** * Parameters:
 474:Generated_Source\PSoC5/CrankTrigger_Dummy_Timer.c **** *  counter:  New counter value.
 475:Generated_Source\PSoC5/CrankTrigger_Dummy_Timer.c **** *
 476:Generated_Source\PSoC5/CrankTrigger_Dummy_Timer.c **** * Return:
 477:Generated_Source\PSoC5/CrankTrigger_Dummy_Timer.c **** *  void
 478:Generated_Source\PSoC5/CrankTrigger_Dummy_Timer.c **** *
 479:Generated_Source\PSoC5/CrankTrigger_Dummy_Timer.c **** *******************************************************************************/
 480:Generated_Source\PSoC5/CrankTrigger_Dummy_Timer.c **** void CrankTrigger_Dummy_Timer_WriteCounter(uint16 counter) 
 481:Generated_Source\PSoC5/CrankTrigger_Dummy_Timer.c **** {
 482:Generated_Source\PSoC5/CrankTrigger_Dummy_Timer.c ****    #if(CrankTrigger_Dummy_Timer_UsingFixedFunction)
 483:Generated_Source\PSoC5/CrankTrigger_Dummy_Timer.c ****         /* This functionality is removed until a FixedFunction HW update to
 484:Generated_Source\PSoC5/CrankTrigger_Dummy_Timer.c ****          * allow this register to be written
 485:Generated_Source\PSoC5/CrankTrigger_Dummy_Timer.c ****          */
 486:Generated_Source\PSoC5/CrankTrigger_Dummy_Timer.c ****         CY_SET_REG16(CrankTrigger_Dummy_Timer_COUNTER_LSB_PTR, (uint16)counter);
 579              		.loc 1 486 0
 580 0026 134C     		ldr	r4, .L3+20
 581              	.LBE21:
 582              	.LBE20:
 106:Generated_Source\PSoC5/CrankTrigger_Dummy_Timer.c ****         CrankTrigger_Dummy_Timer_RT1 |= CrankTrigger_Dummy_Timer_SYNC;
 583              		.loc 1 106 0
 584 0028 02F0CF02 		and	r2, r2, #207
 585 002c 1A70     		strb	r2, [r3]
 107:Generated_Source\PSoC5/CrankTrigger_Dummy_Timer.c **** 
 586              		.loc 1 107 0
 587 002e 1A78     		ldrb	r2, [r3]	@ zero_extendqisi2
 588              	.LBB23:
 589              	.LBB24:
 435:Generated_Source\PSoC5/CrankTrigger_Dummy_Timer.c ****     #else
 590              		.loc 1 435 0
 591 0030 1148     		ldr	r0, .L3+24
 592              	.LBE24:
 593              	.LBE23:
 107:Generated_Source\PSoC5/CrankTrigger_Dummy_Timer.c **** 
 594              		.loc 1 107 0
 595 0032 42F03002 		orr	r2, r2, #48
 596 0036 1A70     		strb	r2, [r3]
 110:Generated_Source\PSoC5/CrankTrigger_Dummy_Timer.c ****         CrankTrigger_Dummy_Timer_RT1 |= CrankTrigger_Dummy_Timer_SYNCDSI_EN;
ARM GAS  C:\Users\Bruger\AppData\Local\Temp\ccCnG3ii.s 			page 50


 597              		.loc 1 110 0
 598 0038 1A78     		ldrb	r2, [r3]	@ zero_extendqisi2
 599              	.LBB27:
 600              	.LBB25:
 435:Generated_Source\PSoC5/CrankTrigger_Dummy_Timer.c ****     #else
 601              		.loc 1 435 0
 602 003a FF25     		movs	r5, #255
 603              	.LBE25:
 604              	.LBE27:
 110:Generated_Source\PSoC5/CrankTrigger_Dummy_Timer.c ****         CrankTrigger_Dummy_Timer_RT1 |= CrankTrigger_Dummy_Timer_SYNCDSI_EN;
 605              		.loc 1 110 0
 606 003c 02F0F002 		and	r2, r2, #240
 607 0040 1A70     		strb	r2, [r3]
 111:Generated_Source\PSoC5/CrankTrigger_Dummy_Timer.c **** 
 608              		.loc 1 111 0
 609 0042 1A78     		ldrb	r2, [r3]	@ zero_extendqisi2
 610              	.LBB28:
 611              	.LBB18:
 281:Generated_Source\PSoC5/CrankTrigger_Dummy_Timer.c **** }
 612              		.loc 1 281 0
 613 0044 0827     		movs	r7, #8
 614              	.LBE18:
 615              	.LBE28:
 111:Generated_Source\PSoC5/CrankTrigger_Dummy_Timer.c **** 
 616              		.loc 1 111 0
 617 0046 42F00F02 		orr	r2, r2, #15
 618 004a 1A70     		strb	r2, [r3]
 114:Generated_Source\PSoC5/CrankTrigger_Dummy_Timer.c ****     #endif /* Configuring registers of fixed function implementation */
 619              		.loc 1 114 0
 620 004c 0B78     		ldrb	r3, [r1]	@ zero_extendqisi2
 621 004e 43F00103 		orr	r3, r3, #1
 622 0052 0B70     		strb	r3, [r1]
 623              	.LVL0:
 624              	.LBB29:
 625              	.LBB26:
 435:Generated_Source\PSoC5/CrankTrigger_Dummy_Timer.c ****     #else
 626              		.loc 1 435 0
 627 0054 0580     		strh	r5, [r0]	@ movhi
 628              	.LVL1:
 629              	.LBE26:
 630              	.LBE29:
 631              	.LBB30:
 632              	.LBB22:
 633              		.loc 1 486 0
 634 0056 2580     		strh	r5, [r4]	@ movhi
 635              	.LVL2:
 636              	.LBE22:
 637              	.LBE30:
 638              	.LBB31:
 639              	.LBB19:
 281:Generated_Source\PSoC5/CrankTrigger_Dummy_Timer.c **** }
 640              		.loc 1 281 0
 641 0058 3770     		strb	r7, [r6]
 642              	.LBE19:
 643              	.LBE31:
 163:Generated_Source\PSoC5/CrankTrigger_Dummy_Timer.c **** 
 644              		.loc 1 163 0
ARM GAS  C:\Users\Bruger\AppData\Local\Temp\ccCnG3ii.s 			page 51


 645 005a F0BC     		pop	{r4, r5, r6, r7}
 646              		.cfi_restore 7
 647              		.cfi_restore 6
 648              		.cfi_restore 5
 649              		.cfi_restore 4
 650              		.cfi_def_cfa_offset 0
 651 005c 7047     		bx	lr
 652              	.L4:
 653 005e 00BF     		.align	2
 654              	.L3:
 655 0060 184F0040 		.word	1073762072
 656 0064 1A4F0040 		.word	1073762074
 657 0068 234F0040 		.word	1073762083
 658 006c 194F0040 		.word	1073762073
 659 0070 1B4F0040 		.word	1073762075
 660 0074 1E4F0040 		.word	1073762078
 661 0078 1C4F0040 		.word	1073762076
 662              		.cfi_endproc
 663              	.LFE0:
 664              		.size	CrankTrigger_Dummy_Timer_Init, .-CrankTrigger_Dummy_Timer_Init
 665              		.section	.text.CrankTrigger_Dummy_Timer_Enable,"ax",%progbits
 666              		.align	2
 667              		.global	CrankTrigger_Dummy_Timer_Enable
 668              		.thumb
 669              		.thumb_func
 670              		.type	CrankTrigger_Dummy_Timer_Enable, %function
 671              	CrankTrigger_Dummy_Timer_Enable:
 672              	.LFB1:
 181:Generated_Source\PSoC5/CrankTrigger_Dummy_Timer.c ****     /* Globally Enable the Fixed Function Block chosen */
 673              		.loc 1 181 0
 674              		.cfi_startproc
 675              		@ args = 0, pretend = 0, frame = 0
 676              		@ frame_needed = 0, uses_anonymous_args = 0
 677              		@ link register save eliminated.
 184:Generated_Source\PSoC5/CrankTrigger_Dummy_Timer.c ****         CrankTrigger_Dummy_Timer_GLOBAL_STBY_ENABLE |= CrankTrigger_Dummy_Timer_BLOCK_STBY_EN_MASK;
 678              		.loc 1 184 0
 679 0000 0748     		ldr	r0, .L6
 185:Generated_Source\PSoC5/CrankTrigger_Dummy_Timer.c ****     #endif /* Set Enable bit for enabling Fixed function timer*/
 680              		.loc 1 185 0
 681 0002 0849     		ldr	r1, .L6+4
 184:Generated_Source\PSoC5/CrankTrigger_Dummy_Timer.c ****         CrankTrigger_Dummy_Timer_GLOBAL_STBY_ENABLE |= CrankTrigger_Dummy_Timer_BLOCK_STBY_EN_MASK;
 682              		.loc 1 184 0
 683 0004 0378     		ldrb	r3, [r0]	@ zero_extendqisi2
 190:Generated_Source\PSoC5/CrankTrigger_Dummy_Timer.c ****     #endif /* Remove assignment if control register is removed */
 684              		.loc 1 190 0
 685 0006 084A     		ldr	r2, .L6+8
 184:Generated_Source\PSoC5/CrankTrigger_Dummy_Timer.c ****         CrankTrigger_Dummy_Timer_GLOBAL_STBY_ENABLE |= CrankTrigger_Dummy_Timer_BLOCK_STBY_EN_MASK;
 686              		.loc 1 184 0
 687 0008 43F00403 		orr	r3, r3, #4
 688 000c 0370     		strb	r3, [r0]
 185:Generated_Source\PSoC5/CrankTrigger_Dummy_Timer.c ****     #endif /* Set Enable bit for enabling Fixed function timer*/
 689              		.loc 1 185 0
 690 000e 0B78     		ldrb	r3, [r1]	@ zero_extendqisi2
 691 0010 43F00403 		orr	r3, r3, #4
 692 0014 0B70     		strb	r3, [r1]
 190:Generated_Source\PSoC5/CrankTrigger_Dummy_Timer.c ****     #endif /* Remove assignment if control register is removed */
 693              		.loc 1 190 0
ARM GAS  C:\Users\Bruger\AppData\Local\Temp\ccCnG3ii.s 			page 52


 694 0016 1378     		ldrb	r3, [r2]	@ zero_extendqisi2
 695 0018 43F00103 		orr	r3, r3, #1
 696 001c 1370     		strb	r3, [r2]
 697 001e 7047     		bx	lr
 698              	.L7:
 699              		.align	2
 700              	.L6:
 701 0020 A3430040 		.word	1073759139
 702 0024 B3430040 		.word	1073759155
 703 0028 184F0040 		.word	1073762072
 704              		.cfi_endproc
 705              	.LFE1:
 706              		.size	CrankTrigger_Dummy_Timer_Enable, .-CrankTrigger_Dummy_Timer_Enable
 707              		.section	.text.CrankTrigger_Dummy_Timer_Start,"ax",%progbits
 708              		.align	2
 709              		.global	CrankTrigger_Dummy_Timer_Start
 710              		.thumb
 711              		.thumb_func
 712              		.type	CrankTrigger_Dummy_Timer_Start, %function
 713              	CrankTrigger_Dummy_Timer_Start:
 714              	.LFB2:
 216:Generated_Source\PSoC5/CrankTrigger_Dummy_Timer.c ****     if(CrankTrigger_Dummy_Timer_initVar == 0u)
 715              		.loc 1 216 0
 716              		.cfi_startproc
 717              		@ args = 0, pretend = 0, frame = 0
 718              		@ frame_needed = 0, uses_anonymous_args = 0
 719 0000 F0B5     		push	{r4, r5, r6, r7, lr}
 720              		.cfi_def_cfa_offset 20
 721              		.cfi_offset 4, -20
 722              		.cfi_offset 5, -16
 723              		.cfi_offset 6, -12
 724              		.cfi_offset 7, -8
 725              		.cfi_offset 14, -4
 217:Generated_Source\PSoC5/CrankTrigger_Dummy_Timer.c ****     {
 726              		.loc 1 217 0
 727 0002 214A     		ldr	r2, .L12
 728 0004 1378     		ldrb	r3, [r2]	@ zero_extendqisi2
 729 0006 73BB     		cbnz	r3, .L9
 730              	.LBB42:
 731              	.LBB43:
  52:Generated_Source\PSoC5/CrankTrigger_Dummy_Timer.c **** 
 732              		.loc 1 52 0
 733 0008 2049     		ldr	r1, .L12+4
  60:Generated_Source\PSoC5/CrankTrigger_Dummy_Timer.c ****         #endif /* CONTROL3 register exists only in PSoC3 OR PSoC5LP */
 734              		.loc 1 60 0
 735 000a 214D     		ldr	r5, .L12+8
  52:Generated_Source\PSoC5/CrankTrigger_Dummy_Timer.c **** 
 736              		.loc 1 52 0
 737 000c 0878     		ldrb	r0, [r1]	@ zero_extendqisi2
 106:Generated_Source\PSoC5/CrankTrigger_Dummy_Timer.c ****         CrankTrigger_Dummy_Timer_RT1 |= CrankTrigger_Dummy_Timer_SYNC;
 738              		.loc 1 106 0
 739 000e 214B     		ldr	r3, .L12+12
  52:Generated_Source\PSoC5/CrankTrigger_Dummy_Timer.c **** 
 740              		.loc 1 52 0
 741 0010 00F00100 		and	r0, r0, #1
 742 0014 0870     		strb	r0, [r1]
  60:Generated_Source\PSoC5/CrankTrigger_Dummy_Timer.c ****         #endif /* CONTROL3 register exists only in PSoC3 OR PSoC5LP */
ARM GAS  C:\Users\Bruger\AppData\Local\Temp\ccCnG3ii.s 			page 53


 743              		.loc 1 60 0
 744 0016 2C78     		ldrb	r4, [r5]	@ zero_extendqisi2
 114:Generated_Source\PSoC5/CrankTrigger_Dummy_Timer.c ****     #endif /* Configuring registers of fixed function implementation */
 745              		.loc 1 114 0
 746 0018 1F48     		ldr	r0, .L12+16
  60:Generated_Source\PSoC5/CrankTrigger_Dummy_Timer.c ****         #endif /* CONTROL3 register exists only in PSoC3 OR PSoC5LP */
 747              		.loc 1 60 0
 748 001a 04F0FC04 		and	r4, r4, #252
 749 001e 2C70     		strb	r4, [r5]
  66:Generated_Source\PSoC5/CrankTrigger_Dummy_Timer.c ****         #endif /* One Shot enabled only when RunModeUsed is not Continuous*/
 750              		.loc 1 66 0
 751 0020 0D78     		ldrb	r5, [r1]	@ zero_extendqisi2
 752              	.LBB44:
 753              	.LBB45:
 435:Generated_Source\PSoC5/CrankTrigger_Dummy_Timer.c ****     #else
 754              		.loc 1 435 0
 755 0022 1E4C     		ldr	r4, .L12+20
 756              	.LBE45:
 757              	.LBE44:
  66:Generated_Source\PSoC5/CrankTrigger_Dummy_Timer.c ****         #endif /* One Shot enabled only when RunModeUsed is not Continuous*/
 758              		.loc 1 66 0
 759 0024 45F00405 		orr	r5, r5, #4
 760 0028 0D70     		strb	r5, [r1]
 106:Generated_Source\PSoC5/CrankTrigger_Dummy_Timer.c ****         CrankTrigger_Dummy_Timer_RT1 |= CrankTrigger_Dummy_Timer_SYNC;
 761              		.loc 1 106 0
 762 002a 1978     		ldrb	r1, [r3]	@ zero_extendqisi2
 763              	.LBB48:
 764              	.LBB49:
 765              		.loc 1 486 0
 766 002c 1C4D     		ldr	r5, .L12+24
 767              	.LBE49:
 768              	.LBE48:
 106:Generated_Source\PSoC5/CrankTrigger_Dummy_Timer.c ****         CrankTrigger_Dummy_Timer_RT1 |= CrankTrigger_Dummy_Timer_SYNC;
 769              		.loc 1 106 0
 770 002e 01F0CF01 		and	r1, r1, #207
 771 0032 1970     		strb	r1, [r3]
 107:Generated_Source\PSoC5/CrankTrigger_Dummy_Timer.c **** 
 772              		.loc 1 107 0
 773 0034 1978     		ldrb	r1, [r3]	@ zero_extendqisi2
 774              	.LBB51:
 775              	.LBB52:
 281:Generated_Source\PSoC5/CrankTrigger_Dummy_Timer.c **** }
 776              		.loc 1 281 0
 777 0036 1B4E     		ldr	r6, .L12+28
 778              	.LBE52:
 779              	.LBE51:
 107:Generated_Source\PSoC5/CrankTrigger_Dummy_Timer.c **** 
 780              		.loc 1 107 0
 781 0038 41F03001 		orr	r1, r1, #48
 782 003c 1970     		strb	r1, [r3]
 110:Generated_Source\PSoC5/CrankTrigger_Dummy_Timer.c ****         CrankTrigger_Dummy_Timer_RT1 |= CrankTrigger_Dummy_Timer_SYNCDSI_EN;
 783              		.loc 1 110 0
 784 003e 1978     		ldrb	r1, [r3]	@ zero_extendqisi2
 785              	.LBB55:
 786              	.LBB46:
 435:Generated_Source\PSoC5/CrankTrigger_Dummy_Timer.c ****     #else
 787              		.loc 1 435 0
ARM GAS  C:\Users\Bruger\AppData\Local\Temp\ccCnG3ii.s 			page 54


 788 0040 FF27     		movs	r7, #255
 789              	.LBE46:
 790              	.LBE55:
 110:Generated_Source\PSoC5/CrankTrigger_Dummy_Timer.c ****         CrankTrigger_Dummy_Timer_RT1 |= CrankTrigger_Dummy_Timer_SYNCDSI_EN;
 791              		.loc 1 110 0
 792 0042 01F0F001 		and	r1, r1, #240
 793 0046 1970     		strb	r1, [r3]
 111:Generated_Source\PSoC5/CrankTrigger_Dummy_Timer.c **** 
 794              		.loc 1 111 0
 795 0048 1978     		ldrb	r1, [r3]	@ zero_extendqisi2
 796              	.LBB56:
 797              	.LBB53:
 281:Generated_Source\PSoC5/CrankTrigger_Dummy_Timer.c **** }
 798              		.loc 1 281 0
 799 004a 4FF0080E 		mov	lr, #8
 800              	.LBE53:
 801              	.LBE56:
 111:Generated_Source\PSoC5/CrankTrigger_Dummy_Timer.c **** 
 802              		.loc 1 111 0
 803 004e 41F00F01 		orr	r1, r1, #15
 804 0052 1970     		strb	r1, [r3]
 114:Generated_Source\PSoC5/CrankTrigger_Dummy_Timer.c ****     #endif /* Configuring registers of fixed function implementation */
 805              		.loc 1 114 0
 806 0054 0378     		ldrb	r3, [r0]	@ zero_extendqisi2
 807              	.LBE43:
 808              	.LBE42:
 221:Generated_Source\PSoC5/CrankTrigger_Dummy_Timer.c ****     }
 809              		.loc 1 221 0
 810 0056 0121     		movs	r1, #1
 811              	.LBB61:
 812              	.LBB60:
 114:Generated_Source\PSoC5/CrankTrigger_Dummy_Timer.c ****     #endif /* Configuring registers of fixed function implementation */
 813              		.loc 1 114 0
 814 0058 0B43     		orrs	r3, r3, r1
 815 005a 0370     		strb	r3, [r0]
 816              	.LVL3:
 817              	.LBB57:
 818              	.LBB47:
 435:Generated_Source\PSoC5/CrankTrigger_Dummy_Timer.c ****     #else
 819              		.loc 1 435 0
 820 005c 2780     		strh	r7, [r4]	@ movhi
 821              	.LVL4:
 822              	.LBE47:
 823              	.LBE57:
 824              	.LBB58:
 825              	.LBB50:
 826              		.loc 1 486 0
 827 005e 2F80     		strh	r7, [r5]	@ movhi
 828              	.LVL5:
 829              	.LBE50:
 830              	.LBE58:
 831              	.LBB59:
 832              	.LBB54:
 281:Generated_Source\PSoC5/CrankTrigger_Dummy_Timer.c **** }
 833              		.loc 1 281 0
 834 0060 86F800E0 		strb	lr, [r6]
 835              	.LBE54:
ARM GAS  C:\Users\Bruger\AppData\Local\Temp\ccCnG3ii.s 			page 55


 836              	.LBE59:
 837              	.LBE60:
 838              	.LBE61:
 221:Generated_Source\PSoC5/CrankTrigger_Dummy_Timer.c ****     }
 839              		.loc 1 221 0
 840 0064 1170     		strb	r1, [r2]
 841              	.LVL6:
 842              	.L9:
 843              	.LBB62:
 844              	.LBB63:
 184:Generated_Source\PSoC5/CrankTrigger_Dummy_Timer.c ****         CrankTrigger_Dummy_Timer_GLOBAL_STBY_ENABLE |= CrankTrigger_Dummy_Timer_BLOCK_STBY_EN_MASK;
 845              		.loc 1 184 0
 846 0066 1048     		ldr	r0, .L12+32
 185:Generated_Source\PSoC5/CrankTrigger_Dummy_Timer.c ****     #endif /* Set Enable bit for enabling Fixed function timer*/
 847              		.loc 1 185 0
 848 0068 1049     		ldr	r1, .L12+36
 184:Generated_Source\PSoC5/CrankTrigger_Dummy_Timer.c ****         CrankTrigger_Dummy_Timer_GLOBAL_STBY_ENABLE |= CrankTrigger_Dummy_Timer_BLOCK_STBY_EN_MASK;
 849              		.loc 1 184 0
 850 006a 0378     		ldrb	r3, [r0]	@ zero_extendqisi2
 190:Generated_Source\PSoC5/CrankTrigger_Dummy_Timer.c ****     #endif /* Remove assignment if control register is removed */
 851              		.loc 1 190 0
 852 006c 074A     		ldr	r2, .L12+4
 184:Generated_Source\PSoC5/CrankTrigger_Dummy_Timer.c ****         CrankTrigger_Dummy_Timer_GLOBAL_STBY_ENABLE |= CrankTrigger_Dummy_Timer_BLOCK_STBY_EN_MASK;
 853              		.loc 1 184 0
 854 006e 43F00403 		orr	r3, r3, #4
 855 0072 0370     		strb	r3, [r0]
 185:Generated_Source\PSoC5/CrankTrigger_Dummy_Timer.c ****     #endif /* Set Enable bit for enabling Fixed function timer*/
 856              		.loc 1 185 0
 857 0074 0B78     		ldrb	r3, [r1]	@ zero_extendqisi2
 858 0076 43F00403 		orr	r3, r3, #4
 859 007a 0B70     		strb	r3, [r1]
 190:Generated_Source\PSoC5/CrankTrigger_Dummy_Timer.c ****     #endif /* Remove assignment if control register is removed */
 860              		.loc 1 190 0
 861 007c 1378     		ldrb	r3, [r2]	@ zero_extendqisi2
 862 007e 43F00103 		orr	r3, r3, #1
 863 0082 1370     		strb	r3, [r2]
 864 0084 F0BD     		pop	{r4, r5, r6, r7, pc}
 865              	.L13:
 866 0086 00BF     		.align	2
 867              	.L12:
 868 0088 00000000 		.word	.LANCHOR0
 869 008c 184F0040 		.word	1073762072
 870 0090 1A4F0040 		.word	1073762074
 871 0094 234F0040 		.word	1073762083
 872 0098 194F0040 		.word	1073762073
 873 009c 1C4F0040 		.word	1073762076
 874 00a0 1E4F0040 		.word	1073762078
 875 00a4 1B4F0040 		.word	1073762075
 876 00a8 A3430040 		.word	1073759139
 877 00ac B3430040 		.word	1073759155
 878              	.LBE63:
 879              	.LBE62:
 880              		.cfi_endproc
 881              	.LFE2:
 882              		.size	CrankTrigger_Dummy_Timer_Start, .-CrankTrigger_Dummy_Timer_Start
 883              		.section	.text.CrankTrigger_Dummy_Timer_Stop,"ax",%progbits
 884              		.align	2
ARM GAS  C:\Users\Bruger\AppData\Local\Temp\ccCnG3ii.s 			page 56


 885              		.global	CrankTrigger_Dummy_Timer_Stop
 886              		.thumb
 887              		.thumb_func
 888              		.type	CrankTrigger_Dummy_Timer_Stop, %function
 889              	CrankTrigger_Dummy_Timer_Stop:
 890              	.LFB3:
 248:Generated_Source\PSoC5/CrankTrigger_Dummy_Timer.c ****     /* Disable Timer */
 891              		.loc 1 248 0
 892              		.cfi_startproc
 893              		@ args = 0, pretend = 0, frame = 0
 894              		@ frame_needed = 0, uses_anonymous_args = 0
 895              		@ link register save eliminated.
 251:Generated_Source\PSoC5/CrankTrigger_Dummy_Timer.c ****     #endif /* Remove assignment if control register is removed */
 896              		.loc 1 251 0
 897 0000 0748     		ldr	r0, .L15
 256:Generated_Source\PSoC5/CrankTrigger_Dummy_Timer.c ****         CrankTrigger_Dummy_Timer_GLOBAL_STBY_ENABLE &= ((uint8)(~CrankTrigger_Dummy_Timer_BLOCK_STB
 898              		.loc 1 256 0
 899 0002 0849     		ldr	r1, .L15+4
 251:Generated_Source\PSoC5/CrankTrigger_Dummy_Timer.c ****     #endif /* Remove assignment if control register is removed */
 900              		.loc 1 251 0
 901 0004 0378     		ldrb	r3, [r0]	@ zero_extendqisi2
 257:Generated_Source\PSoC5/CrankTrigger_Dummy_Timer.c ****     #endif /* Disable global enable for the Timer Fixed function block to stop the Timer*/
 902              		.loc 1 257 0
 903 0006 084A     		ldr	r2, .L15+8
 251:Generated_Source\PSoC5/CrankTrigger_Dummy_Timer.c ****     #endif /* Remove assignment if control register is removed */
 904              		.loc 1 251 0
 905 0008 03F0FE03 		and	r3, r3, #254
 906 000c 0370     		strb	r3, [r0]
 256:Generated_Source\PSoC5/CrankTrigger_Dummy_Timer.c ****         CrankTrigger_Dummy_Timer_GLOBAL_STBY_ENABLE &= ((uint8)(~CrankTrigger_Dummy_Timer_BLOCK_STB
 907              		.loc 1 256 0
 908 000e 0B78     		ldrb	r3, [r1]	@ zero_extendqisi2
 909 0010 03F0FB03 		and	r3, r3, #251
 910 0014 0B70     		strb	r3, [r1]
 257:Generated_Source\PSoC5/CrankTrigger_Dummy_Timer.c ****     #endif /* Disable global enable for the Timer Fixed function block to stop the Timer*/
 911              		.loc 1 257 0
 912 0016 1378     		ldrb	r3, [r2]	@ zero_extendqisi2
 913 0018 03F0FB03 		and	r3, r3, #251
 914 001c 1370     		strb	r3, [r2]
 915 001e 7047     		bx	lr
 916              	.L16:
 917              		.align	2
 918              	.L15:
 919 0020 184F0040 		.word	1073762072
 920 0024 A3430040 		.word	1073759139
 921 0028 B3430040 		.word	1073759155
 922              		.cfi_endproc
 923              	.LFE3:
 924              		.size	CrankTrigger_Dummy_Timer_Stop, .-CrankTrigger_Dummy_Timer_Stop
 925              		.section	.text.CrankTrigger_Dummy_Timer_SetInterruptMode,"ax",%progbits
 926              		.align	2
 927              		.global	CrankTrigger_Dummy_Timer_SetInterruptMode
 928              		.thumb
 929              		.thumb_func
 930              		.type	CrankTrigger_Dummy_Timer_SetInterruptMode, %function
 931              	CrankTrigger_Dummy_Timer_SetInterruptMode:
 932              	.LFB4:
 280:Generated_Source\PSoC5/CrankTrigger_Dummy_Timer.c ****     CrankTrigger_Dummy_Timer_STATUS_MASK = interruptMode;
ARM GAS  C:\Users\Bruger\AppData\Local\Temp\ccCnG3ii.s 			page 57


 933              		.loc 1 280 0
 934              		.cfi_startproc
 935              		@ args = 0, pretend = 0, frame = 0
 936              		@ frame_needed = 0, uses_anonymous_args = 0
 937              		@ link register save eliminated.
 938              	.LVL7:
 281:Generated_Source\PSoC5/CrankTrigger_Dummy_Timer.c **** }
 939              		.loc 1 281 0
 940 0000 014B     		ldr	r3, .L18
 941 0002 1870     		strb	r0, [r3]
 942 0004 7047     		bx	lr
 943              	.L19:
 944 0006 00BF     		.align	2
 945              	.L18:
 946 0008 1B4F0040 		.word	1073762075
 947              		.cfi_endproc
 948              	.LFE4:
 949              		.size	CrankTrigger_Dummy_Timer_SetInterruptMode, .-CrankTrigger_Dummy_Timer_SetInterruptMode
 950              		.section	.text.CrankTrigger_Dummy_Timer_SoftwareCapture,"ax",%progbits
 951              		.align	2
 952              		.global	CrankTrigger_Dummy_Timer_SoftwareCapture
 953              		.thumb
 954              		.thumb_func
 955              		.type	CrankTrigger_Dummy_Timer_SoftwareCapture, %function
 956              	CrankTrigger_Dummy_Timer_SoftwareCapture:
 957              	.LFB5:
 303:Generated_Source\PSoC5/CrankTrigger_Dummy_Timer.c ****     /* Generate a software capture by reading the counter register */
 958              		.loc 1 303 0
 959              		.cfi_startproc
 960              		@ args = 0, pretend = 0, frame = 0
 961              		@ frame_needed = 0, uses_anonymous_args = 0
 962              		@ link register save eliminated.
 306:Generated_Source\PSoC5/CrankTrigger_Dummy_Timer.c ****     #else
 963              		.loc 1 306 0
 964 0000 014B     		ldr	r3, .L21
 965 0002 1B88     		ldrh	r3, [r3]
 966 0004 7047     		bx	lr
 967              	.L22:
 968 0006 00BF     		.align	2
 969              	.L21:
 970 0008 1E4F0040 		.word	1073762078
 971              		.cfi_endproc
 972              	.LFE5:
 973              		.size	CrankTrigger_Dummy_Timer_SoftwareCapture, .-CrankTrigger_Dummy_Timer_SoftwareCapture
 974              		.section	.text.CrankTrigger_Dummy_Timer_ReadStatusRegister,"ax",%progbits
 975              		.align	2
 976              		.global	CrankTrigger_Dummy_Timer_ReadStatusRegister
 977              		.thumb
 978              		.thumb_func
 979              		.type	CrankTrigger_Dummy_Timer_ReadStatusRegister, %function
 980              	CrankTrigger_Dummy_Timer_ReadStatusRegister:
 981              	.LFB6:
 334:Generated_Source\PSoC5/CrankTrigger_Dummy_Timer.c ****     return (CrankTrigger_Dummy_Timer_STATUS);
 982              		.loc 1 334 0
 983              		.cfi_startproc
 984              		@ args = 0, pretend = 0, frame = 0
 985              		@ frame_needed = 0, uses_anonymous_args = 0
ARM GAS  C:\Users\Bruger\AppData\Local\Temp\ccCnG3ii.s 			page 58


 986              		@ link register save eliminated.
 335:Generated_Source\PSoC5/CrankTrigger_Dummy_Timer.c **** }
 987              		.loc 1 335 0
 988 0000 014B     		ldr	r3, .L24
 989 0002 1878     		ldrb	r0, [r3]	@ zero_extendqisi2
 336:Generated_Source\PSoC5/CrankTrigger_Dummy_Timer.c **** 
 990              		.loc 1 336 0
 991 0004 7047     		bx	lr
 992              	.L25:
 993 0006 00BF     		.align	2
 994              	.L24:
 995 0008 1B4F0040 		.word	1073762075
 996              		.cfi_endproc
 997              	.LFE6:
 998              		.size	CrankTrigger_Dummy_Timer_ReadStatusRegister, .-CrankTrigger_Dummy_Timer_ReadStatusRegister
 999              		.section	.text.CrankTrigger_Dummy_Timer_ReadControlRegister,"ax",%progbits
 1000              		.align	2
 1001              		.global	CrankTrigger_Dummy_Timer_ReadControlRegister
 1002              		.thumb
 1003              		.thumb_func
 1004              		.type	CrankTrigger_Dummy_Timer_ReadControlRegister, %function
 1005              	CrankTrigger_Dummy_Timer_ReadControlRegister:
 1006              	.LFB7:
 357:Generated_Source\PSoC5/CrankTrigger_Dummy_Timer.c ****     #if (!CrankTrigger_Dummy_Timer_UDB_CONTROL_REG_REMOVED) 
 1007              		.loc 1 357 0
 1008              		.cfi_startproc
 1009              		@ args = 0, pretend = 0, frame = 0
 1010              		@ frame_needed = 0, uses_anonymous_args = 0
 1011              		@ link register save eliminated.
 359:Generated_Source\PSoC5/CrankTrigger_Dummy_Timer.c ****     #else
 1012              		.loc 1 359 0
 1013 0000 014B     		ldr	r3, .L27
 1014 0002 1878     		ldrb	r0, [r3]	@ zero_extendqisi2
 363:Generated_Source\PSoC5/CrankTrigger_Dummy_Timer.c **** 
 1015              		.loc 1 363 0
 1016 0004 7047     		bx	lr
 1017              	.L28:
 1018 0006 00BF     		.align	2
 1019              	.L27:
 1020 0008 184F0040 		.word	1073762072
 1021              		.cfi_endproc
 1022              	.LFE7:
 1023              		.size	CrankTrigger_Dummy_Timer_ReadControlRegister, .-CrankTrigger_Dummy_Timer_ReadControlRegister
 1024              		.section	.text.CrankTrigger_Dummy_Timer_WriteControlRegister,"ax",%progbits
 1025              		.align	2
 1026              		.global	CrankTrigger_Dummy_Timer_WriteControlRegister
 1027              		.thumb
 1028              		.thumb_func
 1029              		.type	CrankTrigger_Dummy_Timer_WriteControlRegister, %function
 1030              	CrankTrigger_Dummy_Timer_WriteControlRegister:
 1031              	.LFB8:
 380:Generated_Source\PSoC5/CrankTrigger_Dummy_Timer.c ****     #if (!CrankTrigger_Dummy_Timer_UDB_CONTROL_REG_REMOVED) 
 1032              		.loc 1 380 0
 1033              		.cfi_startproc
 1034              		@ args = 0, pretend = 0, frame = 0
 1035              		@ frame_needed = 0, uses_anonymous_args = 0
 1036              		@ link register save eliminated.
ARM GAS  C:\Users\Bruger\AppData\Local\Temp\ccCnG3ii.s 			page 59


 1037              	.LVL8:
 382:Generated_Source\PSoC5/CrankTrigger_Dummy_Timer.c ****     #else
 1038              		.loc 1 382 0
 1039 0000 014B     		ldr	r3, .L30
 1040 0002 1870     		strb	r0, [r3]
 1041 0004 7047     		bx	lr
 1042              	.L31:
 1043 0006 00BF     		.align	2
 1044              	.L30:
 1045 0008 184F0040 		.word	1073762072
 1046              		.cfi_endproc
 1047              	.LFE8:
 1048              		.size	CrankTrigger_Dummy_Timer_WriteControlRegister, .-CrankTrigger_Dummy_Timer_WriteControlRegist
 1049              		.section	.text.CrankTrigger_Dummy_Timer_ReadPeriod,"ax",%progbits
 1050              		.align	2
 1051              		.global	CrankTrigger_Dummy_Timer_ReadPeriod
 1052              		.thumb
 1053              		.thumb_func
 1054              		.type	CrankTrigger_Dummy_Timer_ReadPeriod, %function
 1055              	CrankTrigger_Dummy_Timer_ReadPeriod:
 1056              	.LFB9:
 406:Generated_Source\PSoC5/CrankTrigger_Dummy_Timer.c ****    #if(CrankTrigger_Dummy_Timer_UsingFixedFunction)
 1057              		.loc 1 406 0
 1058              		.cfi_startproc
 1059              		@ args = 0, pretend = 0, frame = 0
 1060              		@ frame_needed = 0, uses_anonymous_args = 0
 1061              		@ link register save eliminated.
 408:Generated_Source\PSoC5/CrankTrigger_Dummy_Timer.c ****    #else
 1062              		.loc 1 408 0
 1063 0000 014B     		ldr	r3, .L33
 1064 0002 1888     		ldrh	r0, [r3]
 412:Generated_Source\PSoC5/CrankTrigger_Dummy_Timer.c **** 
 1065              		.loc 1 412 0
 1066 0004 80B2     		uxth	r0, r0
 1067 0006 7047     		bx	lr
 1068              	.L34:
 1069              		.align	2
 1070              	.L33:
 1071 0008 1C4F0040 		.word	1073762076
 1072              		.cfi_endproc
 1073              	.LFE9:
 1074              		.size	CrankTrigger_Dummy_Timer_ReadPeriod, .-CrankTrigger_Dummy_Timer_ReadPeriod
 1075              		.section	.text.CrankTrigger_Dummy_Timer_WritePeriod,"ax",%progbits
 1076              		.align	2
 1077              		.global	CrankTrigger_Dummy_Timer_WritePeriod
 1078              		.thumb
 1079              		.thumb_func
 1080              		.type	CrankTrigger_Dummy_Timer_WritePeriod, %function
 1081              	CrankTrigger_Dummy_Timer_WritePeriod:
 1082              	.LFB10:
 432:Generated_Source\PSoC5/CrankTrigger_Dummy_Timer.c ****     #if(CrankTrigger_Dummy_Timer_UsingFixedFunction)
 1083              		.loc 1 432 0
 1084              		.cfi_startproc
 1085              		@ args = 0, pretend = 0, frame = 0
 1086              		@ frame_needed = 0, uses_anonymous_args = 0
 1087              		@ link register save eliminated.
 1088              	.LVL9:
ARM GAS  C:\Users\Bruger\AppData\Local\Temp\ccCnG3ii.s 			page 60


 435:Generated_Source\PSoC5/CrankTrigger_Dummy_Timer.c ****     #else
 1089              		.loc 1 435 0
 1090 0000 014B     		ldr	r3, .L36
 1091 0002 1880     		strh	r0, [r3]	@ movhi
 1092 0004 7047     		bx	lr
 1093              	.L37:
 1094 0006 00BF     		.align	2
 1095              	.L36:
 1096 0008 1C4F0040 		.word	1073762076
 1097              		.cfi_endproc
 1098              	.LFE10:
 1099              		.size	CrankTrigger_Dummy_Timer_WritePeriod, .-CrankTrigger_Dummy_Timer_WritePeriod
 1100              		.section	.text.CrankTrigger_Dummy_Timer_ReadCapture,"ax",%progbits
 1101              		.align	2
 1102              		.global	CrankTrigger_Dummy_Timer_ReadCapture
 1103              		.thumb
 1104              		.thumb_func
 1105              		.type	CrankTrigger_Dummy_Timer_ReadCapture, %function
 1106              	CrankTrigger_Dummy_Timer_ReadCapture:
 1107              	.LFB11:
 457:Generated_Source\PSoC5/CrankTrigger_Dummy_Timer.c ****    #if(CrankTrigger_Dummy_Timer_UsingFixedFunction)
 1108              		.loc 1 457 0
 1109              		.cfi_startproc
 1110              		@ args = 0, pretend = 0, frame = 0
 1111              		@ frame_needed = 0, uses_anonymous_args = 0
 1112              		@ link register save eliminated.
 459:Generated_Source\PSoC5/CrankTrigger_Dummy_Timer.c ****    #else
 1113              		.loc 1 459 0
 1114 0000 014B     		ldr	r3, .L39
 1115 0002 1888     		ldrh	r0, [r3]
 463:Generated_Source\PSoC5/CrankTrigger_Dummy_Timer.c **** 
 1116              		.loc 1 463 0
 1117 0004 80B2     		uxth	r0, r0
 1118 0006 7047     		bx	lr
 1119              	.L40:
 1120              		.align	2
 1121              	.L39:
 1122 0008 204F0040 		.word	1073762080
 1123              		.cfi_endproc
 1124              	.LFE11:
 1125              		.size	CrankTrigger_Dummy_Timer_ReadCapture, .-CrankTrigger_Dummy_Timer_ReadCapture
 1126              		.section	.text.CrankTrigger_Dummy_Timer_WriteCounter,"ax",%progbits
 1127              		.align	2
 1128              		.global	CrankTrigger_Dummy_Timer_WriteCounter
 1129              		.thumb
 1130              		.thumb_func
 1131              		.type	CrankTrigger_Dummy_Timer_WriteCounter, %function
 1132              	CrankTrigger_Dummy_Timer_WriteCounter:
 1133              	.LFB12:
 481:Generated_Source\PSoC5/CrankTrigger_Dummy_Timer.c ****    #if(CrankTrigger_Dummy_Timer_UsingFixedFunction)
 1134              		.loc 1 481 0
 1135              		.cfi_startproc
 1136              		@ args = 0, pretend = 0, frame = 0
 1137              		@ frame_needed = 0, uses_anonymous_args = 0
 1138              		@ link register save eliminated.
 1139              	.LVL10:
 1140              		.loc 1 486 0
ARM GAS  C:\Users\Bruger\AppData\Local\Temp\ccCnG3ii.s 			page 61


 1141 0000 014B     		ldr	r3, .L42
 1142 0002 1880     		strh	r0, [r3]	@ movhi
 1143 0004 7047     		bx	lr
 1144              	.L43:
 1145 0006 00BF     		.align	2
 1146              	.L42:
 1147 0008 1E4F0040 		.word	1073762078
 1148              		.cfi_endproc
 1149              	.LFE12:
 1150              		.size	CrankTrigger_Dummy_Timer_WriteCounter, .-CrankTrigger_Dummy_Timer_WriteCounter
 1151              		.section	.text.CrankTrigger_Dummy_Timer_ReadCounter,"ax",%progbits
 1152              		.align	2
 1153              		.global	CrankTrigger_Dummy_Timer_ReadCounter
 1154              		.thumb
 1155              		.thumb_func
 1156              		.type	CrankTrigger_Dummy_Timer_ReadCounter, %function
 1157              	CrankTrigger_Dummy_Timer_ReadCounter:
 1158              	.LFB13:
 487:Generated_Source\PSoC5/CrankTrigger_Dummy_Timer.c ****         
 488:Generated_Source\PSoC5/CrankTrigger_Dummy_Timer.c ****     #else
 489:Generated_Source\PSoC5/CrankTrigger_Dummy_Timer.c ****         CY_SET_REG16(CrankTrigger_Dummy_Timer_COUNTER_LSB_PTR, counter);
 490:Generated_Source\PSoC5/CrankTrigger_Dummy_Timer.c ****     #endif /* Set Write Counter only for the UDB implementation (Write Counter not available in fix
 491:Generated_Source\PSoC5/CrankTrigger_Dummy_Timer.c **** }
 492:Generated_Source\PSoC5/CrankTrigger_Dummy_Timer.c **** 
 493:Generated_Source\PSoC5/CrankTrigger_Dummy_Timer.c **** 
 494:Generated_Source\PSoC5/CrankTrigger_Dummy_Timer.c **** /*******************************************************************************
 495:Generated_Source\PSoC5/CrankTrigger_Dummy_Timer.c **** * Function Name: CrankTrigger_Dummy_Timer_ReadCounter
 496:Generated_Source\PSoC5/CrankTrigger_Dummy_Timer.c **** ********************************************************************************
 497:Generated_Source\PSoC5/CrankTrigger_Dummy_Timer.c **** *
 498:Generated_Source\PSoC5/CrankTrigger_Dummy_Timer.c **** * Summary:
 499:Generated_Source\PSoC5/CrankTrigger_Dummy_Timer.c **** *  This function returns the current counter value.
 500:Generated_Source\PSoC5/CrankTrigger_Dummy_Timer.c **** *
 501:Generated_Source\PSoC5/CrankTrigger_Dummy_Timer.c **** * Parameters:
 502:Generated_Source\PSoC5/CrankTrigger_Dummy_Timer.c **** *  void
 503:Generated_Source\PSoC5/CrankTrigger_Dummy_Timer.c **** *
 504:Generated_Source\PSoC5/CrankTrigger_Dummy_Timer.c **** * Return:
 505:Generated_Source\PSoC5/CrankTrigger_Dummy_Timer.c **** *  Present compare value.
 506:Generated_Source\PSoC5/CrankTrigger_Dummy_Timer.c **** *
 507:Generated_Source\PSoC5/CrankTrigger_Dummy_Timer.c **** *******************************************************************************/
 508:Generated_Source\PSoC5/CrankTrigger_Dummy_Timer.c **** uint16 CrankTrigger_Dummy_Timer_ReadCounter(void) 
 509:Generated_Source\PSoC5/CrankTrigger_Dummy_Timer.c **** {
 1159              		.loc 1 509 0
 1160              		.cfi_startproc
 1161              		@ args = 0, pretend = 0, frame = 0
 1162              		@ frame_needed = 0, uses_anonymous_args = 0
 1163              		@ link register save eliminated.
 510:Generated_Source\PSoC5/CrankTrigger_Dummy_Timer.c ****     /* Force capture by reading Accumulator */
 511:Generated_Source\PSoC5/CrankTrigger_Dummy_Timer.c ****     /* Must first do a software capture to be able to read the counter */
 512:Generated_Source\PSoC5/CrankTrigger_Dummy_Timer.c ****     /* It is up to the user code to make sure there isn't already captured data in the FIFO */
 513:Generated_Source\PSoC5/CrankTrigger_Dummy_Timer.c ****     #if(CrankTrigger_Dummy_Timer_UsingFixedFunction)
 514:Generated_Source\PSoC5/CrankTrigger_Dummy_Timer.c ****         (void)CY_GET_REG16(CrankTrigger_Dummy_Timer_COUNTER_LSB_PTR);
 515:Generated_Source\PSoC5/CrankTrigger_Dummy_Timer.c ****     #else
 516:Generated_Source\PSoC5/CrankTrigger_Dummy_Timer.c ****         (void)CY_GET_REG8(CrankTrigger_Dummy_Timer_COUNTER_LSB_PTR_8BIT);
 517:Generated_Source\PSoC5/CrankTrigger_Dummy_Timer.c ****     #endif/* (CrankTrigger_Dummy_Timer_UsingFixedFunction) */
 518:Generated_Source\PSoC5/CrankTrigger_Dummy_Timer.c **** 
 519:Generated_Source\PSoC5/CrankTrigger_Dummy_Timer.c ****     /* Read the data from the FIFO (or capture register for Fixed Function)*/
 520:Generated_Source\PSoC5/CrankTrigger_Dummy_Timer.c ****     #if(CrankTrigger_Dummy_Timer_UsingFixedFunction)
ARM GAS  C:\Users\Bruger\AppData\Local\Temp\ccCnG3ii.s 			page 62


 521:Generated_Source\PSoC5/CrankTrigger_Dummy_Timer.c ****         return ((uint16)CY_GET_REG16(CrankTrigger_Dummy_Timer_CAPTURE_LSB_PTR));
 1164              		.loc 1 521 0
 1165 0000 024B     		ldr	r3, .L45
 514:Generated_Source\PSoC5/CrankTrigger_Dummy_Timer.c ****     #else
 1166              		.loc 1 514 0
 1167 0002 034A     		ldr	r2, .L45+4
 1168 0004 1288     		ldrh	r2, [r2]
 1169              		.loc 1 521 0
 1170 0006 1888     		ldrh	r0, [r3]
 522:Generated_Source\PSoC5/CrankTrigger_Dummy_Timer.c ****     #else
 523:Generated_Source\PSoC5/CrankTrigger_Dummy_Timer.c ****         return (CY_GET_REG16(CrankTrigger_Dummy_Timer_CAPTURE_LSB_PTR));
 524:Generated_Source\PSoC5/CrankTrigger_Dummy_Timer.c ****     #endif /* (CrankTrigger_Dummy_Timer_UsingFixedFunction) */
 525:Generated_Source\PSoC5/CrankTrigger_Dummy_Timer.c **** }
 1171              		.loc 1 525 0
 1172 0008 80B2     		uxth	r0, r0
 1173 000a 7047     		bx	lr
 1174              	.L46:
 1175              		.align	2
 1176              	.L45:
 1177 000c 204F0040 		.word	1073762080
 1178 0010 1E4F0040 		.word	1073762078
 1179              		.cfi_endproc
 1180              	.LFE13:
 1181              		.size	CrankTrigger_Dummy_Timer_ReadCounter, .-CrankTrigger_Dummy_Timer_ReadCounter
 1182              		.global	CrankTrigger_Dummy_Timer_initVar
 1183              		.bss
 1184              		.set	.LANCHOR0,. + 0
 1185              		.type	CrankTrigger_Dummy_Timer_initVar, %object
 1186              		.size	CrankTrigger_Dummy_Timer_initVar, 1
 1187              	CrankTrigger_Dummy_Timer_initVar:
 1188 0000 00       		.space	1
 1189              		.text
 1190              	.Letext0:
 1191              		.file 2 "Generated_Source\\PSoC5\\cytypes.h"