ARM GAS  C:\Users\Bruger\AppData\Local\Temp\ccBQwdGg.s 			page 1


   1              		.syntax unified
   2              		.cpu cortex-m3
   3              		.fpu softvfp
   4              		.eabi_attribute 20, 1
   5              		.eabi_attribute 21, 1
   6              		.eabi_attribute 23, 3
   7              		.eabi_attribute 24, 1
   8              		.eabi_attribute 25, 1
   9              		.eabi_attribute 26, 1
  10              		.eabi_attribute 30, 2
  11              		.eabi_attribute 34, 1
  12              		.eabi_attribute 18, 4
  13              		.thumb
  14              		.file	"CrankTriggerDummyTimer.c"
  15              		.text
  16              	.Ltext0:
  17              		.section	.gnu.lto_.profile.24c1407c,"",%progbits
  18 0000 789C6366 		.ascii	"x\234cf```a\200\000F\206\354\020\000\001\236\000\310"
  18      60606061 
  18      80004686 
  18      EC100001 
  18      9E00C8
  19              		.text
  20              		.section	.gnu.lto_.jmpfuncs.24c1407c,"",%progbits
  21 0000 789C6DCB 		.ascii	"x\234m\313\311\011\000 \020C\321?\356{7\326g\353\316"
  21      C9090020 
  21      1043D13F 
  21      EE7B37D6 
  21      67EBCE
  22 0013 804703E1 		.ascii	"\200G\003\341\221C<\377\354\347\322\0128%@\024\221\223"
  22      91433CFF 
  22      ECE7D20A 
  22      38254014 
  22      9193
  23 0025 2043816A 		.ascii	" C\201j\253A7\007L\323\016\027>\245\002\265"
  23      AB413707 
  23      4CD30E17 
  23      3EA502B5 
  24              		.text
  25              		.section	.gnu.lto_.inline.24c1407c,"",%progbits
  26 0000 789C6DCA 		.ascii	"x\234m\312\273\015\2000\020\003P_>|B\000\201D\203\004"
  26      BB0D8030 
  26      1003505F 
  26      3E7C4200 
  26      81448304 
  27 0014 D9822919 		.ascii	"\331\202)\031\202\206Ah\251\030\205\0218\204\024\212"
  27      82864168 
  27      A9188511 
  27      3884148A 
  28 0024 8B0B5B7A 		.ascii	"\213\013[z\262F:\003}\333\000\363DP\313\275kd[P/\022"
  28      B2463A03 
  28      7DDB00F3 
  28      4450CBBD 
  28      6B645B50 
  29 003a 7CC5D65F 		.ascii	"|\305\326_+ES\350z\266\361<~#\307e\022g\013\243\331"
  29      2B4553E8 
  29      7AB6F13C 
ARM GAS  C:\Users\Bruger\AppData\Local\Temp\ccBQwdGg.s 			page 2


  29      7E23C765 
  29      12670BA3 
  30 004f D4D546CA 		.ascii	"\324\325F\312$\345\222\012I\245$'\251\222\344%\325\222"
  30      24E5920A 
  30      49A52427 
  30      A992E425 
  30      D592
  31 0061 1A58C364 		.ascii	"\032X\303d\266\020\011\017\366C\033w"
  31      B610090F 
  31      F6431B77 
  32              		.text
  33              		.section	.gnu.lto_.pureconst.24c1407c,"",%progbits
  34 0000 789C25C1 		.ascii	"x\234%\301\307\021\000 \014\004\261\003\223Lp\001;C"
  34      C7110020 
  34      0C04B103 
  34      934C7001 
  34      3B43
  35 0012 FF6DF240 		.ascii	"\377m\362@2IW_\210D\246Pit\006\316d\2619\004\017\036"
  35      3249575F 
  35      8844A650 
  35      697406CE 
  35      64B13904 
  36 0028 650201   		.ascii	"e\002\001"
  37              		.text
  38              		.section	.gnu.lto_CrankTriggerDummyTimer_Init.24c1407c,"",%progbits
  39 0000 789C8D55 		.ascii	"x\234\215UoL\023g\030\177\237\367\332\353\325+V\211"
  39      6F4C1367 
  39      187F9FF7 
  39      DAEBD52B 
  39      5689
  40 0012 4C426296 		.ascii	"LBb\226\314\017f\311\262\230,~\331\227}p\331>,[L\364"
  40      CC0F66C9 
  40      B2982C7E 
  40      D9977D70 
  40      D93E2C5B 
  41 0028 DB4C8C81 		.ascii	"\333L\214\201\213!\013\224\\\312\207}\362Z\252[&\211"
  41      8B210B94 
  41      5CCA877D 
  41      F25AAA5B 
  41      2689
  42 003a 8638EC60 		.ascii	"\2068\354`%\232\005\377\317\316\262\271\202\003\016"
  42      259A05FF 
  42      CFCEB2B9 
  42      82030E
  43 0049 86566582 		.ascii	"\206Ve\202\310\004,(\304\324\311\022\227Y\313\246%\222"
  43      C8042C28 
  43      C4D4C912 
  43      9759CBA6 
  43      2592
  44 005b EE7DDEF7 		.ascii	"\356}\336\367Z\306\001\015M\372\\\357\356y~\377\356"
  44      5AC6010D 
  44      4DFA5CEF 
  44      EE797EFF 
  44      EE
  45 006c ED7B1259 		.ascii	"\355{\022Y\376\251`_E!\344Sv\004\211\000=6DH@\241\000"
  45      FEA9605F 
  45      4521E453 
ARM GAS  C:\Users\Bruger\AppData\Local\Temp\ccBQwdGg.s 			page 3


  45      76048900 
  45      3D364448 
  46 0083 F8830039 		.ascii	"\370\203\0009H\341 \374I\323\024\216\231\027\302\352"
  46      48E120FC 
  46      49D3148E 
  46      9917C2EA 
  47 0093 B676C330 		.ascii	"\266v\3030\236\305\006\003\273L\310RB2T\340\300\031"
  47      9EC50603 
  47      BB4CC852 
  47      423254E0 
  47      C019
  48 00a5 D8465853 		.ascii	"\330FXS:\2640\256\312!\326\264A\334\203\263 \003;FK"
  48      3AB430AE 
  48      CA21D6B4 
  48      41DC83B3 
  48      20033B46 
  49 00ba 4D2397EB 		.ascii	"M#\227\353\270\324\327\254n\241$K\031\031+N,2\026\005"
  49      B8D4D7AC 
  49      6EA1244B 
  49      19192B4E 
  49      2C321605 
  50 00ce 8B1B8B8A 		.ascii	"\213\033\213\212\305\203e=\026/\226\215XJ\261l\302R"
  50      C583653D 
  50      162F968D 
  50      584AB16C 
  50      C252
  51 00e0 86653396 		.ascii	"\206e3\226r,\204\244\030\025\012~L)\036\245$\364\377"
  51      722C84A4 
  51      18150A7E 
  51      4C291EA5 
  51      24F4FF
  52 00f3 FBD51F87 		.ascii	"\373\325\037\207Ud\177AQ}<v&Agi\226\322p[\300p\240\326"
  52      55647F41 
  52      517D3C76 
  52      26416769 
  52      96D2705B 
  53 010b E9D4F088 		.ascii	"\351\324\360\210\302/\021<\275\023\237\015I\021h\015"
  53      C22F113C 
  53      BD139F0D 
  53      4911680D 
  54 011b 84983309 		.ascii	"\204\2303\011\316A\005\234\007\226\017\\\200\010\220"
  54      CE41059C 
  54      07960F5C 
  54      800890
  55 012a 2434BC94 		.ascii	"$4\274\224\005\234$\020GZN7xq\\\002\002\027Y'#m\002"
  55      059C2410 
  55      475A4E37 
  55      78715C02 
  55      02175927 
  56 0141 6C2906F6 		.ascii	"l)\006\366=\003c\020D(\034\267\024:QN\353\361r\256\246"
  56      3D036310 
  56      44281CB7 
  56      143A514E 
  56      EBF172AE 
  57 0156 252F30D8 		.ascii	"%/0\330\331\377\332\"\306\245\002F\324&\310\002\270"
  57      D9FFDA22 
  57      C6A50246 
ARM GAS  C:\Users\Bruger\AppData\Local\Temp\ccBQwdGg.s 			page 4


  57      D426C802 
  57      B8
  58 0167 D6D3FB68 		.ascii	"\326\323\373h\035\027\364\212)\372\301\246h5\260\313"
  58      1D17F48A 
  58      29FAC1A6 
  58      6835B0CB 
  59 0177 5C902C04 		.ascii	"\\\220,\004\215\205\343 0\225b&b\226\2009K\200[\364"
  59      8D85E320 
  59      30956226 
  59      62968039 
  59      4B805BF4 
  60 018b 7735DD08 		.ascii	"w5\335\010\313(\000\034\004:\326\232\310\217\\\200\333"
  60      CB28001C 
  60      043AD69A 
  60      C88F5C80 
  60      DB
  61 019c 1210095B 		.ascii	"\022\020\011[\002T6\023M\277J\362\210\351w\371L\242"
  61      02543613 
  61      4DBF4AF2 
  61      88E977F9 
  61      4CA2
  62 01ae 8712F7D7 		.ascii	"\207\022\367\327-\302\374T\200\271b\013\305# \"\231"
  62      2DC2FC54 
  62      80B9620B 
  62      C5232022 
  62      99
  63 01bf 2BFC194B 		.ascii	"+\374\031K\303,\223\237m\232V\005\213sM\036\241)\271"
  63      C32C939F 
  63      6D9A5605 
  63      8B734D1E 
  63      A129B9
  64 01d2 4520AE2F 		.ascii	"E \256/6\321i\213\304+\372\247_L\367\273x$\333\011t"
  64      36D1698B 
  64      C42BFAA7 
  64      5F4CF7BB 
  64      7824DB09 
  65 01e7 AD95FE2A 		.ascii	"\255\225\376*\247\367\012\372\347\026\375\306b\023\277"
  65      A7F70AFA 
  65      E716FDC6 
  65      6213BF
  66 01f6 D8DC978A 		.ascii	"\330\334\227\212\376\304\363\226\224\304\355?c\366\273"
  66      FEC4F396 
  66      94C4ED3F 
  66      63F6BB
  67 0205 D7CADFC3 		.ascii	"\327\312\337\303\371K\005\377\274\305\277\251\330D\257"
  67      F94B05FF 
  67      BCC5BFA9 
  67      D844AF
  68 0214 CD7E99E8 		.ascii	"\315~\231\350\237\230\011\336R\271}/\001s\255\364}\234"
  68      9F9809DE 
  68      52B97D2F 
  68      0173ADF4 
  68      7D9C
  69 0226 BECC5A11 		.ascii	"\276\314Z\021m1kElf3\275\347#\177\001_\021\337\344W"
  69      6D316B45 
  69      6C6633BD 
  69      E7237F01 
ARM GAS  C:\Users\Bruger\AppData\Local\Temp\ccBQwdGg.s 			page 5


  69      5F11DFE4 
  70 023b C4DDDB9D 		.ascii	"\304\335\333\235\335\256E\230\376\002\314\2576M\345"
  70      DDAE4598 
  70      FE02CCAF 
  70      364DE5
  71 024a 02221199 		.ascii	"\002\"\021\231\2159\270&\026\311\200M\323\252`\327\270"
  71      8D39B826 
  71      16C9804D 
  71      D3AA60D7 
  71      B8
  72 025b A6723206 		.ascii	"\246r2\006\324j\315u\244G\\\322;\200\032\006\037\275"
  72      D46ACD75 
  72      A4475CD2 
  72      3B801A06 
  72      1FBD
  73 026d CC7810D3 		.ascii	"\314x\020\323\261\001O[\306\037\317\361\330\235\024"
  73      B1014F5B 
  73      C61FCFF1 
  73      D89D14
  74 027c 4F0FA546 		.ascii	"O\017\245F\3179\267\2362\214\340\314d\243|\326\010\315"
  74      CF39B79E 
  74      328CE0CC 
  74      64A37CD6 
  74      08CD
  75 028e E472AF67 		.ascii	"\344r\257g\251\014\327Ab\233$$\030\313\015d\021[\351"
  75      A90CD741 
  75      629B2424 
  75      18CB0D64 
  75      115BE9
  76 02a1 4DD8CA86 		.ascii	"M\330\312\206\346.\316\217\362\350d7\201[\354\356\030"
  76      E62ECE8F 
  76      F2E86437 
  76      815BECEE 
  76      18
  77 02b2 04CD7BAD 		.ascii	"\004\315{\255\230j\272\275k\300%\275\313\231\217L}\361"
  77      986ABABD 
  77      6BC025BD 
  77      CB998F4C 
  77      7DF1
  78 02c4 068736C2 		.ascii	"\006\2076\302\306I\370\322\314\345\336C\344\301\225"
  78      C649F8D2 
  78      CCE5DE43 
  78      E4C195
  79 02d3 9097ECCF 		.ascii	"\220\227\354\317\346\203\004E*\276Cg(\330vo\370\015"
  79      E6830445 
  79      2ABE4367 
  79      28D8766F 
  79      F80D
  80 02e5 6FDD669B 		.ascii	"o\335f\2333\201!\266\205\263S\256\002\303J\377\323,"
  80      338121B6 
  80      85B353AE 
  80      02C34AFF 
  80      D32C
  81 02f7 E1453611 		.ascii	"\341E6\021\356n\277\316U\272\276]\266\255\2728cc\217"
  81      EE6EBFCE 
  81      55BABE5D 
  81      B6ADBA38 
ARM GAS  C:\Users\Bruger\AppData\Local\Temp\ccBQwdGg.s 			page 6


  81      63638F
  82 030a 39E0C044 		.ascii	"9\340\300D\217\007\224,U`\230I\272\303#\035a\221\346"
  82      8F07942C 
  82      55609849 
  82      BAC3231D 
  82      6191E6
  83 031d 9DF1D886 		.ascii	"\235\361\330\206n6\370\245\017\270\222\366\306\253\201"
  83      6E36F8A5 
  83      0FB892F6 
  83      C6AB81
  84 032c 929522BB 		.ascii	"\222\225\"\273\273bd\243\213\352\232/?9!-u:\315\234"
  84      BB6264A3 
  84      8BEA9A2F 
  84      3F39212D 
  84      753ACD9C 
  85 0340 8E169C52 		.ascii	"\216\026\234R\373{\012~\347.\357qCS\321#\235\374\017"
  85      FB7B0A7E 
  85      E72EEF71 
  85      4353D123 
  85      9DFC0F
  86 0353 EB6ACB1B 		.ascii	"\353j\313\033\212\034\315dK\376\347`\254\340`\334\356"
  86      8A1CCD64 
  86      4BFEE760 
  86      ACE060DC 
  86      EE
  87 0364 E0E8CC42 		.ascii	"\340\350\314B\\\226>\341\026\202}'\233\362\026\236:"
  87      5C963EE1 
  87      16827D27 
  87      9BF2169E 
  87      3A
  88 0375 C3790B6E 		.ascii	"\303y\013n\230\020\026\336\252\2007\013\006\356\363"
  88      981016DE 
  88      AA80370B 
  88      06EEF3
  89 0384 673E71EA 		.ascii	"g>q\352is\011\222\273\025\002I\313Oz*\244.\365\363\365"
  89      69730992 
  89      BB150249 
  89      CB4F7A2A 
  89      A42EF5F3 
  90 0399 20C501CB 		.ascii	" \305\001\313\217\264\314\317$\3673\305\375\014t,<\341"
  90      8FB4CCCF 
  90      24F733C5 
  90      FD0C742C 
  90      3CE1
  91 03ab 90B435EF 		.ascii	"\220\2645\357\347\364\344\337\363\236\202\037\011\036"
  91      E7F4E4DF 
  91      F39E821F 
  91      091E
  92 03b9 1416F943 		.ascii	"\024\026\371C\364\203\274\017!`\236\370\010\361Q]\212"
  92      F483BC0F 
  92      21609EF8 
  92      08F1515D 
  92      8A
  93 03ca AD0EF656 		.ascii	"\255\016\366Ve\257\311\355\037j\265\232\276\337\257"
  93      65AFC9ED 
  93      1F6AB59A 
  93      BEDFAF
ARM GAS  C:\Users\Bruger\AppData\Local\Temp\ccBQwdGg.s 			page 7


  94 03d9 55EDDBED 		.ascii	"U\355\333\355\253\327+\265\275\273v\373v\356\330\273"
  94      ABD72BB5 
  94      BDBB76FB 
  94      76EED8BB 
  95 03e9 53DF5FFB 		.ascii	"S\337_\373\331\036\275\372\300\001M\177\277\276\246"
  95      D91EBDFA 
  95      C0014D7F 
  95      BFBEA6
  96 03f8 E6F33DD5 		.ascii	"\346\363=\3255\232\376v%\221\3534\275\332W\245\212\303"
  96      359AFE76 
  96      2591EB34 
  96      BDDA57A5 
  96      8AC3
  97 040a 3EBF5653 		.ascii	">\277VS\347\252\364\325\327\3725\275\244\032\253^_\347"
  97      E7AAF4D5 
  97      D7FA35BD 
  97      A41AAB5E 
  97      5FE7
  98 041c FFD857A5 		.ascii	"\377\330W\245\375\007\244!\337\364"
  98      FD07A421 
  98      DFF4
  99              		.text
 100              		.section	.gnu.lto_CrankTriggerDummyTimer_Enable.24c1407c,"",%progbits
 101 0000 789C7D92 		.ascii	"x\234}\222\273K\303`\020\300\357.5\264\024\0378\225"
 101      BB4BC360 
 101      10C0EF2E 
 101      35B4141F 
 101      3895
 102 0012 8E2E6E22 		.ascii	"\216.n\"\202\177\201\202\233\210\355X\020\251ADZ!\330"
 102      827F8182 
 102      9B88ED58 
 102      10A94144 
 102      5A21D8
 103 0025 C1C9042B 		.ascii	"\301\311\004+>&\355 \005\251(\">\252F\253B\021\207\342"
 103      3E26ED20 
 103      05A92822 
 103      3EAA46AB 
 103      421187E2 
 104 0039 A02E561D 		.ascii	"\240.V\035T\020\324\245b\335|Q\251 z_R-T4\220\273<\356"
 104      5410D4A5 
 104      62DD7C51 
 104      A9207A5F 
 104      522D5434 
 105 0051 7EF74BBE 		.ascii	"~\367K\276O\202\337\207\233\317v\002h\340\214\022 M"
 105      4F82DF87 
 105      9BCF7602 
 105      68E08C12 
 105      204D
 106 0063 A401743B 		.ascii	"\244\001t;!\212\013@\030$\034\304\007z\"\234H\305\243"
 106      218A0B40 
 106      18241CC4 
 106      077A229C 
 106      48C5A3
 107 0076 CEDA054D 		.ascii	"\316\332\005M\323\036\367\257]\303\256<\267\275\220"
 107      D31EF7AF 
 107      5DC3AE3C 
 107      B7BD90
ARM GAS  C:\Users\Bruger\AppData\Local\Temp\ccBQwdGg.s 			page 8


 108 0085 85C145AC 		.ascii	"\205\301E\254\005\256y\012\177\\:\3450\327TY\357p\011"
 108      05AE790A 
 108      7F5C3AE5 
 108      30D75459 
 108      EF7009
 109 0098 65E46C54 		.ascii	"e\344lT\247\264\317\317\227\\d\264Fr\022\344\211\207"
 109      A7B4CFCF 
 109      975C64B4 
 109      467212E4 
 109      8987
 110 00aa 71281341 		.ascii	"q(\023A\026\301.\202C\004\200\014w\212\361wD\"KW\270"
 110      16C12E82 
 110      4304800C 
 110      778AF177 
 110      44224B57 
 111 00bf 9F1B3F30 		.ascii	"\237\033?0\366P\320\336H\310\034\307\217n*\263\224'"
 111      F650D0DE 
 111      48C81CC7 
 111      8F6E2AB3 
 111      9427
 112 00d1 9A1FD135 		.ascii	"\232\037\3215\233\230}\23399\263\233\217@\334\256N\355"
 112      9B987D9B 
 112      3939B39B 
 112      8F40DCAE 
 112      4EED
 113 00e3 CC55C470 		.ascii	"\314U\304pZ\017c\236$\\F7\256 \177.\3061\206p\205C\257"
 113      5A0F639E 
 113      245C4637 
 113      AE207F2E 
 113      C6318670 
 114 00fa B285932C 		.ascii	"\262\205\223,\342n\344(*\213v\264\001\256r%O\215\230"
 114      E26EE428 
 114      2A8B76B4 
 114      01AE7225 
 114      4F8D98
 115 010d 13FF83AD 		.ascii	"\023\377\203\2551\214\021`*\246\215\213\202b\031\367"
 115      318C1160 
 115      2AA68D8B 
 115      826219F7 
 116 011d 44EEC79E 		.ascii	"D\356\307\236\313M\237\255o\305\363\367Y\275\262\210"
 116      CB4D9FAD 
 116      6FC5F3F7 
 116      59BDB288 
 117 012d 59FFC118 		.ascii	"Y\377\301\030%N\002\361K\342\317\356\015SB\266$r\306"
 117      254E02F1 
 117      4BE2CFEE 
 117      0D5342B6 
 117      2472C6
 118 0140 4641C2CE 		.ascii	"FA\302\316=\311\304\342!\231\022\321\231\202\304i2\033"
 118      3DC9C4E2 
 118      219912D1 
 118      9982C469 
 118      321B
 119 0152 968A98CD 		.ascii	"\226\212\230\315\037L\242D\302a!\016c\331\204\315\374"
 119      1F4CA244 
 119      C261210E 
 119      63D984CD 
ARM GAS  C:\Users\Bruger\AppData\Local\Temp\ccBQwdGg.s 			page 9


 119      FC
 120 0163 3108B855 		.ascii	"1\010\270U\342\364'l\333tr\300\015\352\251\311VQ-\366"
 120      E2F4276C 
 120      DB7472C0 
 120      0DEAA9C9 
 120      56512DF6 
 121 0177 49869797 		.ascii	"I\206\227\227W\224W\250\276E\011*jg\277\322\325\341"
 121      579457A8 
 121      BE45092A 
 121      6A67BFD2 
 121      D5E1
 122 0189 E90BA97E 		.ascii	"\351\013\251~\305\327\346\351kj\3645\251\235\301^\257"
 122      C5D7E6E9 
 122      6B6AF435 
 122      A99DC15E 
 122      AF
 123 019a DAD3DDAD 		.ascii	"\332\323\335\255\250\315\241@`\300\333\023P\324:?|\001"
 123      A8CDA140 
 123      60C0DB13 
 123      50D43A3F 
 123      7C01
 124 01ac E816DB91 		.ascii	"\350\026\333\221"
 125              		.text
 126              		.section	.gnu.lto_CrankTriggerDummyTimer_Start.24c1407c,"",%progbits
 127 0000 789C7D93 		.ascii	"x\234}\223\317O\023A\024\307\337\233Y\332\355\017\305"
 127      CF4F1341 
 127      14C7DF9B 
 127      59DAED0F 
 127      C5
 128 0011 78221C7A 		.ascii	"x\"\034z\345\246\006\343_\200\211GM\340Hb\010n\0101"
 128      E5A606E3 
 128      5F808947 
 128      4DE04862 
 128      086E0831 
 129 0025 85642307 		.ascii	"\205d#\007\017\015\273\266\342\217\030CZM\032\225^\214"
 129      0F0DBBB6 
 129      E28F1843 
 129      5A4D1A95 
 129      5E8C
 130 0037 805628B6 		.ascii	"\200V(\266 X\320lL\224^,!F$\244\251\027\210pk\251B\032"
 130      2058D06C 
 130      4C945E2C 
 130      214624A4 
 130      A9178870 
 131 004f 43F0CD6C 		.ascii	"C\360\315l\251PR7\3317\273o\277\357;\237y3\313\341\370"
 131      A9505237 
 131      D937BB6F 
 131      BFEF3B9F 
 131      7933CBE1 
 132 0064 759EEE18 		.ascii	"u\236\356\030\007h\245\021\033\000\331p\026\300T\031"
 132      0768A511 
 132      1B00D970 
 132      16C05419 
 133 0074 E3691F18 		.ascii	"\343i\037\030ne\345,\030^\216\212\235V\020\305\003 "
 133      6E65E52C 
 133      185E8E8A 
 133      9D5610C5 
ARM GAS  C:\Users\Bruger\AppData\Local\Temp\ccBQwdGg.s 			page 10


 133      0320
 134 0086 0C32AEE0 		.ascii	"\0142\256\340 n\261\"\303a+\036\365\264\2740\014\243"
 134      206EB122 
 134      C3612B1E 
 134      F5B4BC30 
 134      0CA3
 135 0098 B0FDBBE9 		.ascii	"\260\375\273\351vS\231\001\224\230\355\217c\330\002"
 135      76539901 
 135      9498ED8F 
 135      63D802
 136 00a7 A42986F6 		.ascii	"\244)\206\366\276{\034!\322\234\262\277\3418:\220\306"
 136      BE7B1C21 
 136      D29CB2BF 
 136      E1383A90 
 136      C6
 137 00b8 C469CBD8 		.ascii	"\304i\313\330\337O\345\"\231V\336\310\241\314\320)\202"
 137      DF4FE522 
 137      9956DEC8 
 137      A1CCD029 
 137      82
 138 00c9 2A824B04 		.ascii	"*\202K\004\267\010\036\021\274\"\000\254S\271\240\330"
 138      B7081E11 
 138      BC2200AC 
 138      53B9A0D8 
 139 00d9 604C8C7C 		.ascii	"`L\214|\015o\205\213\271\222K8\3562N\223\305\276>\234"
 139      0D6F858B 
 139      B9924B38 
 139      EE324E93 
 139      C5BE3E9C 
 140 00ed 64813FC6 		.ascii	"d\201?\306]C-3\266'\246\243\354\217\365\245eu\223QF"
 140      5D432D33 
 140      B627A6A3 
 140      EC8FF5A5 
 140      65759351 
 141 0102 BE8E9BA1 		.ascii	"\276\216\233\241g8\202OMC\2508\276\304\000\276\302f"
 141      6738824F 
 141      4D43A838 
 141      BEC400BE 
 141      C266
 142 0114 228B531A 		.ascii	"\"\213S\032\276ah5\350\373\347i\216\316?p\212j\"\300"
 142      BE616835 
 142      E8FBE769 
 142      8ECE3F70 
 142      8A6A22C0 
 143 0128 D7420702 		.ascii	"\327B\007\002\201C\332\307s\030\264v\263^!\206\332\351"
 143      8143DAC7 
 143      7318B476 
 143      B35E2186 
 143      DAE9
 144 013a 9592AC98 		.ascii	"\225\222\254\230\300\000\3217\000\301\026\012\371\240"
 144      C000D137 
 144      00C1160A 
 144      F9A0
 145 0148 4768EB92 		.ascii	"Gh\353\222\326\242MV\321\022\224&\301\362\223\321`\243"
 145      D6A24D56 
 145      D1129426 
 145      C1F293D1 
ARM GAS  C:\Users\Bruger\AppData\Local\Temp\ccBQwdGg.s 			page 11


 145      60A3
 146 015a 80E10838 		.ascii	"\200\341\0108%a6\230R\351\306\307\235\373\237\023\013"
 146      25613698 
 146      52E9C6C7 
 146      9DFB9F13 
 146      0B
 147 016b 78A4E956 		.ascii	"x\244\351Vd\211\311\226\227h\3655\333\201o\010\0330"
 147      6489C996 
 147      9768F535 
 147      DB816F08 
 147      1B30
 148 017d 2956EAA4 		.ascii	")V\352\244o_\342\231\2744w<\277c\032\312\221\3269$\337"
 148      6F5FE299 
 148      BC34773C 
 148      BF631ACA 
 148      91D63924 
 149 0192 A748D672 		.ascii	"\247H\326r\012\276G&\36191\205\3158-\371fD\353\3260"
 149      0ABE4726 
 149      F1393185 
 149      CD382DF9 
 149      6644EBD6 
 150 01a7 F86B4820 		.ascii	"\370kH \330\236\252m\233\016g\242\016\331@\005\360-"
 150      D89EAA6D 
 150      9B0E67A2 
 150      0ED94005 
 150      F02D
 151 01b9 A989342C 		.ascii	"\251\2114,%\377u\234%G\362\000\271\256lb\245b\352\242"
 151      25FF759C 
 151      2547F200 
 151      B9AE6C62 
 151      A562EAA2 
 152 01cd A2F0CF7B 		.ascii	"\242\360\317{\333'$U\352\000tkvh\372\344!\237\271\252"
 152      DB272455 
 152      EA00746B 
 152      7668FAE4 
 152      219FB9AA 
 153 01e1 CFBB0332 		.ascii	"\317\273\0032\207m\340&\217c\030\365\313\323\022\303"
 153      876DE026 
 153      8F6318F5 
 153      CBD312C3 
 154 01f1 6D63EC24 		.ascii	"mc\354$\246*\030\036*\232K\216-2\211\021\215U0&Vg\014"
 154      A62A181E 
 154      2A9A4B8E 
 154      2D328911 
 154      8D553026 
 155 0208 F590CF7C 		.ascii	"\365\220\317|\325g\241\006\303k{,\216l&\025\331\034"
 155      D567A106 
 155      C36B7B2C 
 155      8E6C2615 
 155      D91C
 156 021a DAD0F735 		.ascii	"\332\320\3675T\365\335>H*/\344\321\264\036_\226\347"
 156      54F5DD3E 
 156      482A2FE4 
 156      D1B41E5F 
 156      96E7
 157 022c 0FC40F82 		.ascii	"\017\304\017\202\342(\320a:wI\353\323\364\256\033\332"
 157      E228D061 
ARM GAS  C:\Users\Bruger\AppData\Local\Temp\ccBQwdGg.s 			page 12


 157      3A7749EB 
 157      D3F4AE1B 
 157      DA
 158 023d B5ABEDFD 		.ascii	"\265\253\355\375\003z\267\326y\245\275\277\355Bg\233"
 158      037AB7D6 
 158      79A5BDBF 
 158      ED42679B 
 159 024d DED577BD 		.ascii	"\336\325w\275C\357\355\351\321\364\213\003~\377\315"
 159      43EFEDE9 
 159      D1F48B03 
 159      7EFFCD
 160 025c 8E5EBFA6 		.ascii	"\216^\277\246\237\351\206\277F\376Wy"
 160      9FE986BF 
 160      46FE5779 
 161              		.text
 162              		.section	.gnu.lto_CrankTriggerDummyTimer_Stop.24c1407c,"",%progbits
 163 0000 789C7D92 		.ascii	"x\234}\222\317+\004q\024\300\337{\3034\333f\311I\216"
 163      CF2B0471 
 163      14C0DF7B 
 163      C334DB66 
 163      C9498E
 164 0013 2E6E92F2 		.ascii	".n\222\362\027\254r\025{T\022\323&-5qp2\223\2258\371"
 164      17AC7215 
 164      7B5412D3 
 164      262D3571 
 164      70329395 
 165 0029 5128AD48 		.ascii	"Q(\255HZ\354\372\271\253\034\224\245\260\027\277\016"
 165      5AECFAB9 
 165      AB1C94A5 
 165      B017BF0E 
 166 0039 A83DACCB 		.ascii	"\250=\254\313j\327\315\217\302\372\375\2763k\325\212"
 166      6AD7CD8F 
 166      C2FAFDBE 
 166      336BD58A 
 167 0049 A9796F7E 		.ascii	"\251yo~\274\367y\237\351\215\004\277\217R>]\004P\305"
 167      BCF7799F 
 167      E98D04BF 
 167      8F523E5D 
 167      0450C5
 168 005c 1925401A 		.ascii	"\031%@\032>\0060\024B\024\027\200\320K\330\2137tG8\034"
 168      3E063014 
 168      42141780 
 168      D04BD88B 
 168      37744738 
 169 0071 094CDACB 		.ascii	"\011L\332\313\347u]\277\275\177/\351/Is\333\003Y\030"
 169      E7755DBF 
 169      BD7F2FE9 
 169      2F4973DB 
 169      035918
 170 0084 F4633970 		.ascii	"\364c9p\315\235\367\375\322.{\271\246\310z\207\013("
 170      CD9DF7FD 
 170      D22E7BB9 
 170      A6C87A87 
 170      0B28
 171 0096 23E7D5E2 		.ascii	"#\347\325\342\210\376\371\031z\033K\225\345\331\011"
 171      88FEF919 
 171      7A1B4B95 
ARM GAS  C:\Users\Bruger\AppData\Local\Temp\ccBQwdGg.s 			page 13


 171      E5D909
 172 00a5 D2C4C338 		.ascii	"\322\304\3038\344\213 \213\240\210`\023\001 \301\235"
 172      E48B208B 
 172      A0886013 
 172      0120C19D 
 173 00b5 62FC3591 		.ascii	"b\3745\221\310R\014\367\036\207\342;k(hO$d\2666\374"
 173      C8520CF7 
 173      1E87E23B 
 173      6B28684F 
 173      2464B636 
 174 00ca 8794A234 		.ascii	"\207\224\2424\321\344\264\241\347\211\331W\211\2233"
 174      D1E4B4A1 
 174      E789D957 
 174      899333
 175 00d9 C57C04E2 		.ascii	"\305|\004\342\366t+\345\225|8ex1M\022.b).!\177.\006"
 175      F6742BE5 
 175      957C3865 
 175      78314D12 
 175      2E62292E 
 176 00f1 D08710C3 		.ascii	"\320\207\020\303\276g\331\302I\026qd$<\355\020\355\322"
 176      BE67D9C2 
 176      49167164 
 176      243CED10 
 176      EDD2
 177 0103 070206B9 		.ascii	"\007\002\006\271\224\307\216\232#\377\243-3\215\031"
 177      94C78E9A 
 177      23FFA32D 
 177      338D19
 178 0112 603A1E44 		.ascii	"`:\036D\2673\216\371\334s\024\210\306\013M\241\271\201"
 178      B7338EF9 
 178      DC731488 
 178      C60B4DA1 
 178      B981
 179 0124 8C63707C 		.ascii	"\214cp|s\326\361\203Y\311bVs\2442\010\377~r\267\300"
 179      73D6F183 
 179      59C96256 
 179      73A43208 
 179      FF7E72B7 
 180 0139 947A65A9 		.ascii	"\224ze\251\265\034\251?i\353\246\224lI\035G/2R\012\367"
 180      B51CA93F 
 180      69EBA694 
 180      6C491D47 
 180      2F32520A 
 181 014e 8C2607EF 		.ascii	"\214&\007\357M\"\205\276\245\316_f\214\302\037\314F"
 181      4D2285BE 
 181      A5CE5F66 
 181      8CC21FCC 
 181      46
 182 015f 1613CA91 		.ascii	"\026\023\312\221\2621\342\227\304\237\335aS\302\006"
 182      B231E297 
 182      C49FDD61 
 182      53C206
 183 016e 71342213 		.ascii	"q4\"\023\365\242Z\374)\011^0\357\224wTY\253v\250Zs\227"
 183      F5A25AFC 
 183      29095E30 
 183      EF947754 
 183      59AB76A8 
ARM GAS  C:\Users\Bruger\AppData\Local\Temp\ccBQwdGg.s 			page 14


 184 0185 DADAD4D0 		.ascii	"\332\332\324\320\331\255\265\250\215u\015\235\316\352"
 184      D9ADB5A8 
 184      8D750D9D 
 184      CEEA
 185 0193 46A7D6DC 		.ascii	"F\247\326\334\321\356\322\332\334nU\253\351\366xz\\"
 185      D1EED2DA 
 185      DC6E55AB 
 185      E9F6787A 
 185      5C
 186 01a4 6D1E55AB 		.ascii	"m\036U\253h\201/\031\014\3369"
 186      68812F19 
 186      0CDE39
 187              		.text
 188              		.section	.gnu.lto_CrankTriggerDummyTimer_SetInterruptMode.24c1407c,"",%progbits
 189 0000 789C6366 		.ascii	"x\234cf\300\004R@\314\305\310\300\340\000\244\031\231"
 189      C0045240 
 189      CCC5C8C0 
 189      E000A419 
 189      99
 190 0011 19189926 		.ascii	"\031\030\231&\234c`h\344`bd\0041\030\030\031\352\231"
 190      9C636068 
 190      E4606264 
 190      04311818 
 190      19EA99
 191 0024 18EB195F 		.ascii	"\030\353\031_2}db\234p`\365\014n\365\245\015\015\015"
 191      327D6462 
 191      9C7060F5 
 191      0C6EF5A5 
 191      0D0D0D
 192 0037 1F3E4D95 		.ascii	"\037>M\225l\225\370\311\304\300\360\231\011b\014\343"
 192      6C95F8C9 
 192      C4C0F099 
 192      09620CE3 
 193 0047 724675A0 		.ascii	"rFu\240\222\376\007\177w\2601\03332\000\331\247>}{\307"
 193      92FE077F 
 193      77B0311B 
 193      333200D9 
 193      A73E7D7B 
 194 005c A4BAB8A1 		.ascii	"\244\272\270\241\241\351\300\233u\015\016\214?\201f"
 194      A1E9C09B 
 194      750D0E8C 
 194      3F8166
 195 006b AE606406 		.ascii	"\256`d\006\352`\324\221b\324\224b\000\01200\256dT\005"
 195      EA60D491 
 195      62D49462 
 195      000A3030 
 195      AE645405 
 196 007f 29FED8F2 		.ascii	")\376\330\362\367:7[\013\320l\001\210\231\214\253\030"
 196      F73A375B 
 196      0BD06C01 
 196      88998CAB 
 196      18
 197 0090 D980CE62 		.ascii	"\331\200\316bX/t\240\341\377\377\315w\246\234\320ca"
 197      582F74A0 
 197      E1FFFFCD 
 197      77A69CD0 
 197      6361
ARM GAS  C:\Users\Bruger\AppData\Local\Temp\ccBQwdGg.s 			page 15


 198 00a2 019A0052 		.ascii	"\001\232\000R\317\360\004\250\002\344\274\247LL \232"
 198      CFF004A8 
 198      02E4BCA7 
 198      4C4C209A 
 199 00b2 F916E3A1 		.ascii	"\371\026\343\241i\037\357\264p\2034\001\015;\262\371"
 199      691FEFB4 
 199      70833401 
 199      0D3BB2F9 
 200 00c2 EF73DE17 		.ascii	"\357s\336\027L?\231\230f\317kl`\001\231\177\377\311"
 200      4C3F9998 
 200      66CF6B6C 
 200      6001997F 
 200      FFC9
 201 00d4 F98B1C60 		.ascii	"\371\213\034`!\006\020w\342\243\251/\270\3472\316nl"
 201      21061077 
 201      E2A3A92F 
 201      B8E732CE 
 201      6E6C
 202 00e6 693CC0FA 		.ascii	"i<\300\372\223\211\231q5\243\024\343\032F``0\256e\234"
 202      93899971 
 202      35A314E3 
 202      1A466060 
 202      30AE659C 
 203 00fa CBF81DA8 		.ascii	"\313\370\035\250\354\036c\343\201\257A \023A\376{\002"
 203      EC1E63E3 
 203      81AF4120 
 203      1341FE7B 
 203      02
 204 010b 742BD026 		.ascii	"t+\320&\240n\003\367\324\274\324\242\304\222\324\224"
 204      A06E03F7 
 204      D4BCD4A2 
 204      C492D494 
 205 011b F8E0FCD2 		.ascii	"\370\340\374\322\242\344\324\230\200\340|g\323\030\347"
 205      A2E4D498 
 205      80E07C67 
 205      D318E7
 206 012a A2C4BCEC 		.ascii	"\242\304\274\354\220\242\314\364\364\324\"\227\322\334"
 206      90A2CCF4 
 206      F4D42297 
 206      D2DC
 207 0138 DCCA90CC 		.ascii	"\334\312\220\314\334\324\"\275d\006\336\314\274\222"
 207      DCD422BD 
 207      6406DECC 
 207      BC92
 208 0146 D4A2A2D2 		.ascii	"\324\242\242\322\202\022\337\374\224T\000\0268w\243"
 208      8212DFFC 
 208      94540016 
 208      3877A3
 209              		.text
 210              		.section	.gnu.lto_CrankTriggerDummyTimer_SoftwareCapture.24c1407c,"",%progbits
 211 0000 789C6366 		.ascii	"x\234cf\300\004R@|\036\210\215\200\230\221\231\201\221"
 211      C0045240 
 211      7C1E888D 
 211      80989199 
 211      8191
 212 0012 69C23906 		.ascii	"i\3029\006\206F\016&FF\020\203\201\221\241\236\211\261"
 212      86460E26 
ARM GAS  C:\Users\Bruger\AppData\Local\Temp\ccBQwdGg.s 			page 16


 212      46461083 
 212      8191A19E 
 212      89B1
 213 0024 9EF125D3 		.ascii	"\236\361%\323G&\306\011\007V\317\340V_\332\320\320\360"
 213      4726C609 
 213      0756CFE0 
 213      565FDAD0 
 213      D0F0
 214 0036 E1D16CC9 		.ascii	"\341\321l\311V\211\237L\014\014\237\231 \3060.gTg\000"
 214      56899F4C 
 214      0C0C9F99 
 214      20C6302E 
 214      67546700 
 215 004a AAF9D8F2 		.ascii	"\252\371\330\362\367:7[\013P\215\000D\216q\005#\033"
 215      F73A375B 
 215      0B508D00 
 215      448E7105 
 215      231B
 216 005c 23905E2F 		.ascii	"#\220^/t\240\341\377\377\317\357\247\274\260fafb\370"
 216      74A0E1FF 
 216      FFCFEFA7 
 216      BCB06661 
 216      6662F8
 217 006f C904147C 		.ascii	"\311\004\024|\002T\000\262\345)\023\023\210f\276\305"
 217      025400B2 
 217      E5291313 
 217      8866BEC5 
 218 007f 78E85BD7 		.ascii	"x\350[\327\265sF =\337\231@V\336Y\337\275\223\375\005"
 218      B5734620 
 218      3DDF9940 
 218      56DE59DF 
 218      BD93FD05 
 219 0093 D34F26A6 		.ascii	"\323O&\246y\363\032\033X@6\334\177r\376\"\007X\210\001"
 219      79F31A1B 
 219      584036DC 
 219      7F72FE22 
 219      07588801 
 220 00a7 C4DD7666 		.ascii	"\304\335vf\303u\316\271\214\263\033[\030\177213\256"
 220      C375CEB9 
 220      8CB31B5B 
 220      187F3231 
 220      33AE
 221 00b9 6494625C 		.ascii	"d\224b\\\305\010\364\024\343j\306\271\214\014\367\030"
 221      C508F414 
 221      E36AC6B9 
 221      8C0CF718 
 222 00c9 1B0FDC0F 		.ascii	"\033\017\334\017\006\231\007r\344\023\240\245@{\200"
 222      06990772 
 222      E413A0A5 
 222      407B80
 223 00d8 1A0DDC53 		.ascii	"\032\015\334S\363R\213\022KRS\342\203\363K\213\222S"
 223      F3528B12 
 223      4B5253E2 
 223      83F34B8B 
 223      9253
 224 00ea 630282F3 		.ascii	"c\002\202\363\235Mc\234\213\022\363\262C\2122\323\323"
 224      9D4D639C 
ARM GAS  C:\Users\Bruger\AppData\Local\Temp\ccBQwdGg.s 			page 17


 224      8B12F3B2 
 224      438A32D3 
 224      D3
 225 00fb 538B5C4A 		.ascii	"S\213\\Jss+C2sS\213\364\222\031\000\216\202^\273"
 225      73732B43 
 225      3273538B 
 225      F4921900 
 225      8E825EBB 
 226              		.text
 227              		.section	.gnu.lto_CrankTriggerDummyTimer_ReadStatusRegister.24c1407c,"",%progbits
 228 0000 789C6366 		.ascii	"x\234cf\300\004R@|\035\210\215\200\230\221\231\201\221"
 228      C0045240 
 228      7C1D888D 
 228      80989199 
 228      8191
 229 0012 69C23906 		.ascii	"i\3029\006\206F\016&FF\020\203\201\221\241\236\211\261"
 229      86460E26 
 229      46461083 
 229      8191A19E 
 229      89B1
 230 0024 9EF125D3 		.ascii	"\236\361%\323G&\3063;\377]fT_\332\320\320\364\341\322"
 230      4726C633 
 230      3BFF5D66 
 230      545FDAD0 
 230      D0F4E1D2 
 231 0038 E6D4E953 		.ascii	"\346\324\351S\022~210|fb`\324\221b\324\004\231\303\270"
 231      127E3231 
 231      307C6662 
 231      60D49162 
 231      D40499C3 
 232 004d 9C519D01 		.ascii	"\234Q\235\001\250\360c\313\337\353\334l-\015\015\015"
 232      A8F063CB 
 232      DFEBDC6C 
 232      2D0D0D0D 
 233 005d 022079A0 		.ascii	"\002 y\240\304\012F6F \275^\350@\303\377\377\233\317"
 233      C40A4636 
 233      4620BD5E 
 233      E840C3FF 
 233      FF9BCF
 234 0070 4FEDD062 		.ascii	"O\355\320befb\000\351gx\002$@V=eb\002\321\314\267\030"
 234      65666200 
 234      E9677802 
 234      2440563D 
 234      656202D1 
 235 0087 0F7DEBFA 		.ascii	"\017}\353\372w\223\013\244\347;\023\310\336#\233\377"
 235      77930BA4 
 235      E73B13C8 
 235      DE239BFF 
 236 0097 3EE77DC1 		.ascii	">\347}\301\364\223\211q\366\274\306\006\026\220\015"
 236      F4938971 
 236      F6BCC606 
 236      16900D
 237 00a6 F79F9CBF 		.ascii	"\367\237\234\277\310\001\026b\000q'>\232\372\202{.\343"
 237      C8011662 
 237      0071273E 
 237      9AFA827B 
 237      2EE3
ARM GAS  C:\Users\Bruger\AppData\Local\Temp\ccBQwdGg.s 			page 18


 238 00b8 ECC696C6 		.ascii	"\354\306\226\306\003\262?\231\230\030W2J1\256b\004\272"
 238      03B23F99 
 238      98185732 
 238      4A31AE62 
 238      04BA
 239 00ca 897135E3 		.ascii	"\211q5\343\\F\206{\214\215\015\334P\003\301V2\202\254"
 239      5C46867B 
 239      8C8D0DDC 
 239      5003C156 
 239      3282AC
 240 00dd 02320DDC 		.ascii	"\0022\015\334S\363R\213\022KRS\342\203\363K\213\222"
 240      53F3528B 
 240      124B5253 
 240      E283F34B 
 240      8B92
 241 00ef 53630282 		.ascii	"Sc\002\202\363\235Mc\234\213\022\363\262C\2122\323\323"
 241      F39D4D63 
 241      9C8B12F3 
 241      B2438A32 
 241      D3D3
 242 0101 538B5C4A 		.ascii	"S\213\\Jss+C2sS\213\364\222\031\000=<a\354"
 242      73732B43 
 242      3273538B 
 242      F4921900 
 242      3D3C61EC 
 243              		.text
 244              		.section	.gnu.lto_CrankTriggerDummyTimer_ReadControlRegister.24c1407c,"",%progbits
 245 0000 789C6366 		.ascii	"x\234cf\300\004R@|\035\210\215\200\230\221\231\201\221"
 245      C0045240 
 245      7C1D888D 
 245      80989199 
 245      8191
 246 0012 69C23906 		.ascii	"i\3029\006\206F\016&FF\020\203\201\221\241\236\211\261"
 246      86460E26 
 246      46461083 
 246      8191A19E 
 246      89B1
 247 0024 9EF125D3 		.ascii	"\236\361%\323G&\3063;\377]fT_\332\320\320\364\341\320"
 247      4726C633 
 247      3BFF5D66 
 247      545FDAD0 
 247      D0F4E1D0 
 248 0038 CEBBDCAD 		.ascii	"\316\273\334\255\022?\231\030\030>310\352H1j\202\314"
 248      123F9918 
 248      183E3331 
 248      30EA4831 
 248      6A82CC
 249 004b 615CCEA8 		.ascii	"a\\\316\250\316\000T\370\261\345\357un\266\226\206\206"
 249      CE0054F8 
 249      B1E5EF75 
 249      6EB69686 
 249      86
 250 005c 0601903C 		.ascii	"\006\001\220<Pb\005#\033#\220^/t\240\341\377\377\317"
 250      50620523 
 250      1B23905E 
 250      2F74A0E1 
 250      FFFFCF
ARM GAS  C:\Users\Bruger\AppData\Local\Temp\ccBQwdGg.s 			page 19


 251 006f CFA6BE30 		.ascii	"\317\246\2760cefb\000\351gx\002$@V=eb\002\321\314\267"
 251      63656662 
 251      00E96778 
 251      02244056 
 251      3D656202 
 252 0086 180F7DEB 		.ascii	"\030\017}\353\372w\307\010\244\347;\023\310\336\035"
 252      FA77C708 
 252      A4E73B13 
 252      C8DE1D
 253 0095 9B961F67 		.ascii	"\233\226\037gz\301\364\223\211q\306\274\306\006\026"
 253      7AC1F493 
 253      8971C6BC 
 253      C60616
 254 00a4 900DF79F 		.ascii	"\220\015\367\237\234\277\310\001\026b\000q/\354x\321"
 254      9CBFC801 
 254      16620071 
 254      2FEC78D1 
 255 00b4 C23C9771 		.ascii	"\302<\227qvcK\343\001\315\237LL\214+\031\245\030W1\002"
 255      76634BE3 
 255      01CD9F4C 
 255      4C8C2B19 
 255      A5185731 
 256 00c9 DDC4B89A 		.ascii	"\335\304\270\232q.#\303=\306\306\006c\250\201`+\031"
 256      712E23C3 
 256      3DC6C606 
 256      63A88160 
 256      2B19
 257 00db 41560199 		.ascii	"AV\001\231\006\356\251y\251E\211%\251)\361\301\371\245"
 257      06EEA979 
 257      A9458925 
 257      A929F1C1 
 257      F9A5
 258 00ed 45C9A931 		.ascii	"E\311\2511\001\301\371\316\2461\316E\211y\331!E\231"
 258      01C1F9CE 
 258      A631CE45 
 258      8979D921 
 258      4599
 259 00ff E9E9A945 		.ascii	"\351\351\251E.\245\271\271\225!\231\271\251Ez\311\014"
 259      2EA5B9B9 
 259      952199B9 
 259      A9457AC9 
 259      0C
 260 0110 00357962 		.ascii	"\0005yb\004"
 260      04
 261              		.text
 262              		.section	.gnu.lto_CrankTriggerDummyTimer_WriteControlRegister.24c1407c,"",%progbits
 263 0000 789C6366 		.ascii	"x\234cf\300\004R@\314\311\310\300`\005\244\031\231\031"
 263      C0045240 
 263      CCC9C8C0 
 263      6005A419 
 263      9919
 264 0012 1899269C 		.ascii	"\030\231&\234c`h\344`bd\0041\030\030\031\352\231\030"
 264      636068E4 
 264      60626404 
 264      31181819 
 264      EA9918
 265 0025 EB195F32 		.ascii	"\353\031_2}db\234p`\365\014n\365\245\015\015\015\037"
ARM GAS  C:\Users\Bruger\AppData\Local\Temp\ccBQwdGg.s 			page 20


 265      7D64629C 
 265      7060F50C 
 265      6EF5A50D 
 265      0D0D1F
 266 0038 36ED976C 		.ascii	"6\355\227l\225\370\311\304\300\360\231\011b\014\343"
 266      95F8C9C4 
 266      C0F09909 
 266      620CE3
 267 0047 724675A0 		.ascii	"rFu\240\222eG\216I1\03332\000\231\2776OZ\315\251\272"
 267      9265478E 
 267      49311B33 
 267      320099BF 
 267      364F5ACD 
 268 005d B8A1A1E9 		.ascii	"\270\241\241\351\300\217u\015\016\214?\201F\256`d\006"
 268      C08F750D 
 268      0E8C3F81 
 268      46AE6064 
 268      06
 269 006e 6A60D491 		.ascii	"j`\324\221b\324\224b\000\01200\256dT\005)\376\330\362"
 269      62D49462 
 269      000A3030 
 269      AE645405 
 269      29FED8F2 
 270 0082 F73A375B 		.ascii	"\367:7[\013\320h\001\210\221\214\253\030\331\200\256"
 270      0BD06801 
 270      88918CAB 
 270      18D980AE 
 271 0092 62582F74 		.ascii	"bX/t\240\341\377\377\315\377\246\236Pbc\001\232\000"
 271      A0E1FFFF 
 271      CDFFA69E 
 271      50626301 
 271      9A00
 272 00a4 52CFF004 		.ascii	"R\317\360\004\250\002\344\272\247LL \232\371\026\343"
 272      A802E4BA 
 272      A74C4C20 
 272      9AF916E3 
 273 00b4 A1691BFF 		.ascii	"\241i\033\377\267r\2034\001\015\333\261i\371q\246\027"
 273      B7728334 
 273      010DDBB1 
 273      69F971A6 
 273      17
 274 00c5 4C3F9998 		.ascii	"L?\231\230f\314kl`\001\231\177\377\311\371\213\034`"
 274      66CC6B6C 
 274      6001997F 
 274      FFC9F98B 
 274      1C60
 275 00d7 210610F7 		.ascii	"!\006\020\367\302\216\027-\314s\031g7\2664\036\220\374"
 275      C28E172D 
 275      CC731967 
 275      37B6341E 
 275      90FC
 276 00e9 C9C4CCB8 		.ascii	"\311\304\314\270\232Q\212q\015#0,\030\3272\316e\374"
 276      9A518A71 
 276      0D23302C 
 276      18D732CE 
 276      65FC
 277 00fb 0E54768F 		.ascii	"\016Tv\217\261\361\300\324(\220\211 \357=\001\272\025"
ARM GAS  C:\Users\Bruger\AppData\Local\Temp\ccBQwdGg.s 			page 21


 277      B1F1C0D4 
 277      28908920 
 277      EF3D01BA 
 277      15
 278 010c 681350B7 		.ascii	"h\023P\267\201{j^jQbIjJ|p~iQrjL@p\276\263i\214sQb^v"
 278      817B6A5E 
 278      6A516249 
 278      6A4A7C70 
 278      7E695172 
 279 012d 4851667A 		.ascii	"HQfzzj\221KinneHfnj\221^2\003{r~^IQ~\016\000\0155r\260"
 279      7A6A914B 
 279      696E6E65 
 279      48666E6A 
 279      915E3203 
 280              		.text
 281              		.section	.gnu.lto_CrankTriggerDummyTimer_ReadPeriod.24c1407c,"",%progbits
 282 0000 789C6366 		.ascii	"x\234cf\300\004R@\374\003\210\215\200\230\221\231\201"
 282      C0045240 
 282      FC03888D 
 282      80989199 
 282      81
 283 0011 9169C239 		.ascii	"\221i\3029\006\206F\016&FF\020\203\201\221\241\236\211"
 283      0686460E 
 283      26464610 
 283      838191A1 
 283      9E89
 284 0023 B19EF125 		.ascii	"\261\236\361%\323G&\306\323\217~|\346y\301\364\223\211"
 284      D34726C6 
 284      D38F7E7C 
 284      E679C1F4 
 284      9389
 285 0035 418001C8 		.ascii	"A\200\001\310\235u\375\351\027f\020\227\221\011\304"
 285      9D75FDE9 
 285      17661097 
 285      9109C4
 286 0044 DDFDF9DC 		.ascii	"\335\375\371\334#6\365\245\015\015M\037.]M\2341e\001"
 286      2336F5A5 
 286      0D0D4D1F 
 286      2E5D4D9C 
 286      316501
 287 0057 E34F2626 		.ascii	"\343O&&\206\317L\014\214\313\031\245\030W0\202,b\\\311"
 287      86CF4C0C 
 287      8CCB19A5 
 287      18573082 
 287      2C625CC9 
 288 006b A80E52FB 		.ascii	"\250\016R\373\261\345\357un\266\226\206\206\006\001"
 288      B1E5EF75 
 288      6EB69686 
 288      860601
 289 007a 900AA0C4 		.ascii	"\220\012\240\304*F6F \275^\350@\303\377\377\233\257"
 289      2A463646 
 289      20BD5EE8 
 289      40C3FFFF 
 289      9BAF
 290 008c 4FEBD067 		.ascii	"O\353\320gcfb\000\231\300\360\004\210Any\012\344\000"
 290      63666200 
 290      99C0F004 
ARM GAS  C:\Users\Bruger\AppData\Local\Temp\ccBQwdGg.s 			page 22


 290      88416E79 
 290      0AE400
 291 009f 69E65B8C 		.ascii	"i\346[\214\207\276u\035{m\000\322\363\235\011\344\260"
 291      87BE751D 
 291      7B6D00D2 
 291      F39D09E4 
 291      B0
 292 00b0 197B971E 		.ascii	"\031{\227\036\343\006\271\204y\316\274\306\006\026\220"
 292      E306B984 
 292      79CEBCC6 
 292      061690
 293 00bf 0DF79F9C 		.ascii	"\015\367\237\234\277\310\001\026b\000q?t?\271\311=\227"
 293      BFC80116 
 293      6200713F 
 293      743FB9C9 
 293      3D97
 294 00d1 7176634B 		.ascii	"qvcK\343\001\215\237L,\214\253\201nZ\003r\023\343Z\306"
 294      E3018D9F 
 294      4C2C8CAB 
 294      816E5A03 
 294      7213E35A 
 295 00e6 B98C0CF7 		.ascii	"\271\214\014\367\030\033\033\014\241\0062\200\254d\004"
 295      181B1B0C 
 295      A1063280 
 295      AC6404
 296 00f5 5905641A 		.ascii	"Y\005d\032\270\247\346\245\026%\226\244\246\304\007"
 296      B8A7E6A5 
 296      162596A4 
 296      A6C407
 297 0104 E7971625 		.ascii	"\347\227\026%\247\306\004\004\347;\233\3068\027%\346"
 297      A7C60404 
 297      E73B9BC6 
 297      381725E6 
 298 0114 65871465 		.ascii	"e\207\024e\246\247\247\026\271\224\346\346V\206d\346"
 298      A6A7A716 
 298      B994E6E6 
 298      568664E6 
 299 0124 A616E925 		.ascii	"\246\026\351%3\000\000\264\360p0"
 299      330000B4 
 299      F07030
 300              		.text
 301              		.section	.gnu.lto_CrankTriggerDummyTimer_WritePeriod.24c1407c,"",%progbits
 302 0000 789C6550 		.ascii	"x\234ePM(DQ\024>\337\275cL=\013\311\202\331(\222\235"
 302      4D284451 
 302      143EDFBD 
 302      634C3D0B 
 302      C982D928 
 303 0016 946CD828 		.ascii	"\224l\330(d\253\330Q\022/M\032\243\027\013\013\271\243"
 303      64ABD851 
 303      122F4D1A 
 303      A3170B0B 
 303      B9A3
 304 0028 9122250B 		.ascii	"\221\"%\013\311_\244\311\377_vJ\275$\033E\026\310OH"
 304      C95FA4C9 
 304      FF5F764A 
 304      BD241B45 
 304      16C84F48 
ARM GAS  C:\Users\Bruger\AppData\Local\Temp\ccBQwdGg.s 			page 23


 305 003c A38695F1 		.ascii	"\243\206\225\361\023\263\320s\356\233\225\234\272\235"
 305      13B3D073 
 305      EE9B959C 
 305      BA9D
 306 004a 73BECEF9 		.ascii	"s\276\316\371\276\357\\I\377\303\317\257\017D5\234!"
 306      BEEF5C49 
 306      FFC3CFAF 
 306      0F44359C 
 306      21
 307 005b 0962EC84 		.ascii	"\011b\354\204(\354\023\200.\010\324/\320\217g\221\020"
 307      28EC1380 
 307      2E08D42F 
 307      D08F6791 
 307      10
 308 006c 18B3D726 		.ascii	"\030\263\327&\215\242\250R\352\365\355&w0')\210\336"
 308      8DA2A852 
 308      EAF5ED26 
 308      77302729 
 308      88DE
 309 007e 458A064B 		.ascii	"E\212\006K(\342\021g7q\226.KA\\\037?~\277g\304ER S\267"
 309      28E21167 
 309      3771962E 
 309      4B415C1F 
 309      3F7EBF67 
 310 0098 53974F1F 		.ascii	"S\227O\037R\267B\350\366\374\345f\336W\270\250\324\200"
 310      52B742E8 
 310      F6FCE566 
 310      DE57B8A8 
 310      D480
 311 00aa 1DDF5695 		.ascii	"\035\337V\225\214K,C2\037V\340\307*\374\304\020a\015"
 311      8C4B2C43 
 311      321F56E0 
 311      C72AFCC4 
 311      10610D
 312 00bd 857A3C11 		.ascii	"\205z<\021\335;L\227\345.\361\310\355P~\301\002o>\274"
 312      DD3B4C97 
 312      E52EF1C8 
 312      ED507EC1 
 312      026F3EBC 
 313 00d1 8C0E67A8 		.ascii	"\214\016g\250e\025yp\234<M\260\376\227 \025z;\362si"
 313      65157970 
 313      9C3C4DB0 
 313      FE972015 
 313      7A3BF273 
 314 00e6 7823EC3C 		.ascii	"x#\354<\023\033(H\271\306&\274|8me\331\312qv?&\342\025"
 314      131B2848 
 314      B9C626BC 
 314      7C386D65 
 314      D9CA7176 
 315 00fe 5E0FE02A 		.ascii	"^\017\340*R\214'\364\007<\261[\316\362\002\003\366\371"
 315      528C27F4 
 315      073CB15B 
 315      CEF20203 
 315      F6F9
 316 0110 74B6BBC3 		.ascii	"t\266\273\303\014_\002t\215\203\361\304\347\204\324"
 316      0C5F0274 
 316      8D83F1C4 
ARM GAS  C:\Users\Bruger\AppData\Local\Temp\ccBQwdGg.s 			page 24


 316      E784D4
 317 011f 186B4CEE 		.ascii	"\030kL\356G\217\014}\237gf.\254<Z\366>vz\346s!\327\305"
 317      478F0C7D 
 317      9F67662E 
 317      AC3C5AF6 
 317      3E767AE6 
 318 0137 EB48ECCA 		.ascii	"\353H\354\312\230\305t8\202\244H\303\026\273\334\326"
 318      98C57438 
 318      82A448C3 
 318      16BBDCD6 
 319 0147 2EB18359 		.ascii	".\261\203Yh\306;\204\355\373F\315\247}\307\030ai6RR"
 319      68C63B84 
 319      EDFB46CD 
 319      A77DC718 
 319      61693652 
 320 015c 6B769A56 		.ascii	"kv\232VK\267\331\326\\\037\352\261Z\315\246\272\372"
 320      4BB7D9D6 
 320      5C1FEAB1 
 320      5ACDA6BA 
 320      FA
 321 016d 50555953 		.ascii	"PUYS\225\325\322\331\321`\005\332\333M\253\272'\030"
 321      95D5D2D9 
 321      D16005DA 
 321      DB4DABBA 
 321      2718
 322 017f EC6D0804 		.ascii	"\354m\010\004M\253\270\225\274]\246\025\010\265\031"
 322      4DABB895 
 322      BC5DA615 
 322      08B519
 323 018e A9D4DC6D 		.ascii	"\251\324\334m\006\273~\001\305\030\243i"
 323      06BB7E01 
 323      C518A369 
 324              		.text
 325              		.section	.gnu.lto_CrankTriggerDummyTimer_ReadCapture.24c1407c,"",%progbits
 326 0000 789C6366 		.ascii	"x\234cf\300\004R@\374\003\210\215\200\230\221\231\201"
 326      C0045240 
 326      FC03888D 
 326      80989199 
 326      81
 327 0011 9169C239 		.ascii	"\221i\3029\006\206F\016&FF\020\203\201\221\241\236\211"
 327      0686460E 
 327      26464610 
 327      838191A1 
 327      9E89
 328 0023 B19EF125 		.ascii	"\261\236\361%\323G&\306\323\217~|\346y\301\364\223\211"
 328      D34726C6 
 328      D38F7E7C 
 328      E679C1F4 
 328      9389
 329 0035 418001C8 		.ascii	"A\200\001\310\235u\375\351\027f\020\227\221\011\304"
 329      9D75FDE9 
 329      17661097 
 329      9109C4
 330 0044 DDFDF9DC 		.ascii	"\335\375\371\334#6\365\245\015\015M\037\232>'\316\230"
 330      2336F5A5 
 330      0D0D4D1F 
 330      9A3E27CE 
ARM GAS  C:\Users\Bruger\AppData\Local\Temp\ccBQwdGg.s 			page 25


 330      98
 331 0055 B280F127 		.ascii	"\262\200\361'\023\023\303g&\006\306\345\214R\214+\030"
 331      1313C367 
 331      2606C6E5 
 331      8C528C2B 
 331      18
 332 0066 411631AE 		.ascii	"A\0261\256dT\007\251\375\330\362\367:7[KCC\203\000H"
 332      645407A9 
 332      FDD8F2F7 
 332      3A375B4B 
 332      43438300 
 333 007b 05506215 		.ascii	"\005Pb\025#\033#\220^/t\240\341\377\377\317g\246\277"
 333      231B2390 
 333      5E2F74A0 
 333      E1FFFFCF 
 333      67A6BF
 334 008e 50676766 		.ascii	"Pggfb\000\231\300\360\004\210Any\012\344\000i\346[\214"
 334      620099C0 
 334      F0048841 
 334      6E790AE4 
 334      0069E65B 
 335 00a3 87BE75DD 		.ascii	"\207\276u\335\373i\000\322\363\235\011\344\260\211?"
 335      FB6900D2 
 335      F39D09E4 
 335      B0893F
 336 00b2 4EEC6504 		.ascii	"N\354e\004\271\204y\301\274\306\006\026\220\015\367"
 336      B98479C1 
 336      BCC60616 
 336      900DF7
 337 00c1 9F9CBFC8 		.ascii	"\237\234\277\310\001\026b\000q\337\035\\\335\3167\227"
 337      01166200 
 337      71DF1D5C 
 337      DDCE3797 
 338 00d1 7176634B 		.ascii	"qvcK\343\001\215\237L,\214\253\201nZ\003r\023\343Z\306"
 338      E3018D9F 
 338      4C2C8CAB 
 338      816E5A03 
 338      7213E35A 
 339 00e6 B98C0CF7 		.ascii	"\271\214\014\367\030\033\033\014\241\0062\200\254d\004"
 339      181B1B0C 
 339      A1063280 
 339      AC6404
 340 00f5 5905641A 		.ascii	"Y\005d\032\270\247\346\245\026%\226\244\246\304\007"
 340      B8A7E6A5 
 340      162596A4 
 340      A6C407
 341 0104 E7971625 		.ascii	"\347\227\026%\247\306\004\004\347;\233\3068\027%\346"
 341      A7C60404 
 341      E73B9BC6 
 341      381725E6 
 342 0114 65871465 		.ascii	"e\207\024e\246\247\247\026\271\224\346\346V\206d\346"
 342      A6A7A716 
 342      B994E6E6 
 342      568664E6 
 343 0124 A616E925 		.ascii	"\246\026\351%3\000\000\007\261p\247"
 343      33000007 
 343      B170A7
ARM GAS  C:\Users\Bruger\AppData\Local\Temp\ccBQwdGg.s 			page 26


 344              		.text
 345              		.section	.gnu.lto_CrankTriggerDummyTimer_WriteCounter.24c1407c,"",%progbits
 346 0000 789C654F 		.ascii	"x\234eO=HBQ\030\375\316}\246\206A\322T\356\342\026A"
 346      3D484251 
 346      18FDCE7D 
 346      A68641D2 
 346      54EEE216 
 347 0015 D4D01418 		.ascii	"\324\320\024\030\264\006:\012\"\366\020\011\025\036"
 347      B4063A0A 
 347      22F61009 
 347      151E
 348 0023 3A34F99E 		.ascii	":4\371\236\331\324\342\224Q\350\022\321\217\225\266"
 348      D9D4E294 
 348      51E812D1 
 348      8F95B6
 349 0032 142E216D 		.ascii	"\024.!mQ\030M\017\"\012BI\267\304\240\336\020\366\335"
 349      51184D0F 
 349      220A4249 
 349      B7C4A0DE 
 349      10F6DD
 350 0045 1CBB70F9 		.ascii	"\034\273p\371\276s8\367\234s\025\372\177<|} Z\340\011"
 350      BE7338F7 
 350      9C7315FA 
 350      7F3C7C7D 
 350      205AE009 
 351 0059 85200A4D 		.ascii	"\205 \012M\"\303)\000\271\020(+\220EW\364\004\012\215"
 351      22C32900 
 351      B910282B 
 351      904557F4 
 351      040A8D
 352 006c CA8ECB77 		.ascii	"\312\216\313w\240\353\372G\316\232\332\234\264\004Q"
 352      A0EBFA47 
 352      CE9ADA9C 
 352      B40451
 353 007b 5F0C6D70 		.ascii	"_\014mp\010\037K\232\267\033ie\026\304\353\335\333w"
 353      081F4B9A 
 353      B71B6965 
 353      16C4EBDD 
 353      DB77
 354 008d 7FAC232C 		.ascii	"\177\254#,\001\267\204\273f\373S\221P\010\011\353\346"
 354      01B784BB 
 354      66FB5391 
 354      500809EB 
 354      E6
 355 009e 7579DCBB 		.ascii	"uy\334\273\257\353\271F\267\246/2\257\340\010\012\333"
 355      AFEBB946 
 355      B7A62F32 
 355      AFE0080A 
 355      DB
 356 00af E1181E9C 		.ascii	"\341\030\036\234\300CL\021*\360Jy/\377c\272\354y\216"
 356      C0434C11 
 356      2AF04A79 
 356      2FFF63BA 
 356      EC798E
 357 00c2 760F2371 		.ascii	"v\017#q\012;\267\246\352DC\037\014\372\255bg\336a\343"
 357      0A3BB7A6 
 357      EA44431F 
ARM GAS  C:\Users\Bruger\AppData\Local\Temp\ccBQwdGg.s 			page 27


 357      0CFAAD62 
 357      67DE61E3 
 358 00d6 D2524F2D 		.ascii	"\322RO-V\310\366m\316\342\251<\341f\373\342\275\250"
 358      56C8F66D 
 358      CEE2A93C 
 358      E166FBE2 
 358      BDA8
 359 00e8 C8476CF6 		.ascii	"\310Gl\366\\\335\252;d\025[\271l\3506\351\377\332zx"
 359      5CDDAA3B 
 359      64155BB9 
 359      6CE836E9 
 359      FFDA7A78 
 360 00fc 74FE5124 		.ascii	"t\376Q$\341\345}\315\034-a\317\310\303\022#8\343F\347"
 360      E1E57DCD 
 360      1C2D61CF 
 360      C8C31223 
 360      38E346E7 
 361 0110 DC885045 		.ascii	"\334\210PE\011_\354\372\002\243q\025\226~\362\363-\001"
 361      095FECFA 
 361      02A37115 
 361      967EF2F3 
 361      2D01
 362 0122 99C3A933 		.ascii	"\231\303\2513\313jR\325\"iu5\034He\264\250\032Z\011"
 362      CB6A52D5 
 362      22697535 
 362      1C4865B4 
 362      A81A5A09 
 363 0136 A4FC7321 		.ascii	"\244\374s!\277\026I\256\005\265x,\246jK\231Db=\030O"
 363      BF1649AE 
 363      05B5782C 
 363      A66A4B99 
 363      44623D18 
 364 014b A8DA7494 		.ascii	"\250\332t\224\034\321T&\231V\265_\367i\200#"
 364      1CD15426 
 364      9956B55F 
 364      F7698023 
 365              		.text
 366              		.section	.gnu.lto_CrankTriggerDummyTimer_ReadCounter.24c1407c,"",%progbits
 367 0000 789C6366 		.ascii	"x\234cf\300\004R@\354\310\310\300`\004\244\031\231\031"
 367      C0045240 
 367      ECC8C8C0 
 367      6004A419 
 367      9919
 368 0012 1899269C 		.ascii	"\030\231&\234c`h\344`bd\0041\030\030\031\352\231\030"
 368      636068E4 
 368      60626404 
 368      31181819 
 368      EA9918
 369 0025 EB195F32 		.ascii	"\353\031_2}db<\375\350\307g\236\027L?\231\030\004\030"
 369      7D64623C 
 369      FDE8C767 
 369      9E174C3F 
 369      99180418 
 370 0039 80DC59D7 		.ascii	"\200\334Y\327\237~a\006q\031\231@\334\335\237\317=b"
 370      9F7E6106 
 370      71199940 
 370      DCDD9FCF 
ARM GAS  C:\Users\Bruger\AppData\Local\Temp\ccBQwdGg.s 			page 28


 370      3D62
 371 004b 535FDAD0 		.ascii	"S_\332\320\320\364\341\320\377\304\031S\0260\376dbb"
 371      D0F4E1D0 
 371      FFC41953 
 371      1630FE64 
 371      6262
 372 005d F8CCC4C0 		.ascii	"\370\314\304\300\270\234Q\212q\005#\310\"\306\225\214"
 372      B89C518A 
 372      710523C8 
 372      22C6958C 
 373 006d EA20B51F 		.ascii	"\352 \265\037[\376^\347fkihh\020\000\251\000J\254bd"
 373      5BFE5EE7 
 373      666B6968 
 373      681000A9 
 373      004AAC62 
 374 0082 033A8261 		.ascii	"\003:\202a\275\320\201\206\377\377?\377\233\276B]\202"
 374      BDD08186 
 374      FFFF3FFF 
 374      9BBE425D 
 374      82
 375 0093 8589E127 		.ascii	"\205\211\341'\02333\003\310\030\206'@\014r\320S \007"
 375      13333303 
 375      C8188627 
 375      400C72D0 
 375      532007
 376 00a6 4833DF62 		.ascii	"H3\337b<\364\255\353Z\307b6\220\316\357L \347\335Y\337"
 376      3CF4ADEB 
 376      5AC76236 
 376      90CEEF4C 
 376      20E7DD59 
 377 00bb BD931DE4 		.ascii	"\275\223\035\344\036\226y\363\032\033X@\366\334\177"
 377      1E9679F3 
 377      1A1B5840 
 377      F6DC7F
 378 00ca 72FE2207 		.ascii	"r\376\"\007X\210\001\304\335vf\303u\316\271\214\263"
 378      588801C4 
 378      DD7666C3 
 378      75CEB98C 
 378      B3
 379 00db 1B5B806E 		.ascii	"\033[\200nce\\\015t\327\032\220\273\030\3272\316ed\000"
 379      63655C0D 
 379      74D71A90 
 379      BB18D732 
 379      CE656400 
 380 00ef 1B79AA93 		.ascii	"\033y\252\223\031b\"3P\375\304\037'\3662\202\265/\200"
 380      19622233 
 380      50FDC41F 
 380      27F63282 
 380      B52F80
 381 0102 99F8EEE0 		.ascii	"\231\370\356\340\352v>\260\021\215\0074A\206\254\203"
 381      EA763EB0 
 381      118D0734 
 381      4186AC83 
 382 0112 1BB21E64 		.ascii	"\033\262\036d\310=\306\306\006c\250\011\014 g3\202\234"
 382      C83DC6C6 
 382      0663A809 
 382      0C206733 
ARM GAS  C:\Users\Bruger\AppData\Local\Temp\ccBQwdGg.s 			page 29


 382      829C
 383 0124 0B74BC81 		.ascii	"\013t\274\201{j^jQbIjJ|p~iQrjL@p\276\263i\214sQb^vH"
 383      7B6A5E6A 
 383      5162496A 
 383      4A7C707E 
 383      6951726A 
 384 0145 51667A7A 		.ascii	"Qfzzj\221KinneHfnj\221^2\003\000%A\211\204"
 384      6A914B69 
 384      6E6E6548 
 384      666E6A91 
 384      5E320300 
 385              		.text
 386              		.section	.gnu.lto_.symbol_nodes.24c1407c,"",%progbits
 387 0000 789C55CA 		.ascii	"x\234U\312\313\021@@\024\005\321\353\215a|\243\221_"
 387      CB114040 
 387      1405D1EB 
 387      8D617CA3 
 387      915F
 388 0012 A7200245 		.ascii	"\247 \002E\016\342\020\204\010\204`c\341\366\356Tu\222"
 388      0EE21084 
 388      08846063 
 388      E1F6EE54 
 388      7592
 389 0024 F4E82B2A 		.ascii	"\364\350+*\244\365\222@\333^\024AeN\304\337Y:\002EM"
 389      A4F59240 
 389      DB5E1441 
 389      654EC4DF 
 389      593A0245 
 390 0039 B22D539B 		.ascii	"\262-S\233\033\262\271\2451\027ZsG1\367t\346\201\336"
 390      1BB2B9A5 
 390      31175A73 
 390      4731F774 
 390      E681DE
 391 004c 3C329827 		.ascii	"<2\230'F\363\314\364w\012\351>\027\275\177\332>\230"
 391      46F3CCF4 
 391      770AE93E 
 391      17BD7FDA 
 391      3E98
 392              		.text
 393              		.section	.gnu.lto_.refs.24c1407c,"",%progbits
 394 0000 789C6366 		.ascii	"x\234cf``\340d\200\000&&\006fFFf\026\006\000\001;\000"
 394      6060E064 
 394      80002626 
 394      06664646 
 394      66160600 
 395 0017 1D       		.ascii	"\035"
 396              		.text
 397              		.section	.gnu.lto_.decls.24c1407c,"",%progbits
 398 0000 789C8D55 		.ascii	"x\234\215UkP\023W\024\336\233\033\220\204\010\376R\207"
 398      6B501357 
 398      14DE9B1B 
 398      908408FE 
 398      5287
 399 0012 BE629DA1 		.ascii	"\276b\235\241c\3538\365G\035\377\331\031\332:\266\323"
 399      63EB38F5 
 399      471DFFD9 
 399      19DA3AB6 
ARM GAS  C:\Users\Bruger\AppData\Local\Temp\ccBQwdGg.s 			page 30


 399      D3
 400 0023 0E23D6FE 		.ascii	"\016#\326\376\320\031'\225-\315T\011\263.\323\361\337"
 400      D0192795 
 400      2DCD5409 
 400      B32ED3F1 
 400      DF
 401 0034 567040C4 		.ascii	"Vp@\304\002\326\226\207/T\020P\036\221\"o$<\264`\014"
 401      02D69687 
 401      2F541050 
 401      1E91226F 
 401      243CB460 
 402 0049 2A228251 		.ascii	"*\"\202Q\210\310\313\2424*Zyhz\366\336]\263\241\033"
 402      88C8CBA2 
 402      342A5A79 
 402      687AF6DE 
 402      5DB3A11B 
 403 005d 64674E92 		.ascii	"dgN\222\233\234\357;\3379\367\2737\230a\230t\3140\036"
 403      9B9CEF3B 
 403      DF39F7BB 
 403      37986198 
 403      74CC301E 
 404 0071 788A8318 		.ascii	"x\212\203\030&Q\3030\241\360]$\343}B \212!J!\254\020"
 404      2651C330 
 404      A1F05D24 
 404      E37D4220 
 404      8A214A21 
 405 0087 E5107510 		.ascii	"\345\020u\020\015\0206\210f\210V\210\016\210N\210.\210"
 405      0D103688 
 405      66885688 
 405      0E884E88 
 405      2E88
 406 0099 6E881E08 		.ascii	"n\210\036\010\004\341d|\037\221K/\325X\014\341\202\350"
 406      04E1647C 
 406      1F914B2F 
 406      D5580CE1 
 406      82E8
 407 00ab 93EA1820 		.ascii	"\223\352\030 \354\020C\020\203\020\225\022F+\341:%\356"
 407      EC104310 
 407      83109512 
 407      462BE13A 
 407      25EE
 408 00bd 3AE6FF4F 		.ascii	":\346\377O\251\2247\233\227\221t\224\252`\304~\202\024"
 408      A994379B 
 408      97917494 
 408      AA60C47E 
 408      8214
 409 00cf 9861A9E6 		.ascii	"\230a\251\346\010D\321,\016,\345\313\263P\353\255\374"
 409      0844D12C 
 409      0E2CE5CB 
 409      B350EBAD 
 409      FC
 410 00e0 0D1ACA55 		.ascii	"\015\032\312U4\324)0\225*\030\265^\033\024\030#\304"
 410      34D42930 
 410      952A18B5 
 410      5E1B1418 
 410      23C4
 411 00f2 03885105 		.ascii	"\003\210Q\005\246A\005c\223zP\253aS\311o\236#\277Y%"
ARM GAS  C:\Users\Bruger\AppData\Local\Temp\ccBQwdGg.s 			page 31


 411      A6410563 
 411      937A50AB 
 411      6153C96F 
 411      9E23BF59 
 412 0107 BFF50D7D 		.ascii	"\277\365\015}\264\252`D\317\0040\276{?\273\227\016\025"
 412      B4AA6044 
 412      CF0430BE 
 412      7B3FBB97 
 412      0E15
 413 0119 9CE88340 		.ascii	"\234\350\203@\251\226\232odl\247\012\266k\0365\273T"
 413      A9969A6F 
 413      646CA70A 
 413      B66B1E35 
 413      BB54
 414 012b 70DDF3AC 		.ascii	"p\335\363\254\331\255\202\355\221\260J\234Q\245n\217"
 414      D9AD82ED 
 414      91B04A9C 
 414      51A56E8F 
 415 013b 0AF6B106 		.ascii	"\012\366\261\006\325\224N8\202G5(Do\024\227\265\007"
 415      D5944E38 
 415      82473528 
 415      446F1497 
 415      B507
 416 014d DBB20261 		.ascii	"\333\262\002ai\320k\305e\335\364@\227v\311\357\002<"
 416      69D06BC5 
 416      65DDF440 
 416      9776C9EF 
 416      023C
 417 015f E909C222 		.ascii	"\351\011\302\"-\212\\\214\012P\030*Da\300Z\204\226\300"
 417      2D8A5C8C 
 417      0A50182A 
 417      4461C05A 
 417      8496C0
 418 0172 EB162D65 		.ascii	"\353\026-e:\\x\255P\2075H\374|*\353^\227~\345\031\200"
 418      3A5C78AD 
 418      50873548 
 418      FC7C2AEB 
 418      5E977EE5 
 419 0188 250B3637 		.ascii	"%\01367\366\226\373\367x\232[o<&\270\254nGe\257Ah\023"
 419      F696FBF7 
 419      789A5B6F 
 419      3C26B8AC 
 419      6E4765AF 
 420 019f 6C1ECF3A 		.ascii	"l\036\317:B\205\316 \214\316\242\225D0|\246\312\213"
 420      4285CE20 
 420      8CCEA295 
 420      44307CA6 
 420      CA8B
 421 01b1 91116033 		.ascii	"\221\021`3\355\316\356\205x3\341\276\334\342>\254!\024"
 421      EDCEEE85 
 421      7833E1BE 
 421      DCE23EAC 
 421      2114
 422 01c3 B90FF303 		.ascii	"\271\017\363\003\011A\243\200\010C\211\202\241Df(%\014"
 422      0941A380 
 422      08438982 
 422      A1446628 
ARM GAS  C:\Users\Bruger\AppData\Local\Temp\ccBQwdGg.s 			page 32


 422      250C
 423 01d5 0F4F5417 		.ascii	"\017OT\027\004b\2360\314\264M\025\211\"r\255\271e\005"
 423      04629E30 
 423      CCB44D15 
 423      892272AD 
 423      B96505
 424 01e8 94611DC1 		.ascii	"\224a\035\301\227)\360e2\336J\360\023\245U\023Z\234"
 424      9729F065 
 424      32DE4AF0 
 424      13A55513 
 424      5A9C
 425 01fa 8108C178 		.ascii	"\201\010\301xoj:\242\004\377\370\020\234S\020\234\223"
 425      6F6A3AA2 
 425      04FFF810 
 425      9C53109C 
 425      93
 426 020b 09CA0941 		.ascii	"\011\312\011AwcRR\020.\241\004\277\234\256K]\000c^\254"
 426      77635252 
 426      102EA104 
 426      BF9CAE4B 
 426      5D00635E 
 427 0220 2753F9D5 		.ascii	"'S\371\325\236\323\204\311\322#\376\254\351\355=4\211"
 427      9ED384C9 
 427      D223FEAC 
 427      E9ED3D34 
 427      89
 428 0231 913E3C59 		.ascii	"\221><Y\020\366\010\356\203\002^\312\240\225ahE\030"
 428      10F608EE 
 428      83025ECA 
 428      A0956168 
 428      4518
 429 0243 83AA5038 		.ascii	"\203\252P8\244\221\"\250\002v\342<\354D\036\314\331"
 429      A49122A8 
 429      0276E23C 
 429      EC441ECC 
 429      D9
 430 0254 3DB6F7C2 		.ascii	"=\266\367\302\227\011\302\247\250\022\351\321\237\257"
 430      9709C2A7 
 430      A812E9D1 
 430      9FAF
 431 0262 65900AD2 		.ascii	"e\220\012\322\354\323\3676\245k\265p\015\223\234-d\203"
 431      ECD3F736 
 431      A56BB570 
 431      0D939C2D 
 431      6483
 432 0274 9F79EEE5 		.ascii	"\237y\356\345k\374np\015\331\340j$\355\360o\025\367"
 432      6BFC6E70 
 432      0DD9E06A 
 432      24EDF06F 
 432      15F7
 433 0286 B303F04D 		.ascii	"\263\003\360M\332\302\243\226\264\014\235\264\223}\007"
 433      DAC2A396 
 433      B40C9DB4 
 433      937D07
 434 0295 71B690BB 		.ascii	"q\266\220\273Gx\345\361 \215\210B\265\212A\324\312\203"
 434      4778E5F1 
 434      208D8842 
ARM GAS  C:\Users\Bruger\AppData\Local\Temp\ccBQwdGg.s 			page 33


 434      B58A41D4 
 434      CA83
 435 02a7 A82383E8 		.ascii	"\250#\203\350h\273R\270\020\277\244,\235\311\355\315"
 435      68BB52B8 
 435      10BFA42C 
 435      9DC9EDCD 
 436 02b7 8174927D 		.ascii	"\201t\222}E\312I\326+\010\352e\202\006B\260/\321\212"
 436      45CA49D6 
 436      2B08EA65 
 436      820642B0 
 436      2FD18A
 437 02ca 9592C56E 		.ascii	"\225\222\305n\274\232/\370\230\362\334\361\366T\035"
 437      BC9A2FF8 
 437      98F2DCF1 
 437      F6541D
 438 02d9 CEA3AE2C 		.ascii	"\316\243\256,;Pq*\224\024s\035={\311k>\200\240FE\275"
 438      3B50712A 
 438      9414731D 
 438      3D7BC96B 
 438      3E80A046 
 439 02ef 46B99E8D 		.ascii	"F\271\236\215\324\033\266\336\250\302\270\203r<\255"
 439      D41BB6DE 
 439      A8C2B883 
 439      723CAD
 440 02fe B3BD5C40 		.ascii	"\263\275\\@9\256\214\261\266Da\306\343\301\224\242I"
 440      39AE8CB1 
 440      B64461C6 
 440      E3C194A2 
 440      49
 441 030f 41D12453 		.ascii	"A\321$S4\023\212\244\264\326d\214')E\302\310\243?$\031"
 441      34138AA4 
 441      B4D6648C 
 441      272945C2 
 441      C8A33F24 
 442 0324 D3762F85 		.ascii	"\323v/\2058\266\026\005E\213L\321J(\354\003/\236\032"
 442      38B61605 
 442      458B4CD1 
 442      4A28EC03 
 442      2F9E1A
 443 0337 C8415D24 		.ascii	"\310A]$\222\344\334\032\232\300\344\240j\304\345\321"
 443      92E4DC1A 
 443      9AC0E4A0 
 443      6AC4E5D1 
 444 0347 27E3F53A 		.ascii	"'\343\365:\234\217}\334e\244\356\312\034{Q\021D\226"
 444      9C8F7DDC 
 444      65A4EECA 
 444      1C7B5111 
 444      4496
 445 0359 621DB0D7 		.ascii	"b\035\260\327\364\375\322\202@\024\256\247\276\311\247"
 445      F4FDD282 
 445      4014AEA7 
 445      BEC9A7
 446 0368 BEB1C314 		.ascii	"\276\261\303\024\377\362\372\306(\371\206XPH\020\002"
 446      FFF2FAC6 
 446      28F98658 
 446      50481002 
 447 0378 0A431874 		.ascii	"\012C\030t\021\246|\011\246\214.\203\013\215\222\013"
ARM GAS  C:\Users\Bruger\AppData\Local\Temp\ccBQwdGg.s 			page 34


 447      11A67C09 
 447      A68C2E83 
 447      0B8D920B 
 448 0388 DBE0CB76 		.ascii	"\333\340\313v\370\022*M\356u\364\373l\215\335gk\256"
 448      F8122A4D 
 448      EE75F4FB 
 448      6C8DDD67 
 448      6BAE
 449 039a F86C8DB5 		.ascii	"\370l\215\265\263uD\213\213\251\344\244\301\352/\310"
 449      B375448B 
 449      8BA9E4A4 
 449      C1EA2FC8 
 450 03aa 48DC8EDB 		.ascii	"H\334\216\3339\206\327f\"\030\344PL\305!O\245\203L\245"
 450      3986D766 
 450      2218E450 
 450      4CC5214F 
 450      A5834CA5 
 451 03be 3EEFEFF1 		.ascii	">\357\357\361`\342i\373kO\367\237\177^\245\367\353\351"
 451      60E269FB 
 451      6B4FF79F 
 451      7F5EA5F7 
 451      EBE9
 452 03d0 6B44C455 		.ascii	"kD\304U\331\323\366\3543i\260\271TEvm\316$\365\264\253"
 452      D9D3F6EC 
 452      3369B0B9 
 452      5445766D 
 452      CE24F5B4 
 453 03e5 DF21ED4C 		.ascii	"\337!\355LB\020\301\240\353\012\021\327e\021\235TD\332"
 453      4210C1A0 
 453      EB0A11D7 
 453      65119D54 
 453      44DA
 454 03f7 D85D1D7E 		.ascii	"\330]\035~L9\246\256\275xD\035\355\312JS\230Ll\344\206"
 454      4C39A6AE 
 454      BD78441D 
 454      EDCA4A53 
 454      984C6CE4 
 455 040c 82E386CC 		.ascii	"\202\343\206\314\321E8j\257\357w\206\340CZ\302\361\354"
 455      D145386A 
 455      AFEF7786 
 455      E0435AC2 
 455      F1EC
 456 041e E2ABA554 		.ascii	"\342\253\245TF\333\325Y2n*(n\312\024\335\204\342\310"
 456      46DBD559 
 456      326E2A28 
 456      6ECA14DD 
 456      84E2C8
 457 0431 9DC74E3D 		.ascii	"\235\307N=\256\246\024'\207\247\036\004S\0313\263e\334"
 457      AEA61427 
 457      87A71E04 
 457      531933B3 
 457      65DC
 458 0443 5270DC92 		.ascii	"Rp\334\2229z\010\307XFvn(vR\216WNk\225\370g\000\007"
 458      397A08C7 
 458      5846766E 
 458      2876528E 
 458      574E6B95 
ARM GAS  C:\Users\Bruger\AppData\Local\Temp\ccBQwdGg.s 			page 35


 459 045b 8CDEF027 		.ascii	"\214\336\360'\012N\353\227\237\020rO\272j\307\003\262"
 459      0A4EEB97 
 459      9F10724F 
 459      BA6AC703 
 459      B2
 460 046c 04C1E5F1 		.ascii	"\004\301\345\361\274G\216_/e\224.)F\\\303\353m\321*"
 460      BC478E5F 
 460      2F65942E 
 460      29465CC3 
 460      EB6DD12A 
 461 0480 4EB41CA0 		.ascii	"N\264\034\240B\346\376\274 <Ey\317?O\251Y\250O\026m"
 461      42E6FEBC 
 461      203C4579 
 461      CF3F4FA9 
 461      59A84F16 
 462 0495 F5E6CB0D 		.ascii	"\365\346\313\015\374\332\325\221\322\255\243\327\341"
 462      FCDAD591 
 462      D2ADA3D7 
 462      E1
 463 04a2 6C44BFDF 		.ascii	"lD\277\337\353\360\342\223\257\022\301\326}\240\356"
 463      EBF0E293 
 463      AF12C1D6 
 463      7DA0EE
 464 04b1 8ED7D677 		.ascii	"\216\327\326w\221\367>\3347\220\3430\030RD\203\203O"
 464      91F73EDC 
 464      3790E330 
 464      18524483 
 464      834F
 465 04c3 746D2124 		.ascii	"tm!$\331\353\024\0272\220\311\300\273\370G\331\341\354"
 465      D9EB1417 
 465      3290C9C0 
 465      BBF847D9 
 465      E1EC
 466 04d5 C3D8433B 		.ascii	"\303\330C;p'\037\030\323\322\016\346y64\231%ws\220t"
 466      70271F18 
 466      D3D20EE6 
 466      79363499 
 466      25777390 
 467 04ea E872EDA1 		.ascii	"\350r\355\241\010\015B\261{^e\003\310{\342TX\357\253"
 467      080D42B1 
 467      7B5E6503 
 467      C87BE254 
 467      58EFAB
 468 04fd 9FB8FC8C 		.ascii	"\237\270\374\214K\330\247\205A\237\026\206\244\026\206"
 468      4BD8A785 
 468      419F1686 
 468      A41686
 469 050c 480B99C7 		.ascii	"H\013\231\307\334\323:\237l\337\253sX\312\036&\331}"
 469      DCD33A9F 
 469      6CDFAB73 
 469      58CA1E26 
 469      D97D
 470 051e 59B614AD 		.ascii	"Y\266\024\255O\266x/{\263G\220A\326>B\000\251\243\317"
 470      4FB6782F 
 470      7BB34790 
 470      41D63E42 
 470      00A9A3CF 
ARM GAS  C:\Users\Bruger\AppData\Local\Temp\ccBQwdGg.s 			page 36


 471 0532 4E05CB43 		.ascii	"N\005\313CI\236\227\374\242\346\232#\301>5F}\024=\220"
 471      499E97FC 
 471      A2E69A23 
 471      C13E3546 
 471      7D143D90 
 472 0546 1489EF6F 		.ascii	"\024\211\357oEp\246\330\2376q\346\230\030\226\373,~"
 472      4570A6D8 
 472      9F3671E6 
 472      981896FB 
 472      2C7E
 473 0558 E7CEDD9B 		.ascii	"\347\316\335\233\314;Yn\333\206X3\037\270\376\233o\215"
 473      CC3B596E 
 473      DB865833 
 473      1FB8FE9B 
 473      6F8D
 474 056a 11CCC7EB 		.ascii	"\021\314\307\353\331X\2263\361l\364\266(K<\267\235\335"
 474      D9589633 
 474      F16CF4B6 
 474      284B3CB7 
 474      9DDD
 475 057c 1A196589 		.ascii	"\032\031e\211\370d\253:r\325v\346\035?\234\237\307\232"
 475      F864AB3A 
 475      72D576E6 
 475      1D3F9C9F 
 475      C79A
 476 058e BEDFC1BE 		.ascii	"\276\337\301\276\355\347\327(\336\304\361\376\344D\361"
 476      EDE7D728 
 476      DEC4F1FE 
 476      E444F1
 477 059d 96B88078 		.ascii	"\226\270\200xs,\277v\231\0375\333w\363\273\343\330]"
 477      732CBF76 
 477      991F35DB 
 477      77F3BBE3 
 477      D85D
 478 05af AB7E643E 		.ascii	"\253~d>\360\307\301\362\033by\226\343\342\343\370\257"
 478      F0C7C1F2 
 478      1B627996 
 478      E3E2E3F8 
 478      AF
 479 05c0 2DD16CB8 		.ascii	"-\321l\270\277<\313\017\374\317&\216\2150\305\361\361"
 479      BF3CCB0F 
 479      FCCF268E 
 479      8D30C5F1 
 479      F1
 480 05d1 1CBBC24F 		.ascii	"\034\273\302O\332F\326\024\015\232\371\370]\033\331"
 480      DA46D614 
 480      0D9AF9F8 
 480      5D1BD9
 481 05e0 18F32E20 		.ascii	"\030\363. \376p\216\314\010K,\317Yv\310\251\037\371"
 481      FE708ECC 
 481      084B2CCF 
 481      5976C8A9 
 481      1FF9
 482 05f2 49FD8E33 		.ascii	"I\375\2163\363\354\254\334@\261\357\325k\226\315\301"
 482      F3ECACDC 
 482      40B1EFD5 
 482      6B96CDC1 
ARM GAS  C:\Users\Bruger\AppData\Local\Temp\ccBQwdGg.s 			page 37


 483 0602 1EC97266 		.ascii	"\036\311rfK\364\373s\221\316\235B$\322~\227\317--^\034"
 483      4BF4FB73 
 483      91CE9D42 
 483      24D27E97 
 483      CF2D2D5E 
 484 0617 E19C3434 		.ascii	"\341\23444\345]?)f0\326f\023\247\345\330\230\265\001"
 484      E55D3F29 
 484      6630D666 
 484      13A7E5D8 
 484      98B501
 485 062a F0B27ACD 		.ascii	"\360\262z\315\177Y\014\000\264"
 485      7F590C00 
 485      B4
 486              		.text
 487              		.section	.gnu.lto_.symtab.24c1407c,"",%progbits
 488 0000 4372616E 		.ascii	"CrankTriggerDummyTimer_Init\000\000\000\000\000\000"
 488      6B547269 
 488      67676572 
 488      44756D6D 
 488      7954696D 
 489 0021 00000000 		.ascii	"\000\000\000\000\000\000\254\000\000\000CrankTrigge"
 489      0000AC00 
 489      00004372 
 489      616E6B54 
 489      72696767 
 490 0036 7244756D 		.ascii	"rDummyTimer_Enable\000\000\000\000\000\000\000\000\000"
 490      6D795469 
 490      6D65725F 
 490      456E6162 
 490      6C650000 
 491 0051 000000AE 		.ascii	"\000\000\000\256\000\000\000CrankTriggerDummyTimer_"
 491      00000043 
 491      72616E6B 
 491      54726967 
 491      67657244 
 492 006f 53746172 		.ascii	"Start\000\000\000\000\000\000\000\000\000\000\000\000"
 492      74000000 
 492      00000000 
 492      00000000 
 492      00
 493 0080 B0000000 		.ascii	"\260\000\000\000CrankTriggerDummyTimer_initVar\000\000"
 493      4372616E 
 493      6B547269 
 493      67676572 
 493      44756D6D 
 494 00a4 00000000 		.ascii	"\000\000\000\000\000\000\000\000\000\000\333\000\000"
 494      00000000 
 494      0000DB00 
 494      00
 495 00b1 00437261 		.ascii	"\000CrankTriggerDummyTimer_Stop\000\000\000\000\000"
 495      6E6B5472 
 495      69676765 
 495      7244756D 
 495      6D795469 
 496 00d2 00000000 		.ascii	"\000\000\000\000\000\000\000\262\000\000\000CrankTr"
 496      000000B2 
 496      00000043 
ARM GAS  C:\Users\Bruger\AppData\Local\Temp\ccBQwdGg.s 			page 38


 496      72616E6B 
 496      5472
 497 00e4 69676765 		.ascii	"iggerDummyTimer_SetInterruptMode\000\000\000\000\000"
 497      7244756D 
 497      6D795469 
 497      6D65725F 
 497      53657449 
 498 0109 00000000 		.ascii	"\000\000\000\000\000\000\000\273\000\000\000CrankTr"
 498      000000BB 
 498      00000043 
 498      72616E6B 
 498      5472
 499 011b 69676765 		.ascii	"iggerDummyTimer_SoftwareCapture\000\000\000\000\000"
 499      7244756D 
 499      6D795469 
 499      6D65725F 
 499      536F6674 
 500 013f 00000000 		.ascii	"\000\000\000\000\000\000\000\275\000\000\000CrankTr"
 500      000000BD 
 500      00000043 
 500      72616E6B 
 500      5472
 501 0151 69676765 		.ascii	"iggerDummyTimer_ReadStatusRegister\000\000\000\000\000"
 501      7244756D 
 501      6D795469 
 501      6D65725F 
 501      52656164 
 502 0178 00000000 		.ascii	"\000\000\000\000\000\000\000\300\000\000\000CrankTr"
 502      000000C0 
 502      00000043 
 502      72616E6B 
 502      5472
 503 018a 69676765 		.ascii	"iggerDummyTimer_ReadControlRegister\000\000\000\000"
 503      7244756D 
 503      6D795469 
 503      6D65725F 
 503      52656164 
 504 01b1 00000000 		.ascii	"\000\000\000\000\000\000\000\000\302\000\000\000Cra"
 504      00000000 
 504      C2000000 
 504      437261
 505 01c0 6E6B5472 		.ascii	"nkTriggerDummyTimer_WriteControlRegister\000\000\000"
 505      69676765 
 505      7244756D 
 505      6D795469 
 505      6D65725F 
 506 01eb 00000000 		.ascii	"\000\000\000\000\000\000\000\000\000\304\000\000\000"
 506      00000000 
 506      00C40000 
 506      00
 507 01f8 4372616E 		.ascii	"CrankTriggerDummyTimer_ReadPeriod\000\000\000\000\000"
 507      6B547269 
 507      67676572 
 507      44756D6D 
 507      7954696D 
 508 021e 00000000 		.ascii	"\000\000\000\000\000\000\000\316\000\000\000CrankTr"
 508      000000CE 
ARM GAS  C:\Users\Bruger\AppData\Local\Temp\ccBQwdGg.s 			page 39


 508      00000043 
 508      72616E6B 
 508      5472
 509 0230 69676765 		.ascii	"iggerDummyTimer_WritePeriod\000\000\000\000\000\000"
 509      7244756D 
 509      6D795469 
 509      6D65725F 
 509      57726974 
 510 0251 00000000 		.ascii	"\000\000\000\000\000\000\322\000\000\000CrankTrigge"
 510      0000D200 
 510      00004372 
 510      616E6B54 
 510      72696767 
 511 0266 7244756D 		.ascii	"rDummyTimer_ReadCapture\000\000\000\000\000\000\000"
 511      6D795469 
 511      6D65725F 
 511      52656164 
 511      43617074 
 512 0284 00000000 		.ascii	"\000\000\000\000\000\324\000\000\000CrankTriggerDum"
 512      00D40000 
 512      00437261 
 512      6E6B5472 
 512      69676765 
 513 029c 6D795469 		.ascii	"myTimer_WriteCounter\000\000\000\000\000\000\000\000"
 513      6D65725F 
 513      57726974 
 513      65436F75 
 513      6E746572 
 514 02b8 00000000 		.ascii	"\000\000\000\000\326\000\000\000CrankTriggerDummyTi"
 514      D6000000 
 514      4372616E 
 514      6B547269 
 514      67676572 
 515 02d3 6D65725F 		.ascii	"mer_ReadCounter\000\000\000\000\000\000\000\000\000"
 515      52656164 
 515      436F756E 
 515      74657200 
 515      00000000 
 516 02eb 000000D8 		.ascii	"\000\000\000\330\000\000\000"
 516      000000
 517              		.text
 518              		.section	.gnu.lto_.opts,"",%progbits
 519 0000 272D666E 		.ascii	"'-fno-trapv' '-mcpu=cortex-m3' '-mthumb' '-g' '-O3'"
 519      6F2D7472 
 519      61707627 
 519      20272D6D 
 519      6370753D 
 520 0033 20272D66 		.ascii	" '-ffunction-sections' '-finline-functions' '-flto'"
 520      66756E63 
 520      74696F6E 
 520      2D736563 
 520      74696F6E 
 521 0066 20272D66 		.ascii	" '-ffat-lto-objects'\000"
 521      6661742D 
 521      6C746F2D 
 521      6F626A65 
 521      63747327 
ARM GAS  C:\Users\Bruger\AppData\Local\Temp\ccBQwdGg.s 			page 40


 522              		.text
 523              		.cfi_sections	.debug_frame
 524              		.section	.text.CrankTriggerDummyTimer_Init,"ax",%progbits
 525              		.align	2
 526              		.global	CrankTriggerDummyTimer_Init
 527              		.thumb
 528              		.thumb_func
 529              		.type	CrankTriggerDummyTimer_Init, %function
 530              	CrankTriggerDummyTimer_Init:
 531              	.LFB0:
 532              		.file 1 "Generated_Source\\PSoC5\\CrankTriggerDummyTimer.c"
   1:Generated_Source\PSoC5/CrankTriggerDummyTimer.c **** /*******************************************************************************
   2:Generated_Source\PSoC5/CrankTriggerDummyTimer.c **** * File Name: CrankTriggerDummyTimer.c
   3:Generated_Source\PSoC5/CrankTriggerDummyTimer.c **** * Version 2.70
   4:Generated_Source\PSoC5/CrankTriggerDummyTimer.c **** *
   5:Generated_Source\PSoC5/CrankTriggerDummyTimer.c **** * Description:
   6:Generated_Source\PSoC5/CrankTriggerDummyTimer.c **** *  The Timer component consists of a 8, 16, 24 or 32-bit timer with
   7:Generated_Source\PSoC5/CrankTriggerDummyTimer.c **** *  a selectable period between 2 and 2^Width - 1.  The timer may free run
   8:Generated_Source\PSoC5/CrankTriggerDummyTimer.c **** *  or be used as a capture timer as well.  The capture can be initiated
   9:Generated_Source\PSoC5/CrankTriggerDummyTimer.c **** *  by a positive or negative edge signal as well as via software.
  10:Generated_Source\PSoC5/CrankTriggerDummyTimer.c **** *  A trigger input can be programmed to enable the timer on rising edge
  11:Generated_Source\PSoC5/CrankTriggerDummyTimer.c **** *  falling edge, either edge or continous run.
  12:Generated_Source\PSoC5/CrankTriggerDummyTimer.c **** *  Interrupts may be generated due to a terminal count condition
  13:Generated_Source\PSoC5/CrankTriggerDummyTimer.c **** *  or a capture event.
  14:Generated_Source\PSoC5/CrankTriggerDummyTimer.c **** *
  15:Generated_Source\PSoC5/CrankTriggerDummyTimer.c **** * Note:
  16:Generated_Source\PSoC5/CrankTriggerDummyTimer.c **** *
  17:Generated_Source\PSoC5/CrankTriggerDummyTimer.c **** ********************************************************************************
  18:Generated_Source\PSoC5/CrankTriggerDummyTimer.c **** * Copyright 2008-2014, Cypress Semiconductor Corporation.  All rights reserved.
  19:Generated_Source\PSoC5/CrankTriggerDummyTimer.c **** * You may use this file only in accordance with the license, terms, conditions,
  20:Generated_Source\PSoC5/CrankTriggerDummyTimer.c **** * disclaimers, and limitations in the end user license agreement accompanying
  21:Generated_Source\PSoC5/CrankTriggerDummyTimer.c **** * the software package with which this file was provided.
  22:Generated_Source\PSoC5/CrankTriggerDummyTimer.c **** ********************************************************************************/
  23:Generated_Source\PSoC5/CrankTriggerDummyTimer.c **** 
  24:Generated_Source\PSoC5/CrankTriggerDummyTimer.c **** #include "CrankTriggerDummyTimer.h"
  25:Generated_Source\PSoC5/CrankTriggerDummyTimer.c **** 
  26:Generated_Source\PSoC5/CrankTriggerDummyTimer.c **** uint8 CrankTriggerDummyTimer_initVar = 0u;
  27:Generated_Source\PSoC5/CrankTriggerDummyTimer.c **** 
  28:Generated_Source\PSoC5/CrankTriggerDummyTimer.c **** 
  29:Generated_Source\PSoC5/CrankTriggerDummyTimer.c **** /*******************************************************************************
  30:Generated_Source\PSoC5/CrankTriggerDummyTimer.c **** * Function Name: CrankTriggerDummyTimer_Init
  31:Generated_Source\PSoC5/CrankTriggerDummyTimer.c **** ********************************************************************************
  32:Generated_Source\PSoC5/CrankTriggerDummyTimer.c **** *
  33:Generated_Source\PSoC5/CrankTriggerDummyTimer.c **** * Summary:
  34:Generated_Source\PSoC5/CrankTriggerDummyTimer.c **** *  Initialize to the schematic state
  35:Generated_Source\PSoC5/CrankTriggerDummyTimer.c **** *
  36:Generated_Source\PSoC5/CrankTriggerDummyTimer.c **** * Parameters:
  37:Generated_Source\PSoC5/CrankTriggerDummyTimer.c **** *  void
  38:Generated_Source\PSoC5/CrankTriggerDummyTimer.c **** *
  39:Generated_Source\PSoC5/CrankTriggerDummyTimer.c **** * Return:
  40:Generated_Source\PSoC5/CrankTriggerDummyTimer.c **** *  void
  41:Generated_Source\PSoC5/CrankTriggerDummyTimer.c **** *
  42:Generated_Source\PSoC5/CrankTriggerDummyTimer.c **** *******************************************************************************/
  43:Generated_Source\PSoC5/CrankTriggerDummyTimer.c **** void CrankTriggerDummyTimer_Init(void) 
  44:Generated_Source\PSoC5/CrankTriggerDummyTimer.c **** {
 533              		.loc 1 44 0
 534              		.cfi_startproc
ARM GAS  C:\Users\Bruger\AppData\Local\Temp\ccBQwdGg.s 			page 41


 535              		@ args = 0, pretend = 0, frame = 0
 536              		@ frame_needed = 0, uses_anonymous_args = 0
 537              		@ link register save eliminated.
 538 0000 F0B4     		push	{r4, r5, r6, r7}
 539              		.cfi_def_cfa_offset 16
 540              		.cfi_offset 4, -16
 541              		.cfi_offset 5, -12
 542              		.cfi_offset 6, -8
 543              		.cfi_offset 7, -4
  45:Generated_Source\PSoC5/CrankTriggerDummyTimer.c ****     #if(!CrankTriggerDummyTimer_UsingFixedFunction)
  46:Generated_Source\PSoC5/CrankTriggerDummyTimer.c ****             /* Interrupt State Backup for Critical Region*/
  47:Generated_Source\PSoC5/CrankTriggerDummyTimer.c ****             uint8 CrankTriggerDummyTimer_interruptState;
  48:Generated_Source\PSoC5/CrankTriggerDummyTimer.c ****     #endif /* Interrupt state back up for Fixed Function only */
  49:Generated_Source\PSoC5/CrankTriggerDummyTimer.c **** 
  50:Generated_Source\PSoC5/CrankTriggerDummyTimer.c ****     #if (CrankTriggerDummyTimer_UsingFixedFunction)
  51:Generated_Source\PSoC5/CrankTriggerDummyTimer.c ****         /* Clear all bits but the enable bit (if it's already set) for Timer operation */
  52:Generated_Source\PSoC5/CrankTriggerDummyTimer.c ****         CrankTriggerDummyTimer_CONTROL &= CrankTriggerDummyTimer_CTRL_ENABLE;
 544              		.loc 1 52 0
 545 0002 174A     		ldr	r2, .L3
  53:Generated_Source\PSoC5/CrankTriggerDummyTimer.c **** 
  54:Generated_Source\PSoC5/CrankTriggerDummyTimer.c ****         /* Clear the mode bits for continuous run mode */
  55:Generated_Source\PSoC5/CrankTriggerDummyTimer.c ****         #if (CY_PSOC5A)
  56:Generated_Source\PSoC5/CrankTriggerDummyTimer.c ****             CrankTriggerDummyTimer_CONTROL2 &= ((uint8)(~CrankTriggerDummyTimer_CTRL_MODE_MASK));
  57:Generated_Source\PSoC5/CrankTriggerDummyTimer.c ****         #endif /* Clear bits in CONTROL2 only in PSOC5A */
  58:Generated_Source\PSoC5/CrankTriggerDummyTimer.c **** 
  59:Generated_Source\PSoC5/CrankTriggerDummyTimer.c ****         #if (CY_PSOC3 || CY_PSOC5LP)
  60:Generated_Source\PSoC5/CrankTriggerDummyTimer.c ****             CrankTriggerDummyTimer_CONTROL3 &= ((uint8)(~CrankTriggerDummyTimer_CTRL_MODE_MASK));
 546              		.loc 1 60 0
 547 0004 174C     		ldr	r4, .L3+4
  52:Generated_Source\PSoC5/CrankTriggerDummyTimer.c **** 
 548              		.loc 1 52 0
 549 0006 1178     		ldrb	r1, [r2]	@ zero_extendqisi2
  61:Generated_Source\PSoC5/CrankTriggerDummyTimer.c ****         #endif /* CONTROL3 register exists only in PSoC3 OR PSoC5LP */
  62:Generated_Source\PSoC5/CrankTriggerDummyTimer.c **** 
  63:Generated_Source\PSoC5/CrankTriggerDummyTimer.c ****         /* Check if One Shot mode is enabled i.e. RunMode !=0*/
  64:Generated_Source\PSoC5/CrankTriggerDummyTimer.c ****         #if (CrankTriggerDummyTimer_RunModeUsed != 0x0u)
  65:Generated_Source\PSoC5/CrankTriggerDummyTimer.c ****             /* Set 3rd bit of Control register to enable one shot mode */
  66:Generated_Source\PSoC5/CrankTriggerDummyTimer.c ****             CrankTriggerDummyTimer_CONTROL |= 0x04u;
  67:Generated_Source\PSoC5/CrankTriggerDummyTimer.c ****         #endif /* One Shot enabled only when RunModeUsed is not Continuous*/
  68:Generated_Source\PSoC5/CrankTriggerDummyTimer.c **** 
  69:Generated_Source\PSoC5/CrankTriggerDummyTimer.c ****         #if (CrankTriggerDummyTimer_RunModeUsed == 2)
  70:Generated_Source\PSoC5/CrankTriggerDummyTimer.c ****             #if (CY_PSOC5A)
  71:Generated_Source\PSoC5/CrankTriggerDummyTimer.c ****                 /* Set last 2 bits of control2 register if one shot(halt on
  72:Generated_Source\PSoC5/CrankTriggerDummyTimer.c ****                 interrupt) is enabled*/
  73:Generated_Source\PSoC5/CrankTriggerDummyTimer.c ****                 CrankTriggerDummyTimer_CONTROL2 |= 0x03u;
  74:Generated_Source\PSoC5/CrankTriggerDummyTimer.c ****             #endif /* Set One-Shot Halt on Interrupt bit in CONTROL2 for PSoC5A */
  75:Generated_Source\PSoC5/CrankTriggerDummyTimer.c **** 
  76:Generated_Source\PSoC5/CrankTriggerDummyTimer.c ****             #if (CY_PSOC3 || CY_PSOC5LP)
  77:Generated_Source\PSoC5/CrankTriggerDummyTimer.c ****                 /* Set last 2 bits of control3 register if one shot(halt on
  78:Generated_Source\PSoC5/CrankTriggerDummyTimer.c ****                 interrupt) is enabled*/
  79:Generated_Source\PSoC5/CrankTriggerDummyTimer.c ****                 CrankTriggerDummyTimer_CONTROL3 |= 0x03u;
  80:Generated_Source\PSoC5/CrankTriggerDummyTimer.c ****             #endif /* Set One-Shot Halt on Interrupt bit in CONTROL3 for PSoC3 or PSoC5LP */
  81:Generated_Source\PSoC5/CrankTriggerDummyTimer.c **** 
  82:Generated_Source\PSoC5/CrankTriggerDummyTimer.c ****         #endif /* Remove section if One Shot Halt on Interrupt is not enabled */
  83:Generated_Source\PSoC5/CrankTriggerDummyTimer.c **** 
  84:Generated_Source\PSoC5/CrankTriggerDummyTimer.c ****         #if (CrankTriggerDummyTimer_UsingHWEnable != 0)
  85:Generated_Source\PSoC5/CrankTriggerDummyTimer.c ****             #if (CY_PSOC5A)
ARM GAS  C:\Users\Bruger\AppData\Local\Temp\ccBQwdGg.s 			page 42


  86:Generated_Source\PSoC5/CrankTriggerDummyTimer.c ****                 /* Set the default Run Mode of the Timer to Continuous */
  87:Generated_Source\PSoC5/CrankTriggerDummyTimer.c ****                 CrankTriggerDummyTimer_CONTROL2 |= CrankTriggerDummyTimer_CTRL_MODE_PULSEWIDTH;
  88:Generated_Source\PSoC5/CrankTriggerDummyTimer.c ****             #endif /* Set Continuous Run Mode in CONTROL2 for PSoC5A */
  89:Generated_Source\PSoC5/CrankTriggerDummyTimer.c **** 
  90:Generated_Source\PSoC5/CrankTriggerDummyTimer.c ****             #if (CY_PSOC3 || CY_PSOC5LP)
  91:Generated_Source\PSoC5/CrankTriggerDummyTimer.c ****                 /* Clear and Set ROD and COD bits of CFG2 register */
  92:Generated_Source\PSoC5/CrankTriggerDummyTimer.c ****                 CrankTriggerDummyTimer_CONTROL3 &= ((uint8)(~CrankTriggerDummyTimer_CTRL_RCOD_MASK)
  93:Generated_Source\PSoC5/CrankTriggerDummyTimer.c ****                 CrankTriggerDummyTimer_CONTROL3 |= CrankTriggerDummyTimer_CTRL_RCOD;
  94:Generated_Source\PSoC5/CrankTriggerDummyTimer.c **** 
  95:Generated_Source\PSoC5/CrankTriggerDummyTimer.c ****                 /* Clear and Enable the HW enable bit in CFG2 register */
  96:Generated_Source\PSoC5/CrankTriggerDummyTimer.c ****                 CrankTriggerDummyTimer_CONTROL3 &= ((uint8)(~CrankTriggerDummyTimer_CTRL_ENBL_MASK)
  97:Generated_Source\PSoC5/CrankTriggerDummyTimer.c ****                 CrankTriggerDummyTimer_CONTROL3 |= CrankTriggerDummyTimer_CTRL_ENBL;
  98:Generated_Source\PSoC5/CrankTriggerDummyTimer.c **** 
  99:Generated_Source\PSoC5/CrankTriggerDummyTimer.c ****                 /* Set the default Run Mode of the Timer to Continuous */
 100:Generated_Source\PSoC5/CrankTriggerDummyTimer.c ****                 CrankTriggerDummyTimer_CONTROL3 |= CrankTriggerDummyTimer_CTRL_MODE_CONTINUOUS;
 101:Generated_Source\PSoC5/CrankTriggerDummyTimer.c ****             #endif /* Set Continuous Run Mode in CONTROL3 for PSoC3ES3 or PSoC5A */
 102:Generated_Source\PSoC5/CrankTriggerDummyTimer.c **** 
 103:Generated_Source\PSoC5/CrankTriggerDummyTimer.c ****         #endif /* Configure Run Mode with hardware enable */
 104:Generated_Source\PSoC5/CrankTriggerDummyTimer.c **** 
 105:Generated_Source\PSoC5/CrankTriggerDummyTimer.c ****         /* Clear and Set SYNCTC and SYNCCMP bits of RT1 register */
 106:Generated_Source\PSoC5/CrankTriggerDummyTimer.c ****         CrankTriggerDummyTimer_RT1 &= ((uint8)(~CrankTriggerDummyTimer_RT1_MASK));
 550              		.loc 1 106 0
 551 0008 174B     		ldr	r3, .L3+8
  52:Generated_Source\PSoC5/CrankTriggerDummyTimer.c **** 
 552              		.loc 1 52 0
 553 000a 01F00101 		and	r1, r1, #1
 554 000e 1170     		strb	r1, [r2]
  60:Generated_Source\PSoC5/CrankTriggerDummyTimer.c ****         #endif /* CONTROL3 register exists only in PSoC3 OR PSoC5LP */
 555              		.loc 1 60 0
 556 0010 2078     		ldrb	r0, [r4]	@ zero_extendqisi2
 107:Generated_Source\PSoC5/CrankTriggerDummyTimer.c ****         CrankTriggerDummyTimer_RT1 |= CrankTriggerDummyTimer_SYNC;
 108:Generated_Source\PSoC5/CrankTriggerDummyTimer.c **** 
 109:Generated_Source\PSoC5/CrankTriggerDummyTimer.c ****         /*Enable DSI Sync all all inputs of the Timer*/
 110:Generated_Source\PSoC5/CrankTriggerDummyTimer.c ****         CrankTriggerDummyTimer_RT1 &= ((uint8)(~CrankTriggerDummyTimer_SYNCDSI_MASK));
 111:Generated_Source\PSoC5/CrankTriggerDummyTimer.c ****         CrankTriggerDummyTimer_RT1 |= CrankTriggerDummyTimer_SYNCDSI_EN;
 112:Generated_Source\PSoC5/CrankTriggerDummyTimer.c **** 
 113:Generated_Source\PSoC5/CrankTriggerDummyTimer.c ****         /* Set the IRQ to use the status register interrupts */
 114:Generated_Source\PSoC5/CrankTriggerDummyTimer.c ****         CrankTriggerDummyTimer_CONTROL2 |= CrankTriggerDummyTimer_CTRL2_IRQ_SEL;
 557              		.loc 1 114 0
 558 0012 1649     		ldr	r1, .L3+12
  60:Generated_Source\PSoC5/CrankTriggerDummyTimer.c ****         #endif /* CONTROL3 register exists only in PSoC3 OR PSoC5LP */
 559              		.loc 1 60 0
 560 0014 00F0FC00 		and	r0, r0, #252
 561 0018 2070     		strb	r0, [r4]
  66:Generated_Source\PSoC5/CrankTriggerDummyTimer.c ****         #endif /* One Shot enabled only when RunModeUsed is not Continuous*/
 562              		.loc 1 66 0
 563 001a 1478     		ldrb	r4, [r2]	@ zero_extendqisi2
 564              	.LBB16:
 565              	.LBB17:
 115:Generated_Source\PSoC5/CrankTriggerDummyTimer.c ****     #endif /* Configuring registers of fixed function implementation */
 116:Generated_Source\PSoC5/CrankTriggerDummyTimer.c **** 
 117:Generated_Source\PSoC5/CrankTriggerDummyTimer.c ****     /* Set Initial values from Configuration */
 118:Generated_Source\PSoC5/CrankTriggerDummyTimer.c ****     CrankTriggerDummyTimer_WritePeriod(CrankTriggerDummyTimer_INIT_PERIOD);
 119:Generated_Source\PSoC5/CrankTriggerDummyTimer.c ****     CrankTriggerDummyTimer_WriteCounter(CrankTriggerDummyTimer_INIT_PERIOD);
 120:Generated_Source\PSoC5/CrankTriggerDummyTimer.c **** 
 121:Generated_Source\PSoC5/CrankTriggerDummyTimer.c ****     #if (CrankTriggerDummyTimer_UsingHWCaptureCounter)/* Capture counter is enabled */
 122:Generated_Source\PSoC5/CrankTriggerDummyTimer.c ****         CrankTriggerDummyTimer_CAPTURE_COUNT_CTRL |= CrankTriggerDummyTimer_CNTR_ENABLE;
ARM GAS  C:\Users\Bruger\AppData\Local\Temp\ccBQwdGg.s 			page 43


 123:Generated_Source\PSoC5/CrankTriggerDummyTimer.c ****         CrankTriggerDummyTimer_SetCaptureCount(CrankTriggerDummyTimer_INIT_CAPTURE_COUNT);
 124:Generated_Source\PSoC5/CrankTriggerDummyTimer.c ****     #endif /* Configure capture counter value */
 125:Generated_Source\PSoC5/CrankTriggerDummyTimer.c **** 
 126:Generated_Source\PSoC5/CrankTriggerDummyTimer.c ****     #if (!CrankTriggerDummyTimer_UsingFixedFunction)
 127:Generated_Source\PSoC5/CrankTriggerDummyTimer.c ****         #if (CrankTriggerDummyTimer_SoftwareCaptureMode)
 128:Generated_Source\PSoC5/CrankTriggerDummyTimer.c ****             CrankTriggerDummyTimer_SetCaptureMode(CrankTriggerDummyTimer_INIT_CAPTURE_MODE);
 129:Generated_Source\PSoC5/CrankTriggerDummyTimer.c ****         #endif /* Set Capture Mode for UDB implementation if capture mode is software controlled */
 130:Generated_Source\PSoC5/CrankTriggerDummyTimer.c **** 
 131:Generated_Source\PSoC5/CrankTriggerDummyTimer.c ****         #if (CrankTriggerDummyTimer_SoftwareTriggerMode)
 132:Generated_Source\PSoC5/CrankTriggerDummyTimer.c ****             #if (!CrankTriggerDummyTimer_UDB_CONTROL_REG_REMOVED)
 133:Generated_Source\PSoC5/CrankTriggerDummyTimer.c ****                 if (0u == (CrankTriggerDummyTimer_CONTROL & CrankTriggerDummyTimer__B_TIMER__TM_SOF
 134:Generated_Source\PSoC5/CrankTriggerDummyTimer.c ****                 {
 135:Generated_Source\PSoC5/CrankTriggerDummyTimer.c ****                     CrankTriggerDummyTimer_SetTriggerMode(CrankTriggerDummyTimer_INIT_TRIGGER_MODE)
 136:Generated_Source\PSoC5/CrankTriggerDummyTimer.c ****                 }
 137:Generated_Source\PSoC5/CrankTriggerDummyTimer.c ****             #endif /* (!CrankTriggerDummyTimer_UDB_CONTROL_REG_REMOVED) */
 138:Generated_Source\PSoC5/CrankTriggerDummyTimer.c ****         #endif /* Set trigger mode for UDB Implementation if trigger mode is software controlled */
 139:Generated_Source\PSoC5/CrankTriggerDummyTimer.c **** 
 140:Generated_Source\PSoC5/CrankTriggerDummyTimer.c ****         /* CyEnterCriticalRegion and CyExitCriticalRegion are used to mark following region critica
 141:Generated_Source\PSoC5/CrankTriggerDummyTimer.c ****         /* Enter Critical Region*/
 142:Generated_Source\PSoC5/CrankTriggerDummyTimer.c ****         CrankTriggerDummyTimer_interruptState = CyEnterCriticalSection();
 143:Generated_Source\PSoC5/CrankTriggerDummyTimer.c **** 
 144:Generated_Source\PSoC5/CrankTriggerDummyTimer.c ****         /* Use the interrupt output of the status register for IRQ output */
 145:Generated_Source\PSoC5/CrankTriggerDummyTimer.c ****         CrankTriggerDummyTimer_STATUS_AUX_CTRL |= CrankTriggerDummyTimer_STATUS_ACTL_INT_EN_MASK;
 146:Generated_Source\PSoC5/CrankTriggerDummyTimer.c **** 
 147:Generated_Source\PSoC5/CrankTriggerDummyTimer.c ****         /* Exit Critical Region*/
 148:Generated_Source\PSoC5/CrankTriggerDummyTimer.c ****         CyExitCriticalSection(CrankTriggerDummyTimer_interruptState);
 149:Generated_Source\PSoC5/CrankTriggerDummyTimer.c **** 
 150:Generated_Source\PSoC5/CrankTriggerDummyTimer.c ****         #if (CrankTriggerDummyTimer_EnableTriggerMode)
 151:Generated_Source\PSoC5/CrankTriggerDummyTimer.c ****             CrankTriggerDummyTimer_EnableTrigger();
 152:Generated_Source\PSoC5/CrankTriggerDummyTimer.c ****         #endif /* Set Trigger enable bit for UDB implementation in the control register*/
 153:Generated_Source\PSoC5/CrankTriggerDummyTimer.c **** 		
 154:Generated_Source\PSoC5/CrankTriggerDummyTimer.c **** 		
 155:Generated_Source\PSoC5/CrankTriggerDummyTimer.c ****         #if (CrankTriggerDummyTimer_InterruptOnCaptureCount && !CrankTriggerDummyTimer_UDB_CONTROL_
 156:Generated_Source\PSoC5/CrankTriggerDummyTimer.c ****             CrankTriggerDummyTimer_SetInterruptCount(CrankTriggerDummyTimer_INIT_INT_CAPTURE_COUNT)
 157:Generated_Source\PSoC5/CrankTriggerDummyTimer.c ****         #endif /* Set interrupt count in UDB implementation if interrupt count feature is checked.*
 158:Generated_Source\PSoC5/CrankTriggerDummyTimer.c **** 
 159:Generated_Source\PSoC5/CrankTriggerDummyTimer.c ****         CrankTriggerDummyTimer_ClearFIFO();
 160:Generated_Source\PSoC5/CrankTriggerDummyTimer.c ****     #endif /* Configure additional features of UDB implementation */
 161:Generated_Source\PSoC5/CrankTriggerDummyTimer.c **** 
 162:Generated_Source\PSoC5/CrankTriggerDummyTimer.c ****     CrankTriggerDummyTimer_SetInterruptMode(CrankTriggerDummyTimer_INIT_INTERRUPT_MODE);
 163:Generated_Source\PSoC5/CrankTriggerDummyTimer.c **** }
 164:Generated_Source\PSoC5/CrankTriggerDummyTimer.c **** 
 165:Generated_Source\PSoC5/CrankTriggerDummyTimer.c **** 
 166:Generated_Source\PSoC5/CrankTriggerDummyTimer.c **** /*******************************************************************************
 167:Generated_Source\PSoC5/CrankTriggerDummyTimer.c **** * Function Name: CrankTriggerDummyTimer_Enable
 168:Generated_Source\PSoC5/CrankTriggerDummyTimer.c **** ********************************************************************************
 169:Generated_Source\PSoC5/CrankTriggerDummyTimer.c **** *
 170:Generated_Source\PSoC5/CrankTriggerDummyTimer.c **** * Summary:
 171:Generated_Source\PSoC5/CrankTriggerDummyTimer.c **** *  Enable the Timer
 172:Generated_Source\PSoC5/CrankTriggerDummyTimer.c **** *
 173:Generated_Source\PSoC5/CrankTriggerDummyTimer.c **** * Parameters:
 174:Generated_Source\PSoC5/CrankTriggerDummyTimer.c **** *  void
 175:Generated_Source\PSoC5/CrankTriggerDummyTimer.c **** *
 176:Generated_Source\PSoC5/CrankTriggerDummyTimer.c **** * Return:
 177:Generated_Source\PSoC5/CrankTriggerDummyTimer.c **** *  void
 178:Generated_Source\PSoC5/CrankTriggerDummyTimer.c **** *
 179:Generated_Source\PSoC5/CrankTriggerDummyTimer.c **** *******************************************************************************/
ARM GAS  C:\Users\Bruger\AppData\Local\Temp\ccBQwdGg.s 			page 44


 180:Generated_Source\PSoC5/CrankTriggerDummyTimer.c **** void CrankTriggerDummyTimer_Enable(void) 
 181:Generated_Source\PSoC5/CrankTriggerDummyTimer.c **** {
 182:Generated_Source\PSoC5/CrankTriggerDummyTimer.c ****     /* Globally Enable the Fixed Function Block chosen */
 183:Generated_Source\PSoC5/CrankTriggerDummyTimer.c ****     #if (CrankTriggerDummyTimer_UsingFixedFunction)
 184:Generated_Source\PSoC5/CrankTriggerDummyTimer.c ****         CrankTriggerDummyTimer_GLOBAL_ENABLE |= CrankTriggerDummyTimer_BLOCK_EN_MASK;
 185:Generated_Source\PSoC5/CrankTriggerDummyTimer.c ****         CrankTriggerDummyTimer_GLOBAL_STBY_ENABLE |= CrankTriggerDummyTimer_BLOCK_STBY_EN_MASK;
 186:Generated_Source\PSoC5/CrankTriggerDummyTimer.c ****     #endif /* Set Enable bit for enabling Fixed function timer*/
 187:Generated_Source\PSoC5/CrankTriggerDummyTimer.c **** 
 188:Generated_Source\PSoC5/CrankTriggerDummyTimer.c ****     /* Remove assignment if control register is removed */
 189:Generated_Source\PSoC5/CrankTriggerDummyTimer.c ****     #if (!CrankTriggerDummyTimer_UDB_CONTROL_REG_REMOVED || CrankTriggerDummyTimer_UsingFixedFuncti
 190:Generated_Source\PSoC5/CrankTriggerDummyTimer.c ****         CrankTriggerDummyTimer_CONTROL |= CrankTriggerDummyTimer_CTRL_ENABLE;
 191:Generated_Source\PSoC5/CrankTriggerDummyTimer.c ****     #endif /* Remove assignment if control register is removed */
 192:Generated_Source\PSoC5/CrankTriggerDummyTimer.c **** }
 193:Generated_Source\PSoC5/CrankTriggerDummyTimer.c **** 
 194:Generated_Source\PSoC5/CrankTriggerDummyTimer.c **** 
 195:Generated_Source\PSoC5/CrankTriggerDummyTimer.c **** /*******************************************************************************
 196:Generated_Source\PSoC5/CrankTriggerDummyTimer.c **** * Function Name: CrankTriggerDummyTimer_Start
 197:Generated_Source\PSoC5/CrankTriggerDummyTimer.c **** ********************************************************************************
 198:Generated_Source\PSoC5/CrankTriggerDummyTimer.c **** *
 199:Generated_Source\PSoC5/CrankTriggerDummyTimer.c **** * Summary:
 200:Generated_Source\PSoC5/CrankTriggerDummyTimer.c **** *  The start function initializes the timer with the default values, the
 201:Generated_Source\PSoC5/CrankTriggerDummyTimer.c **** *  enables the timerto begin counting.  It does not enable interrupts,
 202:Generated_Source\PSoC5/CrankTriggerDummyTimer.c **** *  the EnableInt command should be called if interrupt generation is required.
 203:Generated_Source\PSoC5/CrankTriggerDummyTimer.c **** *
 204:Generated_Source\PSoC5/CrankTriggerDummyTimer.c **** * Parameters:
 205:Generated_Source\PSoC5/CrankTriggerDummyTimer.c **** *  void
 206:Generated_Source\PSoC5/CrankTriggerDummyTimer.c **** *
 207:Generated_Source\PSoC5/CrankTriggerDummyTimer.c **** * Return:
 208:Generated_Source\PSoC5/CrankTriggerDummyTimer.c **** *  void
 209:Generated_Source\PSoC5/CrankTriggerDummyTimer.c **** *
 210:Generated_Source\PSoC5/CrankTriggerDummyTimer.c **** * Global variables:
 211:Generated_Source\PSoC5/CrankTriggerDummyTimer.c **** *  CrankTriggerDummyTimer_initVar: Is modified when this function is called for the
 212:Generated_Source\PSoC5/CrankTriggerDummyTimer.c **** *   first time. Is used to ensure that initialization happens only once.
 213:Generated_Source\PSoC5/CrankTriggerDummyTimer.c **** *
 214:Generated_Source\PSoC5/CrankTriggerDummyTimer.c **** *******************************************************************************/
 215:Generated_Source\PSoC5/CrankTriggerDummyTimer.c **** void CrankTriggerDummyTimer_Start(void) 
 216:Generated_Source\PSoC5/CrankTriggerDummyTimer.c **** {
 217:Generated_Source\PSoC5/CrankTriggerDummyTimer.c ****     if(CrankTriggerDummyTimer_initVar == 0u)
 218:Generated_Source\PSoC5/CrankTriggerDummyTimer.c ****     {
 219:Generated_Source\PSoC5/CrankTriggerDummyTimer.c ****         CrankTriggerDummyTimer_Init();
 220:Generated_Source\PSoC5/CrankTriggerDummyTimer.c **** 
 221:Generated_Source\PSoC5/CrankTriggerDummyTimer.c ****         CrankTriggerDummyTimer_initVar = 1u;   /* Clear this bit for Initialization */
 222:Generated_Source\PSoC5/CrankTriggerDummyTimer.c ****     }
 223:Generated_Source\PSoC5/CrankTriggerDummyTimer.c **** 
 224:Generated_Source\PSoC5/CrankTriggerDummyTimer.c ****     /* Enable the Timer */
 225:Generated_Source\PSoC5/CrankTriggerDummyTimer.c ****     CrankTriggerDummyTimer_Enable();
 226:Generated_Source\PSoC5/CrankTriggerDummyTimer.c **** }
 227:Generated_Source\PSoC5/CrankTriggerDummyTimer.c **** 
 228:Generated_Source\PSoC5/CrankTriggerDummyTimer.c **** 
 229:Generated_Source\PSoC5/CrankTriggerDummyTimer.c **** /*******************************************************************************
 230:Generated_Source\PSoC5/CrankTriggerDummyTimer.c **** * Function Name: CrankTriggerDummyTimer_Stop
 231:Generated_Source\PSoC5/CrankTriggerDummyTimer.c **** ********************************************************************************
 232:Generated_Source\PSoC5/CrankTriggerDummyTimer.c **** *
 233:Generated_Source\PSoC5/CrankTriggerDummyTimer.c **** * Summary:
 234:Generated_Source\PSoC5/CrankTriggerDummyTimer.c **** *  The stop function halts the timer, but does not change any modes or disable
 235:Generated_Source\PSoC5/CrankTriggerDummyTimer.c **** *  interrupts.
 236:Generated_Source\PSoC5/CrankTriggerDummyTimer.c **** *
ARM GAS  C:\Users\Bruger\AppData\Local\Temp\ccBQwdGg.s 			page 45


 237:Generated_Source\PSoC5/CrankTriggerDummyTimer.c **** * Parameters:
 238:Generated_Source\PSoC5/CrankTriggerDummyTimer.c **** *  void
 239:Generated_Source\PSoC5/CrankTriggerDummyTimer.c **** *
 240:Generated_Source\PSoC5/CrankTriggerDummyTimer.c **** * Return:
 241:Generated_Source\PSoC5/CrankTriggerDummyTimer.c **** *  void
 242:Generated_Source\PSoC5/CrankTriggerDummyTimer.c **** *
 243:Generated_Source\PSoC5/CrankTriggerDummyTimer.c **** * Side Effects: If the Enable mode is set to Hardware only then this function
 244:Generated_Source\PSoC5/CrankTriggerDummyTimer.c **** *               has no effect on the operation of the timer.
 245:Generated_Source\PSoC5/CrankTriggerDummyTimer.c **** *
 246:Generated_Source\PSoC5/CrankTriggerDummyTimer.c **** *******************************************************************************/
 247:Generated_Source\PSoC5/CrankTriggerDummyTimer.c **** void CrankTriggerDummyTimer_Stop(void) 
 248:Generated_Source\PSoC5/CrankTriggerDummyTimer.c **** {
 249:Generated_Source\PSoC5/CrankTriggerDummyTimer.c ****     /* Disable Timer */
 250:Generated_Source\PSoC5/CrankTriggerDummyTimer.c ****     #if(!CrankTriggerDummyTimer_UDB_CONTROL_REG_REMOVED || CrankTriggerDummyTimer_UsingFixedFunctio
 251:Generated_Source\PSoC5/CrankTriggerDummyTimer.c ****         CrankTriggerDummyTimer_CONTROL &= ((uint8)(~CrankTriggerDummyTimer_CTRL_ENABLE));
 252:Generated_Source\PSoC5/CrankTriggerDummyTimer.c ****     #endif /* Remove assignment if control register is removed */
 253:Generated_Source\PSoC5/CrankTriggerDummyTimer.c **** 
 254:Generated_Source\PSoC5/CrankTriggerDummyTimer.c ****     /* Globally disable the Fixed Function Block chosen */
 255:Generated_Source\PSoC5/CrankTriggerDummyTimer.c ****     #if (CrankTriggerDummyTimer_UsingFixedFunction)
 256:Generated_Source\PSoC5/CrankTriggerDummyTimer.c ****         CrankTriggerDummyTimer_GLOBAL_ENABLE &= ((uint8)(~CrankTriggerDummyTimer_BLOCK_EN_MASK));
 257:Generated_Source\PSoC5/CrankTriggerDummyTimer.c ****         CrankTriggerDummyTimer_GLOBAL_STBY_ENABLE &= ((uint8)(~CrankTriggerDummyTimer_BLOCK_STBY_EN
 258:Generated_Source\PSoC5/CrankTriggerDummyTimer.c ****     #endif /* Disable global enable for the Timer Fixed function block to stop the Timer*/
 259:Generated_Source\PSoC5/CrankTriggerDummyTimer.c **** }
 260:Generated_Source\PSoC5/CrankTriggerDummyTimer.c **** 
 261:Generated_Source\PSoC5/CrankTriggerDummyTimer.c **** 
 262:Generated_Source\PSoC5/CrankTriggerDummyTimer.c **** /*******************************************************************************
 263:Generated_Source\PSoC5/CrankTriggerDummyTimer.c **** * Function Name: CrankTriggerDummyTimer_SetInterruptMode
 264:Generated_Source\PSoC5/CrankTriggerDummyTimer.c **** ********************************************************************************
 265:Generated_Source\PSoC5/CrankTriggerDummyTimer.c **** *
 266:Generated_Source\PSoC5/CrankTriggerDummyTimer.c **** * Summary:
 267:Generated_Source\PSoC5/CrankTriggerDummyTimer.c **** *  This function selects which of the interrupt inputs may cause an interrupt.
 268:Generated_Source\PSoC5/CrankTriggerDummyTimer.c **** *  The twosources are caputure and terminal.  One, both or neither may
 269:Generated_Source\PSoC5/CrankTriggerDummyTimer.c **** *  be selected.
 270:Generated_Source\PSoC5/CrankTriggerDummyTimer.c **** *
 271:Generated_Source\PSoC5/CrankTriggerDummyTimer.c **** * Parameters:
 272:Generated_Source\PSoC5/CrankTriggerDummyTimer.c **** *  interruptMode:   This parameter is used to enable interrups on either/or
 273:Generated_Source\PSoC5/CrankTriggerDummyTimer.c **** *                   terminal count or capture.
 274:Generated_Source\PSoC5/CrankTriggerDummyTimer.c **** *
 275:Generated_Source\PSoC5/CrankTriggerDummyTimer.c **** * Return:
 276:Generated_Source\PSoC5/CrankTriggerDummyTimer.c **** *  void
 277:Generated_Source\PSoC5/CrankTriggerDummyTimer.c **** *
 278:Generated_Source\PSoC5/CrankTriggerDummyTimer.c **** *******************************************************************************/
 279:Generated_Source\PSoC5/CrankTriggerDummyTimer.c **** void CrankTriggerDummyTimer_SetInterruptMode(uint8 interruptMode) 
 280:Generated_Source\PSoC5/CrankTriggerDummyTimer.c **** {
 281:Generated_Source\PSoC5/CrankTriggerDummyTimer.c ****     CrankTriggerDummyTimer_STATUS_MASK = interruptMode;
 566              		.loc 1 281 0
 567 001c 144E     		ldr	r6, .L3+16
 568              	.LBE17:
 569              	.LBE16:
  66:Generated_Source\PSoC5/CrankTriggerDummyTimer.c ****         #endif /* One Shot enabled only when RunModeUsed is not Continuous*/
 570              		.loc 1 66 0
 571 001e 44F00404 		orr	r4, r4, #4
 572 0022 1470     		strb	r4, [r2]
 106:Generated_Source\PSoC5/CrankTriggerDummyTimer.c ****         CrankTriggerDummyTimer_RT1 |= CrankTriggerDummyTimer_SYNC;
 573              		.loc 1 106 0
 574 0024 1A78     		ldrb	r2, [r3]	@ zero_extendqisi2
 575              	.LBB20:
ARM GAS  C:\Users\Bruger\AppData\Local\Temp\ccBQwdGg.s 			page 46


 576              	.LBB21:
 282:Generated_Source\PSoC5/CrankTriggerDummyTimer.c **** }
 283:Generated_Source\PSoC5/CrankTriggerDummyTimer.c **** 
 284:Generated_Source\PSoC5/CrankTriggerDummyTimer.c **** 
 285:Generated_Source\PSoC5/CrankTriggerDummyTimer.c **** /*******************************************************************************
 286:Generated_Source\PSoC5/CrankTriggerDummyTimer.c **** * Function Name: CrankTriggerDummyTimer_SoftwareCapture
 287:Generated_Source\PSoC5/CrankTriggerDummyTimer.c **** ********************************************************************************
 288:Generated_Source\PSoC5/CrankTriggerDummyTimer.c **** *
 289:Generated_Source\PSoC5/CrankTriggerDummyTimer.c **** * Summary:
 290:Generated_Source\PSoC5/CrankTriggerDummyTimer.c **** *  This function forces a capture independent of the capture signal.
 291:Generated_Source\PSoC5/CrankTriggerDummyTimer.c **** *
 292:Generated_Source\PSoC5/CrankTriggerDummyTimer.c **** * Parameters:
 293:Generated_Source\PSoC5/CrankTriggerDummyTimer.c **** *  void
 294:Generated_Source\PSoC5/CrankTriggerDummyTimer.c **** *
 295:Generated_Source\PSoC5/CrankTriggerDummyTimer.c **** * Return:
 296:Generated_Source\PSoC5/CrankTriggerDummyTimer.c **** *  void
 297:Generated_Source\PSoC5/CrankTriggerDummyTimer.c **** *
 298:Generated_Source\PSoC5/CrankTriggerDummyTimer.c **** * Side Effects:
 299:Generated_Source\PSoC5/CrankTriggerDummyTimer.c **** *  An existing hardware capture could be overwritten.
 300:Generated_Source\PSoC5/CrankTriggerDummyTimer.c **** *
 301:Generated_Source\PSoC5/CrankTriggerDummyTimer.c **** *******************************************************************************/
 302:Generated_Source\PSoC5/CrankTriggerDummyTimer.c **** void CrankTriggerDummyTimer_SoftwareCapture(void) 
 303:Generated_Source\PSoC5/CrankTriggerDummyTimer.c **** {
 304:Generated_Source\PSoC5/CrankTriggerDummyTimer.c ****     /* Generate a software capture by reading the counter register */
 305:Generated_Source\PSoC5/CrankTriggerDummyTimer.c ****     #if(CrankTriggerDummyTimer_UsingFixedFunction)
 306:Generated_Source\PSoC5/CrankTriggerDummyTimer.c ****         (void)CY_GET_REG16(CrankTriggerDummyTimer_COUNTER_LSB_PTR);
 307:Generated_Source\PSoC5/CrankTriggerDummyTimer.c ****     #else
 308:Generated_Source\PSoC5/CrankTriggerDummyTimer.c ****         (void)CY_GET_REG8(CrankTriggerDummyTimer_COUNTER_LSB_PTR_8BIT);
 309:Generated_Source\PSoC5/CrankTriggerDummyTimer.c ****     #endif/* (CrankTriggerDummyTimer_UsingFixedFunction) */
 310:Generated_Source\PSoC5/CrankTriggerDummyTimer.c ****     /* Capture Data is now in the FIFO */
 311:Generated_Source\PSoC5/CrankTriggerDummyTimer.c **** }
 312:Generated_Source\PSoC5/CrankTriggerDummyTimer.c **** 
 313:Generated_Source\PSoC5/CrankTriggerDummyTimer.c **** 
 314:Generated_Source\PSoC5/CrankTriggerDummyTimer.c **** /*******************************************************************************
 315:Generated_Source\PSoC5/CrankTriggerDummyTimer.c **** * Function Name: CrankTriggerDummyTimer_ReadStatusRegister
 316:Generated_Source\PSoC5/CrankTriggerDummyTimer.c **** ********************************************************************************
 317:Generated_Source\PSoC5/CrankTriggerDummyTimer.c **** *
 318:Generated_Source\PSoC5/CrankTriggerDummyTimer.c **** * Summary:
 319:Generated_Source\PSoC5/CrankTriggerDummyTimer.c **** *  Reads the status register and returns it's state. This function should use
 320:Generated_Source\PSoC5/CrankTriggerDummyTimer.c **** *  defined types for the bit-field information as the bits in this register may
 321:Generated_Source\PSoC5/CrankTriggerDummyTimer.c **** *  be permuteable.
 322:Generated_Source\PSoC5/CrankTriggerDummyTimer.c **** *
 323:Generated_Source\PSoC5/CrankTriggerDummyTimer.c **** * Parameters:
 324:Generated_Source\PSoC5/CrankTriggerDummyTimer.c **** *  void
 325:Generated_Source\PSoC5/CrankTriggerDummyTimer.c **** *
 326:Generated_Source\PSoC5/CrankTriggerDummyTimer.c **** * Return:
 327:Generated_Source\PSoC5/CrankTriggerDummyTimer.c **** *  The contents of the status register
 328:Generated_Source\PSoC5/CrankTriggerDummyTimer.c **** *
 329:Generated_Source\PSoC5/CrankTriggerDummyTimer.c **** * Side Effects:
 330:Generated_Source\PSoC5/CrankTriggerDummyTimer.c **** *  Status register bits may be clear on read.
 331:Generated_Source\PSoC5/CrankTriggerDummyTimer.c **** *
 332:Generated_Source\PSoC5/CrankTriggerDummyTimer.c **** *******************************************************************************/
 333:Generated_Source\PSoC5/CrankTriggerDummyTimer.c **** uint8   CrankTriggerDummyTimer_ReadStatusRegister(void) 
 334:Generated_Source\PSoC5/CrankTriggerDummyTimer.c **** {
 335:Generated_Source\PSoC5/CrankTriggerDummyTimer.c ****     return (CrankTriggerDummyTimer_STATUS);
 336:Generated_Source\PSoC5/CrankTriggerDummyTimer.c **** }
 337:Generated_Source\PSoC5/CrankTriggerDummyTimer.c **** 
ARM GAS  C:\Users\Bruger\AppData\Local\Temp\ccBQwdGg.s 			page 47


 338:Generated_Source\PSoC5/CrankTriggerDummyTimer.c **** 
 339:Generated_Source\PSoC5/CrankTriggerDummyTimer.c **** #if (!CrankTriggerDummyTimer_UDB_CONTROL_REG_REMOVED) /* Remove API if control register is unused *
 340:Generated_Source\PSoC5/CrankTriggerDummyTimer.c **** 
 341:Generated_Source\PSoC5/CrankTriggerDummyTimer.c **** 
 342:Generated_Source\PSoC5/CrankTriggerDummyTimer.c **** /*******************************************************************************
 343:Generated_Source\PSoC5/CrankTriggerDummyTimer.c **** * Function Name: CrankTriggerDummyTimer_ReadControlRegister
 344:Generated_Source\PSoC5/CrankTriggerDummyTimer.c **** ********************************************************************************
 345:Generated_Source\PSoC5/CrankTriggerDummyTimer.c **** *
 346:Generated_Source\PSoC5/CrankTriggerDummyTimer.c **** * Summary:
 347:Generated_Source\PSoC5/CrankTriggerDummyTimer.c **** *  Reads the control register and returns it's value.
 348:Generated_Source\PSoC5/CrankTriggerDummyTimer.c **** *
 349:Generated_Source\PSoC5/CrankTriggerDummyTimer.c **** * Parameters:
 350:Generated_Source\PSoC5/CrankTriggerDummyTimer.c **** *  void
 351:Generated_Source\PSoC5/CrankTriggerDummyTimer.c **** *
 352:Generated_Source\PSoC5/CrankTriggerDummyTimer.c **** * Return:
 353:Generated_Source\PSoC5/CrankTriggerDummyTimer.c **** *  The contents of the control register
 354:Generated_Source\PSoC5/CrankTriggerDummyTimer.c **** *
 355:Generated_Source\PSoC5/CrankTriggerDummyTimer.c **** *******************************************************************************/
 356:Generated_Source\PSoC5/CrankTriggerDummyTimer.c **** uint8 CrankTriggerDummyTimer_ReadControlRegister(void) 
 357:Generated_Source\PSoC5/CrankTriggerDummyTimer.c **** {
 358:Generated_Source\PSoC5/CrankTriggerDummyTimer.c ****     #if (!CrankTriggerDummyTimer_UDB_CONTROL_REG_REMOVED) 
 359:Generated_Source\PSoC5/CrankTriggerDummyTimer.c ****         return ((uint8)CrankTriggerDummyTimer_CONTROL);
 360:Generated_Source\PSoC5/CrankTriggerDummyTimer.c ****     #else
 361:Generated_Source\PSoC5/CrankTriggerDummyTimer.c ****         return (0);
 362:Generated_Source\PSoC5/CrankTriggerDummyTimer.c ****     #endif /* (!CrankTriggerDummyTimer_UDB_CONTROL_REG_REMOVED) */
 363:Generated_Source\PSoC5/CrankTriggerDummyTimer.c **** }
 364:Generated_Source\PSoC5/CrankTriggerDummyTimer.c **** 
 365:Generated_Source\PSoC5/CrankTriggerDummyTimer.c **** 
 366:Generated_Source\PSoC5/CrankTriggerDummyTimer.c **** /*******************************************************************************
 367:Generated_Source\PSoC5/CrankTriggerDummyTimer.c **** * Function Name: CrankTriggerDummyTimer_WriteControlRegister
 368:Generated_Source\PSoC5/CrankTriggerDummyTimer.c **** ********************************************************************************
 369:Generated_Source\PSoC5/CrankTriggerDummyTimer.c **** *
 370:Generated_Source\PSoC5/CrankTriggerDummyTimer.c **** * Summary:
 371:Generated_Source\PSoC5/CrankTriggerDummyTimer.c **** *  Sets the bit-field of the control register.
 372:Generated_Source\PSoC5/CrankTriggerDummyTimer.c **** *
 373:Generated_Source\PSoC5/CrankTriggerDummyTimer.c **** * Parameters:
 374:Generated_Source\PSoC5/CrankTriggerDummyTimer.c **** *  control: The contents of the control register
 375:Generated_Source\PSoC5/CrankTriggerDummyTimer.c **** *
 376:Generated_Source\PSoC5/CrankTriggerDummyTimer.c **** * Return:
 377:Generated_Source\PSoC5/CrankTriggerDummyTimer.c **** *
 378:Generated_Source\PSoC5/CrankTriggerDummyTimer.c **** *******************************************************************************/
 379:Generated_Source\PSoC5/CrankTriggerDummyTimer.c **** void CrankTriggerDummyTimer_WriteControlRegister(uint8 control) 
 380:Generated_Source\PSoC5/CrankTriggerDummyTimer.c **** {
 381:Generated_Source\PSoC5/CrankTriggerDummyTimer.c ****     #if (!CrankTriggerDummyTimer_UDB_CONTROL_REG_REMOVED) 
 382:Generated_Source\PSoC5/CrankTriggerDummyTimer.c ****         CrankTriggerDummyTimer_CONTROL = control;
 383:Generated_Source\PSoC5/CrankTriggerDummyTimer.c ****     #else
 384:Generated_Source\PSoC5/CrankTriggerDummyTimer.c ****         control = 0u;
 385:Generated_Source\PSoC5/CrankTriggerDummyTimer.c ****     #endif /* (!CrankTriggerDummyTimer_UDB_CONTROL_REG_REMOVED) */
 386:Generated_Source\PSoC5/CrankTriggerDummyTimer.c **** }
 387:Generated_Source\PSoC5/CrankTriggerDummyTimer.c **** 
 388:Generated_Source\PSoC5/CrankTriggerDummyTimer.c **** #endif /* Remove API if control register is unused */
 389:Generated_Source\PSoC5/CrankTriggerDummyTimer.c **** 
 390:Generated_Source\PSoC5/CrankTriggerDummyTimer.c **** 
 391:Generated_Source\PSoC5/CrankTriggerDummyTimer.c **** /*******************************************************************************
 392:Generated_Source\PSoC5/CrankTriggerDummyTimer.c **** * Function Name: CrankTriggerDummyTimer_ReadPeriod
 393:Generated_Source\PSoC5/CrankTriggerDummyTimer.c **** ********************************************************************************
 394:Generated_Source\PSoC5/CrankTriggerDummyTimer.c **** *
ARM GAS  C:\Users\Bruger\AppData\Local\Temp\ccBQwdGg.s 			page 48


 395:Generated_Source\PSoC5/CrankTriggerDummyTimer.c **** * Summary:
 396:Generated_Source\PSoC5/CrankTriggerDummyTimer.c **** *  This function returns the current value of the Period.
 397:Generated_Source\PSoC5/CrankTriggerDummyTimer.c **** *
 398:Generated_Source\PSoC5/CrankTriggerDummyTimer.c **** * Parameters:
 399:Generated_Source\PSoC5/CrankTriggerDummyTimer.c **** *  void
 400:Generated_Source\PSoC5/CrankTriggerDummyTimer.c **** *
 401:Generated_Source\PSoC5/CrankTriggerDummyTimer.c **** * Return:
 402:Generated_Source\PSoC5/CrankTriggerDummyTimer.c **** *  The present value of the counter.
 403:Generated_Source\PSoC5/CrankTriggerDummyTimer.c **** *
 404:Generated_Source\PSoC5/CrankTriggerDummyTimer.c **** *******************************************************************************/
 405:Generated_Source\PSoC5/CrankTriggerDummyTimer.c **** uint16 CrankTriggerDummyTimer_ReadPeriod(void) 
 406:Generated_Source\PSoC5/CrankTriggerDummyTimer.c **** {
 407:Generated_Source\PSoC5/CrankTriggerDummyTimer.c ****    #if(CrankTriggerDummyTimer_UsingFixedFunction)
 408:Generated_Source\PSoC5/CrankTriggerDummyTimer.c ****        return ((uint16)CY_GET_REG16(CrankTriggerDummyTimer_PERIOD_LSB_PTR));
 409:Generated_Source\PSoC5/CrankTriggerDummyTimer.c ****    #else
 410:Generated_Source\PSoC5/CrankTriggerDummyTimer.c ****        return (CY_GET_REG16(CrankTriggerDummyTimer_PERIOD_LSB_PTR));
 411:Generated_Source\PSoC5/CrankTriggerDummyTimer.c ****    #endif /* (CrankTriggerDummyTimer_UsingFixedFunction) */
 412:Generated_Source\PSoC5/CrankTriggerDummyTimer.c **** }
 413:Generated_Source\PSoC5/CrankTriggerDummyTimer.c **** 
 414:Generated_Source\PSoC5/CrankTriggerDummyTimer.c **** 
 415:Generated_Source\PSoC5/CrankTriggerDummyTimer.c **** /*******************************************************************************
 416:Generated_Source\PSoC5/CrankTriggerDummyTimer.c **** * Function Name: CrankTriggerDummyTimer_WritePeriod
 417:Generated_Source\PSoC5/CrankTriggerDummyTimer.c **** ********************************************************************************
 418:Generated_Source\PSoC5/CrankTriggerDummyTimer.c **** *
 419:Generated_Source\PSoC5/CrankTriggerDummyTimer.c **** * Summary:
 420:Generated_Source\PSoC5/CrankTriggerDummyTimer.c **** *  This function is used to change the period of the counter.  The new period
 421:Generated_Source\PSoC5/CrankTriggerDummyTimer.c **** *  will be loaded the next time terminal count is detected.
 422:Generated_Source\PSoC5/CrankTriggerDummyTimer.c **** *
 423:Generated_Source\PSoC5/CrankTriggerDummyTimer.c **** * Parameters:
 424:Generated_Source\PSoC5/CrankTriggerDummyTimer.c **** *  period: This value may be between 1 and (2^Resolution)-1.  A value of 0 will
 425:Generated_Source\PSoC5/CrankTriggerDummyTimer.c **** *          result in the counter remaining at zero.
 426:Generated_Source\PSoC5/CrankTriggerDummyTimer.c **** *
 427:Generated_Source\PSoC5/CrankTriggerDummyTimer.c **** * Return:
 428:Generated_Source\PSoC5/CrankTriggerDummyTimer.c **** *  void
 429:Generated_Source\PSoC5/CrankTriggerDummyTimer.c **** *
 430:Generated_Source\PSoC5/CrankTriggerDummyTimer.c **** *******************************************************************************/
 431:Generated_Source\PSoC5/CrankTriggerDummyTimer.c **** void CrankTriggerDummyTimer_WritePeriod(uint16 period) 
 432:Generated_Source\PSoC5/CrankTriggerDummyTimer.c **** {
 433:Generated_Source\PSoC5/CrankTriggerDummyTimer.c ****     #if(CrankTriggerDummyTimer_UsingFixedFunction)
 434:Generated_Source\PSoC5/CrankTriggerDummyTimer.c ****         uint16 period_temp = (uint16)period;
 435:Generated_Source\PSoC5/CrankTriggerDummyTimer.c ****         CY_SET_REG16(CrankTriggerDummyTimer_PERIOD_LSB_PTR, period_temp);
 436:Generated_Source\PSoC5/CrankTriggerDummyTimer.c ****     #else
 437:Generated_Source\PSoC5/CrankTriggerDummyTimer.c ****         CY_SET_REG16(CrankTriggerDummyTimer_PERIOD_LSB_PTR, period);
 438:Generated_Source\PSoC5/CrankTriggerDummyTimer.c ****     #endif /*Write Period value with appropriate resolution suffix depending on UDB or fixed functi
 439:Generated_Source\PSoC5/CrankTriggerDummyTimer.c **** }
 440:Generated_Source\PSoC5/CrankTriggerDummyTimer.c **** 
 441:Generated_Source\PSoC5/CrankTriggerDummyTimer.c **** 
 442:Generated_Source\PSoC5/CrankTriggerDummyTimer.c **** /*******************************************************************************
 443:Generated_Source\PSoC5/CrankTriggerDummyTimer.c **** * Function Name: CrankTriggerDummyTimer_ReadCapture
 444:Generated_Source\PSoC5/CrankTriggerDummyTimer.c **** ********************************************************************************
 445:Generated_Source\PSoC5/CrankTriggerDummyTimer.c **** *
 446:Generated_Source\PSoC5/CrankTriggerDummyTimer.c **** * Summary:
 447:Generated_Source\PSoC5/CrankTriggerDummyTimer.c **** *  This function returns the last value captured.
 448:Generated_Source\PSoC5/CrankTriggerDummyTimer.c **** *
 449:Generated_Source\PSoC5/CrankTriggerDummyTimer.c **** * Parameters:
 450:Generated_Source\PSoC5/CrankTriggerDummyTimer.c **** *  void
 451:Generated_Source\PSoC5/CrankTriggerDummyTimer.c **** *
ARM GAS  C:\Users\Bruger\AppData\Local\Temp\ccBQwdGg.s 			page 49


 452:Generated_Source\PSoC5/CrankTriggerDummyTimer.c **** * Return:
 453:Generated_Source\PSoC5/CrankTriggerDummyTimer.c **** *  Present Capture value.
 454:Generated_Source\PSoC5/CrankTriggerDummyTimer.c **** *
 455:Generated_Source\PSoC5/CrankTriggerDummyTimer.c **** *******************************************************************************/
 456:Generated_Source\PSoC5/CrankTriggerDummyTimer.c **** uint16 CrankTriggerDummyTimer_ReadCapture(void) 
 457:Generated_Source\PSoC5/CrankTriggerDummyTimer.c **** {
 458:Generated_Source\PSoC5/CrankTriggerDummyTimer.c ****    #if(CrankTriggerDummyTimer_UsingFixedFunction)
 459:Generated_Source\PSoC5/CrankTriggerDummyTimer.c ****        return ((uint16)CY_GET_REG16(CrankTriggerDummyTimer_CAPTURE_LSB_PTR));
 460:Generated_Source\PSoC5/CrankTriggerDummyTimer.c ****    #else
 461:Generated_Source\PSoC5/CrankTriggerDummyTimer.c ****        return (CY_GET_REG16(CrankTriggerDummyTimer_CAPTURE_LSB_PTR));
 462:Generated_Source\PSoC5/CrankTriggerDummyTimer.c ****    #endif /* (CrankTriggerDummyTimer_UsingFixedFunction) */
 463:Generated_Source\PSoC5/CrankTriggerDummyTimer.c **** }
 464:Generated_Source\PSoC5/CrankTriggerDummyTimer.c **** 
 465:Generated_Source\PSoC5/CrankTriggerDummyTimer.c **** 
 466:Generated_Source\PSoC5/CrankTriggerDummyTimer.c **** /*******************************************************************************
 467:Generated_Source\PSoC5/CrankTriggerDummyTimer.c **** * Function Name: CrankTriggerDummyTimer_WriteCounter
 468:Generated_Source\PSoC5/CrankTriggerDummyTimer.c **** ********************************************************************************
 469:Generated_Source\PSoC5/CrankTriggerDummyTimer.c **** *
 470:Generated_Source\PSoC5/CrankTriggerDummyTimer.c **** * Summary:
 471:Generated_Source\PSoC5/CrankTriggerDummyTimer.c **** *  This funtion is used to set the counter to a specific value
 472:Generated_Source\PSoC5/CrankTriggerDummyTimer.c **** *
 473:Generated_Source\PSoC5/CrankTriggerDummyTimer.c **** * Parameters:
 474:Generated_Source\PSoC5/CrankTriggerDummyTimer.c **** *  counter:  New counter value.
 475:Generated_Source\PSoC5/CrankTriggerDummyTimer.c **** *
 476:Generated_Source\PSoC5/CrankTriggerDummyTimer.c **** * Return:
 477:Generated_Source\PSoC5/CrankTriggerDummyTimer.c **** *  void
 478:Generated_Source\PSoC5/CrankTriggerDummyTimer.c **** *
 479:Generated_Source\PSoC5/CrankTriggerDummyTimer.c **** *******************************************************************************/
 480:Generated_Source\PSoC5/CrankTriggerDummyTimer.c **** void CrankTriggerDummyTimer_WriteCounter(uint16 counter) 
 481:Generated_Source\PSoC5/CrankTriggerDummyTimer.c **** {
 482:Generated_Source\PSoC5/CrankTriggerDummyTimer.c ****    #if(CrankTriggerDummyTimer_UsingFixedFunction)
 483:Generated_Source\PSoC5/CrankTriggerDummyTimer.c ****         /* This functionality is removed until a FixedFunction HW update to
 484:Generated_Source\PSoC5/CrankTriggerDummyTimer.c ****          * allow this register to be written
 485:Generated_Source\PSoC5/CrankTriggerDummyTimer.c ****          */
 486:Generated_Source\PSoC5/CrankTriggerDummyTimer.c ****         CY_SET_REG16(CrankTriggerDummyTimer_COUNTER_LSB_PTR, (uint16)counter);
 577              		.loc 1 486 0
 578 0026 134C     		ldr	r4, .L3+20
 579              	.LBE21:
 580              	.LBE20:
 106:Generated_Source\PSoC5/CrankTriggerDummyTimer.c ****         CrankTriggerDummyTimer_RT1 |= CrankTriggerDummyTimer_SYNC;
 581              		.loc 1 106 0
 582 0028 02F0CF02 		and	r2, r2, #207
 583 002c 1A70     		strb	r2, [r3]
 107:Generated_Source\PSoC5/CrankTriggerDummyTimer.c **** 
 584              		.loc 1 107 0
 585 002e 1A78     		ldrb	r2, [r3]	@ zero_extendqisi2
 586              	.LBB23:
 587              	.LBB24:
 435:Generated_Source\PSoC5/CrankTriggerDummyTimer.c ****     #else
 588              		.loc 1 435 0
 589 0030 1148     		ldr	r0, .L3+24
 590              	.LBE24:
 591              	.LBE23:
 107:Generated_Source\PSoC5/CrankTriggerDummyTimer.c **** 
 592              		.loc 1 107 0
 593 0032 42F03002 		orr	r2, r2, #48
 594 0036 1A70     		strb	r2, [r3]
ARM GAS  C:\Users\Bruger\AppData\Local\Temp\ccBQwdGg.s 			page 50


 110:Generated_Source\PSoC5/CrankTriggerDummyTimer.c ****         CrankTriggerDummyTimer_RT1 |= CrankTriggerDummyTimer_SYNCDSI_EN;
 595              		.loc 1 110 0
 596 0038 1A78     		ldrb	r2, [r3]	@ zero_extendqisi2
 597              	.LBB27:
 598              	.LBB25:
 435:Generated_Source\PSoC5/CrankTriggerDummyTimer.c ****     #else
 599              		.loc 1 435 0
 600 003a 0925     		movs	r5, #9
 601              	.LBE25:
 602              	.LBE27:
 110:Generated_Source\PSoC5/CrankTriggerDummyTimer.c ****         CrankTriggerDummyTimer_RT1 |= CrankTriggerDummyTimer_SYNCDSI_EN;
 603              		.loc 1 110 0
 604 003c 02F0F002 		and	r2, r2, #240
 605 0040 1A70     		strb	r2, [r3]
 111:Generated_Source\PSoC5/CrankTriggerDummyTimer.c **** 
 606              		.loc 1 111 0
 607 0042 1A78     		ldrb	r2, [r3]	@ zero_extendqisi2
 608              	.LBB28:
 609              	.LBB18:
 281:Generated_Source\PSoC5/CrankTriggerDummyTimer.c **** }
 610              		.loc 1 281 0
 611 0044 0827     		movs	r7, #8
 612              	.LBE18:
 613              	.LBE28:
 111:Generated_Source\PSoC5/CrankTriggerDummyTimer.c **** 
 614              		.loc 1 111 0
 615 0046 42F00F02 		orr	r2, r2, #15
 616 004a 1A70     		strb	r2, [r3]
 114:Generated_Source\PSoC5/CrankTriggerDummyTimer.c ****     #endif /* Configuring registers of fixed function implementation */
 617              		.loc 1 114 0
 618 004c 0B78     		ldrb	r3, [r1]	@ zero_extendqisi2
 619 004e 43F00103 		orr	r3, r3, #1
 620 0052 0B70     		strb	r3, [r1]
 621              	.LVL0:
 622              	.LBB29:
 623              	.LBB26:
 435:Generated_Source\PSoC5/CrankTriggerDummyTimer.c ****     #else
 624              		.loc 1 435 0
 625 0054 0580     		strh	r5, [r0]	@ movhi
 626              	.LVL1:
 627              	.LBE26:
 628              	.LBE29:
 629              	.LBB30:
 630              	.LBB22:
 631              		.loc 1 486 0
 632 0056 2580     		strh	r5, [r4]	@ movhi
 633              	.LVL2:
 634              	.LBE22:
 635              	.LBE30:
 636              	.LBB31:
 637              	.LBB19:
 281:Generated_Source\PSoC5/CrankTriggerDummyTimer.c **** }
 638              		.loc 1 281 0
 639 0058 3770     		strb	r7, [r6]
 640              	.LBE19:
 641              	.LBE31:
 163:Generated_Source\PSoC5/CrankTriggerDummyTimer.c **** 
ARM GAS  C:\Users\Bruger\AppData\Local\Temp\ccBQwdGg.s 			page 51


 642              		.loc 1 163 0
 643 005a F0BC     		pop	{r4, r5, r6, r7}
 644              		.cfi_restore 7
 645              		.cfi_restore 6
 646              		.cfi_restore 5
 647              		.cfi_restore 4
 648              		.cfi_def_cfa_offset 0
 649 005c 7047     		bx	lr
 650              	.L4:
 651 005e 00BF     		.align	2
 652              	.L3:
 653 0060 184F0040 		.word	1073762072
 654 0064 1A4F0040 		.word	1073762074
 655 0068 234F0040 		.word	1073762083
 656 006c 194F0040 		.word	1073762073
 657 0070 1B4F0040 		.word	1073762075
 658 0074 1E4F0040 		.word	1073762078
 659 0078 1C4F0040 		.word	1073762076
 660              		.cfi_endproc
 661              	.LFE0:
 662              		.size	CrankTriggerDummyTimer_Init, .-CrankTriggerDummyTimer_Init
 663              		.section	.text.CrankTriggerDummyTimer_Enable,"ax",%progbits
 664              		.align	2
 665              		.global	CrankTriggerDummyTimer_Enable
 666              		.thumb
 667              		.thumb_func
 668              		.type	CrankTriggerDummyTimer_Enable, %function
 669              	CrankTriggerDummyTimer_Enable:
 670              	.LFB1:
 181:Generated_Source\PSoC5/CrankTriggerDummyTimer.c ****     /* Globally Enable the Fixed Function Block chosen */
 671              		.loc 1 181 0
 672              		.cfi_startproc
 673              		@ args = 0, pretend = 0, frame = 0
 674              		@ frame_needed = 0, uses_anonymous_args = 0
 675              		@ link register save eliminated.
 184:Generated_Source\PSoC5/CrankTriggerDummyTimer.c ****         CrankTriggerDummyTimer_GLOBAL_STBY_ENABLE |= CrankTriggerDummyTimer_BLOCK_STBY_EN_MASK;
 676              		.loc 1 184 0
 677 0000 0748     		ldr	r0, .L6
 185:Generated_Source\PSoC5/CrankTriggerDummyTimer.c ****     #endif /* Set Enable bit for enabling Fixed function timer*/
 678              		.loc 1 185 0
 679 0002 0849     		ldr	r1, .L6+4
 184:Generated_Source\PSoC5/CrankTriggerDummyTimer.c ****         CrankTriggerDummyTimer_GLOBAL_STBY_ENABLE |= CrankTriggerDummyTimer_BLOCK_STBY_EN_MASK;
 680              		.loc 1 184 0
 681 0004 0378     		ldrb	r3, [r0]	@ zero_extendqisi2
 190:Generated_Source\PSoC5/CrankTriggerDummyTimer.c ****     #endif /* Remove assignment if control register is removed */
 682              		.loc 1 190 0
 683 0006 084A     		ldr	r2, .L6+8
 184:Generated_Source\PSoC5/CrankTriggerDummyTimer.c ****         CrankTriggerDummyTimer_GLOBAL_STBY_ENABLE |= CrankTriggerDummyTimer_BLOCK_STBY_EN_MASK;
 684              		.loc 1 184 0
 685 0008 43F00403 		orr	r3, r3, #4
 686 000c 0370     		strb	r3, [r0]
 185:Generated_Source\PSoC5/CrankTriggerDummyTimer.c ****     #endif /* Set Enable bit for enabling Fixed function timer*/
 687              		.loc 1 185 0
 688 000e 0B78     		ldrb	r3, [r1]	@ zero_extendqisi2
 689 0010 43F00403 		orr	r3, r3, #4
 690 0014 0B70     		strb	r3, [r1]
 190:Generated_Source\PSoC5/CrankTriggerDummyTimer.c ****     #endif /* Remove assignment if control register is removed */
ARM GAS  C:\Users\Bruger\AppData\Local\Temp\ccBQwdGg.s 			page 52


 691              		.loc 1 190 0
 692 0016 1378     		ldrb	r3, [r2]	@ zero_extendqisi2
 693 0018 43F00103 		orr	r3, r3, #1
 694 001c 1370     		strb	r3, [r2]
 695 001e 7047     		bx	lr
 696              	.L7:
 697              		.align	2
 698              	.L6:
 699 0020 A3430040 		.word	1073759139
 700 0024 B3430040 		.word	1073759155
 701 0028 184F0040 		.word	1073762072
 702              		.cfi_endproc
 703              	.LFE1:
 704              		.size	CrankTriggerDummyTimer_Enable, .-CrankTriggerDummyTimer_Enable
 705              		.section	.text.CrankTriggerDummyTimer_Start,"ax",%progbits
 706              		.align	2
 707              		.global	CrankTriggerDummyTimer_Start
 708              		.thumb
 709              		.thumb_func
 710              		.type	CrankTriggerDummyTimer_Start, %function
 711              	CrankTriggerDummyTimer_Start:
 712              	.LFB2:
 216:Generated_Source\PSoC5/CrankTriggerDummyTimer.c ****     if(CrankTriggerDummyTimer_initVar == 0u)
 713              		.loc 1 216 0
 714              		.cfi_startproc
 715              		@ args = 0, pretend = 0, frame = 0
 716              		@ frame_needed = 0, uses_anonymous_args = 0
 717 0000 F0B5     		push	{r4, r5, r6, r7, lr}
 718              		.cfi_def_cfa_offset 20
 719              		.cfi_offset 4, -20
 720              		.cfi_offset 5, -16
 721              		.cfi_offset 6, -12
 722              		.cfi_offset 7, -8
 723              		.cfi_offset 14, -4
 217:Generated_Source\PSoC5/CrankTriggerDummyTimer.c ****     {
 724              		.loc 1 217 0
 725 0002 214A     		ldr	r2, .L12
 726 0004 1378     		ldrb	r3, [r2]	@ zero_extendqisi2
 727 0006 73BB     		cbnz	r3, .L9
 728              	.LBB42:
 729              	.LBB43:
  52:Generated_Source\PSoC5/CrankTriggerDummyTimer.c **** 
 730              		.loc 1 52 0
 731 0008 2049     		ldr	r1, .L12+4
  60:Generated_Source\PSoC5/CrankTriggerDummyTimer.c ****         #endif /* CONTROL3 register exists only in PSoC3 OR PSoC5LP */
 732              		.loc 1 60 0
 733 000a 214D     		ldr	r5, .L12+8
  52:Generated_Source\PSoC5/CrankTriggerDummyTimer.c **** 
 734              		.loc 1 52 0
 735 000c 0878     		ldrb	r0, [r1]	@ zero_extendqisi2
 106:Generated_Source\PSoC5/CrankTriggerDummyTimer.c ****         CrankTriggerDummyTimer_RT1 |= CrankTriggerDummyTimer_SYNC;
 736              		.loc 1 106 0
 737 000e 214B     		ldr	r3, .L12+12
  52:Generated_Source\PSoC5/CrankTriggerDummyTimer.c **** 
 738              		.loc 1 52 0
 739 0010 00F00100 		and	r0, r0, #1
 740 0014 0870     		strb	r0, [r1]
ARM GAS  C:\Users\Bruger\AppData\Local\Temp\ccBQwdGg.s 			page 53


  60:Generated_Source\PSoC5/CrankTriggerDummyTimer.c ****         #endif /* CONTROL3 register exists only in PSoC3 OR PSoC5LP */
 741              		.loc 1 60 0
 742 0016 2C78     		ldrb	r4, [r5]	@ zero_extendqisi2
 114:Generated_Source\PSoC5/CrankTriggerDummyTimer.c ****     #endif /* Configuring registers of fixed function implementation */
 743              		.loc 1 114 0
 744 0018 1F48     		ldr	r0, .L12+16
  60:Generated_Source\PSoC5/CrankTriggerDummyTimer.c ****         #endif /* CONTROL3 register exists only in PSoC3 OR PSoC5LP */
 745              		.loc 1 60 0
 746 001a 04F0FC04 		and	r4, r4, #252
 747 001e 2C70     		strb	r4, [r5]
  66:Generated_Source\PSoC5/CrankTriggerDummyTimer.c ****         #endif /* One Shot enabled only when RunModeUsed is not Continuous*/
 748              		.loc 1 66 0
 749 0020 0D78     		ldrb	r5, [r1]	@ zero_extendqisi2
 750              	.LBB44:
 751              	.LBB45:
 435:Generated_Source\PSoC5/CrankTriggerDummyTimer.c ****     #else
 752              		.loc 1 435 0
 753 0022 1E4C     		ldr	r4, .L12+20
 754              	.LBE45:
 755              	.LBE44:
  66:Generated_Source\PSoC5/CrankTriggerDummyTimer.c ****         #endif /* One Shot enabled only when RunModeUsed is not Continuous*/
 756              		.loc 1 66 0
 757 0024 45F00405 		orr	r5, r5, #4
 758 0028 0D70     		strb	r5, [r1]
 106:Generated_Source\PSoC5/CrankTriggerDummyTimer.c ****         CrankTriggerDummyTimer_RT1 |= CrankTriggerDummyTimer_SYNC;
 759              		.loc 1 106 0
 760 002a 1978     		ldrb	r1, [r3]	@ zero_extendqisi2
 761              	.LBB48:
 762              	.LBB49:
 763              		.loc 1 486 0
 764 002c 1C4D     		ldr	r5, .L12+24
 765              	.LBE49:
 766              	.LBE48:
 106:Generated_Source\PSoC5/CrankTriggerDummyTimer.c ****         CrankTriggerDummyTimer_RT1 |= CrankTriggerDummyTimer_SYNC;
 767              		.loc 1 106 0
 768 002e 01F0CF01 		and	r1, r1, #207
 769 0032 1970     		strb	r1, [r3]
 107:Generated_Source\PSoC5/CrankTriggerDummyTimer.c **** 
 770              		.loc 1 107 0
 771 0034 1978     		ldrb	r1, [r3]	@ zero_extendqisi2
 772              	.LBB51:
 773              	.LBB52:
 281:Generated_Source\PSoC5/CrankTriggerDummyTimer.c **** }
 774              		.loc 1 281 0
 775 0036 1B4E     		ldr	r6, .L12+28
 776              	.LBE52:
 777              	.LBE51:
 107:Generated_Source\PSoC5/CrankTriggerDummyTimer.c **** 
 778              		.loc 1 107 0
 779 0038 41F03001 		orr	r1, r1, #48
 780 003c 1970     		strb	r1, [r3]
 110:Generated_Source\PSoC5/CrankTriggerDummyTimer.c ****         CrankTriggerDummyTimer_RT1 |= CrankTriggerDummyTimer_SYNCDSI_EN;
 781              		.loc 1 110 0
 782 003e 1978     		ldrb	r1, [r3]	@ zero_extendqisi2
 783              	.LBB55:
 784              	.LBB46:
 435:Generated_Source\PSoC5/CrankTriggerDummyTimer.c ****     #else
ARM GAS  C:\Users\Bruger\AppData\Local\Temp\ccBQwdGg.s 			page 54


 785              		.loc 1 435 0
 786 0040 0927     		movs	r7, #9
 787              	.LBE46:
 788              	.LBE55:
 110:Generated_Source\PSoC5/CrankTriggerDummyTimer.c ****         CrankTriggerDummyTimer_RT1 |= CrankTriggerDummyTimer_SYNCDSI_EN;
 789              		.loc 1 110 0
 790 0042 01F0F001 		and	r1, r1, #240
 791 0046 1970     		strb	r1, [r3]
 111:Generated_Source\PSoC5/CrankTriggerDummyTimer.c **** 
 792              		.loc 1 111 0
 793 0048 1978     		ldrb	r1, [r3]	@ zero_extendqisi2
 794              	.LBB56:
 795              	.LBB53:
 281:Generated_Source\PSoC5/CrankTriggerDummyTimer.c **** }
 796              		.loc 1 281 0
 797 004a 4FF0080E 		mov	lr, #8
 798              	.LBE53:
 799              	.LBE56:
 111:Generated_Source\PSoC5/CrankTriggerDummyTimer.c **** 
 800              		.loc 1 111 0
 801 004e 41F00F01 		orr	r1, r1, #15
 802 0052 1970     		strb	r1, [r3]
 114:Generated_Source\PSoC5/CrankTriggerDummyTimer.c ****     #endif /* Configuring registers of fixed function implementation */
 803              		.loc 1 114 0
 804 0054 0378     		ldrb	r3, [r0]	@ zero_extendqisi2
 805              	.LBE43:
 806              	.LBE42:
 221:Generated_Source\PSoC5/CrankTriggerDummyTimer.c ****     }
 807              		.loc 1 221 0
 808 0056 0121     		movs	r1, #1
 809              	.LBB61:
 810              	.LBB60:
 114:Generated_Source\PSoC5/CrankTriggerDummyTimer.c ****     #endif /* Configuring registers of fixed function implementation */
 811              		.loc 1 114 0
 812 0058 0B43     		orrs	r3, r3, r1
 813 005a 0370     		strb	r3, [r0]
 814              	.LVL3:
 815              	.LBB57:
 816              	.LBB47:
 435:Generated_Source\PSoC5/CrankTriggerDummyTimer.c ****     #else
 817              		.loc 1 435 0
 818 005c 2780     		strh	r7, [r4]	@ movhi
 819              	.LVL4:
 820              	.LBE47:
 821              	.LBE57:
 822              	.LBB58:
 823              	.LBB50:
 824              		.loc 1 486 0
 825 005e 2F80     		strh	r7, [r5]	@ movhi
 826              	.LVL5:
 827              	.LBE50:
 828              	.LBE58:
 829              	.LBB59:
 830              	.LBB54:
 281:Generated_Source\PSoC5/CrankTriggerDummyTimer.c **** }
 831              		.loc 1 281 0
 832 0060 86F800E0 		strb	lr, [r6]
ARM GAS  C:\Users\Bruger\AppData\Local\Temp\ccBQwdGg.s 			page 55


 833              	.LBE54:
 834              	.LBE59:
 835              	.LBE60:
 836              	.LBE61:
 221:Generated_Source\PSoC5/CrankTriggerDummyTimer.c ****     }
 837              		.loc 1 221 0
 838 0064 1170     		strb	r1, [r2]
 839              	.LVL6:
 840              	.L9:
 841              	.LBB62:
 842              	.LBB63:
 184:Generated_Source\PSoC5/CrankTriggerDummyTimer.c ****         CrankTriggerDummyTimer_GLOBAL_STBY_ENABLE |= CrankTriggerDummyTimer_BLOCK_STBY_EN_MASK;
 843              		.loc 1 184 0
 844 0066 1048     		ldr	r0, .L12+32
 185:Generated_Source\PSoC5/CrankTriggerDummyTimer.c ****     #endif /* Set Enable bit for enabling Fixed function timer*/
 845              		.loc 1 185 0
 846 0068 1049     		ldr	r1, .L12+36
 184:Generated_Source\PSoC5/CrankTriggerDummyTimer.c ****         CrankTriggerDummyTimer_GLOBAL_STBY_ENABLE |= CrankTriggerDummyTimer_BLOCK_STBY_EN_MASK;
 847              		.loc 1 184 0
 848 006a 0378     		ldrb	r3, [r0]	@ zero_extendqisi2
 190:Generated_Source\PSoC5/CrankTriggerDummyTimer.c ****     #endif /* Remove assignment if control register is removed */
 849              		.loc 1 190 0
 850 006c 074A     		ldr	r2, .L12+4
 184:Generated_Source\PSoC5/CrankTriggerDummyTimer.c ****         CrankTriggerDummyTimer_GLOBAL_STBY_ENABLE |= CrankTriggerDummyTimer_BLOCK_STBY_EN_MASK;
 851              		.loc 1 184 0
 852 006e 43F00403 		orr	r3, r3, #4
 853 0072 0370     		strb	r3, [r0]
 185:Generated_Source\PSoC5/CrankTriggerDummyTimer.c ****     #endif /* Set Enable bit for enabling Fixed function timer*/
 854              		.loc 1 185 0
 855 0074 0B78     		ldrb	r3, [r1]	@ zero_extendqisi2
 856 0076 43F00403 		orr	r3, r3, #4
 857 007a 0B70     		strb	r3, [r1]
 190:Generated_Source\PSoC5/CrankTriggerDummyTimer.c ****     #endif /* Remove assignment if control register is removed */
 858              		.loc 1 190 0
 859 007c 1378     		ldrb	r3, [r2]	@ zero_extendqisi2
 860 007e 43F00103 		orr	r3, r3, #1
 861 0082 1370     		strb	r3, [r2]
 862 0084 F0BD     		pop	{r4, r5, r6, r7, pc}
 863              	.L13:
 864 0086 00BF     		.align	2
 865              	.L12:
 866 0088 00000000 		.word	.LANCHOR0
 867 008c 184F0040 		.word	1073762072
 868 0090 1A4F0040 		.word	1073762074
 869 0094 234F0040 		.word	1073762083
 870 0098 194F0040 		.word	1073762073
 871 009c 1C4F0040 		.word	1073762076
 872 00a0 1E4F0040 		.word	1073762078
 873 00a4 1B4F0040 		.word	1073762075
 874 00a8 A3430040 		.word	1073759139
 875 00ac B3430040 		.word	1073759155
 876              	.LBE63:
 877              	.LBE62:
 878              		.cfi_endproc
 879              	.LFE2:
 880              		.size	CrankTriggerDummyTimer_Start, .-CrankTriggerDummyTimer_Start
 881              		.section	.text.CrankTriggerDummyTimer_Stop,"ax",%progbits
ARM GAS  C:\Users\Bruger\AppData\Local\Temp\ccBQwdGg.s 			page 56


 882              		.align	2
 883              		.global	CrankTriggerDummyTimer_Stop
 884              		.thumb
 885              		.thumb_func
 886              		.type	CrankTriggerDummyTimer_Stop, %function
 887              	CrankTriggerDummyTimer_Stop:
 888              	.LFB3:
 248:Generated_Source\PSoC5/CrankTriggerDummyTimer.c ****     /* Disable Timer */
 889              		.loc 1 248 0
 890              		.cfi_startproc
 891              		@ args = 0, pretend = 0, frame = 0
 892              		@ frame_needed = 0, uses_anonymous_args = 0
 893              		@ link register save eliminated.
 251:Generated_Source\PSoC5/CrankTriggerDummyTimer.c ****     #endif /* Remove assignment if control register is removed */
 894              		.loc 1 251 0
 895 0000 0748     		ldr	r0, .L15
 256:Generated_Source\PSoC5/CrankTriggerDummyTimer.c ****         CrankTriggerDummyTimer_GLOBAL_STBY_ENABLE &= ((uint8)(~CrankTriggerDummyTimer_BLOCK_STBY_EN
 896              		.loc 1 256 0
 897 0002 0849     		ldr	r1, .L15+4
 251:Generated_Source\PSoC5/CrankTriggerDummyTimer.c ****     #endif /* Remove assignment if control register is removed */
 898              		.loc 1 251 0
 899 0004 0378     		ldrb	r3, [r0]	@ zero_extendqisi2
 257:Generated_Source\PSoC5/CrankTriggerDummyTimer.c ****     #endif /* Disable global enable for the Timer Fixed function block to stop the Timer*/
 900              		.loc 1 257 0
 901 0006 084A     		ldr	r2, .L15+8
 251:Generated_Source\PSoC5/CrankTriggerDummyTimer.c ****     #endif /* Remove assignment if control register is removed */
 902              		.loc 1 251 0
 903 0008 03F0FE03 		and	r3, r3, #254
 904 000c 0370     		strb	r3, [r0]
 256:Generated_Source\PSoC5/CrankTriggerDummyTimer.c ****         CrankTriggerDummyTimer_GLOBAL_STBY_ENABLE &= ((uint8)(~CrankTriggerDummyTimer_BLOCK_STBY_EN
 905              		.loc 1 256 0
 906 000e 0B78     		ldrb	r3, [r1]	@ zero_extendqisi2
 907 0010 03F0FB03 		and	r3, r3, #251
 908 0014 0B70     		strb	r3, [r1]
 257:Generated_Source\PSoC5/CrankTriggerDummyTimer.c ****     #endif /* Disable global enable for the Timer Fixed function block to stop the Timer*/
 909              		.loc 1 257 0
 910 0016 1378     		ldrb	r3, [r2]	@ zero_extendqisi2
 911 0018 03F0FB03 		and	r3, r3, #251
 912 001c 1370     		strb	r3, [r2]
 913 001e 7047     		bx	lr
 914              	.L16:
 915              		.align	2
 916              	.L15:
 917 0020 184F0040 		.word	1073762072
 918 0024 A3430040 		.word	1073759139
 919 0028 B3430040 		.word	1073759155
 920              		.cfi_endproc
 921              	.LFE3:
 922              		.size	CrankTriggerDummyTimer_Stop, .-CrankTriggerDummyTimer_Stop
 923              		.section	.text.CrankTriggerDummyTimer_SetInterruptMode,"ax",%progbits
 924              		.align	2
 925              		.global	CrankTriggerDummyTimer_SetInterruptMode
 926              		.thumb
 927              		.thumb_func
 928              		.type	CrankTriggerDummyTimer_SetInterruptMode, %function
 929              	CrankTriggerDummyTimer_SetInterruptMode:
 930              	.LFB4:
ARM GAS  C:\Users\Bruger\AppData\Local\Temp\ccBQwdGg.s 			page 57


 280:Generated_Source\PSoC5/CrankTriggerDummyTimer.c ****     CrankTriggerDummyTimer_STATUS_MASK = interruptMode;
 931              		.loc 1 280 0
 932              		.cfi_startproc
 933              		@ args = 0, pretend = 0, frame = 0
 934              		@ frame_needed = 0, uses_anonymous_args = 0
 935              		@ link register save eliminated.
 936              	.LVL7:
 281:Generated_Source\PSoC5/CrankTriggerDummyTimer.c **** }
 937              		.loc 1 281 0
 938 0000 014B     		ldr	r3, .L18
 939 0002 1870     		strb	r0, [r3]
 940 0004 7047     		bx	lr
 941              	.L19:
 942 0006 00BF     		.align	2
 943              	.L18:
 944 0008 1B4F0040 		.word	1073762075
 945              		.cfi_endproc
 946              	.LFE4:
 947              		.size	CrankTriggerDummyTimer_SetInterruptMode, .-CrankTriggerDummyTimer_SetInterruptMode
 948              		.section	.text.CrankTriggerDummyTimer_SoftwareCapture,"ax",%progbits
 949              		.align	2
 950              		.global	CrankTriggerDummyTimer_SoftwareCapture
 951              		.thumb
 952              		.thumb_func
 953              		.type	CrankTriggerDummyTimer_SoftwareCapture, %function
 954              	CrankTriggerDummyTimer_SoftwareCapture:
 955              	.LFB5:
 303:Generated_Source\PSoC5/CrankTriggerDummyTimer.c ****     /* Generate a software capture by reading the counter register */
 956              		.loc 1 303 0
 957              		.cfi_startproc
 958              		@ args = 0, pretend = 0, frame = 0
 959              		@ frame_needed = 0, uses_anonymous_args = 0
 960              		@ link register save eliminated.
 306:Generated_Source\PSoC5/CrankTriggerDummyTimer.c ****     #else
 961              		.loc 1 306 0
 962 0000 014B     		ldr	r3, .L21
 963 0002 1B88     		ldrh	r3, [r3]
 964 0004 7047     		bx	lr
 965              	.L22:
 966 0006 00BF     		.align	2
 967              	.L21:
 968 0008 1E4F0040 		.word	1073762078
 969              		.cfi_endproc
 970              	.LFE5:
 971              		.size	CrankTriggerDummyTimer_SoftwareCapture, .-CrankTriggerDummyTimer_SoftwareCapture
 972              		.section	.text.CrankTriggerDummyTimer_ReadStatusRegister,"ax",%progbits
 973              		.align	2
 974              		.global	CrankTriggerDummyTimer_ReadStatusRegister
 975              		.thumb
 976              		.thumb_func
 977              		.type	CrankTriggerDummyTimer_ReadStatusRegister, %function
 978              	CrankTriggerDummyTimer_ReadStatusRegister:
 979              	.LFB6:
 334:Generated_Source\PSoC5/CrankTriggerDummyTimer.c ****     return (CrankTriggerDummyTimer_STATUS);
 980              		.loc 1 334 0
 981              		.cfi_startproc
 982              		@ args = 0, pretend = 0, frame = 0
ARM GAS  C:\Users\Bruger\AppData\Local\Temp\ccBQwdGg.s 			page 58


 983              		@ frame_needed = 0, uses_anonymous_args = 0
 984              		@ link register save eliminated.
 335:Generated_Source\PSoC5/CrankTriggerDummyTimer.c **** }
 985              		.loc 1 335 0
 986 0000 014B     		ldr	r3, .L24
 987 0002 1878     		ldrb	r0, [r3]	@ zero_extendqisi2
 336:Generated_Source\PSoC5/CrankTriggerDummyTimer.c **** 
 988              		.loc 1 336 0
 989 0004 7047     		bx	lr
 990              	.L25:
 991 0006 00BF     		.align	2
 992              	.L24:
 993 0008 1B4F0040 		.word	1073762075
 994              		.cfi_endproc
 995              	.LFE6:
 996              		.size	CrankTriggerDummyTimer_ReadStatusRegister, .-CrankTriggerDummyTimer_ReadStatusRegister
 997              		.section	.text.CrankTriggerDummyTimer_ReadControlRegister,"ax",%progbits
 998              		.align	2
 999              		.global	CrankTriggerDummyTimer_ReadControlRegister
 1000              		.thumb
 1001              		.thumb_func
 1002              		.type	CrankTriggerDummyTimer_ReadControlRegister, %function
 1003              	CrankTriggerDummyTimer_ReadControlRegister:
 1004              	.LFB7:
 357:Generated_Source\PSoC5/CrankTriggerDummyTimer.c ****     #if (!CrankTriggerDummyTimer_UDB_CONTROL_REG_REMOVED) 
 1005              		.loc 1 357 0
 1006              		.cfi_startproc
 1007              		@ args = 0, pretend = 0, frame = 0
 1008              		@ frame_needed = 0, uses_anonymous_args = 0
 1009              		@ link register save eliminated.
 359:Generated_Source\PSoC5/CrankTriggerDummyTimer.c ****     #else
 1010              		.loc 1 359 0
 1011 0000 014B     		ldr	r3, .L27
 1012 0002 1878     		ldrb	r0, [r3]	@ zero_extendqisi2
 363:Generated_Source\PSoC5/CrankTriggerDummyTimer.c **** 
 1013              		.loc 1 363 0
 1014 0004 7047     		bx	lr
 1015              	.L28:
 1016 0006 00BF     		.align	2
 1017              	.L27:
 1018 0008 184F0040 		.word	1073762072
 1019              		.cfi_endproc
 1020              	.LFE7:
 1021              		.size	CrankTriggerDummyTimer_ReadControlRegister, .-CrankTriggerDummyTimer_ReadControlRegister
 1022              		.section	.text.CrankTriggerDummyTimer_WriteControlRegister,"ax",%progbits
 1023              		.align	2
 1024              		.global	CrankTriggerDummyTimer_WriteControlRegister
 1025              		.thumb
 1026              		.thumb_func
 1027              		.type	CrankTriggerDummyTimer_WriteControlRegister, %function
 1028              	CrankTriggerDummyTimer_WriteControlRegister:
 1029              	.LFB8:
 380:Generated_Source\PSoC5/CrankTriggerDummyTimer.c ****     #if (!CrankTriggerDummyTimer_UDB_CONTROL_REG_REMOVED) 
 1030              		.loc 1 380 0
 1031              		.cfi_startproc
 1032              		@ args = 0, pretend = 0, frame = 0
 1033              		@ frame_needed = 0, uses_anonymous_args = 0
ARM GAS  C:\Users\Bruger\AppData\Local\Temp\ccBQwdGg.s 			page 59


 1034              		@ link register save eliminated.
 1035              	.LVL8:
 382:Generated_Source\PSoC5/CrankTriggerDummyTimer.c ****     #else
 1036              		.loc 1 382 0
 1037 0000 014B     		ldr	r3, .L30
 1038 0002 1870     		strb	r0, [r3]
 1039 0004 7047     		bx	lr
 1040              	.L31:
 1041 0006 00BF     		.align	2
 1042              	.L30:
 1043 0008 184F0040 		.word	1073762072
 1044              		.cfi_endproc
 1045              	.LFE8:
 1046              		.size	CrankTriggerDummyTimer_WriteControlRegister, .-CrankTriggerDummyTimer_WriteControlRegister
 1047              		.section	.text.CrankTriggerDummyTimer_ReadPeriod,"ax",%progbits
 1048              		.align	2
 1049              		.global	CrankTriggerDummyTimer_ReadPeriod
 1050              		.thumb
 1051              		.thumb_func
 1052              		.type	CrankTriggerDummyTimer_ReadPeriod, %function
 1053              	CrankTriggerDummyTimer_ReadPeriod:
 1054              	.LFB9:
 406:Generated_Source\PSoC5/CrankTriggerDummyTimer.c ****    #if(CrankTriggerDummyTimer_UsingFixedFunction)
 1055              		.loc 1 406 0
 1056              		.cfi_startproc
 1057              		@ args = 0, pretend = 0, frame = 0
 1058              		@ frame_needed = 0, uses_anonymous_args = 0
 1059              		@ link register save eliminated.
 408:Generated_Source\PSoC5/CrankTriggerDummyTimer.c ****    #else
 1060              		.loc 1 408 0
 1061 0000 014B     		ldr	r3, .L33
 1062 0002 1888     		ldrh	r0, [r3]
 412:Generated_Source\PSoC5/CrankTriggerDummyTimer.c **** 
 1063              		.loc 1 412 0
 1064 0004 80B2     		uxth	r0, r0
 1065 0006 7047     		bx	lr
 1066              	.L34:
 1067              		.align	2
 1068              	.L33:
 1069 0008 1C4F0040 		.word	1073762076
 1070              		.cfi_endproc
 1071              	.LFE9:
 1072              		.size	CrankTriggerDummyTimer_ReadPeriod, .-CrankTriggerDummyTimer_ReadPeriod
 1073              		.section	.text.CrankTriggerDummyTimer_WritePeriod,"ax",%progbits
 1074              		.align	2
 1075              		.global	CrankTriggerDummyTimer_WritePeriod
 1076              		.thumb
 1077              		.thumb_func
 1078              		.type	CrankTriggerDummyTimer_WritePeriod, %function
 1079              	CrankTriggerDummyTimer_WritePeriod:
 1080              	.LFB10:
 432:Generated_Source\PSoC5/CrankTriggerDummyTimer.c ****     #if(CrankTriggerDummyTimer_UsingFixedFunction)
 1081              		.loc 1 432 0
 1082              		.cfi_startproc
 1083              		@ args = 0, pretend = 0, frame = 0
 1084              		@ frame_needed = 0, uses_anonymous_args = 0
 1085              		@ link register save eliminated.
ARM GAS  C:\Users\Bruger\AppData\Local\Temp\ccBQwdGg.s 			page 60


 1086              	.LVL9:
 435:Generated_Source\PSoC5/CrankTriggerDummyTimer.c ****     #else
 1087              		.loc 1 435 0
 1088 0000 014B     		ldr	r3, .L36
 1089 0002 1880     		strh	r0, [r3]	@ movhi
 1090 0004 7047     		bx	lr
 1091              	.L37:
 1092 0006 00BF     		.align	2
 1093              	.L36:
 1094 0008 1C4F0040 		.word	1073762076
 1095              		.cfi_endproc
 1096              	.LFE10:
 1097              		.size	CrankTriggerDummyTimer_WritePeriod, .-CrankTriggerDummyTimer_WritePeriod
 1098              		.section	.text.CrankTriggerDummyTimer_ReadCapture,"ax",%progbits
 1099              		.align	2
 1100              		.global	CrankTriggerDummyTimer_ReadCapture
 1101              		.thumb
 1102              		.thumb_func
 1103              		.type	CrankTriggerDummyTimer_ReadCapture, %function
 1104              	CrankTriggerDummyTimer_ReadCapture:
 1105              	.LFB11:
 457:Generated_Source\PSoC5/CrankTriggerDummyTimer.c ****    #if(CrankTriggerDummyTimer_UsingFixedFunction)
 1106              		.loc 1 457 0
 1107              		.cfi_startproc
 1108              		@ args = 0, pretend = 0, frame = 0
 1109              		@ frame_needed = 0, uses_anonymous_args = 0
 1110              		@ link register save eliminated.
 459:Generated_Source\PSoC5/CrankTriggerDummyTimer.c ****    #else
 1111              		.loc 1 459 0
 1112 0000 014B     		ldr	r3, .L39
 1113 0002 1888     		ldrh	r0, [r3]
 463:Generated_Source\PSoC5/CrankTriggerDummyTimer.c **** 
 1114              		.loc 1 463 0
 1115 0004 80B2     		uxth	r0, r0
 1116 0006 7047     		bx	lr
 1117              	.L40:
 1118              		.align	2
 1119              	.L39:
 1120 0008 204F0040 		.word	1073762080
 1121              		.cfi_endproc
 1122              	.LFE11:
 1123              		.size	CrankTriggerDummyTimer_ReadCapture, .-CrankTriggerDummyTimer_ReadCapture
 1124              		.section	.text.CrankTriggerDummyTimer_WriteCounter,"ax",%progbits
 1125              		.align	2
 1126              		.global	CrankTriggerDummyTimer_WriteCounter
 1127              		.thumb
 1128              		.thumb_func
 1129              		.type	CrankTriggerDummyTimer_WriteCounter, %function
 1130              	CrankTriggerDummyTimer_WriteCounter:
 1131              	.LFB12:
 481:Generated_Source\PSoC5/CrankTriggerDummyTimer.c ****    #if(CrankTriggerDummyTimer_UsingFixedFunction)
 1132              		.loc 1 481 0
 1133              		.cfi_startproc
 1134              		@ args = 0, pretend = 0, frame = 0
 1135              		@ frame_needed = 0, uses_anonymous_args = 0
 1136              		@ link register save eliminated.
 1137              	.LVL10:
ARM GAS  C:\Users\Bruger\AppData\Local\Temp\ccBQwdGg.s 			page 61


 1138              		.loc 1 486 0
 1139 0000 014B     		ldr	r3, .L42
 1140 0002 1880     		strh	r0, [r3]	@ movhi
 1141 0004 7047     		bx	lr
 1142              	.L43:
 1143 0006 00BF     		.align	2
 1144              	.L42:
 1145 0008 1E4F0040 		.word	1073762078
 1146              		.cfi_endproc
 1147              	.LFE12:
 1148              		.size	CrankTriggerDummyTimer_WriteCounter, .-CrankTriggerDummyTimer_WriteCounter
 1149              		.section	.text.CrankTriggerDummyTimer_ReadCounter,"ax",%progbits
 1150              		.align	2
 1151              		.global	CrankTriggerDummyTimer_ReadCounter
 1152              		.thumb
 1153              		.thumb_func
 1154              		.type	CrankTriggerDummyTimer_ReadCounter, %function
 1155              	CrankTriggerDummyTimer_ReadCounter:
 1156              	.LFB13:
 487:Generated_Source\PSoC5/CrankTriggerDummyTimer.c ****         
 488:Generated_Source\PSoC5/CrankTriggerDummyTimer.c ****     #else
 489:Generated_Source\PSoC5/CrankTriggerDummyTimer.c ****         CY_SET_REG16(CrankTriggerDummyTimer_COUNTER_LSB_PTR, counter);
 490:Generated_Source\PSoC5/CrankTriggerDummyTimer.c ****     #endif /* Set Write Counter only for the UDB implementation (Write Counter not available in fix
 491:Generated_Source\PSoC5/CrankTriggerDummyTimer.c **** }
 492:Generated_Source\PSoC5/CrankTriggerDummyTimer.c **** 
 493:Generated_Source\PSoC5/CrankTriggerDummyTimer.c **** 
 494:Generated_Source\PSoC5/CrankTriggerDummyTimer.c **** /*******************************************************************************
 495:Generated_Source\PSoC5/CrankTriggerDummyTimer.c **** * Function Name: CrankTriggerDummyTimer_ReadCounter
 496:Generated_Source\PSoC5/CrankTriggerDummyTimer.c **** ********************************************************************************
 497:Generated_Source\PSoC5/CrankTriggerDummyTimer.c **** *
 498:Generated_Source\PSoC5/CrankTriggerDummyTimer.c **** * Summary:
 499:Generated_Source\PSoC5/CrankTriggerDummyTimer.c **** *  This function returns the current counter value.
 500:Generated_Source\PSoC5/CrankTriggerDummyTimer.c **** *
 501:Generated_Source\PSoC5/CrankTriggerDummyTimer.c **** * Parameters:
 502:Generated_Source\PSoC5/CrankTriggerDummyTimer.c **** *  void
 503:Generated_Source\PSoC5/CrankTriggerDummyTimer.c **** *
 504:Generated_Source\PSoC5/CrankTriggerDummyTimer.c **** * Return:
 505:Generated_Source\PSoC5/CrankTriggerDummyTimer.c **** *  Present compare value.
 506:Generated_Source\PSoC5/CrankTriggerDummyTimer.c **** *
 507:Generated_Source\PSoC5/CrankTriggerDummyTimer.c **** *******************************************************************************/
 508:Generated_Source\PSoC5/CrankTriggerDummyTimer.c **** uint16 CrankTriggerDummyTimer_ReadCounter(void) 
 509:Generated_Source\PSoC5/CrankTriggerDummyTimer.c **** {
 1157              		.loc 1 509 0
 1158              		.cfi_startproc
 1159              		@ args = 0, pretend = 0, frame = 0
 1160              		@ frame_needed = 0, uses_anonymous_args = 0
 1161              		@ link register save eliminated.
 510:Generated_Source\PSoC5/CrankTriggerDummyTimer.c ****     /* Force capture by reading Accumulator */
 511:Generated_Source\PSoC5/CrankTriggerDummyTimer.c ****     /* Must first do a software capture to be able to read the counter */
 512:Generated_Source\PSoC5/CrankTriggerDummyTimer.c ****     /* It is up to the user code to make sure there isn't already captured data in the FIFO */
 513:Generated_Source\PSoC5/CrankTriggerDummyTimer.c ****     #if(CrankTriggerDummyTimer_UsingFixedFunction)
 514:Generated_Source\PSoC5/CrankTriggerDummyTimer.c ****         (void)CY_GET_REG16(CrankTriggerDummyTimer_COUNTER_LSB_PTR);
 515:Generated_Source\PSoC5/CrankTriggerDummyTimer.c ****     #else
 516:Generated_Source\PSoC5/CrankTriggerDummyTimer.c ****         (void)CY_GET_REG8(CrankTriggerDummyTimer_COUNTER_LSB_PTR_8BIT);
 517:Generated_Source\PSoC5/CrankTriggerDummyTimer.c ****     #endif/* (CrankTriggerDummyTimer_UsingFixedFunction) */
 518:Generated_Source\PSoC5/CrankTriggerDummyTimer.c **** 
 519:Generated_Source\PSoC5/CrankTriggerDummyTimer.c ****     /* Read the data from the FIFO (or capture register for Fixed Function)*/
ARM GAS  C:\Users\Bruger\AppData\Local\Temp\ccBQwdGg.s 			page 62


 520:Generated_Source\PSoC5/CrankTriggerDummyTimer.c ****     #if(CrankTriggerDummyTimer_UsingFixedFunction)
 521:Generated_Source\PSoC5/CrankTriggerDummyTimer.c ****         return ((uint16)CY_GET_REG16(CrankTriggerDummyTimer_CAPTURE_LSB_PTR));
 1162              		.loc 1 521 0
 1163 0000 024B     		ldr	r3, .L45
 514:Generated_Source\PSoC5/CrankTriggerDummyTimer.c ****     #else
 1164              		.loc 1 514 0
 1165 0002 034A     		ldr	r2, .L45+4
 1166 0004 1288     		ldrh	r2, [r2]
 1167              		.loc 1 521 0
 1168 0006 1888     		ldrh	r0, [r3]
 522:Generated_Source\PSoC5/CrankTriggerDummyTimer.c ****     #else
 523:Generated_Source\PSoC5/CrankTriggerDummyTimer.c ****         return (CY_GET_REG16(CrankTriggerDummyTimer_CAPTURE_LSB_PTR));
 524:Generated_Source\PSoC5/CrankTriggerDummyTimer.c ****     #endif /* (CrankTriggerDummyTimer_UsingFixedFunction) */
 525:Generated_Source\PSoC5/CrankTriggerDummyTimer.c **** }
 1169              		.loc 1 525 0
 1170 0008 80B2     		uxth	r0, r0
 1171 000a 7047     		bx	lr
 1172              	.L46:
 1173              		.align	2
 1174              	.L45:
 1175 000c 204F0040 		.word	1073762080
 1176 0010 1E4F0040 		.word	1073762078
 1177              		.cfi_endproc
 1178              	.LFE13:
 1179              		.size	CrankTriggerDummyTimer_ReadCounter, .-CrankTriggerDummyTimer_ReadCounter
 1180              		.global	CrankTriggerDummyTimer_initVar
 1181              		.bss
 1182              		.set	.LANCHOR0,. + 0
 1183              		.type	CrankTriggerDummyTimer_initVar, %object
 1184              		.size	CrankTriggerDummyTimer_initVar, 1
 1185              	CrankTriggerDummyTimer_initVar:
 1186 0000 00       		.space	1
 1187              		.text
 1188              	.Letext0:
 1189              		.file 2 "Generated_Source\\PSoC5\\cytypes.h"