ARM GAS  C:\Users\Bruger\AppData\Local\Temp\ccfJSUX1.s 			page 1


   1              		.syntax unified
   2              		.cpu cortex-m3
   3              		.fpu softvfp
   4              		.eabi_attribute 20, 1
   5              		.eabi_attribute 21, 1
   6              		.eabi_attribute 23, 3
   7              		.eabi_attribute 24, 1
   8              		.eabi_attribute 25, 1
   9              		.eabi_attribute 26, 1
  10              		.eabi_attribute 30, 2
  11              		.eabi_attribute 34, 1
  12              		.eabi_attribute 18, 4
  13              		.thumb
  14              		.file	"Em_EEPROM_1.c"
  15              		.text
  16              	.Ltext0:
  17              		.section	.gnu.lto_.profile.24c0ca90,"",%progbits
  18 0000 789C6366 		.ascii	"x\234cf```a\200\000F\206\020]\000\001I\000\212"
  18      60606061 
  18      80004686 
  18      105D0001 
  18      49008A
  19              		.text
  20              		.section	.gnu.lto_.jmpfuncs.24c0ca90,"",%progbits
  21 0000 789C6366 		.ascii	"x\234cf\300\016d\24143\02032001322\262\327\327\327\203"
  21      C00E64A1 
  21      34331033 
  21      32303031 
  21      333232B2 
  22 0018 0520620C 		.ascii	"\005 b\014\014\000\035,\001\265"
  22      0C001D2C 
  22      01B5
  23              		.text
  24              		.section	.gnu.lto_.inline.24c0ca90,"",%progbits
  25 0000 789C6366 		.ascii	"x\234cf\300\0162\24143\0201120\001\231l\013\344A\024"
  25      C00E32A1 
  25      34331031 
  25      31323001 
  25      996C0BE4 
  26 0016 03238608 		.ascii	"\003#\206\010\323\002\026\335\027\\\214L\214\214@6\020"
  26      D30216DD 
  26      175C8C4C 
  26      8C8C4036 
  26      10
  27 0027 B31834BD 		.ascii	"\263\0304\275\\\310\010\221f\373\240\307\303\300\263"
  27      5CC80891 
  27      66FBA0C7 
  27      C3C0B3
  28 0036 458605AC 		.ascii	"E\206\005\254\225\013H\260\362\001M\230\3407\301\217"
  28      950B48B0 
  28      F2014D98 
  28      E037C18F 
  29 0046 81891B64 		.ascii	"\201\211\033d\032X\220\001\000*\350\012\353"
  29      1A589001 
  29      002AE80A 
  29      EB
  30              		.text
ARM GAS  C:\Users\Bruger\AppData\Local\Temp\ccfJSUX1.s 			page 2


  31              		.section	.gnu.lto_.pureconst.24c0ca90,"",%progbits
  32 0000 789C6366 		.ascii	"x\234cf```g\200\000f\006\006F\006&)\000\000\354\000"
  32      60606067 
  32      80006606 
  32      06460626 
  32      290000EC 
  33 0015 2B       		.ascii	"+"
  34              		.text
  35              		.section	.gnu.lto_Em_EEPROM_1_Start.24c0ca90,"",%progbits
  36 0000 789C6366 		.ascii	"x\234cf\300\004R@\\\012\304\352@\314\310\314\300\310"
  36      C0045240 
  36      5C0AC4EA 
  36      40CCC8CC 
  36      C0C8
  37 0012 34E11C03 		.ascii	"4\341\034\003C#\007\023##\210\301\300\310P\317\304X"
  37      43230713 
  37      232388C1 
  37      C0C850CF 
  37      C458
  38 0024 CFF892E9 		.ascii	"\317\370\222\351#\023\343\204\003\253gp\253/mhh\370"
  38      2313E384 
  38      03AB6770 
  38      AB2F6D68 
  38      68F8
  39 0036 30E96463 		.ascii	"0\351dc\300\001\306\237L\014\014\237\231 \3460.gTg\000"
  39      C001C69F 
  39      4C0C0C9F 
  39      9920E630 
  39      2E675467 
  40 004b 2AFAD8F2 		.ascii	"*\372\330\362\367:7[\013P\221\000D\216q\005#\033#\220"
  40      F73A375B 
  40      0B509100 
  40      448E7105 
  40      231B2390 
  41 005f 5E2F74A0 		.ascii	"^/t\240\341\377\377\315K\017\316`\004\012?\001b\220"
  41      E1FFFFCD 
  41      4B0FCE60 
  41      040A3F01 
  41      6290
  42 0071 054F9998 		.ascii	"\005O\231\230@4\363=FF\220B\220IO\230\030AB@\005\252"
  42      4034F33D 
  42      46469042 
  42      90494F98 
  42      18414240 
  43 0087 EEA979A9 		.ascii	"\356\251y\251E\211%\251)\361\301\371\245E\311\2511\001"
  43      458925A9 
  43      29F1C1F9 
  43      A545C9A9 
  43      3101
  44 0099 C1F9CEA6 		.ascii	"\301\371\316\2461\256\271\361\256\256\001A\376\276\361"
  44      31AEB9F1 
  44      AEAE0141 
  44      FEBEF1
  45 00a8 867AC90C 		.ascii	"\206z\311\014\000r\2236S"
  45      00729336 
  45      53
  46              		.text
ARM GAS  C:\Users\Bruger\AppData\Local\Temp\ccfJSUX1.s 			page 3


  47              		.section	.gnu.lto_Em_EEPROM_1_Stop.24c0ca90,"",%progbits
  48 0000 789C6366 		.ascii	"x\234cf\300\004R@\\\012\304\352@\314\310\314\300\310"
  48      C0045240 
  48      5C0AC4EA 
  48      40CCC8CC 
  48      C0C8
  49 0012 34E11C03 		.ascii	"4\341\034\003C#\007\023##\210\301\300\310P\317\304X"
  49      43230713 
  49      232388C1 
  49      C0C850CF 
  49      C458
  50 0024 CFF892E9 		.ascii	"\317\370\222\351#\023\343\204\003\253gp\253/mhh\370"
  50      2313E384 
  50      03AB6770 
  50      AB2F6D68 
  50      68F8
  51 0036 F0E86C63 		.ascii	"\360\350lc\300\001\306\237L\014\014\237\231 \3460.g"
  51      C001C69F 
  51      4C0C0C9F 
  51      9920E630 
  51      2E67
  52 0048 5467002A 		.ascii	"Tg\000*\372\330\362\367:7[\013P\221\000D\216q\005#\033"
  52      FAD8F2F7 
  52      3A375B0B 
  52      50910044 
  52      8E710523 
  53 005d 23905E2F 		.ascii	"#\220^/t\240\341\377\377\317\333\017~b\004\012?\001"
  53      74A0E1FF 
  53      FFCFDB0F 
  53      7E62040A 
  53      3F01
  54 006f 6290054F 		.ascii	"b\220\005O\231\230@4\363=FF\220B\220IO\230\030AB@\005"
  54      99984034 
  54      F33D4646 
  54      90429049 
  54      4F981841 
  55 0086 AAEEA979 		.ascii	"\252\356\251y\251E\211%\251)\361\301\371\245E\311\251"
  55      A9458925 
  55      A929F1C1 
  55      F9A545C9 
  55      A9
  56 0097 3101C1F9 		.ascii	"1\001\301\371\316\2461\256\271\361\256\256\001A\376"
  56      CEA631AE 
  56      B9F1AEAE 
  56      0141FE
  57 00a6 BEF1867A 		.ascii	"\276\361\206z\311\014\000\327#7S"
  57      C90C00D7 
  57      233753
  58              		.text
  59              		.section	.gnu.lto_Em_EEPROM_1_Write.24c0ca90,"",%progbits
  60 0000 789C9556 		.ascii	"x\234\225V{P\224\327\025\277\347~\373\336eY\026\222"
  60      7B5094D7 
  60      15BFE77E 
  60      FBDE6559 
  60      1692
  61 0012 12222251 		.ascii	"\022\"\"Q\024c\005\253&\266\235N\247\255c[;\223\321"
  61      146305AB 
ARM GAS  C:\Users\Bruger\AppData\Local\Temp\ccfJSUX1.s 			page 4


  61      26B69D4E 
  61      A7AD635B 
  61      3B93D1
  62 0025 493AD369 		.ascii	"I:\323i\307\216ce\231\366\217\210\263bc\332:\371`)\320"
  62      C78E6365 
  62      99F68F88 
  62      B36263DA 
  62      3AF96029 
  63 003a 48D368AC 		.ascii	"H\323h\254\0201\242\321X\020\203Vc\224Gd!QD\036\212"
  63      1031A2D1 
  63      58108356 
  63      63944764 
  63      2151441E 
  64 004f 28A04120 		.ascii	"(\240A \012D\247\304\222!u\263\255\221\236s\356\207"
  64      0A44A7C4 
  64      922175B3 
  64      AD919E73 
  64      EE87
  65 0061 598CCCB4 		.ascii	"Y\214\314\264\314|\227\3738\277s~\347u\357j\342\253"
  65      CC7C97FB 
  65      38BF737E 
  65      E775EF6A 
  65      E2AB
  66 0073 7F1284B8 		.ascii	"\177\022\204\270\356\022\342/8\2078\001\362\325v!rl"
  66      EE12E22F 
  66      38873801 
  66      F2D57621 
  66      726C
  67 0085 526A971E 		.ascii	"Rj\227\036\025\272#\246n\211\320]\032D\251m\2234\027"
  67      15BA23A6 
  67      6E89D05D 
  67      1A44A96D 
  67      933417
  68 0098 CEC16D2B 		.ascii	"\316\301m+\215.\263\264D\254,`SB\326\211\211\015\354"
  68      8D2EB3B4 
  68      44AC2C60 
  68      5342D689 
  68      890DEC
  69 00ab 3469B0D9 		.ascii	"4i\260\331\245\351P\233@I\307 \216.\207t2\316\3058'"
  69      A5E9509B 
  69      4049C720 
  69      8E2E8774 
  69      32CEC538 
  70 00c0 B894B84B 		.ascii	"\270\224\270KY\371~\224t\267\237#iO\243\206\347n\031"
  70      59F97E94 
  70      74B79F23 
  70      694FA386 
  70      E76E19
  71 00d3 1DB98C56 		.ascii	"\035\271\214VJ\301\0031\012\026#\275[\032\351<\366\217"
  71      4AC10331 
  71      0A1623BD 
  71      5B1AE93C 
  71      F68F
  72 00e5 2E3CF742 		.ascii	".<\367B\254\332\217\005\240\211\000\361\222\324Lf\213"
  72      ACDA8F05 
  72      A08900F1 
  72      92D44C66 
ARM GAS  C:\Users\Bruger\AppData\Local\Temp\ccfJSUX1.s 			page 5


  72      8B
  73 00f6 D5667738 		.ascii	"\325fw8]Q\356hO\2147\026^\322\242T\000\354\002t\311"
  73      5D51EE68 
  73      4F8C3716 
  73      5ED2A254 
  73      00EC0274 
  74 010b 1FFEDD92 		.ascii	"\037\376\335\222\237J\250\256\372\254\315yS\206\245"
  74      9F4AA8AE 
  74      FAACCD79 
  74      5386A5
  75 011a 98217059 		.ascii	"\230!pY\263\355l\211\205\226`\242ewWI\267}\316[\272"
  75      B3ED6C89 
  75      859660A2 
  75      65775749 
  75      B77DCE5B 
  76 012f 9E3BDA78 		.ascii	"\236;\332x|\323\353\333\367\340\211\024c\250\342o\220"
  76      7CD3EBDB 
  76      F7E08914 
  76      63A8E26F 
  76      90
  77 0140 00E59040 		.ascii	"\000\345\220@&+`\016\212^\372\307\216w\335Z*\020\354"
  77      262B600E 
  77      8A5EFAC7 
  77      8E77DD5A 
  77      2A10EC
  78 0153 E35D7B3B 		.ascii	"\343]{;\315)\373\020\026\354=\252\177\317\024\226\032"
  78      CD29FB10 
  78      16EC3DAA 
  78      7FCF1496 
  78      1A
  79 0164 1C042D12 		.ascii	"\034\004-\022\207[\002*!\205(\034\274\376'\263\226\316"
  79      875B022A 
  79      2185281C 
  79      BCFE27B3 
  79      96CE
  80 0176 C8DA0B3D 		.ascii	"\310\332\013=c\016\205|y\237\345\307\004<\364\020\340"
  80      630E857C 
  80      799FE5C7 
  80      043CF410 
  80      E0
  81 0187 DB0CFCF8 		.ascii	"\333\014\374\370\320\275:\263\366-\0066\215\\/\216V"
  81      D0BD3AB3 
  81      F62D0636 
  81      8D5C2F8E 
  81      56
  82 0198 C02A069A 		.ascii	"\300*\006\232\240\352A\240I\300aH!\351\275\2017\003"
  82      A0EA41A0 
  82      49C06148 
  82      21E9BD81 
  82      3703
  83 01aa 4E6D2923 		.ascii	"Nm)#\007jZ\313l\034\001\335\303\024Z+\016K\016\001\206"
  83      076A5ACB 
  83      6C1C01DD 
  83      C3145A2B 
  83      0E4B0E01 
  84 01bf 09D7C5A3 		.ascii	"\011\327\305\243\315\327\2543\367\352A}\340\360\215"
  84      CDD7AC33 
ARM GAS  C:\Users\Bruger\AppData\Local\Temp\ccfJSUX1.s 			page 6


  84      F7EA417D 
  84      E0F08D
  85 01ce 1FEA67F5 		.ascii	"\037\352g\365\274\201\361\361\244\2604\303\021e\340"
  85      BC81F1F1 
  85      A4B034C3 
  85      1165E0
  86 01dd EF68E028 		.ascii	"\357h\340(\207\202\376\020\321\333\331\364km\005+//"
  86      8782FE10 
  86      D1DBD9F4 
  86      6B6D052B 
  86      2F2F
  87 01ef 6F28B520 		.ascii	"o(\265 X\317\0358\031hr}\2116\301;\223\351\335G\327"
  87      58CF1D38 
  87      1968727D 
  87      8936C13B 
  87      93E9DD47 
  88 0204 DCC8F924 		.ascii	"\334\310\371$J\373\031\303\007\233\233\013\200\341{"
  88      4AFB19C3 
  88      079B9B0B 
  88      80E17B
  89 0213 AAF75922 		.ascii	"\252\367Y\"\300\357N\001\256\250:\275\305\245\375\222"
  89      C0EF4E01 
  89      AEA83ABD 
  89      C5A5FD92 
  90 0223 C1178A2F 		.ascii	"\301\027\212/~\244)p\315$\360\311)\3007s\373w\203\226"
  90      7EA42970 
  90      CD24F0C9 
  90      29C03773 
  90      FB778396 
  91 0237 C9E0EED7 		.ascii	"\311\340\356\327J\237R\330\332I\330\232)\260\333\366"
  91      4A9F52D8 
  91      DA49D89A 
  91      29B0DBF6 
  92 0247 0C1559B5 		.ascii	"\014\025Y\265,\306\216\376y\377u\251\234\256{?\322i"
  92      2CC68EFE 
  92      79FF75A9 
  92      9CAE7B3F 
  92      D269
  93 0259 097553C0 		.ascii	"\011uS\300/\265\234=\342\322\374\014\277]<\264K9=\360"
  93      2FB59C3D 
  93      E2D2FC0C 
  93      BF5D3CB4 
  93      4B393DF0 
  94 026d DE03313B 		.ascii	"\336\0031;5\005|\313\336\332:\273\366{\206\357\257:"
  94      35057CCB 
  94      DEDA3ABB 
  94      F67B86EF 
  94      AF3A
  95 027f D06C52D4 		.ascii	"\320lR\324OM\242\036\234\002\2343Xv\313\256\345\003"
  95      4F4DA21E 
  95      9C029C33 
  95      5876CBAE 
  95      E503
  96 0291 A30B2FB6 		.ascii	"\243\013/\266\336\263\250j\360\322\372L[\307 p5\354"
  96      DEB3A86A 
  96      F0D2FA4C 
  96      5BC72070 
ARM GAS  C:\Users\Bruger\AppData\Local\Temp\ccfJSUX1.s 			page 7


  96      35EC
  97 02a3 E16A282C 		.ascii	"\341j(,{s\324\246\252\341\334\215\237|\311\315\002\215"
  97      7B73D4A6 
  97      AAE1DC8D 
  97      9F7CC9CD 
  97      028D
  98 02b5 4AFDFBA8 		.ascii	"J\375\373\250\376\203H\365\237\346}\321\355\264\344"
  98      FE8348F5 
  98      9FE67DD1 
  98      EDB4E4
  99 02c4 E9BAEE81 		.ascii	"\351\272\356\201c0\023\216\343w\002\277j\374j\361{\017"
  99      6330138E 
  99      E37702BF 
  99      6AFC6AF1 
  99      7B0F
 100 02d6 BF7AFC1A 		.ascii	"\277z\374\032\360;\0153\251\273\260\251\316\200\005"
 100      F03B0D33 
 100      A9BBB0A9 
 100      CE8005
 101 02e5 2F2BFBFF 		.ascii	"/+\373\377\2028\354\015\352\343\343\307\272\267\026"
 101      8238EC0D 
 101      EAE3E3C7 
 101      BAB716
 102 02f4 7E577E13 		.ascii	"~W~\023\004\211#\017\004`\243 \004\253\036Af\036-<Z"
 102      0489230F 
 102      0460A320 
 102      04AB1E41 
 102      661E2D3C 
 103 0309 05A9B0F1 		.ascii	"\005\251\260\361h\347\321!H\231\223G\017P{\305\0102"
 103      68E7D121 
 103      48999347 
 103      0F507BC5 
 103      0832
 104 031b E16579BC 		.ascii	"\341ey\274\\\260o\342\260\203\254\361\254\3761\232&"
 104      5CB06FE2 
 104      B083ACF1 
 104      ACFE319A 
 104      26
 105 032c B08DC769 		.ascii	"\260\215\307i:\215\206DFOg\233I<\237\001\324\341\311"
 105      3A8D8644 
 105      464F679B 
 105      493C9F01 
 105      D4E1C9
 106 033f D4B24FE0 		.ascii	"\324\262O\340`\233\305\332Rpj\237M\353T\226\232\313"
 106      609BC5DA 
 106      52706A9F 
 106      4DEB5496 
 106      9ACB
 107 0351 88276963 		.ascii	"\210'ic\036\016\216\371\314(\215\265\247\263\271\005"
 107      1E0E8EF9 
 107      CC288DB5 
 107      A7B3B905 
 108 0361 BCB390D1 		.ascii	"\274\263\220\321\213x\1771\357/a\274\020\203\030\261"
 108      8B787F31 
 108      EF2F61BC 
 108      108318B1 
 109 0371 64318437 		.ascii	"d1\2047S\262v\025r\373\012\356\354\372\016\0050$cB\322"
ARM GAS  C:\Users\Bruger\AppData\Local\Temp\ccfJSUX1.s 			page 8


 109      53B27615 
 109      72FB0AEE 
 109      ECFA0E05 
 109      30246342 
 110 0386 23BA4072 		.ascii	"#\272@r8\321\037\334\021W!\260-\377\314\356WA\211\304"
 110      38D11FDC 
 110      115721B0 
 110      2DFFCCEE 
 110      574189C4 
 111 039a B154ACB8 		.ascii	"\261T\254\270\014ym\001\277\261\207i\273x\263\240\201"
 111      0C796D01 
 111      BFB18769 
 111      BB78B3A0 
 111      81
 112 03ab AF05EBF8 		.ascii	"\257\005\353\370x\264\200&#\245Cx\3758\264^\010\004"
 112      78B48026 
 112      23A54378 
 112      FD38B45E 
 112      0804
 113 03bd AF34B949 		.ascii	"\2574\271I\232R\274\273\363\225*\271\371?z\241n\013"
 113      9A52BCBB 
 113      F3952AB9 
 113      F93F7AA1 
 113      6E0B
 114 03cf 4BE7183D 		.ascii	"K\347\030=3p\0266\2437.\321\013y\301\376\246\270\207"
 114      33701636 
 114      A3372ED1 
 114      0B79C1FE 
 114      A6B887
 115 03e2 8A468D21 		.ascii	"\212F\215!g\001\315(\212G\377<P\024v\343\221\256\007"
 115      6701CD28 
 115      8A47FF3C 
 115      501476E3 
 115      91AE07
 116 03f5 7F11966E 		.ascii	"\177\021\226nJ-\243\340\034l\016\313h\"\276+\277\257"
 116      4A2DA3E0 
 116      1C6C0ECB 
 116      6822BE2B 
 116      BFAF
 117 0407 EC59C531 		.ascii	"\354Y\3051\036y#h\307\277\312+\270^\255\272\216\231"
 117      1E792368 
 117      C7BFCA2B 
 117      B85EADBA 
 117      8E99
 118 0419 6E419A13 		.ascii	"nA\232\023\376\036'\177\343\025l\270\354\267\012\366"
 118      FE1E277F 
 118      E3156CB8 
 118      ECB70AF6 
 119 0429 9882DDBF 		.ascii	"\230\202\335\277\344\254\364\036\264\"\012\305>\317"
 119      E4ACF41E 
 119      B4220AC5 
 119      3ECF
 120 0437 BF6B0425 		.ascii	"\277k\004%\001\005Q\352\225\226\235\015\232\212\001"
 120      010551EA 
 120      95969D0D 
 120      9A8A01
 121 0446 D6555B84 		.ascii	"\326U[\204\356\023\244\233A;\362o\227\215\032\260\307"
ARM GAS  C:\Users\Bruger\AppData\Local\Temp\ccfJSUX1.s 			page 9


 121      EE13A49B 
 121      413BF26F 
 121      978D1AB0 
 121      C7
 122 0457 D1DE84B2 		.ascii	"\321\336\204\262m\026\2657\215\267\015\321A\2516\023"
 122      6D16B537 
 122      8DB70DD1 
 122      41A93613 
 123 0467 719F0527 		.ascii	"q\237\005'\3645\220\276D\\\346\006\277(x\204\2670\331"
 123      F43590BE 
 123      445CE606 
 123      BF287884 
 123      B730D9
 124 047a 48A17FF0 		.ascii	"H\241\177\360|\007\247\301\204\201jgDnp\353\313\034"
 124      7C07A7C1 
 124      84816A67 
 124      446E70EB 
 124      CB1C
 125 048c 7AAA8A48 		.ascii	"z\252\212H\021\212\345y\316\323\020\212\343#\254aR\317"
 125      118AE579 
 125      CED3108A 
 125      E323AC61 
 125      52CF
 126 049e 07EAB77F 		.ascii	"\007\352\267\177]YuP\372U\022\315\242k6\235\266\006"
 126      5D597550 
 126      FA5512CD 
 126      A26B369D 
 126      B606
 127 04b0 FE6D5032 		.ascii	"\376mP2S\021\250C\213\250\214\305B\012\224\344\267W"
 127      5311A843 
 127      8BA88CC5 
 127      420A94E4 
 127      B757
 128 04c2 7419AE25 		.ascii	"t\031\256%\207\344\014\024B7r\3578\324\326\023\221\266"
 128      87E40C14 
 128      423772EF 
 128      38D4D613 
 128      91B6
 129 04d4 35EEF5E3 		.ascii	"5\356\365\343\237\227}\022\365\006\224BXz\020\003\027"
 129      9F977D12 
 129      F5069442 
 129      587A1003 
 129      17
 130 04e5 880D74C0 		.ascii	"\210\015t\300\033@\300m\037\315'$\312}p\376\365\016"
 130      1B40C06D 
 130      1FCD2724 
 130      CA7D70FE 
 130      F50E
 131 04f7 57FADB94 		.ascii	"W\372\333\224j|\252b\250\313C\244\002\205/B:\252VU\332"
 131      6A7CAA62 
 131      A8CB43A4 
 131      02852F42 
 131      3AAA5655 
 132 050c 55F13B65 		.ascii	"U\361;ej\026\232FX\307\316\003\201h\016\006\246\243"
 132      6A169A46 
 132      58C7CE03 
 132      81680E06 
ARM GAS  C:\Users\Bruger\AppData\Local\Temp\ccfJSUX1.s 			page 10


 132      A6A3
 133 051e 33227CB5 		.ascii	"3\"|\265\204\237\305\344\255\"\347\333\324\005=\005"
 133      849FC5E4 
 133      AD22E7DB 
 133      D4053D05 
 134 052e 772A6A0C 		.ascii	"w*j\014\362)\350;jl\234`>;\222\271\235\231\357\334z"
 134      F229E83B 
 134      6A6C9C60 
 134      3E3B92B9 
 134      9D99EFDC 
 135 0543 B2CB8ECC 		.ascii	"\262\313\216\314s\362\220\273\027!p\211\271_\376\177"
 135      73F290BB 
 135      17217089 
 135      B95FFE7F 
 136 0553 B87711F7 		.ascii	"\270w\021\367\331L\303\306\361\307dy\204bg2\032\357"
 136      D94CC3C6 
 136      F1C76479 
 136      84626732 
 136      1AEF
 137 0565 A05188A9 		.ascii	"\240Q\210\251\310i\222\017\\\002\251J\352v\371Q\243"
 137      C869920F 
 137      5C02A94A 
 137      EA76F951 
 137      A3
 138 0576 7CE6A2EE 		.ascii	"|\346\242\356Ib\325$6W\210a0\241\313\226C\235\237\001"
 138      4962D524 
 138      36578861 
 138      30A1CB96 
 138      439D9F01 
 139 058a 06C70A68 		.ascii	"\006\307\012h\323.\3607\020(\233\254\315!\"\010\230"
 139      D32EF037 
 139      10289BAC 
 139      CD212208 
 139      98
 140 059b 8D45B5E2 		.ascii	"\215E\265\342\313\375~b{\2422\243\241c%\245\341SV\216"
 140      CBFD7E62 
 140      7BA232A3 
 140      A16325A5 
 140      E153568E 
 141 05af 2E557BB7 		.ascii	".U{\267j\370a\320Brz4\332\230k+Y4\014X&^Z\231l0\014"
 141      6AF861D0 
 141      42727A34 
 141      DA986B2B 
 141      59340C58 
 142 05ca 58504B68 		.ascii	"XPKh\221j+\272<B\014\034bP\250\340\337;\270Ji~2$9\200"
 142      916A2BBA 
 142      3C420C1C 
 142      6250A8E0 
 142      DF3BB84A 
 143 05e4 3D56B59E 		.ascii	"=V\265\236\027\302:\355\205|\375\347j=\377\301K!v\214"
 143      17C23AED 
 143      857CFDE7 
 143      6A3DFFC1 
 143      4B21768C 
 144 05f8 A2093D78 		.ascii	"\242\011=x)0z\036\012\344\226\017\347\031WC\221\026"
 144      29307A1E 
 144      0AE4960F 
ARM GAS  C:\Users\Bruger\AppData\Local\Temp\ccfJSUX1.s 			page 11


 144      E7195743 
 144      9116
 145 060a 9671FC2C 		.ascii	"\226q\374,\360\335p\205\356\206G\3105\245\220z\002\225"
 145      F0DD7085 
 145      EE8647C8 
 145      35A5907A 
 145      0295
 146 061c AA30F655 		.ascii	"\2520\366U\376T\031IC\243\223\242\310\375\233FAh\017"
 146      FE541949 
 146      43A393A2 
 146      C8FD9B46 
 146      41680F
 147 062f 84FE6AF4 		.ascii	"\204\376j\364G\332\204\323\350\211S,\324X\307\275\312"
 147      47DA84D3 
 147      E889532C 
 147      D458C7BD 
 147      CA
 148 0640 4DEA1453 		.ascii	"M\352\024S\013\223t\360\375\222\256\032\262%qB-7)ip"
 148      0B9374F0 
 148      FD92AE1A 
 148      B2257142 
 148      2D372969 
 149 0655 512C307E 		.ascii	"Q,0~\213Q\310y\267{\024\343\004\016\014\332\"\222p\026"
 149      8B51C879 
 149      B77B14E3 
 149      040E0CDA 
 149      22927016 
 150 0669 5D19C18D 		.ascii	"]\031\301\2154G]w9\356-\304\3648)\217$\260\000\371;"
 150      34475D77 
 150      39EE2DC4 
 150      F438298F 
 150      24B000F9 
 151 067e EF5E3E82 		.ascii	"\357^>\202\353\371\016T\220\204\211\244C\207\203B\034"
 151      EBF90E54 
 151      908489A4 
 151      43878342 
 151      1C
 152 068f 256E4FCA 		.ascii	"%nO\312\261\323H+\373m\215L\270\305X\260\257\322X0i"
 152      B1D3482B 
 152      FB6D8D4C 
 152      B8C558B0 
 152      AFD25830 
 153 06a4 10DCFA95 		.ascii	"\020\334\372\225\333\223\224k\026\243\367\207\001\315"
 153      DB93946B 
 153      16A3F787 
 153      01CD
 154 06b2 2C76E110 		.ascii	",v\341\020\257\325\325\357G.2$\027\321:Ak\255\377\303"
 154      AFD5D5EF 
 154      472E3224 
 154      17D13A41 
 154      6BADFFC3 
 155 06c6 30C92E74 		.ascii	"0\311.t\0019\240\215\324\023qkH.\300\015\274u\264\242"
 155      0139A08D 
 155      D413716B 
 155      482EC00D 
 155      BC75B4A2 
 156 06da 8EF5C3E0 		.ascii	"\216\365\303\340\014\311$\222O\324z\353\217\020]\267"
ARM GAS  C:\Users\Bruger\AppData\Local\Temp\ccfJSUX1.s 			page 12


 156      0CC92492 
 156      4FD47AEB 
 156      8F105DB7 
 157 06ea B8C5D750 		.ascii	"\270\305\327P\017Z[\241\254Y\3517\307\201\332\"\256"
 157      0F5A5BA1 
 157      AC59E937 
 157      C781DA22 
 157      AE
 158 06fb 352BA6FA 		.ascii	"5+\246\372\352\375\250G\0331\233N&\334\275\035#h\002"
 158      EAFDA847 
 158      1B319B4E 
 158      26DCBD1D 
 158      236802
 159 070e 9BD1E2C6 		.ascii	"\233\321\342\306\377K\320W7\251\364\030\017PY\313\303"
 159      FF4BD057 
 159      37A9F418 
 159      0F5059CB 
 159      C3
 160 071f 1FA047C7 		.ascii	"\037\240G\307\370\262\374\220\037\240\257\261\336\030"
 160      F8B2FC90 
 160      1FA0AFB1 
 160      DE18
 161 072d 7C1923C2 		.ascii	"|\031#\302dS\211\257,\216W\214l\221w\013F\007z'\212"
 161      645389AF 
 161      2C8E578C 
 161      6C91770B 
 161      46077A27 
 162 0742 DF8674F1 		.ascii	"\337\206t\361\007\001\256\345\310\207\353Q\223WL#M\301"
 162      0701AEE5 
 162      C887EB51 
 162      93574C23 
 162      4DC1
 163 0754 1E67E40D 		.ascii	"\036g\344\015\\\032\336o7\336J~-\257\0315\020;\331\256"
 163      5C1ADE6F 
 163      37DE4A7E 
 163      2DAF1935 
 163      103BD9AE 
 164 0768 9D2EA11E 		.ascii	"\235.\241\0363#\2171Ro\270\022\262<\375\216^\210\267"
 164      33238F31 
 164      526FB812 
 164      B23CFD8E 
 164      5E88B7
 165 077b 0EFE44E9 		.ascii	"\016\376D\351\203\247#DN\177E\004\013\276\037E\372 "
 165      83A72344 
 165      4E7F4504 
 165      0BBE1F45 
 165      FA20
 166 078d 27D8DF62 		.ascii	"'\330\337b\\\334v\342iG'b\200\354z[\257\255\307_\004"
 166      5CDC76E2 
 166      69472762 
 166      80EC7A5B 
 166      AFADC75F 
 167 07a2 2092F139 		.ascii	" \222\3619H\371\221o\235\317\277&\333\227\261\372\271"
 167      48F9916F 
 167      9DCFBF26 
 167      DB97B1FA 
 167      B9
ARM GAS  C:\Users\Bruger\AppData\Local\Temp\ccfJSUX1.s 			page 13


 168 07b3 AC8DFEB5 		.ascii	"\254\215\376\265\276U+\237\313Z\372\324\252e\317\257"
 168      BE552B9F 
 168      CB5AFAD4 
 168      AA65CFAF 
 169 07c3 5EB66CE5 		.ascii	"^\266l\345\263+\236Y\375\215\264\265\302"
 169      B32B9E59 
 169      FD8DB4B5 
 169      C2
 170 07d0 B2C1BFF6 		.ascii	"\262\301\277\366\007\0333\355>\337z\177\326\363+\263"
 170      071B33ED 
 170      3EDF7A7F 
 170      D6F32BB3 
 171 07e0 FDF65FBD 		.ascii	"\375\366_\275\230\355[\232\265q]\266\363\005\377o\262"
 171      98ED5B9A 
 171      B5715DB6 
 171      F305FF6F 
 171      B2
 172 07f1 7D7898E9 		.ascii	"}x\230\351\363[\327\370\375k^\\\236a\366g\275\260<\303"
 172      F35BD7F8 
 172      FD6B5E5C 
 172      9E61F667 
 172      BDB03CC3 
 173 0805 96B1217B 		.ascii	"\226\261!{\371\272\014\337&\033\242y\"\375km>\337\212"
 173      F9BA0CDF 
 173      261BA279 
 173      22FD6B6D 
 173      3EDF8A
 174 0818 CCCC0DBE 		.ascii	"\314\314\015\276l\007iPS;\212+\005\377\005\0229\206"
 174      6C076950 
 174      533B8A2B 
 174      05FF0512 
 174      3986
 175 082a 36       		.ascii	"6"
 176              		.text
 177              		.section	.gnu.lto_.symbol_nodes.24c0ca90,"",%progbits
 178 0000 789C55C7 		.ascii	"x\234U\307\261\015\2030\024\006\341\363{\266\305$l\223"
 178      B10D8330 
 178      1406E1F3 
 178      7BB6C524 
 178      6C93
 179 0012 1918E5F7 		.ascii	"\031\030\345\367\000)\250(\021\005\243P\323f\000<D\232"
 179      0029A828 
 179      1105A350 
 179      D366003C 
 179      449A
 180 0024 48490485 		.ascii	"HI\004\205\271\346\3649\360\344\312\020\214;H\314K\207"
 180      B9E6F439 
 180      F0E4CA10 
 180      8C3B48CC 
 180      4B87
 181 0036 05859B4D 		.ascii	"\005\205\233M\326:d\371iJ\3711)\266\214J-]\271\241["
 181      D63A64F9 
 181      694AF931 
 181      29B68C4A 
 181      2D5DB9A1 
 182 004b 66FDF46E 		.ascii	"f\375\364n\211\355\277H\235^\203\233S\217\367\203/\257"
 182      89EDBF48 
ARM GAS  C:\Users\Bruger\AppData\Local\Temp\ccfJSUX1.s 			page 14


 182      9D5E839B 
 182      538FF783 
 182      2FAF
 183 005d BD2447   		.ascii	"\275$G"
 184              		.text
 185              		.section	.gnu.lto_.refs.24c0ca90,"",%progbits
 186 0000 789C6366 		.ascii	"x\234cf```d\200\002\000\000=\000\005"
 186      60606064 
 186      80020000 
 186      3D0005
 187              		.text
 188              		.section	.gnu.lto_.decls.24c0ca90,"",%progbits
 189 0000 789C8D55 		.ascii	"x\234\215UmLSW\030\276\247\267\224\366Z\213\343\007"
 189      6D4C5357 
 189      18BEA7B7 
 189      94F65A8B 
 189      E307
 190 0012 1AFE5897 		.ascii	"\032\376X\227\315l\2111q\313\026\177mn\0353\331'\223"
 190      CD6C8931 
 190      71CB167F 
 190      6D6E1D33 
 190      D92793
 191 0025 2DFBA109 		.ascii	"-\373\241\011\351X\035&S\014\224,\375\261\344@\235\022"
 191      E9581D26 
 191      530C942C 
 191      FDB1E440 
 191      9D12
 192 0037 9C8A8803 		.ascii	"\234\212\210\003uH\023:\220\252\005\277\205\242|\252"
 192      7548133A 
 192      90AA05BF 
 192      85A27CAA 
 193 0047 2885F165 		.ascii	"(\205\361e\241~Q\004Q\344\2532\246(\316\356\275\357"
 193      A17E5104 
 193      51E4AB32 
 193      A628CEEE 
 193      BDEF
 194 0059 BD6DEF65 		.ascii	"\275m\357evz\222\007\3569y\316\363>\347}\337s\3122\014"
 194      767A9207 
 194      EE3979CE 
 194      F33EE77D 
 194      DF73CA32 
 195 006e F31A6198 		.ascii	"\363\032a\230\000\214\3674\014\363*|+a-\221\011\217"
 195      008CF734 
 195      0CF32A7C 
 195      2B612D91 
 195      098F
 196 0080 68C01180 		.ascii	"h\300\021\200\023\320\004\270\000\350\002\364\002\256"
 196      13D004B8 
 196      00E802F4 
 196      02AE
 197 008e 31FF1D3C 		.ascii	"1\377\035<\227H4\210\2706w8\237\303s>\207\307\307\\"
 197      97483488 
 197      B8367738 
 197      9FC3733E 
 197      87C7C75C 
 198 00a2 04D001B4 		.ascii	"\004\320\001\264\200\023\200\032\3009@?`\010\260\004"
 198      8013801A 
ARM GAS  C:\Users\Bruger\AppData\Local\Temp\ccfJSUX1.s 			page 15


 198      C039403F 
 198      6008B004 
 199 00b2 1007B80F 		.ascii	"\020\007\270\017\320\003F\001}\2001\3008\340*\240\032"
 199      D0034601 
 199      7D8031C0 
 199      38E02AA0 
 199      1A
 200 00c3 70063002 		.ascii	"p\0060\002\230\000L\002:\000~@\205\030+J\214wM<_\227"
 200      98004C02 
 200      3A007E40 
 200      85182B4A 
 200      8C774D3C 
 201 00d9 78DEB9E3 		.ascii	"x\336\271\343\201\202T;\247\333\346\335S\020\035\247"
 201      8182543B 
 201      A7DBE6DD 
 201      53101DA7 
 202 00e9 E7A735F9 		.ascii	"\347\2475\371-E*\230j9%?u\315\336\356Q.\334Ka\344Y\351"
 202      2D452A98 
 202      6A39253F 
 202      75CDDEEE 
 202      512EDC4B 
 203 0101 0225498C 		.ascii	"\002%I\214#\345$\236\034\"\361p\322\012\262\020\376"
 203      23E5249E 
 203      1C22F170 
 203      D20AB210 
 203      FE
 204 0112 AE550A4A 		.ascii	"\256U\012J7\253F\0069VA\370\357\322\242\201\036n\231"
 204      37AB4606 
 204      395641F8 
 204      EFD2A281 
 204      1E6E99
 205 0125 03B6E5D0 		.ascii	"\003\266\345\320z\237\"\034\256{\270\337I\364\007iU"
 205      7A9F221C 
 205      AE7BB8DF 
 205      49F40769 
 205      55
 206 0136 95DF95EF 		.ascii	"\225\337\225\357\325\322\026Z\037\010\274\217R\304A"
 206      D5D2165A 
 206      1F08BC8F 
 206      52C441
 207 0145 5872982C 		.ascii	"Xr\230,\303$\302\267\220\315#D\317\373(,\256d\331\017"
 207      C324C2B7 
 207      90CD2344 
 207      CFFB282C 
 207      AE64D90F 
 208 0159 50BBA7A5 		.ascii	"P\273\247\245\252H\205\022\266\211\343t\325\026\372"
 208      AA488512 
 208      B689E374 
 208      D516FA
 209 0168 34106051 		.ascii	"4\020`Q\340\250D\340hP\300\211\002{\017Xo\306\260kP"
 209      E0A844E0 
 209      6850C089 
 209      027B0F58 
 209      6FC6B06B 
 210 017d 20ABCCF5 		.ascii	" \253\314\365k4\234q\011\207\226\372\017<\266kp\312"
 210      6B349C71 
 210      098796FA 
ARM GAS  C:\Users\Bruger\AppData\Local\Temp\ccfJSUX1.s 			page 16


 210      0F3CB66B 
 210      70CA
 211 018f B74F0C2C 		.ascii	"\267O\014,)z\306\332\213\265d)g\207\003\370]M\023k\255"
 211      297AC6DA 
 211      8BB56429 
 211      678703F8 
 211      5D4D136B 
 212 01a4 74153941 		.ascii	"t\0259A8R\031\212\200\273\371\221Ci6\237\034M\213\216"
 212      3852198A 
 212      80BBF991 
 212      4369369F 
 212      1C4D8B8E 
 213 01b8 09E5861C 		.ascii	"\011\345\206\034'K\201\201\\R\005\213\307`Q\022:N\010"
 213      274B8181 
 213      5C52058B 
 213      C7605112 
 213      3A4E08
 214 01cb BDB3757F 		.ascii	"\275\263u\177\003\213\323\000:\363\324m\333\246f\177"
 214      038BD300 
 214      3AF3D46D 
 214      DBA6667F 
 215 01db E6BF155E 		.ascii	"\346\277\025^o\301c\226pKQ\337\237O\331E\014Y\026O\336"
 215      6FC16396 
 215      704B51DF 
 215      9F4FD945 
 215      0C59164F 
 216 01f0 04F1B320 		.ascii	"\004\361\263 \036'\212\237\004\361S \316[\365\315T\350"
 216      1E278A9F 
 216      04F15320 
 216      CE5BF5CD 
 216      54E8
 217 0202 282167C0 		.ascii	"(!g\300\350\351\260\3218.\224\375\366\3759\323\034'"
 217      E8E9B0D1 
 217      382E94FD 
 217      F6FD39D3 
 217      1C27
 218 0214 2AE6BC40 		.ascii	"*\346\274@\021\370\027\235Y\305\363\265\271\341\023"
 218      11F8179D 
 218      59C5F3B5 
 218      B9E113
 219 0223 926AD00E 		.ascii	"\222j\320\0167@\015\321\212\312\003}\275\265\321\254"
 219      37400DD1 
 219      8ACA037D 
 219      BDB5D1AC 
 220 0233 95A07557 		.ascii	"\225\240uWc~''\246\317\366DC\3109\330\345z\331\324\325"
 220      637E2727 
 220      A6CFF644 
 220      43C839D8 
 220      E57AD9D4 
 221 0248 3E3F75FB 		.ascii	">?u\373\367y)QB+\241\332Zl\317\355\305\263;\224\270"
 221      F7792951 
 221      422BA1DA 
 221      5A6CCFED 
 221      C5B33B94 
 222 025d 064EC879 		.ascii	"\006N\310y\202\213\1777\224\326jB\213u\302bS\365\324"
 222      828B7F37 
 222      94D66A42 
ARM GAS  C:\Users\Bruger\AppData\Local\Temp\ccfJSUX1.s 			page 17


 222      8B75C262 
 222      53F5D4
 223 0270 D3286923 		.ascii	"\323(i#\237\220\035\244\001;\271\236\210\255|\303;\375"
 223      9F901DA4 
 223      013BB99E 
 223      88AD7CC3 
 223      3BFD
 224 0282 0BC7E6E2 		.ascii	"\013\307\346\342i\210\275\335s\203\205~\263A\313\366"
 224      6988BDDD 
 224      7383857E 
 224      B341CBF6 
 225 0292 6D8DD947 		.ascii	"m\215\331Gm\331\364Y\000\012\306\357\"\215\222\236k"
 225      6DD9F459 
 225      000AC6EF 
 225      228D929E 
 225      6B
 226 02a3 0CF65C13 		.ascii	"\014\366\\\023\366\334\351\212+3J\366wA\245\240\315"
 226      F6DCE98A 
 226      2B334AF6 
 226      7741A5A0 
 226      CD
 227 02b4 35AD0315 		.ascii	"5\255\003\025\037\365{/\034\376j\2675\317N}\201\300"
 227      1FF57B2F 
 227      1CFE6AB7 
 227      35CF4E7D 
 227      81C0
 228 02c6 62A1F59B 		.ascii	"b\241\365\233%*\315A\225\013\250\322z{\346/-^\320\005"
 228      252ACD41 
 228      950BA8D2 
 228      7A7BE62F 
 228      2D5ED005 
 229 02da 9886DE3B 		.ascii	"\230\206\336;\323,^P\005?-\236\232\250\325\260\227\211"
 229      D32C5E50 
 229      053F2D9E 
 229      9AA8D5B0 
 229      9789
 230 02ec ACB1F542 		.ascii	"\254\261\365Bw\025\216\316\234T\343\024.\010_\227\331"
 230      77158ECE 
 230      9C54E314 
 230      2E085F97 
 230      D9
 231 02fd 4167B92A 		.ascii	"Ag\271*\324\326\245\347?\341\333\332\015\211h\011\327"
 231      D4D6A5E7 
 231      3FE1DBDA 
 231      0D896809 
 231      D7
 232 030e 462FAD0D 		.ascii	"F/\255\015\265\322\250CP\233\213\220\250K|mZ\2416z\261"
 232      B5D2A843 
 232      509B8B90 
 232      A84B7C6D 
 232      5AA1367A 
 233 0323 369761F1 		.ascii	"6\227a\361\212P\233\312s\345\227\303u\020j\323\375\344"
 233      8A509BCA 
 233      73E597C3 
 233      75106AD3 
 233      FDE4
 234 0335 E8AE185C 		.ascii	"\350\256\030\\\343#\264\011e\330\355uS5.\362M\332.,"
ARM GAS  C:\Users\Bruger\AppData\Local\Temp\ccfJSUX1.s 			page 18


 234      E323B409 
 234      65D8ED75 
 234      53352EF2 
 234      4DDA2E2C 
 235 0349 DE6BBC6E 		.ascii	"\336k\274n'\221k\323\201\265\3713X\233\262Vw\257\202"
 235      27916BD3 
 235      81B5F933 
 235      589BB256 
 235      77AF82
 236 035c ED104E3C 		.ascii	"\355\020N<\370\330Q\246\025\262Zwi8Q\222U\330E:%Y\355"
 236      F8D851A6 
 236      15B25A77 
 236      69385192 
 236      55D8453A 
 237 0373 0C66B50B 		.ascii	"\014f\265\013\263Zx\320?\253\221u\366\031Y\320\356P"
 237      B35A78D0 
 237      3FAB9175 
 237      F61959D0 
 237      EE50
 238 0385 67EF2B2E 		.ascii	"g\357+.\230\232\207\226\273Cg\033y\230\275C\031\331"
 238      989A8796 
 238      BB43671B 
 238      7998BD43 
 238      19D9
 239 0397 F15574DC 		.ascii	"\361Ut\334\023t<\331~\330\036\305f\011/c\366\236q\237"
 239      13743CD9 
 239      7ED81EC5 
 239      66092F63 
 239      F69E719F 
 240 03ab D007B65D 		.ascii	"\320\007\266]\245[\365\302\373\307\357 \036\211[O\320"
 240      A55BF5C2 
 240      FBC7EF20 
 240      1E895B4F 
 240      D0
 241 03bc 6D2FBAED 		.ascii	"m/\272\355tx\316\377O\274>\331;\374\240\355l3\313\026"
 241      7478CEFF 
 241      4FBC3ED9 
 241      3BFCA0ED 
 241      6C33CB16 
 242 03d0 08E176DE 		.ascii	"\010\341v\336o\351T\013\341v\206\303\301\006\342\225"
 242      6FE9540B 
 242      E17686C3 
 242      C106E295 
 243 03e0 84F306C3 		.ascii	"\204\363\006\303]\303p\276\032w\211\032[\216b\317\271"
 243      5DC370BE 
 243      1A77891A 
 243      5B8E62CF 
 243      B9
 244 03f1 DC15950A 		.ascii	"\334\025\225\012\3549\252\220>[Z\361\331\332\366\310"
 244      EC39AA90 
 244      3E5B5AF1 
 244      D9DAF6C8 
 245 0401 16CBBF2A 		.ascii	"\026\313\277*4\230K\255\324\335-\002-E\336\210'7\205"
 245      34984BAD 
 245      D4DD2D02 
 245      2D45DE88 
 245      273785
ARM GAS  C:\Users\Bruger\AppData\Local\Temp\ccfJSUX1.s 			page 19


 246 0414 66B97BBA 		.ascii	"f\271{\272\314\243\215\315C:\245z\341\275\272\016\364"
 246      CCA38DCD 
 246      433AA57A 
 246      E1BDBA0E 
 246      F4
 247 0425 1B48EF27 		.ascii	"\033H\357'\261\301M8\201\0359]\356g*\301O,>Km\235C\004"
 247      B1C14D38 
 247      811D395D 
 247      EE672AC1 
 247      4F2C3E4B 
 248 043d E3DBD0CF 		.ascii	"\343\333\320\317\016wMI4\316KpN\035c\307T\221\015\015"
 248      0E774D49 
 248      34CE4B70 
 248      4E1D63C7 
 248      54910D0D 
 249 0451 060DDD16 		.ascii	"\006\015\335\026\014u5\377vK7\327\220\017\350\003H\037"
 249      0C7535FF 
 249      764B37D7 
 249      900FE803 
 249      481F
 250 0463 42438382 		.ascii	"BC\203\202\241!4D\013\267\333\325\354A!\305\247\036"
 250      A1213444 
 250      0BB7DBD5 
 250      EC4121C5 
 250      A71E
 251 0475 E656CFE7 		.ascii	"\346V\317\347\243Y_\342\231\346\177\\\332s=\032\341"
 251      A3595FE2 
 251      99E67F5C 
 251      DA733D1A 
 251      E1
 252 0486 619FBBE3 		.ascii	"a\237\273\343^\204\207\035~\203\246>\335\002\227\365"
 252      5E84871D 
 252      7E83A63E 
 252      DD0297F5 
 253 0496 2E38BB13 		.ascii	".8\273\023\276\254\303$\374\266\017\344]\254\325\004"
 253      BEACC324 
 253      FCB60FE4 
 253      5DACD504 
 254 04a6 6DE4BC40 		.ascii	"m\344\274@\024\370\015E{\034\362\267}D\326T\367\205"
 254      14F80D45 
 254      7B1CF2B7 
 254      7D44D654 
 254      F785
 255 04b8 1BC0FFE7 		.ascii	"\033\300\377\347o\335\360\243:\"c\363=\024f\217\212"
 255      6FDDF0A3 
 255      3A2263F3 
 255      3D14668F 
 255      8A
 256 04c9 EC516497 		.ascii	"\354Qd\227W\227tD\313\330We\3541\221=\206\354@\326\037"
 256      57977444 
 256      CBD85765 
 256      EC31913D 
 256      86EC40D6 
 257 04de 07A2646C 		.ascii	"\007\242dl\310\262\204=.\262\307\221]\345\370\247[\356"
 257      C8B2843D 
 257      2EB2C791 
 257      5DE5F8A7 
ARM GAS  C:\Users\Bruger\AppData\Local\Temp\ccfJSUX1.s 			page 20


 257      5BEE
 258 04f0 BB43A63D 		.ascii	"\273C\246=!\262'\220\335\360\314\177V!c\367\313\264"
 258      21B22790 
 258      DDF0CC7F 
 258      562163F7 
 258      CBB4
 259 0502 2745F624 		.ascii	"'E\366$\262o\025\325\347*e\354\012\231\266\037^\000"
 259      B26F15D5 
 259      E72A65EC 
 259      0A99B61F 
 259      5E00
 260 0514 31F5F0C9 		.ascii	"1\365\360\311\274\222\26019!!q\315\227\237'\257HN2\033"
 260      BC92B031 
 260      39212171 
 260      CD979F27 
 260      AF484E32 
 261 0529 D3CDAAD5 		.ascii	"\323\315\252\325_|\24370\257\2576m2\245\033\315\246"
 261      5F7CA337 
 261      30AFAF36 
 261      6D32A51B 
 261      CDA6
 262 053b EF9393D2 		.ascii	"\357\223\223\3222\323SL\353\022\223\322\014\357\254"
 262      32D3534C 
 262      EB1293D2 
 262      0CEFAC
 263 054a 93F097A7 		.ascii	"\223\360\227\2470\013\344\333\3236\253S,\031f\24393"
 263      300BE4DB 
 263      D336AB53 
 263      2C1966A3 
 263      3933
 264 055c 634984FD 		.ascii	"cI\204\375)\026\263e\263)cy*\023\225\271a\223y\245\212"
 264      2916B365 
 264      B3296379 
 264      2A1395B9 
 264      619379A5 
 265 0571 FFFBF65B 		.ascii	"\377\373\366[2\037\337\246o0\233\264\006\313\307?ff"
 265      321FDFA6 
 265      6F309BB4 
 265      06CBC73F 
 265      6666
 266 0583 A41A8C29 		.ascii	"\244\032\214)\251\246\305\021\324\014\226\3176|\007"
 266      A9A6C511 
 266      D40C96CF 
 266      367C07
 267 0592 5AA8B2E2 		.ascii	"Z\250\262\342]\235\301\202{\327\244\375\364\221\321"
 267      5D9DC182 
 267      7BD7A4FD 
 267      F491D1
 268 05a1 6C8CE481 		.ascii	"l\214\344\201W6f\244\302\276X\203%\311d\306YB\302\207"
 268      573666A4 
 268      C2BE5883 
 268      25C964C6 
 268      5942C287 
 269 05b5 99EBD79B 		.ascii	"\231\353\327\233\3225\270\364\265i\343fe\272\351\207"
 269      D235B8F4 
 269      B569E366 
 269      65BAE987 
ARM GAS  C:\Users\Bruger\AppData\Local\Temp\ccfJSUX1.s 			page 21


 270 05c5 95FF0281 		.ascii	"\225\377\002\201BE\340"
 270      4245E0
 271              		.text
 272              		.section	.gnu.lto_.symtab.24c0ca90,"",%progbits
 273 0000 456D5F45 		.ascii	"Em_EEPROM_1_Start\000\000\000\000\000\000\000\000\000"
 273      4550524F 
 273      4D5F315F 
 273      53746172 
 273      74000000 
 274 001a 000000AC 		.ascii	"\000\000\000\254\000\000\000Em_EEPROM_1_Stop\000\000"
 274      00000045 
 274      6D5F4545 
 274      50524F4D 
 274      5F315F53 
 275 0033 00000000 		.ascii	"\000\000\000\000\000\000\000\000\000\000\256\000\000"
 275      00000000 
 275      0000AE00 
 275      00
 276 0040 00456D5F 		.ascii	"\000Em_EEPROM_1_Write\000\000\000\000\000\000\000\000"
 276      45455052 
 276      4F4D5F31 
 276      5F577269 
 276      74650000 
 277 005a 00000000 		.ascii	"\000\000\000\000\303\000\000\000CyFlushCache\000\000"
 277      C3000000 
 277      4379466C 
 277      75736843 
 277      61636865 
 278 0070 02000000 		.ascii	"\002\000\000\000\000\000\000\000\000\000\305\000\000"
 278      00000000 
 278      0000C500 
 278      00
 279 007d 00437957 		.ascii	"\000CyWriteRowData\000\000\002\000\000\000\000\000\000"
 279      72697465 
 279      526F7744 
 279      61746100 
 279      00020000 
 280 0095 000000D2 		.ascii	"\000\000\000\322\000\000\000CySetFlashEEBuffer\000\000"
 280      00000043 
 280      79536574 
 280      466C6173 
 280      68454542 
 281 00b0 02000000 		.ascii	"\002\000\000\000\000\000\000\000\000\000\327\000\000"
 281      00000000 
 281      0000D700 
 281      00
 282 00bd 00437953 		.ascii	"\000CySetTemp\000\000\002\000\000\000\000\000\000\000"
 282      65745465 
 282      6D700000 
 282      02000000 
 282      00000000 
 283 00d1 0000DA00 		.ascii	"\000\000\332\000\000\000"
 283      0000
 284              		.text
 285              		.section	.gnu.lto_.opts,"",%progbits
 286 0000 272D666E 		.ascii	"'-fno-trapv' '-mcpu=cortex-m3' '-mthumb' '-g' '-O3'"
 286      6F2D7472 
ARM GAS  C:\Users\Bruger\AppData\Local\Temp\ccfJSUX1.s 			page 22


 286      61707627 
 286      20272D6D 
 286      6370753D 
 287 0033 20272D66 		.ascii	" '-ffunction-sections' '-finline-functions' '-flto'"
 287      66756E63 
 287      74696F6E 
 287      2D736563 
 287      74696F6E 
 288 0066 20272D66 		.ascii	" '-ffat-lto-objects'\000"
 288      6661742D 
 288      6C746F2D 
 288      6F626A65 
 288      63747327 
 289              		.text
 290              		.cfi_sections	.debug_frame
 291              		.section	.text.Em_EEPROM_1_Start,"ax",%progbits
 292              		.align	2
 293              		.global	Em_EEPROM_1_Start
 294              		.thumb
 295              		.thumb_func
 296              		.type	Em_EEPROM_1_Start, %function
 297              	Em_EEPROM_1_Start:
 298              	.LFB0:
 299              		.file 1 "Generated_Source\\PSoC5\\Em_EEPROM_1.c"
   1:Generated_Source\PSoC5/Em_EEPROM_1.c **** /*******************************************************************************
   2:Generated_Source\PSoC5/Em_EEPROM_1.c **** * File Name: Em_EEPROM_1.c
   3:Generated_Source\PSoC5/Em_EEPROM_1.c **** * Version 1.10
   4:Generated_Source\PSoC5/Em_EEPROM_1.c **** *
   5:Generated_Source\PSoC5/Em_EEPROM_1.c **** * Description:
   6:Generated_Source\PSoC5/Em_EEPROM_1.c **** *  This file provides the source code to API for the Emulated EEPROM Component.
   7:Generated_Source\PSoC5/Em_EEPROM_1.c **** *
   8:Generated_Source\PSoC5/Em_EEPROM_1.c **** ********************************************************************************
   9:Generated_Source\PSoC5/Em_EEPROM_1.c **** * Copyright 2013, Cypress Semiconductor Corporation.  All rights reserved.
  10:Generated_Source\PSoC5/Em_EEPROM_1.c **** * You may use this file only in accordance with the license, terms, conditions,
  11:Generated_Source\PSoC5/Em_EEPROM_1.c **** * disclaimers, and limitations in the end user license agreement accompanying
  12:Generated_Source\PSoC5/Em_EEPROM_1.c **** * the software package with which this file was provided.
  13:Generated_Source\PSoC5/Em_EEPROM_1.c **** *******************************************************************************/
  14:Generated_Source\PSoC5/Em_EEPROM_1.c **** 
  15:Generated_Source\PSoC5/Em_EEPROM_1.c **** #include "Em_EEPROM_1.h"
  16:Generated_Source\PSoC5/Em_EEPROM_1.c **** 
  17:Generated_Source\PSoC5/Em_EEPROM_1.c **** 
  18:Generated_Source\PSoC5/Em_EEPROM_1.c **** /*******************************************************************************
  19:Generated_Source\PSoC5/Em_EEPROM_1.c **** * Function Name: Em_EEPROM_1_Start
  20:Generated_Source\PSoC5/Em_EEPROM_1.c **** ********************************************************************************
  21:Generated_Source\PSoC5/Em_EEPROM_1.c **** *
  22:Generated_Source\PSoC5/Em_EEPROM_1.c **** * Summary:
  23:Generated_Source\PSoC5/Em_EEPROM_1.c **** *  Empty function. Included for consistency with other
  24:Generated_Source\PSoC5/Em_EEPROM_1.c **** *  components.
  25:Generated_Source\PSoC5/Em_EEPROM_1.c **** *
  26:Generated_Source\PSoC5/Em_EEPROM_1.c **** * Parameters:
  27:Generated_Source\PSoC5/Em_EEPROM_1.c **** *  None
  28:Generated_Source\PSoC5/Em_EEPROM_1.c **** *
  29:Generated_Source\PSoC5/Em_EEPROM_1.c **** * Return:
  30:Generated_Source\PSoC5/Em_EEPROM_1.c **** *  None
  31:Generated_Source\PSoC5/Em_EEPROM_1.c **** *
  32:Generated_Source\PSoC5/Em_EEPROM_1.c **** *******************************************************************************/
  33:Generated_Source\PSoC5/Em_EEPROM_1.c **** void Em_EEPROM_1_Start(void) 
ARM GAS  C:\Users\Bruger\AppData\Local\Temp\ccfJSUX1.s 			page 23


  34:Generated_Source\PSoC5/Em_EEPROM_1.c **** {
 300              		.loc 1 34 0
 301              		.cfi_startproc
 302              		@ args = 0, pretend = 0, frame = 0
 303              		@ frame_needed = 0, uses_anonymous_args = 0
 304              		@ link register save eliminated.
 305 0000 7047     		bx	lr
 306              		.cfi_endproc
 307              	.LFE0:
 308              		.size	Em_EEPROM_1_Start, .-Em_EEPROM_1_Start
 309 0002 00BF     		.section	.text.Em_EEPROM_1_Stop,"ax",%progbits
 310              		.align	2
 311              		.global	Em_EEPROM_1_Stop
 312              		.thumb
 313              		.thumb_func
 314              		.type	Em_EEPROM_1_Stop, %function
 315              	Em_EEPROM_1_Stop:
 316              	.LFB1:
  35:Generated_Source\PSoC5/Em_EEPROM_1.c **** 
  36:Generated_Source\PSoC5/Em_EEPROM_1.c **** }
  37:Generated_Source\PSoC5/Em_EEPROM_1.c **** 
  38:Generated_Source\PSoC5/Em_EEPROM_1.c **** 
  39:Generated_Source\PSoC5/Em_EEPROM_1.c **** /*******************************************************************************
  40:Generated_Source\PSoC5/Em_EEPROM_1.c **** * Function Name: Em_EEPROM_1_Stop
  41:Generated_Source\PSoC5/Em_EEPROM_1.c **** ********************************************************************************
  42:Generated_Source\PSoC5/Em_EEPROM_1.c **** *
  43:Generated_Source\PSoC5/Em_EEPROM_1.c **** * Summary:
  44:Generated_Source\PSoC5/Em_EEPROM_1.c **** *  Empty function. Included for consistency with other
  45:Generated_Source\PSoC5/Em_EEPROM_1.c **** *  components.
  46:Generated_Source\PSoC5/Em_EEPROM_1.c **** *
  47:Generated_Source\PSoC5/Em_EEPROM_1.c **** * Parameters:
  48:Generated_Source\PSoC5/Em_EEPROM_1.c **** *  None
  49:Generated_Source\PSoC5/Em_EEPROM_1.c **** *
  50:Generated_Source\PSoC5/Em_EEPROM_1.c **** * Return:
  51:Generated_Source\PSoC5/Em_EEPROM_1.c **** *  None
  52:Generated_Source\PSoC5/Em_EEPROM_1.c **** *
  53:Generated_Source\PSoC5/Em_EEPROM_1.c **** *******************************************************************************/
  54:Generated_Source\PSoC5/Em_EEPROM_1.c **** void Em_EEPROM_1_Stop(void) 
  55:Generated_Source\PSoC5/Em_EEPROM_1.c **** {
 317              		.loc 1 55 0
 318              		.cfi_startproc
 319              		@ args = 0, pretend = 0, frame = 0
 320              		@ frame_needed = 0, uses_anonymous_args = 0
 321              		@ link register save eliminated.
 322 0000 7047     		bx	lr
 323              		.cfi_endproc
 324              	.LFE1:
 325              		.size	Em_EEPROM_1_Stop, .-Em_EEPROM_1_Stop
 326 0002 00BF     		.section	.text.Em_EEPROM_1_Write,"ax",%progbits
 327              		.align	2
 328              		.global	Em_EEPROM_1_Write
 329              		.thumb
 330              		.thumb_func
 331              		.type	Em_EEPROM_1_Write, %function
 332              	Em_EEPROM_1_Write:
 333              	.LFB2:
  56:Generated_Source\PSoC5/Em_EEPROM_1.c **** 
ARM GAS  C:\Users\Bruger\AppData\Local\Temp\ccfJSUX1.s 			page 24


  57:Generated_Source\PSoC5/Em_EEPROM_1.c **** }
  58:Generated_Source\PSoC5/Em_EEPROM_1.c **** 
  59:Generated_Source\PSoC5/Em_EEPROM_1.c **** 
  60:Generated_Source\PSoC5/Em_EEPROM_1.c **** /*******************************************************************************
  61:Generated_Source\PSoC5/Em_EEPROM_1.c **** * Function Name: Em_EEPROM_1_Write
  62:Generated_Source\PSoC5/Em_EEPROM_1.c **** ********************************************************************************
  63:Generated_Source\PSoC5/Em_EEPROM_1.c **** *
  64:Generated_Source\PSoC5/Em_EEPROM_1.c **** * Summary:
  65:Generated_Source\PSoC5/Em_EEPROM_1.c **** *  Writes the specified number of bytes from the source buffer in SRAM to the
  66:Generated_Source\PSoC5/Em_EEPROM_1.c **** *  emulated EEPROM array in flash, without modifying other data in flash.
  67:Generated_Source\PSoC5/Em_EEPROM_1.c **** *
  68:Generated_Source\PSoC5/Em_EEPROM_1.c **** * Parameters:
  69:Generated_Source\PSoC5/Em_EEPROM_1.c **** *  srcBuf:    Pointer to the SRAM buffer holding the data to write.
  70:Generated_Source\PSoC5/Em_EEPROM_1.c **** *  eepromPtr: Pointer to the array or variable in flash representing
  71:Generated_Source\PSoC5/Em_EEPROM_1.c **** *             the emulated EEPROM.
  72:Generated_Source\PSoC5/Em_EEPROM_1.c **** *  byteCount: Number of bytes to write from srcBuf to eepromPtr.
  73:Generated_Source\PSoC5/Em_EEPROM_1.c **** *
  74:Generated_Source\PSoC5/Em_EEPROM_1.c **** * Return:
  75:Generated_Source\PSoC5/Em_EEPROM_1.c **** *    CYRET_SUCCESS     Successful write.
  76:Generated_Source\PSoC5/Em_EEPROM_1.c **** *    CYRET_BAD_PARAM   eepromPtr is out of range of flash memory.
  77:Generated_Source\PSoC5/Em_EEPROM_1.c **** *    CYRET_UNKNOWN     Other error in writing flash.
  78:Generated_Source\PSoC5/Em_EEPROM_1.c **** *
  79:Generated_Source\PSoC5/Em_EEPROM_1.c **** *******************************************************************************/
  80:Generated_Source\PSoC5/Em_EEPROM_1.c **** #if (CY_PSOC3)
  81:Generated_Source\PSoC5/Em_EEPROM_1.c ****     cystatus Em_EEPROM_1_Write(const uint8 srcBuf[], const uint8 eepromPtr[], uint16 byteCount)
  82:Generated_Source\PSoC5/Em_EEPROM_1.c ****                                                                             
  83:Generated_Source\PSoC5/Em_EEPROM_1.c **** #else
  84:Generated_Source\PSoC5/Em_EEPROM_1.c ****     cystatus Em_EEPROM_1_Write(const uint8 srcBuf[], const uint8 eepromPtr[], uint32 byteCount)
  85:Generated_Source\PSoC5/Em_EEPROM_1.c **** #endif /* (!CY_PSOC3) */
  86:Generated_Source\PSoC5/Em_EEPROM_1.c **** {
 334              		.loc 1 86 0
 335              		.cfi_startproc
 336              		@ args = 0, pretend = 0, frame = 552
 337              		@ frame_needed = 0, uses_anonymous_args = 0
 338              	.LVL0:
  87:Generated_Source\PSoC5/Em_EEPROM_1.c ****     uint8 writeBuffer[CY_FLASH_SIZEOF_ROW];
  88:Generated_Source\PSoC5/Em_EEPROM_1.c ****     uint32 arrayId;
  89:Generated_Source\PSoC5/Em_EEPROM_1.c ****     uint32 rowId;
  90:Generated_Source\PSoC5/Em_EEPROM_1.c ****     uint32 dstIndex;
  91:Generated_Source\PSoC5/Em_EEPROM_1.c ****     uint32 srcIndex;
  92:Generated_Source\PSoC5/Em_EEPROM_1.c ****     cystatus rc;
  93:Generated_Source\PSoC5/Em_EEPROM_1.c ****     uint32 eeOffset;
  94:Generated_Source\PSoC5/Em_EEPROM_1.c ****     uint32 byteOffset;
  95:Generated_Source\PSoC5/Em_EEPROM_1.c ****     
  96:Generated_Source\PSoC5/Em_EEPROM_1.c ****     #if (!CY_PSOC4)
  97:Generated_Source\PSoC5/Em_EEPROM_1.c ****         #if (CYDEV_ECC_ENABLE == 0)
  98:Generated_Source\PSoC5/Em_EEPROM_1.c ****             uint8 rowBuffer[CY_FLASH_SIZEOF_ROW + CY_FLASH_SIZEOF_ECC_ROW];
  99:Generated_Source\PSoC5/Em_EEPROM_1.c ****         #endif /* CYDEV_ECC_ENABLE == 0) */
 100:Generated_Source\PSoC5/Em_EEPROM_1.c ****     #endif /* (!CY_PSOC4) */
 101:Generated_Source\PSoC5/Em_EEPROM_1.c **** 
 102:Generated_Source\PSoC5/Em_EEPROM_1.c ****     eeOffset = (uint32)eepromPtr;
 103:Generated_Source\PSoC5/Em_EEPROM_1.c ****     #if (CY_PSOC3)
 104:Generated_Source\PSoC5/Em_EEPROM_1.c ****         eeOffset &= Em_EEPROM_1_CODE_ADDR_MASK;
 105:Generated_Source\PSoC5/Em_EEPROM_1.c ****     #endif /* (CY_PSOC3) */
 106:Generated_Source\PSoC5/Em_EEPROM_1.c **** 
 107:Generated_Source\PSoC5/Em_EEPROM_1.c ****     /* Make sure, that eepromPtr[] points to ROM */
 108:Generated_Source\PSoC5/Em_EEPROM_1.c ****     #if (CY_PSOC3)
ARM GAS  C:\Users\Bruger\AppData\Local\Temp\ccfJSUX1.s 			page 25


 109:Generated_Source\PSoC5/Em_EEPROM_1.c ****         if (((uint32)eepromPtr >= Em_EEPROM_1_CODE_ADDR_OFFSET) &&
 110:Generated_Source\PSoC5/Em_EEPROM_1.c ****             (((uint32)eepromPtr + byteCount) <= Em_EEPROM_1_CODE_ADDR_END))
 111:Generated_Source\PSoC5/Em_EEPROM_1.c ****     #else
 112:Generated_Source\PSoC5/Em_EEPROM_1.c ****         if (((uint32)eepromPtr + byteCount) < Em_EEPROM_1_FLASH_END_ADDR)
 339              		.loc 1 112 0
 340 0000 8B18     		adds	r3, r1, r2
 341 0002 B3F5802F 		cmp	r3, #262144
 342 0006 01D3     		bcc	.L25
 113:Generated_Source\PSoC5/Em_EEPROM_1.c ****     #endif /* (CY_PSOC3) */
 114:Generated_Source\PSoC5/Em_EEPROM_1.c ****     {
 115:Generated_Source\PSoC5/Em_EEPROM_1.c ****         #if (!CY_PSOC4)
 116:Generated_Source\PSoC5/Em_EEPROM_1.c ****             (void)CySetTemp();
 117:Generated_Source\PSoC5/Em_EEPROM_1.c **** 
 118:Generated_Source\PSoC5/Em_EEPROM_1.c ****             #if(CYDEV_ECC_ENABLE == 0)
 119:Generated_Source\PSoC5/Em_EEPROM_1.c ****                 (void)CySetFlashEEBuffer(rowBuffer);
 120:Generated_Source\PSoC5/Em_EEPROM_1.c ****             #endif
 121:Generated_Source\PSoC5/Em_EEPROM_1.c ****         #endif /* (!CY_PSOC4) */
 122:Generated_Source\PSoC5/Em_EEPROM_1.c **** 
 123:Generated_Source\PSoC5/Em_EEPROM_1.c ****         arrayId = eeOffset / CY_FLASH_SIZEOF_ARRAY;
 124:Generated_Source\PSoC5/Em_EEPROM_1.c ****         rowId = (eeOffset / CY_FLASH_SIZEOF_ROW) % Em_EEPROM_1_ROWS_IN_ARRAY;
 125:Generated_Source\PSoC5/Em_EEPROM_1.c ****         byteOffset = (CY_FLASH_SIZEOF_ARRAY * arrayId) + (CY_FLASH_SIZEOF_ROW * rowId);
 126:Generated_Source\PSoC5/Em_EEPROM_1.c ****         srcIndex = 0u;
 127:Generated_Source\PSoC5/Em_EEPROM_1.c **** 
 128:Generated_Source\PSoC5/Em_EEPROM_1.c ****         rc = CYRET_SUCCESS;
 129:Generated_Source\PSoC5/Em_EEPROM_1.c **** 
 130:Generated_Source\PSoC5/Em_EEPROM_1.c ****         while ((srcIndex < byteCount) && (CYRET_SUCCESS == rc))
 131:Generated_Source\PSoC5/Em_EEPROM_1.c ****         {
 132:Generated_Source\PSoC5/Em_EEPROM_1.c ****             /* Copy data to the write buffer either from the source buffer or from the flash */
 133:Generated_Source\PSoC5/Em_EEPROM_1.c ****             for (dstIndex = 0u; dstIndex < CY_FLASH_SIZEOF_ROW; dstIndex++)
 134:Generated_Source\PSoC5/Em_EEPROM_1.c ****             {
 135:Generated_Source\PSoC5/Em_EEPROM_1.c ****                 if ((byteOffset >= eeOffset) && (srcIndex < byteCount))
 136:Generated_Source\PSoC5/Em_EEPROM_1.c ****                 {
 137:Generated_Source\PSoC5/Em_EEPROM_1.c ****                     writeBuffer[dstIndex] = srcBuf[srcIndex];
 138:Generated_Source\PSoC5/Em_EEPROM_1.c ****                     srcIndex++;
 139:Generated_Source\PSoC5/Em_EEPROM_1.c ****                 }
 140:Generated_Source\PSoC5/Em_EEPROM_1.c ****                 else
 141:Generated_Source\PSoC5/Em_EEPROM_1.c ****                 {
 142:Generated_Source\PSoC5/Em_EEPROM_1.c ****                     writeBuffer[dstIndex] = CY_GET_XTND_REG8(CYDEV_FLASH_BASE + byteOffset);
 143:Generated_Source\PSoC5/Em_EEPROM_1.c ****                 }
 144:Generated_Source\PSoC5/Em_EEPROM_1.c ****                 byteOffset++;
 145:Generated_Source\PSoC5/Em_EEPROM_1.c ****             }
 146:Generated_Source\PSoC5/Em_EEPROM_1.c **** 
 147:Generated_Source\PSoC5/Em_EEPROM_1.c ****             /* Write flash row */
 148:Generated_Source\PSoC5/Em_EEPROM_1.c ****             #if (CY_PSOC4)
 149:Generated_Source\PSoC5/Em_EEPROM_1.c ****                 rc = CySysFlashWriteRow(rowId, writeBuffer);
 150:Generated_Source\PSoC5/Em_EEPROM_1.c ****             #else
 151:Generated_Source\PSoC5/Em_EEPROM_1.c ****                 rc = CyWriteRowData((uint8)arrayId, (uint16)rowId, writeBuffer);
 152:Generated_Source\PSoC5/Em_EEPROM_1.c ****             #endif /* (CY_PSOC4) */
 153:Generated_Source\PSoC5/Em_EEPROM_1.c **** 
 154:Generated_Source\PSoC5/Em_EEPROM_1.c ****             /* Go to the next row */
 155:Generated_Source\PSoC5/Em_EEPROM_1.c ****             rowId++;
 156:Generated_Source\PSoC5/Em_EEPROM_1.c ****             #if (CY_FLASH_NUMBER_ARRAYS > 1)
 157:Generated_Source\PSoC5/Em_EEPROM_1.c ****                 if (rowId >= Em_EEPROM_1_ROWS_IN_ARRAY)
 158:Generated_Source\PSoC5/Em_EEPROM_1.c ****                 {
 159:Generated_Source\PSoC5/Em_EEPROM_1.c ****                     arrayId++;
 160:Generated_Source\PSoC5/Em_EEPROM_1.c ****                     rowId = 0u;
 161:Generated_Source\PSoC5/Em_EEPROM_1.c ****                 }
ARM GAS  C:\Users\Bruger\AppData\Local\Temp\ccfJSUX1.s 			page 26


 162:Generated_Source\PSoC5/Em_EEPROM_1.c ****             #endif /* (CY_FLASH_NUMBER_ARRAYS > 1) */
 163:Generated_Source\PSoC5/Em_EEPROM_1.c ****         }
 164:Generated_Source\PSoC5/Em_EEPROM_1.c **** 
 165:Generated_Source\PSoC5/Em_EEPROM_1.c ****         /* Flush both Cache and PHUB prefetch buffer */
 166:Generated_Source\PSoC5/Em_EEPROM_1.c ****         #if (CY_PSOC5)
 167:Generated_Source\PSoC5/Em_EEPROM_1.c ****             CyFlushCache();
 168:Generated_Source\PSoC5/Em_EEPROM_1.c ****         #elif (CY_PSOC3)
 169:Generated_Source\PSoC5/Em_EEPROM_1.c ****             CY_FLASH_CONTROL_REG |= 6u;
 170:Generated_Source\PSoC5/Em_EEPROM_1.c ****         #endif /* (CY_PSOC5) */
 171:Generated_Source\PSoC5/Em_EEPROM_1.c ****     }
 172:Generated_Source\PSoC5/Em_EEPROM_1.c ****     else
 173:Generated_Source\PSoC5/Em_EEPROM_1.c ****     {
 174:Generated_Source\PSoC5/Em_EEPROM_1.c ****         rc = CYRET_BAD_PARAM;
 343              		.loc 1 174 0
 344 0008 0120     		movs	r0, #1
 345              	.LVL1:
 175:Generated_Source\PSoC5/Em_EEPROM_1.c ****     }
 176:Generated_Source\PSoC5/Em_EEPROM_1.c **** 
 177:Generated_Source\PSoC5/Em_EEPROM_1.c ****     /* Mask return codes from flash, if they are not supported */
 178:Generated_Source\PSoC5/Em_EEPROM_1.c ****     if ((CYRET_SUCCESS != rc) && (CYRET_BAD_PARAM != rc))
 179:Generated_Source\PSoC5/Em_EEPROM_1.c ****     {
 180:Generated_Source\PSoC5/Em_EEPROM_1.c ****         rc = CYRET_UNKNOWN;
 181:Generated_Source\PSoC5/Em_EEPROM_1.c ****     }
 182:Generated_Source\PSoC5/Em_EEPROM_1.c ****     
 183:Generated_Source\PSoC5/Em_EEPROM_1.c ****     return (rc);
 184:Generated_Source\PSoC5/Em_EEPROM_1.c **** }
 346              		.loc 1 184 0
 347 000a 7047     		bx	lr
 348              	.LVL2:
 349              	.L25:
  86:Generated_Source\PSoC5/Em_EEPROM_1.c ****     uint8 writeBuffer[CY_FLASH_SIZEOF_ROW];
 350              		.loc 1 86 0
 351 000c 2DE9F047 		push	{r4, r5, r6, r7, r8, r9, r10, lr}
 352              		.cfi_def_cfa_offset 32
 353              		.cfi_offset 4, -32
 354              		.cfi_offset 5, -28
 355              		.cfi_offset 6, -24
 356              		.cfi_offset 7, -20
 357              		.cfi_offset 8, -16
 358              		.cfi_offset 9, -12
 359              		.cfi_offset 10, -8
 360              		.cfi_offset 14, -4
 361 0010 0D46     		mov	r5, r1
 362 0012 1646     		mov	r6, r2
 363 0014 ADF50A7D 		sub	sp, sp, #552
 364              		.cfi_def_cfa_offset 584
 365 0018 0746     		mov	r7, r0
 123:Generated_Source\PSoC5/Em_EEPROM_1.c ****         rowId = (eeOffset / CY_FLASH_SIZEOF_ROW) % Em_EEPROM_1_ROWS_IN_ARRAY;
 366              		.loc 1 123 0
 367 001a 4FEA1549 		lsr	r9, r5, #16
 116:Generated_Source\PSoC5/Em_EEPROM_1.c **** 
 368              		.loc 1 116 0
 369 001e FFF7FEFF 		bl	CySetTemp
 370              	.LVL3:
 124:Generated_Source\PSoC5/Em_EEPROM_1.c ****         byteOffset = (CY_FLASH_SIZEOF_ARRAY * arrayId) + (CY_FLASH_SIZEOF_ROW * rowId);
 371              		.loc 1 124 0
 372 0022 C5F30728 		ubfx	r8, r5, #8, #8
ARM GAS  C:\Users\Bruger\AppData\Local\Temp\ccfJSUX1.s 			page 27


 119:Generated_Source\PSoC5/Em_EEPROM_1.c ****             #endif
 373              		.loc 1 119 0
 374 0026 42A8     		add	r0, sp, #264
 375 0028 FFF7FEFF 		bl	CySetFlashEEBuffer
 376              	.LVL4:
 125:Generated_Source\PSoC5/Em_EEPROM_1.c ****         srcIndex = 0u;
 377              		.loc 1 125 0
 378 002c 08EB0923 		add	r3, r8, r9, lsl #8
 379 0030 1B02     		lsls	r3, r3, #8
 380              	.LVL5:
 130:Generated_Source\PSoC5/Em_EEPROM_1.c ****         {
 381              		.loc 1 130 0
 382 0032 0022     		movs	r2, #0
 383 0034 002E     		cmp	r6, #0
 384 0036 3AD0     		beq	.L26
 385              	.LVL6:
 386              	.L12:
  86:Generated_Source\PSoC5/Em_EEPROM_1.c ****     uint8 writeBuffer[CY_FLASH_SIZEOF_ROW];
 387              		.loc 1 86 0 discriminator 1
 388 0038 1446     		mov	r4, r2
 389 003a 0DF10701 		add	r1, sp, #7
 390 003e 03F5807A 		add	r10, r3, #256
 391 0042 09E0     		b	.L9
 392              	.LVL7:
 393              	.L28:
 135:Generated_Source\PSoC5/Em_EEPROM_1.c ****                 {
 394              		.loc 1 135 0 discriminator 1
 395 0044 A642     		cmp	r6, r4
 396 0046 09D9     		bls	.L7
 137:Generated_Source\PSoC5/Em_EEPROM_1.c ****                     srcIndex++;
 397              		.loc 1 137 0
 398 0048 3A5D     		ldrb	r2, [r7, r4]	@ zero_extendqisi2
 144:Generated_Source\PSoC5/Em_EEPROM_1.c ****             }
 399              		.loc 1 144 0
 400 004a 0133     		adds	r3, r3, #1
 401              	.LVL8:
 133:Generated_Source\PSoC5/Em_EEPROM_1.c ****             {
 402              		.loc 1 133 0
 403 004c 5345     		cmp	r3, r10
 138:Generated_Source\PSoC5/Em_EEPROM_1.c ****                 }
 404              		.loc 1 138 0
 405 004e 04F10104 		add	r4, r4, #1
 406              	.LVL9:
 407 0052 01F8012F 		strb	r2, [r1, #1]!
 408              	.LVL10:
 133:Generated_Source\PSoC5/Em_EEPROM_1.c ****             {
 409              		.loc 1 133 0
 410 0056 08D0     		beq	.L27
 411              	.LVL11:
 412              	.L9:
 135:Generated_Source\PSoC5/Em_EEPROM_1.c ****                 {
 413              		.loc 1 135 0
 414 0058 9D42     		cmp	r5, r3
 415 005a F3D9     		bls	.L28
 416              	.L7:
 142:Generated_Source\PSoC5/Em_EEPROM_1.c ****                 }
 417              		.loc 1 142 0
ARM GAS  C:\Users\Bruger\AppData\Local\Temp\ccfJSUX1.s 			page 28


 418 005c 1A78     		ldrb	r2, [r3]	@ zero_extendqisi2
 144:Generated_Source\PSoC5/Em_EEPROM_1.c ****             }
 419              		.loc 1 144 0
 420 005e 0133     		adds	r3, r3, #1
 421              	.LVL12:
 142:Generated_Source\PSoC5/Em_EEPROM_1.c ****                 }
 422              		.loc 1 142 0
 423 0060 D2B2     		uxtb	r2, r2
 133:Generated_Source\PSoC5/Em_EEPROM_1.c ****             {
 424              		.loc 1 133 0
 425 0062 5345     		cmp	r3, r10
 426 0064 01F8012F 		strb	r2, [r1, #1]!
 427              	.LVL13:
 428 0068 F6D1     		bne	.L9
 429              	.L27:
 151:Generated_Source\PSoC5/Em_EEPROM_1.c ****             #endif /* (CY_PSOC4) */
 430              		.loc 1 151 0
 431 006a 5FFA89F0 		uxtb	r0, r9
 432 006e 1FFA88F1 		uxth	r1, r8
 433 0072 02AA     		add	r2, sp, #8
 155:Generated_Source\PSoC5/Em_EEPROM_1.c ****             #if (CY_FLASH_NUMBER_ARRAYS > 1)
 434              		.loc 1 155 0
 435 0074 08F10108 		add	r8, r8, #1
 436              	.LVL14:
 151:Generated_Source\PSoC5/Em_EEPROM_1.c ****             #endif /* (CY_PSOC4) */
 437              		.loc 1 151 0
 438 0078 FFF7FEFF 		bl	CyWriteRowData
 439              	.LVL15:
 157:Generated_Source\PSoC5/Em_EEPROM_1.c ****                 {
 440              		.loc 1 157 0
 441 007c B8F5807F 		cmp	r8, #256
 159:Generated_Source\PSoC5/Em_EEPROM_1.c ****                     rowId = 0u;
 442              		.loc 1 159 0
 443 0080 04BF     		itt	eq
 444 0082 09F10109 		addeq	r9, r9, #1
 445              	.LVL16:
 160:Generated_Source\PSoC5/Em_EEPROM_1.c ****                 }
 446              		.loc 1 160 0
 447 0086 4FF00008 		moveq	r8, #0
 448              	.LVL17:
 130:Generated_Source\PSoC5/Em_EEPROM_1.c ****         {
 449              		.loc 1 130 0
 450 008a A642     		cmp	r6, r4
 451 008c 2246     		mov	r2, r4
 452 008e 02D9     		bls	.L11
 453              	.LVL18:
 454 0090 5346     		mov	r3, r10
 130:Generated_Source\PSoC5/Em_EEPROM_1.c ****         {
 455              		.loc 1 130 0 is_stmt 0 discriminator 1
 456 0092 0028     		cmp	r0, #0
 457 0094 D0D0     		beq	.L12
 458              	.L11:
 459 0096 0190     		str	r0, [sp, #4]
 167:Generated_Source\PSoC5/Em_EEPROM_1.c ****         #elif (CY_PSOC3)
 460              		.loc 1 167 0 is_stmt 1
 461 0098 FFF7FEFF 		bl	CyFlushCache
 462              	.LVL19:
ARM GAS  C:\Users\Bruger\AppData\Local\Temp\ccfJSUX1.s 			page 29


 180:Generated_Source\PSoC5/Em_EEPROM_1.c ****     }
 463              		.loc 1 180 0
 464 009c 0198     		ldr	r0, [sp, #4]
 465 009e 0228     		cmp	r0, #2
 466 00a0 28BF     		it	cs
 467 00a2 4FF0FF30 		movcs	r0, #-1
 468              	.LVL20:
 469              	.L21:
 470              		.loc 1 184 0
 471 00a6 0DF50A7D 		add	sp, sp, #552
 472              		.cfi_remember_state
 473              		.cfi_def_cfa_offset 32
 474              		@ sp needed
 475 00aa BDE8F087 		pop	{r4, r5, r6, r7, r8, r9, r10, pc}
 476              	.LVL21:
 477              	.L26:
 478              		.cfi_restore_state
 167:Generated_Source\PSoC5/Em_EEPROM_1.c ****         #elif (CY_PSOC3)
 479              		.loc 1 167 0
 480 00ae FFF7FEFF 		bl	CyFlushCache
 481              	.LVL22:
 128:Generated_Source\PSoC5/Em_EEPROM_1.c **** 
 482              		.loc 1 128 0
 483 00b2 3046     		mov	r0, r6
 484              	.LVL23:
 485 00b4 F7E7     		b	.L21
 486              		.cfi_endproc
 487              	.LFE2:
 488              		.size	Em_EEPROM_1_Write, .-Em_EEPROM_1_Write
 489 00b6 00BF     		.text
 490              	.Letext0:
 491              		.file 2 "Generated_Source\\PSoC5\\cytypes.h"
 492              		.file 3 "Generated_Source\\PSoC5\\CyFlash.h"
 493              		.file 4 "Generated_Source\\PSoC5\\CyLib.h"