ARM GAS  C:\Users\Bruger\AppData\Local\Temp\cco4ImQQ.s 			page 1


   1              		.syntax unified
   2              		.cpu cortex-m3
   3              		.fpu softvfp
   4              		.eabi_attribute 20, 1
   5              		.eabi_attribute 21, 1
   6              		.eabi_attribute 23, 3
   7              		.eabi_attribute 24, 1
   8              		.eabi_attribute 25, 1
   9              		.eabi_attribute 26, 1
  10              		.eabi_attribute 30, 2
  11              		.eabi_attribute 34, 1
  12              		.eabi_attribute 18, 4
  13              		.thumb
  14              		.file	"HW_INT.c"
  15              		.text
  16              	.Ltext0:
  17              		.section	.gnu.lto_.profile.24c06d57,"",%progbits
  18 0000 789C6366 		.ascii	"x\234cf```a\200\000F\006s-\000\001\014\000j"
  18      60606061 
  18      80004606 
  18      732D0001 
  18      0C006A
  19              		.text
  20              		.section	.gnu.lto_.jmpfuncs.24c06d57,"",%progbits
  21 0000 789C6DCA 		.ascii	"x\234m\312K\016\000\020\020\004\321j\023\177\316\342"
  21      4B0E0010 
  21      1004D16A 
  21      137FCEE2 
  22 0010 88AE8EB0 		.ascii	"\210\256\216\260\324I\345m\332\370o<\373N\340$M\003"
  22      D449E56D 
  22      DAF86F3C 
  22      FB4EE024 
  22      4D03
  23 0022 7F0C108F 		.ascii	"\177\014\020\217\0112\024\250\320\356u\001=\340\002"
  23      093214A8 
  23      D0EE7501 
  23      3DE002
  24 0031 1D       		.ascii	"\035"
  25              		.text
  26              		.section	.gnu.lto_.inline.24c06d57,"",%progbits
  27 0000 789C6DCD 		.ascii	"x\234m\315K\015\200@\014\004\320\331_w\371\005\011\353"
  27      4B0D8040 
  27      0C04D0D9 
  27      5F77F905 
  27      09EB
  28 0012 00094840 		.ascii	"\000\011H@\033\022\220\202\004\244 \201YHz)\275\264"
  28      1B129082 
  28      04A42081 
  28      59487A29 
  28      BDB4
  29 0024 79334903 		.ascii	"y3I\003\376\307\271oO@\360\016\236\247\034\325\277\021"
  29      FEC7B96F 
  29      4F40F00E 
  29      9EA71CD5 
  29      BF11
  30 0036 4AA6F4FB 		.ascii	"J\246\364\373\246\344-\005H\"\311\275(%\244H\212GU\022"
  30      A6E42D05 
ARM GAS  C:\Users\Bruger\AppData\Local\Temp\cco4ImQQ.s 			page 2


  30      4822C9BD 
  30      2825A448 
  30      8A475512 
  31 004a 4BB991E3 		.ascii	"K\271\221\343\027>\276\346\217y\304\226\025[\357\020"
  31      173EBEE6 
  31      8F79C496 
  31      155BEF10 
  32 005a 0349AB9C 		.ascii	"\003I\253\234\036YH\345\\\225\006\333\032-M\226\360"
  32      1E5948E5 
  32      5C9506DB 
  32      1A2D4D96 
  32      F0
  33 006b 0006AE16 		.ascii	"\000\006\256\026\267"
  33      B7
  34              		.text
  35              		.section	.gnu.lto_.pureconst.24c06d57,"",%progbits
  36 0000 789C25C1 		.ascii	"x\234%\301\311\021\000 \010\004\301E\012OH`\314?O\037"
  36      C9110020 
  36      0804C145 
  36      0A4F4860 
  36      CC3F4F1F 
  37 0014 76BBA4AB 		.ascii	"v\273\244\253\257$\243\341\004=\006\223\305\346\220"
  37      AF24A3E1 
  37      043D0693 
  37      C5E690
  38 0023 140F1643 		.ascii	"\024\017\026C\001\246"
  38      01A6
  39              		.text
  40              		.section	.gnu.lto_HW_INT_Interrupt.24c06d57,"",%progbits
  41 0000 789C6366 		.ascii	"x\234cf\300\004R@\\\002\304J@\314\310\314\300\3104\341"
  41      C0045240 
  41      5C02C44A 
  41      40CCC8CC 
  41      C0C834E1 
  42 0014 1C034323 		.ascii	"\034\003C#\007\023##\210\301\300\310P\317\304X\317\370"
  42      07132323 
  42      88C1C0C8 
  42      50CFC458 
  42      CFF8
  43 0026 92E92313 		.ascii	"\222\351#\023\343\204\003\253gp\253/mhh\370\320t\223"
  43      E38403AB 
  43      6770AB2F 
  43      6D6868F8 
  43      D07493
  44 0039 A555E227 		.ascii	"\245U\342'\023\003\303g&\2101\214\313\031\325\031\200"
  44      1303C367 
  44      2688318C 
  44      CB19D519 
  44      80
  45 004a 6A3EB6FC 		.ascii	"j>\266\374\275\316\315\326\002T#\000\221c\\\301\310"
  45      BDCECDD6 
  45      02542300 
  45      91635CC1 
  45      C8
  46 005b C608A4D7 		.ascii	"\306\010\244\327\013\035h\370\377\377\362\223C[\270"
  46      0B1D68F8 
  46      FFFFF293 
ARM GAS  C:\Users\Bruger\AppData\Local\Temp\cco4ImQQ.s 			page 3


  46      435BB8
  47 006a 81C24F80 		.ascii	"\201\302O\200\030d\376S&&\020\315|\217\221\021\244\020"
  47      1864FE53 
  47      262610CD 
  47      7C8F9111 
  47      A410
  48 007c 64D21326 		.ascii	"d\322\023&F\220\020P\201\202{j^jQbIjJ|p~iQrjL@p\276"
  48      46901050 
  48      81827B6A 
  48      5E6A5162 
  48      496A4A7C 
  49 009a B3698C47 		.ascii	"\263i\214Gx\274\247_\210^2\003\000\374\0104]"
  49      78BCA75F 
  49      885E3203 
  49      00FC0834 
  49      5D
  50              		.text
  51              		.section	.gnu.lto_HW_INT_Start.24c06d57,"",%progbits
  52 0000 789C7593 		.ascii	"x\234u\223]H\223Q\034\306\317\377\274\333\273\351\246"
  52      5D489351 
  52      1CC6CFFF 
  52      BCDBBBE9 
  52      A6
  53 0011 48175DEC 		.ascii	"H\027]\354&a\027\022D\220\320MWR\320\307M\010Jy!\310"
  53      26611712 
  53      4490D04D 
  53      5752D0C7 
  53      4D084A79 
  54 0027 D25D08D5 		.ascii	"\322]\010\325b\332E\027\341;\035\3152l\212\225h3\304"
  54      62DA4517 
  54      E13B1DCD 
  54      326C8A95 
  54      6833C4
  55 003a EC6BA6DB 		.ascii	"\354k\246\333\234\326\264\332\353\264\265>\314>0\311"
  55      9CD6B4DA 
  55      EBB4B53E 
  55      CC3E30C9 
  56 004a 8B54D842 		.ascii	"\213T\330B3PS\322\025\266\316\377l\216\2345\030\357"
  56      335053D2 
  56      15B6CEFF 
  56      6C8E9C35 
  56      18EF
  57 005c CED7B3E7 		.ascii	"\316\327\263\347\371\275\317\021\310\326\217\216}s\025"
  57      F9BDCF11 
  57      C8D68F8E 
  57      7D7315
  58 006b 84EC674F 		.ascii	"\204\354gO\020\010P\373\033B,j\012\200?\010\220*\012"
  58      100850FB 
  58      1B422C6A 
  58      0A803F08 
  58      902A0A
  59 007e 55304797 		.ascii	"U0G\227(\330eg\263&\247S\222\244\305\367c\226|\031\242"
  59      28D86567 
  59      B326A753 
  59      92A4C5F7 
  59      63967C19 
  60 0093 9490651A 		.ascii	"\224\220e\032\327\201;\220C\330\246%\353\372\204F\264"
ARM GAS  C:\Users\Bruger\AppData\Local\Temp\cco4ImQQ.s 			page 4


  60      D7813B90 
  60      43D8A625 
  60      EBFA8446 
  60      B4
  61 00a4 B24D59F1 		.ascii	"\262MY\3615\270\013\"\260\007[\353\233\231u*\004=\340"
  61      35B80B22 
  61      B0075BEB 
  61      9B99752A 
  61      043DE0
  62 00b7 3E5FF7CA 		.ascii	">_\367\312\250f\226F)d\343p\2401\324,\342\220*p\270"
  62      A8669646 
  62      2964E370 
  62      A031D42C 
  62      E2902A70 
  63 00cc E06C1F57 		.ascii	"\340l\037W\350\333%\251z\272\305\366J+\205$\353t,\266"
  63      E8DB25A9 
  63      7ABAC5F6 
  63      4A2B8524 
  63      EB742CB6 
  64 00e0 234A05B8 		.ascii	"#J\005\270\007\002\323\205\373\240\003'\350\022)\240"
  64      0702D385 
  64      FBA00327 
  64      E81229A0 
  65 00f0 0BF43DDB 		.ascii	"\013\364=\333d)\026\353\365\017yE\025\3453\204\204\231"
  65      642916EB 
  65      F50F7945 
  65      15E53384 
  65      8499
  66 0102 03CC11A1 		.ascii	"\003\314\021\241\024\237\302$\004\026]\341\253\252M"
  66      149FC224 
  66      04165DE1 
  66      ABAA4D
  67 0111 46E58620 		.ascii	"F\345\206 \3456\227)\244F\200\007 2\371n\020\331B\303"
  67      E5369729 
  67      A4468007 
  67      2032F96E 
  67      10D942C3 
  68 0125 826D341D 		.ascii	"\202m4\035M*\244\341\032)\023\367N\205\307\336\251\371"
  68      4D2AA4E1 
  68      1A2913F7 
  68      4E85C7DE 
  68      A9F9
  69 0137 14C1A13C 		.ascii	"\024\301\241<5\3766\323\001\255\226&\213:J\225\320\303"
  69      35FE36D3 
  69      01AD9626 
  69      8B3A4A95 
  69      D0C3
  70 0149 5CBAD025 		.ascii	"\\\272\320%\270\301\201\010nN\\\374\231\211\373\225"
  70      B8C18108 
  70      6E4E5CFC 
  70      9989FB95 
  71 0159 79043C6C 		.ascii	"y\004<l\345#Tg\341I\373\374\247+Z!\227\033\360\270\327"
  71      E5235467 
  71      E149FBFC 
  71      A72B5A21 
  71      971BF0B8 
  72 016e 6CAA78FA 		.ascii	"l\252x\372\365.1\231]\204\336\177f\367\202\236\035j"
ARM GAS  C:\Users\Bruger\AppData\Local\Temp\cco4ImQQ.s 			page 5


  72      F52E3199 
  72      5D84DE7F 
  72      66F7829E 
  72      1D6A
  73 0180 FB50DF4D 		.ascii	"\373P\337M\317\377\222j\245\351\272\016\366jT\313\224"
  73      CFFF926A 
  73      A5E9BA0E 
  73      F66A54CB 
  73      94
  74 0191 6228027D 		.ascii	"b(\002}p\236LB\365\217K_|E\233\203_\017R<\235\010/\244"
  74      709E4C42 
  74      F58F4B5F 
  74      7C459B83 
  74      5F0F523C 
  75 01a9 84E708A1 		.ascii	"\204\347\010\241\237\003x\010\342*\305\022xF\352l\024"
  75      9F037808 
  75      E22AC512 
  75      7846EA6C 
  75      14
  76 01ba 03A86B27 		.ascii	"\003\250k'S\031\2509\203\210<\234\207\010\354\222\032"
  76      5319A839 
  76      83883C9C 
  76      8708EC92 
  76      1A
  77 01cb DFD72366 		.ascii	"\337\327#f\326\307\021\0140\004\230W\366\325oGA\324"
  77      D6C7110C 
  77      30049857 
  77      F6D56F47 
  77      41D4
  78 01dd 67A2E8ED 		.ascii	"g\242\350\355\232{\254c\017\316\261\363\257\233n\004"
  78      9A7BAC63 
  78      0FCEB1F3 
  78      AF9B6E04 
  79 01ed 94282714 		.ascii	"\224('\024q0\201\3659\015\352I\250\207.`\220\313=\216"
  79      713081F5 
  79      390DEA49 
  79      A8872E60 
  79      90CB3D8E 
  80 0201 13FD7FEE 		.ascii	"\023\375\177\356',\367\006\336\333\376\031\237R\330"
  80      272CF706 
  80      DEDBFE19 
  80      9F52D8
  81 0210 C7F1F6C8 		.ascii	"\307\361\366\310\203_3\022x\277)\2337\360\246\301\323"
  81      835F3312 
  81      78BF299B 
  81      37F0A6C1 
  81      D3
  82 0221 38DE5D3A 		.ascii	"8\336]:\330\231\204\353\347p[&\"+\002zJg\3532\373{V"
  82      D89984EB 
  82      E7705B26 
  82      222B027A 
  82      4A67EB32 
  83 0238 A44677D0 		.ascii	"\244Fw\320\232R$\007\343\351O\362Tl)\323\020g\031\340"
  83      9A522407 
  83      E3E94FF2 
  83      546C29D3 
  83      106719E0 
ARM GAS  C:\Users\Bruger\AppData\Local\Temp\cco4ImQQ.s 			page 6


  84 024c 31BD6BE1 		.ascii	"1\275k\341\232\014\224\324\\\010\245\202\324p\220\336"
  84      9A0C94D4 
  84      5C08A582 
  84      D47090DE 
  85 025c D6B65BDA 		.ascii	"\326\266[\332d\231\2640\314H\216\360\350\317\342\321"
  85      6499B430 
  85      CC488EF0 
  85      E8CFE2D1 
  86 026c 3D1D9DFD 		.ascii	"=\035\235\375i\334\025+S0\356j\321\265\332\224\342\252"
  86      69DC152B 
  86      5330EE6A 
  86      D1B5DA94 
  86      E2AA
  87 027e 37596FE5 		.ascii	"7Yo\345\026G\317\271\243\020w\364}^r(\342\365\016$\034"
  87      1647CFB9 
  87      A31077F4 
  87      7D5E7228 
  87      E2F50E24 
  88 0293 FD76452E 		.ascii	"\375vE.\323\277\372\374\"\331\347\227\314\002/\360g"
  88      D3BFFAFC 
  88      22D9E797 
  88      CC022FF0 
  88      67
  89 02a4 B0C87D07 		.ascii	"\260\310}\0079q\202\027\016\360\242\261k\227}\310x\332"
  89      39718217 
  89      0EF0A2B1 
  89      6B977DC8 
  89      78DA
  90 02b6 6836541A 		.ascii	"h6T\032\313J\012Lg\315\245\306\342\374\002\323\201\275"
  90      CB4A0A4C 
  90      67CDA5C6 
  90      E2FC02D3 
  90      81BD
  91 02c8 C5878F97 		.ascii	"\305\207\217\227\0349Z\270\273\224d\232\015\247\216"
  91      1C395AB8 
  91      BB94649A 
  91      0DA78E
  92 02d7 194B2B4D 		.ascii	"\031K+M\346B\303\211\223F\225\241\254\314l\254\250P"
  92      E642C389 
  92      934695A1 
  92      ACCC6CAC 
  92      A850
  93 02e9 9F31979B 		.ascii	"\2371\227\233\314\345\225\347\376\000Z?\237\004"
  93      CCE595E7 
  93      FE005A3F 
  93      9F04
  94              		.text
  95              		.section	.gnu.lto_HW_INT_StartEx.24c06d57,"",%progbits
  96 0000 789C6D53 		.ascii	"x\234mS_HSQ\034>\277s\257\333t:\244\207\220\275$\014"
  96      5F485351 
  96      1C3EBF73 
  96      AFDB743A 
  96      A48790BD 
  97 0016 9128841E 		.ascii	"\221(\204\036z\251\027\251\007\353%\002\245|0d\351\036"
  97      7AA917A9 
  97      07EB2502 
  97      A57C3064 
ARM GAS  C:\Users\Bruger\AppData\Local\Temp\cco4ImQQ.s 			page 7


  97      E91E
  98 0028 846A31ED 		.ascii	"\204j1\355\241'\357\346jYQS,D\263\022\263\254\225n\313"
  98      A127EFE6 
  98      6A595153 
  98      2C44B312 
  98      B3AC956E 
  99 003d 3F4D536F 		.ascii	"?MSo\233\351\372c\026a\246A*l\341\237@MI\027\350:\277"
  99      9BE9FA63 
  99      1661A641 
  99      2A6CE19F 
  99      404D4917 
 100 0054 B3397276 		.ascii	"\2639rv\341r\3569\347w\276\337\367}\367;\002\331\376"
 100      E172EE39 
 100      E777BEDF 
 100      F77DF73B 
 100      02D9FE
 101 0067 68D99B25 		.ascii	"h\331\233%\022r\210\215 \020\240\366\017\204\230U\024"
 101      1272888D 
 101      2010A0F6 
 101      0F849855 
 101      14
 102 0078 003F0890 		.ascii	"\000?\010\220r\012\3450K\227(\330eG\255:\263Y\222\244"
 102      720AE530 
 102      4B9728D8 
 102      6547AD3A 
 102      B35992A4 
 103 008c 454B4FDA 		.ascii	"EKO\332\245\264\020%d\231F`\340\021db\311\374\370\315"
 103      A5B41025 
 103      64994660 
 103      E0116462 
 103      C9FCF8CD 
 104 00a0 64410784 		.ascii	"dA\007\204}{ZW\206\32534D!\035\247\335\325\376Z\005"
 104      7D7B5A57 
 104      86D53334 
 104      44211DA7 
 104      DDD5FE5A 
 105 00b5 4EA988D3 		.ascii	"N\251\210\323\271\312Q\257\220\321$I\026\371\255[\312"
 105      B9CA51AF 
 105      90D12449 
 105      16F9AD5B 
 105      CA
 106 00c6 16435480 		.ascii	"\026CT\200\026\020\030\036<\006-<\001-aK\004\034\220"
 106      1610181E 
 106      3C062D3C 
 106      012D614B 
 106      041C90
 107 00d9 81E54BD6 		.ascii	"\201\345K\326\3651\265\302\312z\247Fz\302SP\000\033"
 107      F531B5C2 
 107      CA7AA746 
 107      7AC25350 
 107      001B
 108 00eb D85EC7F4 		.ascii	"\330^\307\364\214C\024\366\360\246\013\216\306QQ\327"
 108      8C4314F6 
 108      F0A60B8E 
 108      C65151D7 
 109 00fb C860A7EA 		.ascii	"\310`\247\352l\357\222%\277d\235\012\207w\205\250\010"
 109      6CEF9225 
ARM GAS  C:\Users\Bruger\AppData\Local\Temp\cco4ImQQ.s 			page 8


 109      BF649D0A 
 109      877785A8 
 109      08
 110 010c CFB6A247 		.ascii	"\317\266\242Gy\267\202\256m\207,\205\303\313?\253Z\016"
 110      79B782AE 
 110      6D872C85 
 110      C3CB3FAB 
 110      5A0E
 111 011e 828AF225 		.ascii	"\202\212\362%\001xc\022`\255\320\207 \2458\012\023\340"
 111      01786312 
 111      60ADD087 
 111      20A5380A 
 111      13E0
 112 0130 5D74066E 		.ascii	"]t\006n)\2670\222\273\206(\347\263L!\236+\264\201\202"
 112      29B73092 
 112      BB8628E7 
 112      B34C219E 
 112      2BB48182 
 113 0144 75718282 		.ascii	"uq\202\202mT-\330\206\223\320\202\004\311W!i\260v20"
 113      6D542DD8 
 113      8693D082 
 113      04C95721 
 113      69B07632 
 114 0159 F249C597 		.ascii	"\362I\305\227\010N\345\311\321\217\232\006\2507\327"
 114      084EE5C9 
 114      D18F9A06 
 114      A837D7
 115 0168 985521AA 		.ascii	"\230U!\252\000\027#\353F\262\360\034\032P\353\275\261"
 115      001723EB 
 115      46B2F01C 
 115      1A50EBBD 
 115      B1
 116 0179 CA3F1AAC 		.ascii	"\312?\032\254Wd\023hg;_\300\222\212'\335\2565\2332\""
 116      57641368 
 116      673B5FC0 
 116      928A27DD 
 116      AE359B32 
 117 018e FCABCF20 		.ascii	"\374\253\317 [\357K\033\3410\374\307\325\250\356\016"
 117      5BEF4B1B 
 117      E130FCC7 
 117      D5A8EE0E 
 118 019e D0AD327F 		.ascii	"\320\2552\177'\300\362\373\352\017O\376VA\275C\024\013"
 118      27C0F2FB 
 118      EA0F4FFE 
 118      5641BD43 
 118      140B
 119 01b0 A2A2689C 		.ascii	"\242\242h\234(4\210@'\027\326\005\212U\212\341p\017"
 119      28348840 
 119      2717D605 
 119      8A558AE1 
 119      700F
 120 01c2 5CB35124 		.ascii	"\\\263Q$\246\2742\021\257M\311\265\005e_6J\263K*\374"
 120      A6BC3211 
 120      AF4DC9B5 
 120      05655F36 
 120      4AB34B2A 
 121 01d7 1D2F181F 		.ascii	"\035/\030\037\017\227\326\315\244\241\016\331sc'\002"
ARM GAS  C:\Users\Bruger\AppData\Local\Temp\cco4ImQQ.s 			page 9


 121      0F97D6CD 
 121      A4A10ED9 
 121      73632702 
 122 01e7 223E0345 		.ascii	"\">\003En\267]#M\373p\215\235\177_s\307\233\200pb>\302"
 122      6EB75D23 
 122      4DFB708D 
 122      9D7F5F73 
 122      C79B8070 
 123 01fe D9BDEBB3 		.ascii	"\331\275\353\263j\304\223\020O`\007\240\207\303\275"
 123      6AC49310 
 123      4F6007A0 
 123      87C3BD
 124 020d 6470286D 		.ascii	"dp(m\323\231\207\375\323\236\004\341\000\3775mr\317"
 124      D39987FD 
 124      D39E04E1 
 124      00FF356D 
 124      72CF
 125 021f 5CCAA64B 		.ascii	"\\\312\246K\247d\363\246K*\350\215\270\264W\013\273"
 125      A764F3A6 
 125      4B2AE88D 
 125      B8B4570B 
 125      BB
 126 0230 631EF581 		.ascii	"c\036\365\201\216\235\251\033\013\256\010\3307\221\355"
 126      8E9DA91B 
 126      0BAE08D8 
 126      3791ED
 127 023f F7B3162C 		.ascii	"\367\263\026,\004\325\256Ak\\\010>3\317\372b\236\011"
 127      04D5AE41 
 127      6B5C083E 
 127      33CFFA62 
 127      9E09
 128 0251 DB822073 		.ascii	"\333\202 s\277^q)\355k\201\212\024\204L\272\354\217"
 128      BF5E7129 
 128      ED6B818A 
 128      14844CBA 
 128      EC8F
 129 0263 372B899B 		.ascii	"7+\211\233\325^\177\367Ar,\010j\3602\267|\\\336@$\010"
 129      D55E7FF7 
 129      41722C08 
 129      6AF032B7 
 129      7C5CDE40 
 130 0279 EEA6E6CE 		.ascii	"\356\246\346\316D\316\212\005\341u\204\325\242s\265"
 130      44CE8A05 
 130      E17584D5 
 130      A273B5
 131 0288 268ED578 		.ascii	"&\216\325x,\232\3426F\203\234\321\020g\364k^j\020#\321"
 131      2C9AE236 
 131      46839CD1 
 131      1067F46B 
 131      5E6A1023 
 132 029d F446196D 		.ascii	"\364F\031m8\203\327\351?Y\364\307\262\370\206Q\340\341"
 132      3883D7E9 
 132      3F59F4C7 
 132      B2F88651 
 132      E0E1
 133 02af FB0E66F9 		.ascii	"\373\016f\371[\016\342\243_\001\026\177vI\330\225I\317"
 133      5B0EE2A3 
ARM GAS  C:\Users\Bruger\AppData\Local\Temp\cco4ImQQ.s 			page 10


 133      5F01167F 
 133      7649D895 
 133      49CF
 134 02c1 319C3398 		.ascii	"1\2343\230\364e\206\342\302\\\343\005S\221\241\340x"
 134      F46586E2 
 134      C25CE305 
 134      5391A1E0 
 134      78
 135 02d2 AEF1F0FE 		.ascii	"\256\361\360\376\202#'\013\217\036\313\313*\"J}q\261"
 135      8223270B 
 135      8F1ECBCB 
 135      2A224A7D 
 135      71B1
 136 02e4 C9505AAA 		.ascii	"\311PZ\2521\351\317\2360\024\225\031My\372\323g\014"
 136      31E9CF9E 
 136      30149519 
 136      4D79FAD3 
 136      670C
 137 02f6 AAF3A612 		.ascii	"\252\363\246\022\243\251\244\354\342_H\376\231\252"
 137      A3A9A4EC 
 137      E25F48FE 
 137      99AA
 138              		.text
 139              		.section	.gnu.lto_HW_INT_Stop.24c06d57,"",%progbits
 140 0000 789C7552 		.ascii	"x\234uR]HSa\030\376\336\367lg\207&C\272\010\331M\302"
 140      5D485361 
 140      18FEDEF7 
 140      6C678726 
 140      43BA08D9 
 141 0016 2E761714 		.ascii	".v\027\024t\321\235\320E?\027\021(\345\205 k;w\325`"
 141      74D19DD0 
 141      453F1711 
 141      28E58520 
 141      6B3B77D5 
 142 002b DAA5F86D 		.ascii	"\332\245\370m-f\005k\211\205\224V\022\222\265\232nf"
 142      2D66056B 
 142      89859456 
 142      1292B59A 
 142      6E66
 143 003d 352D38CC 		.ascii	"5-8\314\"\261\314F\250\264\213\\1C\351BeQ\235\302N\337"
 143      22B1CC46 
 143      A8B48B5C 
 143      3143E942 
 143      65519DC2 
 144 0053 FBCD1B57 		.ascii	"\373\315\033W\0358\274\347\375{x\236\347\274\012\373"
 144      1D38BCE7 
 144      FD7B789E 
 144      E7BC0AFB 
 145 0063 FB718B37 		.ascii	"\373q\2137\217\214\355\023\021\024\006\230x\303XXC\000"
 145      8F8CED13 
 145      11140698 
 145      78C35858 
 145      4300
 146 0075 FA60C03A 		.ascii	"\372`\300:\021:a\005\327\021\022F\262\327\351\035\344"
 146      113A6105 
 146      D7111246 
 146      B2D7E91D 
ARM GAS  C:\Users\Bruger\AppData\Local\Temp\cco4ImQQ.s 			page 11


 146      E4
 147 0086 9CAF7DCA 		.ascii	"\234\257}\312\327\235\2533\305Z\031+0p\007\274L\314"
 147      D79DAB33 
 147      C55A192B 
 147      307007BC 
 147      4CCC
 148 0098 AC473716 		.ascii	"\254G7\026\234jT\314\324Vz0\004*\210 zc\037\227\223"
 148      9C6A54CC 
 148      D4567A30 
 148      042A8820 
 148      7A631F97 
 149 00ad 36C50334 		.ascii	"6\305\0034\227M}\235q.\243\211PO\351x\367T\257J)\332"
 149      974D7D9D 
 149      712EA389 
 149      504FE978 
 149      F754AF4A 
 150 00c3 285D4D0E 		.ascii	"(]M\016\314\331<\003\234G\212\327b\257j\370\024\217"
 150      CCD93C03 
 150      9C478AD7 
 150      62AF6AF8 
 150      148F
 151 00d5 162D6BA7 		.ascii	"\026-k\247\211\012\334\005E\340\302=pC\022\334\233\""
 151      890ADC05 
 151      45E0C23D 
 151      704312DC 
 151      9B22
 152 00e7 E03E7886 		.ascii	"\340>x\206\267\033\334\262\312/\273\207\274hGYb\254"
 152      B71BDCB2 
 152      CA2FBB87 
 152      BC684759 
 152      62AC
 153 00f9 2428908E 		.ascii	"$(\220\216%D\212J\001rk#\245+\216-L\215\321i\224<\313"
 153      25448A4A 
 153      01726B23 
 153      A52B8E2D 
 153      4C8DD169 
 154 0110 08D51AE0 		.ascii	"\010\325\032\340\001\250\002?\005\252h\\^\215\315l#"
 154      01A8023F 
 154      05AA685C 
 154      5E8DCD6C 
 154      23
 155 0121 96363E79 		.ascii	"\2266>y\226\273hv\2614\233\327d\211Qj,\316\275u\365"
 155      96BB6876 
 155      B1349BD7 
 155      6489516A 
 155      2CCEBD75 
 156 0136 C3F5704F 		.ascii	"\303\365pOX3\321\016\303\202\346\010\321\2044\364\223"
 156      5833D10E 
 156      C382E608 
 156      D18434F4 
 156      93
 157 0147 073717CE 		.ascii	"\0077\027\316\377t\321\274\275\201AFt\346!RK\233\211"
 157      FF74D1BC 
 157      BD814146 
 157      74E62152 
 157      4B9B89
 158 015a 2FEF2FD5 		.ascii	"/\357/\325({$\201L\372G\314Q\221\037\177\241\033\321"
ARM GAS  C:\Users\Bruger\AppData\Local\Temp\cco4ImQQ.s 			page 12


 158      287B2481 
 158      4CFA47CC 
 158      51911F7F 
 158      A11BD1
 159 016d 5BFCB765 		.ascii	"[\374\267e\201\211*\214\376S\375C\360\210\255\033\357"
 159      81892A8C 
 159      FE53FD43 
 159      F088AD1B 
 159      EF
 160 017e E229ECF8 		.ascii	"\342)\354\370\305\273x\261oPL;\312\210\244\212\301\030"
 160      C5BB78B1 
 160      6F504C3B 
 160      CA88A48A 
 160      C118
 161 0190 74B00244 		.ascii	"t\260\002D\276]\370\234m\336\252<;\215\264\275\251^"
 161      BE5DF89C 
 161      6DDEAA3C 
 161      3B8DB4BD 
 161      A95E
 162 01a2 A9522F3D 		.ascii	"\251R/=\204G\322\201\307\240~G\272\202\314\363\2131"
 162      8447D281 
 162      C7A07E47 
 162      BA82CCF3 
 162      8B31
 163 01b4 24055A57 		.ascii	"$\005ZW\241\332\004M\232\260dL6\220\007\011\256\321"
 163      A1DA044D 
 163      9AB0644C 
 163      36900709 
 163      AED1
 164 01c6 1F7B22C8 		.ascii	"\037{\"\310f\245\007\343\302\003\022ld\343;\010\220"
 164      66A507E3 
 164      C203126C 
 164      64E33B08 
 164      90
 165 01d7 F0052871 		.ascii	"\360\005(q\273\232\236\275\275\233jb\377uO_\316NpJ\263"
 165      BB9A9EBD 
 165      BD9B6A62 
 165      FF754F5F 
 165      CE4E704A 
 166 01ec 7426B7B1 		.ascii	"t&\267\261\342$<Nx\304\002&$\334\323\212\245\377\327"
 166      E2243C4E 
 166      78C40226 
 166      24DCD38A 
 166      A5FFD7
 167 01ff FD4CE8FE 		.ascii	"\375L\350\376\000ac\342\260\314\031\335\003\320\035"
 167      006163E2 
 167      B0CC19DD 
 167      03D01D
 168 020e 88ABA83F 		.ascii	"\210\253\250?\240\237\326C\276v=\320\332\030<\023\362"
 168      A09FD643 
 168      BE763DD0 
 168      DA183C13 
 168      F2
 169 021f EB2D471B 		.ascii	"\353-G\033\203\373\367\266\034<\336z\350H\323.?s\205"
 169      83FBF7B6 
 169      1C3CDE7A 
 169      E848D32E 
ARM GAS  C:\Users\Bruger\AppData\Local\Temp\cco4ImQQ.s 			page 13


 169      3F7385
 170 0232 7CA78EE9 		.ascii	"|\247\216\351\376\366`\250\311w\342\244\356\360\005"
 170      FEF660A8 
 170      C977E2A4 
 170      EEF005
 171 0241 0221BDAD 		.ascii	"\002!\275\255\355\017\247d\033\275"
 171      ED0FA764 
 171      1BBD
 172              		.text
 173              		.section	.gnu.lto_HW_INT_SetVector.24c06d57,"",%progbits
 174 0000 789C6590 		.ascii	"x\234e\220?hSQ\024\306\317w\356K,$\024q*YZ\010%C\241"
 174      3F685351 
 174      14C6CF77 
 174      EE4B2C24 
 174      14712A59 
 175 0019 E0E0E026 		.ascii	"\340\340\340&8\250K\021Zj\205B\211\311\333\324\300k"
 175      38A84B11 
 175      5A6A8542 
 175      89C9DBD4 
 175      C06B
 176 002b 9D7B1323 		.ascii	"\235{\023#\265:\030\264H\251v(E\374\023mm\304\241.>"
 176      B53A18B4 
 176      48A97628 
 176      45FC136D 
 176      6DC4A12E 
 177 0040 8243C068 		.ascii	"\202C\300h\021\254b\007\255\030%UPK\304\222\241\304"
 177      11AC6207 
 177      AD182555 
 177      504BC492 
 177      A1C4
 178 0052 735E5CC4 		.ascii	"s^\\\304\013\227{\317\341|\277\363\235c\350\377\023"
 178      0B977BCF 
 178      E17CBFF3 
 178      9D63E8FF 
 178      13
 179 0063 935B01D1 		.ascii	"\223[\001\321Aya\010\\xI\224\355`@?\004\232dLb\213\267"
 179      41796108 
 179      5C784994 
 179      ED60403F 
 179      049A644C 
 180 007a 1905BF38 		.ascii	"\031\005\2778\033I\334\262\326\376\3145\272.t5\231\250"
 180      1B49DCB2 
 180      D6FECC35 
 180      BA2E7435 
 180      99A8
 181 008c C16D0C6E 		.ascii	"\301m\014n#\241%\337\336]\211\2328H\376\253K\277^D\352"
 181      23A125DF 
 181      DE5D899A 
 181      3848FEAB 
 181      4BBF5E44 
 182 00a1 DC64F468 		.ascii	"\334d\364h\370\344je6\254!;\032~\235^/\233\336Eks~\265"
 182      F8E46A65 
 182      36AC213B 
 182      1A7E9D5E 
 182      2F9BDE45 
 183 00b9 640F394D 		.ascii	"d\0179M6\270\003#<\334E\014\367\020#I\021\212\350\325"
 183      36B80323 
ARM GAS  C:\Users\Bruger\AppData\Local\Temp\cco4ImQQ.s 			page 14


 183      3CDC450C 
 183      F7102349 
 183      118AE8D5 
 184 00cd F2C71FEB 		.ascii	"\362\307\037\353E\307\364\005\340\037\305\205u'\276"
 184      45C7F405 
 184      E01FC585 
 184      7527BE
 185 00dc 20D2CDB9 		.ascii	" \322\315\271\251\347Q[\261\371\315V\253\273\311\016"
 185      A9E7515B 
 185      B1F9CD56 
 185      ABBBC90E 
 186 00ec EEFF4B68 		.ascii	"\356\377Kh\037\221l\347w\337F\302y\261\276\027\017\020"
 186      1F916CE7 
 186      77DF46C2 
 186      79B1BE17 
 186      0F10
 187 00fe 6FDBC612 		.ascii	"o\333\306\022\302294\263\274\317\267\255V\243z\255\236"
 187      C2323934 
 187      B3BCCFB7 
 187      AD56A37A 
 187      AD9E
 188 0110 30212148 		.ascii	"0!!H\312 hN5\251\325]|f\326\327l \367\373\322\227\325"
 188      CA20684E 
 188      35A9D55D 
 188      7C66D6D7 
 188      6C20F7FB 
 189 0127 1195EFB0 		.ascii	"\021\225\357\260.\246\364\354\362\024\353h\241\213\033"
 189      2EA6F4EC 
 189      F214EB68 
 189      A18B1B
 190 0136 E76DA736 		.ascii	"\347m\2476\374P[{\325\021\244\202\376\257?M\177\217"
 190      FC505B7B 
 190      D511A482 
 190      FEAF3F4D 
 190      7F8F
 191 0148 CEE346D6 		.ascii	"\316\343F\326Z\277_\215.\213\303\207\352\020+\230\007"
 191      5ABF5F8D 
 191      2E8BC387 
 191      EA102B98 
 191      07
 192 0159 BD41CE9E 		.ascii	"\275A\316\236\014\374Hc\201\2224\271\276\262\266\270"
 192      0CFC4863 
 192      819234B9 
 192      BEB2B6B8 
 193 0169 5F73A2AF 		.ascii	"_s\242\257\316\334,\207\024\347\214(\256P\336\335\212"
 193      CEDC2C87 
 193      14E78C28 
 193      AE50DEDD 
 193      8A
 194 017a FCC5F5C9 		.ascii	"\374\305\365\311\232D\201R@{$\264\035\331\333{d\375"
 194      9A448152 
 194      407B24B4 
 194      1DD9DB7B 
 194      64FD
 195 018c A703AAD6 		.ascii	"\247\003\252\326\015\324\030j]\006\3519\342\236u\275"
 195      0DD4186A 
 195      5D06E939 
ARM GAS  C:\Users\Bruger\AppData\Local\Temp\cco4ImQQ.s 			page 15


 195      E29E75BD 
 196 019c E4849B1E 		.ascii	"\344\204\233\036\033\314\234\363R\356\350\361\301\314"
 196      1BCC9CF3 
 196      52EEE8F1 
 196      C1CC
 197 01aa E103A347 		.ascii	"\341\003\243GO\214\035\033\030\352O\321\236d:\355\271"
 197      4F8C1D1B 
 197      18EA4FD1 
 197      9E643AED 
 197      B9
 198 01bb E3E39D5E 		.ascii	"\343\343\235^\362\314\260\233\232\310xC\311S\247\335"
 198      F2CCB09B 
 198      9AC87843 
 198      C953A7DD 
 199 01cb 3FBF76B6 		.ascii	"?\277v\266e"
 199      65
 200              		.text
 201              		.section	.gnu.lto_HW_INT_GetVector.24c06d57,"",%progbits
 202 0000 789C654F 		.ascii	"x\234eO=K\233Q\024>\317\275oC4\022\304\321\245\201\014"
 202      3D4B9B51 
 202      143ECFBD 
 202      6F433412 
 202      C4D1A581 
 203 0015 D98422FD 		.ascii	"\331\204\"\375\005\016\255\213\024\024\253\020\010i"
 203      050EAD8B 
 203      1414AB10 
 203      0869
 204 0023 7C376B20 		.ascii	"|7k Xp\313M\014D\353\022\032\207H+\230A\374H\253\265"
 204      5870CB4D 
 204      0C44EB12 
 204      1A87482B 
 204      9841FC48 
 205 0039 D0417110 		.ascii	"\320Aq\020q\020\373E\241M C\2154\225\270\330J\212%C"
 205      7110FB45 
 205      A14D2043 
 205      8D3495B8 
 205      D84A8A25 
 206 004e 88E7BC76 		.ascii	"\210\347\274v\021\017\\\316=\347\336\347K\323\355\352"
 206      110F5CCE 
 206      3DE7DEE7 
 206      4BD3EDEA 
 207 005e E69305D1 		.ascii	"\346\223\005\321=\356\320\004\225\371L\224p+@.\004\212"
 207      3DEED004 
 207      95F94C94 
 207      702B402E 
 207      048A
 208 0070 2BC471A6 		.ascii	"+\304q\246.\024\2667\376~\362\324TC\221\217x\334yq\230"
 208      2E14B637 
 208      FE7EF2D4 
 208      5443918F 
 208      78DC7971 
 209 0085 73C9084B 		.ascii	"s\311\010K\306R1Wj\013,\033\223\374\223lL-\314/\361"
 209      C6523157 
 209      6A0B2C1B 
 209      93FC936C 
 209      4C2DCC2F 
 210 009a 8BA2BA22 		.ascii	"\213\242\272\"\254\240\033\253\020!\254! \177\337\237"
ARM GAS  C:\Users\Bruger\AppData\Local\Temp\cco4ImQQ.s 			page 16


 210      ACA01BAB 
 210      1021AC21 
 210      207FDF9F 
 211 00aa D40A96F6 		.ascii	"\324\012\226\366C\356\277\013\371\357\226?\317\270\312"
 211      43EEBF0B 
 211      F9EF963F 
 211      CFB8CA
 212 00b9 51FA4387 		.ascii	"Q\372C\20794\251J\253u\267\2414\326\241o\342\245\030"
 212      3934A94A 
 212      AB75B7A1 
 212      34D6A16F 
 212      E2A518
 213 00cc 72916A96 		.ascii	"r\221j\226<\256\2241\246\023\005\370E\204\271_\303\305"
 213      3CAE9431 
 213      A61305F8 
 213      4584B95F 
 213      C3C5
 214 00de 39209BCD 		.ascii	"9 \233\315\256=\323j\325\253\331Z\257\266\230\201W\232"
 214      AE3DD36A 
 214      D5ABD95A 
 214      AFB69881 
 214      579A
 215 00f0 C40E55F9 		.ascii	"\304\016U\371H\260_<p\327e$/\237\237\356\216\010\372"
 215      48B05F3C 
 215      70D76524 
 215      2F9F9FEE 
 215      8E08FA
 216 0103 9F9294EF 		.ascii	"\237\222\224\357\016\346\322JbY3\345i\343\025\275\343"
 216      0EE6D24A 
 216      625933E5 
 216      69E315BD 
 216      E3
 217 0114 EA97AF6E 		.ascii	"\352\227\257ng\345\310\177\3739{\336\261\210\227\011"
 217      67E5C87F 
 217      FB397BDE 
 217      B1889709 
 218 0124 63F67AC4 		.ascii	"c\366z\304\347\0336\270!\006\261\211EP\021I3\352\330"
 218      E71B36B8 
 218      2106B189 
 218      45501149 
 218      33EAD8
 219 0137 615D2625 		.ascii	"a]&%G\344r\267\375ZD3\305\307\371W\373w\204Q\217\010"
 219      47E472B7 
 219      FD5A4433 
 219      C5C7F957 
 219      FB778451 
 220 014d 6366BF79 		.ascii	"cf\277y\346\271ft\263M\306\340\255\303\267%|?\200\377"
 220      E6B96674 
 220      B34DC6E0 
 220      ADC3B725 
 220      7C3F80FF 
 221 0161 48920010 		.ascii	"H\222\000\020\343\034\303\367\300\236\260c\341I{,4\030"
 221      E31CC3F7 
 221      C09EB063 
 221      E1497B2C 
 221      3418
 222 0173 7D168BD8 		.ascii	"}\026\213\330\301G\203\321\276\373\301\207\217C\375"
ARM GAS  C:\Users\Bruger\AppData\Local\Temp\cco4ImQQ.s 			page 17


 222      C14783D1 
 222      BEFBC187 
 222      8F43FD
 223 0182 03433D11 		.ascii	"\003C=\021\362\306\302O\207\355\310d46\024~2n_\001\021"
 223      F2C6C24F 
 223      87EDC864 
 223      3436147E 
 223      326E5F01 
 224 0197 7BA201   		.ascii	"{\242\001"
 225              		.text
 226              		.section	.gnu.lto_HW_INT_SetPriority.24c06d57,"",%progbits
 227 0000 789C6590 		.ascii	"x\234e\2201HBQ\024\206\317\177\237\212`E4\325\233\002"
 227      31484251 
 227      1486CF7F 
 227      9F8A6045 
 227      34D59B02 
 228 0014 1189A221 		.ascii	"\021\211\242!h\017\032\252%\"\203\026A\302\034\\R\036"
 228      680F1AAA 
 228      25228316 
 228      41C21C5C 
 228      521E
 229 0026 3634F95E 		.ascii	"64\371^\276\244-\223\206@\\\212\312\262l\211\240\311"
 229      BEA42D93 
 229      86405C8A 
 229      CAB26C89 
 229      A0C9
 230 0038 57103815 		.ascii	"W\0208\025M\202\204\025\274\242\266\304\301\034\302"
 230      4D828415 
 230      BCA2B6C4 
 230      C11CC2
 231 0047 CEADB10B 		.ascii	"\316\255\261\013\207s\3579\377\371\356\177\257B\377"
 231      8773EF39 
 231      FFF9EE7F 
 231      AF42FF
 232 0056 97CA3106 		.ascii	"\227\3121\006\242a\316P\010\"sGd\270\005 7\004J\012"
 232      A261CE50 
 232      08227347 
 232      64B80520 
 232      37044A0A 
 233 006a 24F1211A 		.ascii	"$\361!\032\002\031\253\270\353\361\037\350\272\376\271"
 233      0219ABB8 
 233      EBF11FE8 
 233      BAFEB9
 234 0079 B73DB0D1 		.ascii	"\267=\260\321\337\026DM\361\207\301\021\374,9,\277\\"
 234      DF16444D 
 234      F187C111 
 234      FC2C392C 
 234      BF5C
 235 008b 39152F88 		.ascii	"9\025/\210\367U\243\370\334\345\333\327\365u\253\\\322"
 235      F755A3F8 
 235      DCE5DBD7 
 235      F575AB5C 
 235      D2
 236 009c 27D06666 		.ascii	"'\320ff\001\012O`D\305\220J\\ \034\303'\305\015\363"
 236      010A4F60 
 236      44C5904A 
 236      5C201CC3 
ARM GAS  C:\Users\Bruger\AppData\Local\Temp\cco4ImQQ.s 			page 18


 236      27C50DF3 
 237 00b0 BBEA7199 		.ascii	"\273\352q\231\314\356\375c\342\004.\266E\347}\226\336"
 237      CCEEFD63 
 237      E2042EB6 
 237      45E77D96 
 237      DE
 238 00c1 E9346F77 		.ascii	"\3514ow\012^\207\023\220z\301\223,\2619\244\307W>pV"
 238      0A5E8713 
 238      907AC193 
 238      2CB139A4 
 238      C7573E70 
 239 00d6 6A483DA6 		.ascii	"jH=\246\337*q9\331\022\242\305P\201-\363\262\356z\027"
 239      DF2A7139 
 239      D912A2C5 
 239      50812DF3 
 239      B2EE7A17 
 240 00ea 6DA13809 		.ascii	"m\2418\011E\250T\303M\026R\302\315\213/;\325-\233\216"
 240      45A854C3 
 240      4D1652C2 
 240      CD8B2F3B 
 240      D52D9B8E 
 241 00fe 7425A5F7 		.ascii	"t%\245\367H\037O\366\375\203\373\267D\362\230\275.o"
 241      481F4FF6 
 241      FD83FBB7 
 241      44F298BD 
 241      2E6F
 242 0110 8A3C7286 		.ascii	"\212<r\206iXN\206\340\024*\316\030C(!\017\276\206\352"
 242      69584E86 
 242      E0142ACE 
 242      18432821 
 242      0FBE86EA 
 243 0124 30ACDCBC 		.ascii	"0\254\334\274$\312\177\260\371Ml\206\255\015NEV\"\332"
 243      24CA7FB0 
 243      F94D6C86 
 243      AD0D4E45 
 243      5622DA
 244 0137 5222B21C 		.ascii	"R\"\262\034\012\304V\265p$8\027\210M\216\007\247\027"
 244      0AC456B5 
 244      70243817 
 244      884D8E07 
 244      A717
 245 0149 4333B30B 		.ascii	"C3\263\013\243ar\307\265hL\213&\326~\000#Wx\377"
 245      A36172C7 
 245      B5684C8B 
 245      26D67E00 
 245      235778FF 
 246              		.text
 247              		.section	.gnu.lto_HW_INT_GetPriority.24c06d57,"",%progbits
 248 0000 789C658F 		.ascii	"x\234e\217\317+\303q\030\307\237\367\363\335\326j&9"
 248      CF2BC371 
 248      18C79FF7 
 248      F3DDD66A 
 248      2639
 249 0012 69176A87 		.ascii	"i\027j\207%rP\376\002\007\\\244&.\253\245\371\036v1"
 249      257250FE 
 249      02075CA4 
 249      262EABA5 
ARM GAS  C:\Users\Bruger\AppData\Local\Temp\cco4ImQQ.s 			page 19


 249      F91E7631 
 250 0026 2D0E4EFB 		.ascii	"-\016N\373\314Fr\222\024\265vp\360\373\307..8l\034\244"
 250      CC467292 
 250      14B57670 
 250      F0FBC72E 
 250      2E386C1C 
 251 003b 88585162 		.ascii	"\210XQb\250)\223dM\330\201\257\317gsP\236\372\364<="
 251      A8299364 
 251      4DD881AF 
 251      CF677350 
 251      9EFAF43C 
 252 0050 BDDFEFE7 		.ascii	"\275\337\357\347\365\321\350\1779\344\353\001Q\203\354"
 252      F5D1E87F 
 252      39E4EB01 
 252      5183EC
 253 005f D0083C75 		.ascii	"\320\010<uB\024\2662\240\006\002\205\030!\3448\3178"
 253      4214B632 
 253      A0060285 
 253      1821E438 
 253      CF38
 254 0071 DEFE4EC3 		.ascii	"\336\376N\303\265 \304\350\353\350\354\215m\254\246"
 254      B520C4E8 
 254      EBE8EC8D 
 254      6DACA6
 255 0080 C8440526 		.ascii	"\310D\005&4:P\257r\260\004\027I\341b\362~\333\2549\241"
 255      343A50AF 
 255      72B00417 
 255      49E162F2 
 255      7EDBAC39 
 256 0095 E6446AF7 		.ascii	"\346Dj\367\311\356\234\227\246\273\235\334\201M\314"
 256      C9EE9C97 
 256      A6BB9DDC 
 256      814DCC
 257 00a4 89E89D61 		.ascii	"\211\350\235a\324J+\226\241\375u\253\222\206|\364\353"
 257      D44A2B96 
 257      A1FD75AB 
 257      92867CF4 
 257      EB
 258 00b5 D266890A 		.ascii	"\322f\211\012!\252\260\002\247: \223Wa\221\220P\233"
 258      21AAB002 
 258      A73A2093 
 258      57619190 
 258      509B
 259 00c7 44754A18 		.ascii	"DuJ\030F\341zf\242\331db*\262\302VJ\312J\251\242~`V"
 259      46E17A66 
 259      A2D96462 
 259      2AB2C256 
 259      4ACA4AA9 
 260 00df 5DBBC2FE 		.ascii	"]\273\302\376\373\344\313Q\227r\177\260\372\302\326"
 260      FBE4CB51 
 260      97727FB0 
 260      FAC2D6
 261 00ee 6736627F 		.ascii	"g6b\177\344\"\363\370aDT\252{\267\331\3233kiU:?\275"
 261      E422F3F8 
 261      614454AA 
 261      7BB7D9D3 
 261      336B6955 
ARM GAS  C:\Users\Bruger\AppData\Local\Temp\cco4ImQQ.s 			page 20


 262 0105 979CE038 		.ascii	"\227\234\3408b\341(\212\254a\015\016\254C\342a\003q"
 262      62E1288A 
 262      AC610D0E 
 262      AC43E261 
 262      0371
 263 0117 D0152299 		.ascii	"\320\025\"\231\3617\224\003\265r\346s:\266S\241\002"
 263      F1379403 
 263      B572E673 
 263      3AB653A1 
 263      02
 264 0128 4C66C2A6 		.ascii	"Lf\302\246\324^\200K\274\222I\212(\203p\3128\347_\017"
 264      D45E804B 
 264      BC92498A 
 264      288370CA 
 264      38E75F0F 
 265 013c 294C283C 		.ascii	")L(<y\257\256M\037\320\203}Cz\277\327\035\030\016\372"
 265      79AFAE4D 
 265      1FD0837D 
 265      437ABFD7 
 265      1D180EFA 
 266 0150 744F973B 		.ascii	"tO\227;\320\332\342i\357\365vtv7\371\310:\030\364\007"
 266      D0DAE269 
 266      EFF57674 
 266      7637F9C8 
 266      3A18F407 
 267 0164 82FEA191 		.ascii	"\202\376\241\221\037E\264\206\321"
 267      1F45B486 
 267      D1
 268              		.text
 269              		.section	.gnu.lto_HW_INT_Enable.24c06d57,"",%progbits
 270 0000 789C6366 		.ascii	"x\234cf\300\004R@|\007\210\225\200\230\221\231\201\221"
 270      C0045240 
 270      7C078895 
 270      80989199 
 270      8191
 271 0012 69C23906 		.ascii	"i\3029\006\206F\016&FF\020\203\201\221\241\236\211\261"
 271      86460E26 
 271      46461083 
 271      8191A19E 
 271      89B1
 272 0024 9EF125D3 		.ascii	"\236\361%\323G&\306\011\007V\317\340V_\332\320\320\360"
 272      4726C609 
 272      0756CFE0 
 272      565FDAD0 
 272      D0F0
 273 0036 61D35CC9 		.ascii	"a\323\\\311V\211\237L\014\014\237\231 \3060.gTg\000"
 273      56899F4C 
 273      0C0C9F99 
 273      20C6302E 
 273      67546700 
 274 004a AAF9D8F2 		.ascii	"\252\371\330\362\367:7[\013P\215\000D\216q\005#\033"
 274      F73A375B 
 274      0B508D00 
 274      448E7105 
 274      231B
 275 005c 23905E2F 		.ascii	"#\220^/t\240\341\377\377\315\337\246\274\260faf`x\002"
 275      74A0E1FF 
ARM GAS  C:\Users\Bruger\AppData\Local\Temp\cco4ImQQ.s 			page 21


 275      FFCDDFA6 
 275      BCB06661 
 275      66607802 
 276 0070 940359F0 		.ascii	"\224\003Y\360\224\211\011D3\337b<\364a\303\367)\354"
 276      94890944 
 276      33DF623C 
 276      F461C3F7 
 276      29EC
 277 0082 20E54063 		.ascii	" \345@c>\275n\230\313\362\202\351'\023c\303\241\346"
 277      3EBD6E98 
 277      CBF282E9 
 277      271363C3 
 277      A1E6
 278 0094 063E90C9 		.ascii	"\006>\220\311\367\237\234\277\310\001\026b\000q\277"
 278      F79F9CBF 
 278      C8011662 
 278      0071BF
 279 00a3 7C5A3489 		.ascii	"|Z4\211w.\343\354\306\226\306\003\254?\231\230\030W"
 279      772EE3EC 
 279      C696C603 
 279      AC3F9998 
 279      1857
 280 00b5 324A31AE 		.ascii	"2J1\256b\004z\207q5\343\\F\240\212\371\327;\177\361"
 280      62047A87 
 280      7135E35C 
 280      46A08AF9 
 280      D73B7FF1 
 281 00c9 81343039 		.ascii	"\20140900\256\001\312\334cl<p?\030d\003\310\305O\200"
 281      3030AE01 
 281      CADC636C 
 281      3C703F18 
 281      6403C8C5 
 282 00df 06016D06 		.ascii	"\006\001m\006\272C\301=5/\265(\261$5%>8\277\264(95&"
 282      BA43C13D 
 282      352FB528 
 282      B1243525 
 282      3E38BFB4 
 283 00f7 2038DFD9 		.ascii	" 8\337\3314\306#<\336\323/D/\231\001\000,\227]\270"
 283      34C6233C 
 283      DED32F44 
 283      2F990100 
 283      2C975DB8 
 284              		.text
 285              		.section	.gnu.lto_HW_INT_GetState.24c06d57,"",%progbits
 286 0000 789C6550 		.ascii	"x\234ePM(\204Q\024\275\347\2767\376\377\262\220\276"
 286      4D288451 
 286      14BDE7BE 
 286      37FEFFB2 
 286      90BE
 287 0012 85643329 		.ascii	"\205d3)\231\205\354,\224\0056R\224\215\222\306lMM\254"
 287      9985EC2C 
 287      94053652 
 287      948D92C6 
 287      6C4D4DAC 
 288 0026 BD314392 		.ascii	"\2751C\222\205\224\015\315\206f\374S\224\022\013Y\213"
 288      85940DCD 
 288      8666FC53 
ARM GAS  C:\Users\Bruger\AppData\Local\Temp\cco4ImQQ.s 			page 22


 288      94120B59 
 288      8B
 289 0037 64A451D8 		.ascii	"d\244Q\330 \262\361\027f\301\270o\306F^\275{\337\273"
 289      20B2F117 
 289      66C1B86F 
 289      C6465EBD 
 289      7BDFBB
 290 004a F79C734F 		.ascii	"\367\234sOW\321\377S'\327\013\242*\311p\021x\362\210"
 290      57D1FF53 
 290      27D70BA2 
 290      2AC97011 
 290      78F288
 291 005d 2898C3AC 		.ascii	"(\230\303\254\367*\310\344\251\270\207L\201\202\316"
 291      F72AC8E4 
 291      A9B8874C 
 291      8182CE
 292 006c 9435601F 		.ascii	"\2245`\037\004\032b\2451\204\007~f\034\356|\237\302"
 292      041A62A5 
 292      3184077E 
 292      661CEE7C 
 292      9FC2
 293 007e 1D3566F8 		.ascii	"\0355f\370ix\3532\177\244<\311D\257L\250qP\355X\370"
 293      6978EB32 
 293      7FA43CC9 
 293      44AF4CA8 
 293      7150ED58 
 294 0093 02DC24C0 		.ascii	"\002\334$\300\347\360\327y~V\330\030Sb\373\322XD\226"
 294      E7F0D779 
 294      7E56D818 
 294      5362FBD2 
 294      584496
 295 00a6 0CA78DD2 		.ascii	"\014\247\215\322}\223J\275\036N\217\271].\220\360\225"
 295      7D934ABD 
 295      1E4E8FB9 
 295      5D2E90F0 
 295      95
 296 00b7 04681B88 		.ascii	"\004h\033\210n\004j\307\3362\333\254.p\360>~\225h\260"
 296      6E046AC7 
 296      DE32DBAC 
 296      2E70F03E 
 296      7E9568B0 
 297 00cb EC0F5622 		.ascii	"\354\017V\"\374\362h\"\372\236\223\314\346 d\212\354"
 297      FCF26822 
 297      FA9E93CC 
 297      E620648A 
 297      EC
 298 00dc ACEB9BE3 		.ascii	"\254\353\233\343\223\234t\211\354\367\355en\2520\202"
 298      939C7489 
 298      ECF7ED65 
 298      6EAA3082 
 299 00ec D9601849 		.ascii	"\331`\030IVX\202\203e\2107\254 \002\272@\350s4\2563"
 299      56588283 
 299      658837AC 
 299      2002BA40 
 299      E87334AE 
 300 0101 823AA3B9 		.ascii	"\202:\243\2719\037\335\316\265\002h$\254\012\366\014"
 300      391FDDCE 
ARM GAS  C:\Users\Bruger\AppData\Local\Temp\cco4ImQQ.s 			page 23


 300      B5026824 
 300      AC0AF60C 
 301 0111 E144A8EC 		.ascii	"\341D\250\354\027#\200`lw\";\015\020\2315+F\326\253"
 301      17238060 
 301      6C77223B 
 301      0D109935 
 301      2B46D6AB 
 302 0125 A2B847DD 		.ascii	"\242\270G\335\262N[\275\0022\004\301\334\001\302:\231"
 302      B24E5BBD 
 302      023204C1 
 302      DC01C23A 
 302      99
 303 0136 89858A2D 		.ascii	"\211\205\212-K\226\210u8\374\307\254\335\311\006\034"
 303      4B968875 
 303      38FCC7AC 
 303      DDC9061C 
 304 0146 65856015 		.ascii	"e\205`\025\244R\331\354\353\367\005z\007|}=\035\376"
 304      A452D9EC 
 304      EBF7057A 
 304      077C7D3D 
 304      1DFE
 305 0158 C180D7D7 		.ascii	"\301\200\327\327\335\336\341o\252\357n\351\352im\353"
 305      DDDEE16F 
 305      AAEF6EE9 
 305      EA696DEB 
 306 0168 ACF5D20F 		.ascii	"\254\365\322\017\304\202\210\215"
 306      C482888D 
 307              		.text
 308              		.section	.gnu.lto_HW_INT_Disable.24c06d57,"",%progbits
 309 0000 789C6366 		.ascii	"x\234cf\300\004R@|\007\210\225\200\230\221\231\201\221"
 309      C0045240 
 309      7C078895 
 309      80989199 
 309      8191
 310 0012 69C23906 		.ascii	"i\3029\006\206F\016&FF\020\203\201\221\241\236\211\261"
 310      86460E26 
 310      46461083 
 310      8191A19E 
 310      89B1
 311 0024 9EF125D3 		.ascii	"\236\361%\323G&\306\011\007V\317\340V_\332\320\320\360"
 311      4726C609 
 311      0756CFE0 
 311      565FDAD0 
 311      D0F0
 312 0036 E1D276C9 		.ascii	"\341\322v\311V\211\237L\014\014\237\231 \3060.gTg\000"
 312      56899F4C 
 312      0C0C9F99 
 312      20C6302E 
 312      67546700 
 313 004a AAF9D8F2 		.ascii	"\252\371\330\362\367:7[\013P\215\000D\216q\005#\033"
 313      F73A375B 
 313      0B508D00 
 313      448E7105 
 313      231B
 314 005c 23905E2F 		.ascii	"#\220^/t\240\341\377\377\315\367\247\2560bef`x\002\224"
 314      74A0E1FF 
 314      FFCDF7A7 
ARM GAS  C:\Users\Bruger\AppData\Local\Temp\cco4ImQQ.s 			page 24


 314      AE306265 
 314      66607802 
 315 0071 0359F094 		.ascii	"\003Y\360\224\211\011D3\337b<\364a\303\223\251\354 "
 315      89094433 
 315      DF623CF4 
 315      61C393A9 
 315      EC20
 316 0083 E5406326 		.ascii	"\345@c&\276o?\313\365\202\351'\023c\303\341\346\006"
 316      BE6F3FCB 
 316      F582E927 
 316      1363C3E1 
 316      E606
 317 0095 3E90C9F7 		.ascii	">\220\311\367\237\234\277\310\001\026b\000q/\2664\374"
 317      9F9CBFC8 
 317      01166200 
 317      712FB634 
 317      FC
 318 00a6 659DCB38 		.ascii	"e\235\3138\273\261\245\361\000\353O&&\306\225\214R\214"
 318      BBB1A5F1 
 318      00EB4F26 
 318      26C6958C 
 318      528C
 319 00b8 AB1881DE 		.ascii	"\253\030\201\336a\\\3158\227\021\250b\376\365\316_|"
 319      615CCD38 
 319      9711A862 
 319      FEF5CE5F 
 319      7C
 320 00c9 200D4C0E 		.ascii	" \015L\016\014\214k\2002\367\030\033\017L\016\007\331"
 320      0C8C6B80 
 320      32F7181B 
 320      0F4C0E07 
 320      D9
 321 00da 0072F113 		.ascii	"\000r\361\023\240A@\233\201\356PpO\315K-J,IM\211\017"
 321      A041409B 
 321      81EE5070 
 321      4FCD4B2D 
 321      4A2C494D 
 322 00f0 CE2F2D4A 		.ascii	"\316/-JN\215\011\010\316w6\215\361\010\217\367\364\013"
 322      4E8D0908 
 322      CE77368D 
 322      F1088FF7 
 322      F40B
 323 0102 D14B6600 		.ascii	"\321Kf\000\000\322\267\\\313"
 323      00D2B75C 
 323      CB
 324              		.text
 325              		.section	.gnu.lto_HW_INT_SetPending.24c06d57,"",%progbits
 326 0000 789C6366 		.ascii	"x\234cf\300\004R@|\007\210\225\200\230\221\231\201\221"
 326      C0045240 
 326      7C078895 
 326      80989199 
 326      8191
 327 0012 69C23906 		.ascii	"i\3029\006\206F\016&FF\020\203\201\221\241\236\211\261"
 327      86460E26 
 327      46461083 
 327      8191A19E 
 327      89B1
ARM GAS  C:\Users\Bruger\AppData\Local\Temp\cco4ImQQ.s 			page 25


 328 0024 9EF125D3 		.ascii	"\236\361%\323G&\306\011\007V\317\340V_\332\320\320\360"
 328      4726C609 
 328      0756CFE0 
 328      565FDAD0 
 328      D0F0
 329 0036 A169BF64 		.ascii	"\241i\277d\253\304O&\006\206\317L\020c\030\2273\252"
 329      ABC44F26 
 329      0686CF4C 
 329      10631897 
 329      33AA
 330 0048 3300D57C 		.ascii	"3\000\325|l\371{\235\233\255\005\250F\000\"\307\270"
 330      6CF97B9D 
 330      9BAD05A8 
 330      460022C7 
 330      B8
 331 0059 82918D11 		.ascii	"\202\221\215\021H\257\027:\320\360\377\377\347?S_\330"
 331      48AF173A 
 331      D0F0FFFF 
 331      E73F535F 
 331      D8
 332 006a B1323330 		.ascii	"\261230<\001\312\201,x\312\304\004\242\231o1\036\372"
 332      3C01CA81 
 332      2C78CAC4 
 332      04A2996F 
 332      311EFA
 333 007d B0E1EF54 		.ascii	"\260\341\357Tv\220r\2401[n\255}\310\361\202\351'\023"
 333      769072A0 
 333      315B6EAD 
 333      7DC8F182 
 333      E92713
 334 0090 63C391E6 		.ascii	"c\303\221\346\006>\220\311\367\237\234\277\010\021b"
 334      063E90C9 
 334      F79F9CBF 
 334      081162
 335 009f 0071A736 		.ascii	"\000q\2476\317\372\3101\227qvcK\343\001\326\237LL\214"
 335      CFFAC831 
 335      97717663 
 335      4BE301D6 
 335      9F4C4C8C 
 336 00b3 2B19A518 		.ascii	"+\031\245\030W1\002\275\303\270\232q.#P\305\374\353"
 336      573102BD 
 336      C3B89A71 
 336      2E2350C5 
 336      FCEB
 337 00c5 9DBFF840 		.ascii	"\235\277\370@\032\230\034\030\030\327\000e\35616\036"
 337      1A981C18 
 337      18D70065 
 337      EE31361E 
 338 00d5 F81E0EB2 		.ascii	"\370\036\016\262\001\344\342'@\203\2006\003\335\241"
 338      01E4E227 
 338      40838036 
 338      03DDA1
 339 00e4 E09E9A97 		.ascii	"\340\236\232\227Z\224X\222\232\022\037\234_Z\224\234"
 339      5A945892 
 339      9A121F9C 
 339      5F5A949C 
 340 00f4 1A13109C 		.ascii	"\032\023\020\234\357l\032\343\021\036\357\351\027\242"
ARM GAS  C:\Users\Bruger\AppData\Local\Temp\cco4ImQQ.s 			page 26


 340      EF6C1AE3 
 340      111EEFE9 
 340      17A2
 341 0102 97CC0000 		.ascii	"\227\314\000\000>\264]\304"
 341      3EB45DC4 
 342              		.text
 343              		.section	.gnu.lto_HW_INT_ClearPending.24c06d57,"",%progbits
 344 0000 789C6366 		.ascii	"x\234cf\300\004R@|\007\210\225\200\230\221\231\201\221"
 344      C0045240 
 344      7C078895 
 344      80989199 
 344      8191
 345 0012 69C23906 		.ascii	"i\3029\006\206F\016&FF\020\203\201\221\241\236\211\261"
 345      86460E26 
 345      46461083 
 345      8191A19E 
 345      89B1
 346 0024 9EF125D3 		.ascii	"\236\361%\323G&\306\011\007V\317\340V_\332\320\320\360"
 346      4726C609 
 346      0756CFE0 
 346      565FDAD0 
 346      D0F0
 347 0036 61D255C9 		.ascii	"a\322U\311V\211\237L\014\014\237\231 \3060.gTg\000\252"
 347      56899F4C 
 347      0C0C9F99 
 347      20C6302E 
 347      67546700 
 348 004b F9D8F2F7 		.ascii	"\371\330\362\367:7[\013P\215\000D\216q\005#\033#\220"
 348      3A375B0B 
 348      508D0044 
 348      8E710523 
 348      1B2390
 349 005e 5E2F74A0 		.ascii	"^/t\240\341\377\377\315W\247uh\263130<\001\312\201,"
 349      E1FFFFCD 
 349      57A77568 
 349      B3313330 
 349      3C01CA81 
 350 0073 78CAC404 		.ascii	"x\312\304\004\242\231o1\036\372\360\341\3524v\220r\240"
 350      A2996F31 
 350      1EFAF0E1 
 350      EA347690 
 350      72A0
 351 0085 317D93E6 		.ascii	"1}\223\346\266\362\276`\372\311\304\330p\264\271\201"
 351      B6F2BE60 
 351      FAC9C4D8 
 351      70B4B981 
 352 0095 0F64F2FD 		.ascii	"\017d\362\375'\347/r\200\205\030@\3349\0353v\263\317"
 352      27E72F72 
 352      80851840 
 352      DC391D33 
 352      76B3CF
 353 00a8 659CDDD8 		.ascii	"e\234\335\330\322x\200\365'\023\023\343JF)\306U\214"
 353      D27880F5 
 353      271313E3 
 353      4A4629C6 
 353      558C
 354 00ba 40EF30AE 		.ascii	"@\3570\256f\234\313\010T1\377z\347/>\220\006&\007\006"
ARM GAS  C:\Users\Bruger\AppData\Local\Temp\cco4ImQQ.s 			page 27


 354      669CCB08 
 354      5431FF7A 
 354      E72F3E90 
 354      06260706 
 355 00ce C6354099 		.ascii	"\3065@\231{\214\215\007nF\201l\000\271\370\011\320 "
 355      7B8C8D07 
 355      6E46816C 
 355      00B9F809 
 355      D020
 356 00e0 A0CD4077 		.ascii	"\240\315@w(\270\247\346\245\026%\226\244\246\304\007"
 356      28B8A7E6 
 356      A5162596 
 356      A4A6C407 
 357 00f0 E7971625 		.ascii	"\347\227\026%\247\306\004\004\347;\233\306x\204\307"
 357      A7C60404 
 357      E73B9BC6 
 357      7884C7
 358 00ff 7BFA85E8 		.ascii	"{\372\205\350%3\000\000L\312\\\017"
 358      25330000 
 358      4CCA5C0F 
 359              		.text
 360              		.section	.gnu.lto_.symbol_nodes.24c06d57,"",%progbits
 361 0000 789C55CA 		.ascii	"x\234U\312\273\015\2000\024CQ\347\205| \311\314\246"
 361      BB0D8030 
 361      144351E7 
 361      857C20C9 
 361      CCA6
 362 0012 A4640244 		.ascii	"\244d\002D\3114\354\300& \201P\354\356\310\327\003\270"
 362      C934ECC0 
 362      26208150 
 362      ECEEC8D7 
 362      03B8
 363 0024 F0CD3C81 		.ascii	"\360\315<\201\365\004HlG\206\201\356\367\376\330\321"
 363      F504486C 
 363      478681EE 
 363      F7FED8D1 
 364 0034 C446DFDB 		.ascii	"\304F\337\3335\016\2571/\317=0H\036\030\305\221I\234"
 364      350EAF31 
 364      2FCF3D30 
 364      481E18C5 
 364      91499C
 365 0047 98C599A3 		.ascii	"\230\305\231\243x\344$\236X\304\205U\\\331z\343\006"
 365      78E4249E 
 365      58C48555 
 365      5CD97AE3 
 365      06
 366 0058 19473AD7 		.ascii	"\031G:\327"
 367              		.text
 368              		.section	.gnu.lto_.refs.24c06d57,"",%progbits
 369 0000 789C6366 		.ascii	"x\234cf``\340f\200\000FF&\006VFf&\026V\006\000\001\252"
 369      6060E066 
 369      80004646 
 369      26065646 
 369      66261656 
 370 0018 0027     		.ascii	"\000'"
 371              		.text
 372              		.section	.gnu.lto_.decls.24c06d57,"",%progbits
ARM GAS  C:\Users\Bruger\AppData\Local\Temp\cco4ImQQ.s 			page 28


 373 0000 789C8D96 		.ascii	"x\234\215\226\177LSW\024\307\337}\267TZKQ\226\340\346"
 373      7F4C5357 
 373      14C7DF7D 
 373      B7545A4B 
 373      5196E0E6 
 374 0014 5FF00FC9 		.ascii	"_\360\017\311\022\343\022\315\022\223\375\261%jD\227"
 374      12E312CD 
 374      1293FDB1 
 374      256A4497 
 375 0024 181236F7 		.ascii	"\030\0226\367\207&\244\2037GF\212)%\033\377=\005\005"
 375      8726A483 
 375      3747468A 
 375      29251BFF 
 375      3D0505
 376 0037 71515635 		.ascii	"qQV5v\262MT\230\242\200\205\015,-\320**\205\002Z\012"
 376      76B24D54 
 376      98A28085 
 376      0D2C2DD0 
 376      2A2A8502 
 377 004d 15E6C052 		.ascii	"\025\346\300R\024qf\023\026\347pn\353\356\257\347{\217"
 377      14716613 
 377      16E7706E 
 377      EBEEAFE7 
 377      7B8F
 378 005f 3DD0971C 		.ascii	"=\320\227\034\340\336\236\357\347\234\373\345\334\007"
 378      E0DE9EEF 
 378      E79CFBE5 
 378      DC07
 379 006d 90E33811 		.ascii	"\220\3438\021r\\\034=9\211\034\267\003p\234\031\355"
 379      725C1C3D 
 379      39891CB7 
 379      03709C19 
 379      ED
 380 007e 6571F283 		.ascii	"eq\362\203\327\015(\232P\264\241p\243\360\240\350@\341"
 380      D70D289A 
 380      50B4A170 
 380      A3F0A0E8 
 380      40E1
 381 0090 43114011 		.ascii	"C\021@\021D1\200\342&\212\020\2120\212\021\356\377\017"
 381      443180E2 
 381      268A108A 
 381      308A11EE 
 381      FF0F
 382 00a2 E600051F 		.ascii	"\346\000\005\037\260\275\205\017\256\225\304\362p}\023"
 382      B0BD850F 
 382      AE95C4F2 
 382      707D13
 383 00b1 8A088A28 		.ascii	"\212\010\212(\212\011\024-(\\(&Qt\243HE1\215\342\036"
 383      8A09142D 
 383      285C2826 
 383      5174A348 
 383      45318DE2 
 384 00c6 D3EB1923 		.ascii	"\323\353\031#\304\370\035\254\317\001\215Zm\214\257"
 384      C4F81DAC 
 384      CF018D5A 
 384      6D8CAF
 385 00d5 ACD5B2A0 		.ascii	"\254\325\262\240\336bu\022\230>\364\222\032\3303\303"
ARM GAS  C:\Users\Bruger\AppData\Local\Temp\cco4ImQQ.s 			page 29


 385      DE627512 
 385      983EF492 
 385      1AD833C3 
 386 00e5 2B9E073F 		.ascii	"+\236\007?:\246\301\\\311\353\205O\007;\247V\337\022"
 386      3AA6C15C 
 386      C9EB854F 
 386      073BA756 
 386      DF12
 387 00f7 072CA2F5 		.ascii	"\007,\242\365\261\336\227\322\3714t\001\246\3035%?\260"
 387      B1DE97D2 
 387      F9347401 
 387      A6C33525 
 387      3FB0
 388 0109 17D30A5D 		.ascii	"\027\323\012]@C\027d\272\205\036nS\350\202\032:\354"
 388      40431764 
 388      BA851E6E 
 388      53E8821A 
 388      3AEC
 389 011b 2564F5A2 		.ascii	"%d\365\242\034\365J\312\327\362\031\317\237\216\325"
 389      1CF54ACA 
 389      D7F219CF 
 389      9F8ED5
 390 012a 49D7D0DC 		.ascii	"I\327\320\334\324\320\204\226\250\021\322\310\017/\221"
 390      D4D08496 
 390      A811D2C8 
 390      0F2F91
 391 0139 1FD6C81F 		.ascii	"\037\326\310\037Y\"_\353\216\314\361\240\275\351\311"
 391      59225FEB 
 391      8ECCF1A0 
 391      BDE9C9
 392 0148 C0F2191E 		.ascii	"\300\362\031\036\230\215ix\351q\004\234z\2644\031ux"
 392      988D6978 
 392      E971049C 
 392      7AB43419 
 392      7578
 393 015a E97D1E1B 		.ascii	"\351}\036\033\326\255:.\242\247\252T\\\241\003Y\251"
 393      D6AD3A2E 
 393      A2A7AA54 
 393      5CA10359 
 393      A9
 394 016b E01C580D 		.ascii	"\340\034X\015\316\203\325\210Z\017V\241\257;u\224T\363"
 394      CE83D588 
 394      5A0F56A1 
 394      AF3B7594 
 394      54F3
 395 017d E0D8091D 		.ascii	"\340\330\011\035\344\001\376\371\254sr\330\270\346\002"
 395      E401FEF9 
 395      AC7372D8 
 395      B8E602
 396 018c 925588FE 		.ascii	"\222U\210\376Q^.\027\016\307\274\206\264\357\304Y\327"
 396      515E2E17 
 396      0EC7BC86 
 396      B4EFC459 
 396      D7
 397 019d ACA7EAFD 		.ascii	"\254\247\352\375\257\305\232}\342\277\3618 ,p\001@p"
 397      AFC59A7D 
 397      E2BFF138 
ARM GAS  C:\Users\Bruger\AppData\Local\Temp\cco4ImQQ.s 			page 30


 397      202C7001 
 397      4070
 398 01af 11AC211D 		.ascii	"\021\254!\035\243\237i\353\015 \015\367U}d~9|\207\300"
 398      A39F69EB 
 398      0D200DF7 
 398      557D647E 
 398      397C87C0 
 399 01c3 6FB823EE 		.ascii	"o\270#\356$\304\250qE\377i\320\007D\177<\376.\3217*"
 399      24C4A871 
 399      45FF69D0 
 399      07447F3C 
 399      FE2ED137 
 400 01d8 F48D92BE 		.ascii	"\364\215\222\276\211\350\333\003\2551\0003\211~\302"
 400      89E8DB03 
 400      AD310033 
 400      897EC2
 401 01e7 E9AFD499 		.ascii	"\351\257\324\231*Eq\037>\224!`&b\371X.`b\2309\236w\235"
 401      2A45711F 
 401      3E942160 
 401      2662F958 
 401      2E606298 
 402 01ff 1DAC3681 		.ascii	"\035\2546\201\014S-:\313lc\351\363\317\366\211\357\201"
 402      0C532D3A 
 402      CB6C63E9 
 402      F3CFF689 
 402      EF81
 403 0211 169471E9 		.ascii	"\026\224q\351E1,\240\007\\\214\011\232A\206\012\013"
 403      45312CA0 
 403      075C8C09 
 403      9A41860A 
 403      0B
 404 0222 F6CF1CBE 		.ascii	"\366\317\034\276\245\323!c\010k'1\373h\357\223gI\213"
 404      A5D32163 
 404      086B2731 
 404      FB68EF93 
 404      67498B
 405 0235 9AFD2331 		.ascii	"\232\375#1\373\007\300\334\276xZ<\221\004?'\007\232"
 405      FB07C0DC 
 405      BE785A3C 
 405      91043F27 
 405      079A
 406 0247 BF507344 		.ascii	"\277PsDG\014\231\365\270\312\241\302U$\002\255\012W"
 406      470C99F5 
 406      B8CAA1C2 
 406      552402AD 
 406      0A57
 407 0259 5A2557DA 		.ascii	"Z%W\332\210+\347:G\233\014\360\000 \224_\247\232\037"
 407      882BE73A 
 407      479B0CF0 
 407      0020945F 
 407      A79A1F
 408 026c E809A5E6 		.ascii	"\350\011\245\346p\235\322\326\313\012\300e\011\340&"
 408      709DD2D6 
 408      CB0AC065 
 408      09E026
 409 027b 8091A3DE 		.ascii	"\200\221\243\336\000\204\016\012\270#v\006\314\010\020"
 409      00840E0A 
ARM GAS  C:\Users\Bruger\AppData\Local\Temp\cco4ImQQ.s 			page 31


 409      B8237606 
 409      CC0810
 410 028a 15A36367 		.ascii	"\025\243cg\016\244)\010\355\012B\273D\360\020B\254\336"
 410      0EA42908 
 410      ED0A42BB 
 410      44F01042 
 410      ACDE
 411 029c 3F0A602D 		.ascii	"?\012`-%\370\373\306S0\300\025u\366\010\3762\361\357"
 411      25F8FBC6 
 411      5330C015 
 411      75F608FE 
 411      32F1EF
 412 02af 78BC3491 		.ascii	"x\2744\221\236\302\253@x%D\007A\224\225\237>\223\254"
 412      9EC2AB40 
 412      78254407 
 412      4194959F 
 412      3E93AC
 413 02c2 F40D5B2A 		.ascii	"\364\015[*\033\327\251\232\322\307\356\352\307\006\330"
 413      1BD7A99A 
 413      D2C7EEEA 
 413      C706D8
 414 02d1 4AEB4DD5 		.ascii	"J\353M\325\337\366/\243\223\024\350\3511\211\264\345"
 414      DFF62FA3 
 414      9314E8E9 
 414      3189B4E5 
 415 02e1 442C015D 		.ascii	"D,\001]\212\202]RA\037)\030\361\225\227'\302\033\224"
 415      8A825D52 
 415      411F2918 
 415      F1959727 
 415      C21B94
 416 02f4 B1F77BEF 		.ascii	"\261\367{\357\227\313\320\215I5\022\376\341\340\311"
 416      97CBD08D 
 416      493512FE 
 416      E1E0C9
 417 0303 2B902CE3 		.ascii	"+\220,\343\370c~l\354\3303\010\214\031\025x4f\035\""
 417      F8637E6C 
 417      ECD83308 
 417      8C191578 
 417      34661D22 
 418 0317 7C9D036B 		.ascii	"|\235\003kV\2037\321P\\CC\221j$E\300\025\324\356U\324"
 418      568337D1 
 418      505C4343 
 418      916A2445 
 418      C015D4EE 
 419 032d 2E1BB3AE 		.ascii	".\033\263\256m\245h\314\272\201\021\370\3451\303\025"
 419      6DA568CC 
 419      BA8111F8 
 419      E531C315 
 420 033d D835AADA 		.ascii	"\3305\252\332\177\245\212\216\017\316\241\343\363G|"
 420      7FA58A8E 
 420      0FCEA1E3 
 420      F3477C
 421 034c B28E5F74 		.ascii	"\262\216_t|n\020\027\256K\343\343\014\216N\350a?=Bm"
 421      7C6E1017 
 421      AE4BE3E3 
 421      0C8E4EE8 
 421      613F3D42 
ARM GAS  C:\Users\Bruger\AppData\Local\Temp\cco4ImQQ.s 			page 32


 422 0361 E55ED148 		.ascii	"\345^\321H|\237\365\034s\310\363\303c\025\350Q\030\321"
 422      7C9FF51C 
 422      73C8F3C3 
 422      6315E851 
 422      18D1
 423 0373 23191120 		.ascii	"#\031\021 F\034,sAeE\334\214\\\262We\374T\331C\257\011"
 423      461C2C73 
 423      416545DC 
 423      8C5CB257 
 423      65FC54D9 
 424 038a DEA515E7 		.ascii	"\336\245\025\347<\335\007\0005\336\375\220\375\246!"
 424      3CDD0700 
 424      35DEFD90 
 424      FDA621
 425 0399 51803E45 		.ascii	"Q\200>E\271>\251\\\220\224\253\373\252.\220\014\177"
 425      B93EA95C 
 425      9094ABFB 
 425      AA2E900C 
 425      7F
 426 03aa A7886B4F 		.ascii	"\247\210kO\247\273\364tX\036\365*\206\005\317[\277\202"
 426      A7BBF474 
 426      581EF52A 
 426      8605CF5B 
 426      BF82
 427 03bc D12F3106 		.ascii	"\321/1\006\010\303\331u2\023\212\364-\325\036\371f<"
 427      08C3D975 
 427      32138AF4 
 427      2DD51EF9 
 427      663C
 428 03ce 8176E17C 		.ascii	"\201v\341|\244\356bPA\030\224\0107\011\341\267\373\323"
 428      A4EE6250 
 428      41189408 
 428      3709E1B7 
 428      FBD3
 429 03e0 6FC02A4A 		.ascii	"o\300*J\360]\033\237\321\321&:\203\013\232\270\245@"
 429      F05D1B9F 
 429      D1D1263A 
 429      830B9AB8 
 429      A540
 430 03f2 DC921021 		.ascii	"\334\222\020!\202\020\033\376\362\031\341)\312\030\250"
 430      82101BFE 
 430      F219E129 
 430      CA18A8
 431 0401 0C5FE2E9 		.ascii	"\014_\342\351\275\233\277\250\274wC\012\300\220\004"
 431      BD9BBFA8 
 431      BC77430A 
 431      C09004
 432 0410 0813C02F 		.ascii	"\010\023\300/-\015\261\004\330L\001\323\203w\276\245"
 432      2D0DB104 
 432      D84C01D3 
 432      8377BEA5 
 433 0420 D7BFA6BE 		.ascii	"\327\277\246\276Q\011\030V\000\206%\300\010\0018\316"
 433      51091856 
 433      008625C0 
 433      080138CE 
 434 0430 771E32AB 		.ascii	"w\0362\253\336\201\352K\023\241\2574\374\035eW8\332"
 434      DE81EA4B 
ARM GAS  C:\Users\Bruger\AppData\Local\Temp\cco4ImQQ.s 			page 33


 434      13A1AF34 
 434      FC1D6557 
 434      38DA
 435 0442 1E25C0EB 		.ascii	"\036%\300\353\274j\340\323\351\300\337\255~Vk K\374"
 435      BC6AE0D3 
 435      E9C0DFAD 
 435      7E566B20 
 435      4BFC
 436 0454 9F5D32DE 		.ascii	"\237]2\336\232\034\275\335\261\014\006I:\357\275\352"
 436      9A1CBDDD 
 436      B10C0649 
 436      3AEFBDEA 
 437 0464 08194186 		.ascii	"\010\031A\206\221Nv7\235\354\237\321\240\374$Ov:\233"
 437      914E7637 
 437      9DEC9FD1 
 437      A0FC244F 
 437      763A9B
 438 0477 EC0AB91F 		.ascii	"\354\012\271\037N~y\336A\367$\235\335\223Q\2649\206"
 438      4E7E79DE 
 438      41F7249D 
 438      DD9351B4 
 438      3986
 439 0489 365195A1 		.ascii	"6Q\225\241\343s\247\022\215HR\372\252\022\376\320\374"
 439      E373A712 
 439      8D4852FA 
 439      AA12FED0 
 439      FC
 440 049a CC9C995E 		.ascii	"\314\234\231^F\015\321]\015\021\356:\332\177)E\004`"
 440      460DD15D 
 440      0D11EE3A 
 440      DA7F2945 
 440      0460
 441 04ac 02F57C5B 		.ascii	"\002\365|[\356y\034\310\327\321\335\333\034\343UnN\250"
 441      EE791CC8 
 441      D7D1DDDB 
 441      1CE3556E 
 441      4EA8
 442 04be 6E4294B9 		.ascii	"nB\224\271\031%n\226\376y\352\271\372\357OD\345\375"
 442      19256E96 
 442      FE79EAB9 
 442      FAEF4F44 
 442      E5FD
 443 04d0 24CB9E24 		.ascii	"$\313\236$\331\342\211C\265\211p\210z\337\372\264\262"
 443      D9E28943 
 443      B5897088 
 443      7ADFFAB4 
 443      B2
 444 04e1 3D899EF9 		.ascii	"=\211\236\371\345\357\022t\340\341\301\312\210A:\260"
 444      E5EF1274 
 444      E0E1C1CA 
 444      88413AB0 
 445 04f1 5A717F91 		.ascii	"Zq\177\221\267OM_2\000\367P\3731\371\254S\212\263\036"
 445      B74F4D5F 
 445      3200F750 
 445      FB31F9AC 
 445      538AB31E 
 446 0505 8C9D1C30 		.ascii	"\214\235\0340\251\272\277\247:\3534\353\036\177_\221"
ARM GAS  C:\Users\Bruger\AppData\Local\Temp\cco4ImQQ.s 			page 34


 446      A9BABFA7 
 446      3AEB34EB 
 446      1E7F5F91 
 447 0515 F951CED6 		.ascii	"\371Q\316\326\355\037\344l\265\332\005\233\255x\217"
 447      ED1FE46C 
 447      B5DA059B 
 447      AD788F
 448 0524 5DBF65FB 		.ascii	"]\277e\373\207i\033\271\264-\202U\260Y\354B^Nva\261"
 448      87691BB9 
 448      B42D8255 
 448      B059EC42 
 448      5E4E7661 
 449 0539 2D57D895 		.ascii	"-W\330\225\225]\270\361\355]4}m.gb\302l\273\305f7\345"
 449      955DB8F1 
 449      ED5D347D 
 449      6D2E6762 
 449      C26CBBC5 
 450 0550 96E417D9 		.ascii	"\226\344\027\331,yy6\241\250(][\372Vn\211\275d\217P"
 450      2C797936 
 450      A1A8285D 
 450      5BFA566E 
 450      89BD648F 
 451 0565 B4F653CE 		.ascii	"\264\366S\316\254\324n\376b\371\213e\341\236\225\250"
 451      ACD46EFE 
 451      62F98B65 
 451      E19E95A8 
 452 0575 914DC227 		.ascii	"\221M\302'\226\342\002{\246\305\232W \330\244\016\263"
 452      96E2027B 
 452      A6C59A57 
 452      20D8A40E 
 452      B3
 453 0586 05FB0E21 		.ascii	"\005\373\016!\327^\370bc\213\264\221P\234o\265oH\221"
 453      D75EF862 
 453      638BB491 
 453      509C6FB5 
 453      6F4891
 454 0599 F3B26CF9 		.ascii	"\363\262l\371\205\266|{I\212\234)m%\261\255\315V\313"
 454      85B67C7B 
 454      498A9C29 
 454      6D25B1AD 
 454      CD56CB
 455 05ac C70542B2 		.ascii	"\307\005B\262\234\200z\261\013Rc\233\362\213\360\307"
 455      9C807AB1 
 455      0B52639B 
 455      F28BF0C7 
 456 05bc 2B1548C1 		.ascii	"+\025H\301\232\227o\335\375\032\333\331X Xll/\301&\354"
 456      9A976FDD 
 456      FD1ADBD9 
 456      5820586C 
 456      6C2FC126 
 457 05d1 5EBF4E8F 		.ascii	"^\277N\217\233X\277N\207\026\033\376\003\2123_n"
 457      9B58BF4E 
 457      87161BFE 
 457      038A335F 
 457      6E
 458              		.text
 459              		.section	.gnu.lto_.symtab.24c06d57,"",%progbits
ARM GAS  C:\Users\Bruger\AppData\Local\Temp\cco4ImQQ.s 			page 35


 460 0000 48575F49 		.ascii	"HW_INT_Interrupt\000\000\000\000\000\000\000\000\000"
 460      4E545F49 
 460      6E746572 
 460      72757074 
 460      00000000 
 461 0019 000000AC 		.ascii	"\000\000\000\254\000\000\000HW_INT_Start\000\000\000"
 461      00000048 
 461      575F494E 
 461      545F5374 
 461      61727400 
 462 002f 00000000 		.ascii	"\000\000\000\000\000\000\000\000\000\256\000\000\000"
 462      00000000 
 462      00AE0000 
 462      00
 463 003c 48575F49 		.ascii	"HW_INT_StartEx\000\000\000\000\000\000\000\000\000\000"
 463      4E545F53 
 463      74617274 
 463      45780000 
 463      00000000 
 464 0054 0000B600 		.ascii	"\000\000\266\000\000\000HW_INT_Stop\000\000\000\000"
 464      00004857 
 464      5F494E54 
 464      5F53746F 
 464      70000000 
 465 0069 00000000 		.ascii	"\000\000\000\000\000\000\000\000\270\000\000\000HW_"
 465      00000000 
 465      B8000000 
 465      48575F
 466 0078 494E545F 		.ascii	"INT_SetVector\000\000\000\000\000\000\000\000\000\000"
 466      53657456 
 466      6563746F 
 466      72000000 
 466      00000000 
 467 008f 0000BC00 		.ascii	"\000\000\274\000\000\000HW_INT_GetVector\000\000\000"
 467      00004857 
 467      5F494E54 
 467      5F476574 
 467      56656374 
 468 00a8 00000000 		.ascii	"\000\000\000\000\000\000\000\000\000\277\000\000\000"
 468      00000000 
 468      00BF0000 
 468      00
 469 00b5 48575F49 		.ascii	"HW_INT_SetPriority\000\000\000\000\000\000\000\000\000"
 469      4E545F53 
 469      65745072 
 469      696F7269 
 469      74790000 
 470 00d0 000000C8 		.ascii	"\000\000\000\310\000\000\000HW_INT_GetPriority\000\000"
 470      00000048 
 470      575F494E 
 470      545F4765 
 470      74507269 
 471 00eb 00000000 		.ascii	"\000\000\000\000\000\000\000\000\000\000\313\000\000"
 471      00000000 
 471      0000CB00 
 471      00
 472 00f8 0048575F 		.ascii	"\000HW_INT_Enable\000\000\000\000\000\000\000\000\000"
ARM GAS  C:\Users\Bruger\AppData\Local\Temp\cco4ImQQ.s 			page 36


 472      494E545F 
 472      456E6162 
 472      6C650000 
 472      00000000 
 473 010f 000000CD 		.ascii	"\000\000\000\315\000\000\000HW_INT_GetState\000\000"
 473      00000048 
 473      575F494E 
 473      545F4765 
 473      74537461 
 474 0127 00000000 		.ascii	"\000\000\000\000\000\000\000\000\000\000\317\000\000"
 474      00000000 
 474      0000CF00 
 474      00
 475 0134 0048575F 		.ascii	"\000HW_INT_Disable\000\000\000\000\000\000\000\000\000"
 475      494E545F 
 475      44697361 
 475      626C6500 
 475      00000000 
 476 014c 000000D1 		.ascii	"\000\000\000\321\000\000\000HW_INT_SetPending\000\000"
 476      00000048 
 476      575F494E 
 476      545F5365 
 476      7450656E 
 477 0166 00000000 		.ascii	"\000\000\000\000\000\000\000\000\000\000\323\000\000"
 477      00000000 
 477      0000D300 
 477      00
 478 0173 0048575F 		.ascii	"\000HW_INT_ClearPending\000\000\000\000\000\000\000"
 478      494E545F 
 478      436C6561 
 478      7250656E 
 478      64696E67 
 479 018e 00000000 		.ascii	"\000\000\000\000\000\325\000\000\000IntDefaultHandl"
 479      00D50000 
 479      00496E74 
 479      44656661 
 479      756C7448 
 480 01a6 65720000 		.ascii	"er\000\000\002\000\000\000\000\000\000\000\000\000\272"
 480      02000000 
 480      00000000 
 480      0000BA
 481 01b5 000000   		.ascii	"\000\000\000"
 482              		.text
 483              		.section	.gnu.lto_.opts,"",%progbits
 484 0000 272D666E 		.ascii	"'-fno-trapv' '-mcpu=cortex-m3' '-mthumb' '-g' '-O3'"
 484      6F2D7472 
 484      61707627 
 484      20272D6D 
 484      6370753D 
 485 0033 20272D66 		.ascii	" '-ffunction-sections' '-finline-functions' '-flto'"
 485      66756E63 
 485      74696F6E 
 485      2D736563 
 485      74696F6E 
 486 0066 20272D66 		.ascii	" '-ffat-lto-objects'\000"
 486      6661742D 
 486      6C746F2D 
ARM GAS  C:\Users\Bruger\AppData\Local\Temp\cco4ImQQ.s 			page 37


 486      6F626A65 
 486      63747327 
 487              		.text
 488              		.cfi_sections	.debug_frame
 489              		.section	.text.HW_INT_Interrupt,"ax",%progbits
 490              		.align	2
 491              		.global	HW_INT_Interrupt
 492              		.thumb
 493              		.thumb_func
 494              		.type	HW_INT_Interrupt, %function
 495              	HW_INT_Interrupt:
 496              	.LFB3:
 497              		.file 1 "Generated_Source\\PSoC5\\HW_INT.c"
   1:Generated_Source\PSoC5/HW_INT.c **** /*******************************************************************************
   2:Generated_Source\PSoC5/HW_INT.c **** * File Name: HW_INT.c  
   3:Generated_Source\PSoC5/HW_INT.c **** * Version 1.70
   4:Generated_Source\PSoC5/HW_INT.c **** *
   5:Generated_Source\PSoC5/HW_INT.c **** *  Description:
   6:Generated_Source\PSoC5/HW_INT.c **** *   API for controlling the state of an interrupt.
   7:Generated_Source\PSoC5/HW_INT.c **** *
   8:Generated_Source\PSoC5/HW_INT.c **** *
   9:Generated_Source\PSoC5/HW_INT.c **** *  Note:
  10:Generated_Source\PSoC5/HW_INT.c **** *
  11:Generated_Source\PSoC5/HW_INT.c **** ********************************************************************************
  12:Generated_Source\PSoC5/HW_INT.c **** * Copyright 2008-2015, Cypress Semiconductor Corporation.  All rights reserved.
  13:Generated_Source\PSoC5/HW_INT.c **** * You may use this file only in accordance with the license, terms, conditions, 
  14:Generated_Source\PSoC5/HW_INT.c **** * disclaimers, and limitations in the end user license agreement accompanying 
  15:Generated_Source\PSoC5/HW_INT.c **** * the software package with which this file was provided.
  16:Generated_Source\PSoC5/HW_INT.c **** *******************************************************************************/
  17:Generated_Source\PSoC5/HW_INT.c **** 
  18:Generated_Source\PSoC5/HW_INT.c **** 
  19:Generated_Source\PSoC5/HW_INT.c **** #include <cydevice_trm.h>
  20:Generated_Source\PSoC5/HW_INT.c **** #include <CyLib.h>
  21:Generated_Source\PSoC5/HW_INT.c **** #include <HW_INT.h>
  22:Generated_Source\PSoC5/HW_INT.c **** 
  23:Generated_Source\PSoC5/HW_INT.c **** 
  24:Generated_Source\PSoC5/HW_INT.c **** #if !defined(HW_INT__REMOVED) /* Check for removal by optimization */
  25:Generated_Source\PSoC5/HW_INT.c **** 
  26:Generated_Source\PSoC5/HW_INT.c **** /*******************************************************************************
  27:Generated_Source\PSoC5/HW_INT.c **** *  Place your includes, defines and code here 
  28:Generated_Source\PSoC5/HW_INT.c **** ********************************************************************************/
  29:Generated_Source\PSoC5/HW_INT.c **** /* `#START HW_INT_intc` */
  30:Generated_Source\PSoC5/HW_INT.c **** 
  31:Generated_Source\PSoC5/HW_INT.c **** /* `#END` */
  32:Generated_Source\PSoC5/HW_INT.c **** 
  33:Generated_Source\PSoC5/HW_INT.c **** #ifndef CYINT_IRQ_BASE
  34:Generated_Source\PSoC5/HW_INT.c **** #define CYINT_IRQ_BASE      16
  35:Generated_Source\PSoC5/HW_INT.c **** #endif /* CYINT_IRQ_BASE */
  36:Generated_Source\PSoC5/HW_INT.c **** #ifndef CYINT_VECT_TABLE
  37:Generated_Source\PSoC5/HW_INT.c **** #define CYINT_VECT_TABLE    ((cyisraddress **) CYREG_NVIC_VECT_OFFSET)
  38:Generated_Source\PSoC5/HW_INT.c **** #endif /* CYINT_VECT_TABLE */
  39:Generated_Source\PSoC5/HW_INT.c **** 
  40:Generated_Source\PSoC5/HW_INT.c **** /* Declared in startup, used to set unused interrupts to. */
  41:Generated_Source\PSoC5/HW_INT.c **** CY_ISR_PROTO(IntDefaultHandler);
  42:Generated_Source\PSoC5/HW_INT.c **** 
  43:Generated_Source\PSoC5/HW_INT.c **** 
  44:Generated_Source\PSoC5/HW_INT.c **** /*******************************************************************************
ARM GAS  C:\Users\Bruger\AppData\Local\Temp\cco4ImQQ.s 			page 38


  45:Generated_Source\PSoC5/HW_INT.c **** * Function Name: HW_INT_Start
  46:Generated_Source\PSoC5/HW_INT.c **** ********************************************************************************
  47:Generated_Source\PSoC5/HW_INT.c **** *
  48:Generated_Source\PSoC5/HW_INT.c **** * Summary:
  49:Generated_Source\PSoC5/HW_INT.c **** *  Set up the interrupt and enable it. This function disables the interrupt, 
  50:Generated_Source\PSoC5/HW_INT.c **** *  sets the default interrupt vector, sets the priority from the value in the
  51:Generated_Source\PSoC5/HW_INT.c **** *  Design Wide Resources Interrupt Editor, then enables the interrupt to the 
  52:Generated_Source\PSoC5/HW_INT.c **** *  interrupt controller.
  53:Generated_Source\PSoC5/HW_INT.c **** *
  54:Generated_Source\PSoC5/HW_INT.c **** * Parameters:  
  55:Generated_Source\PSoC5/HW_INT.c **** *   None
  56:Generated_Source\PSoC5/HW_INT.c **** *
  57:Generated_Source\PSoC5/HW_INT.c **** * Return:
  58:Generated_Source\PSoC5/HW_INT.c **** *   None
  59:Generated_Source\PSoC5/HW_INT.c **** *
  60:Generated_Source\PSoC5/HW_INT.c **** *******************************************************************************/
  61:Generated_Source\PSoC5/HW_INT.c **** void HW_INT_Start(void)
  62:Generated_Source\PSoC5/HW_INT.c **** {
  63:Generated_Source\PSoC5/HW_INT.c ****     /* For all we know the interrupt is active. */
  64:Generated_Source\PSoC5/HW_INT.c ****     HW_INT_Disable();
  65:Generated_Source\PSoC5/HW_INT.c **** 
  66:Generated_Source\PSoC5/HW_INT.c ****     /* Set the ISR to point to the HW_INT Interrupt. */
  67:Generated_Source\PSoC5/HW_INT.c ****     HW_INT_SetVector(&HW_INT_Interrupt);
  68:Generated_Source\PSoC5/HW_INT.c **** 
  69:Generated_Source\PSoC5/HW_INT.c ****     /* Set the priority. */
  70:Generated_Source\PSoC5/HW_INT.c ****     HW_INT_SetPriority((uint8)HW_INT_INTC_PRIOR_NUMBER);
  71:Generated_Source\PSoC5/HW_INT.c **** 
  72:Generated_Source\PSoC5/HW_INT.c ****     /* Enable it. */
  73:Generated_Source\PSoC5/HW_INT.c ****     HW_INT_Enable();
  74:Generated_Source\PSoC5/HW_INT.c **** }
  75:Generated_Source\PSoC5/HW_INT.c **** 
  76:Generated_Source\PSoC5/HW_INT.c **** 
  77:Generated_Source\PSoC5/HW_INT.c **** /*******************************************************************************
  78:Generated_Source\PSoC5/HW_INT.c **** * Function Name: HW_INT_StartEx
  79:Generated_Source\PSoC5/HW_INT.c **** ********************************************************************************
  80:Generated_Source\PSoC5/HW_INT.c **** *
  81:Generated_Source\PSoC5/HW_INT.c **** * Summary:
  82:Generated_Source\PSoC5/HW_INT.c **** *  Sets up the interrupt and enables it. This function disables the interrupt,
  83:Generated_Source\PSoC5/HW_INT.c **** *  sets the interrupt vector based on the address passed in, sets the priority 
  84:Generated_Source\PSoC5/HW_INT.c **** *  from the value in the Design Wide Resources Interrupt Editor, then enables 
  85:Generated_Source\PSoC5/HW_INT.c **** *  the interrupt to the interrupt controller.
  86:Generated_Source\PSoC5/HW_INT.c **** *  
  87:Generated_Source\PSoC5/HW_INT.c **** *  When defining ISR functions, the CY_ISR and CY_ISR_PROTO macros should be 
  88:Generated_Source\PSoC5/HW_INT.c **** *  used to provide consistent definition across compilers:
  89:Generated_Source\PSoC5/HW_INT.c **** *  
  90:Generated_Source\PSoC5/HW_INT.c **** *  Function definition example:
  91:Generated_Source\PSoC5/HW_INT.c **** *   CY_ISR(MyISR)
  92:Generated_Source\PSoC5/HW_INT.c **** *   {
  93:Generated_Source\PSoC5/HW_INT.c **** *   }
  94:Generated_Source\PSoC5/HW_INT.c **** *   Function prototype example:
  95:Generated_Source\PSoC5/HW_INT.c **** *   CY_ISR_PROTO(MyISR);
  96:Generated_Source\PSoC5/HW_INT.c **** *
  97:Generated_Source\PSoC5/HW_INT.c **** * Parameters:  
  98:Generated_Source\PSoC5/HW_INT.c **** *   address: Address of the ISR to set in the interrupt vector table.
  99:Generated_Source\PSoC5/HW_INT.c **** *
 100:Generated_Source\PSoC5/HW_INT.c **** * Return:
 101:Generated_Source\PSoC5/HW_INT.c **** *   None
ARM GAS  C:\Users\Bruger\AppData\Local\Temp\cco4ImQQ.s 			page 39


 102:Generated_Source\PSoC5/HW_INT.c **** *
 103:Generated_Source\PSoC5/HW_INT.c **** *******************************************************************************/
 104:Generated_Source\PSoC5/HW_INT.c **** void HW_INT_StartEx(cyisraddress address)
 105:Generated_Source\PSoC5/HW_INT.c **** {
 106:Generated_Source\PSoC5/HW_INT.c ****     /* For all we know the interrupt is active. */
 107:Generated_Source\PSoC5/HW_INT.c ****     HW_INT_Disable();
 108:Generated_Source\PSoC5/HW_INT.c **** 
 109:Generated_Source\PSoC5/HW_INT.c ****     /* Set the ISR to point to the HW_INT Interrupt. */
 110:Generated_Source\PSoC5/HW_INT.c ****     HW_INT_SetVector(address);
 111:Generated_Source\PSoC5/HW_INT.c **** 
 112:Generated_Source\PSoC5/HW_INT.c ****     /* Set the priority. */
 113:Generated_Source\PSoC5/HW_INT.c ****     HW_INT_SetPriority((uint8)HW_INT_INTC_PRIOR_NUMBER);
 114:Generated_Source\PSoC5/HW_INT.c **** 
 115:Generated_Source\PSoC5/HW_INT.c ****     /* Enable it. */
 116:Generated_Source\PSoC5/HW_INT.c ****     HW_INT_Enable();
 117:Generated_Source\PSoC5/HW_INT.c **** }
 118:Generated_Source\PSoC5/HW_INT.c **** 
 119:Generated_Source\PSoC5/HW_INT.c **** 
 120:Generated_Source\PSoC5/HW_INT.c **** /*******************************************************************************
 121:Generated_Source\PSoC5/HW_INT.c **** * Function Name: HW_INT_Stop
 122:Generated_Source\PSoC5/HW_INT.c **** ********************************************************************************
 123:Generated_Source\PSoC5/HW_INT.c **** *
 124:Generated_Source\PSoC5/HW_INT.c **** * Summary:
 125:Generated_Source\PSoC5/HW_INT.c **** *   Disables and removes the interrupt.
 126:Generated_Source\PSoC5/HW_INT.c **** *
 127:Generated_Source\PSoC5/HW_INT.c **** * Parameters:  
 128:Generated_Source\PSoC5/HW_INT.c **** *   None
 129:Generated_Source\PSoC5/HW_INT.c **** *
 130:Generated_Source\PSoC5/HW_INT.c **** * Return:
 131:Generated_Source\PSoC5/HW_INT.c **** *   None
 132:Generated_Source\PSoC5/HW_INT.c **** *
 133:Generated_Source\PSoC5/HW_INT.c **** *******************************************************************************/
 134:Generated_Source\PSoC5/HW_INT.c **** void HW_INT_Stop(void)
 135:Generated_Source\PSoC5/HW_INT.c **** {
 136:Generated_Source\PSoC5/HW_INT.c ****     /* Disable this interrupt. */
 137:Generated_Source\PSoC5/HW_INT.c ****     HW_INT_Disable();
 138:Generated_Source\PSoC5/HW_INT.c **** 
 139:Generated_Source\PSoC5/HW_INT.c ****     /* Set the ISR to point to the passive one. */
 140:Generated_Source\PSoC5/HW_INT.c ****     HW_INT_SetVector(&IntDefaultHandler);
 141:Generated_Source\PSoC5/HW_INT.c **** }
 142:Generated_Source\PSoC5/HW_INT.c **** 
 143:Generated_Source\PSoC5/HW_INT.c **** 
 144:Generated_Source\PSoC5/HW_INT.c **** /*******************************************************************************
 145:Generated_Source\PSoC5/HW_INT.c **** * Function Name: HW_INT_Interrupt
 146:Generated_Source\PSoC5/HW_INT.c **** ********************************************************************************
 147:Generated_Source\PSoC5/HW_INT.c **** *
 148:Generated_Source\PSoC5/HW_INT.c **** * Summary:
 149:Generated_Source\PSoC5/HW_INT.c **** *   The default Interrupt Service Routine for HW_INT.
 150:Generated_Source\PSoC5/HW_INT.c **** *
 151:Generated_Source\PSoC5/HW_INT.c **** *   Add custom code between the coments to keep the next version of this file
 152:Generated_Source\PSoC5/HW_INT.c **** *   from over writting your code.
 153:Generated_Source\PSoC5/HW_INT.c **** *
 154:Generated_Source\PSoC5/HW_INT.c **** * Parameters:  
 155:Generated_Source\PSoC5/HW_INT.c **** *
 156:Generated_Source\PSoC5/HW_INT.c **** * Return:
 157:Generated_Source\PSoC5/HW_INT.c **** *   None
 158:Generated_Source\PSoC5/HW_INT.c **** *
ARM GAS  C:\Users\Bruger\AppData\Local\Temp\cco4ImQQ.s 			page 40


 159:Generated_Source\PSoC5/HW_INT.c **** *******************************************************************************/
 160:Generated_Source\PSoC5/HW_INT.c **** CY_ISR(HW_INT_Interrupt)
 161:Generated_Source\PSoC5/HW_INT.c **** {
 498              		.loc 1 161 0
 499              		.cfi_startproc
 500              		@ args = 0, pretend = 0, frame = 0
 501              		@ frame_needed = 0, uses_anonymous_args = 0
 502              		@ link register save eliminated.
 503 0000 7047     		bx	lr
 504              		.cfi_endproc
 505              	.LFE3:
 506              		.size	HW_INT_Interrupt, .-HW_INT_Interrupt
 507 0002 00BF     		.section	.text.HW_INT_Start,"ax",%progbits
 508              		.align	2
 509              		.global	HW_INT_Start
 510              		.thumb
 511              		.thumb_func
 512              		.type	HW_INT_Start, %function
 513              	HW_INT_Start:
 514              	.LFB0:
  62:Generated_Source\PSoC5/HW_INT.c ****     /* For all we know the interrupt is active. */
 515              		.loc 1 62 0
 516              		.cfi_startproc
 517              		@ args = 0, pretend = 0, frame = 0
 518              		@ frame_needed = 0, uses_anonymous_args = 0
 519              		@ link register save eliminated.
  62:Generated_Source\PSoC5/HW_INT.c ****     /* For all we know the interrupt is active. */
 520              		.loc 1 62 0
 521 0000 30B4     		push	{r4, r5}
 522              		.cfi_def_cfa_offset 8
 523              		.cfi_offset 4, -8
 524              		.cfi_offset 5, -4
 525              	.LBB22:
 526              	.LBB23:
 162:Generated_Source\PSoC5/HW_INT.c ****     #ifdef HW_INT_INTERRUPT_INTERRUPT_CALLBACK
 163:Generated_Source\PSoC5/HW_INT.c ****         HW_INT_Interrupt_InterruptCallback();
 164:Generated_Source\PSoC5/HW_INT.c ****     #endif /* HW_INT_INTERRUPT_INTERRUPT_CALLBACK */ 
 165:Generated_Source\PSoC5/HW_INT.c **** 
 166:Generated_Source\PSoC5/HW_INT.c ****     /*  Place your Interrupt code here. */
 167:Generated_Source\PSoC5/HW_INT.c ****     /* `#START HW_INT_Interrupt` */
 168:Generated_Source\PSoC5/HW_INT.c **** 
 169:Generated_Source\PSoC5/HW_INT.c ****     /* `#END` */
 170:Generated_Source\PSoC5/HW_INT.c **** }
 171:Generated_Source\PSoC5/HW_INT.c **** 
 172:Generated_Source\PSoC5/HW_INT.c **** 
 173:Generated_Source\PSoC5/HW_INT.c **** /*******************************************************************************
 174:Generated_Source\PSoC5/HW_INT.c **** * Function Name: HW_INT_SetVector
 175:Generated_Source\PSoC5/HW_INT.c **** ********************************************************************************
 176:Generated_Source\PSoC5/HW_INT.c **** *
 177:Generated_Source\PSoC5/HW_INT.c **** * Summary:
 178:Generated_Source\PSoC5/HW_INT.c **** *   Change the ISR vector for the Interrupt. Note calling HW_INT_Start
 179:Generated_Source\PSoC5/HW_INT.c **** *   will override any effect this method would have had. To set the vector 
 180:Generated_Source\PSoC5/HW_INT.c **** *   before the component has been started use HW_INT_StartEx instead.
 181:Generated_Source\PSoC5/HW_INT.c **** * 
 182:Generated_Source\PSoC5/HW_INT.c **** *   When defining ISR functions, the CY_ISR and CY_ISR_PROTO macros should be 
 183:Generated_Source\PSoC5/HW_INT.c **** *   used to provide consistent definition across compilers:
 184:Generated_Source\PSoC5/HW_INT.c **** *
ARM GAS  C:\Users\Bruger\AppData\Local\Temp\cco4ImQQ.s 			page 41


 185:Generated_Source\PSoC5/HW_INT.c **** *   Function definition example:
 186:Generated_Source\PSoC5/HW_INT.c **** *   CY_ISR(MyISR)
 187:Generated_Source\PSoC5/HW_INT.c **** *   {
 188:Generated_Source\PSoC5/HW_INT.c **** *   }
 189:Generated_Source\PSoC5/HW_INT.c **** *
 190:Generated_Source\PSoC5/HW_INT.c **** *   Function prototype example:
 191:Generated_Source\PSoC5/HW_INT.c **** *     CY_ISR_PROTO(MyISR);
 192:Generated_Source\PSoC5/HW_INT.c **** *
 193:Generated_Source\PSoC5/HW_INT.c **** * Parameters:
 194:Generated_Source\PSoC5/HW_INT.c **** *   address: Address of the ISR to set in the interrupt vector table.
 195:Generated_Source\PSoC5/HW_INT.c **** *
 196:Generated_Source\PSoC5/HW_INT.c **** * Return:
 197:Generated_Source\PSoC5/HW_INT.c **** *   None
 198:Generated_Source\PSoC5/HW_INT.c **** *
 199:Generated_Source\PSoC5/HW_INT.c **** *******************************************************************************/
 200:Generated_Source\PSoC5/HW_INT.c **** void HW_INT_SetVector(cyisraddress address)
 201:Generated_Source\PSoC5/HW_INT.c **** {
 202:Generated_Source\PSoC5/HW_INT.c ****     cyisraddress * ramVectorTable;
 203:Generated_Source\PSoC5/HW_INT.c **** 
 204:Generated_Source\PSoC5/HW_INT.c ****     ramVectorTable = (cyisraddress *) *CYINT_VECT_TABLE;
 527              		.loc 1 204 0
 528 0002 064B     		ldr	r3, .L4
 529              	.LBE23:
 530              	.LBE22:
 531              	.LBB26:
 532              	.LBB27:
 205:Generated_Source\PSoC5/HW_INT.c **** 
 206:Generated_Source\PSoC5/HW_INT.c ****     ramVectorTable[CYINT_IRQ_BASE + (uint32)HW_INT__INTC_NUMBER] = address;
 207:Generated_Source\PSoC5/HW_INT.c **** }
 208:Generated_Source\PSoC5/HW_INT.c **** 
 209:Generated_Source\PSoC5/HW_INT.c **** 
 210:Generated_Source\PSoC5/HW_INT.c **** /*******************************************************************************
 211:Generated_Source\PSoC5/HW_INT.c **** * Function Name: HW_INT_GetVector
 212:Generated_Source\PSoC5/HW_INT.c **** ********************************************************************************
 213:Generated_Source\PSoC5/HW_INT.c **** *
 214:Generated_Source\PSoC5/HW_INT.c **** * Summary:
 215:Generated_Source\PSoC5/HW_INT.c **** *   Gets the "address" of the current ISR vector for the Interrupt.
 216:Generated_Source\PSoC5/HW_INT.c **** *
 217:Generated_Source\PSoC5/HW_INT.c **** * Parameters:
 218:Generated_Source\PSoC5/HW_INT.c **** *   None
 219:Generated_Source\PSoC5/HW_INT.c **** *
 220:Generated_Source\PSoC5/HW_INT.c **** * Return:
 221:Generated_Source\PSoC5/HW_INT.c **** *   Address of the ISR in the interrupt vector table.
 222:Generated_Source\PSoC5/HW_INT.c **** *
 223:Generated_Source\PSoC5/HW_INT.c **** *******************************************************************************/
 224:Generated_Source\PSoC5/HW_INT.c **** cyisraddress HW_INT_GetVector(void)
 225:Generated_Source\PSoC5/HW_INT.c **** {
 226:Generated_Source\PSoC5/HW_INT.c ****     cyisraddress * ramVectorTable;
 227:Generated_Source\PSoC5/HW_INT.c **** 
 228:Generated_Source\PSoC5/HW_INT.c ****     ramVectorTable = (cyisraddress *) *CYINT_VECT_TABLE;
 229:Generated_Source\PSoC5/HW_INT.c **** 
 230:Generated_Source\PSoC5/HW_INT.c ****     return ramVectorTable[CYINT_IRQ_BASE + (uint32)HW_INT__INTC_NUMBER];
 231:Generated_Source\PSoC5/HW_INT.c **** }
 232:Generated_Source\PSoC5/HW_INT.c **** 
 233:Generated_Source\PSoC5/HW_INT.c **** 
 234:Generated_Source\PSoC5/HW_INT.c **** /*******************************************************************************
 235:Generated_Source\PSoC5/HW_INT.c **** * Function Name: HW_INT_SetPriority
ARM GAS  C:\Users\Bruger\AppData\Local\Temp\cco4ImQQ.s 			page 42


 236:Generated_Source\PSoC5/HW_INT.c **** ********************************************************************************
 237:Generated_Source\PSoC5/HW_INT.c **** *
 238:Generated_Source\PSoC5/HW_INT.c **** * Summary:
 239:Generated_Source\PSoC5/HW_INT.c **** *   Sets the Priority of the Interrupt. 
 240:Generated_Source\PSoC5/HW_INT.c **** *
 241:Generated_Source\PSoC5/HW_INT.c **** *   Note calling HW_INT_Start or HW_INT_StartEx will 
 242:Generated_Source\PSoC5/HW_INT.c **** *   override any effect this API would have had. This API should only be called
 243:Generated_Source\PSoC5/HW_INT.c **** *   after HW_INT_Start or HW_INT_StartEx has been called. 
 244:Generated_Source\PSoC5/HW_INT.c **** *   To set the initial priority for the component, use the Design-Wide Resources
 245:Generated_Source\PSoC5/HW_INT.c **** *   Interrupt Editor.
 246:Generated_Source\PSoC5/HW_INT.c **** *
 247:Generated_Source\PSoC5/HW_INT.c **** *   Note This API has no effect on Non-maskable interrupt NMI).
 248:Generated_Source\PSoC5/HW_INT.c **** *
 249:Generated_Source\PSoC5/HW_INT.c **** * Parameters:
 250:Generated_Source\PSoC5/HW_INT.c **** *   priority: Priority of the interrupt, 0 being the highest priority
 251:Generated_Source\PSoC5/HW_INT.c **** *             PSoC 3 and PSoC 5LP: Priority is from 0 to 7.
 252:Generated_Source\PSoC5/HW_INT.c **** *             PSoC 4: Priority is from 0 to 3.
 253:Generated_Source\PSoC5/HW_INT.c **** *
 254:Generated_Source\PSoC5/HW_INT.c **** * Return:
 255:Generated_Source\PSoC5/HW_INT.c **** *   None
 256:Generated_Source\PSoC5/HW_INT.c **** *
 257:Generated_Source\PSoC5/HW_INT.c **** *******************************************************************************/
 258:Generated_Source\PSoC5/HW_INT.c **** void HW_INT_SetPriority(uint8 priority)
 259:Generated_Source\PSoC5/HW_INT.c **** {
 260:Generated_Source\PSoC5/HW_INT.c ****     *HW_INT_INTC_PRIOR = priority << 5;
 261:Generated_Source\PSoC5/HW_INT.c **** }
 262:Generated_Source\PSoC5/HW_INT.c **** 
 263:Generated_Source\PSoC5/HW_INT.c **** 
 264:Generated_Source\PSoC5/HW_INT.c **** /*******************************************************************************
 265:Generated_Source\PSoC5/HW_INT.c **** * Function Name: HW_INT_GetPriority
 266:Generated_Source\PSoC5/HW_INT.c **** ********************************************************************************
 267:Generated_Source\PSoC5/HW_INT.c **** *
 268:Generated_Source\PSoC5/HW_INT.c **** * Summary:
 269:Generated_Source\PSoC5/HW_INT.c **** *   Gets the Priority of the Interrupt.
 270:Generated_Source\PSoC5/HW_INT.c **** *
 271:Generated_Source\PSoC5/HW_INT.c **** * Parameters:
 272:Generated_Source\PSoC5/HW_INT.c **** *   None
 273:Generated_Source\PSoC5/HW_INT.c **** *
 274:Generated_Source\PSoC5/HW_INT.c **** * Return:
 275:Generated_Source\PSoC5/HW_INT.c **** *   Priority of the interrupt, 0 being the highest priority
 276:Generated_Source\PSoC5/HW_INT.c **** *    PSoC 3 and PSoC 5LP: Priority is from 0 to 7.
 277:Generated_Source\PSoC5/HW_INT.c **** *    PSoC 4: Priority is from 0 to 3.
 278:Generated_Source\PSoC5/HW_INT.c **** *
 279:Generated_Source\PSoC5/HW_INT.c **** *******************************************************************************/
 280:Generated_Source\PSoC5/HW_INT.c **** uint8 HW_INT_GetPriority(void)
 281:Generated_Source\PSoC5/HW_INT.c **** {
 282:Generated_Source\PSoC5/HW_INT.c ****     uint8 priority;
 283:Generated_Source\PSoC5/HW_INT.c **** 
 284:Generated_Source\PSoC5/HW_INT.c **** 
 285:Generated_Source\PSoC5/HW_INT.c ****     priority = *HW_INT_INTC_PRIOR >> 5;
 286:Generated_Source\PSoC5/HW_INT.c **** 
 287:Generated_Source\PSoC5/HW_INT.c ****     return priority;
 288:Generated_Source\PSoC5/HW_INT.c **** }
 289:Generated_Source\PSoC5/HW_INT.c **** 
 290:Generated_Source\PSoC5/HW_INT.c **** 
 291:Generated_Source\PSoC5/HW_INT.c **** /*******************************************************************************
 292:Generated_Source\PSoC5/HW_INT.c **** * Function Name: HW_INT_Enable
ARM GAS  C:\Users\Bruger\AppData\Local\Temp\cco4ImQQ.s 			page 43


 293:Generated_Source\PSoC5/HW_INT.c **** ********************************************************************************
 294:Generated_Source\PSoC5/HW_INT.c **** *
 295:Generated_Source\PSoC5/HW_INT.c **** * Summary:
 296:Generated_Source\PSoC5/HW_INT.c **** *   Enables the interrupt to the interrupt controller. Do not call this function
 297:Generated_Source\PSoC5/HW_INT.c **** *   unless ISR_Start() has been called or the functionality of the ISR_Start() 
 298:Generated_Source\PSoC5/HW_INT.c **** *   function, which sets the vector and the priority, has been called.
 299:Generated_Source\PSoC5/HW_INT.c **** *
 300:Generated_Source\PSoC5/HW_INT.c **** * Parameters:
 301:Generated_Source\PSoC5/HW_INT.c **** *   None
 302:Generated_Source\PSoC5/HW_INT.c **** *
 303:Generated_Source\PSoC5/HW_INT.c **** * Return:
 304:Generated_Source\PSoC5/HW_INT.c **** *   None
 305:Generated_Source\PSoC5/HW_INT.c **** *
 306:Generated_Source\PSoC5/HW_INT.c **** *******************************************************************************/
 307:Generated_Source\PSoC5/HW_INT.c **** void HW_INT_Enable(void)
 308:Generated_Source\PSoC5/HW_INT.c **** {
 309:Generated_Source\PSoC5/HW_INT.c ****     /* Enable the general interrupt. */
 310:Generated_Source\PSoC5/HW_INT.c ****     *HW_INT_INTC_SET_EN = HW_INT__INTC_MASK;
 311:Generated_Source\PSoC5/HW_INT.c **** }
 312:Generated_Source\PSoC5/HW_INT.c **** 
 313:Generated_Source\PSoC5/HW_INT.c **** 
 314:Generated_Source\PSoC5/HW_INT.c **** /*******************************************************************************
 315:Generated_Source\PSoC5/HW_INT.c **** * Function Name: HW_INT_GetState
 316:Generated_Source\PSoC5/HW_INT.c **** ********************************************************************************
 317:Generated_Source\PSoC5/HW_INT.c **** *
 318:Generated_Source\PSoC5/HW_INT.c **** * Summary:
 319:Generated_Source\PSoC5/HW_INT.c **** *   Gets the state (enabled, disabled) of the Interrupt.
 320:Generated_Source\PSoC5/HW_INT.c **** *
 321:Generated_Source\PSoC5/HW_INT.c **** * Parameters:
 322:Generated_Source\PSoC5/HW_INT.c **** *   None
 323:Generated_Source\PSoC5/HW_INT.c **** *
 324:Generated_Source\PSoC5/HW_INT.c **** * Return:
 325:Generated_Source\PSoC5/HW_INT.c **** *   1 if enabled, 0 if disabled.
 326:Generated_Source\PSoC5/HW_INT.c **** *
 327:Generated_Source\PSoC5/HW_INT.c **** *******************************************************************************/
 328:Generated_Source\PSoC5/HW_INT.c **** uint8 HW_INT_GetState(void)
 329:Generated_Source\PSoC5/HW_INT.c **** {
 330:Generated_Source\PSoC5/HW_INT.c ****     /* Get the state of the general interrupt. */
 331:Generated_Source\PSoC5/HW_INT.c ****     return ((*HW_INT_INTC_SET_EN & (uint32)HW_INT__INTC_MASK) != 0u) ? 1u:0u;
 332:Generated_Source\PSoC5/HW_INT.c **** }
 333:Generated_Source\PSoC5/HW_INT.c **** 
 334:Generated_Source\PSoC5/HW_INT.c **** 
 335:Generated_Source\PSoC5/HW_INT.c **** /*******************************************************************************
 336:Generated_Source\PSoC5/HW_INT.c **** * Function Name: HW_INT_Disable
 337:Generated_Source\PSoC5/HW_INT.c **** ********************************************************************************
 338:Generated_Source\PSoC5/HW_INT.c **** *
 339:Generated_Source\PSoC5/HW_INT.c **** * Summary:
 340:Generated_Source\PSoC5/HW_INT.c **** *   Disables the Interrupt in the interrupt controller.
 341:Generated_Source\PSoC5/HW_INT.c **** *
 342:Generated_Source\PSoC5/HW_INT.c **** * Parameters:
 343:Generated_Source\PSoC5/HW_INT.c **** *   None
 344:Generated_Source\PSoC5/HW_INT.c **** *
 345:Generated_Source\PSoC5/HW_INT.c **** * Return:
 346:Generated_Source\PSoC5/HW_INT.c **** *   None
 347:Generated_Source\PSoC5/HW_INT.c **** *
 348:Generated_Source\PSoC5/HW_INT.c **** *******************************************************************************/
 349:Generated_Source\PSoC5/HW_INT.c **** void HW_INT_Disable(void)
ARM GAS  C:\Users\Bruger\AppData\Local\Temp\cco4ImQQ.s 			page 44


 350:Generated_Source\PSoC5/HW_INT.c **** {
 351:Generated_Source\PSoC5/HW_INT.c ****     /* Disable the general interrupt. */
 352:Generated_Source\PSoC5/HW_INT.c ****     *HW_INT_INTC_CLR_EN = HW_INT__INTC_MASK;
 533              		.loc 1 352 0
 534 0004 064D     		ldr	r5, .L4+4
 535              	.LBE27:
 536              	.LBE26:
 537              	.LBB30:
 538              	.LBB24:
 204:Generated_Source\PSoC5/HW_INT.c **** 
 539              		.loc 1 204 0
 540 0006 1868     		ldr	r0, [r3]
 206:Generated_Source\PSoC5/HW_INT.c **** }
 541              		.loc 1 206 0
 542 0008 064C     		ldr	r4, .L4+8
 543              	.LBE24:
 544              	.LBE30:
 545              	.LBB31:
 546              	.LBB32:
 260:Generated_Source\PSoC5/HW_INT.c **** }
 547              		.loc 1 260 0
 548 000a 0749     		ldr	r1, .L4+12
 549              	.LBE32:
 550              	.LBE31:
 551              	.LBB34:
 552              	.LBB28:
 553              		.loc 1 352 0
 554 000c 4023     		movs	r3, #64
 555              	.LBE28:
 556              	.LBE34:
 557              	.LBB35:
 558              	.LBB36:
 310:Generated_Source\PSoC5/HW_INT.c **** }
 559              		.loc 1 310 0
 560 000e 074A     		ldr	r2, .L4+16
 561              	.LBE36:
 562              	.LBE35:
 563              	.LBB38:
 564              	.LBB29:
 565              		.loc 1 352 0
 566 0010 2B60     		str	r3, [r5]
 567              	.LVL0:
 568              	.LBE29:
 569              	.LBE38:
 570              	.LBB39:
 571              	.LBB25:
 206:Generated_Source\PSoC5/HW_INT.c **** }
 572              		.loc 1 206 0
 573 0012 8465     		str	r4, [r0, #88]
 574              	.LVL1:
 575              	.LBE25:
 576              	.LBE39:
 577              	.LBB40:
 578              	.LBB33:
 260:Generated_Source\PSoC5/HW_INT.c **** }
 579              		.loc 1 260 0
 580 0014 0B70     		strb	r3, [r1]
ARM GAS  C:\Users\Bruger\AppData\Local\Temp\cco4ImQQ.s 			page 45


 581              	.LBE33:
 582              	.LBE40:
  74:Generated_Source\PSoC5/HW_INT.c **** 
 583              		.loc 1 74 0
 584 0016 30BC     		pop	{r4, r5}
 585              		.cfi_restore 5
 586              		.cfi_restore 4
 587              		.cfi_def_cfa_offset 0
 588              	.LBB41:
 589              	.LBB37:
 310:Generated_Source\PSoC5/HW_INT.c **** }
 590              		.loc 1 310 0
 591 0018 1360     		str	r3, [r2]
 592              	.LBE37:
 593              	.LBE41:
  74:Generated_Source\PSoC5/HW_INT.c **** 
 594              		.loc 1 74 0
 595 001a 7047     		bx	lr
 596              	.L5:
 597              		.align	2
 598              	.L4:
 599 001c 08ED00E0 		.word	-536810232
 600 0020 80E100E0 		.word	-536813184
 601 0024 00000000 		.word	HW_INT_Interrupt
 602 0028 06E400E0 		.word	-536812538
 603 002c 00E100E0 		.word	-536813312
 604              		.cfi_endproc
 605              	.LFE0:
 606              		.size	HW_INT_Start, .-HW_INT_Start
 607              		.section	.text.HW_INT_StartEx,"ax",%progbits
 608              		.align	2
 609              		.global	HW_INT_StartEx
 610              		.thumb
 611              		.thumb_func
 612              		.type	HW_INT_StartEx, %function
 613              	HW_INT_StartEx:
 614              	.LFB1:
 105:Generated_Source\PSoC5/HW_INT.c ****     /* For all we know the interrupt is active. */
 615              		.loc 1 105 0
 616              		.cfi_startproc
 617              		@ args = 0, pretend = 0, frame = 0
 618              		@ frame_needed = 0, uses_anonymous_args = 0
 619              		@ link register save eliminated.
 620              	.LVL2:
 621 0000 30B4     		push	{r4, r5}
 622              		.cfi_def_cfa_offset 8
 623              		.cfi_offset 4, -8
 624              		.cfi_offset 5, -4
 625              	.LBB42:
 626              	.LBB43:
 204:Generated_Source\PSoC5/HW_INT.c **** 
 627              		.loc 1 204 0
 628 0002 064B     		ldr	r3, .L8
 629              	.LBE43:
 630              	.LBE42:
 631              	.LBB46:
 632              	.LBB47:
ARM GAS  C:\Users\Bruger\AppData\Local\Temp\cco4ImQQ.s 			page 46


 633              		.loc 1 352 0
 634 0004 064D     		ldr	r5, .L8+4
 635              	.LBE47:
 636              	.LBE46:
 637              	.LBB50:
 638              	.LBB44:
 204:Generated_Source\PSoC5/HW_INT.c **** 
 639              		.loc 1 204 0
 640 0006 1C68     		ldr	r4, [r3]
 641              	.LBE44:
 642              	.LBE50:
 643              	.LBB51:
 644              	.LBB52:
 260:Generated_Source\PSoC5/HW_INT.c **** }
 645              		.loc 1 260 0
 646 0008 0649     		ldr	r1, .L8+8
 647              	.LBE52:
 648              	.LBE51:
 649              	.LBB54:
 650              	.LBB48:
 651              		.loc 1 352 0
 652 000a 4023     		movs	r3, #64
 653              	.LBE48:
 654              	.LBE54:
 655              	.LBB55:
 656              	.LBB56:
 310:Generated_Source\PSoC5/HW_INT.c **** }
 657              		.loc 1 310 0
 658 000c 064A     		ldr	r2, .L8+12
 659              	.LBE56:
 660              	.LBE55:
 661              	.LBB58:
 662              	.LBB49:
 663              		.loc 1 352 0
 664 000e 2B60     		str	r3, [r5]
 665              	.LVL3:
 666              	.LBE49:
 667              	.LBE58:
 668              	.LBB59:
 669              	.LBB45:
 206:Generated_Source\PSoC5/HW_INT.c **** }
 670              		.loc 1 206 0
 671 0010 A065     		str	r0, [r4, #88]
 672              	.LVL4:
 673              	.LBE45:
 674              	.LBE59:
 675              	.LBB60:
 676              	.LBB53:
 260:Generated_Source\PSoC5/HW_INT.c **** }
 677              		.loc 1 260 0
 678 0012 0B70     		strb	r3, [r1]
 679              	.LBE53:
 680              	.LBE60:
 117:Generated_Source\PSoC5/HW_INT.c **** 
 681              		.loc 1 117 0
 682 0014 30BC     		pop	{r4, r5}
 683              		.cfi_restore 5
ARM GAS  C:\Users\Bruger\AppData\Local\Temp\cco4ImQQ.s 			page 47


 684              		.cfi_restore 4
 685              		.cfi_def_cfa_offset 0
 686              	.LVL5:
 687              	.LBB61:
 688              	.LBB57:
 310:Generated_Source\PSoC5/HW_INT.c **** }
 689              		.loc 1 310 0
 690 0016 1360     		str	r3, [r2]
 691              	.LBE57:
 692              	.LBE61:
 117:Generated_Source\PSoC5/HW_INT.c **** 
 693              		.loc 1 117 0
 694 0018 7047     		bx	lr
 695              	.L9:
 696 001a 00BF     		.align	2
 697              	.L8:
 698 001c 08ED00E0 		.word	-536810232
 699 0020 80E100E0 		.word	-536813184
 700 0024 06E400E0 		.word	-536812538
 701 0028 00E100E0 		.word	-536813312
 702              		.cfi_endproc
 703              	.LFE1:
 704              		.size	HW_INT_StartEx, .-HW_INT_StartEx
 705              		.section	.text.HW_INT_Stop,"ax",%progbits
 706              		.align	2
 707              		.global	HW_INT_Stop
 708              		.thumb
 709              		.thumb_func
 710              		.type	HW_INT_Stop, %function
 711              	HW_INT_Stop:
 712              	.LFB2:
 135:Generated_Source\PSoC5/HW_INT.c ****     /* Disable this interrupt. */
 713              		.loc 1 135 0
 714              		.cfi_startproc
 715              		@ args = 0, pretend = 0, frame = 0
 716              		@ frame_needed = 0, uses_anonymous_args = 0
 717              		@ link register save eliminated.
 718              	.LBB62:
 719              	.LBB63:
 204:Generated_Source\PSoC5/HW_INT.c **** 
 720              		.loc 1 204 0
 721 0000 034B     		ldr	r3, .L11
 722              	.LBE63:
 723              	.LBE62:
 724              	.LBB66:
 725              	.LBB67:
 726              		.loc 1 352 0
 727 0002 0449     		ldr	r1, .L11+4
 728              	.LBE67:
 729              	.LBE66:
 730              	.LBB69:
 731              	.LBB64:
 204:Generated_Source\PSoC5/HW_INT.c **** 
 732              		.loc 1 204 0
 733 0004 1B68     		ldr	r3, [r3]
 206:Generated_Source\PSoC5/HW_INT.c **** }
 734              		.loc 1 206 0
ARM GAS  C:\Users\Bruger\AppData\Local\Temp\cco4ImQQ.s 			page 48


 735 0006 044A     		ldr	r2, .L11+8
 736              	.LBE64:
 737              	.LBE69:
 738              	.LBB70:
 739              	.LBB68:
 740              		.loc 1 352 0
 741 0008 4020     		movs	r0, #64
 742 000a 0860     		str	r0, [r1]
 743              	.LVL6:
 744              	.LBE68:
 745              	.LBE70:
 746              	.LBB71:
 747              	.LBB65:
 206:Generated_Source\PSoC5/HW_INT.c **** }
 748              		.loc 1 206 0
 749 000c 9A65     		str	r2, [r3, #88]
 750 000e 7047     		bx	lr
 751              	.L12:
 752              		.align	2
 753              	.L11:
 754 0010 08ED00E0 		.word	-536810232
 755 0014 80E100E0 		.word	-536813184
 756 0018 00000000 		.word	IntDefaultHandler
 757              	.LBE65:
 758              	.LBE71:
 759              		.cfi_endproc
 760              	.LFE2:
 761              		.size	HW_INT_Stop, .-HW_INT_Stop
 762              		.section	.text.HW_INT_SetVector,"ax",%progbits
 763              		.align	2
 764              		.global	HW_INT_SetVector
 765              		.thumb
 766              		.thumb_func
 767              		.type	HW_INT_SetVector, %function
 768              	HW_INT_SetVector:
 769              	.LFB4:
 201:Generated_Source\PSoC5/HW_INT.c ****     cyisraddress * ramVectorTable;
 770              		.loc 1 201 0
 771              		.cfi_startproc
 772              		@ args = 0, pretend = 0, frame = 0
 773              		@ frame_needed = 0, uses_anonymous_args = 0
 774              		@ link register save eliminated.
 775              	.LVL7:
 204:Generated_Source\PSoC5/HW_INT.c **** 
 776              		.loc 1 204 0
 777 0000 014B     		ldr	r3, .L14
 778 0002 1B68     		ldr	r3, [r3]
 779              	.LVL8:
 206:Generated_Source\PSoC5/HW_INT.c **** }
 780              		.loc 1 206 0
 781 0004 9865     		str	r0, [r3, #88]
 782 0006 7047     		bx	lr
 783              	.L15:
 784              		.align	2
 785              	.L14:
 786 0008 08ED00E0 		.word	-536810232
 787              		.cfi_endproc
ARM GAS  C:\Users\Bruger\AppData\Local\Temp\cco4ImQQ.s 			page 49


 788              	.LFE4:
 789              		.size	HW_INT_SetVector, .-HW_INT_SetVector
 790              		.section	.text.HW_INT_GetVector,"ax",%progbits
 791              		.align	2
 792              		.global	HW_INT_GetVector
 793              		.thumb
 794              		.thumb_func
 795              		.type	HW_INT_GetVector, %function
 796              	HW_INT_GetVector:
 797              	.LFB5:
 225:Generated_Source\PSoC5/HW_INT.c ****     cyisraddress * ramVectorTable;
 798              		.loc 1 225 0
 799              		.cfi_startproc
 800              		@ args = 0, pretend = 0, frame = 0
 801              		@ frame_needed = 0, uses_anonymous_args = 0
 802              		@ link register save eliminated.
 803              	.LVL9:
 228:Generated_Source\PSoC5/HW_INT.c **** 
 804              		.loc 1 228 0
 805 0000 014B     		ldr	r3, .L17
 806              	.LVL10:
 230:Generated_Source\PSoC5/HW_INT.c **** }
 807              		.loc 1 230 0
 808 0002 1B68     		ldr	r3, [r3]
 809              	.LVL11:
 231:Generated_Source\PSoC5/HW_INT.c **** 
 810              		.loc 1 231 0
 811 0004 986D     		ldr	r0, [r3, #88]
 812 0006 7047     		bx	lr
 813              	.L18:
 814              		.align	2
 815              	.L17:
 816 0008 08ED00E0 		.word	-536810232
 817              		.cfi_endproc
 818              	.LFE5:
 819              		.size	HW_INT_GetVector, .-HW_INT_GetVector
 820              		.section	.text.HW_INT_SetPriority,"ax",%progbits
 821              		.align	2
 822              		.global	HW_INT_SetPriority
 823              		.thumb
 824              		.thumb_func
 825              		.type	HW_INT_SetPriority, %function
 826              	HW_INT_SetPriority:
 827              	.LFB6:
 259:Generated_Source\PSoC5/HW_INT.c ****     *HW_INT_INTC_PRIOR = priority << 5;
 828              		.loc 1 259 0
 829              		.cfi_startproc
 830              		@ args = 0, pretend = 0, frame = 0
 831              		@ frame_needed = 0, uses_anonymous_args = 0
 832              		@ link register save eliminated.
 833              	.LVL12:
 260:Generated_Source\PSoC5/HW_INT.c **** }
 834              		.loc 1 260 0
 835 0000 4001     		lsls	r0, r0, #5
 836              	.LVL13:
 837 0002 024B     		ldr	r3, .L20
 838 0004 C0B2     		uxtb	r0, r0
ARM GAS  C:\Users\Bruger\AppData\Local\Temp\cco4ImQQ.s 			page 50


 839 0006 1870     		strb	r0, [r3]
 840 0008 7047     		bx	lr
 841              	.L21:
 842 000a 00BF     		.align	2
 843              	.L20:
 844 000c 06E400E0 		.word	-536812538
 845              		.cfi_endproc
 846              	.LFE6:
 847              		.size	HW_INT_SetPriority, .-HW_INT_SetPriority
 848              		.section	.text.HW_INT_GetPriority,"ax",%progbits
 849              		.align	2
 850              		.global	HW_INT_GetPriority
 851              		.thumb
 852              		.thumb_func
 853              		.type	HW_INT_GetPriority, %function
 854              	HW_INT_GetPriority:
 855              	.LFB7:
 281:Generated_Source\PSoC5/HW_INT.c ****     uint8 priority;
 856              		.loc 1 281 0
 857              		.cfi_startproc
 858              		@ args = 0, pretend = 0, frame = 0
 859              		@ frame_needed = 0, uses_anonymous_args = 0
 860              		@ link register save eliminated.
 285:Generated_Source\PSoC5/HW_INT.c **** 
 861              		.loc 1 285 0
 862 0000 014B     		ldr	r3, .L23
 863 0002 1878     		ldrb	r0, [r3]	@ zero_extendqisi2
 864              	.LVL14:
 288:Generated_Source\PSoC5/HW_INT.c **** 
 865              		.loc 1 288 0
 866 0004 4009     		lsrs	r0, r0, #5
 867              	.LVL15:
 868 0006 7047     		bx	lr
 869              	.L24:
 870              		.align	2
 871              	.L23:
 872 0008 06E400E0 		.word	-536812538
 873              		.cfi_endproc
 874              	.LFE7:
 875              		.size	HW_INT_GetPriority, .-HW_INT_GetPriority
 876              		.section	.text.HW_INT_Enable,"ax",%progbits
 877              		.align	2
 878              		.global	HW_INT_Enable
 879              		.thumb
 880              		.thumb_func
 881              		.type	HW_INT_Enable, %function
 882              	HW_INT_Enable:
 883              	.LFB8:
 308:Generated_Source\PSoC5/HW_INT.c ****     /* Enable the general interrupt. */
 884              		.loc 1 308 0
 885              		.cfi_startproc
 886              		@ args = 0, pretend = 0, frame = 0
 887              		@ frame_needed = 0, uses_anonymous_args = 0
 888              		@ link register save eliminated.
 310:Generated_Source\PSoC5/HW_INT.c **** }
 889              		.loc 1 310 0
 890 0000 014B     		ldr	r3, .L26
ARM GAS  C:\Users\Bruger\AppData\Local\Temp\cco4ImQQ.s 			page 51


 891 0002 4022     		movs	r2, #64
 892 0004 1A60     		str	r2, [r3]
 893 0006 7047     		bx	lr
 894              	.L27:
 895              		.align	2
 896              	.L26:
 897 0008 00E100E0 		.word	-536813312
 898              		.cfi_endproc
 899              	.LFE8:
 900              		.size	HW_INT_Enable, .-HW_INT_Enable
 901              		.section	.text.HW_INT_GetState,"ax",%progbits
 902              		.align	2
 903              		.global	HW_INT_GetState
 904              		.thumb
 905              		.thumb_func
 906              		.type	HW_INT_GetState, %function
 907              	HW_INT_GetState:
 908              	.LFB9:
 329:Generated_Source\PSoC5/HW_INT.c ****     /* Get the state of the general interrupt. */
 909              		.loc 1 329 0
 910              		.cfi_startproc
 911              		@ args = 0, pretend = 0, frame = 0
 912              		@ frame_needed = 0, uses_anonymous_args = 0
 913              		@ link register save eliminated.
 331:Generated_Source\PSoC5/HW_INT.c **** }
 914              		.loc 1 331 0
 915 0000 024B     		ldr	r3, .L29
 916 0002 1868     		ldr	r0, [r3]
 332:Generated_Source\PSoC5/HW_INT.c **** 
 917              		.loc 1 332 0
 918 0004 C0F38010 		ubfx	r0, r0, #6, #1
 919 0008 7047     		bx	lr
 920              	.L30:
 921 000a 00BF     		.align	2
 922              	.L29:
 923 000c 00E100E0 		.word	-536813312
 924              		.cfi_endproc
 925              	.LFE9:
 926              		.size	HW_INT_GetState, .-HW_INT_GetState
 927              		.section	.text.HW_INT_Disable,"ax",%progbits
 928              		.align	2
 929              		.global	HW_INT_Disable
 930              		.thumb
 931              		.thumb_func
 932              		.type	HW_INT_Disable, %function
 933              	HW_INT_Disable:
 934              	.LFB10:
 350:Generated_Source\PSoC5/HW_INT.c ****     /* Disable the general interrupt. */
 935              		.loc 1 350 0
 936              		.cfi_startproc
 937              		@ args = 0, pretend = 0, frame = 0
 938              		@ frame_needed = 0, uses_anonymous_args = 0
 939              		@ link register save eliminated.
 940              		.loc 1 352 0
 941 0000 014B     		ldr	r3, .L32
 942 0002 4022     		movs	r2, #64
 943 0004 1A60     		str	r2, [r3]
ARM GAS  C:\Users\Bruger\AppData\Local\Temp\cco4ImQQ.s 			page 52


 944 0006 7047     		bx	lr
 945              	.L33:
 946              		.align	2
 947              	.L32:
 948 0008 80E100E0 		.word	-536813184
 949              		.cfi_endproc
 950              	.LFE10:
 951              		.size	HW_INT_Disable, .-HW_INT_Disable
 952              		.section	.text.HW_INT_SetPending,"ax",%progbits
 953              		.align	2
 954              		.global	HW_INT_SetPending
 955              		.thumb
 956              		.thumb_func
 957              		.type	HW_INT_SetPending, %function
 958              	HW_INT_SetPending:
 959              	.LFB11:
 353:Generated_Source\PSoC5/HW_INT.c **** }
 354:Generated_Source\PSoC5/HW_INT.c **** 
 355:Generated_Source\PSoC5/HW_INT.c **** 
 356:Generated_Source\PSoC5/HW_INT.c **** /*******************************************************************************
 357:Generated_Source\PSoC5/HW_INT.c **** * Function Name: HW_INT_SetPending
 358:Generated_Source\PSoC5/HW_INT.c **** ********************************************************************************
 359:Generated_Source\PSoC5/HW_INT.c **** *
 360:Generated_Source\PSoC5/HW_INT.c **** * Summary:
 361:Generated_Source\PSoC5/HW_INT.c **** *   Causes the Interrupt to enter the pending state, a software method of
 362:Generated_Source\PSoC5/HW_INT.c **** *   generating the interrupt.
 363:Generated_Source\PSoC5/HW_INT.c **** *
 364:Generated_Source\PSoC5/HW_INT.c **** * Parameters:
 365:Generated_Source\PSoC5/HW_INT.c **** *   None
 366:Generated_Source\PSoC5/HW_INT.c **** *
 367:Generated_Source\PSoC5/HW_INT.c **** * Return:
 368:Generated_Source\PSoC5/HW_INT.c **** *   None
 369:Generated_Source\PSoC5/HW_INT.c **** *
 370:Generated_Source\PSoC5/HW_INT.c **** * Side Effects:
 371:Generated_Source\PSoC5/HW_INT.c **** *   If interrupts are enabled and the interrupt is set up properly, the ISR is
 372:Generated_Source\PSoC5/HW_INT.c **** *   entered (depending on the priority of this interrupt and other pending 
 373:Generated_Source\PSoC5/HW_INT.c **** *   interrupts).
 374:Generated_Source\PSoC5/HW_INT.c **** *
 375:Generated_Source\PSoC5/HW_INT.c **** *******************************************************************************/
 376:Generated_Source\PSoC5/HW_INT.c **** void HW_INT_SetPending(void)
 377:Generated_Source\PSoC5/HW_INT.c **** {
 960              		.loc 1 377 0
 961              		.cfi_startproc
 962              		@ args = 0, pretend = 0, frame = 0
 963              		@ frame_needed = 0, uses_anonymous_args = 0
 964              		@ link register save eliminated.
 378:Generated_Source\PSoC5/HW_INT.c ****     *HW_INT_INTC_SET_PD = HW_INT__INTC_MASK;
 965              		.loc 1 378 0
 966 0000 014B     		ldr	r3, .L35
 967 0002 4022     		movs	r2, #64
 968 0004 1A60     		str	r2, [r3]
 969 0006 7047     		bx	lr
 970              	.L36:
 971              		.align	2
 972              	.L35:
 973 0008 00E200E0 		.word	-536813056
 974              		.cfi_endproc
ARM GAS  C:\Users\Bruger\AppData\Local\Temp\cco4ImQQ.s 			page 53


 975              	.LFE11:
 976              		.size	HW_INT_SetPending, .-HW_INT_SetPending
 977              		.section	.text.HW_INT_ClearPending,"ax",%progbits
 978              		.align	2
 979              		.global	HW_INT_ClearPending
 980              		.thumb
 981              		.thumb_func
 982              		.type	HW_INT_ClearPending, %function
 983              	HW_INT_ClearPending:
 984              	.LFB12:
 379:Generated_Source\PSoC5/HW_INT.c **** }
 380:Generated_Source\PSoC5/HW_INT.c **** 
 381:Generated_Source\PSoC5/HW_INT.c **** 
 382:Generated_Source\PSoC5/HW_INT.c **** /*******************************************************************************
 383:Generated_Source\PSoC5/HW_INT.c **** * Function Name: HW_INT_ClearPending
 384:Generated_Source\PSoC5/HW_INT.c **** ********************************************************************************
 385:Generated_Source\PSoC5/HW_INT.c **** *
 386:Generated_Source\PSoC5/HW_INT.c **** * Summary:
 387:Generated_Source\PSoC5/HW_INT.c **** *   Clears a pending interrupt in the interrupt controller.
 388:Generated_Source\PSoC5/HW_INT.c **** *
 389:Generated_Source\PSoC5/HW_INT.c **** *   Note Some interrupt sources are clear-on-read and require the block 
 390:Generated_Source\PSoC5/HW_INT.c **** *   interrupt/status register to be read/cleared with the appropriate block API 
 391:Generated_Source\PSoC5/HW_INT.c **** *   (GPIO, UART, and so on). Otherwise the ISR will continue to remain in 
 392:Generated_Source\PSoC5/HW_INT.c **** *   pending state even though the interrupt itself is cleared using this API.
 393:Generated_Source\PSoC5/HW_INT.c **** *
 394:Generated_Source\PSoC5/HW_INT.c **** * Parameters:
 395:Generated_Source\PSoC5/HW_INT.c **** *   None
 396:Generated_Source\PSoC5/HW_INT.c **** *
 397:Generated_Source\PSoC5/HW_INT.c **** * Return:
 398:Generated_Source\PSoC5/HW_INT.c **** *   None
 399:Generated_Source\PSoC5/HW_INT.c **** *
 400:Generated_Source\PSoC5/HW_INT.c **** *******************************************************************************/
 401:Generated_Source\PSoC5/HW_INT.c **** void HW_INT_ClearPending(void)
 402:Generated_Source\PSoC5/HW_INT.c **** {
 985              		.loc 1 402 0
 986              		.cfi_startproc
 987              		@ args = 0, pretend = 0, frame = 0
 988              		@ frame_needed = 0, uses_anonymous_args = 0
 989              		@ link register save eliminated.
 403:Generated_Source\PSoC5/HW_INT.c ****     *HW_INT_INTC_CLR_PD = HW_INT__INTC_MASK;
 990              		.loc 1 403 0
 991 0000 014B     		ldr	r3, .L38
 992 0002 4022     		movs	r2, #64
 993 0004 1A60     		str	r2, [r3]
 994 0006 7047     		bx	lr
 995              	.L39:
 996              		.align	2
 997              	.L38:
 998 0008 80E200E0 		.word	-536812928
 999              		.cfi_endproc
 1000              	.LFE12:
 1001              		.size	HW_INT_ClearPending, .-HW_INT_ClearPending
 1002              		.text
 1003              	.Letext0:
 1004              		.file 2 "Generated_Source\\PSoC5/cytypes.h"