ARM GAS  C:\Users\Bruger\AppData\Local\Temp\ccgNVufI.s 			page 1


   1              		.syntax unified
   2              		.cpu cortex-m3
   3              		.fpu softvfp
   4              		.eabi_attribute 20, 1
   5              		.eabi_attribute 21, 1
   6              		.eabi_attribute 23, 3
   7              		.eabi_attribute 24, 1
   8              		.eabi_attribute 25, 1
   9              		.eabi_attribute 26, 1
  10              		.eabi_attribute 30, 2
  11              		.eabi_attribute 34, 1
  12              		.eabi_attribute 18, 4
  13              		.thumb
  14              		.file	"I2C.c"
  15              		.text
  16              	.Ltext0:
  17              		.section	.gnu.lto_.profile.24bfd8d5,"",%progbits
  18 0000 789C6366 		.ascii	"x\234cf```e\200\000F\206\245\214\001\000\002\313\001"
  18      60606065 
  18      80004686 
  18      A58C0100 
  18      02CB01
  19 0013 00       		.ascii	"\000"
  20              		.text
  21              		.section	.gnu.lto_.jmpfuncs.24bfd8d5,"",%progbits
  22 0000 789C6366 		.ascii	"x\234cf\300\0162\2414\013\02031}db\274\361\240\351\024"
  22      C00E32A1 
  22      340B1033 
  22      317D6462 
  22      BCF1A0E9 
  23 0015 F70BA69F 		.ascii	"\367\013\246\237L\014\374\014\214\313\031\245\030@\202"
  23      4C0CFC0C 
  23      8CCB19A5 
  23      184082
  24 0024 F32EF7AD 		.ascii	"\363.\367\255c\252\375\335\320\321\300\361\223\211\361"
  24      63AAFDDD 
  24      D0D1C0F1 
  24      9389F1
  25 0033 33135031 		.ascii	"3\023P1\343\012\306Z\240\016\270\222\357\213\037\274"
  25      E30AC65A 
  25      A00EB892 
  25      EF8B1FBC 
  26 0043 6604EB63 		.ascii	"f\004\353cg`\\\011\024d\003\252\001\252c\007\231\316"
  26      67605C09 
  26      146403AA 
  26      01AA6307 
  26      99CE
  27 0055 09618330 		.ascii	"\011a\2030\000`\365\030\341"
  27      0060F518 
  27      E1
  28              		.text
  29              		.section	.gnu.lto_.inline.24bfd8d5,"",%progbits
  30 0000 789C6366 		.ascii	"x\234cf\300\016:\2404\013\003\203\260\012#\003\223\310"
  30      C00E3AA0 
  30      340B0383 
  30      B00A2303 
  30      93C8
ARM GAS  C:\Users\Bruger\AppData\Local\Temp\ccgNVufI.s 			page 2


  31 0012 82398C0C 		.ascii	"\2029\214\014l\013\344\231@\202\314<\014\014Lp\212\215"
  31      6C0BE499 
  31      4082CC3C 
  31      0C0C4C70 
  31      8A8D
  32 0024 81570EA8 		.ascii	"\201W\016\250\202\347A,\\\001\0237\003\003\343\004?"
  32      82E7412C 
  32      5C011337 
  32      0303E304 
  32      3F
  33 0035 10C5C0CE 		.ascii	"\020\305\300\316\300%\002\224\346:\345\002\227f\344"
  33      C0250294 
  33      E63AE502 
  33      9766E4
  34 0044 82119C0C 		.ascii	"\202\021\234\014z'\030\200\262^\023\016\261`\325\015"
  34      7A271880 
  34      B25E130E 
  34      B160D50D 
  35 0054 65330000 		.ascii	"e3\000\000\235~\015\254"
  35      9D7E0DAC 
  36              		.text
  37              		.section	.gnu.lto_.pureconst.24bfd8d5,"",%progbits
  38 0000 789C6366 		.ascii	"x\234cf``\340d\200\000\026\006)6)v)N)\000\003\003\000"
  38      6060E064 
  38      80001606 
  38      29362976 
  38      294E2900 
  39 0017 8F       		.ascii	"\217"
  40              		.text
  41              		.section	.gnu.lto_I2C_Init.24bfd8d5,"",%progbits
  42 0000 789C75D4 		.ascii	"x\234u\324\315O\023A\030\007\340\371\315\366\013\332"
  42      CD4F1341 
  42      1807E0F9 
  42      CDF60BDA 
  43 0010 22F1D8C4 		.ascii	"\"\361\330\304x\304\230\350\301\304\277\200\003\361"
  43      78C498E8 
  43      C1C4BF80 
  43      03F1
  44 001e 46C295C4 		.ascii	"F\302\225\304\030\354\301\213$D\217\015\263Z\202\037"
  44      18ECC18B 
  44      24448F0D 
  44      B35A821F 
  45 002e 04111362 		.ascii	"\004\021\023b4@\214\021E\024P\244h\251\272\245Z>\014"
  45      34408C11 
  45      451450A4 
  45      68A9BAA5 
  45      5A3E0C
  46 0041 22608428 		.ascii	"\"`\204(X\024\214(\206\026z\300\225T\234\231\355.%\226"
  46      58148C28 
  46      86167AC0 
  46      95549C99 
  46      ED2E2596 
  47 0055 26CDECCE 		.ascii	"&\315\354\316;\363\274\363\316LV!\377\377|\374\177\312"
  47      3BF3BCF3 
  47      CE4C5621 
  47      FFFF7CFC 
  47      7FCA
ARM GAS  C:\Users\Bruger\AppData\Local\Temp\ccgNVufI.s 			page 3


  48 0067 46C87EDE 		.ascii	"F\310~\336B!\240Mo\011Q]\024\020\017\004\244\226\242"
  48      4221A04D 
  48      6F09515D 
  48      14100F04 
  48      A496A2
  49 007a 163FE81A 		.ascii	"\026?\350\032E\223\326u\335]r\2071\226j\036W\3135\350"
  49      4593D675 
  49      DD5D7287 
  49      31966A1E 
  49      57CB35E8 
  50 008e 94903435 		.ascii	"\224\22045\034\334E\011\341\203\326\202\231\031\267"
  50      1CDC4509 
  50      E183D682 
  50      9919B7
  51 009d 23C80715 		.ascii	"#\310\007\025\0331\334\203\003\274\355\331\253\261\255"
  51      1B31DC83 
  51      03BCEDD9 
  51      ABB1AD
  52 00ac ADBEFEE8 		.ascii	"\255\276\376\350\224\263\210\220%\036\022\011\276Q*"
  52      94B38890 
  52      251E1209 
  52      BE512A
  53 00bb 5AE52386 		.ascii	"Z\345#\206R\251\320A1\230#\355_\226\333\212\226\251"
  53      52A9D041 
  53      319823ED 
  53      5F96DB8A 
  53      96A9
  54 00cd 4EF1E19A 		.ascii	"N\361\341\232\312l\302M,ML\272d\027\021\257S\033\337"
  54      CA6CC24D 
  54      2C4D4CBA 
  54      641711AF 
  54      531BDF
  55 00e0 875DADB8 		.ascii	"\207]\255\270\251\006U\315\256S\212N\370p\037\274\032"
  55      A90655CD 
  55      AE538A4E 
  55      F8701FBC 
  55      1A
  56 00f1 74A1157C 		.ascii	"t\241\025|\304\304B\354\212GL\340\031\360\200GD\212"
  56      C4C442EC 
  56      8A474CE0 
  56      19F08047 
  56      448A
  57 0103 DE0133C5 		.ascii	"\336\0013\305\314\346\312e#\305\210\231bq\266\375\275"
  57      CCE6CA65 
  57      23C58899 
  57      6271B6FD 
  57      BD
  58 0114 3BD77C68 		.ascii	";\327|h\231\335\206\031\0167\374.\220\246\012\202\236"
  58      99DD8619 
  58      0E37FC2E 
  58      90A60A82 
  58      9E
  59 0125 2C9AB2D0 		.ascii	",\232\262\320\253\253=\243T\242c&\252F;\177zr\321^\013"
  59      ABAB3DA3 
  59      54A26326 
  59      AA463B7F 
  59      7A72D15E 
ARM GAS  C:\Users\Bruger\AppData\Local\Temp\ccgNVufI.s 			page 4


  60 013a 7D64A0B3 		.ascii	"}d\240\263\267~\265x%\352\"xl.4r(k.\207\232\353e\030"
  60      B77EB578 
  60      25EA2278 
  60      6C2E3472 
  60      286B2E87 
  61 0152 9F4CB365 		.ascii	"\237L\263ee\361\222#\327\354\263\314'Ys\341\334\230"
  61      65F19223 
  61      D7ECB3CC 
  61      275973E1 
  61      DC98
  62 0164 5B4C52F6 		.ascii	"[LR\366\020\364\233\353\264\314xo\342\242\261\231s\246"
  62      10F49BEB 
  62      B4CC786F 
  62      E2A2B199 
  62      73A6
  63 0176 1959BFF1 		.ascii	"\031Y\277\361\327\231k\206,s\3000\325\216\301\006\247"
  63      D7996B86 
  63      2C73C030 
  63      D58EC106 
  63      A7
  64 0187 3479DFD3 		.ascii	"4y\337\323\254\3314\007\263\366d\375x\241\010\333X\354"
  64      ACD93407 
  64      B3F664FD 
  64      78A108DB 
  64      58EC
  65 0199 3C2BDA71 		.ascii	"<+\332qf6yf\223A\226\261\313\024\374\346\330\361\214"
  65      66367966 
  65      934196B1 
  65      CB14FCE6 
  65      D8F18C
  66 01ac 2708CB04 		.ascii	"'\010\313\004\203F\202\314tcJ.\332\301\030?\263\010"
  66      834682CC 
  66      74634A2E 
  66      DAC1183F 
  66      B308
  67 01be 8FCDA14E 		.ascii	"\217\315\241N[w\210\014\002h\233n\354\246\201Mv\201"
  67      5B77880C 
  67      02689B6E 
  67      ECA6814D 
  67      7681
  68 01d0 B974EA4C 		.ascii	"\271t\352L\213\253\200\347\010\310\012yx\343\366\302"
  68      8BAB80E7 
  68      08C80A79 
  68      78E3F6C2 
  69 01e0 0AE4029D 		.ascii	"\012\344\002\235\004/\340\323\371\206\012`#\356\311"
  69      042FE0D3 
  69      F9860A60 
  69      23EEC9
  70 01ef 2B14A4F9 		.ascii	"+\024\244\371\325 x\271-l\207\265\003:-LSEN\204\206"
  70      D52078B9 
  70      2D6C87B5 
  70      033A2D4C 
  70      53454E84 
  71 0204 804EDDC6 		.ascii	"\200N\335\306&&\326\224l\305;0OF\\\366\334\242=\362"
  71      2626D694 
  71      6CC53B30 
  71      4F465CF6 
ARM GAS  C:\Users\Bruger\AppData\Local\Temp\ccgNVufI.s 			page 5


  71      DCA23DF2 
  72 0218 F52BEBD0 		.ascii	"\365+\353\320\345\2762\225\217\362\"\212\000\206d\325"
  72      E5BE3295 
  72      8FF2228A 
  72      008664D5 
  73 0228 31A3EA8E 		.ascii	"1\243\352\216\371\272?\362Ny\213\011^\231G\265\032\265"
  73      F9BA3FF2 
  73      4E798B09 
  73      5E9947B5 
  73      1AB5
  74 023a EF920579 		.ascii	"\357\222\005y\331\327\026\0337Xk\031^\3367l\336\252"
  74      D9D7161B 
  74      37586B19 
  74      5EDE376C 
  74      DEAA
  75 024c A4EADC85 		.ascii	"\244\352\334\205\245y\331\021\213\035\345\254\345\274"
  75      A579D911 
  75      8B1DE5AC 
  75      E5BC
  76 025a 4B621746 		.ascii	"Kb\027F\311\313\214Y\314\033\223\371\014U\233.\223\333"
  76      C9CB8C59 
  76      CC1B93F9 
  76      0C559B2E 
  76      93DB
  77 026c 4BC4E700 		.ascii	"K\304\347\000\3423\300\027\261\257\314\177\332_s\342"
  77      E233C017 
  77      B1AFCC7F 
  77      DA5F73E2 
  78 027c 8CFFE4F1 		.ascii	"\214\377\344\361\212\352\2635U\376\312\362\212\352\322"
  78      8AEAB335 
  78      55FECAF2 
  78      8AEAD2
  79 028b A395C78E 		.ascii	"\243\225\307\216\224\036\256\"\377\000\264\262\255\372"
  79      941EAE22 
  79      FF00B4B2 
  79      ADFA
  80              		.text
  81              		.section	.gnu.lto_I2C_Enable.24bfd8d5,"",%progbits
  82 0000 789C7D91 		.ascii	"x\234}\221\317K\024a\034\306\277\317wvg\2476(:\311B"
  82      CF4B1461 
  82      1CC6BFCF 
  82      777667A7 
  82      36283AC9 
  83 0015 14783021 		.ascii	"\024x0!\012\202\376\002\017Q\247`\257B\204m\320Ea\331"
  83      0A82FE02 
  83      0F51A760 
  83      AF42846D 
  83      D04561D9 
  84 0029 8EE23B39 		.ascii	"\216\342;9Q\354!\266=M\204\202\007)\263\324\262\037"
  84      51EC21B6 
  84      3D4D8482 
  84      0729B3D4 
  84      B21F
  85 003b 10244387 		.ascii	"\020$C\207\222\240B\203\244\262\332\203FE\204b\030C"
  85      92A04283 
  85      A4B2DA83 
  85      46458462 
ARM GAS  C:\Users\Bruger\AppData\Local\Temp\ccgNVufI.s 			page 6


  85      1843
  86 004d C8F6BC33 		.ascii	"\310\366\2743V\240\324\300\373c\336y\236\317\367\231"
  86      56A0D4C0 
  86      FB63DE79 
  86      9ECFF799 
  87 005d EFEBC8E6 		.ascii	"\357\353\310\346\247\300qJE\366r\205#\320\332s\021\337"
  87      A7C0714A 
  87      45F67285 
  87      23D0DA73 
  87      11DF
  88 006f 53C06E04 		.ascii	"S\300n\004\322\247\350\303g]V\324\242\3210\3376l\214"
  88      D2A7E8C3 
  88      675D56D4 
  88      A2D130DF 
  88      366C8C
  89 0082 599A9D69 		.ascii	"Y\232\235i9\327\022\323\266\242)\006W\321&\324|\233"
  89      39D712D3 
  89      B6A22906 
  89      57D126D4 
  89      7C9B
  90 0094 9AADB9CE 		.ascii	"\232\255\271\316\036\330}\370\372]\270\265u\310\230"
  90      1ED87DF8 
  90      FA5DB8B5 
  90      75C898
  91 00a3 B38D70F1 		.ascii	"\263\215p\361q\336\204&h4\233\273c\262\257\301\241\023"
  91      71DE8426 
  91      68349BBB 
  91      63B2AFC1 
  91      A113
  92 00b5 FB0A682F 		.ascii	"\373\012h/\254\007\241a9X\233\313\273\001\013\354\300"
  92      AC07A161 
  92      39589BCB 
  92      BB010BEC 
  92      C0
  93 00c6 085A5338 		.ascii	"\010ZS8\256\303\005\027{2\27632\315\346\344\223\372"
  93      AEC30517 
  93      7B32BE33 
  93      32CDE6E4 
  93      93FA
  94 00d8 F401CD33 		.ascii	"\364\001\3153,\2172\022\253f\355\224\263\223g'\221\005"
  94      2C8F3212 
  94      AB66ED94 
  94      B3936727 
  94      9105
  95 00ea 0E9B7F91 		.ascii	"\016\233\177\221/\\\235y\364G\367\253\333-\353\207:"
  95      2F5C9D79 
  95      F447F7AB 
  95      DB2DEB87 
  95      3A
  96 00fb 2C35F8F2 		.ascii	",5\370\362\342\230\366\3764\027\214\027+\263\330\012"
  96      E298F6FE 
  96      34178C17 
  96      2BB3D80A 
  97 010b A3E8A53B 		.ascii	"\243\350\245;#\257\240IQ\322)\2267x\264Z\3758RN\315"
  97      23AFA049 
  97      51D22996 
  97      3778B45A 
ARM GAS  C:\Users\Bruger\AppData\Local\Temp\ccgNVufI.s 			page 7


  97      FD38524E 
  98 0120 199A2F7F 		.ascii	"\031\232/\177\035\272\347~\322X\263\303\347}\223\261"
  98      1DBAE77E 
  98      D258B3C3 
  98      E77D93B1 
  99 0130 D13F2CBC 		.ascii	"\321?,\274\230\361\222\243\344O\252S\253\321\226\001"
  99      98F192A3 
  99      E44FAA53 
  99      ABD19601 
 100 0140 5CF103C4 		.ascii	"\\\361\003\304\352\342\006\012\270\011\376)\3060\000"
 100      EAE2060A 
 100      B809FE29 
 100      C63000
 101 014f 12FBBFBB 		.ascii	"\022\373\277\273).\233\022\037\324\247\303\204\310\362"
 101      292E9B12 
 101      1FD4A7C3 
 101      84C8F2
 102 015e 18A79245 		.ascii	"\030\247\222E\353\260\222\377\301&\010#\"M\370\245="
 102      EBB092FF 
 102      C1260823 
 102      224DF8A5 
 102      3D
 103 016f 25E6E878 		.ascii	"%\346\350x{i\351Y\232\346\356\357\200\2159\177b\333"
 103      7B69E959 
 103      9AE6EEEF 
 103      808D397F 
 103      62DB
 104 0181 5FC8AD3F 		.ascii	"_\310\255?\220\333\033\022yDl\212\360O\367d\022\301"
 104      90DB1B12 
 104      79446C8A 
 104      F04FF764 
 104      12C1
 105 0193 937904D1 		.ascii	"\223y\004\321\303\247I\337dc{s+\366Jp\207\355e?c\252"
 105      C3A749DF 
 105      64637B73 
 105      2BF64A70 
 105      87ED653F 
 106 01a9 DFC38FD6 		.ascii	"\337\303\217\326\216&b\261\227\005{I\324\354:\\\352"
 106      8E2662B1 
 106      97057B49 
 106      D4EC3A5C 
 106      EA
 107 01ba 2E954F54 		.ascii	".\225OTJ'\217\027{\316\224\273J\235\307\212=\035\207"
 107      4A278F17 
 107      7BCE94BB 
 107      4A9DC78A 
 107      3D1D87
 108 01cd 3A8F1CEC 		.ascii	":\217\034\354\330\337%\336\351\356J\261\302\257\277"
 108      D8DF25DE 
 108      E9EE4AB1 
 108      C2AFBF
 109 01dc 001214DD 		.ascii	"\000\022\024\335q"
 109      71
 110              		.text
 111              		.section	.gnu.lto_I2C_Start.24bfd8d5,"",%progbits
 112 0000 789C7591 		.ascii	"x\234u\221\315K[Q\020\305\347\314}\211\217F\255\270"
 112      CD4B5B51 
ARM GAS  C:\Users\Bruger\AppData\Local\Temp\ccgNVufI.s 			page 8


 112      10C5E7CC 
 112      7D898F46 
 112      ADB8
 113 0012 52A1BAE8 		.ascii	"R\241\272\350\302\235\202\322\277\300Eq#\202[A\324f"
 113      C29D82D2 
 113      BFC04571 
 113      23825B41 
 113      D466
 114 0024 5B41DA65 		.ascii	"[A\332e\360>\363\004\027EB\272)~\202\340\367wm7v\023"
 114      F03EF304 
 114      174542BA 
 114      297E82E0 
 114      F7776D37 
 115 003a 02A5BB14 		.ascii	"\002\245\273\024\015\255R\212n\024\0247\211\026J(!\316"
 115      0DAD528A 
 115      6E141437 
 115      89164A28 
 115      21CE
 116 004c BC14A516 		.ascii	"\274\024\245\026/<\346\276s\317\234\371q\257\241\377"
 116      2F3CE6BE 
 116      73CF9CF9 
 116      71AFA1FF 
 117 005c 57BB7CF5 		.ascii	"W\273|\365L\324$\025!\002'2D\236\313l\366\032\311>r"
 117      4CD42415 
 117      21022732 
 117      449ECB6C 
 117      F61AC93E 
 118 0071 BEB792AD 		.ascii	"\276\267\222\2554p\312\262\003\350\206@#l\034\214\340"
 118      3470CAB2 
 118      03E88640 
 118      236C1C8C 
 118      E0
 119 0082 82F38C44 		.ascii	"\202\363\214Dj\355]\244y\301Z\233;8\251\033\253+H\336"
 119      6AED5DA4 
 119      79C15A9B 
 119      3B38A91B 
 119      AB2B48DE 
 120 0096 3597F3B1 		.ascii	"5\227\363\261\204f\022O\336/\036F\302\276xj\312gXF\030"
 120      8466124F 
 120      DE2F1E46 
 120      C2BE786A 
 120      CA675846 
 121 00ab 52B76A53 		.ascii	"R\267jS\266T\332-%\317\237\032\327P\201E<\025\203\316"
 121      B654DA2D 
 121      25CF9F1A 
 121      D7508145 
 121      3C1583CE 
 122 00bf 3963D66A 		.ascii	"9c\326j~`4\231/\245\215\366\374f#q\263\331\211M\216"
 122      7E603499 
 122      2FA58DF6 
 122      FC662371 
 122      B3D9894D 
 123 00d4 FDB1E3D6 		.ascii	"\375\261\343\326-0\0275P\324\223\323\257\373\3569\213"
 123      2D301735 
 123      50D493D3 
 123      AFFBEE39 
 123      8B
ARM GAS  C:\Users\Bruger\AppData\Local\Temp\ccgNVufI.s 			page 9


 124 00e5 12FC2E7B 		.ascii	"\022\374.{\3764f0\345Yu\031\254 \206U4\310\3545\221"
 124      FE346630 
 124      E5597519 
 124      AC208655 
 124      34C8EC35 
 125 00fa E91BFCA3 		.ascii	"\351\033\374\243\370\300]\246\267\370\351M\205v\013"
 125      F8C05DA6 
 125      B7F8E94D 
 125      85760B
 126 0109 01D6D547 		.ascii	"\001\326\325G\212`h\257\321\374D<\3656S\251f\272?\336"
 126      8A6068AF 
 126      D1FC443C 
 126      F53653A9 
 126      66BA3FDE 
 127 011d B90E3A36 		.ascii	"\271\016:6\020\023\372\020\011ln\373s6\244\336\007I"
 127      1013FA10 
 127      096C6EFB 
 127      7336A4DE 
 127      0749
 128 012f EFA36DDE 		.ascii	"\357\243m\336\242m\211,\206\375\311\305\370c\2051 l"
 128      A26D892C 
 128      86FDC9C5 
 128      F8638531 
 128      206C
 129 0141 073067EC 		.ascii	"\0070g\354\004\267\241,S\031~\210E&`\347\226%\235K|"
 129      04B7A12C 
 129      53197E88 
 129      452660E7 
 129      96259D4B 
 130 0156 317F51AE 		.ascii	"1\177Q\256.\355\214\243\231a\233\216\333\352\177n,\034"
 130      2EED8CA3 
 130      99619B8E 
 130      DBEA7F6E 
 130      2C1C
 131 0168 60FDBA9A 		.ascii	"`\375\272\232OV)\226\217\002W\340=\032\260\033P}(S\025"
 131      4F562996 
 131      8F0257E0 
 131      3D1AB01B 
 131      507D2853 
 132 017d B313B988 		.ascii	"\263\023\271\210\332]k\231\360Q\316\216\341\245\346"
 132      DA5D6B99 
 132      F051CE8E 
 132      E1A5E6
 133 018c BA0218D2 		.ascii	"\272\002\030\322\227\2032\012\303\223\347\321\227\321"
 133      9783320A 
 133      C393E7D1 
 133      97D1
 134 019a E1FE57D1 		.ascii	"\341\376W\321\027}=C\257\207\007\243\275\335=C\035\317"
 134      177D3D43 
 134      AF8707A3 
 134      BDDD3D43 
 134      1DCF
 135 01ac 7A3BDB3A 		.ascii	"z;\333:Z\006\351\006%\361\313\366"
 135      5A06E906 
 135      25F1CBF6 
 136              		.text
 137              		.section	.gnu.lto_I2C_Stop.24bfd8d5,"",%progbits
ARM GAS  C:\Users\Bruger\AppData\Local\Temp\ccgNVufI.s 			page 10


 138 0000 789C9D96 		.ascii	"x\234\235\226]LTW\020\307\357\334e?\330]`\025A\\Z(\331"
 138      5D4C5457 
 138      10C7EFDC 
 138      653FD85D 
 138      6015415C 
 139 0017 10022D36 		.ascii	"\020\002-61\351C_\372\302C\333\267F\336\032\223\246"
 139      31E9435F 
 139      FAC243DB 
 139      B746DE1A 
 139      93A6
 140 0029 A5FB606A 		.ascii	"\245\373`j$Q\372\320F\342]Y\202\345\001aM\015\245bC"
 140      2451FAD0 
 140      46E25D59 
 140      82E50161 
 140      4D0DA562 
 141 003e 52110401 		.ascii	"R\021\004\001\277\250\255\200\213\012T>\345\243P\344"
 141      BFA8AD80 
 141      8B0A543E 
 141      E5A350E4 
 142 004e 1B411029 		.ascii	"\033A\020),\037\025\267\006\350\3149w\367\302\002\033"
 142      2C1F15B7 
 142      06E8CC39 
 142      77F7C202 
 142      1B
 143 005f 5A1266F7 		.ascii	"Z\022f\367\334;\363?\2773g\316\354Q\011[\377\314\370"
 143      DC3BF33F 
 143      BF3367CE 
 143      EC51095B 
 143      FFCCF8
 144 0072 FF914110 		.ascii	"\377\221A\020\336\307OP\011 \346\266\013\202M'\002\320"
 144      DEC74F50 
 144      0920E6B6 
 144      0B824D27 
 144      02D0
 145 0084 170184D3 		.ascii	"\027\001\204\323\"\234\206\347\342\202\010\271\316\262"
 145      229C86E7 
 145      E28208B9 
 145      CEB2
 146 0092 7C43DC65 		.ascii	"|C\334eI\222\\\216\225\210\314\010\267(\010K\"\227\201"
 146      49925C8E 
 146      9588CC08 
 146      B728084B 
 146      229781
 147 00a5 2B1027A0 		.ascii	"+\020'\240\317\202}\265\317\240\261\243\217\211\277"
 147      CF827DB5 
 147      CFA0B1A3 
 147      8F89BF
 148 00b4 8312D080 		.ascii	"\203\022\320\200 P\374\\]W\256F\365\026\220_~\377P\276"
 148      2050FC5C 
 148      5D57AE46 
 148      F516905F 
 148      7EFF50BE 
 149 00c8 DE522449 		.ascii	"\336R$IgF[\246\232\014R\276d\037]_\217v\343\274\245"
 149      67465BA6 
 149      9A0C52BE 
 149      641F5D5F 
 149      8F76E3BC 
ARM GAS  C:\Users\Bruger\AppData\Local\Temp\ccgNVufI.s 			page 11


 150 00dd A0C24878 		.ascii	"\240\302Hx\307\014\361f\031\022\256\202\005\203V\263"
 150      C70CF166 
 150      1912AE82 
 150      058356B3 
 151 00ed AFE5AA55 		.ascii	"\257\345\252U\361L\240e\374\325\222qZt\213\242\211\206"
 151      F14CA065 
 151      FCD59271 
 151      5A748BA2 
 151      8986
 152 00ff 057D93CB 		.ascii	"\005}\223\313*\032\252D\032\336\311\371\273\302\300"
 152      2A1AAA44 
 152      1ADEC9F9 
 152      BBC2C0
 153 010e E55BB3B2 		.ascii	"\345[\263\262\215R\211G>\000\312\270|9\230\341\032x"
 153      8D528947 
 153      3E00CAB8 
 153      7C3998E1 
 153      1A78
 154 0120 27A8004B 		.ascii	"'\250\000K\345^\247\264\276~s\350\374\364\273\001\007"
 154      E55EA7B4 
 154      BE7E73E8 
 154      FCF4BB01 
 154      07
 155 0131 55825B54 		.ascii	"U\202[T\253\311h\311\004\222\321\243\321\030\310\030"
 155      ABC968C9 
 155      0492D1A3 
 155      D118C818 
 156 0141 691844DF 		.ascii	"i\030D\337\202\311\204\260x\023=\334C&\024\2156\234"
 156      82C984B0 
 156      78133DDC 
 156      4326148D 
 156      369C
 157 0153 51EFA771 		.ascii	"Q\357\247q\004\0313\231H2Qd\242\311\304\220\261\220"
 157      04193399 
 157      48325164 
 157      A2C9C490 
 157      B190
 158 0165 89251347 		.ascii	"\211%\023G&\236L\002\031A\230\300\014\3226L\212\"}\252"
 158      269E4C02 
 158      194198C0 
 158      0CD2364C 
 158      8A227DAA 
 159 0179 9EC07D97 		.ascii	"\236\300}\227k(\231r\212\213\314\233\317j\323\323\232"
 159      6B289972 
 159      8A8BCC9B 
 159      CF6AD3D3 
 159      9A
 160 018a 75D2830C 		.ascii	"u\322\203\014)\230\326=2\321\321\251c\217\004\032v\332"
 160      2998D63D 
 160      32D1D1A9 
 160      638F041A 
 160      76DA
 161 019c A5557521 		.ascii	"\245Uu!\374h\263\203[\014\204J\\s\025\255\031\256C!"
 161      FC68B383 
 161      5B0C844A 
 161      5C7315AD 
 161      19AE4321 
ARM GAS  C:\Users\Bruger\AppData\Local\Temp\ccgNVufI.s 			page 12


 162 01b0 5042BB73 		.ascii	"PB\273s\\\006r\327J\022\346\344\006\276\303)^f\257\325"
 162      5C0672D7 
 162      4A12E6E4 
 162      06BEC329 
 162      5E66AFD5 
 163 01c4 9CDABC97 		.ascii	"\234\332\274\227\264\024Z#\333N\214\277\011\232\025"
 163      B4145A23 
 163      DB4E8CBF 
 163      099A15
 164 01d3 51450C73 		.ascii	"QE\014s\225\217DR\3207\237\267I\001\233\030\364\214"
 164      958F4452 
 164      D0379FB7 
 164      49019B18 
 164      F48C
 165 01e5 C1565F3A 		.ascii	"\301V_:c\3640\030\340\0262\334f\014\325\310\200\323"
 165      63F43018 
 165      E01632DC 
 165      660CD5C8 
 165      80D3
 166 01f7 9D711445 		.ascii	"\235q\024E\221\036\272^\352\316\251\020\323_Kg%\235"
 166      911EBA5E 
 166      EACEA910 
 166      D35F4B67 
 166      259D
 167 0209 5B34AE52 		.ascii	"[4\256R\371l\3243\262a\211\315~\021HO\"\257 \370\005"
 167      F96CD433 
 167      B26189CD 
 167      7E11484F 
 167      22AF20F8 
 168 021e D2E10E09 		.ascii	"\322\341\016\011\342\273\265\362s74\211eH\354|\233J"
 168      E2BBB5F2 
 168      73373489 
 168      6548EC7C 
 168      9B4A
 169 0230 E957745C 		.ascii	"\351Wt\\d\025\012\277A\"\022\363\3455\326\236\342+P"
 169      64150ABF 
 169      412212F3 
 169      E535D69E 
 169      E22B50
 170 0243 63CC74B5 		.ascii	"c\314t\265#+\210\341\016xVp\341\305\323l\215\202|\327"
 170      232B88E1 
 170      0E785670 
 170      E1C5D36C 
 170      8D827CD7 
 171 0257 8B5CB34B 		.ascii	"\213\\\263Kd_\306Z?\214u\214\021\210\361\0361\2529c"
 171      645FC65A 
 171      3F8C758C 
 171      1188F11E 
 171      31AA3963 
 172 026b BB87518B 		.ascii	"\273\207Q\2131\215U#\337\361\224\016z\030k\026\013\326"
 172      318D5523 
 172      DFF1940E 
 172      7A186B16 
 172      0BD6
 173 027d B40AA3D3 		.ascii	"\264\012\243\323\313X\377?\031\357\373a|\300\030\331"
 173      CB58FF3F 
 173      19EFFB61 
ARM GAS  C:\Users\Bruger\AppData\Local\Temp\ccgNVufI.s 			page 13


 173      7CC018D9 
 174 028d 717E488C 		.ascii	"q~H\214Z\316\370\254\3661p\310@\177D\0152\321p\326\254"
 174      5ACEF8AC 
 174      F63170C8 
 174      407F440D 
 174      32D170D6 
 175 02a2 8ABBEB31 		.ascii	"\212\273\3531\002\237d\014j\370\330\200\217P\341\347"
 175      029F640C 
 175      6AF8D880 
 175      8F50E1E7 
 176 02b2 EF2F94AB 		.ascii	"\357/\224\253i\231\032\235\000\215\236bl=\300\235\214"
 176      69991A9D 
 176      008D9E62 
 176      6C3DC09D 
 176      8C
 177 02c3 FE76A6C9 		.ascii	"\376v\246\311;G\217<G\020F\320\034\313\362\034\301l"
 177      3B478F3C 
 177      471046D0 
 177      1CCBF21C 
 177      C16C
 178 02d5 9A207AE4 		.ascii	"\232 z\344\220\037\205\340S:%\005\305\031!4m\000\010"
 178      901F85E0 
 178      533A2505 
 178      C5192134 
 178      6D0008
 179 02e8 F03BCAF5 		.ascii	"\360;\312\365\202H\016T\360\350$\037\211\332Oy\220\011"
 179      82480E54 
 179      F0E8241F 
 179      89DA4F79 
 179      9009
 180 02fa 237E1A9B 		.ascii	"#~\032\233\276\024\314\366\243\327\263\037]+SM:\205"
 180      BE14CCF6 
 180      A3D7B31F 
 180      5D2B534D 
 180      3A85
 181 030c EC9197AC 		.ascii	"\354\221\227\254\231\223e\274\222'\335\303%\362\362"
 181      999365BC 
 181      9227DDC3 
 181      25F2F2
 182 031b 6E7109C3 		.ascii	"nq\011\303\032\316\332\302\027\353\000y\313vTkE5\324"
 182      1ACEDAC2 
 182      17EB0079 
 182      CB76546B 
 182      4535D4
 183 032e E04B6DAF 		.ascii	"\340Km\257;\3045C\011s\020\002h$\370\356x\360\022U\027"
 183      3BC43543 
 183      09731002 
 183      6824F8EE 
 183      78F01255 
 184 0343 B441BA80 		.ascii	"\264A\272\200\236n\346\231\341\354?\027\306c\303}\375"
 184      9E6EE699 
 184      E1EC3F17 
 184      C663C37D 
 184      FD
 185 0354 4D4BB4D3 		.ascii	"MK\264\323\320\216\376n\234\311\223\214\253\224\214"
 185      D08EFE6E 
 185      9CC9938C 
ARM GAS  C:\Users\Bruger\AppData\Local\Temp\ccgNVufI.s 			page 14


 185      AB948C
 186 0363 709E8CB9 		.ascii	"p\236\214\271\272oy\360~\014\376a\266\250Z\303\222q"
 186      BA6F79F0 
 186      7E0CFE61 
 186      B6A85AC3 
 186      9271
 187 0375 394B4E46 		.ascii	"9KNFv\335Kg\240\202\337\341\305\177\354\223\214\010"
 187      76DD4B67 
 187      A082DFE1 
 187      C57FEC93 
 187      8C08
 188 0387 2E71A561 		.ascii	".q\245a\252\236\235A\303kLF\247O2vT\353b\311\210\340"
 188      AA9E9D41 
 188      C36B4C46 
 188      A74F3276 
 188      54EB62C9 
 189 039d 4C8B1F70 		.ascii	"L\213\037pI3F\014\344\271\332\370y\271\355A\032\355"
 189      4933460C 
 189      E4B9DAF8 
 189      79B9ED41 
 189      1AED
 190 03af B3556D68 		.ascii	"\263UmhC\335^\221\036\037\244H\224\330\202\260c\364"
 190      43DD5E91 
 190      1E1FA448 
 190      94D882B0 
 190      63F4
 191 03c1 1F0C2112 		.ascii	"\037\014!\022Sjw\216t\030\267\335\200\275K\330x\004"
 191      536A778E 
 191      7418B7DD 
 191      80BD4BD8 
 191      7804
 192 03d3 E8651B10 		.ascii	"\350e\033\020\356\026C9p\357=\271\242\242\374mx\237"
 192      EE164339 
 192      70EF3DB9 
 192      A2A2FC6D 
 192      789F
 193 03e5 8CE729E3 		.ascii	"\214\347)\343h\356\357\375\275Sc\337\376s\267\325\323"
 193      68EEEFFD 
 193      BD5363DF 
 193      FE73B7D5 
 193      D3
 194 03f6 CF68A3A9 		.ascii	"\317h\243\251z\252\027\326\272\003\271d\314\256{\304"
 194      7AAA17D6 
 194      BA03B964 
 194      CCAE7BC4 
 195 0406 932D3D82 		.ascii	"\223-=\202\265\207\001\245\315\016B\"C\031{CfQ\332\277"
 195      B58701A5 
 195      CD0E4222 
 195      43197B43 
 195      6651DABF 
 196 041a CD7960F3 		.ascii	"\315y`\363\017\300\020\243\211a4\327\327=4\226]\323"
 196      0FC010A3 
 196      896134D7 
 196      D73D3496 
 196      5DD3
 197 042c 0C6F4F33 		.ascii	"\014oO3\242\320\214\376\007\2321Fc\341\271\361\322\304"
 197      A2D08CFE 
ARM GAS  C:\Users\Bruger\AppData\Local\Temp\ccgNVufI.s 			page 15


 197      079A3146 
 197      63E1B9F1 
 197      D2C4
 198 043e EE9A667C 		.ascii	"\356\232f|{\232\247J{\237\360\245Q\272\231L\243\364"
 198      7B9AA74A 
 198      7B9FF0A5 
 198      51BA994C 
 198      A3F4
 199 0450 B3494613 		.ascii	"\263IF\023\313s\363\260G\246\211\3335\315\263\355i\246"
 199      CB73F3B0 
 199      47A689DB 
 199      35CDB3ED 
 199      69A6
 200 0462 94463EED 		.ascii	"\224F>\355K\243\364o\231F\351\340\317\031M\234|\370"
 200      4BA3F46F 
 200      9946E9E0 
 200      CF194D9C 
 200      7CF8
 201 0474 9BF5740B 		.ascii	"\233\365t\013X\021\343\375\225\332\214r\254\230s\002"
 201      5811E3FD 
 201      95DA8C72 
 201      AC987302 
 202 0484 F72F6DCF 		.ascii	"\367/m\317\237\341mo\036O\372\013o\341\226\370/\334"
 202      9FE16D6F 
 202      1E4FFA0B 
 202      6FE196F8 
 202      2FDC
 203 0496 59069040 		.ascii	"Y\006\220@\316\256\334\276\000\331=\307Q\230\031\304"
 203      CEAEDCBE 
 203      00D93DC7 
 203      519819C4 
 204 04a6 2F400DF2 		.ascii	"/@\015\362\005\350\342\331\374\273Z\345\306\363\227"
 204      05E8E2D9 
 204      FCBB5AE5 
 204      C6F397
 205 04b5 F7C63387 		.ascii	"\367\3063\207\012\236\013\216\3135\270\254\22256\245"
 205      0A9E0B8E 
 205      CB35B8AC 
 205      923536A5 
 206 04c5 73DF2AED 		.ascii	"s\337*\355\324\306;\307>6\034\227\212\335LU\262\241"
 206      D4C63BC7 
 206      3E361C97 
 206      8ADD4C55 
 206      B2A1
 207 04d7 5718CC63 		.ascii	"W\030\314cv]Lv\201_\244\212\2072\377\011$\3770\223\000"
 207      765D4C76 
 207      815FA48A 
 207      8732FF09 
 207      24FF3093 
 208 04ec 8BF86618 		.ascii	"\213\370f\030l\316\365\303\374\266D\3678\240\373\033"
 208      6CCEF5C3 
 208      FCB644F7 
 208      38A0FB1B 
 209 04fc E6FDCD0F 		.ascii	"\346\375\315\017\255\307\255'>O\263~\371Yr\352\327'"
 209      ADC7AD27 
 209      3E4FB37E 
 209      F95972EA 
ARM GAS  C:\Users\Bruger\AppData\Local\Temp\ccgNVufI.s 			page 16


 209      D727
 210 050e 52AC473E 		.ascii	"R\254G>INMz\357\310\307\207\222\016\246\010\272\243"
 210      494E4D7A 
 210      EFC8C787 
 210      920EA608 
 210      BAA3
 211 0520 C7D392D3 		.ascii	"\307\323\222\323\360\255\351\213c\251)_\035\266\236"
 211      F0ADE98B 
 211      63A9295F 
 211      1DB69E
 212 052f B4A6257D 		.ascii	"\264\246%}\223r\314z\362_\227\375\004\212"
 212      9372CC7A 
 212      F25F97FD 
 212      048A
 213              		.text
 214              		.section	.gnu.lto_.symbol_nodes.24bfd8d5,"",%progbits
 215 0000 789C558D 		.ascii	"x\234U\215\313\015\302@\014Dg\355\354\217\374\350 M"
 215      CB0DC240 
 215      0C4467ED 
 215      EC8FFCE8 
 215      204D
 216 0012 D09F7388 		.ascii	"\320\237s\210\020\022\007\250\000\361I\011\324A\015"
 216      101207A8 
 216      00F14909 
 216      D4410D
 217 0021 8038A606 		.ascii	"\2008\246\006\204\227\010i\361a\2547\232\3210\200h0"
 217      84970869 
 217      F161AC37 
 217      9AD13080 
 217      6830
 218 0033 1F9118EC 		.ascii	"\037\221\030\354o\200\010\016\307\000\023\0043\243\337"
 218      6F80080E 
 218      C7001304 
 218      33A3DF
 219 0042 0458830B 		.ascii	"\004X\203\013\011l4K\325\005%-Y\225X(\357Q!\234\263"
 219      096C344B 
 219      D505252D 
 219      59955828 
 219      EF51219C 
 220 0057 4571D222 		.ascii	"Eq\322\"Y)\376\354\306j\331x\261\277\221^7\235\270\034"
 220      5929FEEC 
 220      C66AD978 
 220      B1BF915E 
 220      379DB81C 
 221 006b 6BF13956 		.ascii	"k\3619V\022rl%f\310\250\360z\274\015\243\304\260\236"
 221      12726C25 
 221      66C8A8F0 
 221      7ABC0DA3 
 221      C4B09E
 222 007e 3A760DC6 		.ascii	":v\015\306\273\262\2531&\366\300\363\272b\357pN\261"
 222      BBB2AB31 
 222      26F6C0F3 
 222      BA62EF70 
 222      4EB1
 223 0090 D862D8AA 		.ascii	"\330b\330\252\0355\366\375\032\333M\035>\201\310?u"
 223      1D35F6FD 
 223      1ADB4D1D 
ARM GAS  C:\Users\Bruger\AppData\Local\Temp\ccgNVufI.s 			page 17


 223      3E81C83F 
 223      75
 224              		.text
 225              		.section	.gnu.lto_.refs.24bfd8d5,"",%progbits
 226 0000 789C25C1 		.ascii	"x\234%\301\261\015\200@\014\004\301=\373\255\367\037"
 226      B10D8040 
 226      0C04C13D 
 226      FBADF71F 
 227 0010 34811022 		.ascii	"4\201\020\"\"\243\377\332\010\230I\340\345W\204Z\261"
 227      22A3FFDA 
 227      089849E0 
 227      E557845A 
 227      B1
 228 0021 94D6D854 		.ascii	"\224\326\330T{LZ\352\321KN\271\344\211\017|\342\013"
 228      7B4C5AEA 
 228      D14B4EB9 
 228      E4890F7C 
 228      E20B
 229 0033 DF8A870F 		.ascii	"\337\212\207\017*d\001\314"
 229      2A6401CC 
 230              		.text
 231              		.section	.gnu.lto_.decls.24bfd8d5,"",%progbits
 232 0000 789C8D56 		.ascii	"x\234\215V{PT\327\031\277g\317.\260w\227\205\304)\311"
 232      7B5054D7 
 232      19BF67CF 
 232      2EB07797 
 232      85C429C9 
 233 0014 38E3044D 		.ascii	"8\343\004M\206I;65f\322\311\177M\335d26\235\226\021"
 233      86493B36 
 233      3566D2C9 
 233      7F4DDD64 
 233      32369D96 
 234 0029 B57FC419 		.ascii	"\265\177\304\031\007a\223\354H\301,K\307\375\357\362"
 234      076193EC 
 234      48C12C4B 
 234      C7FDEFF2 
 235 0039 92878848 		.ascii	"\222\207\210HKyh\354\022@D\344\241<\002\202<\203\202"
 235      4B7968EC 
 235      124044E4 
 235      A13C0282 
 235      3C8382
 236 004c 02210802 		.ascii	"\002!\010\002\242\362\212\226(\232\005A\027\021\266"
 236      A2F28A96 
 236      289A0541 
 236      1711B6
 237 005b DF39E7DE 		.ascii	"\3379\347\336\335{\011t<3\337\336s\316\376\276\337\367"
 237      DD7B0974 
 237      3C33DFDE 
 237      73CEFEBE 
 237      DFF7
 238 006d 38DF7960 		.ascii	"8\337y`\216\343\336Rq\234\013Z\203/\3079\020\307i`."
 238      8EE3DE52 
 238      719C0B5A 
 238      832FC739 
 238      10C76960 
 239 0082 1804A6B9 		.ascii	"\030\004\246\271\000\220R\2165\036\244\014\244\002\344"
 239      0090528E 
ARM GAS  C:\Users\Bruger\AppData\Local\Temp\ccgNVufI.s 			page 18


 239      351EA40C 
 239      A402E4
 240 0091 02481548 		.ascii	"\002H\025H\015H\033\310U\220\353 \275 C ^ \267@n\203"
 240      0D481BC8 
 240      5590EB20 
 240      BD204320 
 240      5E20B740 
 241 00a7 DC051907 		.ascii	"\334\005\031\007\231\002Y\342\224\215p\031D{.\220e\321"
 241      990259E2 
 241      948D7019 
 241      447B2E90 
 241      65D1
 242 00b9 A61AFC50 		.ascii	"\246\032\374P\201l\206\276\006\276\035\204\0231_Z@\274"
 242      816C86BE 
 242      06BE1D84 
 242      13315F5A 
 242      40BC
 243 00cb A13F2C72 		.ascii	"\241?,r\250E\236\253\242/e\342\334j\373\362F\374\327"
 243      A8459EAB 
 243      A22F65E2 
 243      DC6AFBF2 
 243      46FCD7
 244 00de 8A761B45 		.ascii	"\212v\033E\233>\300\331-\363C\013\343.\021\217E\235"
 244      9B3EC0D9 
 244      2DF3430B 
 244      E32E118F 
 244      459D
 245 00f0 5E31CED5 		.ascii	"^1\316\325\255J\306G\270x\304x\211\277%\253\342\221"
 245      AD4AC647 
 245      B878C478 
 245      89BF25AB 
 245      E291
 246 0102 F8AA64B9 		.ascii	"\370\252d\271Db~\344\255F\344\222|$y\322\203\370#6\037"
 246      44627EE4 
 246      AD46E492 
 246      7C2479D2 
 246      83F82336 
 247 0117 C8313E89 		.ascii	"\3101>\211[\362\373\025\350/\302\367U\370\016\312\342"
 247      5BF2FB15 
 247      E82FC2F7 
 247      55F80ECA 
 247      E2
 248 0128 92E29172 		.ascii	"\222\342\221rG|\230\007Y\000\231\025sFl\016\311\342"
 248      477C9807 
 248      59009915 
 248      73466C0E 
 248      C9E2
 249 013a 2435B024 		.ascii	"$5\260$\346R\336fU\250\276|\276G7\255B\006>\220\014"
 249      E652DE66 
 249      55A8BE7C 
 249      BE4737AD 
 249      42063E90 
 250 014f 2F6576E6 		.ascii	"/ev\346x\301P\317\253\311\260air@\375Z\226\000-#^\360"
 250      78C150CF 
 250      ABC9B061 
 250      697240FD 
 250      5A96002D 
ARM GAS  C:\Users\Bruger\AppData\Local\Temp\ccgNVufI.s 			page 19


 251 0166 57A3E000 		.ascii	"W\243\340\000T\2146\242\263h#D[\202^\203\337\317\324"
 251      548C36A2 
 251      B3682344 
 251      5B825E83 
 251      DFCFD4
 252 0179 8CA92067 		.ascii	"\214\251 gb\200\337z\016\240\311B\213\277\307\302\335"
 252      6280DF7A 
 252      0EA0C942 
 252      8BBFC7C2 
 252      DD
 253 018a 9C9654B5 		.ascii	"\234\226T\265>U\020\342\010\207\266\323@\364d,\245H"
 253      3E5510E2 
 253      0887B6D3 
 253      40F4642C 
 253      A548
 254 019c 8FCEA1AD 		.ascii	"\217\316\241\255\034\353\202\302\251\301\263\327\274"
 254      1CEB82C2 
 254      A9C1B3D7 
 254      BC
 255 01a9 31C409FD 		.ascii	"1\304\011\375\211\272\324.\277\300\323\302\270\340("
 255      89BAD42E 
 255      BFC0D3C2 
 255      B8E028
 256 01b8 69FA6BAE 		.ascii	"i\372k\256\220\037'\254\270\\\210\332F\347\021\0265"
 256      901F27AC 
 256      B85C88DA 
 256      46E71116 
 256      35
 257 01c9 39D2A706 		.ascii	"9\322\247\006Q\031\012\004\275\364\363w\037\251\360"
 257      51190A04 
 257      BDF4F377 
 257      1FA9F0
 258 01d8 EF28C7ED 		.ascii	"\357(\307\355\244\222.\003\341\250t8\373G\364B\247\320"
 258      A4922E03 
 258      E1A87438 
 258      FB47F442 
 258      A7D0
 259 01ea E272FD81 		.ascii	"\342r\375\201Q\224\313(\312%\212\012J\021\377\244\254"
 259      5194CB28 
 259      CA258A0A 
 259      4A11FFA4 
 259      AC
 260 01fb 08E1BD94 		.ascii	"\010\341\275\224\"ve\254\333\227R\330\217\025y1\002"
 260      227665AC 
 260      DB9752D8 
 260      8F157931 
 260      02
 261 020c AA5F29D3 		.ascii	"\252_)\323\257\224\364/P\375\376[\215\211:\034J\365"
 261      AF94F42F 
 261      50FDFE5B 
 261      8D893A1C 
 261      4AF5
 262 021e EB171EBF 		.ascii	"\353\027\036\277\017\352\366J\373\262B\375\242L\375"
 262      0FEAF64A 
 262      FBB242FD 
 262      A24CFD
 263 022d A2A45E45 		.ascii	"\242\244^E\325[r\023\317\373\341\203T\375\\i[5\317\364"
ARM GAS  C:\Users\Bruger\AppData\Local\Temp\ccgNVufI.s 			page 20


 263      D55B7213 
 263      CFFBE183 
 263      54FD5C69 
 263      5B35CFF4 
 264 0241 EB8BE5FA 		.ascii	"\353\213\345\372\3252\375jI\277\206\352\327w\326L\""
 264      D532FD6A 
 264      49BF86EA 
 264      D777D64C 
 264      22
 265 0252 6C25FAAA 		.ascii	"l%\372\252\312\202\336\223z\024\244/\204\305q\244$."
 265      CA82DE93 
 265      7A14A42F 
 265      84C571A4 
 265      242E
 266 0264 1D8C133E 		.ascii	"\035\214\023>Du\220\367Z\267>\311=[\262\365V\012}\213"
 266      447590F7 
 266      5AB73EC9 
 266      3D5BB2F5 
 266      560A7D8B 
 267 0278 82648B05 		.ascii	"\202d\213\005&n6'%\371\340\002\304Rt\246!\315\033*'"
 267      266E3627 
 267      25F9E002 
 267      C45274A6 
 267      21CD1B2A 
 268 028d 80A7FFA5 		.ascii	"\200\247\377\245_\317k\305t\350\242.\214\214\374k\021"
 268      5FCF6BC5 
 268      74E8A22E 
 268      8C8CFC6B 
 268      11
 269 029e 233E2899 		.ascii	"#>(\231\260;2\005\374:\207\266nD\277\006\336\313\300"
 269      B03B3205 
 269      FC3A87B6 
 269      6E44BF06 
 269      DECBC0
 270 02b1 1BC0535A 		.ascii	"\033\300SZt\011\2145\2001\342\351\270\263\304  \324"
 270      74098C35 
 270      8031E2E9 
 270      B8B3C420 
 270      20D4
 271 02c3 887854EF 		.ascii	"\210xT\357\361\223\360\213\225\2258\235\336\247VCq\323"
 271      F193F08B 
 271      9595389D 
 271      DEA75643 
 271      71D3
 272 02d5 583EA315 		.ascii	"X>\243\025\273\260T:\200\350\034\321kBtrp\311U\357'"
 272      BBB0543A 
 272      80E81CD1 
 272      6B427472 
 272      70C955EF 
 273 02ea 2F6382F7 		.ascii	"/c\202\367T`\013\255\343f$\026rmzS\205\036\227\260\260"
 273      54600BAD 
 273      E3662416 
 273      726D7A53 
 273      851E97B0 
 274 02ff 8EE40CF7 		.ascii	"\216\344\014\367\371\262\002t\026\235\371\352D|F\241"
 274      F9B20274 
 274      169DF9EA 
ARM GAS  C:\Users\Bruger\AppData\Local\Temp\ccgNVufI.s 			page 21


 274      447C46A1 
 275 030f 30EE72BD 		.ascii	"0\356r\275A\265P\253,\377\255R\376\333h\3763\022[3\324"
 275      41B550AB 
 275      2CFFAD52 
 275      FEDB68FE 
 275      33125B33 
 276 0324 6E479873 		.ascii	"nG\230s\331\311\323\325\336\356\271v\346\\BsG\254f\335"
 276      D9C9D3D5 
 276      DEEEB976 
 276      E65C4273 
 276      47AC66DD 
 277 0338 3DD6417D 		.ascii	"=\326A}\373N\362\255?u.E\207\207\231oY\011\305\371<"
 277      FB4EF2AD 
 277      3F752E45 
 277      8787996F 
 277      5909C5F9 
 278 034d F56DFCD4 		.ascii	"\365m\374\324=S[\202\360\302\345\302T\005]\2219vEr\354"
 278      3D535B82 
 278      F0C2E5C2 
 278      54055D91 
 278      39764572 
 279 0362 EABA8E2D 		.ascii	"\352\272\216-\270&\212T\353\372\320E}\350\224|\230)"
 279      B8268A54 
 279      EBFAD045 
 279      7DE8947C 
 279      9829
 280 0374 BB50A9C3 		.ascii	"\273P\251\303?1\037\0122\032G\275\230\017\256v\217\017"
 280      3F311F0A 
 280      321A47BD 
 280      980FAE76 
 280      8F0F
 281 0386 A082AEC9 		.ascii	"\240\202\256\311|\270&\371p\235\372\220\222P\211\345"
 281      7CB826F9 
 281      709DFA90 
 281      925089E5 
 282 0396 E688271E 		.ascii	"\346\210'\036{\335\212s\345\373\007Osy\354b\346\306"
 282      7BDD8A73 
 282      E5FB074F 
 282      7379EC62 
 282      E6C6
 283 03a8 4A8B2298 		.ascii	"J\213\"\230\265\225)\2175P@=2k=\222\265^jmbx\250\321"
 283      B595298F 
 283      3550403D 
 283      326B3D92 
 283      B55E6A6D 
 284 03c0 1BFF5BA5 		.ascii	"\033\377[\245\250\323\315\254N\307N.\026j\351\220\\"
 284      A8D3CDAC 
 284      4EC74E2E 
 284      166AE990 
 284      5C
 285 03d1 9E7EA454 		.ascii	"\236~\244T\033\3322\177\340Q\020\317vKG\323\237\342"
 285      1BDA327F 
 285      E05110CF 
 285      764B47D3 
 285      9FE2
 286 03e3 61B7DC00 		.ascii	"a\267\334\000\017\277\367T\341f\261\012\223=\233\205"
 286      0FBFF754 
ARM GAS  C:\Users\Bruger\AppData\Local\Temp\ccgNVufI.s 			page 22


 286      E166B10A 
 286      933D9B85 
 287 03f3 F3EC947E 		.ascii	"\363\354\224~\250\350\315bE\367\301\344\0170\011\266"
 287      A8E8CD62 
 287      45F7C1E4 
 287      0F3009B6 
 288 0403 F2724704 		.ascii	"\362rG\004V\2337\334\231\237\356k\374\355\272\211\037"
 288      569B37DC 
 288      999FEE6B 
 288      FCEDBA89 
 288      1F
 289 0414 A4891890 		.ascii	"\244\211\030\220\022\177+\375y\017\217\277fq\304\325"
 289      127F2BFD 
 289      790F8FBF 
 289      6671C4D5 
 290 0424 3626AAC5 		.ascii	"6&\252\305\302\354X\331&;\032A\013\335\224e\343\246"
 290      C2EC58D9 
 290      263B1A41 
 290      0BDD9465 
 290      E3A6
 291 0436 948D219A 		.ascii	"\224\215!\232\215\232\247\251\365\276<8\036\377\022"
 291      8D9AA7A9 
 291      F5BE3C38 
 291      1EFF12
 292 0445 FB905459 		.ascii	"\373\220TY\366\2458\015.eV\253*\352fto\346\013\205\005"
 292      F6A5380D 
 292      2E6556AB 
 292      2AEA6674 
 292      6FE60B85 
 293 045a 0EE7BC1D 		.ascii	"\016\347\274\035e\203\3718\201\234Fh\030B\032aVEB\216"
 293      6583F938 
 293      819C4668 
 293      18421A61 
 293      5645428E 
 294 046e 8CA9E15B 		.ascii	"\214\251\341[\350M\262\013S\027.\363\270\206\021u\224"
 294      E84DB20B 
 294      53172EF3 
 294      B8861175 
 294      94
 295 047f 773AB584 		.ascii	"w:\265\204(\336\221\366\360\306\246laBN4\272\212hT$"
 295      28DE91F6 
 295      F0C6A66C 
 295      61424E34 
 295      BA8A6854 
 296 0494 BA4D89A6 		.ascii	"\272M\211\246j\276\351\321\342\373\214(\257F\310\347"
 296      6ABEE9D1 
 296      E2FB8C28 
 296      AF46C8E7 
 297 04a4 29D1F89D 		.ascii	")\321\370\235\347\373\332b\023h\026(\313\235U,wD\226"
 297      E7FBDA62 
 297      13681628 
 297      CB9D552C 
 297      774496
 298 04b7 BB946564 		.ascii	"\273\224ed~0\013\341E\306Rt<\265\202\271c\177P.\354"
 298      7E300BE1 
 298      45C65274 
 298      3CB582B9 
ARM GAS  C:\Users\Bruger\AppData\Local\Temp\ccgNVufI.s 			page 23


 298      637F502E 
 299 04cc 90B38CAD 		.ascii	"\220\263\214\255b\031\023Y\306)\313\350\364\351\343"
 299      62191359 
 299      C629CBE8 
 299      F4E9E3
 300 04db 7E380D53 		.ascii	"~8\015S\226\225\321\312o\311\355\011\345L\027\354\344"
 300      9695D1CA 
 300      6FC9ED09 
 300      E54C17EC 
 300      E4
 301 04ec F98211E2 		.ascii	"\371\202\021\342\233\375\033\207\323q['\344\010\364"
 301      9BFD1B87 
 301      D3715B27 
 301      E408F4
 302 04fb ECA0E53E 		.ascii	"\354\240\345>\261\212v\202\320\242IR>S\224y\354\331"
 302      B18A7682 
 302      D0A24952 
 302      3E539479 
 302      ECD9
 303 050d 589B37BD 		.ascii	"X\2337\275\231\267\021\256\314\304\272:\003\275\231"
 303      99B711AE 
 303      CCC4BA3A 
 303      03BD99
 304 051c BDC8F0D1 		.ascii	"\275\310\360\321\345\271G:\234\303\3546\227\337\310"
 304      E5B9473A 
 304      9CC3EC36 
 304      97DFC8
 305 052b F1C1E744 		.ascii	"\361\301\347D'\026\227{5\270\226\015\204\3623-\032\334"
 305      2716977B 
 305      35B8960D 
 305      84F2332D 
 305      1ADC
 306 053d C006D727 		.ascii	"\300\006\327'\235O\364\224\321\237VP\303\2639\0367\263"
 306      9D4FF494 
 306      D19F5650 
 306      C3B3391E 
 306      37B3
 307 054f FF729F75 		.ascii	"\377r\237u_\361\243\377\275N\206}\361\366r\003\376\216"
 307      5FF1A3FF 
 307      BD4E867D 
 307      F1F67203 
 307      FE8E
 308 0561 FD77F948 		.ascii	"\375w\371He\273\036w\263\301\331\311\336L_\012|\033"
 308      65BB1E77 
 308      B3C1D9C9 
 308      DE4C5F0A 
 308      7C1B
 309 0573 863E178B 		.ascii	"\206>\027\213\013]:\264a\013iA[N\320B\026\204\017\277"
 309      0B5D3AB4 
 309      610B6941 
 309      5B4ED042 
 309      16840FBF 
 310 0587 E2D08F50 		.ascii	"\342\320\217PB\367h\031;\320\006\032\352S(\2609\264"
 310      42F76819 
 310      3BD0061A 
 310      EA5328B0 
 310      39B4
ARM GAS  C:\Users\Bruger\AppData\Local\Temp\ccgNVufI.s 			page 24


 311 0599 053D0179 		.ascii	"\005=\001y\0062\017\262\0002\213\266\320\002\265\303"
 311      06320FB2 
 311      00328BB6 
 311      D002B5C3 
 312 05a9 667294AC 		.ascii	"fr\224\254\\\365\205\262ja\007\377c\310\022Q\027K\364"
 312      5CF585B2 
 312      6A6107FF 
 312      63C81251 
 312      174BF4
 313 05bc 6D42F733 		.ascii	"mB\3673!\245`\273sJ\223\263\215\002\377\273\006\360"
 313      21A560BB 
 313      734A93B3 
 313      8D02FFBB 
 313      06F0
 314 05ce 376EDC92 		.ascii	"7n\334\222\0337\275\006n\253\033\267\354\306=\\\003"
 314      1B37BD06 
 314      6EAB1BB7 
 314      ECC63D5C 
 314      03
 315 05df 37E331BC 		.ascii	"7\3431\274\342\006>Z\003XL\201\364\016{\\\340\005w\030"
 315      E2063E5A 
 315      03584C81 
 315      F40E7B5C 
 315      E0057718 
 316 05f3 0038693F 		.ascii	"\0008i?r\356X\307_L]\201\242`<?\255\301\363\200\362"
 316      72EE58C7 
 316      5F4C5D81 
 316      A2603C3F 
 316      ADC1F380 
 317 0608 C091147F 		.ascii	"\300\221\024\177\254i\321\027\005m\240\224\271&\037"
 317      AC69D117 
 317      056DA094 
 317      B9261F
 318 0617 B408C8FB 		.ascii	"\264\010\310\373\236\343\210\360\323\266\326\002 '\344"
 318      9EE388F0 
 318      D3B6D602 
 318      2027E4
 319 0626 FD65D700 		.ascii	"\375e\327\000V\370\347\274\366&\003\036`\313\235\331"
 319      56F8E7BC 
 319      F626031E 
 319      60CB9DD9 
 320 0636 79CC4936 		.ascii	"y\314I6\274]p\244\225fn\212\365\354S\342\302s\261\210"
 320      BC5D70A4 
 320      95666E8A 
 320      F5EC53E2 
 320      C273B188 
 321 064a 3D6BFD5C 		.ascii	"=k\375\\\334\035K\264\206\205\354\243\205>x\214R\251"
 321      DC1D4BB4 
 321      8685ECA3 
 321      853E788C 
 321      52A9
 322 065c 067A536F 		.ascii	"\006zSoj\331\023`\365\321\263\262\316\023\000\216\337"
 322      6AD91360 
 322      F5D1B3B2 
 322      CE13008E 
 322      DF
 323 066d B94F13E0 		.ascii	"\271O\023\340\370]\206\014\275\360\304;\214<\257\200"
ARM GAS  C:\Users\Bruger\AppData\Local\Temp\ccgNVufI.s 			page 25


 323      F85D860C 
 323      BDF0C43B 
 323      8C3CAF80 
 324 067d 94C9BC1E 		.ascii	"\224\311\274\036\275\342}\271\254\270M\\\354aC\276\200"
 324      BDE27DB9 
 324      ACB84D5C 
 324      EC6143BE 
 324      80
 325 068e 4ECEAC7D 		.ascii	"N\316\254}\250\301?\262\340\372\263f\377\343\303\216"
 325      A8C13FB2 
 325      E0FAB366 
 325      FFE3C38E 
 326 069e C2973CC3 		.ascii	"\302\227<\303UG\235\323\263\006)\210_(\305\253~\251"
 326      55479DD3 
 326      B3062988 
 326      5F28C5AB 
 326      7EA9
 327 06b0 44E2B077 		.ascii	"D\342\260w\373!\024\247\342\221\240r\307\020\253\362"
 327      FB2114A7 
 327      E291A072 
 327      C710ABF2 
 328 06c0 C450D775 		.ascii	"\304P\327uaR\245\210\201\200=1$\250X\014\360%\317\301"
 328      6152A588 
 328      81803D31 
 328      24A8580C 
 328      F025CFC1 
 329 06d4 99C634A4 		.ascii	"\231\3064\244@w(^\324\211\":\221\242{Kz\263\224\371"
 329      4077285E 
 329      D489223A 
 329      91A27B4B 
 329      7AB394F9 
 330 06e8 6951A08F 		.ascii	"iQ\240\217\210\350#\024=2?sJ\211\036Vd3ID'Q\2643\177"
 330      88E82314 
 330      3D323F73 
 330      4A891E56 
 330      64334944 
 331 0701 E2BE9F02 		.ascii	"\342\276\237\002\335\255\340N\026\321\311\024\235\221"
 331      DDADE04E 
 331      16D1C914 
 331      9D91
 332 070f 79B249AB 		.ascii	"y\262I\253@w)\320)\":\205\242\263O;\226\224h\345+!U"
 332      407729D0 
 332      29223A85 
 332      A2B34F3B 
 332      969468E5 
 333 0726 44A75274 		.ascii	"D\247Rt\336\320\275yL\217G\025I\350\327s\217\033\265"
 333      DED0BD79 
 333      4C8F4715 
 333      49E8D773 
 333      8F1BB5
 334 0739 F801565C 		.ascii	"\370\001V\\\371\201\354T\316~\350\254\366\241C\362x"
 334      F981EC54 
 334      CE7EE8AC 
 334      F6A143F2 
 334      78
 335 074a 80355D9A 		.ascii	"\2005]\232*/\366\022/\374\361E\372\350\314\200\364\247"
 335      2A2FF612 
ARM GAS  C:\Users\Bruger\AppData\Local\Temp\ccgNVufI.s 			page 26


 335      2FFCF145 
 335      FAE8CC80 
 335      F4A7
 336 075c 79D62A50 		.ascii	"y\326*P~\335\303\302k\316\032\350\356DGU\260\352\307"
 336      7EDDC3C2 
 336      6BCE1AE8 
 336      EE444755 
 336      B0EAC7
 337 076f 61D503C5 		.ascii	"a\325\003\305U?\246\332\210\322\311$0\200\255\243\265"
 337      553FA6DA 
 337      88D2C924 
 337      3080ADA3 
 337      B5
 338 0780 FF6CC58A 		.ascii	"\377l\305\212 \310\266\361\004qB\014\342\004\015\242"
 338      20C8B6F1 
 338      0471420C 
 338      E2040DA2 
 339 0790 31BE3D41 		.ascii	"1\276=A\247@\017*\022\224)\242\311\327\353\223\277\354"
 339      A7400F2A 
 339      129429A2 
 339      C9D7EB93 
 339      BFEC
 340 07a2 093472DE 		.ascii	"\0114r\336;\267\033\367\357\014\331\265\351\023S\244"
 340      3BB71BF7 
 340      EF0CD9B5 
 340      E91353A4 
 341 07b2 C9126A35 		.ascii	"\311\022j5\205\357\017\211\212\261\204\231\366\005\207"
 341      85EF0F89 
 341      8AB18499 
 341      F60587
 342 07c1 4419DFDF 		.ascii	"D\031\337\337\007\177\277\363%\347CQ\221f\353"
 342      077FBFF3 
 342      25E74351 
 342      9166EB
 343 07d0 FF838571 		.ascii	"\377\203\205q<\201}\034\031z \302\244%\335\020k\250"
 343      3C817D1C 
 343      197A20C2 
 343      A425DD10 
 343      6BA8
 344 07e2 C5EAC37A 		.ascii	"\305\352\303zQ\207\364a6s\264%4<\334b\212\216\336\274"
 344      5187F461 
 344      3673B425 
 344      343CDC62 
 344      8A8EDEBC 
 345 07f6 0E5198CD 		.ascii	"\016Q\230\315j;d\212\006\233\232\030s\244\365\003\203"
 345      6A3B648A 
 345      069B9A18 
 345      73A4F503 
 345      83
 346 0807 D1B633D2 		.ascii	"\321\2663\322\032b\262\3565\205Y\243,o\254\243f\264"
 346      1A62B2EE 
 346      358559A3 
 346      2C6FACA3 
 346      66B4
 347 0819 FDD97C00 		.ascii	"\375\331|\000\224\374%x\260\305\034e1[m\2772\332>>l"
 347      94FC2578 
 347      B0C51C65 
ARM GAS  C:\Users\Bruger\AppData\Local\Temp\ccgNVufI.s 			page 27


 347      315B6DBF 
 347      32DA3E3E 
 348 082e B61AA16F 		.ascii	"\266\032\241o\016\013\215\010\001\026sTd\000\314FZM"
 348      0E0B8D08 
 348      01167354 
 348      6400CC46 
 348      5A4D
 349 0840 9655D35E 		.ascii	"\226U\323^\304\344{\333}\215\266\217L\021\2416\243-"
 349      C4E47BDB 
 349      7D8DB68F 
 349      4C11A136 
 349      A32D
 350 0852 2CC2144D 		.ascii	",\302\024M#\211\266\202M\003\351\375=\332j\201\270\254"
 350      2389B682 
 350      4D03E9FD 
 350      3DDA6A81 
 350      B8AC
 351 0864 31EB8640 		.ascii	"1\353\206@P\301{w\2037\257J\012\273\302w\304|\27632"
 351      50C17B77 
 351      8337AF4A 
 351      0ABBC277 
 351      C47CBE33 
 352 0879 DC74D83D 		.ascii	"\334t\330=\3657\2134\245#SfH\356\336P\313+\244\277\343"
 352      F5378B34 
 352      A5235366 
 352      48EEDE50 
 352      CB2BA4BF 
 353 088e 8FC64FF7 		.ascii	"\217\306O\367\004\357\017\331\275k\217q\267\316D\363"
 353      04EF0FD9 
 353      BD6B8F71 
 353      B7CE44F3 
 354 089e 494C9AD4 		.ascii	"IL\232\324\207\303>\377\002\203\250I\026\275\303\"\016"
 354      87C33EFF 
 354      0283A849 
 354      16BDC322 
 354      0E
 355 08af 7E64FEC7 		.ascii	"~d\376\307\273\342w;\315\376\201\320\260\2031\207\324"
 355      BBE2773B 
 355      CDFE81D0 
 355      B0833187 
 355      D4
 356 08c0 16D3171F 		.ascii	"\026\323\027\037h\340\347\275\3554\246w\177\377?P\262"
 356      68E0E7BD 
 356      ED34A677 
 356      7FFF3F50 
 356      B2
 357 08d1 0402     		.ascii	"\004\002"
 358              		.text
 359              		.section	.gnu.lto_.symtab.24bfd8d5,"",%progbits
 360 0000 4932435F 		.ascii	"I2C_Init\000\000\000\000\000\000\000\000\000\000\000"
 360      496E6974 
 360      00000000 
 360      00000000 
 360      000000
 361 0013 00AF0000 		.ascii	"\000\257\000\000\000I2C_state\000\000\004\000\001\000"
 361      00493243 
 361      5F737461 
ARM GAS  C:\Users\Bruger\AppData\Local\Temp\ccgNVufI.s 			page 28


 361      74650000 
 361      04000100 
 362 0027 00000000 		.ascii	"\000\000\000\000\000\000\332\000\000\000I2C_Enable\000"
 362      0000DA00 
 362      00004932 
 362      435F456E 
 362      61626C65 
 363 003c 00000000 		.ascii	"\000\000\000\000\000\000\000\000\000\000\000\261\000"
 363      00000000 
 363      000000B1 
 363      00
 364 0049 00004932 		.ascii	"\000\000I2C_Start\000\000\000\000\000\000\000\000\000"
 364      435F5374 
 364      61727400 
 364      00000000 
 364      00000000 
 365 005d 000000B3 		.ascii	"\000\000\000\263\000\000\000I2C_initVar\000\000\000"
 365      00000049 
 365      32435F69 
 365      6E697456 
 365      61720000 
 366 0072 00000000 		.ascii	"\000\000\000\000\000\000\000\000\000\343\000\000\000"
 366      00000000 
 366      00E30000 
 366      00
 367 007f 4932435F 		.ascii	"I2C_Stop\000\000\000\000\000\000\000\000\000\000\000"
 367      53746F70 
 367      00000000 
 367      00000000 
 367      000000
 368 0092 00B50000 		.ascii	"\000\265\000\000\000I2C_ISR\000\000\002\000\000\000"
 368      00493243 
 368      5F495352 
 368      00000200 
 368      0000
 369 00a4 00000000 		.ascii	"\000\000\000\000\000\000\255\000\000\000I2C_mstrSta"
 369      0000AD00 
 369      00004932 
 369      435F6D73 
 369      74725374 
 370 00b9 74757300 		.ascii	"tus\000\000\002\000\000\000\000\000\000\000\000\000"
 370      00020000 
 370      00000000 
 370      000000
 371 00c8 DC000000 		.ascii	"\334\000\000\000I2C_mstrRdBufIndex\000\000\002\000\000"
 371      4932435F 
 371      6D737472 
 371      52644275 
 371      66496E64 
 372 00e3 00000000 		.ascii	"\000\000\000\000\000\000\000\336\000\000\000I2C_mst"
 372      000000DE 
 372      00000049 
 372      32435F6D 
 372      7374
 373 00f5 72577242 		.ascii	"rWrBufIndex\000\000\002\000\000\000\000\000\000\000"
 373      7566496E 
 373      64657800 
ARM GAS  C:\Users\Bruger\AppData\Local\Temp\ccgNVufI.s 			page 29


 373      00020000 
 373      00000000 
 374 010a 0000E000 		.ascii	"\000\000\340\000\000\000I2C_backup\000\000\002\000\000"
 374      00004932 
 374      435F6261 
 374      636B7570 
 374      00000200 
 375 011f 00000000 		.ascii	"\000\000\000\000\000\000\000\373\000\000\000CyIntSe"
 375      000000FB 
 375      00000043 
 375      79496E74 
 375      5365
 376 0131 74566563 		.ascii	"tVector\000\000\002\000\000\000\000\000\000\000\000"
 376      746F7200 
 376      00020000 
 376      00000000 
 376      0000
 377 0143 00C20000 		.ascii	"\000\302\000\000\000CyIntSetPriority\000\000\002\000"
 377      00437949 
 377      6E745365 
 377      74507269 
 377      6F726974 
 378 015c 00000000 		.ascii	"\000\000\000\000\000\000\000\000\307\000\000\000CyE"
 378      00000000 
 378      C7000000 
 378      437945
 379 016b 78697443 		.ascii	"xitCriticalSection\000\000\002\000\000\000\000\000\000"
 379      72697469 
 379      63616C53 
 379      65637469 
 379      6F6E0000 
 380 0186 000000CB 		.ascii	"\000\000\000\313\000\000\000CyEnterCriticalSection\000"
 380      00000043 
 380      79456E74 
 380      65724372 
 380      69746963 
 381 01a4 00020000 		.ascii	"\000\002\000\000\000\000\000\000\000\000\000\316\000"
 381      00000000 
 381      000000CE 
 381      00
 382 01b1 00004379 		.ascii	"\000\000CyDelayCycles\000\000\002\000\000\000\000\000"
 382      44656C61 
 382      79437963 
 382      6C657300 
 382      00020000 
 383 01c8 00000000 		.ascii	"\000\000\000\000\327\000\000\000"
 383      D7000000 
 384              		.text
 385              		.section	.gnu.lto_.opts,"",%progbits
 386 0000 272D666E 		.ascii	"'-fno-trapv' '-mcpu=cortex-m3' '-mthumb' '-g' '-O3'"
 386      6F2D7472 
 386      61707627 
 386      20272D6D 
 386      6370753D 
 387 0033 20272D66 		.ascii	" '-ffunction-sections' '-finline-functions' '-flto'"
 387      66756E63 
 387      74696F6E 
ARM GAS  C:\Users\Bruger\AppData\Local\Temp\ccgNVufI.s 			page 30


 387      2D736563 
 387      74696F6E 
 388 0066 20272D66 		.ascii	" '-ffat-lto-objects'\000"
 388      6661742D 
 388      6C746F2D 
 388      6F626A65 
 388      63747327 
 389              		.text
 390              		.cfi_sections	.debug_frame
 391              		.section	.text.I2C_Init,"ax",%progbits
 392              		.align	2
 393              		.global	I2C_Init
 394              		.thumb
 395              		.thumb_func
 396              		.type	I2C_Init, %function
 397              	I2C_Init:
 398              	.LFB0:
 399              		.file 1 "Generated_Source\\PSoC5\\I2C.c"
   1:Generated_Source\PSoC5/I2C.c **** /*******************************************************************************
   2:Generated_Source\PSoC5/I2C.c **** * File Name: I2C.c
   3:Generated_Source\PSoC5/I2C.c **** * Version 3.50
   4:Generated_Source\PSoC5/I2C.c **** *
   5:Generated_Source\PSoC5/I2C.c **** * Description:
   6:Generated_Source\PSoC5/I2C.c **** *  This file provides the source code of APIs for the I2C component.
   7:Generated_Source\PSoC5/I2C.c **** *  The actual protocol and operation code resides in the interrupt service
   8:Generated_Source\PSoC5/I2C.c **** *  routine file.
   9:Generated_Source\PSoC5/I2C.c **** *
  10:Generated_Source\PSoC5/I2C.c **** *******************************************************************************
  11:Generated_Source\PSoC5/I2C.c **** * Copyright 2008-2015, Cypress Semiconductor Corporation. All rights reserved.
  12:Generated_Source\PSoC5/I2C.c **** * You may use this file only in accordance with the license, terms, conditions,
  13:Generated_Source\PSoC5/I2C.c **** * disclaimers, and limitations in the end user license agreement accompanying
  14:Generated_Source\PSoC5/I2C.c **** * the software package with which this file was provided.
  15:Generated_Source\PSoC5/I2C.c **** *******************************************************************************/
  16:Generated_Source\PSoC5/I2C.c **** 
  17:Generated_Source\PSoC5/I2C.c **** #include "I2C_PVT.h"
  18:Generated_Source\PSoC5/I2C.c **** 
  19:Generated_Source\PSoC5/I2C.c **** 
  20:Generated_Source\PSoC5/I2C.c **** /**********************************
  21:Generated_Source\PSoC5/I2C.c **** *      System variables
  22:Generated_Source\PSoC5/I2C.c **** **********************************/
  23:Generated_Source\PSoC5/I2C.c **** 
  24:Generated_Source\PSoC5/I2C.c **** uint8 I2C_initVar = 0u; /* Defines if component was initialized */
  25:Generated_Source\PSoC5/I2C.c **** 
  26:Generated_Source\PSoC5/I2C.c **** volatile uint8 I2C_state;  /* Current state of I2C FSM */
  27:Generated_Source\PSoC5/I2C.c **** 
  28:Generated_Source\PSoC5/I2C.c **** 
  29:Generated_Source\PSoC5/I2C.c **** /*******************************************************************************
  30:Generated_Source\PSoC5/I2C.c **** * Function Name: I2C_Init
  31:Generated_Source\PSoC5/I2C.c **** ********************************************************************************
  32:Generated_Source\PSoC5/I2C.c **** *
  33:Generated_Source\PSoC5/I2C.c **** * Summary:
  34:Generated_Source\PSoC5/I2C.c **** *  Initializes I2C registers with initial values provided from customizer.
  35:Generated_Source\PSoC5/I2C.c **** *
  36:Generated_Source\PSoC5/I2C.c **** * Parameters:
  37:Generated_Source\PSoC5/I2C.c **** *  None.
  38:Generated_Source\PSoC5/I2C.c **** *
  39:Generated_Source\PSoC5/I2C.c **** * Return:
ARM GAS  C:\Users\Bruger\AppData\Local\Temp\ccgNVufI.s 			page 31


  40:Generated_Source\PSoC5/I2C.c **** *  None.
  41:Generated_Source\PSoC5/I2C.c **** *
  42:Generated_Source\PSoC5/I2C.c **** * Global variables:
  43:Generated_Source\PSoC5/I2C.c **** *  None.
  44:Generated_Source\PSoC5/I2C.c **** *
  45:Generated_Source\PSoC5/I2C.c **** * Reentrant:
  46:Generated_Source\PSoC5/I2C.c **** *  No.
  47:Generated_Source\PSoC5/I2C.c **** *
  48:Generated_Source\PSoC5/I2C.c **** *******************************************************************************/
  49:Generated_Source\PSoC5/I2C.c **** void I2C_Init(void) 
  50:Generated_Source\PSoC5/I2C.c **** {
 400              		.loc 1 50 0
 401              		.cfi_startproc
 402              		@ args = 0, pretend = 0, frame = 0
 403              		@ frame_needed = 0, uses_anonymous_args = 0
 404 0000 2DE9F843 		push	{r3, r4, r5, r6, r7, r8, r9, lr}
 405              		.cfi_def_cfa_offset 32
 406              		.cfi_offset 3, -32
 407              		.cfi_offset 4, -28
 408              		.cfi_offset 5, -24
 409              		.cfi_offset 6, -20
 410              		.cfi_offset 7, -16
 411              		.cfi_offset 8, -12
 412              		.cfi_offset 9, -8
 413              		.cfi_offset 14, -4
  51:Generated_Source\PSoC5/I2C.c **** #if (I2C_FF_IMPLEMENTED)
  52:Generated_Source\PSoC5/I2C.c ****     /* Configure fixed function block */
  53:Generated_Source\PSoC5/I2C.c ****     I2C_CFG_REG  = I2C_DEFAULT_CFG;
 414              		.loc 1 53 0
 415 0004 1648     		ldr	r0, .L3
  54:Generated_Source\PSoC5/I2C.c ****     I2C_XCFG_REG = I2C_DEFAULT_XCFG;
  55:Generated_Source\PSoC5/I2C.c ****     I2C_ADDR_REG = I2C_DEFAULT_ADDR;
  56:Generated_Source\PSoC5/I2C.c ****     I2C_CLKDIV1_REG = LO8(I2C_DEFAULT_DIVIDE_FACTOR);
  57:Generated_Source\PSoC5/I2C.c ****     I2C_CLKDIV2_REG = HI8(I2C_DEFAULT_DIVIDE_FACTOR);
  58:Generated_Source\PSoC5/I2C.c **** 
  59:Generated_Source\PSoC5/I2C.c **** #else
  60:Generated_Source\PSoC5/I2C.c ****     uint8 intState;
  61:Generated_Source\PSoC5/I2C.c **** 
  62:Generated_Source\PSoC5/I2C.c ****     /* Configure control and interrupt sources */
  63:Generated_Source\PSoC5/I2C.c ****     I2C_CFG_REG      = I2C_DEFAULT_CFG;
  64:Generated_Source\PSoC5/I2C.c ****     I2C_INT_MASK_REG = I2C_DEFAULT_INT_MASK;
  65:Generated_Source\PSoC5/I2C.c **** 
  66:Generated_Source\PSoC5/I2C.c ****     /* Enable interrupt generation in status */
  67:Generated_Source\PSoC5/I2C.c ****     intState = CyEnterCriticalSection();
  68:Generated_Source\PSoC5/I2C.c ****     I2C_INT_ENABLE_REG |= I2C_INTR_ENABLE;
  69:Generated_Source\PSoC5/I2C.c ****     CyExitCriticalSection(intState);
  70:Generated_Source\PSoC5/I2C.c **** 
  71:Generated_Source\PSoC5/I2C.c ****     /* Configure bit counter */
  72:Generated_Source\PSoC5/I2C.c ****     #if (I2C_MODE_SLAVE_ENABLED)
  73:Generated_Source\PSoC5/I2C.c ****         I2C_PERIOD_REG = I2C_DEFAULT_PERIOD;
  74:Generated_Source\PSoC5/I2C.c ****     #endif  /* (I2C_MODE_SLAVE_ENABLED) */
  75:Generated_Source\PSoC5/I2C.c **** 
  76:Generated_Source\PSoC5/I2C.c ****     /* Configure clock generator */
  77:Generated_Source\PSoC5/I2C.c ****     #if (I2C_MODE_MASTER_ENABLED)
  78:Generated_Source\PSoC5/I2C.c ****         I2C_MCLK_PRD_REG = I2C_DEFAULT_MCLK_PRD;
  79:Generated_Source\PSoC5/I2C.c ****         I2C_MCLK_CMP_REG = I2C_DEFAULT_MCLK_CMP;
  80:Generated_Source\PSoC5/I2C.c ****     #endif /* (I2C_MODE_MASTER_ENABLED) */
ARM GAS  C:\Users\Bruger\AppData\Local\Temp\ccgNVufI.s 			page 32


  81:Generated_Source\PSoC5/I2C.c **** #endif /* (I2C_FF_IMPLEMENTED) */
  82:Generated_Source\PSoC5/I2C.c **** 
  83:Generated_Source\PSoC5/I2C.c **** #if (I2C_TIMEOUT_ENABLED)
  84:Generated_Source\PSoC5/I2C.c ****     I2C_TimeoutInit();
  85:Generated_Source\PSoC5/I2C.c **** #endif /* (I2C_TIMEOUT_ENABLED) */
  86:Generated_Source\PSoC5/I2C.c **** 
  87:Generated_Source\PSoC5/I2C.c ****     /* Configure internal interrupt */
  88:Generated_Source\PSoC5/I2C.c ****     CyIntDisable    (I2C_ISR_NUMBER);
 416              		.loc 1 88 0
 417 0006 174B     		ldr	r3, .L3+4
  55:Generated_Source\PSoC5/I2C.c ****     I2C_CLKDIV1_REG = LO8(I2C_DEFAULT_DIVIDE_FACTOR);
 418              		.loc 1 55 0
 419 0008 DFF87CE0 		ldr	lr, .L3+40
  54:Generated_Source\PSoC5/I2C.c ****     I2C_XCFG_REG = I2C_DEFAULT_XCFG;
 420              		.loc 1 54 0
 421 000c 1649     		ldr	r1, .L3+8
  56:Generated_Source\PSoC5/I2C.c ****     I2C_CLKDIV2_REG = HI8(I2C_DEFAULT_DIVIDE_FACTOR);
 422              		.loc 1 56 0
 423 000e 174F     		ldr	r7, .L3+12
  57:Generated_Source\PSoC5/I2C.c **** 
 424              		.loc 1 57 0
 425 0010 174E     		ldr	r6, .L3+16
  56:Generated_Source\PSoC5/I2C.c ****     I2C_CLKDIV2_REG = HI8(I2C_DEFAULT_DIVIDE_FACTOR);
 426              		.loc 1 56 0
 427 0012 0F25     		movs	r5, #15
  57:Generated_Source\PSoC5/I2C.c **** 
 428              		.loc 1 57 0
 429 0014 0024     		movs	r4, #0
 430              		.loc 1 88 0
 431 0016 4FF40042 		mov	r2, #32768
  55:Generated_Source\PSoC5/I2C.c ****     I2C_CLKDIV1_REG = LO8(I2C_DEFAULT_DIVIDE_FACTOR);
 432              		.loc 1 55 0
 433 001a 4FF0080C 		mov	ip, #8
  53:Generated_Source\PSoC5/I2C.c ****     I2C_XCFG_REG = I2C_DEFAULT_XCFG;
 434              		.loc 1 53 0
 435 001e 4FF00209 		mov	r9, #2
  54:Generated_Source\PSoC5/I2C.c ****     I2C_ADDR_REG = I2C_DEFAULT_ADDR;
 436              		.loc 1 54 0
 437 0022 4FF08108 		mov	r8, #129
  53:Generated_Source\PSoC5/I2C.c ****     I2C_XCFG_REG = I2C_DEFAULT_XCFG;
 438              		.loc 1 53 0
 439 0026 80F80090 		strb	r9, [r0]
  54:Generated_Source\PSoC5/I2C.c ****     I2C_ADDR_REG = I2C_DEFAULT_ADDR;
 440              		.loc 1 54 0
 441 002a 81F80080 		strb	r8, [r1]
  89:Generated_Source\PSoC5/I2C.c ****     CyIntSetPriority(I2C_ISR_NUMBER, I2C_ISR_PRIORITY);
 442              		.loc 1 89 0
 443 002e 2846     		mov	r0, r5
  55:Generated_Source\PSoC5/I2C.c ****     I2C_CLKDIV1_REG = LO8(I2C_DEFAULT_DIVIDE_FACTOR);
 444              		.loc 1 55 0
 445 0030 8EF800C0 		strb	ip, [lr]
 446              		.loc 1 89 0
 447 0034 0721     		movs	r1, #7
  56:Generated_Source\PSoC5/I2C.c ****     I2C_CLKDIV2_REG = HI8(I2C_DEFAULT_DIVIDE_FACTOR);
 448              		.loc 1 56 0
 449 0036 3D70     		strb	r5, [r7]
  57:Generated_Source\PSoC5/I2C.c **** 
ARM GAS  C:\Users\Bruger\AppData\Local\Temp\ccgNVufI.s 			page 33


 450              		.loc 1 57 0
 451 0038 3470     		strb	r4, [r6]
  88:Generated_Source\PSoC5/I2C.c ****     CyIntSetPriority(I2C_ISR_NUMBER, I2C_ISR_PRIORITY);
 452              		.loc 1 88 0
 453 003a 1A60     		str	r2, [r3]
 454              		.loc 1 89 0
 455 003c FFF7FEFF 		bl	CyIntSetPriority
 456              	.LVL0:
  90:Generated_Source\PSoC5/I2C.c ****     #if (I2C_INTERN_I2C_INTR_HANDLER)
  91:Generated_Source\PSoC5/I2C.c ****         (void) CyIntSetVector(I2C_ISR_NUMBER, &I2C_ISR);
 457              		.loc 1 91 0
 458 0040 2846     		mov	r0, r5
 459 0042 0C49     		ldr	r1, .L3+20
 460 0044 FFF7FEFF 		bl	CyIntSetVector
 461              	.LVL1:
  92:Generated_Source\PSoC5/I2C.c ****     #endif /* (I2C_INTERN_I2C_INTR_HANDLER) */
  93:Generated_Source\PSoC5/I2C.c **** 
  94:Generated_Source\PSoC5/I2C.c ****     /* Set FSM to default state */
  95:Generated_Source\PSoC5/I2C.c ****     I2C_state = I2C_SM_IDLE;
 462              		.loc 1 95 0
 463 0048 0B48     		ldr	r0, .L3+24
  96:Generated_Source\PSoC5/I2C.c **** 
  97:Generated_Source\PSoC5/I2C.c **** #if (I2C_MODE_SLAVE_ENABLED)
  98:Generated_Source\PSoC5/I2C.c ****     /* Clear status and buffers index */
  99:Generated_Source\PSoC5/I2C.c ****     I2C_slStatus = 0u;
 100:Generated_Source\PSoC5/I2C.c ****     I2C_slRdBufIndex = 0u;
 101:Generated_Source\PSoC5/I2C.c ****     I2C_slWrBufIndex = 0u;
 102:Generated_Source\PSoC5/I2C.c **** 
 103:Generated_Source\PSoC5/I2C.c ****     /* Configure matched address */
 104:Generated_Source\PSoC5/I2C.c ****     I2C_SlaveSetAddress(I2C_DEFAULT_ADDR);
 105:Generated_Source\PSoC5/I2C.c **** #endif /* (I2C_MODE_SLAVE_ENABLED) */
 106:Generated_Source\PSoC5/I2C.c **** 
 107:Generated_Source\PSoC5/I2C.c **** #if (I2C_MODE_MASTER_ENABLED)
 108:Generated_Source\PSoC5/I2C.c ****     /* Clear status and buffers index */
 109:Generated_Source\PSoC5/I2C.c ****     I2C_mstrStatus = 0u;
 464              		.loc 1 109 0
 465 004a 0C49     		ldr	r1, .L3+28
 110:Generated_Source\PSoC5/I2C.c ****     I2C_mstrRdBufIndex = 0u;
 466              		.loc 1 110 0
 467 004c 0C4A     		ldr	r2, .L3+32
 111:Generated_Source\PSoC5/I2C.c ****     I2C_mstrWrBufIndex = 0u;
 468              		.loc 1 111 0
 469 004e 0D4B     		ldr	r3, .L3+36
  95:Generated_Source\PSoC5/I2C.c **** 
 470              		.loc 1 95 0
 471 0050 1025     		movs	r5, #16
 472 0052 0570     		strb	r5, [r0]
 109:Generated_Source\PSoC5/I2C.c ****     I2C_mstrRdBufIndex = 0u;
 473              		.loc 1 109 0
 474 0054 0C70     		strb	r4, [r1]
 110:Generated_Source\PSoC5/I2C.c ****     I2C_mstrWrBufIndex = 0u;
 475              		.loc 1 110 0
 476 0056 1470     		strb	r4, [r2]
 477              		.loc 1 111 0
 478 0058 1C70     		strb	r4, [r3]
 479 005a BDE8F883 		pop	{r3, r4, r5, r6, r7, r8, r9, pc}
 480              	.L4:
ARM GAS  C:\Users\Bruger\AppData\Local\Temp\ccgNVufI.s 			page 34


 481 005e 00BF     		.align	2
 482              	.L3:
 483 0060 D6490040 		.word	1073760726
 484 0064 80E100E0 		.word	-536813184
 485 0068 C8490040 		.word	1073760712
 486 006c DB490040 		.word	1073760731
 487 0070 DC490040 		.word	1073760732
 488 0074 00000000 		.word	I2C_ISR
 489 0078 00000000 		.word	I2C_state
 490 007c 00000000 		.word	I2C_mstrStatus
 491 0080 00000000 		.word	I2C_mstrRdBufIndex
 492 0084 00000000 		.word	I2C_mstrWrBufIndex
 493 0088 CA490040 		.word	1073760714
 494              		.cfi_endproc
 495              	.LFE0:
 496              		.size	I2C_Init, .-I2C_Init
 497              		.section	.text.I2C_Enable,"ax",%progbits
 498              		.align	2
 499              		.global	I2C_Enable
 500              		.thumb
 501              		.thumb_func
 502              		.type	I2C_Enable, %function
 503              	I2C_Enable:
 504              	.LFB1:
 112:Generated_Source\PSoC5/I2C.c **** #endif /* (I2C_MODE_MASTER_ENABLED) */
 113:Generated_Source\PSoC5/I2C.c **** }
 114:Generated_Source\PSoC5/I2C.c **** 
 115:Generated_Source\PSoC5/I2C.c **** 
 116:Generated_Source\PSoC5/I2C.c **** /*******************************************************************************
 117:Generated_Source\PSoC5/I2C.c **** * Function Name: I2C_Enable
 118:Generated_Source\PSoC5/I2C.c **** ********************************************************************************
 119:Generated_Source\PSoC5/I2C.c **** *
 120:Generated_Source\PSoC5/I2C.c **** * Summary:
 121:Generated_Source\PSoC5/I2C.c **** *  Enables I2C operations.
 122:Generated_Source\PSoC5/I2C.c **** *
 123:Generated_Source\PSoC5/I2C.c **** * Parameters:
 124:Generated_Source\PSoC5/I2C.c **** *  None.
 125:Generated_Source\PSoC5/I2C.c **** *
 126:Generated_Source\PSoC5/I2C.c **** * Return:
 127:Generated_Source\PSoC5/I2C.c **** *  None.
 128:Generated_Source\PSoC5/I2C.c **** *
 129:Generated_Source\PSoC5/I2C.c **** * Global variables:
 130:Generated_Source\PSoC5/I2C.c **** *  None.
 131:Generated_Source\PSoC5/I2C.c **** *
 132:Generated_Source\PSoC5/I2C.c **** *******************************************************************************/
 133:Generated_Source\PSoC5/I2C.c **** void I2C_Enable(void) 
 134:Generated_Source\PSoC5/I2C.c **** {
 505              		.loc 1 134 0
 506              		.cfi_startproc
 507              		@ args = 0, pretend = 0, frame = 0
 508              		@ frame_needed = 0, uses_anonymous_args = 0
 509 0000 08B5     		push	{r3, lr}
 510              		.cfi_def_cfa_offset 8
 511              		.cfi_offset 3, -8
 512              		.cfi_offset 14, -4
 135:Generated_Source\PSoC5/I2C.c **** #if (I2C_FF_IMPLEMENTED)
 136:Generated_Source\PSoC5/I2C.c ****     uint8 intState;
ARM GAS  C:\Users\Bruger\AppData\Local\Temp\ccgNVufI.s 			page 35


 137:Generated_Source\PSoC5/I2C.c **** 
 138:Generated_Source\PSoC5/I2C.c ****     /* Enable power to block */
 139:Generated_Source\PSoC5/I2C.c ****     intState = CyEnterCriticalSection();
 513              		.loc 1 139 0
 514 0002 FFF7FEFF 		bl	CyEnterCriticalSection
 515              	.LVL2:
 140:Generated_Source\PSoC5/I2C.c ****     I2C_ACT_PWRMGR_REG  |= I2C_ACT_PWR_EN;
 516              		.loc 1 140 0
 517 0006 0749     		ldr	r1, .L7
 141:Generated_Source\PSoC5/I2C.c ****     I2C_STBY_PWRMGR_REG |= I2C_STBY_PWR_EN;
 518              		.loc 1 141 0
 519 0008 074A     		ldr	r2, .L7+4
 140:Generated_Source\PSoC5/I2C.c ****     I2C_ACT_PWRMGR_REG  |= I2C_ACT_PWR_EN;
 520              		.loc 1 140 0
 521 000a 0B78     		ldrb	r3, [r1]	@ zero_extendqisi2
 522 000c 43F00403 		orr	r3, r3, #4
 523 0010 0B70     		strb	r3, [r1]
 524              		.loc 1 141 0
 525 0012 1378     		ldrb	r3, [r2]	@ zero_extendqisi2
 526 0014 43F00403 		orr	r3, r3, #4
 527 0018 1370     		strb	r3, [r2]
 142:Generated_Source\PSoC5/I2C.c ****     CyExitCriticalSection(intState);
 143:Generated_Source\PSoC5/I2C.c **** #else
 144:Generated_Source\PSoC5/I2C.c ****     #if (I2C_MODE_SLAVE_ENABLED)
 145:Generated_Source\PSoC5/I2C.c ****         /* Enable bit counter */
 146:Generated_Source\PSoC5/I2C.c ****         uint8 intState = CyEnterCriticalSection();
 147:Generated_Source\PSoC5/I2C.c ****         I2C_COUNTER_AUX_CTL_REG |= I2C_CNT7_ENABLE;
 148:Generated_Source\PSoC5/I2C.c ****         CyExitCriticalSection(intState);
 149:Generated_Source\PSoC5/I2C.c ****     #endif /* (I2C_MODE_SLAVE_ENABLED) */
 150:Generated_Source\PSoC5/I2C.c **** 
 151:Generated_Source\PSoC5/I2C.c ****     /* Enable slave or master bits */
 152:Generated_Source\PSoC5/I2C.c ****     I2C_CFG_REG |= I2C_ENABLE_MS;
 153:Generated_Source\PSoC5/I2C.c **** #endif /* (I2C_FF_IMPLEMENTED) */
 154:Generated_Source\PSoC5/I2C.c **** 
 155:Generated_Source\PSoC5/I2C.c **** #if (I2C_TIMEOUT_ENABLED)
 156:Generated_Source\PSoC5/I2C.c ****     I2C_TimeoutEnable();
 157:Generated_Source\PSoC5/I2C.c **** #endif /* (I2C_TIMEOUT_ENABLED) */
 158:Generated_Source\PSoC5/I2C.c **** }
 528              		.loc 1 158 0
 529 001a BDE80840 		pop	{r3, lr}
 530              		.cfi_restore 14
 531              		.cfi_restore 3
 532              		.cfi_def_cfa_offset 0
 142:Generated_Source\PSoC5/I2C.c ****     CyExitCriticalSection(intState);
 533              		.loc 1 142 0
 534 001e FFF7FEBF 		b	CyExitCriticalSection
 535              	.LVL3:
 536              	.L8:
 537 0022 00BF     		.align	2
 538              	.L7:
 539 0024 A5430040 		.word	1073759141
 540 0028 B5430040 		.word	1073759157
 541              		.cfi_endproc
 542              	.LFE1:
 543              		.size	I2C_Enable, .-I2C_Enable
 544              		.section	.text.I2C_Start,"ax",%progbits
 545              		.align	2
ARM GAS  C:\Users\Bruger\AppData\Local\Temp\ccgNVufI.s 			page 36


 546              		.global	I2C_Start
 547              		.thumb
 548              		.thumb_func
 549              		.type	I2C_Start, %function
 550              	I2C_Start:
 551              	.LFB2:
 159:Generated_Source\PSoC5/I2C.c **** 
 160:Generated_Source\PSoC5/I2C.c **** 
 161:Generated_Source\PSoC5/I2C.c **** /*******************************************************************************
 162:Generated_Source\PSoC5/I2C.c **** * Function Name: I2C_Start
 163:Generated_Source\PSoC5/I2C.c **** ********************************************************************************
 164:Generated_Source\PSoC5/I2C.c **** *
 165:Generated_Source\PSoC5/I2C.c **** * Summary:
 166:Generated_Source\PSoC5/I2C.c **** *  Starts the I2C hardware. Enables Active mode power template bits or clock
 167:Generated_Source\PSoC5/I2C.c **** *  gating as appropriate. It is required to be executed before I2C bus
 168:Generated_Source\PSoC5/I2C.c **** *  operation.
 169:Generated_Source\PSoC5/I2C.c **** *
 170:Generated_Source\PSoC5/I2C.c **** * Parameters:
 171:Generated_Source\PSoC5/I2C.c **** *  None.
 172:Generated_Source\PSoC5/I2C.c **** *
 173:Generated_Source\PSoC5/I2C.c **** * Return:
 174:Generated_Source\PSoC5/I2C.c **** *  None.
 175:Generated_Source\PSoC5/I2C.c **** *
 176:Generated_Source\PSoC5/I2C.c **** * Side Effects:
 177:Generated_Source\PSoC5/I2C.c **** *  This component automatically enables its interrupt.  If I2C is enabled !
 178:Generated_Source\PSoC5/I2C.c **** *  without the interrupt enabled, it can lock up the I2C bus.
 179:Generated_Source\PSoC5/I2C.c **** *
 180:Generated_Source\PSoC5/I2C.c **** * Global variables:
 181:Generated_Source\PSoC5/I2C.c **** *  I2C_initVar - This variable is used to check the initial
 182:Generated_Source\PSoC5/I2C.c **** *                             configuration, modified on the first
 183:Generated_Source\PSoC5/I2C.c **** *                             function call.
 184:Generated_Source\PSoC5/I2C.c **** *
 185:Generated_Source\PSoC5/I2C.c **** * Reentrant:
 186:Generated_Source\PSoC5/I2C.c **** *  No.
 187:Generated_Source\PSoC5/I2C.c **** *
 188:Generated_Source\PSoC5/I2C.c **** *******************************************************************************/
 189:Generated_Source\PSoC5/I2C.c **** void I2C_Start(void) 
 190:Generated_Source\PSoC5/I2C.c **** {
 552              		.loc 1 190 0
 553              		.cfi_startproc
 554              		@ args = 0, pretend = 0, frame = 0
 555              		@ frame_needed = 0, uses_anonymous_args = 0
 556 0000 2DE9F047 		push	{r4, r5, r6, r7, r8, r9, r10, lr}
 557              		.cfi_def_cfa_offset 32
 558              		.cfi_offset 4, -32
 559              		.cfi_offset 5, -28
 560              		.cfi_offset 6, -24
 561              		.cfi_offset 7, -20
 562              		.cfi_offset 8, -16
 563              		.cfi_offset 9, -12
 564              		.cfi_offset 10, -8
 565              		.cfi_offset 14, -4
 191:Generated_Source\PSoC5/I2C.c ****     if (0u == I2C_initVar)
 566              		.loc 1 191 0
 567 0004 224D     		ldr	r5, .L13
 568 0006 2C78     		ldrb	r4, [r5]	@ zero_extendqisi2
 569 0008 6CBB     		cbnz	r4, .L10
ARM GAS  C:\Users\Bruger\AppData\Local\Temp\ccgNVufI.s 			page 37


 570              	.LBB6:
 571              	.LBB7:
  88:Generated_Source\PSoC5/I2C.c ****     CyIntSetPriority(I2C_ISR_NUMBER, I2C_ISR_PRIORITY);
 572              		.loc 1 88 0
 573 000a 224B     		ldr	r3, .L13+4
  55:Generated_Source\PSoC5/I2C.c ****     I2C_CLKDIV1_REG = LO8(I2C_DEFAULT_DIVIDE_FACTOR);
 574              		.loc 1 55 0
 575 000c DFF8B4C0 		ldr	ip, .L13+52
  56:Generated_Source\PSoC5/I2C.c ****     I2C_CLKDIV2_REG = HI8(I2C_DEFAULT_DIVIDE_FACTOR);
 576              		.loc 1 56 0
 577 0010 DFF8B4E0 		ldr	lr, .L13+56
  53:Generated_Source\PSoC5/I2C.c ****     I2C_XCFG_REG = I2C_DEFAULT_XCFG;
 578              		.loc 1 53 0
 579 0014 2048     		ldr	r0, .L13+8
  54:Generated_Source\PSoC5/I2C.c ****     I2C_ADDR_REG = I2C_DEFAULT_ADDR;
 580              		.loc 1 54 0
 581 0016 2149     		ldr	r1, .L13+12
  57:Generated_Source\PSoC5/I2C.c **** 
 582              		.loc 1 57 0
 583 0018 214F     		ldr	r7, .L13+16
  56:Generated_Source\PSoC5/I2C.c ****     I2C_CLKDIV2_REG = HI8(I2C_DEFAULT_DIVIDE_FACTOR);
 584              		.loc 1 56 0
 585 001a 0F26     		movs	r6, #15
  88:Generated_Source\PSoC5/I2C.c ****     CyIntSetPriority(I2C_ISR_NUMBER, I2C_ISR_PRIORITY);
 586              		.loc 1 88 0
 587 001c 4FF40042 		mov	r2, #32768
  53:Generated_Source\PSoC5/I2C.c ****     I2C_XCFG_REG = I2C_DEFAULT_XCFG;
 588              		.loc 1 53 0
 589 0020 4FF0020A 		mov	r10, #2
  54:Generated_Source\PSoC5/I2C.c ****     I2C_ADDR_REG = I2C_DEFAULT_ADDR;
 590              		.loc 1 54 0
 591 0024 4FF08109 		mov	r9, #129
  55:Generated_Source\PSoC5/I2C.c ****     I2C_CLKDIV1_REG = LO8(I2C_DEFAULT_DIVIDE_FACTOR);
 592              		.loc 1 55 0
 593 0028 4FF00808 		mov	r8, #8
  53:Generated_Source\PSoC5/I2C.c ****     I2C_XCFG_REG = I2C_DEFAULT_XCFG;
 594              		.loc 1 53 0
 595 002c 80F800A0 		strb	r10, [r0]
  54:Generated_Source\PSoC5/I2C.c ****     I2C_ADDR_REG = I2C_DEFAULT_ADDR;
 596              		.loc 1 54 0
 597 0030 81F80090 		strb	r9, [r1]
  89:Generated_Source\PSoC5/I2C.c ****     #if (I2C_INTERN_I2C_INTR_HANDLER)
 598              		.loc 1 89 0
 599 0034 3046     		mov	r0, r6
  55:Generated_Source\PSoC5/I2C.c ****     I2C_CLKDIV1_REG = LO8(I2C_DEFAULT_DIVIDE_FACTOR);
 600              		.loc 1 55 0
 601 0036 8CF80080 		strb	r8, [ip]
  89:Generated_Source\PSoC5/I2C.c ****     #if (I2C_INTERN_I2C_INTR_HANDLER)
 602              		.loc 1 89 0
 603 003a 0721     		movs	r1, #7
  56:Generated_Source\PSoC5/I2C.c ****     I2C_CLKDIV2_REG = HI8(I2C_DEFAULT_DIVIDE_FACTOR);
 604              		.loc 1 56 0
 605 003c 8EF80060 		strb	r6, [lr]
  57:Generated_Source\PSoC5/I2C.c **** 
 606              		.loc 1 57 0
 607 0040 3C70     		strb	r4, [r7]
  88:Generated_Source\PSoC5/I2C.c ****     CyIntSetPriority(I2C_ISR_NUMBER, I2C_ISR_PRIORITY);
ARM GAS  C:\Users\Bruger\AppData\Local\Temp\ccgNVufI.s 			page 38


 608              		.loc 1 88 0
 609 0042 1A60     		str	r2, [r3]
  89:Generated_Source\PSoC5/I2C.c ****     #if (I2C_INTERN_I2C_INTR_HANDLER)
 610              		.loc 1 89 0
 611 0044 FFF7FEFF 		bl	CyIntSetPriority
 612              	.LVL4:
  91:Generated_Source\PSoC5/I2C.c ****     #endif /* (I2C_INTERN_I2C_INTR_HANDLER) */
 613              		.loc 1 91 0
 614 0048 3046     		mov	r0, r6
 615 004a 1649     		ldr	r1, .L13+20
 616 004c FFF7FEFF 		bl	CyIntSetVector
 617              	.LVL5:
  95:Generated_Source\PSoC5/I2C.c **** 
 618              		.loc 1 95 0
 619 0050 154E     		ldr	r6, .L13+24
 109:Generated_Source\PSoC5/I2C.c ****     I2C_mstrRdBufIndex = 0u;
 620              		.loc 1 109 0
 621 0052 1649     		ldr	r1, .L13+28
 110:Generated_Source\PSoC5/I2C.c ****     I2C_mstrWrBufIndex = 0u;
 622              		.loc 1 110 0
 623 0054 164A     		ldr	r2, .L13+32
 111:Generated_Source\PSoC5/I2C.c **** #endif /* (I2C_MODE_MASTER_ENABLED) */
 624              		.loc 1 111 0
 625 0056 174B     		ldr	r3, .L13+36
  95:Generated_Source\PSoC5/I2C.c **** 
 626              		.loc 1 95 0
 627 0058 1027     		movs	r7, #16
 628              	.LBE7:
 629              	.LBE6:
 192:Generated_Source\PSoC5/I2C.c ****     {
 193:Generated_Source\PSoC5/I2C.c ****         I2C_Init();
 194:Generated_Source\PSoC5/I2C.c ****         I2C_initVar = 1u; /* Component initialized */
 630              		.loc 1 194 0
 631 005a 0120     		movs	r0, #1
 632              	.LBB10:
 633              	.LBB8:
  95:Generated_Source\PSoC5/I2C.c **** 
 634              		.loc 1 95 0
 635 005c 3770     		strb	r7, [r6]
 636              	.LBE8:
 637              	.LBE10:
 638              		.loc 1 194 0
 639 005e 2870     		strb	r0, [r5]
 640              	.LBB11:
 641              	.LBB9:
 109:Generated_Source\PSoC5/I2C.c ****     I2C_mstrRdBufIndex = 0u;
 642              		.loc 1 109 0
 643 0060 0C70     		strb	r4, [r1]
 110:Generated_Source\PSoC5/I2C.c ****     I2C_mstrWrBufIndex = 0u;
 644              		.loc 1 110 0
 645 0062 1470     		strb	r4, [r2]
 111:Generated_Source\PSoC5/I2C.c **** #endif /* (I2C_MODE_MASTER_ENABLED) */
 646              		.loc 1 111 0
 647 0064 1C70     		strb	r4, [r3]
 648              	.L10:
 649              	.LBE9:
 650              	.LBE11:
ARM GAS  C:\Users\Bruger\AppData\Local\Temp\ccgNVufI.s 			page 39


 651              	.LBB12:
 652              	.LBB13:
 139:Generated_Source\PSoC5/I2C.c ****     I2C_ACT_PWRMGR_REG  |= I2C_ACT_PWR_EN;
 653              		.loc 1 139 0
 654 0066 FFF7FEFF 		bl	CyEnterCriticalSection
 655              	.LVL6:
 140:Generated_Source\PSoC5/I2C.c ****     I2C_STBY_PWRMGR_REG |= I2C_STBY_PWR_EN;
 656              		.loc 1 140 0
 657 006a 1349     		ldr	r1, .L13+40
 141:Generated_Source\PSoC5/I2C.c ****     CyExitCriticalSection(intState);
 658              		.loc 1 141 0
 659 006c 134A     		ldr	r2, .L13+44
 140:Generated_Source\PSoC5/I2C.c ****     I2C_STBY_PWRMGR_REG |= I2C_STBY_PWR_EN;
 660              		.loc 1 140 0
 661 006e 0B78     		ldrb	r3, [r1]	@ zero_extendqisi2
 662 0070 43F00403 		orr	r3, r3, #4
 663 0074 0B70     		strb	r3, [r1]
 141:Generated_Source\PSoC5/I2C.c ****     CyExitCriticalSection(intState);
 664              		.loc 1 141 0
 665 0076 1378     		ldrb	r3, [r2]	@ zero_extendqisi2
 666 0078 43F00403 		orr	r3, r3, #4
 667 007c 1370     		strb	r3, [r2]
 142:Generated_Source\PSoC5/I2C.c **** #else
 668              		.loc 1 142 0
 669 007e FFF7FEFF 		bl	CyExitCriticalSection
 670              	.LVL7:
 671              	.LBE13:
 672              	.LBE12:
 195:Generated_Source\PSoC5/I2C.c ****     }
 196:Generated_Source\PSoC5/I2C.c **** 
 197:Generated_Source\PSoC5/I2C.c ****     I2C_Enable();
 198:Generated_Source\PSoC5/I2C.c ****     I2C_EnableInt();
 673              		.loc 1 198 0
 674 0082 0F4B     		ldr	r3, .L13+48
 675 0084 4FF40042 		mov	r2, #32768
 676 0088 1A60     		str	r2, [r3]
 677 008a BDE8F087 		pop	{r4, r5, r6, r7, r8, r9, r10, pc}
 678              	.L14:
 679 008e 00BF     		.align	2
 680              	.L13:
 681 0090 00000000 		.word	.LANCHOR0
 682 0094 80E100E0 		.word	-536813184
 683 0098 D6490040 		.word	1073760726
 684 009c C8490040 		.word	1073760712
 685 00a0 DC490040 		.word	1073760732
 686 00a4 00000000 		.word	I2C_ISR
 687 00a8 00000000 		.word	I2C_state
 688 00ac 00000000 		.word	I2C_mstrStatus
 689 00b0 00000000 		.word	I2C_mstrRdBufIndex
 690 00b4 00000000 		.word	I2C_mstrWrBufIndex
 691 00b8 A5430040 		.word	1073759141
 692 00bc B5430040 		.word	1073759157
 693 00c0 00E100E0 		.word	-536813312
 694 00c4 CA490040 		.word	1073760714
 695 00c8 DB490040 		.word	1073760731
 696              		.cfi_endproc
 697              	.LFE2:
ARM GAS  C:\Users\Bruger\AppData\Local\Temp\ccgNVufI.s 			page 40


 698              		.size	I2C_Start, .-I2C_Start
 699              		.section	.text.I2C_Stop,"ax",%progbits
 700              		.align	2
 701              		.global	I2C_Stop
 702              		.thumb
 703              		.thumb_func
 704              		.type	I2C_Stop, %function
 705              	I2C_Stop:
 706              	.LFB3:
 199:Generated_Source\PSoC5/I2C.c **** }
 200:Generated_Source\PSoC5/I2C.c **** 
 201:Generated_Source\PSoC5/I2C.c **** 
 202:Generated_Source\PSoC5/I2C.c **** /*******************************************************************************
 203:Generated_Source\PSoC5/I2C.c **** * Function Name: I2C_Stop
 204:Generated_Source\PSoC5/I2C.c **** ********************************************************************************
 205:Generated_Source\PSoC5/I2C.c **** *
 206:Generated_Source\PSoC5/I2C.c **** * Summary:
 207:Generated_Source\PSoC5/I2C.c **** *  Disables I2C hardware and disables I2C interrupt. Disables Active mode power
 208:Generated_Source\PSoC5/I2C.c **** *  template bits or clock gating as appropriate.
 209:Generated_Source\PSoC5/I2C.c **** *
 210:Generated_Source\PSoC5/I2C.c **** * Parameters:
 211:Generated_Source\PSoC5/I2C.c **** *  None.
 212:Generated_Source\PSoC5/I2C.c **** *
 213:Generated_Source\PSoC5/I2C.c **** * Return:
 214:Generated_Source\PSoC5/I2C.c **** *  None.
 215:Generated_Source\PSoC5/I2C.c **** *
 216:Generated_Source\PSoC5/I2C.c **** *******************************************************************************/
 217:Generated_Source\PSoC5/I2C.c **** void I2C_Stop(void) 
 218:Generated_Source\PSoC5/I2C.c **** {
 707              		.loc 1 218 0
 708              		.cfi_startproc
 709              		@ args = 0, pretend = 0, frame = 0
 710              		@ frame_needed = 0, uses_anonymous_args = 0
 711 0000 2DE9F843 		push	{r3, r4, r5, r6, r7, r8, r9, lr}
 712              		.cfi_def_cfa_offset 32
 713              		.cfi_offset 3, -32
 714              		.cfi_offset 4, -28
 715              		.cfi_offset 5, -24
 716              		.cfi_offset 6, -20
 717              		.cfi_offset 7, -16
 718              		.cfi_offset 8, -12
 719              		.cfi_offset 9, -8
 720              		.cfi_offset 14, -4
 219:Generated_Source\PSoC5/I2C.c ****     I2C_DisableInt();
 721              		.loc 1 219 0
 722 0004 234B     		ldr	r3, .L17
 723              	.LBB14:
 220:Generated_Source\PSoC5/I2C.c **** 
 221:Generated_Source\PSoC5/I2C.c **** #if (I2C_TIMEOUT_ENABLED)
 222:Generated_Source\PSoC5/I2C.c ****     I2C_TimeoutStop();
 223:Generated_Source\PSoC5/I2C.c **** #endif  /* End (I2C_TIMEOUT_ENABLED) */
 224:Generated_Source\PSoC5/I2C.c **** 
 225:Generated_Source\PSoC5/I2C.c **** #if (I2C_FF_IMPLEMENTED)
 226:Generated_Source\PSoC5/I2C.c ****     {
 227:Generated_Source\PSoC5/I2C.c ****         uint8 intState;
 228:Generated_Source\PSoC5/I2C.c ****         uint16 blockResetCycles;
 229:Generated_Source\PSoC5/I2C.c **** 
ARM GAS  C:\Users\Bruger\AppData\Local\Temp\ccgNVufI.s 			page 41


 230:Generated_Source\PSoC5/I2C.c ****         /* Store registers effected by block disable */
 231:Generated_Source\PSoC5/I2C.c ****         I2C_backup.addr    = I2C_ADDR_REG;
 724              		.loc 1 231 0
 725 0006 DFF8B080 		ldr	r8, .L17+36
 232:Generated_Source\PSoC5/I2C.c ****         I2C_backup.clkDiv1 = I2C_CLKDIV1_REG;
 726              		.loc 1 232 0
 727 000a 234F     		ldr	r7, .L17+4
 233:Generated_Source\PSoC5/I2C.c ****         I2C_backup.clkDiv2 = I2C_CLKDIV2_REG;
 728              		.loc 1 233 0
 729 000c 234E     		ldr	r6, .L17+8
 730              	.LBE14:
 219:Generated_Source\PSoC5/I2C.c **** 
 731              		.loc 1 219 0
 732 000e 4FF40049 		mov	r9, #32768
 733 0012 C3F80090 		str	r9, [r3]
 734              	.LBB15:
 234:Generated_Source\PSoC5/I2C.c **** 
 235:Generated_Source\PSoC5/I2C.c ****         /* Calculate number of cycles to reset block */
 236:Generated_Source\PSoC5/I2C.c ****         blockResetCycles = ((uint16) ((uint16) I2C_CLKDIV2_REG << 8u) | I2C_CLKDIV1_REG) + 1u;
 237:Generated_Source\PSoC5/I2C.c **** 
 238:Generated_Source\PSoC5/I2C.c ****         /* Disable block */
 239:Generated_Source\PSoC5/I2C.c ****         I2C_CFG_REG &= (uint8) ~I2C_CFG_EN_SLAVE;
 735              		.loc 1 239 0
 736 0016 224D     		ldr	r5, .L17+12
 231:Generated_Source\PSoC5/I2C.c ****         I2C_backup.clkDiv1 = I2C_CLKDIV1_REG;
 737              		.loc 1 231 0
 738 0018 98F800E0 		ldrb	lr, [r8]	@ zero_extendqisi2
 232:Generated_Source\PSoC5/I2C.c ****         I2C_backup.clkDiv2 = I2C_CLKDIV2_REG;
 739              		.loc 1 232 0
 740 001c 3978     		ldrb	r1, [r7]	@ zero_extendqisi2
 233:Generated_Source\PSoC5/I2C.c **** 
 741              		.loc 1 233 0
 742 001e 3278     		ldrb	r2, [r6]	@ zero_extendqisi2
 236:Generated_Source\PSoC5/I2C.c **** 
 743              		.loc 1 236 0
 744 0020 3078     		ldrb	r0, [r6]	@ zero_extendqisi2
 745 0022 3B78     		ldrb	r3, [r7]	@ zero_extendqisi2
 746              	.LVL8:
 747              		.loc 1 239 0
 748 0024 95F800C0 		ldrb	ip, [r5]	@ zero_extendqisi2
 236:Generated_Source\PSoC5/I2C.c **** 
 749              		.loc 1 236 0
 750 0028 43EA0020 		orr	r0, r3, r0, lsl #8
 751              	.LVL9:
 231:Generated_Source\PSoC5/I2C.c ****         I2C_backup.clkDiv1 = I2C_CLKDIV1_REG;
 752              		.loc 1 231 0
 753 002c 1D4C     		ldr	r4, .L17+16
 754              		.loc 1 239 0
 755 002e 0CF0FE03 		and	r3, ip, #254
 236:Generated_Source\PSoC5/I2C.c **** 
 756              		.loc 1 236 0
 757 0032 0130     		adds	r0, r0, #1
 758              		.loc 1 239 0
 759 0034 2B70     		strb	r3, [r5]
 240:Generated_Source\PSoC5/I2C.c ****         /* Wait for block reset before disable power */
 241:Generated_Source\PSoC5/I2C.c ****         CyDelayCycles((uint32) blockResetCycles);
 760              		.loc 1 241 0
ARM GAS  C:\Users\Bruger\AppData\Local\Temp\ccgNVufI.s 			page 42


 761 0036 80B2     		uxth	r0, r0
 231:Generated_Source\PSoC5/I2C.c ****         I2C_backup.clkDiv1 = I2C_CLKDIV1_REG;
 762              		.loc 1 231 0
 763 0038 84F803E0 		strb	lr, [r4, #3]
 232:Generated_Source\PSoC5/I2C.c ****         I2C_backup.clkDiv2 = I2C_CLKDIV2_REG;
 764              		.loc 1 232 0
 765 003c 2171     		strb	r1, [r4, #4]
 233:Generated_Source\PSoC5/I2C.c **** 
 766              		.loc 1 233 0
 767 003e 6271     		strb	r2, [r4, #5]
 768              		.loc 1 241 0
 769 0040 FFF7FEFF 		bl	CyDelayCycles
 770              	.LVL10:
 242:Generated_Source\PSoC5/I2C.c **** 
 243:Generated_Source\PSoC5/I2C.c ****         /* Disable power to block */
 244:Generated_Source\PSoC5/I2C.c ****         intState = CyEnterCriticalSection();
 771              		.loc 1 244 0
 772 0044 FFF7FEFF 		bl	CyEnterCriticalSection
 773              	.LVL11:
 245:Generated_Source\PSoC5/I2C.c ****         I2C_ACT_PWRMGR_REG  &= (uint8) ~I2C_ACT_PWR_EN;
 774              		.loc 1 245 0
 775 0048 1749     		ldr	r1, .L17+20
 246:Generated_Source\PSoC5/I2C.c ****         I2C_STBY_PWRMGR_REG &= (uint8) ~I2C_STBY_PWR_EN;
 776              		.loc 1 246 0
 777 004a 184A     		ldr	r2, .L17+24
 245:Generated_Source\PSoC5/I2C.c ****         I2C_ACT_PWRMGR_REG  &= (uint8) ~I2C_ACT_PWR_EN;
 778              		.loc 1 245 0
 779 004c 0B78     		ldrb	r3, [r1]	@ zero_extendqisi2
 780 004e 03F0FB03 		and	r3, r3, #251
 781 0052 0B70     		strb	r3, [r1]
 782              		.loc 1 246 0
 783 0054 1378     		ldrb	r3, [r2]	@ zero_extendqisi2
 784 0056 03F0FB03 		and	r3, r3, #251
 785 005a 1370     		strb	r3, [r2]
 247:Generated_Source\PSoC5/I2C.c ****         CyExitCriticalSection(intState);
 786              		.loc 1 247 0
 787 005c FFF7FEFF 		bl	CyExitCriticalSection
 788              	.LVL12:
 248:Generated_Source\PSoC5/I2C.c **** 
 249:Generated_Source\PSoC5/I2C.c ****         /* Enable block */
 250:Generated_Source\PSoC5/I2C.c ****         I2C_CFG_REG |= (uint8) I2C_ENABLE_MS;
 789              		.loc 1 250 0
 790 0060 2B78     		ldrb	r3, [r5]	@ zero_extendqisi2
 251:Generated_Source\PSoC5/I2C.c **** 
 252:Generated_Source\PSoC5/I2C.c ****         /* Restore registers effected by block disable. Ticket ID#198004 */
 253:Generated_Source\PSoC5/I2C.c ****         I2C_ADDR_REG    = I2C_backup.addr;
 254:Generated_Source\PSoC5/I2C.c ****         I2C_ADDR_REG    = I2C_backup.addr;
 255:Generated_Source\PSoC5/I2C.c ****         I2C_CLKDIV1_REG = I2C_backup.clkDiv1;
 791              		.loc 1 255 0
 792 0062 2179     		ldrb	r1, [r4, #4]	@ zero_extendqisi2
 256:Generated_Source\PSoC5/I2C.c ****         I2C_CLKDIV2_REG = I2C_backup.clkDiv2;
 793              		.loc 1 256 0
 794 0064 6279     		ldrb	r2, [r4, #5]	@ zero_extendqisi2
 253:Generated_Source\PSoC5/I2C.c ****         I2C_ADDR_REG    = I2C_backup.addr;
 795              		.loc 1 253 0
 796 0066 94F803E0 		ldrb	lr, [r4, #3]	@ zero_extendqisi2
 250:Generated_Source\PSoC5/I2C.c **** 
ARM GAS  C:\Users\Bruger\AppData\Local\Temp\ccgNVufI.s 			page 43


 797              		.loc 1 250 0
 798 006a 43F00203 		orr	r3, r3, #2
 799 006e 2B70     		strb	r3, [r5]
 253:Generated_Source\PSoC5/I2C.c ****         I2C_ADDR_REG    = I2C_backup.addr;
 800              		.loc 1 253 0
 801 0070 88F800E0 		strb	lr, [r8]
 254:Generated_Source\PSoC5/I2C.c ****         I2C_CLKDIV1_REG = I2C_backup.clkDiv1;
 802              		.loc 1 254 0
 803 0074 88F800E0 		strb	lr, [r8]
 255:Generated_Source\PSoC5/I2C.c ****         I2C_CLKDIV2_REG = I2C_backup.clkDiv2;
 804              		.loc 1 255 0
 805 0078 3970     		strb	r1, [r7]
 806              		.loc 1 256 0
 807 007a 3270     		strb	r2, [r6]
 808              	.LBE15:
 257:Generated_Source\PSoC5/I2C.c ****     }
 258:Generated_Source\PSoC5/I2C.c **** #else
 259:Generated_Source\PSoC5/I2C.c **** 
 260:Generated_Source\PSoC5/I2C.c ****     /* Disable slave or master bits */
 261:Generated_Source\PSoC5/I2C.c ****     I2C_CFG_REG &= (uint8) ~I2C_ENABLE_MS;
 262:Generated_Source\PSoC5/I2C.c **** 
 263:Generated_Source\PSoC5/I2C.c **** #if (I2C_MODE_SLAVE_ENABLED)
 264:Generated_Source\PSoC5/I2C.c ****     {
 265:Generated_Source\PSoC5/I2C.c ****         /* Disable bit counter */
 266:Generated_Source\PSoC5/I2C.c ****         uint8 intState = CyEnterCriticalSection();
 267:Generated_Source\PSoC5/I2C.c ****         I2C_COUNTER_AUX_CTL_REG &= (uint8) ~I2C_CNT7_ENABLE;
 268:Generated_Source\PSoC5/I2C.c ****         CyExitCriticalSection(intState);
 269:Generated_Source\PSoC5/I2C.c ****     }
 270:Generated_Source\PSoC5/I2C.c **** #endif /* (I2C_MODE_SLAVE_ENABLED) */
 271:Generated_Source\PSoC5/I2C.c **** 
 272:Generated_Source\PSoC5/I2C.c ****     /* Clear interrupt source register */
 273:Generated_Source\PSoC5/I2C.c ****     (void) I2C_CSR_REG;
 274:Generated_Source\PSoC5/I2C.c **** #endif /* (I2C_FF_IMPLEMENTED) */
 275:Generated_Source\PSoC5/I2C.c **** 
 276:Generated_Source\PSoC5/I2C.c ****     /* Disable interrupt on stop (enabled by write transaction) */
 277:Generated_Source\PSoC5/I2C.c ****     I2C_DISABLE_INT_ON_STOP;
 809              		.loc 1 277 0
 810 007c 2B78     		ldrb	r3, [r5]	@ zero_extendqisi2
 278:Generated_Source\PSoC5/I2C.c ****     I2C_ClearPendingInt();
 811              		.loc 1 278 0
 812 007e 0C48     		ldr	r0, .L17+28
 279:Generated_Source\PSoC5/I2C.c **** 
 280:Generated_Source\PSoC5/I2C.c ****     /* Reset FSM to default state */
 281:Generated_Source\PSoC5/I2C.c ****     I2C_state = I2C_SM_IDLE;
 813              		.loc 1 281 0
 814 0080 0C4A     		ldr	r2, .L17+32
 277:Generated_Source\PSoC5/I2C.c ****     I2C_ClearPendingInt();
 815              		.loc 1 277 0
 816 0082 03F0EF03 		and	r3, r3, #239
 817              		.loc 1 281 0
 818 0086 1021     		movs	r1, #16
 277:Generated_Source\PSoC5/I2C.c ****     I2C_ClearPendingInt();
 819              		.loc 1 277 0
 820 0088 2B70     		strb	r3, [r5]
 278:Generated_Source\PSoC5/I2C.c ****     I2C_ClearPendingInt();
 821              		.loc 1 278 0
 822 008a C0F80090 		str	r9, [r0]
ARM GAS  C:\Users\Bruger\AppData\Local\Temp\ccgNVufI.s 			page 44


 823              		.loc 1 281 0
 824 008e 1170     		strb	r1, [r2]
 825 0090 BDE8F883 		pop	{r3, r4, r5, r6, r7, r8, r9, pc}
 826              	.L18:
 827              		.align	2
 828              	.L17:
 829 0094 80E100E0 		.word	-536813184
 830 0098 DB490040 		.word	1073760731
 831 009c DC490040 		.word	1073760732
 832 00a0 D6490040 		.word	1073760726
 833 00a4 00000000 		.word	I2C_backup
 834 00a8 A5430040 		.word	1073759141
 835 00ac B5430040 		.word	1073759157
 836 00b0 80E200E0 		.word	-536812928
 837 00b4 00000000 		.word	I2C_state
 838 00b8 CA490040 		.word	1073760714
 839              		.cfi_endproc
 840              	.LFE3:
 841              		.size	I2C_Stop, .-I2C_Stop
 842              		.comm	I2C_state,1,1
 843              		.global	I2C_initVar
 844              		.bss
 845              		.set	.LANCHOR0,. + 0
 846              		.type	I2C_initVar, %object
 847              		.size	I2C_initVar, 1
 848              	I2C_initVar:
 849 0000 00       		.space	1
 850              		.text
 851              	.Letext0:
 852              		.file 2 "Generated_Source\\PSoC5\\cytypes.h"
 853              		.file 3 "Generated_Source\\PSoC5\\I2C.h"
 854              		.file 4 "Generated_Source\\PSoC5\\I2C_PVT.h"
 855              		.file 5 "Generated_Source\\PSoC5\\CyLib.h"