ARM GAS  C:\Users\Bruger\AppData\Local\Temp\ccnPihjU.s 			page 1


   1              		.syntax unified
   2              		.cpu cortex-m3
   3              		.fpu softvfp
   4              		.eabi_attribute 20, 1
   5              		.eabi_attribute 21, 1
   6              		.eabi_attribute 23, 3
   7              		.eabi_attribute 24, 1
   8              		.eabi_attribute 25, 1
   9              		.eabi_attribute 26, 1
  10              		.eabi_attribute 30, 2
  11              		.eabi_attribute 34, 1
  12              		.eabi_attribute 18, 4
  13              		.thumb
  14              		.file	"I2C_PM.c"
  15              		.text
  16              	.Ltext0:
  17              		.section	.gnu.lto_.profile.24bfc868,"",%progbits
  18 0000 789C6366 		.ascii	"x\234cf```a\200\000F\206J;\000\001\244\000\300"
  18      60606061 
  18      80004686 
  18      4A3B0001 
  18      A400C0
  19              		.text
  20              		.section	.gnu.lto_.jmpfuncs.24bfc868,"",%progbits
  21 0000 789C6366 		.ascii	"x\234cf\300\016$\2414+\210`d``\002R\314\014\014,0!\006"
  21      C00E24A1 
  21      342B8860 
  21      64606002 
  21      52CC0C0C 
  22 0018 00053D00 		.ascii	"\000\005=\0001"
  22      31
  23              		.text
  24              		.section	.gnu.lto_.inline.24bfc868,"",%progbits
  25 0000 789C6366 		.ascii	"x\234cf\300\016Z\2404+\003\003\217,#\003\023\327\004"
  25      C00E5AA0 
  25      342B0303 
  25      8F2C2303 
  25      13D704
  26 0013 3F06B605 		.ascii	"?\006\266\005\362L 1&n(\3018\301\217\211AH\000(-\263"
  26      F24C2031 
  26      266E28C1 
  26      38C18F89 
  26      41480028 
  27 0029 6017235C 		.ascii	"`\027#\\\236\221\013H03\360\362\000%D\026\314AH\260"
  27      9E910B48 
  27      3033F0F2 
  27      00254416 
  27      CC4148B0 
  28 003d 30888801 		.ascii	"0\210\210\001\305\024\032~\241)fe\340\024\006Jp\374"
  28      C5141A7E 
  28      A1296665 
  28      E014064A 
  28      70FC
  29 004f 32411507 		.ascii	"2A\025\007\023\014\000\242\242\014\335"
  29      130C00A2 
  29      A20CDD
  30              		.text
ARM GAS  C:\Users\Bruger\AppData\Local\Temp\ccnPihjU.s 			page 2


  31              		.section	.gnu.lto_.pureconst.24bfc868,"",%progbits
  32 0000 789C6366 		.ascii	"x\234cf``\340f\200\000V\006)&)f)\026)V)\000\004*\000"
  32      6060E066 
  32      80005606 
  32      29262966 
  32      29162956 
  33 0019 A4       		.ascii	"\244"
  34              		.text
  35              		.section	.gnu.lto_I2C_RestoreConfig.part.0.24bfc868,"",%progbits
  36 0000 789C7D52 		.ascii	"x\234}R\315KTQ\024\277\277\373\236\2577\037E\010\205"
  36      CD4B5451 
  36      14BFBFFB 
  36      9EAF371F 
  36      450885
  37 0013 0C41C12C 		.ascii	"\014A\301,D\324\026A\177\201\013q\021H\263\025$l\026"
  37      44D41641 
  37      7F810B71 
  37      1148B315 
  37      246C16
  38 0026 6D146482 		.ascii	"m\024d\2026\203\367\351+\242\205\015\0321ac\264\010"
  38      3683F7E9 
  38      2BA2850D 
  38      1A316163 
  38      B408
  39 0038 2D274D2D 		.ascii	"-'M-#\202\230\202Z\332\027\030\225\23702\326\"\232\006"
  39      23829882 
  39      5ADA1718 
  39      959F3032 
  39      D6229A06 
  40 004c 3F1E324D 		.ascii	"?\0362M\347\3347H\030\364\340\336s\357y\277\363;\347"
  40      E7DC3748 
  40      18F4E0DE 
  40      73EF79BF 
  40      F33BE7
  41 005f 77CE35C4 		.ascii	"w\3165\304\277_\023\255\214\024\242\221,j\004\314\324"
  41      BF5F13AD 
  41      8C14A291 
  41      2C6A04CC 
  41      D4
  42 0070 3C1D4C48 		.ascii	"<\035LHm%\014\266\216m\000|\020\020}\2464\320\207o\262"
  42      6D250CB6 
  42      8E6D007C 
  42      10107DA6 
  42      34D0876F 
  43 0085 2891CA4D 		.ascii	"(\221\312M\244C\365\367\224R?\2076\353.\327yDT\222>"
  43      A443F5F7 
  43      94523F87 
  43      36EB2ED7 
  43      79445492 
  44 009a 31C6502F 		.ascii	"1\306P/\010\363\343\305\207\224eD\301\347\364\347\245"
  44      08F3E3C5 
  44      87946544 
  44      C1E7F4E7 
  44      A5
  45 00ab 74307A57 		.ascii	"t0zW\251\376\325l\341MH\245\225\273Z\251\034\367$0\016"
  45      A9FED56C 
  45      E14D48A5 
ARM GAS  C:\Users\Bruger\AppData\Local\Temp\ccnPihjU.s 			page 3


  45      95BB5AA9 
  45      1CF72430 
  46 00c0 8322D114 		.ascii	"\203\"\321\024AC\244Z\032\005\024\335\362\247\220\345"
  46      4143A45A 
  46      1A0514DD 
  46      F2A790E5 
  47 00d0 5282C3B8 		.ascii	"R\202\303\270\217\250O\216\007\260@\206=S\265JU*\205"
  47      8FA84F8E 
  47      07B04086 
  47      3D53B54A 
  47      552A85
  48 00e3 5B0D4108 		.ascii	"[\015A\010\276K\341Ii\360f\362&D\236\026W\236'\007Y"
  48      BE4BE149 
  48      69F066F2 
  48      26449E16 
  48      579E2707 
  49 00f8 639D9C6C 		.ascii	"c\235\234l\0271\220\333\034<\302\\\333\224Gb\364\343"
  49      173190DB 
  49      1C3CC25C 
  49      DB944762 
  49      F4E3
  50 010a E0A44CEE 		.ascii	"\340\244L\356\252\253\312\366$\325\302\031&\220$\026"
  50      AAABCAF6 
  50      24D5C219 
  50      26902416 
  51 011a 532C5023 		.ascii	"S,P#8)% \260\370\202W[\327\226\237_\362\203\271\021"
  51      38292520 
  51      B0F88257 
  51      5BD7969F 
  51      5FF283B9 
  52 012f 4BA577C5 		.ascii	"K\245w\305\360\206\364d\315\364\025G\231\\\372J\376"
  52      F086F464 
  52      CDF41547 
  52      995CFA4A 
  52      FE
  53 0140 ED7B5BBB 		.ascii	"\355{[\273\264\222\357[\251c\031\21487\034\242\267\220"
  53      B492EF5B 
  53      A963198C 
  53      38371CA2 
  53      B790
  54 0152 45040F41 		.ascii	"E\004\017AJ1\211\0143\016\354X>\235\3413\216\275.\274"
  54      4A31890C 
  54      330EEC58 
  54      3E9DE133 
  54      8EBD2EBC 
  55 0166 3CC8E1D6 		.ascii	"<\310\341\326.)\233\"(e\035\002c\376\307\366\210\330"
  55      2E299B22 
  55      28651D02 
  55      63FEC7F6 
  55      88D8
  56 0178 88432CC2 		.ascii	"\210C,\302\315y\363a\206\213\375\342\016\224\2701\230"
  56      CD79F361 
  56      868BFDE2 
  56      0E94B831 
  56      98
  57 0189 2671A4C6 		.ascii	"&q\244\306\2236Q\367\317\025W\206\003~\005\346\376\200"
  57      933651F7 
ARM GAS  C:\Users\Bruger\AppData\Local\Temp\ccnPihjU.s 			page 4


  57      CF155786 
  57      037E05E6 
  57      FE80
  58 019b 4059FAE3 		.ascii	"@Y\372\343\330\323\024\320\327q\307\275\015.C1*\210"
  58      D8D314D0 
  58      D771C7BD 
  58      0D2E4331 
  58      2A88
  59 01ad 192431CB 		.ascii	"\031$1\313e\320\277\337\331\3533Vs#\217\3661a~\351W"
  59      65D0BFDF 
  59      D9EB3356 
  59      73238FF6 
  59      31617EE9 
  60 01c2 812768D6 		.ascii	"\201'h\326:\326\216V\205\334Y\333\030=\244\273\2640"
  60      3AD68E56 
  60      85DC59DB 
  60      183DA4BB 
  60      B430
  61 01d4 5C6DDCD7 		.ascii	"\\m\334\327\233\317\312\341\277\304\315\355\211{\252"
  61      9BCFCAE1 
  61      BFC4CDED 
  61      897BAA
  62 01e3 C59944B4 		.ascii	"\305\231D\264N\022y\212\313pr\263g\265J\3013\006{)\325"
  62      4E12798A 
  62      CB7072B3 
  62      67B54AC1 
  62      33067B29 
  63 01f8 89D67877 		.ascii	"\211\326xw\274\367\\\"~\2763\326s\261\267+\336\321\036"
  63      BCF75C22 
  63      7EBE33D6 
  63      73B1B72B 
  63      DED11E
  64 020b EB6939DD 		.ascii	"\353i9\335\321v\252\245\263\375\314\311.a_\350N\304"
  64      D176AAA5 
  64      B3FDCCC9 
  64      2E615FE8 
  64      4EC4
  65 021d 1204F803 		.ascii	"\022\004\370\003\263#\370\346"
  65      B323F8E6 
  66              		.text
  67              		.section	.gnu.lto_I2C_RestoreConfig.24bfc868,"",%progbits
  68 0000 789C8DD4 		.ascii	"x\234\215\324ML\023A\024\000\340y\263\333\355\322V\322"
  68      4D4C1341 
  68      1400E079 
  68      B3DBEDD2 
  68      56D2
  69 0012 784262A2 		.ascii	"xBb\242\011\211\304 \036H\274\311\211\203\361`B\344"
  69      0989C420 
  69      1E48BCC9 
  69      8983F160 
  69      42E4
  70 0024 4A42147B 		.ascii	"JB\024{\360\002\011\301#a\026\352\037\032\204b\244Q"
  70      F00209C1 
  70      236116EA 
  70      1F1A8462 
  70      A451
  71 0036 817850F9 		.ascii	"\201xP\371\023((* \026T~<\370\003\"\202 \020 \240\030"
ARM GAS  C:\Users\Bruger\AppData\Local\Temp\ccnPihjU.s 			page 5


  71      1328282A 
  71      2016547E 
  71      3CF80322 
  71      82201020 
  72 004c 6241C00D 		.ascii	"bA\300\015\201:o\226n\232Z\023\232\354\314\356\366\315"
  72      813A6F96 
  72      6E9A5A13 
  72      9AECCCEE 
  72      F6CD
  73 005e CCF7DEEE 		.ascii	"\314\367\336\356\254D\376\375\035\347\307O\231\220$"
  73      AC44FEFD 
  73      1DE7C74F 
  73      999024
  74 006d DE834280 		.ascii	"\336\203B\200\226\275#DS)\225*\235\204\331d=\2250\207"
  74      96BD2344 
  74      5329952A 
  74      9D84D964 
  74      3D953087 
  75 0081 0416BC0D 		.ascii	"\004\026\274\015\262\321k\252\005\000O\010\220B*\311"
  75      B2D16BAA 
  75      05004F08 
  75      90422AC9 
  76 0091 162884EF 		.ascii	"\026(\204\3574@\241\314\337\340\265'\336g\214\375\362"
  76      3440A1CC 
  76      DFE0B527 
  76      DE678CFD 
  76      F2
  77 00a2 ACC55D8C 		.ascii	"\254\305]\214\323)!\253\324X\010\036B\"\3411\313\335"
  77      D32921AB 
  77      D458081E 
  77      4222E131 
  77      CBDD
  78 00b4 43658A94 		.ascii	"Ce\212\224\000x\356\035\233\364\332\022\3561V4\335\270"
  78      0078EE1D 
  78      9BF4DA12 
  78      EE315634 
  78      DDB8
  79 00c6 D067675E 		.ascii	"\320gg^\346\236\016\006\017\350\024\240\026$>\022\216"
  79      E69E0E06 
  79      0FE814A0 
  79      16243E12 
  79      8E
  80 00d7 C4C3E1F8 		.ascii	"\304\303\341\370\035*\037\020po\215\332\0257_\300\011"
  80      1D2A1F10 
  80      706F8DDA 
  80      15375FC0 
  80      09
  81 00e8 7590604C 		.ascii	"u\220`L\016\365\240\000\357\233\367\372Y0\3306RQ{Hv"
  81      0EF5A000 
  81      EF9BF7FA 
  81      5930D836 
  81      52517B48 
  82 00fd 52A2F31C 		.ascii	"R\242\363\034\260Q\260Q\261\261a\343\300&\026\033B\346"
  82      B051B051 
  82      B1B161E3 
  82      C026161B 
  82      42E6
ARM GAS  C:\Users\Bruger\AppData\Local\Temp\ccnPihjU.s 			page 6


  83 010f F88179CC 		.ascii	"\370\201y\314\363\013\336K\343\320\273^\262\336\221"
  83      F30BDE4B 
  83      E3D0BB5E 
  83      B2DE91
  84 011e 82336E50 		.ascii	"\2023nP\314hr\365C\300\261Hu*\371.iLF\303\324\334\373"
  84      CC6872F5 
  84      43C0B148 
  84      752AF92E 
  84      694C46C3 
  85 0135 8FAAB825 		.ascii	"\217\252\270%H\2457\313\353c\252\340\216\346\006\235"
  85      48A537CB 
  85      EB63AAE0 
  85      8EE6069D 
  86 0145 CAD000F1 		.ascii	"\312\320\000\361\320\010\234\014\217\240\012\3108\024"
  86      D0089C0C 
  86      8FA00AC8 
  86      3814
  87 0153 FF518CE9 		.ascii	"\377Q\214\351$c\306\016\317\200W\301\341T&\320\304#"
  87      2463C60E 
  87      CF8057C1 
  87      E15426D0 
  87      C423
  88 0165 47C03D56 		.ascii	"G\300=V|v'\206\007h\017:\257[E\000\237\244\031\214\354"
  88      7C762786 
  88      07680F3A 
  88      AF5B4500 
  88      9FA4198C 
  89 017a E7F96A95 		.ascii	"\347\371j\225Ni\002\212\235\030\211\013W\017\2276\321"
  89      4E69028A 
  89      9D18890B 
  89      570F9736 
  89      D1
  90 018b 824D7685 		.ascii	"\202Mv\205\251:\265\254R^\002h\201\002\236\231\"\006"
  90      A93AB5AC 
  90      525E0268 
  90      81029E99 
  90      2206
  91 019d C8444FE5 		.ascii	"\310DO\345\031\025\265\373~\017\307\030\323+\221\303"
  91      1915B5FB 
  91      7E0FC718 
  91      D32B91C3 
  92 01ad AC5BD428 		.ascii	"\254[\324(\254\231\224U\\\326j\356\273\200I1\214R\301"
  92      AC999455 
  92      5CD66AEE 
  92      BB804931 
  92      8C52C1
  93 01c0 0705D08A 		.ascii	"\007\005\320\212\024\376\337v\343\215V%9\011\037R\033"
  93      14FEDF76 
  93      E38D5625 
  93      39091F52 
  93      1B
  94 01d1 8F5911CF 		.ascii	"\217Y\021\317\027\036C2O\266\3273\263\037\227\342a\243"
  94      171E4332 
  94      4FB6D733 
  94      B31F97E2 
  94      61A3
  95 01e3 9B4BD762 		.ascii	"\233K\327bE\231\006*v*7\373\245\346\223]\224J\363\357"
ARM GAS  C:\Users\Bruger\AppData\Local\Temp\ccnPihjU.s 			page 7


  95      4599062A 
  95      762A37FB 
  95      A5E6935D 
  95      944AF3EF 
  96 01f7 C3623D31 		.ascii	"\303b=1\213\325\316g\342>\202\336\200\351U\377\353\215"
  96      8BD5CE67 
  96      E23E82DE 
  96      80E955FF 
  96      EB8D
  97 0209 043E8D0E 		.ascii	"\004>\215\016|&\200\370r\300\363H`\315\314b\265\001"
  97      7C2680F8 
  97      72C0F348 
  97      60CDCC62 
  97      B501
  98 021b FC1C020E 		.ascii	"\374\034\002\016m,\364\253\341\300\016\023\330)\200"
  98      6D2CF4AB 
  98      E1C00E13 
  98      D82980
  99 022a AA00FAD6 		.ascii	"\252\000\372\326B@\333\256\201]\321\201/\004P\274\305"
  99      4240DBAE 
  99      815DD181 
  99      2F0450BC 
  99      C5
 100 023b DD91C0F2 		.ascii	"\335\221\300\362\345\346A*\200oC@\255\247\356\207#\034"
 100      E5E6412A 
 100      806F4340 
 100      ADA7EE87 
 100      231C
 101 024d F8D204FA 		.ascii	"\370\322\004\372\005\320fT\320\004:v\015\354\211\016"
 101      05D06654 
 101      D0043A76 
 101      0DEC890E 
 102 025d EC154009 		.ascii	"\354\025@\011\201\257\"\201\213\355\236\313{\004\360"
 102      81AF2281 
 102      8BED9ECB 
 102      7B04F0
 103 026c 6B08786B 		.ascii	"k\010xki\266D\011\007\2766\201o\004\320aTp=\004\214"
 103      69B64409 
 103      07BE3681 
 103      6F04D061 
 103      54703D04 
 104 0281 DD35B02F 		.ascii	"\3355\260/:\260_\000e\004\016D\002\373Z\246\256\032"
 104      3AB05F00 
 104      65040E44 
 104      02FB5AA6 
 104      AE1A
 105 0293 5B752204 		.ascii	"[u\"\004\354Z\271\275m\015\007\016\232\300\267\002\030"
 105      EC5AB9BD 
 105      6D0D070E 
 105      9AC0B702 
 105      18
 106 02a4 2B368F45 		.ascii	"+6\217E|\017\276\201\346o;-6\034\301\257\005\340]\316"
 106      7C0FBE81 
 106      E66F3B2D 
 106      361CC1AF 
 106      05E05DCE 
 107 02b8 3B78C295 		.ascii	";x\302\225\343\312;\223\357:\227\225\221{!/\333\225"
ARM GAS  C:\Users\Bruger\AppData\Local\Temp\ccnPihjU.s 			page 8


 107      E3CA3B93 
 107      EF3A9795 
 107      917B212F 
 107      DB95
 108 02ca 999E919B 		.ascii	"\231\236\221\233v,\363dJZV\372\251\243\331D=\237\223"
 108      762CF364 
 108      4A5A56FA 
 108      A9A3D944 
 108      3D9F93
 109 02dd 9F91CF03 		.ascii	"\237\221\317\003\376\002\255\012\314\266"
 109      FE02AD0A 
 109      CCB6
 110              		.text
 111              		.section	.gnu.lto_I2C_SaveConfig.24bfc868,"",%progbits
 112 0000 789C9DD3 		.ascii	"x\234\235\323]H\024Q\024\007\360\363?3M\303\256E\364"
 112      5D481451 
 112      1407F0F3 
 112      3F334DC3 
 112      AE45F4
 113 0013 241214BD 		.ascii	"$\022\024\275\370d\017A\257\275\370 =\004\202\257\202"
 113      F8640F41 
 113      AFBDF820 
 113      3D0482AF 
 113      82
 114 0024 84ED6B82 		.ascii	"\204\355k\202\330\2438#\033\231A\251\201\204\371A\017"
 114      D8A33823 
 114      1B9941A9 
 114      8184F941 
 114      0F
 115 0035 91B6E69A 		.ascii	"\221\266\346\232\226}Y\215\006\366A\030}\240a\241\304"
 115      967D598D 
 115      06F64118 
 115      7DA061A1 
 115      C4
 116 0046 6EB52544 		.ascii	"n\265%D\253\240\014\242v\317\035f7\012\226\330\201\271"
 116      ABA00CA2 
 116      76CF1D66 
 116      370A96D8 
 116      81B9
 117 0058 7766EEB9 		.ascii	"wf\356\271\347\376\316\314\035\203\376=\312\324\231"
 117      E7FECECC 
 117      1D83FE3D 
 117      CAD499
 118 0067 32880EAA 		.ascii	"2\210\016\252\036\006\201;f\211\\\233\001\271 P\013"
 118      1E06813B 
 118      66895C9B 
 118      01B92050 
 118      0B
 119 0078 A305DF39 		.ascii	"\243\005\3379\313\350\360\022\227\243\345\327\034\307"
 119      CBE8F012 
 119      97A3E5D7 
 119      1CC7
 120 0086 F9D53A5E 		.ascii	"\371\325:^z\246\324g\242U\016\322\340:\312I\305d\343"
 120      7AA6D467 
 120      A2550ED2 
 120      E03ACA49 
 120      C564E3
ARM GAS  C:\Users\Bruger\AppData\Local\Temp\ccnPihjU.s 			page 9


 121 0099 9BF3512B 		.ascii	"\233\363Q+\256b\366\004c\030\204\005\325'\367z\316\366"
 121      AE62F604 
 121      63188405 
 121      D527F77A 
 121      CEF6
 122 00ab F6EAABCE 		.ascii	"\366\352\253\316\266\243(a\362\031\2464\2264\2664\021"
 122      B6A32861 
 122      F219A634 
 122      9634B634 
 122      11
 123 00bc 6988D26A 		.ascii	"i\210\322j\222\254\374\205Yzc\001\323k\3553=M\222g\235"
 123      92ACFC85 
 123      597A6301 
 123      D36BED33 
 123      3D4D9267 
 124 00d1 8531F039 		.ascii	"\2051\3609\323\277;\303>\363\334%\3271e\325\245\364"
 124      D3BF3BC3 
 124      3EF3DC25 
 124      D73165D5 
 124      A5F4
 125 00e3 EB37B67E 		.ascii	"\3537\266~Dr\373v\375\3333\273\017W\3348|60\2042\334"
 125      4472FB76 
 125      FDDB33BB 
 125      0F57DC38 
 125      7C363084 
 126 00f9 802A1409 		.ascii	"\200*\024\011\364\201\026\320\332uu\237\344S\241\375"
 126      F48116D0 
 126      DA75759F 
 126      E453A1FD 
 127 0109 EF2E8C70 		.ascii	"\357.\214p\363\206\323\346\330>\233\233\"\3763\237\251"
 127      F386D3E6 
 127      D83E9B9B 
 127      22FE339F 
 127      A9
 128 011a 6F07DD78 		.ascii	"o\007\335x/$\237#Q;0\214f\334\224\204jlk\370\342\230"
 128      2F249F23 
 128      513B308C 
 128      66DC9484 
 128      6A6C6BF8 
 129 0130 55915005 		.ascii	"U\221P\005{\373}\2660\242\002W\364KA\022\025JL\272\202"
 129      7BFB7DB6 
 129      30A20257 
 129      F44B4112 
 129      154A4CBA 
 130 0145 D9B00253 		.ascii	"\331\260\002S\315\231\337X>\037T\360<\254 \365a\340"
 130      CD99DF58 
 130      3E1F54F0 
 130      3CAC20F5 
 130      61E0
 131 0157 7D344F1E 		.ascii	"}4O\036\315\221o\375'\371o\343X\001\343\2706\312W\301"
 131      CD916FFD 
 131      27F96FE3 
 131      5801E3B8 
 131      36CA57C1 
 132 016b 6D319A81 		.ascii	"m1\232\201q.4\312*\235?\223/X\033_\206Fwj\350GI\336"
 132      712E34CA 
 132      2A9D3F93 
ARM GAS  C:\Users\Bruger\AppData\Local\Temp\ccnPihjU.s 			page 10


 132      2F581B5F 
 132      8646776A 
 133 0183 7827679C 		.ascii	"x'g\234(\322x\267\200\361\2366\352\035t_\214V`\\\014"
 133      28D278B7 
 133      80F19E36 
 133      EA1D745F 
 133      8C56605C 
 134 0198 8DB69A93 		.ascii	"\215\266\232\223\231\350:\273K\033?\206\306\356\345"
 134      99E83ABB 
 134      4B1B3F86 
 134      C6EEE5
 135 01a7 54BB9537 		.ascii	"T\273\2257>\310\031\037\026i\234,`|\244\215\206\030"
 135      3EC8191F 
 135      16699C2C 
 135      607CA48D 
 135      8618
 136 01b9 1F8BD10E 		.ascii	"\037\213\321\016\214_CcD\315\231\031]:\027l\315O\241"
 136      8C5F4363 
 136      44CD9919 
 136      5D3A176C 
 136      CD4FA1
 137 01cc 7172A567 		.ascii	"qr\245gkg\336\370$g\364\2124N\0250Nk\243)\306\247b\214"
 137      6B67DEF8 
 137      2467F48A 
 137      344E1530 
 137      4E6BA329 
 138 01e4 D0225C2F 		.ascii	"\320\"\\/[%\013\310.M\253}\240\3763\225\371@U\354T\254"
 138      5B250BC8 
 138      2E4DAB7D 
 138      A0FE3395 
 138      F94055EC 
 139 01fa F14453EC 		.ascii	"\361DS\354d]M\303\351\306\372XmuMC\345\221\332c\207"
 139      645D4DC3 
 139      E9C6FA58 
 139      6D754D43 
 139      E591DA63 
 140 020f 2BEBAA8F 		.ascii	"+\353\252\217\037\252\247\337\370\221m\213"
 140      1FAAA7DF 
 140      F8916D8B 
 141              		.text
 142              		.section	.gnu.lto_I2C_Sleep.24bfc868,"",%progbits
 143 0000 789C9DD4 		.ascii	"x\234\235\324\333K\024a\024\000\360\357|3\263\273\356"
 143      DB4B1461 
 143      1400F0EF 
 143      7C33B3BB 
 143      EE
 144 0011 8DA81791 		.ascii	"\215\250\027\221\260\350\305'\013\212\350\017\360!\""
 144      B0E8C527 
 144      0B8AE80F 
 144      F02122
 145 0020 02C15741 		.ascii	"\002\301WA\302\3665A\354Q\234\321-/\335l\0131\363\202"
 145      C2F63541 
 145      EC519CD1 
 145      2D2FDD6C 
 145      0B31F382 
 146 0034 0FD696E6 		.ascii	"\017\326\226\346=\315\265l\262\362Z\206\225J*+\201\206"
 146      3DCDB56C 
ARM GAS  C:\Users\Bruger\AppData\Local\Temp\ccnPihjU.s 			page 11


 146      B2F25A86 
 146      954A2A2B 
 146      8186
 147 0046 5DA874C3 		.ascii	"]\250t\303Zd\265s\276\331\3316\243\205\034\230o.\337"
 147      5A64B573 
 147      BED9D936 
 147      A3851C98 
 147      6F2EDF
 148 0059 F9CEFCE6 		.ascii	"\371\316\374\346\034f$\366\367v\010\367\213\012c\373"
 148      1C6624F6 
 148      F77608F7 
 148      8B0A63FB 
 149 0069 F0080A03 		.ascii	"\360\010\012\003^9\301\230f\343\\\012\2442\325.O\037"
 149      5E39C198 
 149      66E35C0A 
 149      A432D52E 
 149      4F1F
 150 007b 60AA5302 		.ascii	"`\252S\002\331\270-\003\320\011\003V\304%\031\212\340"
 150      D9B82D03 
 150      D0090356 
 150      C425198A 
 150      E0
 151 008c 035FE150 		.ascii	"\003_\341P\2517W;\322\232TU\375\266:\225|69\314\031"
 151      A937573B 
 151      D29A5455 
 151      FDB63A95 
 151      7C3639CC 
 152 00a1 0B71233F 		.ascii	"\013q#?\334\2024\2061+\336\310\214\303\342\305\230\035"
 152      DC823486 
 152      312BDEC8 
 152      8CC3E2C5 
 152      981D
 153 00b3 C61CF8C1 		.ascii	"\306\034\370\301\002xl\333\251\253\233\233]\363\276"
 153      02786CDB 
 153      A9AB9B9B 
 153      5DF3BE
 154 00c2 B2237C17 		.ascii	"\262#|\027ga\0162\015\012\016\334Bgv\032\03448ip\321"
 154      67610E32 
 154      0D0A0EDC 
 154      4267761A 
 154      1C343869 
 155 00d8 E0A681B1 		.ascii	"\340\246\201\261ELD\236%\316\351(\315\302\340ZE\260"
 155      454C449E 
 155      25CEE928 
 155      CDC2E05A 
 155      45B0
 156 00ea A51628F9 		.ascii	"\245\026(\371\017.\343s\257\177n\354\261,\3630\227\232"
 156      0F2EE373 
 156      AF7F6EEC 
 156      B12CF330 
 156      979A
 157 00fc 4A355526 		.ascii	"J5U&\312\302\342\313I\233\270\305\350\262b`MO\252\203"
 157      CAC2E2CB 
 157      499BB8C5 
 157      E8B26260 
 157      4D4FAA83 
 158 0110 1B9A17C2 		.ascii	"\033\232\027\302\\\206\333\220\002w \005\201\315P\007"
ARM GAS  C:\Users\Bruger\AppData\Local\Temp\ccnPihjU.s 			page 12


 158      5C86DB90 
 158      02772005 
 158      81CD5007 
 159 0120 6C164A7E 		.ascii	"l\026J~\236\373.\031\011\271\2213\340\033\251\0269\221"
 159      9EFB2E19 
 159      09B99133 
 159      E01BA916 
 159      3991
 160 0132 0A2D188B 		.ascii	"\012-\030\213A\235V#D\301(\014\321n\366_\260\212\020"
 160      419D5623 
 160      44C1280C 
 160      D16EF65F 
 160      B08A10
 161 0145 4C745784 		.ascii	"LtW\204\024\007\243!\024E\327\276\306T\272\201\321\365"
 161      1407A321 
 161      1445D7BE 
 161      C654BA81 
 161      D1F5
 162 0157 AF2FB5F2 		.ascii	"\257/\265\362\302u\265L\265\205\271\022\241\362\304"
 162      C275B54C 
 162      B585B912 
 162      A1F2C4
 163 0166 3B1571E9 		.ascii	";\025q\351\327\274\265@N\225\242,\320\012\205\320FP"
 163      D7BCB540 
 163      4E95A22C 
 163      D00A85D0 
 163      4650
 164 0178 9CDB68B9 		.ascii	"\234\333h\271\334iIo\306\352\352{\302\334\012\355\030"
 164      DC69496F 
 164      C6EAEA7B 
 164      C2DC0AED 
 164      18
 165 0189 B82A3A00 		.ascii	"\270*:\000\035\220\216\217dS\340}[\322[\225\034%\010"
 165      1D908E8F 
 165      6453E07D 
 165      5BD25B95 
 165      1C2508
 166 019c 136D4B58 		.ascii	"\023mKX\205@\2524\017%z\303\270\223f\331V\220-$\336"
 166      8540AA34 
 166      0F257AC3 
 166      B89366D9 
 166      56902D24 
 167 01b1 A2130AB1 		.ascii	"\242\023\012\261\352Ib\215\374\273\334C5\005\177\264"
 167      EA49628D 
 167      FCBBDC43 
 167      35057FB4 
 168 01c1 57EF1DE7 		.ascii	"W\357\035\347\242\271!l\312\226\306C\027\246g\320M\004"
 168      A2B9216C 
 168      CA96C643 
 168      17A667D0 
 168      4D04
 169 01d3 3BCE35BC 		.ascii	";\3165\274[\256w\213NL_\2156g\256\252/\342\244\267\274"
 169      5BAE778B 
 169      4E4C5F8D 
 169      3667AEAA 
 169      2FE2A4B7 
 170 01e8 A6D9A81D 		.ascii	"\246\331\250\035\367b\355\3501\332Q\354\353x\243Y)\307"
ARM GAS  C:\Users\Bruger\AppData\Local\Temp\ccnPihjU.s 			page 13


 170      F762EDE8 
 170      31DA51EC 
 170      EB78A359 
 170      29C7
 171 01fa 3F0BB7B5 		.ascii	"?\013\267\265R\275\011*u_T\012\014\032\364Q\261\354"
 171      52BD092A 
 171      755F540A 
 171      0C1AF451 
 171      B1EC
 172 020c 4CBCD844 		.ascii	"L\274\330DM\201!u\340\262\231\365O\347\015\351\210)"
 172      4D812175 
 172      E0B299F5 
 172      4FE70DE9 
 172      8829
 173 021e ED6E2DF3 		.ascii	"\355n-\363[\343\244\201\230\264\337\2246\356\376/\347"
 173      5BE3A481 
 173      98B4DF94 
 173      36EEFE2F 
 173      E7
 174 022f 8304CE87 		.ascii	"\203\004\316\207\302\311\243\316\001r:\014\347\264\351"
 174      C2C9A3CE 
 174      01723A0C 
 174      E7B4E9
 175 023e 74E2B22B 		.ascii	"t\342\262+_\332F\271p\216\231N\177yd\321\026\347|\024"
 175      5FDA46B9 
 175      708E994E 
 175      7F7964D1 
 175      16E77C14 
 176 0252 73EADB74 		.ascii	"s\352\333t>N\340\034\024N)\352|BN\247\341\014\232N\027"
 176      3E4EE01C 
 176      144E29EA 
 176      7C424EA7 
 176      E10C9A4E 
 177 0267 2E5BEEF1 		.ascii	".[\356\361\225\272\204s\316t\276Z\011\015\273\342\234"
 177      95BA8473 
 177      CE74BE5A 
 177      090DBBE2 
 177      9C
 178 0278 4F63CE67 		.ascii	"Oc\316g\333t\016%p\016\013\247\034u\216\220\323e8\337"
 178      DB740E25 
 178      700E0BA7 
 178      1C758E90 
 178      D36538DF 
 179 028c 9B4E372E 		.ascii	"\233N7.\033j_(7\376\025\363\246s\343\343\327*G\234s"
 179      1B6A5F28 
 179      37FE15F3 
 179      A673E3E3 
 179      D72A479C 
 180 02a1 34E61CDB 		.ascii	"4\346\034\333\246s<\201\363\271p*Q\347\013r\272Y\020"
 180      A6733C81 
 180      F3B9702A 
 180      51E70B72 
 180      BA5910
 181 02b4 34BDEFB8 		.ascii	"4\275\357\270\370X\031\375\005\201>GL\276\367\250\347"
 181      F85819FD 
 181      05813E47 
 181      4CBEF7A8 
ARM GAS  C:\Users\Bruger\AppData\Local\Temp\ccnPihjU.s 			page 14


 181      E7
 182 02c5 B427FF64 		.ascii	"\264'\377d\201\347TNV\336\231\374\\OvfV^\306\341\354"
 182      81E7544E 
 182      56DE99FC 
 182      5C4F7666 
 182      565EC6E1 
 183 02da 63073372 		.ascii	"c\0073r2O\354\317e\277\000\001Z\002h"
 183      324FECCF 
 183      65BF0001 
 183      5A0268
 184              		.text
 185              		.section	.gnu.lto_I2C_Wakeup.24bfc868,"",%progbits
 186 0000 789C7550 		.ascii	"x\234uPMk\023Q\024\275\347\316k&\232*\342\312fQ\304"
 186      4D6B1351 
 186      14BDE7CE 
 186      6B269A2A 
 186      E2CA6651 
 187 0015 4D16D20A 		.ascii	"M\026\322\012\212k\027Y\210\213B!\333@\320\232\255\201"
 187      8A6B1759 
 187      888B4221 
 187      DB40D09A 
 187      AD81
 188 0027 A0CB9037 		.ascii	"\240\313\2207\315\010YH\015\245\213B\215\013\301Zm\233"
 188      CD085948 
 188      0DA58B42 
 188      8D0BC15A 
 188      6D9B
 189 0039 68041711 		.ascii	"h\004\027\021!\344\007(\022\264TD7-(\202\344\243(\203"
 189      21E40728 
 189      12B45444 
 189      372D2882 
 189      E4A32883 
 190 004d C47AEF04 		.ascii	"\304z\357\004\024\225\016\014o\346\334s\317\307s\350"
 190      14950E0C 
 190      6FE6DC73 
 190      CFC773E8 
 191 005d FFE79CBC 		.ascii	"\377\347\234\274\333 :%'\306\010\\yI\344E\231\235\346"
 191      DB203A25 
 191      27C6085C 
 191      7949E445 
 191      999DE6
 192 0070 24D9C3E6 		.ascii	"$\331\303\346\355\031\262\343\016\314\0106\200~\020"
 192      ED19B2E3 
 192      0ECC0836 
 192      807E10
 193 007f A8C88E41 		.ascii	"\250\310\216A\021\237\271\307\250\264\326\227c\211\373"
 193      119FB9C7 
 193      A8B4D697 
 193      6389FB
 194 008e D6DA6E7B 		.ascii	"\326\332n{e\342\346\211\200\211\006<\322\307\003$H8"
 194      65E2E689 
 194      8089063C 
 194      D2C70324 
 194      4838
 195 00a0 3D7FB815 		.ascii	"=\177\270\025\213\370\30296\232a\015\021\361\245\372"
 195      8BF8C239 
 195      369A610D 
ARM GAS  C:\Users\Bruger\AppData\Local\Temp\ccnPihjU.s 			page 15


 195      11F1A5FA 
 196 00b0 F196DDDF 		.ascii	"\361\226\335\337\037|]*_0\256\241\200\005\334\021\202"
 196      1F7C5D2A 
 196      5F30AEA1 
 196      8005DC11 
 196      82
 197 00c1 FAEC32EB 		.ascii	"\372\3542\353\351\274G\251\365\242\303\272\242Zw;\013"
 197      E9BC47A9 
 197      F5A2C3BA 
 197      A25A773B 
 197      0B
 198 00d2 352EFCB0 		.ascii	"5.\374\260e\033\015\230\007\272\201\207(\310\256C\357"
 198      651B0D98 
 198      07BA8187 
 198      28C8AE43 
 198      EF
 199 00e3 30FFACB7 		.ascii	"0\377\254\267\267\344*\367;\233\177\331f\250\336\202"
 199      B7E42AF7 
 199      3B9B7FD9 
 199      66A8DE82 
 200 00f3 7EDC79F5 		.ascii	"~\334y\365:\372\211\005\011\177\327<\377\016\252X\361"
 200      3AFA8905 
 200      097FD73C 
 200      FF0EAA58 
 200      F1
 201 0104 ACB2C6F0 		.ascii	"\254\262\306\360\010\005\254#\036\316~n\334nD\246N\007"
 201      0805AC23 
 201      1ECE7E6E 
 201      DC6E44A6 
 201      4E07
 202 0116 1CC18670 		.ascii	"\034\301\206p\372a3lb\212\336\300\337.]\371c\345\255"
 202      FA61336C 
 202      628ADEC0 
 202      DF2E5DF9 
 202      63E5AD
 203 0129 3EBFE5AA 		.ascii	">\277\345\252\250&\252\351:i\011\207\232\223a\207\255"
 203      A826AAE9 
 203      3A690987 
 203      9A936187 
 203      AD
 204 013a CEF8411D 		.ascii	"\316\370A\035D\024\365\337\035\332\335\3127\243Ta\366"
 204      4414F5DF 
 204      1DDADDCA 
 204      37A35461 
 204      F6
 205 014b BFD8AA51 		.ascii	"\277\330\252QQ\327\266K\366\350_\341\3350\340^\377\336"
 205      51D7B64B 
 205      F6E85FE1 
 205      DD30E05E 
 205      FFDE
 206 015d E2110DEF 		.ascii	"\342\021\015\357#\340(\036#\216'j\216\206\304\225\371"
 206      23E0281E 
 206      238E276A 
 206      8E86C495 
 206      F9
 207 016e B0B3D08D 		.ascii	"\260\263\320\215)\375\220\265Lx\032\006\333\225\346"
 207      29FD90B5 
ARM GAS  C:\Users\Bruger\AppData\Local\Temp\ccnPihjU.s 			page 16


 207      4C781A06 
 207      DB95E6
 208 017d 7AB71FE0 		.ascii	"z\267\037\340\265\202T\030\213\364\346\241\250\2449"
 208      B5825418 
 208      8BF4E6A1 
 208      A8A439
 209 018c 79317B2D 		.ascii	"y1{-\233\277|={5\223\312\335\310\317e\323\263\251\\"
 209      9BBF7C3D 
 209      7B3593CA 
 209      DDC8CF65 
 209      D3B3A95C 
 210 01a0 F27CFAD2 		.ascii	"\362|\372\322\331dfvfz\216~\001\355\275\266\315"
 210      D9646676 
 210      667A8E7E 
 210      01EDBDB6 
 210      CD
 211              		.text
 212              		.section	.gnu.lto_.symbol_nodes.24bfc868,"",%progbits
 213 0000 789C55C8 		.ascii	"x\234U\310\315\011\302P\024D\341\363\356}\177Z\203e"
 213      CD09C250 
 213      1444E1F3 
 213      EE7D7F5A 
 213      8365
 214 0012 A4BF0962 		.ascii	"\244\277\011b\0016\240h\260\2054 \256\255A\3016\024"
 214      0136A068 
 214      B0853420 
 214      AEAD41C1 
 214      3614
 215 0024 2366F132 		.ascii	"#f\3612\233\341;\016\\\231gk\301\376\016R8\014\225\004"
 215      9BE13B0E 
 215      5C99676B 
 215      C1FE0E52 
 215      380C9504 
 216 0038 6713E60A 		.ascii	"g\023\346\012s\346x\252X\220-l\362\205\243b\353\220"
 216      73E678AA 
 216      58902D6C 
 216      F285A362 
 216      EB90
 217 004a 95FEA6EF 		.ascii	"\225\376\246\357'\026\345\226I\245eUm\350\024n\317O"
 217      2716E596 
 217      49A56555 
 217      6DE8146E 
 217      CF4F
 218 005c 703297C7 		.ascii	"p2\227\307\364\006\333\367\306c\3455v\236\214\341W\323"
 218      F406DBF7 
 218      C663E535 
 218      769E8CE1 
 218      57D3
 219 006e 8ADDD8F1 		.ascii	"\212\335\330\361\005\244\2021C"
 219      05A48231 
 219      43
 220              		.text
 221              		.section	.gnu.lto_.refs.24bfc868,"",%progbits
 222 0000 789C25CB 		.ascii	"x\234%\313\313\011\2000\000\004\321}\211\361\027\202"
 222      CB098030 
 222      0004D17D 
 222      89F11782 
ARM GAS  C:\Users\Bruger\AppData\Local\Temp\ccnPihjU.s 			page 17


 223 0010 5892FD37 		.ascii	"X\222\3757e\304e`\346\2625\311\223\177&[+\321\246\343"
 223      65C46560 
 223      E6B235C9 
 223      937F265B 
 223      2BD1A6E3 
 224 0024 881EA355 		.ascii	"\210\036\243U\012\013+;\347:\263q\320\031\\\334\337"
 224      0A0B2B3B 
 224      E73AB371 
 224      D0195CDC 
 224      DF
 225 0035 A5E4052C 		.ascii	"\245\344\005,\313\001\034"
 225      CB011C
 226              		.text
 227              		.section	.gnu.lto_.decls.24bfc868,"",%progbits
 228 0000 789C8D56 		.ascii	"x\234\215VyL\024g\024\237o\277\335ew\201\305\326T\015"
 228      794C1467 
 228      149F6FBF 
 228      DD657781 
 228      C5D6540D 
 229 0014 4953B009 		.ascii	"IS\260\011\261\2151T[\343\177\265n\215im\033\"\222\376"
 229      B18D3154 
 229      5BE37FB5 
 229      6E8D696D 
 229      1B2292FE 
 230 0028 A1094118 		.ascii	"\241\011A\030-\221\000\342j\344\237f\0009\304\243H\213"
 230      2D9100E2 
 230      6AE49F66 
 230      0039C4A3 
 230      488B
 231 003a 82B6768D 		.ascii	"\202\266v\215\240\242\034\013\012\025\221\333\003\001"
 231      A0A21C0B 
 231      0A1591DB 
 231      0301
 232 0048 F102844A 		.ascii	"\361\002\204J\005VE\0169E\001\257\355\373\336\314\262"
 232      0556450E 
 232      394501AF 
 232      EDFBDECC 
 232      B2
 233 0059 B3BADB3A 		.ascii	"\263\272\333:\311\217\3317\363\336\357\235\337\033("
 233      C98FD937 
 233      F3DEEF9D 
 233      DF1B28
 234 0068 C7719F2B 		.ascii	"\307q\237+8\316\012W\234\216\343~&\034\247\206g\001"
 234      38CE0A57 
 234      9C8EE37E 
 234      261CA786 
 234      6701
 235 007a 9CFDD202 		.ascii	"\234\375\322\002\362\000\205\200\"\300\031@\011\240"
 235      F2008580 
 235      22C01940 
 235      09A0
 236 0088 025003A8 		.ascii	"\002P\003\250\003\\\002\200)g\341\034/f\347.\361\225"
 236      035C0280 
 236      2967E11C 
 236      2F66E72E 
 236      F195
 237 009a 01E600EE 		.ascii	"\001\346\000\356\003\312\001}\200^@?\240\0120\000\270"
ARM GAS  C:\Users\Bruger\AppData\Local\Temp\ccnPihjU.s 			page 18


 237      03CA017D 
 237      805E403F 
 237      A00A3000 
 237      B8
 238 00ab 2BF17400 		.ascii	"+\361t\000\250do\363\343\214\277P\212O\316o\343\035"
 238      A8646FF3 
 238      E38CBF50 
 238      8A4FCE6F 
 238      E31D
 239 00bd 04E4CA78 		.ascii	"\004\344\312xU\200V\211\273\015p\007p\033\240\220x\362"
 239      55805689 
 239      BB0D7007 
 239      701BA090 
 239      78F2
 240 00cf 5CF86039 		.ascii	"\\\370`9\273I>\344\3746\3362\211\273C\342\227s\023\311"
 240      BB493EE4 
 240      FC36DE32 
 240      89BB43E2 
 240      977313C9 
 241 00e3 DE192FAB 		.ascii	"\336\031/\253\243N\306;\354\202{\014\220\317\211}iq"
 241      A34EC63B 
 241      EC827B0C 
 241      90CF897D 
 241      6971
 242 00f5 E1874A7C 		.ascii	"\341\207J|u\377\341\257\344\015\1776^\271\257\027\200"
 242      75FFE1AF 
 242      E40D7F36 
 242      5EB9AF17 
 242      80
 243 0106 6980AFC4 		.ascii	"i\200\257\304\321\"q\227H5r\325\3471\005)+\230\270\346"
 243      D1227197 
 243      483572D5 
 243      E7310529 
 243      2B98B8E6 
 244 011a DEA7207A 		.ascii	"\336\247 z\235\017\023\317\247\327g\252A\364\320)\231"
 244      9D0F13CF 
 244      A7D767AA 
 244      41F4D029 
 244      99
 245 012b 58FEC2D2 		.ascii	"X\376\302\322\242\234\233!\300\225\226 \314R\222\200"
 245      A29C9B21 
 245      C0959620 
 245      CC529280 
 246 013b 39E404F1 		.ascii	"9\344\004\361&'\21170\346\222\271\360w\235Rdj\332\237"
 246      26278937 
 246      30E692B9 
 246      F0779D52 
 246      646ADA9F 
 247 014f B4474F15 		.ascii	"\264GO\025\204\375>\226\331\323\242[x\012\314R\204\352"
 247      84FD3E96 
 247      D9D3A25B 
 247      780ACC52 
 247      84EA
 248 0161 766A77D7 		.ascii	"vjw\327\330/\264z\371\034\021\252\315\243\015\267\366"
 248      D82FB47A 
 248      F91C11AA 
 248      CDA30DB7 
ARM GAS  C:\Users\Bruger\AppData\Local\Temp\ccnPihjU.s 			page 19


 248      F6
 249 0172 D1AC3453 		.ascii	"\321\2544S\274\360\332j%\202\202\261\221S\204\222\323"
 249      BCF0DA6A 
 249      258282B1 
 249      91538492 
 249      D3
 250 0183 64215366 		.ascii	"d!Sf\277\321\212\344\021\237\377\015%\337!\224\313\277"
 250      BFD18AE4 
 250      119FFF0D 
 250      25DF2194 
 250      CBBF
 251 0195 0C9994D4 		.ascii	"\014\231\224\324\200\241$\275\252\357\321\202\307n\263"
 251      80A124BD 
 251      AAEFD182 
 251      C76EB3
 252 01a4 90259814 		.ascii	"\220%\230\024\002\034\031p\006\372\244@\346\254\300"
 252      021C1970 
 252      06FAA440 
 252      E6ACC0
 253 01b3 E6AC109D 		.ascii	"\346\254\020\2355\034\211\033\321\320 $\260\014\224"
 253      351C891B 
 253      D1D02024 
 253      B00C94
 254 01c2 B6512430 		.ascii	"\266Q$0e\036S\327\013\325Vk\225@\220\301,c0\333\030"
 254      651E53D7 
 254      0BD5566B 
 254      954090C1 
 254      2C6330DB 
 255 01d7 8A90A133 		.ascii	"\212\220\2413\273\274\302\223\206!\303H\355\251\213"
 255      BBBCC293 
 255      8621C348 
 255      EDA98B
 256 01e6 4A603099 		.ascii	"J`0\231M\2059\"\303\227h_,\263/\266\331\237A\373\251"
 256      4D853922 
 256      C397685F 
 256      2CB32FB6 
 256      D99F41FB 
 257 01fb 5B85A36A 		.ascii	"[\205\243j\032\211\366q\255\371V/\321\2763Wn\177Vf\177"
 257      1A89F671 
 257      ADF9562F 
 257      D1BE3357 
 257      6E7F5666 
 258 0210 D6665F82 		.ascii	"\326f_\202\366mU\311\311\032\032+\332\037/\337\343\006"
 258      F66D55C9 
 258      C91A1A2B 
 258      DA1F2FDF 
 258      E306
 259 0222 4D9DA3C3 		.ascii	"M\235\243\303\352\354k<TCQ\264\262\327\212\216\216\337"
 259      EAEC6B3C 
 259      544351B4 
 259      B2D78A8E 
 259      8EDF
 260 0234 A629D1F9 		.ascii	"\246)\321\371\245\010B\2740\232.\320y\034Y\350M>\361"
 260      A50842BC 
 260      309A2ED0 
 260      791C59E8 
 260      4D3EF1
ARM GAS  C:\Users\Bruger\AppData\Local\Temp\ccnPihjU.s 			page 20


 261 0247 E6C879E2 		.ascii	"\346\310y\342\007j\350\203\374\005\305>\007\305\316"
 261      076AE883 
 261      FC05C53E 
 261      07C5CE
 262 0256 860E8C5A 		.ascii	"\206\016\214Z\023*\277M\020\226\2232\242#\2453Q\240"
 262      132ABF4D 
 262      10969332 
 262      A223A533 
 262      51A0
 263 0268 07A9D3BB 		.ascii	"\007\251\323\273v\232\251\274]L\323\336\257r\207~]\037"
 263      769AA9BC 
 263      5D4CD3DE 
 263      AF72877E 
 263      5D1F
 264 027a 7896A5A3 		.ascii	"x\226\245\243G\011F\333u:'\202\225[\030\235\272d]\226"
 264      470946DB 
 264      753A2782 
 264      955B189D 
 264      BA645D96 
 265 028e 251C1527 		.ascii	"%\034\025'\004m\310\005Y\306\027l\031W`\306i\2115iJ"
 265      046DC805 
 265      59C6176C 
 265      195760C6 
 265      69893569 
 266 02a3 25AC0574 		.ascii	"%\254\005t\265\016\347\367\251\265'G\341rh\2520\210"
 266      B50EE7F7 
 266      A9B52747 
 266      E17268AA 
 266      3088
 267 02b5 4A2245F1 		.ascii	"J\"E\3618\277\310\354N\333\305(\216\245]\270\253\306"
 267      38BFC8EC 
 267      4EDBC528 
 267      8EA55DB8 
 267      ABC6
 268 02c7 30BAAD75 		.ascii	"0\272\255u|\355N\341\245\325J\321\204T\313b\250\266"
 268      7CED4EE1 
 268      A5D54AD1 
 268      8454CB62 
 268      A8B6
 269 02d9 C5508331 		.ascii	"\305P\2031Tg%\346y\321a\221\242?k|B\201\024\346\221"
 269      546725E6 
 269      79D16191 
 269      A23F6B7C 
 269      428114E6 
 270 02ee E4D34496 		.ascii	"\344\323D\226\011\353]\255\214\245\326\306R\207,\011"
 270      09EB5DAD 
 270      8CA5D6C6 
 270      52872C09 
 271 02fe 4FF27308 		.ascii	"O\362s\010\315\020\217R}k\242\005\347W0\345\346$\371"
 271      CD108F52 
 271      7D6BA205 
 271      E75730E5 
 271      E624F9
 272 0311 C8BA7F51 		.ascii	"\310\272\177Q\306p\321\306p\011\031\272&\273j\335\360"
 272      C670D1C6 
 272      700919BA 
 272      26BB6ADD 
ARM GAS  C:\Users\Bruger\AppData\Local\Temp\ccnPihjU.s 			page 21


 272      F0
 273 0322 54FB338E 		.ascii	"T\3733\216\364\304s\347\364x\252\325L\034\252\030\037"
 273      F4C473E7 
 273      F478AAD5 
 273      4C1CAA18 
 273      1F
 274 0333 72A72691 		.ascii	"r\247&\221\277\252\340v\246\206\026\213\302\353\351"
 274      BFAAE076 
 274      A686168B 
 274      C2EBE9
 275 0342 57CD2A5A 		.ascii	"W\315*Z)\012B\301\361j\025\255\023\205F\313\324\023"
 275      290A42C1 
 275      F16A15AD 
 275      138546CB 
 275      D413
 276 0354 0F649CC5 		.ascii	"\017d\234\305\304\370\362\311q\035\275\"\276\313\232"
 276      C4F8F2C9 
 276      711DBD22 
 276      BECB9A
 277 0363 6CBAEC85 		.ascii	"l\272\354\205\357\3461\361F\202\251@O\233\304w\025I"
 277      EFE631F1 
 277      4682A940 
 277      4F9BC477 
 277      1549
 278 0375 E63A0FDA 		.ascii	"\346:\017\332\"\012'-\315\351\236\250\270\000DM\361"
 278      220A272D 
 278      CDE99EA8 
 278      B800444D 
 278      F1
 279 0386 896CAB3B 		.ascii	"\211l\253;\231=\237]~\363\367c\227\004a\371\026\216"
 279      993D9F5D 
 279      7EF3F763 
 279      970461F9 
 279      168E
 280 0398 5C861E5D 		.ascii	"\\\206\036]\301\036\335\"\263Y\222\244\035&\261\205"
 280      C11EDD22 
 280      B35992A4 
 280      1D26B185 
 281 03a8 CC27AD80 		.ascii	"\314'\255\200\016@\033\340\016\3406\231\217\211\233"
 281      0E401BE0 
 281      0EE03699 
 281      8F899B
 282 03b7 6078BBAD 		.ascii	"`x\273\255\367/\273\013\231\3768\0007\240:\314X\232"
 282      F72FBB0B 
 282      99FE3800 
 282      37A03ACC 
 282      589A
 283 03c9 E4058CEC 		.ascii	"\344\005\214\354&\243DU\323\324}\225\244x\325\211\342"
 283      26A34455 
 283      D3D47D95 
 283      A478D589 
 283      E2
 284 03da A7337A2F 		.ascii	"\2473z/f\364\032\234\350-\234\321{5\243w\315\211^\263"
 284      66F41A9C 
 284      E82D9CD1 
 284      7B35A377 
 284      CD895EB3 
ARM GAS  C:\Users\Bruger\AppData\Local\Temp\ccnPihjU.s 			page 22


 285 03ee DDF1EB19 		.ascii	"\335\361\353\031\305\353N\024O\240\";b\335\303\307\324"
 285      C5EB4E14 
 285      4FA0223B 
 285      62DDC3C7 
 285      D4
 286 03ff B0664081 		.ascii	"\260f@\201\263u\231\263g\372R\226i\243\023\236&\344"
 286      B37599B3 
 286      67FA5296 
 286      69A3139E 
 286      26E4
 287 0411 81C39DB0 		.ascii	"\201\303\235\260\267r\332\223\370\315F\312,^C\356\202"
 287      B772DA93 
 287      F8CD46CA 
 287      2C5E43EE 
 287      82
 288 0422 66BDFDC4 		.ascii	"f\275\375\3042~\274\234\225\237\374\015U\177\327\016"
 288      327EBC9C 
 288      959FFC0D 
 288      557FD70E 
 289 0432 B04577A8 		.ascii	"\260Ew\250\256RO;\305f\347&\247\355\325\341\232\211"
 289      AE524F3B 
 289      C566E726 
 289      A7EDD5E1 
 289      9A89
 290 0444 43F9D09D 		.ascii	"C\371\320\235\207\023\342\332Q01;\343@\236\012E\015"
 290      8713E2DA 
 290      5130313B 
 290      E3409E0A 
 290      450D
 291 0456 13DBBBE3 		.ascii	"\023\333\273\343\033\334Q\364bb\316\253?v\351\226\236"
 291      1BDC51F4 
 291      6262CEAB 
 291      3F76E996 
 291      9E
 292 0467 15524CFE 		.ascii	"\025RL\376\0301s\314\026\020s\376\017\334Y\000\367\340"
 292      183173CC 
 292      161073FE 
 292      0FDC5900 
 292      F7E0
 293 0479 CE82E882 		.ascii	"\316\202\350\202;\013\244\033\356\267E=\234\345\007"
 293      3B0BA41B 
 293      EEB7453D 
 293      9CE507
 294 0488 89C31E1F 		.ascii	"\211\303\036\037\037\025L&\370\324\344\2218\001>5\002"
 294      1F154C26 
 294      F8D4E491 
 294      38013E35 
 294      02
 295 0499 3B3B48D8 		.ascii	";;H\330)\226@6i\235\354\010\221\036\262\224#\026\362"
 295      29964036 
 295      699DEC08 
 295      911EB294 
 295      2316F2
 296 04ac 315BC147 		.ascii	"1[\301G{z\275<R\331V\204\345\241\255\327\343\006\262"
 296      7B7ABD3C 
 296      52D95684 
 296      E5A1ADD7 
ARM GAS  C:\Users\Bruger\AppData\Local\Temp\ccnPihjU.s 			page 23


 296      E306B2
 297 04bf AF8FFBC4 		.ascii	"\257\217\373\304\003\217\034\334\331i9\270;[C\037\211"
 297      038F1CDC 
 297      D96939B8 
 297      3B5B431F 
 297      89
 298 04d0 B9973C4B 		.ascii	"\271\227<K-\363\324\301BMx\207\205\012]jiNm\323\212"
 298      2DF3D4C1 
 298      424D7887 
 298      850A5D6A 
 298      694E6DD3 
 299 04e5 2BF84D8B 		.ascii	"+\370M\213G.Wp\335\370\352\235\260\202{a\004\036\330"
 299      472E5770 
 299      DDF8EA9D 
 299      B0827B61 
 299      041ED8
 300 04f8 1BFA90C8 		.ascii	"\033\372\220\310v\260\345\3205\017\207\014z\035\266"
 300      76B0E5D0 
 300      350F870C 
 300      7A1DB6
 301 0507 709F9441 		.ascii	"p\237\224A\037f\220\226~\270R\353\240]\345\220o\277"
 301      1F669096 
 301      7EB852EB 
 301      A05DE590 
 301      6FBF
 302 0519 A4DD8FDA 		.ascii	"\244\335\217\332\273K\177\255\241\016\332\254\254v\355"
 302      BB4B7FAD 
 302      A10EDAAC 
 302      AC76ED
 303 0528 01497B00 		.ascii	"\001I{\000\265\357eV\247*\035\264s\035\270\007%\355"
 303      B5EF6556 
 303      A72A1DB4 
 303      731DB807 
 303      25ED
 304 053a 41D43E78 		.ascii	"A\324>x\240\361w7\372\030k\251|0}o\322\215xk\375\274"
 304      A0F17737 
 304      FA186BA9 
 304      7C307D6F 
 304      D28D786B 
 305 0550 33050D19 		.ascii	"3\005\015\031&Z.\031?T\361i\263\266\314Ti\004\252\304"
 305      265A2E19 
 305      3F54F169 
 305      B3B6CC54 
 305      6904AAC4 
 306 0564 5E716408 		.ascii	"^qd\0108G\245\032\245@y\340)yL\250\375\374p\231\360"
 306      3847A51A 
 306      A54079E0 
 306      29794CA8 
 306      FDFC7099 
 307 0579 5C24627F 		.ascii	"\\$b\177\234\006\227\357\020\334\030\361\260Uw\014\343"
 307      9C0697EF 
 307      10DC18F1 
 307      B055770C 
 307      E3
 308 058a 4B492F1D 		.ascii	"KI/\035T\321q\205\303\327\325W\374\272v\035\236\316"
 308      54D17185 
 308      C3D7D557 
ARM GAS  C:\Users\Bruger\AppData\Local\Temp\ccnPihjU.s 			page 24


 308      FCBA761D 
 308      9ECE
 309 059c D6A2C8FE 		.ascii	"\326\242\310\376;\307a\356i\277s\301\215N\241\272\242"
 309      3BC761EE 
 309      69BF73C1 
 309      8D4EA1BA 
 309      A2
 310 05ad BC36FDA6 		.ascii	"\2746\375\246\216\370\351\360@>\317\325\303\031\237"
 310      8EF8E9F0 
 310      403ECFD5 
 310      C3199F
 311 05bc 84A63CB5 		.ascii	"\204\246<\265w\320Wj`\212= n&\032\362\0142\365\225\346"
 311      77D0576A 
 311      608A3D20 
 311      6E261AF2 
 311      0C32F595 
 312 05d1 E1093C9C 		.ascii	"\341\011<\234\020\247\375V\306\330\237\032q\342\336"
 312      10A7FD56 
 312      C6D89F1A 
 312      71E2DE
 313 05e0 D144B17B 		.ascii	"\321D\261{\252oLo\033\272\267\214\236;1\302\230\233"
 313      AA6F4C6F 
 313      1BBAB78C 
 313      9E3B31C2 
 313      989B
 314 05f2 0ADF8798 		.ascii	"\012\337\207\230\247!\346q{\314S\262\251;w\265\310\242"
 314      A721E671 
 314      7BCC53B2 
 314      A93B77B5 
 314      C8A2
 315 0604 7028E7B4 		.ascii	"p(\347\264\303\324\275\220z\315\356\363\276Yl\010^\303"
 315      C3D4BD90 
 315      7ACDEEF3 
 315      BE596C08 
 315      5EC3
 316 0616 6F3546C5 		.ascii	"o5F\305\360\206\250\310\215\341\233\026E\207\304\030"
 316      F086A8C8 
 316      8DE19B16 
 316      4587C418 
 317 0626 17F9AB57 		.ascii	"\027\371\253W\375\020\344c\340|V\361\221|L\210\221\017"
 317      FD10E463 
 317      E07C56F1 
 317      917C4C88 
 317      910F
 318 0638 0B0E8CDA 		.ascii	"\013\016\214\332\026\023\312\257\017\010\2142|\261\236"
 318      1613CAAF 
 318      0F088C32 
 318      7CB19E
 319 0647 99057CBF 		.ascii	"\231\005|\277(\224{\357-\002={\022\030\262]\022\265"
 319      28947BEF 
 319      2D023D7B 
 319      1218B25D 
 319      12B5
 320 0659 2846F07C 		.ascii	"(F\360|\264\216\375\3721d3\277-Z\265-<\322\270\314\327"
 320      B48EFDFA 
 320      316433BF 
 320      2D5AB52D 
ARM GAS  C:\Users\Bruger\AppData\Local\Temp\ccnPihjU.s 			page 25


 320      3CD2B8CC 
 321 066e 057968AC 		.ascii	"\005yh\25416\232\337\272\350'n\216!ve\244\221\2171\304"
 321      31369ADF 
 321      BAE8276E 
 321      8E217665 
 321      A4918F31 
 322 0683 841BC343 		.ascii	"\204\033\303CC\"\002\371PcxT\344G.\014\015\261\337\205"
 322      432202F9 
 322      50637854 
 322      E4472E0C 
 322      0DB1DF85 
 323 0697 6F00B30F 		.ascii	"o\000\263\017\300lG\270\361\015+\015Fb\214\212\376\320"
 323      C06C47B8 
 323      F10D2B0D 
 323      46628C8A 
 323      FED0
 324 06a9 7552608C 		.ascii	"uR`\214a\256\214\014\331\020\301cr+\2762\254\016\012"
 324      61AE8C0C 
 324      D910C163 
 324      722BBE32 
 324      AC0E0A
 325 06bc 080E5CBB 		.ascii	"\010\016\\\273&\310\260\326\235\307\027\201F\260V\356"
 325      26C8B0D6 
 325      9DC71781 
 325      46B056EE 
 326 06cc 08DDB889 		.ascii	"\010\335\270\211\002\224!aa1n\241\021\233\277\016\337"
 326      02942161 
 326      61316EA1 
 326      119BBF0E 
 326      DF
 327 06dd FE99745F 		.ascii	"\376\231t_\2144\033BB7o\213V\306\360\233\226\251\202"
 327      8C341B42 
 327      42376F8B 
 327      56C6F09B 
 327      96A982
 328 06f0 57444545 		.ascii	"WDEE\250\340\347\222\305j\226\376\222\305\377\002\202"
 328      A8E0E792 
 328      C56A96FE 
 328      92C5FF02 
 328      82
 329 0701 C8EF9E   		.ascii	"\310\357\236"
 330              		.text
 331              		.section	.gnu.lto_.symtab.24bfc868,"",%progbits
 332 0000 4932435F 		.ascii	"I2C_backup\000\000\000\000\000\000\000\000\000\000\000"
 332      6261636B 
 332      75700000 
 332      00000000 
 332      00000000 
 333 0015 00E20000 		.ascii	"\000\342\000\000\000I2C_RestoreConfig\000\000\000\000"
 333      00493243 
 333      5F526573 
 333      746F7265 
 333      436F6E66 
 334 002f 00000000 		.ascii	"\000\000\000\000\000\000\000\000\257\000\000\000I2C"
 334      00000000 
 334      AF000000 
 334      493243
ARM GAS  C:\Users\Bruger\AppData\Local\Temp\ccnPihjU.s 			page 26


 335 003e 5F536176 		.ascii	"_SaveConfig\000\000\000\000\000\000\000\000\000\000"
 335      65436F6E 
 335      66696700 
 335      00000000 
 335      00000000 
 336 0053 0000B100 		.ascii	"\000\000\261\000\000\000I2C_Sleep\000\000\000\000\000"
 336      00004932 
 336      435F536C 
 336      65657000 
 336      00000000 
 337 0067 00000000 		.ascii	"\000\000\000\000\000\000\000\263\000\000\000I2C_Wak"
 337      000000B3 
 337      00000049 
 337      32435F57 
 337      616B
 338 0079 65757000 		.ascii	"eup\000\000\000\000\000\000\000\000\000\000\000\000"
 338      00000000 
 338      00000000 
 338      000000
 339 0088 B5000000 		.ascii	"\265\000\000\000CyEnterCriticalSection\000\000\002\000"
 339      4379456E 
 339      74657243 
 339      72697469 
 339      63616C53 
 340 00a6 00000000 		.ascii	"\000\000\000\000\000\000\000\000\275\000\000\000CyE"
 340      00000000 
 340      BD000000 
 340      437945
 341 00b5 78697443 		.ascii	"xitCriticalSection\000\000\002\000\000\000\000\000\000"
 341      72697469 
 341      63616C53 
 341      65637469 
 341      6F6E0000 
 342 00d0 000000C1 		.ascii	"\000\000\000\301\000\000\000I2C_Stop\000\000\002\000"
 342      00000049 
 342      32435F53 
 342      746F7000 
 342      000200
 343 00e3 00000000 		.ascii	"\000\000\000\000\000\000\000\000\303\000\000\000I2C"
 343      00000000 
 343      C3000000 
 343      493243
 344 00f2 5F456E61 		.ascii	"_Enable\000\000\002\000\000\000\000\000\000\000\000"
 344      626C6500 
 344      00020000 
 344      00000000 
 344      0000
 345 0104 00C50000 		.ascii	"\000\305\000\000\000"
 345      00
 346              		.text
 347              		.section	.gnu.lto_.opts,"",%progbits
 348 0000 272D666E 		.ascii	"'-fno-trapv' '-mcpu=cortex-m3' '-mthumb' '-g' '-O3'"
 348      6F2D7472 
 348      61707627 
 348      20272D6D 
 348      6370753D 
 349 0033 20272D66 		.ascii	" '-ffunction-sections' '-finline-functions' '-flto'"
ARM GAS  C:\Users\Bruger\AppData\Local\Temp\ccnPihjU.s 			page 27


 349      66756E63 
 349      74696F6E 
 349      2D736563 
 349      74696F6E 
 350 0066 20272D66 		.ascii	" '-ffat-lto-objects'\000"
 350      6661742D 
 350      6C746F2D 
 350      6F626A65 
 350      63747327 
 351              		.text
 352              		.cfi_sections	.debug_frame
 353              		.section	.text.I2C_SaveConfig,"ax",%progbits
 354              		.align	2
 355              		.global	I2C_SaveConfig
 356              		.thumb
 357              		.thumb_func
 358              		.type	I2C_SaveConfig, %function
 359              	I2C_SaveConfig:
 360              	.LFB0:
 361              		.file 1 "Generated_Source\\PSoC5\\I2C_PM.c"
   1:Generated_Source\PSoC5/I2C_PM.c **** /*******************************************************************************
   2:Generated_Source\PSoC5/I2C_PM.c **** * File Name: I2C_PM.c
   3:Generated_Source\PSoC5/I2C_PM.c **** * Version 3.50
   4:Generated_Source\PSoC5/I2C_PM.c **** *
   5:Generated_Source\PSoC5/I2C_PM.c **** * Description:
   6:Generated_Source\PSoC5/I2C_PM.c **** *  This file provides low power mode APIs for the I2C component.
   7:Generated_Source\PSoC5/I2C_PM.c **** *
   8:Generated_Source\PSoC5/I2C_PM.c **** ********************************************************************************
   9:Generated_Source\PSoC5/I2C_PM.c **** * Copyright 2008-2015, Cypress Semiconductor Corporation. All rights reserved.
  10:Generated_Source\PSoC5/I2C_PM.c **** * You may use this file only in accordance with the license, terms, conditions,
  11:Generated_Source\PSoC5/I2C_PM.c **** * disclaimers, and limitations in the end user license agreement accompanying
  12:Generated_Source\PSoC5/I2C_PM.c **** * the software package with which this file was provided.
  13:Generated_Source\PSoC5/I2C_PM.c **** *******************************************************************************/
  14:Generated_Source\PSoC5/I2C_PM.c **** 
  15:Generated_Source\PSoC5/I2C_PM.c **** #include "I2C_PVT.h"
  16:Generated_Source\PSoC5/I2C_PM.c **** 
  17:Generated_Source\PSoC5/I2C_PM.c **** I2C_BACKUP_STRUCT I2C_backup =
  18:Generated_Source\PSoC5/I2C_PM.c **** {
  19:Generated_Source\PSoC5/I2C_PM.c ****     I2C_DISABLE,
  20:Generated_Source\PSoC5/I2C_PM.c **** 
  21:Generated_Source\PSoC5/I2C_PM.c **** #if (I2C_FF_IMPLEMENTED)
  22:Generated_Source\PSoC5/I2C_PM.c ****     I2C_DEFAULT_XCFG,
  23:Generated_Source\PSoC5/I2C_PM.c ****     I2C_DEFAULT_CFG,
  24:Generated_Source\PSoC5/I2C_PM.c ****     I2C_DEFAULT_ADDR,
  25:Generated_Source\PSoC5/I2C_PM.c ****     LO8(I2C_DEFAULT_DIVIDE_FACTOR),
  26:Generated_Source\PSoC5/I2C_PM.c ****     HI8(I2C_DEFAULT_DIVIDE_FACTOR),
  27:Generated_Source\PSoC5/I2C_PM.c **** #else  /* (I2C_UDB_IMPLEMENTED) */
  28:Generated_Source\PSoC5/I2C_PM.c ****     I2C_DEFAULT_CFG,
  29:Generated_Source\PSoC5/I2C_PM.c **** #endif /* (I2C_FF_IMPLEMENTED) */
  30:Generated_Source\PSoC5/I2C_PM.c **** 
  31:Generated_Source\PSoC5/I2C_PM.c **** #if (I2C_TIMEOUT_ENABLED)
  32:Generated_Source\PSoC5/I2C_PM.c ****     I2C_DEFAULT_TMOUT_PERIOD,
  33:Generated_Source\PSoC5/I2C_PM.c ****     I2C_DEFAULT_TMOUT_INTR_MASK,
  34:Generated_Source\PSoC5/I2C_PM.c **** #endif /* (I2C_TIMEOUT_ENABLED) */
  35:Generated_Source\PSoC5/I2C_PM.c **** };
  36:Generated_Source\PSoC5/I2C_PM.c **** 
  37:Generated_Source\PSoC5/I2C_PM.c **** #if ((I2C_FF_IMPLEMENTED) && (I2C_WAKEUP_ENABLED))
ARM GAS  C:\Users\Bruger\AppData\Local\Temp\ccnPihjU.s 			page 28


  38:Generated_Source\PSoC5/I2C_PM.c ****     volatile uint8 I2C_wakeupSource;
  39:Generated_Source\PSoC5/I2C_PM.c **** #endif /* ((I2C_FF_IMPLEMENTED) && (I2C_WAKEUP_ENABLED)) */
  40:Generated_Source\PSoC5/I2C_PM.c **** 
  41:Generated_Source\PSoC5/I2C_PM.c **** 
  42:Generated_Source\PSoC5/I2C_PM.c **** /*******************************************************************************
  43:Generated_Source\PSoC5/I2C_PM.c **** * Function Name: I2C_SaveConfig
  44:Generated_Source\PSoC5/I2C_PM.c **** ********************************************************************************
  45:Generated_Source\PSoC5/I2C_PM.c **** *
  46:Generated_Source\PSoC5/I2C_PM.c **** * Summary:
  47:Generated_Source\PSoC5/I2C_PM.c **** *  The Enable wakeup from Sleep Mode selection influences this function
  48:Generated_Source\PSoC5/I2C_PM.c **** *  implementation:
  49:Generated_Source\PSoC5/I2C_PM.c **** *   Unchecked: Stores the component non-retention configuration registers.
  50:Generated_Source\PSoC5/I2C_PM.c **** *   Checked:   Disables the master, if it was enabled before, and enables
  51:Generated_Source\PSoC5/I2C_PM.c **** *              backup regulator of the I2C hardware. If a transaction intended
  52:Generated_Source\PSoC5/I2C_PM.c **** *              for component executes during this function call, it waits until
  53:Generated_Source\PSoC5/I2C_PM.c **** *              the current transaction is completed and I2C hardware is ready
  54:Generated_Source\PSoC5/I2C_PM.c **** *              to enter sleep mode. All subsequent I2C traffic is NAKed until
  55:Generated_Source\PSoC5/I2C_PM.c **** *              the device is put into sleep mode.
  56:Generated_Source\PSoC5/I2C_PM.c **** *
  57:Generated_Source\PSoC5/I2C_PM.c **** * Parameters:
  58:Generated_Source\PSoC5/I2C_PM.c **** *  None.
  59:Generated_Source\PSoC5/I2C_PM.c **** *
  60:Generated_Source\PSoC5/I2C_PM.c **** * Return:
  61:Generated_Source\PSoC5/I2C_PM.c **** *  None.
  62:Generated_Source\PSoC5/I2C_PM.c **** *
  63:Generated_Source\PSoC5/I2C_PM.c **** * Global Variables:
  64:Generated_Source\PSoC5/I2C_PM.c **** *  I2C_backup - The global variable used to save the component
  65:Generated_Source\PSoC5/I2C_PM.c **** *                            configuration and non-retention registers before
  66:Generated_Source\PSoC5/I2C_PM.c **** *                            entering the sleep mode.
  67:Generated_Source\PSoC5/I2C_PM.c **** *
  68:Generated_Source\PSoC5/I2C_PM.c **** * Reentrant:
  69:Generated_Source\PSoC5/I2C_PM.c **** *  No.
  70:Generated_Source\PSoC5/I2C_PM.c **** *
  71:Generated_Source\PSoC5/I2C_PM.c **** *******************************************************************************/
  72:Generated_Source\PSoC5/I2C_PM.c **** void I2C_SaveConfig(void) 
  73:Generated_Source\PSoC5/I2C_PM.c **** {
 362              		.loc 1 73 0
 363              		.cfi_startproc
 364              		@ args = 0, pretend = 0, frame = 0
 365              		@ frame_needed = 0, uses_anonymous_args = 0
 366              		@ link register save eliminated.
 367 0000 30B4     		push	{r4, r5}
 368              		.cfi_def_cfa_offset 8
 369              		.cfi_offset 4, -8
 370              		.cfi_offset 5, -4
  74:Generated_Source\PSoC5/I2C_PM.c **** #if (I2C_FF_IMPLEMENTED)
  75:Generated_Source\PSoC5/I2C_PM.c ****     #if (I2C_WAKEUP_ENABLED)
  76:Generated_Source\PSoC5/I2C_PM.c ****         uint8 intState;
  77:Generated_Source\PSoC5/I2C_PM.c ****     #endif /* (I2C_WAKEUP_ENABLED) */
  78:Generated_Source\PSoC5/I2C_PM.c **** 
  79:Generated_Source\PSoC5/I2C_PM.c ****     /* Store registers before enter low power mode */
  80:Generated_Source\PSoC5/I2C_PM.c ****     I2C_backup.cfg     = I2C_CFG_REG;
 371              		.loc 1 80 0
 372 0002 094B     		ldr	r3, .L3
  81:Generated_Source\PSoC5/I2C_PM.c ****     I2C_backup.xcfg    = I2C_XCFG_REG;
 373              		.loc 1 81 0
 374 0004 094C     		ldr	r4, .L3+4
ARM GAS  C:\Users\Bruger\AppData\Local\Temp\ccnPihjU.s 			page 29


  82:Generated_Source\PSoC5/I2C_PM.c ****     I2C_backup.addr    = I2C_ADDR_REG;
 375              		.loc 1 82 0
 376 0006 0A48     		ldr	r0, .L3+8
  83:Generated_Source\PSoC5/I2C_PM.c ****     I2C_backup.clkDiv1 = I2C_CLKDIV1_REG;
 377              		.loc 1 83 0
 378 0008 0A49     		ldr	r1, .L3+12
  84:Generated_Source\PSoC5/I2C_PM.c ****     I2C_backup.clkDiv2 = I2C_CLKDIV2_REG;
 379              		.loc 1 84 0
 380 000a 0B4A     		ldr	r2, .L3+16
  80:Generated_Source\PSoC5/I2C_PM.c ****     I2C_backup.xcfg    = I2C_XCFG_REG;
 381              		.loc 1 80 0
 382 000c 1D78     		ldrb	r5, [r3]	@ zero_extendqisi2
  81:Generated_Source\PSoC5/I2C_PM.c ****     I2C_backup.addr    = I2C_ADDR_REG;
 383              		.loc 1 81 0
 384 000e 2478     		ldrb	r4, [r4]	@ zero_extendqisi2
  80:Generated_Source\PSoC5/I2C_PM.c ****     I2C_backup.xcfg    = I2C_XCFG_REG;
 385              		.loc 1 80 0
 386 0010 0A4B     		ldr	r3, .L3+20
  82:Generated_Source\PSoC5/I2C_PM.c ****     I2C_backup.clkDiv1 = I2C_CLKDIV1_REG;
 387              		.loc 1 82 0
 388 0012 0078     		ldrb	r0, [r0]	@ zero_extendqisi2
  83:Generated_Source\PSoC5/I2C_PM.c ****     I2C_backup.clkDiv2 = I2C_CLKDIV2_REG;
 389              		.loc 1 83 0
 390 0014 0978     		ldrb	r1, [r1]	@ zero_extendqisi2
 391              		.loc 1 84 0
 392 0016 1278     		ldrb	r2, [r2]	@ zero_extendqisi2
  80:Generated_Source\PSoC5/I2C_PM.c ****     I2C_backup.xcfg    = I2C_XCFG_REG;
 393              		.loc 1 80 0
 394 0018 9D70     		strb	r5, [r3, #2]
  81:Generated_Source\PSoC5/I2C_PM.c ****     I2C_backup.addr    = I2C_ADDR_REG;
 395              		.loc 1 81 0
 396 001a 5C70     		strb	r4, [r3, #1]
  82:Generated_Source\PSoC5/I2C_PM.c ****     I2C_backup.clkDiv1 = I2C_CLKDIV1_REG;
 397              		.loc 1 82 0
 398 001c D870     		strb	r0, [r3, #3]
  83:Generated_Source\PSoC5/I2C_PM.c ****     I2C_backup.clkDiv2 = I2C_CLKDIV2_REG;
 399              		.loc 1 83 0
 400 001e 1971     		strb	r1, [r3, #4]
 401              		.loc 1 84 0
 402 0020 5A71     		strb	r2, [r3, #5]
  85:Generated_Source\PSoC5/I2C_PM.c **** 
  86:Generated_Source\PSoC5/I2C_PM.c **** #if (I2C_WAKEUP_ENABLED)
  87:Generated_Source\PSoC5/I2C_PM.c ****     /* Disable master */
  88:Generated_Source\PSoC5/I2C_PM.c ****     I2C_CFG_REG &= (uint8) ~I2C_ENABLE_MASTER;
  89:Generated_Source\PSoC5/I2C_PM.c **** 
  90:Generated_Source\PSoC5/I2C_PM.c ****     /* Enable backup regulator to keep block powered in low power mode */
  91:Generated_Source\PSoC5/I2C_PM.c ****     intState = CyEnterCriticalSection();
  92:Generated_Source\PSoC5/I2C_PM.c ****     I2C_PWRSYS_CR1_REG |= I2C_PWRSYS_CR1_I2C_REG_BACKUP;
  93:Generated_Source\PSoC5/I2C_PM.c ****     CyExitCriticalSection(intState);
  94:Generated_Source\PSoC5/I2C_PM.c **** 
  95:Generated_Source\PSoC5/I2C_PM.c ****     /* 1) Set force NACK to ignore I2C transactions;
  96:Generated_Source\PSoC5/I2C_PM.c ****     *  2) Wait unti I2C is ready go to Sleep; !!
  97:Generated_Source\PSoC5/I2C_PM.c ****     *  3) These bits are cleared on wake up.
  98:Generated_Source\PSoC5/I2C_PM.c ****     */
  99:Generated_Source\PSoC5/I2C_PM.c ****     /* Wait when block is ready for sleep */
 100:Generated_Source\PSoC5/I2C_PM.c ****     I2C_XCFG_REG |= I2C_XCFG_FORCE_NACK;
 101:Generated_Source\PSoC5/I2C_PM.c ****     while (0u == (I2C_XCFG_REG & I2C_XCFG_RDY_TO_SLEEP))
ARM GAS  C:\Users\Bruger\AppData\Local\Temp\ccnPihjU.s 			page 30


 102:Generated_Source\PSoC5/I2C_PM.c ****     {
 103:Generated_Source\PSoC5/I2C_PM.c ****     }
 104:Generated_Source\PSoC5/I2C_PM.c **** 
 105:Generated_Source\PSoC5/I2C_PM.c ****     /* Setup wakeup interrupt */
 106:Generated_Source\PSoC5/I2C_PM.c ****     I2C_DisableInt();
 107:Generated_Source\PSoC5/I2C_PM.c ****     (void) CyIntSetVector(I2C_ISR_NUMBER, &I2C_WAKEUP_ISR);
 108:Generated_Source\PSoC5/I2C_PM.c ****     I2C_wakeupSource = 0u;
 109:Generated_Source\PSoC5/I2C_PM.c ****     I2C_EnableInt();
 110:Generated_Source\PSoC5/I2C_PM.c **** #endif /* (I2C_WAKEUP_ENABLED) */
 111:Generated_Source\PSoC5/I2C_PM.c **** 
 112:Generated_Source\PSoC5/I2C_PM.c **** #else
 113:Generated_Source\PSoC5/I2C_PM.c ****     /* Store only address match bit */
 114:Generated_Source\PSoC5/I2C_PM.c ****     I2C_backup.control = (I2C_CFG_REG & I2C_CTRL_ANY_ADDRESS_MASK);
 115:Generated_Source\PSoC5/I2C_PM.c **** #endif /* (I2C_FF_IMPLEMENTED) */
 116:Generated_Source\PSoC5/I2C_PM.c **** 
 117:Generated_Source\PSoC5/I2C_PM.c **** #if (I2C_TIMEOUT_ENABLED)
 118:Generated_Source\PSoC5/I2C_PM.c ****     I2C_TimeoutSaveConfig();
 119:Generated_Source\PSoC5/I2C_PM.c **** #endif /* (I2C_TIMEOUT_ENABLED) */
 120:Generated_Source\PSoC5/I2C_PM.c **** }
 403              		.loc 1 120 0
 404 0022 30BC     		pop	{r4, r5}
 405              		.cfi_restore 5
 406              		.cfi_restore 4
 407              		.cfi_def_cfa_offset 0
 408 0024 7047     		bx	lr
 409              	.L4:
 410 0026 00BF     		.align	2
 411              	.L3:
 412 0028 D6490040 		.word	1073760726
 413 002c C8490040 		.word	1073760712
 414 0030 CA490040 		.word	1073760714
 415 0034 DB490040 		.word	1073760731
 416 0038 DC490040 		.word	1073760732
 417 003c 00000000 		.word	.LANCHOR0
 418              		.cfi_endproc
 419              	.LFE0:
 420              		.size	I2C_SaveConfig, .-I2C_SaveConfig
 421              		.section	.text.I2C_Sleep,"ax",%progbits
 422              		.align	2
 423              		.global	I2C_Sleep
 424              		.thumb
 425              		.thumb_func
 426              		.type	I2C_Sleep, %function
 427              	I2C_Sleep:
 428              	.LFB1:
 121:Generated_Source\PSoC5/I2C_PM.c **** 
 122:Generated_Source\PSoC5/I2C_PM.c **** 
 123:Generated_Source\PSoC5/I2C_PM.c **** /*******************************************************************************
 124:Generated_Source\PSoC5/I2C_PM.c **** * Function Name: I2C_Sleep
 125:Generated_Source\PSoC5/I2C_PM.c **** ********************************************************************************
 126:Generated_Source\PSoC5/I2C_PM.c **** *
 127:Generated_Source\PSoC5/I2C_PM.c **** * Summary:
 128:Generated_Source\PSoC5/I2C_PM.c **** *  This is the preferred method to prepare the component before device enters
 129:Generated_Source\PSoC5/I2C_PM.c **** *  sleep mode. The Enable wakeup from Sleep Mode selection influences this
 130:Generated_Source\PSoC5/I2C_PM.c **** *  function implementation:
 131:Generated_Source\PSoC5/I2C_PM.c **** *   Unchecked: Checks current I2C component state, saves it, and disables the
 132:Generated_Source\PSoC5/I2C_PM.c **** *              component by calling I2C_Stop() if it is currently enabled.
ARM GAS  C:\Users\Bruger\AppData\Local\Temp\ccnPihjU.s 			page 31


 133:Generated_Source\PSoC5/I2C_PM.c **** *              I2C_SaveConfig() is then called to save the component
 134:Generated_Source\PSoC5/I2C_PM.c **** *              non-retention configuration registers.
 135:Generated_Source\PSoC5/I2C_PM.c **** *   Checked:   If a transaction intended for component executes during this
 136:Generated_Source\PSoC5/I2C_PM.c **** *              function call, it waits until the current transaction is
 137:Generated_Source\PSoC5/I2C_PM.c **** *              completed. All subsequent I2C traffic intended for component
 138:Generated_Source\PSoC5/I2C_PM.c **** *              is NAKed until the device is put to sleep mode. The address
 139:Generated_Source\PSoC5/I2C_PM.c **** *              match event wakes up the device.
 140:Generated_Source\PSoC5/I2C_PM.c **** *
 141:Generated_Source\PSoC5/I2C_PM.c **** * Parameters:
 142:Generated_Source\PSoC5/I2C_PM.c **** *  None.
 143:Generated_Source\PSoC5/I2C_PM.c **** *
 144:Generated_Source\PSoC5/I2C_PM.c **** * Return:
 145:Generated_Source\PSoC5/I2C_PM.c **** *  None.
 146:Generated_Source\PSoC5/I2C_PM.c **** *
 147:Generated_Source\PSoC5/I2C_PM.c **** * Reentrant:
 148:Generated_Source\PSoC5/I2C_PM.c **** *  No.
 149:Generated_Source\PSoC5/I2C_PM.c **** *
 150:Generated_Source\PSoC5/I2C_PM.c **** *******************************************************************************/
 151:Generated_Source\PSoC5/I2C_PM.c **** void I2C_Sleep(void) 
 152:Generated_Source\PSoC5/I2C_PM.c **** {
 429              		.loc 1 152 0
 430              		.cfi_startproc
 431              		@ args = 0, pretend = 0, frame = 0
 432              		@ frame_needed = 0, uses_anonymous_args = 0
 433 0000 38B5     		push	{r3, r4, r5, lr}
 434              		.cfi_def_cfa_offset 16
 435              		.cfi_offset 3, -16
 436              		.cfi_offset 4, -12
 437              		.cfi_offset 5, -8
 438              		.cfi_offset 14, -4
 153:Generated_Source\PSoC5/I2C_PM.c **** #if (I2C_WAKEUP_ENABLED)
 154:Generated_Source\PSoC5/I2C_PM.c ****     /* Do not enable block after exit low power mode if it is wakeup source */
 155:Generated_Source\PSoC5/I2C_PM.c ****     I2C_backup.enableState = I2C_DISABLE;
 156:Generated_Source\PSoC5/I2C_PM.c **** 
 157:Generated_Source\PSoC5/I2C_PM.c ****     #if (I2C_TIMEOUT_ENABLED)
 158:Generated_Source\PSoC5/I2C_PM.c ****         I2C_TimeoutStop();
 159:Generated_Source\PSoC5/I2C_PM.c ****     #endif /* (I2C_TIMEOUT_ENABLED) */
 160:Generated_Source\PSoC5/I2C_PM.c **** 
 161:Generated_Source\PSoC5/I2C_PM.c **** #else
 162:Generated_Source\PSoC5/I2C_PM.c ****     /* Store enable state */
 163:Generated_Source\PSoC5/I2C_PM.c ****     I2C_backup.enableState = (uint8) I2C_IS_ENABLED;
 439              		.loc 1 163 0
 440 0002 0C4B     		ldr	r3, .L12
 441 0004 0C4C     		ldr	r4, .L12+4
 442 0006 1B78     		ldrb	r3, [r3]	@ zero_extendqisi2
 443 0008 C3F38003 		ubfx	r3, r3, #2, #1
 444 000c 2370     		strb	r3, [r4]
 164:Generated_Source\PSoC5/I2C_PM.c **** 
 165:Generated_Source\PSoC5/I2C_PM.c ****     if (0u != I2C_backup.enableState)
 445              		.loc 1 165 0
 446 000e 0BB1     		cbz	r3, .L6
 166:Generated_Source\PSoC5/I2C_PM.c ****     {
 167:Generated_Source\PSoC5/I2C_PM.c ****         I2C_Stop();
 447              		.loc 1 167 0
 448 0010 FFF7FEFF 		bl	I2C_Stop
 449              	.LVL0:
 450              	.L6:
ARM GAS  C:\Users\Bruger\AppData\Local\Temp\ccnPihjU.s 			page 32


 451              	.LBB4:
 452              	.LBB5:
  80:Generated_Source\PSoC5/I2C_PM.c ****     I2C_backup.xcfg    = I2C_XCFG_REG;
 453              		.loc 1 80 0
 454 0014 094D     		ldr	r5, .L12+8
  81:Generated_Source\PSoC5/I2C_PM.c ****     I2C_backup.addr    = I2C_ADDR_REG;
 455              		.loc 1 81 0
 456 0016 0A48     		ldr	r0, .L12+12
  82:Generated_Source\PSoC5/I2C_PM.c ****     I2C_backup.clkDiv1 = I2C_CLKDIV1_REG;
 457              		.loc 1 82 0
 458 0018 0A49     		ldr	r1, .L12+16
  83:Generated_Source\PSoC5/I2C_PM.c ****     I2C_backup.clkDiv2 = I2C_CLKDIV2_REG;
 459              		.loc 1 83 0
 460 001a 0B4A     		ldr	r2, .L12+20
  84:Generated_Source\PSoC5/I2C_PM.c **** 
 461              		.loc 1 84 0
 462 001c 0B4B     		ldr	r3, .L12+24
  80:Generated_Source\PSoC5/I2C_PM.c ****     I2C_backup.xcfg    = I2C_XCFG_REG;
 463              		.loc 1 80 0
 464 001e 2D78     		ldrb	r5, [r5]	@ zero_extendqisi2
  81:Generated_Source\PSoC5/I2C_PM.c ****     I2C_backup.addr    = I2C_ADDR_REG;
 465              		.loc 1 81 0
 466 0020 0078     		ldrb	r0, [r0]	@ zero_extendqisi2
  82:Generated_Source\PSoC5/I2C_PM.c ****     I2C_backup.clkDiv1 = I2C_CLKDIV1_REG;
 467              		.loc 1 82 0
 468 0022 0978     		ldrb	r1, [r1]	@ zero_extendqisi2
  83:Generated_Source\PSoC5/I2C_PM.c ****     I2C_backup.clkDiv2 = I2C_CLKDIV2_REG;
 469              		.loc 1 83 0
 470 0024 1278     		ldrb	r2, [r2]	@ zero_extendqisi2
  84:Generated_Source\PSoC5/I2C_PM.c **** 
 471              		.loc 1 84 0
 472 0026 1B78     		ldrb	r3, [r3]	@ zero_extendqisi2
  80:Generated_Source\PSoC5/I2C_PM.c ****     I2C_backup.xcfg    = I2C_XCFG_REG;
 473              		.loc 1 80 0
 474 0028 A570     		strb	r5, [r4, #2]
  81:Generated_Source\PSoC5/I2C_PM.c ****     I2C_backup.addr    = I2C_ADDR_REG;
 475              		.loc 1 81 0
 476 002a 6070     		strb	r0, [r4, #1]
  82:Generated_Source\PSoC5/I2C_PM.c ****     I2C_backup.clkDiv1 = I2C_CLKDIV1_REG;
 477              		.loc 1 82 0
 478 002c E170     		strb	r1, [r4, #3]
  83:Generated_Source\PSoC5/I2C_PM.c ****     I2C_backup.clkDiv2 = I2C_CLKDIV2_REG;
 479              		.loc 1 83 0
 480 002e 2271     		strb	r2, [r4, #4]
  84:Generated_Source\PSoC5/I2C_PM.c **** 
 481              		.loc 1 84 0
 482 0030 6371     		strb	r3, [r4, #5]
 483 0032 38BD     		pop	{r3, r4, r5, pc}
 484              	.L13:
 485              		.align	2
 486              	.L12:
 487 0034 A5430040 		.word	1073759141
 488 0038 00000000 		.word	.LANCHOR0
 489 003c D6490040 		.word	1073760726
 490 0040 C8490040 		.word	1073760712
 491 0044 CA490040 		.word	1073760714
 492 0048 DB490040 		.word	1073760731
ARM GAS  C:\Users\Bruger\AppData\Local\Temp\ccnPihjU.s 			page 33


 493 004c DC490040 		.word	1073760732
 494              	.LBE5:
 495              	.LBE4:
 496              		.cfi_endproc
 497              	.LFE1:
 498              		.size	I2C_Sleep, .-I2C_Sleep
 499              		.section	.text.I2C_RestoreConfig,"ax",%progbits
 500              		.align	2
 501              		.global	I2C_RestoreConfig
 502              		.thumb
 503              		.thumb_func
 504              		.type	I2C_RestoreConfig, %function
 505              	I2C_RestoreConfig:
 506              	.LFB2:
 168:Generated_Source\PSoC5/I2C_PM.c ****     }
 169:Generated_Source\PSoC5/I2C_PM.c **** #endif /* (I2C_WAKEUP_ENABLED) */
 170:Generated_Source\PSoC5/I2C_PM.c **** 
 171:Generated_Source\PSoC5/I2C_PM.c ****     I2C_SaveConfig();
 172:Generated_Source\PSoC5/I2C_PM.c **** }
 173:Generated_Source\PSoC5/I2C_PM.c **** 
 174:Generated_Source\PSoC5/I2C_PM.c **** 
 175:Generated_Source\PSoC5/I2C_PM.c **** /*******************************************************************************
 176:Generated_Source\PSoC5/I2C_PM.c **** * Function Name: I2C_RestoreConfig
 177:Generated_Source\PSoC5/I2C_PM.c **** ********************************************************************************
 178:Generated_Source\PSoC5/I2C_PM.c **** *
 179:Generated_Source\PSoC5/I2C_PM.c **** * Summary:
 180:Generated_Source\PSoC5/I2C_PM.c **** *  The Enable wakeup from Sleep Mode selection influences this function
 181:Generated_Source\PSoC5/I2C_PM.c **** *  implementation:
 182:Generated_Source\PSoC5/I2C_PM.c **** *   Unchecked: Restores the component non-retention configuration registers
 183:Generated_Source\PSoC5/I2C_PM.c **** *              to the state they were in before I2C_Sleep() or I2C_SaveConfig()
 184:Generated_Source\PSoC5/I2C_PM.c **** *              was called.
 185:Generated_Source\PSoC5/I2C_PM.c **** *   Checked:   Disables the backup regulator of the I2C hardware. Sets up the
 186:Generated_Source\PSoC5/I2C_PM.c **** *              regular component interrupt handler and generates the component
 187:Generated_Source\PSoC5/I2C_PM.c **** *              interrupt if it was wake up source to release the bus and
 188:Generated_Source\PSoC5/I2C_PM.c **** *              continue in-coming I2C transaction.
 189:Generated_Source\PSoC5/I2C_PM.c **** *
 190:Generated_Source\PSoC5/I2C_PM.c **** * Parameters:
 191:Generated_Source\PSoC5/I2C_PM.c **** *  None.
 192:Generated_Source\PSoC5/I2C_PM.c **** *
 193:Generated_Source\PSoC5/I2C_PM.c **** * Return:
 194:Generated_Source\PSoC5/I2C_PM.c **** *  None.
 195:Generated_Source\PSoC5/I2C_PM.c **** *
 196:Generated_Source\PSoC5/I2C_PM.c **** * Global Variables:
 197:Generated_Source\PSoC5/I2C_PM.c **** *  I2C_backup - The global variable used to save the component
 198:Generated_Source\PSoC5/I2C_PM.c **** *                            configuration and non-retention registers before
 199:Generated_Source\PSoC5/I2C_PM.c **** *                            exiting the sleep mode.
 200:Generated_Source\PSoC5/I2C_PM.c **** *
 201:Generated_Source\PSoC5/I2C_PM.c **** * Reentrant:
 202:Generated_Source\PSoC5/I2C_PM.c **** *  No.
 203:Generated_Source\PSoC5/I2C_PM.c **** *
 204:Generated_Source\PSoC5/I2C_PM.c **** * Side Effects:
 205:Generated_Source\PSoC5/I2C_PM.c **** *  Calling this function before I2C_SaveConfig() or
 206:Generated_Source\PSoC5/I2C_PM.c **** *  I2C_Sleep() will lead to unpredictable results.
 207:Generated_Source\PSoC5/I2C_PM.c **** *
 208:Generated_Source\PSoC5/I2C_PM.c **** *******************************************************************************/
 209:Generated_Source\PSoC5/I2C_PM.c **** void I2C_RestoreConfig(void) 
 210:Generated_Source\PSoC5/I2C_PM.c **** {
ARM GAS  C:\Users\Bruger\AppData\Local\Temp\ccnPihjU.s 			page 34


 507              		.loc 1 210 0
 508              		.cfi_startproc
 509              		@ args = 0, pretend = 0, frame = 0
 510              		@ frame_needed = 0, uses_anonymous_args = 0
 511 0000 F8B5     		push	{r3, r4, r5, r6, r7, lr}
 512              		.cfi_def_cfa_offset 24
 513              		.cfi_offset 3, -24
 514              		.cfi_offset 4, -20
 515              		.cfi_offset 5, -16
 516              		.cfi_offset 6, -12
 517              		.cfi_offset 7, -8
 518              		.cfi_offset 14, -4
 211:Generated_Source\PSoC5/I2C_PM.c **** #if (I2C_FF_IMPLEMENTED)
 212:Generated_Source\PSoC5/I2C_PM.c ****     uint8 intState;
 213:Generated_Source\PSoC5/I2C_PM.c **** 
 214:Generated_Source\PSoC5/I2C_PM.c ****     if (I2C_CHECK_PWRSYS_I2C_BACKUP)
 519              		.loc 1 214 0
 520 0002 124C     		ldr	r4, .L19
 521 0004 2378     		ldrb	r3, [r4]	@ zero_extendqisi2
 522 0006 5B07     		lsls	r3, r3, #29
 523 0008 13D4     		bmi	.L18
 215:Generated_Source\PSoC5/I2C_PM.c ****     /* Low power mode was Sleep - backup regulator is enabled */
 216:Generated_Source\PSoC5/I2C_PM.c ****     {
 217:Generated_Source\PSoC5/I2C_PM.c ****         /* Enable backup regulator in active mode */
 218:Generated_Source\PSoC5/I2C_PM.c ****         intState = CyEnterCriticalSection();
 219:Generated_Source\PSoC5/I2C_PM.c ****         I2C_PWRSYS_CR1_REG &= (uint8) ~I2C_PWRSYS_CR1_I2C_REG_BACKUP;
 220:Generated_Source\PSoC5/I2C_PM.c ****         CyExitCriticalSection(intState);
 221:Generated_Source\PSoC5/I2C_PM.c **** 
 222:Generated_Source\PSoC5/I2C_PM.c ****         /* Restore master */
 223:Generated_Source\PSoC5/I2C_PM.c ****         I2C_CFG_REG = I2C_backup.cfg;
 224:Generated_Source\PSoC5/I2C_PM.c ****     }
 225:Generated_Source\PSoC5/I2C_PM.c ****     else
 226:Generated_Source\PSoC5/I2C_PM.c ****     /* Low power mode was Hibernate - backup regulator is disabled. All registers are cleared */
 227:Generated_Source\PSoC5/I2C_PM.c ****     {
 228:Generated_Source\PSoC5/I2C_PM.c ****     #if (I2C_WAKEUP_ENABLED)
 229:Generated_Source\PSoC5/I2C_PM.c ****         /* Disable power to block before register restore */
 230:Generated_Source\PSoC5/I2C_PM.c ****         intState = CyEnterCriticalSection();
 231:Generated_Source\PSoC5/I2C_PM.c ****         I2C_ACT_PWRMGR_REG  &= (uint8) ~I2C_ACT_PWR_EN;
 232:Generated_Source\PSoC5/I2C_PM.c ****         I2C_STBY_PWRMGR_REG &= (uint8) ~I2C_STBY_PWR_EN;
 233:Generated_Source\PSoC5/I2C_PM.c ****         CyExitCriticalSection(intState);
 234:Generated_Source\PSoC5/I2C_PM.c **** 
 235:Generated_Source\PSoC5/I2C_PM.c ****         /* Enable component in I2C_Wakeup() after register restore */
 236:Generated_Source\PSoC5/I2C_PM.c ****         I2C_backup.enableState = I2C_ENABLE;
 237:Generated_Source\PSoC5/I2C_PM.c ****     #endif /* (I2C_WAKEUP_ENABLED) */
 238:Generated_Source\PSoC5/I2C_PM.c **** 
 239:Generated_Source\PSoC5/I2C_PM.c ****         /* Restore component registers after Hibernate */
 240:Generated_Source\PSoC5/I2C_PM.c ****         I2C_XCFG_REG    = I2C_backup.xcfg;
 524              		.loc 1 240 0
 525 000a 114B     		ldr	r3, .L19+4
 526 000c DFF854E0 		ldr	lr, .L19+24
 241:Generated_Source\PSoC5/I2C_PM.c ****         I2C_CFG_REG     = I2C_backup.cfg;
 242:Generated_Source\PSoC5/I2C_PM.c ****         I2C_ADDR_REG    = I2C_backup.addr;
 243:Generated_Source\PSoC5/I2C_PM.c ****         I2C_CLKDIV1_REG = I2C_backup.clkDiv1;
 244:Generated_Source\PSoC5/I2C_PM.c ****         I2C_CLKDIV2_REG = I2C_backup.clkDiv2;
 527              		.loc 1 244 0
 528 0010 5A79     		ldrb	r2, [r3, #5]	@ zero_extendqisi2
 240:Generated_Source\PSoC5/I2C_PM.c ****         I2C_CFG_REG     = I2C_backup.cfg;
ARM GAS  C:\Users\Bruger\AppData\Local\Temp\ccnPihjU.s 			page 35


 529              		.loc 1 240 0
 530 0012 93F801C0 		ldrb	ip, [r3, #1]	@ zero_extendqisi2
 241:Generated_Source\PSoC5/I2C_PM.c ****         I2C_CFG_REG     = I2C_backup.cfg;
 531              		.loc 1 241 0
 532 0016 9F78     		ldrb	r7, [r3, #2]	@ zero_extendqisi2
 242:Generated_Source\PSoC5/I2C_PM.c ****         I2C_CLKDIV1_REG = I2C_backup.clkDiv1;
 533              		.loc 1 242 0
 534 0018 DD78     		ldrb	r5, [r3, #3]	@ zero_extendqisi2
 243:Generated_Source\PSoC5/I2C_PM.c ****         I2C_CLKDIV2_REG = I2C_backup.clkDiv2;
 535              		.loc 1 243 0
 536 001a 1879     		ldrb	r0, [r3, #4]	@ zero_extendqisi2
 241:Generated_Source\PSoC5/I2C_PM.c ****         I2C_ADDR_REG    = I2C_backup.addr;
 537              		.loc 1 241 0
 538 001c 0D4E     		ldr	r6, .L19+8
 242:Generated_Source\PSoC5/I2C_PM.c ****         I2C_CLKDIV1_REG = I2C_backup.clkDiv1;
 539              		.loc 1 242 0
 540 001e 0E4C     		ldr	r4, .L19+12
 243:Generated_Source\PSoC5/I2C_PM.c ****         I2C_CLKDIV2_REG = I2C_backup.clkDiv2;
 541              		.loc 1 243 0
 542 0020 0E49     		ldr	r1, .L19+16
 543              		.loc 1 244 0
 544 0022 0F4B     		ldr	r3, .L19+20
 240:Generated_Source\PSoC5/I2C_PM.c ****         I2C_CFG_REG     = I2C_backup.cfg;
 545              		.loc 1 240 0
 546 0024 8EF800C0 		strb	ip, [lr]
 241:Generated_Source\PSoC5/I2C_PM.c ****         I2C_ADDR_REG    = I2C_backup.addr;
 547              		.loc 1 241 0
 548 0028 3770     		strb	r7, [r6]
 242:Generated_Source\PSoC5/I2C_PM.c ****         I2C_CLKDIV1_REG = I2C_backup.clkDiv1;
 549              		.loc 1 242 0
 550 002a 2570     		strb	r5, [r4]
 243:Generated_Source\PSoC5/I2C_PM.c ****         I2C_CLKDIV2_REG = I2C_backup.clkDiv2;
 551              		.loc 1 243 0
 552 002c 0870     		strb	r0, [r1]
 553              		.loc 1 244 0
 554 002e 1A70     		strb	r2, [r3]
 555 0030 F8BD     		pop	{r3, r4, r5, r6, r7, pc}
 556              	.L18:
 557              	.LBB8:
 558              	.LBB9:
 218:Generated_Source\PSoC5/I2C_PM.c ****         I2C_PWRSYS_CR1_REG &= (uint8) ~I2C_PWRSYS_CR1_I2C_REG_BACKUP;
 559              		.loc 1 218 0
 560 0032 FFF7FEFF 		bl	CyEnterCriticalSection
 561              	.LVL1:
 219:Generated_Source\PSoC5/I2C_PM.c ****         CyExitCriticalSection(intState);
 562              		.loc 1 219 0
 563 0036 2378     		ldrb	r3, [r4]	@ zero_extendqisi2
 564 0038 03F0FB03 		and	r3, r3, #251
 565 003c 2370     		strb	r3, [r4]
 220:Generated_Source\PSoC5/I2C_PM.c **** 
 566              		.loc 1 220 0
 567 003e FFF7FEFF 		bl	CyExitCriticalSection
 568              	.LVL2:
 223:Generated_Source\PSoC5/I2C_PM.c ****     }
 569              		.loc 1 223 0
 570 0042 034A     		ldr	r2, .L19+4
 571 0044 034B     		ldr	r3, .L19+8
ARM GAS  C:\Users\Bruger\AppData\Local\Temp\ccnPihjU.s 			page 36


 572 0046 9278     		ldrb	r2, [r2, #2]	@ zero_extendqisi2
 573 0048 1A70     		strb	r2, [r3]
 574 004a F8BD     		pop	{r3, r4, r5, r6, r7, pc}
 575              	.L20:
 576              		.align	2
 577              	.L19:
 578 004c 31430040 		.word	1073759025
 579 0050 00000000 		.word	.LANCHOR0
 580 0054 D6490040 		.word	1073760726
 581 0058 CA490040 		.word	1073760714
 582 005c DB490040 		.word	1073760731
 583 0060 DC490040 		.word	1073760732
 584 0064 C8490040 		.word	1073760712
 585              	.LBE9:
 586              	.LBE8:
 587              		.cfi_endproc
 588              	.LFE2:
 589              		.size	I2C_RestoreConfig, .-I2C_RestoreConfig
 590              		.section	.text.I2C_Wakeup,"ax",%progbits
 591              		.align	2
 592              		.global	I2C_Wakeup
 593              		.thumb
 594              		.thumb_func
 595              		.type	I2C_Wakeup, %function
 596              	I2C_Wakeup:
 597              	.LFB3:
 245:Generated_Source\PSoC5/I2C_PM.c ****     }
 246:Generated_Source\PSoC5/I2C_PM.c **** 
 247:Generated_Source\PSoC5/I2C_PM.c **** #if (I2C_WAKEUP_ENABLED)
 248:Generated_Source\PSoC5/I2C_PM.c ****     I2C_DisableInt();
 249:Generated_Source\PSoC5/I2C_PM.c ****     (void) CyIntSetVector(I2C_ISR_NUMBER, &I2C_ISR);
 250:Generated_Source\PSoC5/I2C_PM.c ****     if (0u != I2C_wakeupSource)
 251:Generated_Source\PSoC5/I2C_PM.c ****     {
 252:Generated_Source\PSoC5/I2C_PM.c ****         /* Generate interrupt to process incoming transaction */
 253:Generated_Source\PSoC5/I2C_PM.c ****         I2C_SetPendingInt();
 254:Generated_Source\PSoC5/I2C_PM.c ****     }
 255:Generated_Source\PSoC5/I2C_PM.c ****     I2C_EnableInt();
 256:Generated_Source\PSoC5/I2C_PM.c **** #endif /* (I2C_WAKEUP_ENABLED) */
 257:Generated_Source\PSoC5/I2C_PM.c **** 
 258:Generated_Source\PSoC5/I2C_PM.c **** #else
 259:Generated_Source\PSoC5/I2C_PM.c ****     I2C_CFG_REG = I2C_backup.control;
 260:Generated_Source\PSoC5/I2C_PM.c **** #endif /* (I2C_FF_IMPLEMENTED) */
 261:Generated_Source\PSoC5/I2C_PM.c **** 
 262:Generated_Source\PSoC5/I2C_PM.c **** #if (I2C_TIMEOUT_ENABLED)
 263:Generated_Source\PSoC5/I2C_PM.c ****     I2C_TimeoutRestoreConfig();
 264:Generated_Source\PSoC5/I2C_PM.c **** #endif /* (I2C_TIMEOUT_ENABLED) */
 265:Generated_Source\PSoC5/I2C_PM.c **** }
 266:Generated_Source\PSoC5/I2C_PM.c **** 
 267:Generated_Source\PSoC5/I2C_PM.c **** 
 268:Generated_Source\PSoC5/I2C_PM.c **** /*******************************************************************************
 269:Generated_Source\PSoC5/I2C_PM.c **** * Function Name: I2C_Wakeup
 270:Generated_Source\PSoC5/I2C_PM.c **** ********************************************************************************
 271:Generated_Source\PSoC5/I2C_PM.c **** *
 272:Generated_Source\PSoC5/I2C_PM.c **** * Summary:
 273:Generated_Source\PSoC5/I2C_PM.c **** *  This is the preferred method to prepare the component for active mode
 274:Generated_Source\PSoC5/I2C_PM.c **** *  operation (when device exits sleep mode). The Enable wakeup from Sleep Mode
 275:Generated_Source\PSoC5/I2C_PM.c **** *  selection influences this function implementation:
ARM GAS  C:\Users\Bruger\AppData\Local\Temp\ccnPihjU.s 			page 37


 276:Generated_Source\PSoC5/I2C_PM.c **** *   Unchecked: Restores the component non-retention configuration registers
 277:Generated_Source\PSoC5/I2C_PM.c **** *              by calling I2C_RestoreConfig(). If the component was enabled
 278:Generated_Source\PSoC5/I2C_PM.c **** *              before the I2C_Sleep() function was called, I2C_Wakeup()
 279:Generated_Source\PSoC5/I2C_PM.c **** *              re-enables it.
 280:Generated_Source\PSoC5/I2C_PM.c **** *   Checked:   Enables  master functionality if it was enabled before sleep,
 281:Generated_Source\PSoC5/I2C_PM.c **** *              and disables the backup regulator of the I2C hardware.
 282:Generated_Source\PSoC5/I2C_PM.c **** *              The incoming transaction continues as soon as the regular
 283:Generated_Source\PSoC5/I2C_PM.c **** *              I2C interrupt handler is set up (global interrupts has to be
 284:Generated_Source\PSoC5/I2C_PM.c **** *              enabled to service I2C component interrupt).
 285:Generated_Source\PSoC5/I2C_PM.c **** *
 286:Generated_Source\PSoC5/I2C_PM.c **** * Parameters:
 287:Generated_Source\PSoC5/I2C_PM.c **** *  None.
 288:Generated_Source\PSoC5/I2C_PM.c **** *
 289:Generated_Source\PSoC5/I2C_PM.c **** * Return:
 290:Generated_Source\PSoC5/I2C_PM.c **** *  None.
 291:Generated_Source\PSoC5/I2C_PM.c **** *
 292:Generated_Source\PSoC5/I2C_PM.c **** * Reentrant:
 293:Generated_Source\PSoC5/I2C_PM.c **** *  No.
 294:Generated_Source\PSoC5/I2C_PM.c **** *
 295:Generated_Source\PSoC5/I2C_PM.c **** * Side Effects:
 296:Generated_Source\PSoC5/I2C_PM.c **** *  Calling this function before I2C_SaveConfig() or
 297:Generated_Source\PSoC5/I2C_PM.c **** *  I2C_Sleep() will lead to unpredictable results.
 298:Generated_Source\PSoC5/I2C_PM.c **** *
 299:Generated_Source\PSoC5/I2C_PM.c **** *******************************************************************************/
 300:Generated_Source\PSoC5/I2C_PM.c **** void I2C_Wakeup(void) 
 301:Generated_Source\PSoC5/I2C_PM.c **** {
 598              		.loc 1 301 0
 599              		.cfi_startproc
 600              		@ args = 0, pretend = 0, frame = 0
 601              		@ frame_needed = 0, uses_anonymous_args = 0
 602 0000 10B5     		push	{r4, lr}
 603              		.cfi_def_cfa_offset 8
 604              		.cfi_offset 4, -8
 605              		.cfi_offset 14, -4
 606              	.LBB14:
 607              	.LBB15:
 214:Generated_Source\PSoC5/I2C_PM.c ****     /* Low power mode was Sleep - backup regulator is enabled */
 608              		.loc 1 214 0
 609 0002 134C     		ldr	r4, .L30
 610 0004 2378     		ldrb	r3, [r4]	@ zero_extendqisi2
 611 0006 5B07     		lsls	r3, r3, #29
 612 0008 15D4     		bmi	.L29
 240:Generated_Source\PSoC5/I2C_PM.c ****         I2C_CFG_REG     = I2C_backup.cfg;
 613              		.loc 1 240 0
 614 000a 124B     		ldr	r3, .L30+4
 615 000c 124A     		ldr	r2, .L30+8
 616 000e 5878     		ldrb	r0, [r3, #1]	@ zero_extendqisi2
 241:Generated_Source\PSoC5/I2C_PM.c ****         I2C_ADDR_REG    = I2C_backup.addr;
 617              		.loc 1 241 0
 618 0010 1249     		ldr	r1, .L30+12
 240:Generated_Source\PSoC5/I2C_PM.c ****         I2C_CFG_REG     = I2C_backup.cfg;
 619              		.loc 1 240 0
 620 0012 1070     		strb	r0, [r2]
 241:Generated_Source\PSoC5/I2C_PM.c ****         I2C_ADDR_REG    = I2C_backup.addr;
 621              		.loc 1 241 0
 622 0014 9878     		ldrb	r0, [r3, #2]	@ zero_extendqisi2
 623 0016 0870     		strb	r0, [r1]
ARM GAS  C:\Users\Bruger\AppData\Local\Temp\ccnPihjU.s 			page 38


 242:Generated_Source\PSoC5/I2C_PM.c ****         I2C_CLKDIV1_REG = I2C_backup.clkDiv1;
 624              		.loc 1 242 0
 625 0018 D878     		ldrb	r0, [r3, #3]	@ zero_extendqisi2
 626 001a 9070     		strb	r0, [r2, #2]
 243:Generated_Source\PSoC5/I2C_PM.c ****         I2C_CLKDIV2_REG = I2C_backup.clkDiv2;
 627              		.loc 1 243 0
 628 001c 1879     		ldrb	r0, [r3, #4]	@ zero_extendqisi2
 629 001e 4871     		strb	r0, [r1, #5]
 244:Generated_Source\PSoC5/I2C_PM.c ****     }
 630              		.loc 1 244 0
 631 0020 5979     		ldrb	r1, [r3, #5]	@ zero_extendqisi2
 632 0022 1175     		strb	r1, [r2, #20]
 633              	.L23:
 634              	.LBE15:
 635              	.LBE14:
 302:Generated_Source\PSoC5/I2C_PM.c ****     I2C_RestoreConfig();
 303:Generated_Source\PSoC5/I2C_PM.c **** 
 304:Generated_Source\PSoC5/I2C_PM.c ****     /* Restore component enable state */
 305:Generated_Source\PSoC5/I2C_PM.c ****     if (0u != I2C_backup.enableState)
 636              		.loc 1 305 0
 637 0024 1B78     		ldrb	r3, [r3]	@ zero_extendqisi2
 638 0026 2BB1     		cbz	r3, .L21
 306:Generated_Source\PSoC5/I2C_PM.c ****     {
 307:Generated_Source\PSoC5/I2C_PM.c ****         I2C_Enable();
 639              		.loc 1 307 0
 640 0028 FFF7FEFF 		bl	I2C_Enable
 641              	.LVL3:
 308:Generated_Source\PSoC5/I2C_PM.c ****         I2C_EnableInt();
 642              		.loc 1 308 0
 643 002c 0C4B     		ldr	r3, .L30+16
 644 002e 4FF40042 		mov	r2, #32768
 645 0032 1A60     		str	r2, [r3]
 646              	.L21:
 647 0034 10BD     		pop	{r4, pc}
 648              	.L29:
 649              	.LBB19:
 650              	.LBB18:
 651              	.LBB16:
 652              	.LBB17:
 218:Generated_Source\PSoC5/I2C_PM.c ****         I2C_PWRSYS_CR1_REG &= (uint8) ~I2C_PWRSYS_CR1_I2C_REG_BACKUP;
 653              		.loc 1 218 0
 654 0036 FFF7FEFF 		bl	CyEnterCriticalSection
 655              	.LVL4:
 219:Generated_Source\PSoC5/I2C_PM.c ****         CyExitCriticalSection(intState);
 656              		.loc 1 219 0
 657 003a 2378     		ldrb	r3, [r4]	@ zero_extendqisi2
 658 003c 03F0FB03 		and	r3, r3, #251
 659 0040 2370     		strb	r3, [r4]
 220:Generated_Source\PSoC5/I2C_PM.c **** 
 660              		.loc 1 220 0
 661 0042 FFF7FEFF 		bl	CyExitCriticalSection
 662              	.LVL5:
 223:Generated_Source\PSoC5/I2C_PM.c ****     }
 663              		.loc 1 223 0
 664 0046 034B     		ldr	r3, .L30+4
 665 0048 044A     		ldr	r2, .L30+12
 666 004a 9978     		ldrb	r1, [r3, #2]	@ zero_extendqisi2
ARM GAS  C:\Users\Bruger\AppData\Local\Temp\ccnPihjU.s 			page 39


 667 004c 1170     		strb	r1, [r2]
 668 004e E9E7     		b	.L23
 669              	.L31:
 670              		.align	2
 671              	.L30:
 672 0050 31430040 		.word	1073759025
 673 0054 00000000 		.word	.LANCHOR0
 674 0058 C8490040 		.word	1073760712
 675 005c D6490040 		.word	1073760726
 676 0060 00E100E0 		.word	-536813312
 677              	.LBE17:
 678              	.LBE16:
 679              	.LBE18:
 680              	.LBE19:
 681              		.cfi_endproc
 682              	.LFE3:
 683              		.size	I2C_Wakeup, .-I2C_Wakeup
 684              		.global	I2C_backup
 685              		.data
 686              		.align	2
 687              		.set	.LANCHOR0,. + 0
 688              		.type	I2C_backup, %object
 689              		.size	I2C_backup, 6
 690              	I2C_backup:
 691 0000 00       		.byte	0
 692 0001 81       		.byte	-127
 693 0002 02       		.byte	2
 694 0003 08       		.byte	8
 695 0004 0F       		.byte	15
 696 0005 00       		.byte	0
 697 0006 0000     		.text
 698              	.Letext0:
 699              		.file 2 "Generated_Source\\PSoC5\\cytypes.h"
 700              		.file 3 "Generated_Source\\PSoC5\\I2C.h"
 701              		.file 4 "Generated_Source\\PSoC5\\CyLib.h"