ARM GAS  C:\Users\Bruger\AppData\Local\Temp\ccDDrgt5.s 			page 1


   1              		.syntax unified
   2              		.cpu cortex-m3
   3              		.fpu softvfp
   4              		.eabi_attribute 20, 1
   5              		.eabi_attribute 21, 1
   6              		.eabi_attribute 23, 3
   7              		.eabi_attribute 24, 1
   8              		.eabi_attribute 25, 1
   9              		.eabi_attribute 26, 1
  10              		.eabi_attribute 30, 2
  11              		.eabi_attribute 34, 1
  12              		.eabi_attribute 18, 4
  13              		.thumb
  14              		.file	"I2C_Enable_PM.c"
  15              		.text
  16              	.Ltext0:
  17              		.section	.gnu.lto_.profile.727bdb8f,"",%progbits
  18 0000 789C6366 		.ascii	"x\234cf```a\200\000F\006\001\036\000\000\240\000%"
  18      60606061 
  18      80004606 
  18      011E0000 
  18      A00025
  19              		.text
  20              		.section	.gnu.lto_.jmpfuncs.727bdb8f,"",%progbits
  21 0000 789C6366 		.ascii	"x\234cf\300\016\370\2404\013\0203100CX\000\002]\000"
  21      C00EF8A0 
  21      340B1033 
  21      31303043 
  21      5800025D 
  22 0015 1F       		.ascii	"\037"
  23              		.text
  24              		.section	.gnu.lto_.inline.727bdb8f,"",%progbits
  25 0000 789C6366 		.ascii	"x\234cf\300\016\374\2404\013\003\003+\013#\003\023\313"
  25      C00EFCA0 
  25      340B0303 
  25      2B0B2303 
  25      13CB
  26 0012 027906B6 		.ascii	"\002y\006\266\005\362L 1&L!fL!\026L!\006\000\022\360"
  26      05F24C20 
  26      31264C21 
  26      664C2116 
  26      4C210600 
  27 0028 06B7     		.ascii	"\006\267"
  28              		.text
  29              		.section	.gnu.lto_.pureconst.727bdb8f,"",%progbits
  30 0000 789C6366 		.ascii	"x\234cf``\340d\200\000\026\006)&)f)\026)\000\002\321"
  30      6060E064 
  30      80001606 
  30      29262966 
  30      29162900 
  31 0016 0082     		.ascii	"\000\202"
  32              		.text
  33              		.section	.gnu.lto_I2C_Enable_SaveConfig.727bdb8f,"",%progbits
  34 0000 789C654F 		.ascii	"x\234eO\277KBQ\024>\337\361G\206K4\372\007$\015:\004"
  34      BF4B4251 
  34      143EDFF1 
  34      47864B34 
ARM GAS  C:\Users\Bruger\AppData\Local\Temp\ccDDrgt5.s 			page 2


  34      FA07240D 
  35 0016 CD0D12D1 		.ascii	"\315\015\022\321\020\010\256\201\230\275-\024\244F\361"
  35      1008AE81 
  35      98BD2D14 
  35      A446F1
  36 0025 3D7B4334 		.ascii	"={C4\2244\005e\320\020Y\232BC-\015\257\306\242\"\202"
  36      94340565 
  36      D010599A 
  36      42432D0D 
  36      AFC6A222 
  37 003a 0A078350 		.ascii	"\012\007\203P\250-\225\212G\230\235\253K\320\205\313"
  37      A82D958A 
  37      47989DAB 
  37      4BD085CB 
  38 004a B9E79CEF 		.ascii	"\271\347\234\357~?\034\364\377\370\344N\200hT*\034\004"
  38      7E3F1CF4 
  38      FFF8E44E 
  38      8068542A 
  38      1C04
  39 005c CEDD1019 		.ascii	"\316\335\020\031\036\006\324\203@\031F\006o\334d\344"
  39      1E06D483 
  39      40194606 
  39      6FDC64E4 
  40 006c ACE2A6D7 		.ascii	"\254\342\246\327\277\247\353\372{\366\312\010[\260\231"
  40      BFA7EBFA 
  40      7BF6CA08 
  40      5BB099
  41 007b A8CD7D1E 		.ascii	"\250\315}\036\354\303O\002j\232\235G\257\333\024\320"
  41      ECC34F02 
  41      6A9A9D47 
  41      AFDB14D0 
  42 008b 507F8702 		.ascii	"P\177\207\002\334\302O\225aK\357v\333\245\363\0238\231"
  42      DCC24F95 
  42      614BEF76 
  42      DBA5F313 
  42      3899
  43 009d 6C96595D 		.ascii	"l\226Y]\366J\245\301\254\252\243\212\213\317\325\207"
  43      F64AA5C1 
  43      ACAAA38A 
  43      8BCFD587 
  44 00ad C6A0FAF2 		.ascii	"\306\240\372\362\305Jr\371\351\254\305\257l3\177\\\032"
  44      C54A72F9 
  44      E9ACC5AF 
  44      6C337F5C 
  44      1A
  45 00be BA53093C 		.ascii	"\272S\011<\327o\357<\275\021\251\366\345\272\226\035"
  45      D76FEF3C 
  45      BD11A9F6 
  45      E5BA961D 
  46 00ce C863CB30 		.ascii	"\310c\3130\305\216\003\007\360\341\020\022\012E\344"
  46      C58E0307 
  46      F0E11012 
  46      0A45E4
  47 00dd 41556437 		.ascii	"AUd7vG\024\237@w\356\327\312\234\376\326Wt\217\315\316"
  47      7647149F 
  47      4077EED7 
  47      CA9CFED6 
ARM GAS  C:\Users\Bruger\AppData\Local\Temp\ccDDrgt5.s 			page 3


  47      57748FCD 
  48 00f2 8E32F797 		.ascii	"\2162\367\227\317\331k\013\206\271\015\305\247+\224"
  48      CFD96B0B 
  48      86B90DC5 
  48      A72B94
  49 0101 0B25A471 		.ascii	"\013%\244q\244\010e\367SZ?v\007\212\222\315\012\332"
  49      A40865F7 
  49      535A3F76 
  49      078A92CD 
  49      0ADA
  50 0113 EC465980 		.ascii	"\354FY\200\255^~T\020\020\307T\203a\235\272\224\236"
  50      AD5E7E54 
  50      1010C754 
  50      83619DBA 
  50      949E
  51 0125 9AD625A4 		.ascii	"\232\326%\244\344\022\204\177JKh\251\330\2426\037\215"
  51      E412847F 
  51      4A4B68A9 
  51      D8A2361F 
  51      8D
  52 0136 24975271 		.ascii	"$\227Rqm6\034I\206\306g\247\307B\321\311DlnA\213\206"
  52      6D361C49 
  52      86C667A7 
  52      C742D1C9 
  52      446C6E41 
  53 014c 678271FA 		.ascii	"g\202q\372\005!\005\201\227"
  53      05210581 
  53      97
  54              		.text
  55              		.section	.gnu.lto_I2C_Enable_RestoreConfig.727bdb8f,"",%progbits
  56 0000 789C658F 		.ascii	"x\234e\217?HBQ\024\306\357w\236\276\004\227h\224v\211"
  56      3F484251 
  56      14C6EF77 
  56      9EBE0497 
  56      68947689 
  57 0014 B021686A 		.ascii	"\260!hj\224\212\206@h\025\304\354m\241 5\212\367\331"
  57      948A8640 
  57      6815C4EC 
  57      6DA12035 
  57      8AF7D9
  58 0027 1B9ACA9A 		.ascii	"\033\232\312\232\202\376l\221\245)\0244\005\276\032"
  58      82FE6C91 
  58      A5291434 
  58      05BE1A
  59 0036 83926A28 		.ascii	"\203\222j(\034\214\302\240\2664\"\036av\356s\212.\\"
  59      1C8CC2A0 
  59      B634221E 
  59      6176EE73 
  59      8A2E5C
  60 0049 CEBDE77C 		.ascii	"\316\275\347|\347\373\235\243\211\377'\300w\034B\014"
  60      E7FB9DA3 
  60      89FF27C0 
  60      771C420C 
  61 0059 71842640 		.ascii	"q\204&@\371k!L\037\001\352! \262\204,\336\250E\310\333"
  61      F96B214C 
  61      1F01EA21 
  61      20B2842C 
ARM GAS  C:\Users\Bruger\AppData\Local\Temp\ccDDrgt5.s 			page 4


  61      DEA845C8 
  62 006e C54D7F70 		.ascii	"\305M\177pOJ\371~[3#6\034\022\342\203z>\330GP\260\250"
  62      4F4AF97E 
  62      5B332336 
  62      1C12E283 
  62      7A3ED847 
  63 0085 6575EEFD 		.ascii	"eu\356\375\272\305\242\376^\015\005\350\354/*\003\266"
  63      BAC5A2FE 
  63      5E0D05E8 
  63      EC2F2A03 
  63      B6
  64 0096 EC764FAA 		.ascii	"\354vO\252\347y\335C\302!\3165\271\256(/D*ju\344N[\325"
  64      E779DD43 
  64      C221CE35 
  64      B9AE282F 
  64      442A6A75 
  65 00ae A8EAF822 		.ascii	"\250\352\370\"E\334\275[-S\346[\256H\237C\324Qv\234"
  65      45DCBD5B 
  65      2D53E65B 
  65      AE489F43 
  65      D451769C 
  66 00c2 7D6CD66E 		.ascii	"}l\326n|\257\304\031\367[0\255m\354`\313\224J\245\341"
  66      7CAFC419 
  66      F75B30AD 
  66      6DEC60CB 
  66      944AA5E1 
  67 00d6 00191C22 		.ascii	"\000\031\034\"\340\326~Jk\307zh\330!\017\212\254i\273"
  67      E0D67E4A 
  67      6BC77A68 
  67      D8210F8A 
  67      AC69BB
  68 00e9 C3A28490 		.ascii	"\303\242\204\220\250\343b\343iP\241X\266\374p\326&\345"
  68      A8E362E3 
  68      6950A158 
  68      B6FC70D6 
  68      26E5
  69 00fb E8FDBC34 		.ascii	"\350\375\2744\245\347\017\304\353\032=_5r}\012b\231"
  69      A5E70FC4 
  69      EB1A3D5F 
  69      35727D0A 
  69      6299
  70 010d B6EE908E 		.ascii	"\266\356\220\216#\004PV\024T\330\230\307\025\015\230"
  70      23045056 
  70      1454D898 
  70      C7150D98 
  71 011d F6FAA472 		.ascii	"\366\372\244rT\220&/\310;108e$\215t|\321\230\217\315"
  71      5490262F 
  71      C83B3130 
  71      3865248D 
  71      747CD198 
  72 0133 A696D209 		.ascii	"\246\226\322\011#\032\231M\205\307\242\323\243\341\330"
  72      231A994D 
  72      85C7A2D3 
  72      A3E1D8
  73 0142 44323EB7 		.ascii	"D2>\267`\304\"3#\011\361\013\360\226\177\301"
  73      60C42233 
  73      2309F10B 
ARM GAS  C:\Users\Bruger\AppData\Local\Temp\ccDDrgt5.s 			page 5


  73      F0967FC1 
  74              		.text
  75              		.section	.gnu.lto_I2C_Enable_Sleep.727bdb8f,"",%progbits
  76 0000 789C6590 		.ascii	"x\234e\2209K\003Q\020\307\347?\273\256\021\033\261\012"
  76      394B0351 
  76      10C7E73F 
  76      BBAE111B 
  76      B10A
  77 0012 F9024124 		.ascii	"\371\002A$\026\202\237@T\004\205@\332@\320\270\235("
  77      16829F40 
  77      54048540 
  77      DA40D0B8 
  77      9D28
  78 0024 7894E2AE 		.ascii	"x\224\342\256F\020\013\215AD\320\330\211G.\017\354,"
  78      46100B8D 
  78      4144D0D8 
  78      89472E0F 
  78      EC2C
  79 0036 82858585 		.ascii	"\202\205\205\205\"\342\225B\233\004\2643\011*\213D\235"
  79      22E29542 
  79      9B04B433 
  79      092A8B44 
  79      9D
  80 0047 171B8F07 		.ascii	"\027\033\217\007\217w\314\357\375\346\315h\364\177x"
  80      8F77CCEF 
  80      FDE6CD68 
  80      F47F78
  81 0056 648E82A8 		.ascii	"d\216\202\250IVh\004\216\236\021\331.\006\324\206@\223"
  81      49566804 
  81      8E9E11D9 
  81      2E06D486 
  81      4093
  82 0068 8C493C71 		.ascii	"\214I<q\221\021\315&V\352\275\033\226e=\307\016\335"
  82      9111CD26 
  82      56EABD1B 
  82      96653DC7 
  82      0EDD
  83 007a 336E8789 		.ascii	"3n\207\211\312\374\255\301&\274$L1R\271\2517\"\3024"
  83      CAFCADC1 
  83      26BC244C 
  83      3152B9A9 
  83      3722C234 
  84 008e 7CC7B005 		.ascii	"|\307\260\005C\364\224i\314Z\237\237\007W\213\263\315"
  84      43F49469 
  84      CC5A9F9F 
  84      07578BB3 
  84      CD
  85 009f D0357258 		.ascii	"\3205rX.\363\002\250,\005f\265j9\034\277\316]\027\352"
  85      2EF302A8 
  85      2C0566B5 
  85      6A391CBF 
  85      CE5D17EA 
  86 00b3 7E79B237 		.ascii	"~y\2627'\\\265\224\345\311\237\014\330\206!)v`\274\261"
  86      275CB594 
  86      E5C99F0C 
  86      D8862129 
  86      7660BCB1 
ARM GAS  C:\Users\Bruger\AppData\Local\Temp\ccDDrgt5.s 			page 6


  87 00c7 26B1E9DB 		.ascii	"&\261\351\333\243\022?\262\303\374rj[\272\302\037\362"
  87      A3123FB2 
  87      C3FC726A 
  87      5BBAC21F 
  87      F2
  88 00d8 E717AEEA 		.ascii	"\347\027\256\352\025\251\343[|y\2456\216U{\311v9\254"
  88      15A9E35B 
  88      7C79A536 
  88      8E557BC9 
  88      7639AC
  89 00eb 21010F92 		.ascii	"!\001\017\222\220& \2058(\207\251\330^\252G\031\005"
  89      90262085 
  89      382887A9 
  89      D85EAA47 
  89      1905
  90 00fd 5EBF9C4F 		.ascii	"^\277\234O\363\304\2735k\011\253WT9?\215z\365\270eG"
  90      F3C4BB35 
  90      6B09AB57 
  90      54393F8D 
  90      7AF5B865 
  91 0112 D6A08C96 		.ascii	"\326\240\214\226\242j\220\306\0042\312(\261\217\344"
  91      A26A90C6 
  91      0432CA28 
  91      B18FE4
  92 0121 C2BEE14B 		.ascii	"\302\276\341K\250*Z\0346\260+`I4\325\177c\017>\3716"
  92      A82A5A1C 
  92      36B02B60 
  92      4934D57F 
  92      630F3EF9 
  93 0136 DDC3CEDE 		.ascii	"\335\303\316\336u\252\012U#\363R\245\364B o\2279d\216"
  93      75AA0A55 
  93      23F352A5 
  93      F442206F 
  93      9739648E 
  94 014a F48D9903 		.ascii	"\364\215\231\003\241\300\360\370H\330\014\372\003\303"
  94      A1C0F0F8 
  94      48D80CFA 
  94      03C3
  95 0158 ED6DC1EE 		.ascii	"\355m\301\356\326\366P\307P_\377\240\031\362\367\266"
  95      D6F650C7 
  95      505FFFA0 
  95      19F2F7B6 
  96 0168 84E90B10 		.ascii	"\204\351\013\020Z\224_"
  96      5A945F
  97              		.text
  98              		.section	.gnu.lto_I2C_Enable_Wakeup.727bdb8f,"",%progbits
  99 0000 789C6590 		.ascii	"x\234e\220\273K\003A\020\306\347\233\213g\300F\254$"
  99      BB4B0341 
  99      10C6E79B 
  99      8B67C046 
  99      AC24
 100 0012 D8070B2D 		.ascii	"\330\007\013-\004\375\007\202\004\013!\2206\020b\274"
 100      04FD0782 
 100      040B2190 
 100      361062BC 
 101 0022 4E147C94 		.ascii	"N\024|\224\222;\215\220\312\027\"\202\257J\214&&>@\024"
 101      923B8D90 
ARM GAS  C:\Users\Bruger\AppData\Local\Temp\ccDDrgt5.s 			page 7


 101      CA172282 
 101      AF4A8C26 
 101      263E4014 
 102 0036 040F1BC1 		.ascii	"\004\017\033\301BQ\013%\205\017\210\250\2351\210\034"
 102      42510B25 
 102      850F88A8 
 102      9D31881C 
 103 0046 A271F6AC 		.ascii	"\242q\366\254\324\205evg\276\371~;\253\321\377\345\223"
 103      D4856576 
 103      67BEF97E 
 103      3BABD1FF 
 103      E593
 104 0058 3D00A246 		.ascii	"=\000\242F\211\320\010<yJdy\031P\007\002%\030\011<s"
 104      89D0083C 
 104      794A6479 
 104      19500702 
 104      2518093C 
 105 006d 89316967 		.ascii	"\2111ig\346j\374+\246i\276\\\354\327\217\325;LT\346"
 105      E66AFC2B 
 105      A669BE5C 
 105      ECD78FD5 
 105      3B4C54E6 
 106 0081 1F1BACC2 		.ascii	"\037\033\254\302O\242)%?\257j\364\244hj\177jHC\027{"
 106      4FA22925 
 106      3FAF6AF4 
 106      A4686A7F 
 106      6A484317 
 107 0096 CAD7D966 		.ascii	"\312\327\331f\245\262\3638\225j\203G#\207%Y\024\201"
 107      A5B2F338 
 107      956A8347 
 107      23872559 
 107      1481
 108 00a8 A23C30AB 		.ascii	"\242<0\253\250\0250\262[:\214\374\262\261\227\217\331"
 108      A81530B2 
 108      5B3A8CFC 
 108      B2B1978F 
 108      D9
 109 00b9 35294BC7 		.ascii	"5)K\307\037\000\326\240\013a\035\372;kR[\272\034\317"
 109      1F00D6A0 
 109      0B611DFA 
 109      3B6B525B 
 109      BA1CCF
 110 00cc F1F08799 		.ascii	"\361\360\207\2312\275\016\363\247\302K\366\266xv\356"
 110      32BD0EF3 
 110      A7C24BF6 
 110      B67876EE 
 111 00dc 7D62C9B8 		.ascii	"}b\311\270\327\264\225\\\300\"\346-S\2514d0\214,|n\355"
 111      D7B4955C 
 111      C022E62D 
 111      53A93464 
 111      308C2C7C 
 112 00f2 2B3BB1AD 		.ascii	"+;\261\2557e\304\374\256\262\007\207=\330\020\351\253"
 112      3765C4FC 
 112      AEB20787 
 112      3DD810E9 
 112      AB
 113 0103 34BA28E4 		.ascii	"4\272(\344\320D\005\034M\3377(\2504\214^\037\274\262"
ARM GAS  C:\Users\Bruger\AppData\Local\Temp\ccDDrgt5.s 			page 8


 113      D044051C 
 113      4DDF3728 
 113      A8348C5E 
 113      1FBCB2
 114 0116 F2AE7A3B 		.ascii	"\362\256z;\261L\317/\\\225k\371\2768;W\255p3\226\340"
 114      B14CCF2F 
 114      5C956BF9 
 114      BE383B57 
 114      AD703396 
 115 012b 74E4E1C3 		.ascii	"t\344\341\303\246\302aK\254\345\335t\003\313\336\012"
 115      A6C2614B 
 115      ACE5DD74 
 115      03CBDE0A 
 116 013b AA11D547 		.ascii	"\252\021\325G\026eL\371\013A\372\203F\257\321\037\033"
 116      16654CF9 
 116      0B41FA83 
 116      46AFD11F 
 116      1B
 117 014c 34BAA3E1 		.ascii	"4\272\243\341\276\241\376\270\021\011\205\373\002\255"
 117      BEA1FEB8 
 117      110985FB 
 117      02AD
 118 015a 918E9640 		.ascii	"\221\216\226@\264\2757\326\325cDC\235\315q\372\006\304"
 118      B4BD37D6 
 118      D5634443 
 118      9DCD71FA 
 118      06C4
 119 016c 5C94DE   		.ascii	"\\\224\336"
 120              		.text
 121              		.section	.gnu.lto_.symbol_nodes.727bdb8f,"",%progbits
 122 0000 789C55C8 		.ascii	"x\234U\310A\015\000 \020\304\300\336\036$XC\325Z@\001"
 122      410D0020 
 122      10C4C0DE 
 122      1E245843 
 122      D55A4001 
 123 0014 41119AF8 		.ascii	"A\021\232\370\360\200\376\246\011tn\012\303\330`3W\243"
 123      F080FEA6 
 123      09746E0A 
 123      C3D86033 
 123      57A3
 124 0026 C2925372 		.ascii	"\302\222Sr\274[i}.\316\327\034\222.\022\022"
 124      BC5B697D 
 124      2ECED71C 
 124      922E1212 
 125              		.text
 126              		.section	.gnu.lto_.refs.727bdb8f,"",%progbits
 127 0000 789C6366 		.ascii	"x\234cf``\020e\200\000F\006FF&F& \311\310\014b\261\000"
 127      60601065 
 127      80004606 
 127      46462646 
 127      2620C9C8 
 128 0018 590C0003 		.ascii	"Y\014\000\003\357\0002"
 128      EF0032
 129              		.text
 130              		.section	.gnu.lto_.decls.727bdb8f,"",%progbits
 131 0000 789C9553 		.ascii	"x\234\225SmHSQ\030>\357\316t\327\265\244\220,\374e\037"
 131      6D485351 
ARM GAS  C:\Users\Bruger\AppData\Local\Temp\ccDDrgt5.s 			page 9


 131      183EEFCE 
 131      74D7B5A4 
 131      902CFC65 
 132 0015 D897F823 		.ascii	"\330\227\370#H\372\2275B*\212\321\222~\024\330\\\267"
 132      48FA9735 
 132      422A8AD1 
 132      927E14D8 
 132      5CB7
 133 0027 0F92CDE6 		.ascii	"\017\222\315\346\014\374wrF\246!\231\226b\037,\212R"
 133      0CFC7772 
 133      46A62199 
 133      96621F2C 
 133      8A52
 134 0039 D3B54CB3 		.ascii	"\323\265L\263\271r\2634W\241\375\021\303~\224JP\370"
 134      B972B334 
 134      57A1FD11 
 134      C37E944A 
 134      50F8
 135 004b 6B8548D1 		.ascii	"k\205H\321\307z\317\331]\273V\243:\360\336{\3179\317"
 135      C77ACFD9 
 135      5DBB56A3 
 135      3AF0DE7B 
 135      CF39CF
 136 005e F3BCCF79 		.ascii	"\363\274\317y\337s)!d?\020\022\301\221\243%\304\200"
 136      DF732921 
 136      643F1012 
 136      C191A325 
 136      C480
 137 0070 DF49B866 		.ascii	"\337I\270f\"\361\201\313\244\035\303\203\341\305\350"
 137      22F181CB 
 137      A41DC383 
 137      E1C5E8
 138 007f C44018E9 		.ascii	"\304@\030\351's\007\307\350\024n:\306\023\214\001\214"
 138      277307C7 
 138      E8146E3A 
 138      C6138C01 
 138      8C
 139 0090 218C3E8C 		.ascii	"!\214>\214\036\205\347W\336\355\011t<\277\350\250\371"
 139      1E85E757 
 139      DEED0974 
 139      3CBFE8A8 
 139      F9
 140 00a1 314DB58E 		.ascii	"1M\265\216'\201\216\367?\374h\024|\"O\235\377\341I\243"
 140      27818EF7 
 140      3FFC6814 
 140      7C224F9D 
 140      FFE149A3 
 141 00b5 E013F9FA 		.ascii	"\340\023\371\372\240\001\237gfx\336{\015\244\3523\371"
 141      A0019F67 
 141      6678DE7B 
 141      0DA4EA33 
 141      F9
 142 00c6 B4F75CA8 		.ascii	"\264\367\\\250)\031\247\006\275\226O\375_\246F\265\213"
 142      2919A706 
 142      BD964FFD 
 142      5FA646B5 
 142      8B
ARM GAS  C:\Users\Bruger\AppData\Local\Temp\ccDDrgt5.s 			page 10


 143 00d7 CF331C67 		.ascii	"\3173\034g]l\201\026L\351p\0232\240\0052P\261\025\026"
 143      5D6C8116 
 143      4CE97013 
 143      32A00532 
 143      50B11516 
 144 00eb E373AF36 		.ascii	"\343s\2576\252\364\362\335\314\264D5\300\277\2575M\216"
 144      AAF4F2DD 
 144      CCB44435 
 144      C0BFAF35 
 144      4D8E
 145 00fd EAB3DB90 		.ascii	"\352\263\333\220V\305\202A\032OW\363e\366\215\224y\205"
 145      56C58241 
 145      1A4F57F3 
 145      65F68D94 
 145      7985
 146 010f 4D78C301 		.ascii	"Mx\303\001\357\270\201\205X0\022\0110\020b\320\006\024"
 146      EFB88185 
 146      58301209 
 146      301062D0 
 146      0614
 147 0121 6E4136C7 		.ascii	"nA6\307\362oA\202v\310D\342t}C_\022\315\027\352\203"
 147      F26F4182 
 147      76C844E2 
 147      747D435F 
 147      12CD17EA 
 148 0136 FEB6B542 		.ascii	"\376\266\265B\303\375\255\223\345U\262\257\221\210K"
 148      C3FDAD93 
 148      E555B2AF 
 148      91884B
 149 0145 12021D2A 		.ascii	"\022\002\035*\201\216\230\200G\010\214\370\202\265)"
 149      818E9880 
 149      47088CF8 
 149      82B529
 150 0154 74BF10F0 		.ascii	"t\277\020\360\277:_OQ\301\355u\267^K\026\0366\012\376"
 150      BF3A5F4F 
 150      51C1ED75 
 150      B75E4B16 
 150      1E360AFE 
 151 0168 6D15FF76 		.ascii	"m\025\377v\214\357\025\374\311\221\326:J\217\011\276"
 151      8CEF15FC 
 151      C991D63A 
 151      4A8F09BE 
 152 0178 6F78E6B1 		.ascii	"ox\346\261\024\345\017\317\341\337Q\361\357\304\370"
 152      14E50FCF 
 152      E1DF51F1 
 152      EFC4F8
 153 0187 9D827F3F 		.ascii	"\235\202\177?t\201i\251\013\204\300X\340\324)\211^\212"
 153      748169A9 
 153      0B84C058 
 153      E0D42989 
 153      5E8A
 154 0199 4E4EDCF0 		.ascii	"NN\334\360\237\321a\315\323\365\242D\265\317\233\373"
 154      9FD161CD 
 154      D3F5A244 
 154      B5CF9BFB 
 155 01a9 A99846F8 		.ascii	"\251\230F\370\266f|\274\3413\005}V\025c\025,|\216\321"
 155      B6667CBC 
ARM GAS  C:\Users\Bruger\AppData\Local\Temp\ccDDrgt5.s 			page 11


 155      E133057D 
 155      56156315 
 155      2C7C8ED1 
 156 01bd 2504B233 		.ascii	"%\004\2623`u\006\201\373\220\2050\221\021\272\261-\367"
 156      60750681 
 156      FB908530 
 156      9111BAB1 
 156      2DF7
 157 01cf B02DD7B1 		.ascii	"\260-\327\261\350\341g'\373\266\271X\036\364\200\036"
 157      E8E16727 
 157      FBB6B958 
 157      1EF4801E 
 158 01df BA7E7A12 		.ascii	"\272~z\022\031\224F4G\306\272R\351\200p@\033\276\177"
 158      19944634 
 158      47C6BA52 
 158      E9807040 
 158      1BBE7F
 159 01f2 F5A642DA 		.ascii	"\365\246B\332\262\254:\336\351p\005\313;\026\313A\240"
 159      B2AC3ADE 
 159      E97005CB 
 159      3B16CB41 
 159      A0
 160 0203 17D2381F 		.ascii	"\027\3228\037\036`2?,\023\002n\364\022n\035z1\277\221"
 160      1E60323F 
 160      2C13026E 
 160      F4126E1D 
 160      7A31BF91 
 161 0217 4D0441A4 		.ascii	"M\004A\244\361a\032\016U\254\255\342\3245\370\020\206"
 161      F1611A0E 
 161      55ACADE2 
 161      D435F810 
 161      86
 162 0228 261EAC93 		.ascii	"&\036\254\223\370.\211U'\346CS\357o\252\324AV\232@\205"
 162      F82E8955 
 162      27E64353 
 162      EF6FAAD4 
 162      41569A40 
 163 023d 9201FA50 		.ascii	"\222\001\372P\343n\3342'\211\361\2735x\210\216\376\344"
 163      E36EDC32 
 163      2789F1BB 
 163      3578888E 
 163      FEE4
 164 024f 0E8FF7BA 		.ascii	"\016\217\367\272\356bo\012\235\215\026\270\243\356\355"
 164      EE626F0A 
 164      9D8D16B8 
 164      A3EEED
 165 025e 6529B78B 		.ascii	"e)\267\213U\271%!\2178^.\2765ri|@\267\374*c\356p\340"
 165      55B92521 
 165      8F385E2E 
 165      BE357269 
 165      7C40B7FC 
 166 0277 758BA691 		.ascii	"u\213\246\221\271+\030\343\335\024\300@\324\307\317"
 166      B92B18E3 
 166      DD14C040 
 166      D4C7CF
 167 0286 5204784B 		.ascii	"R\004xK!\010\271\004\372a9\322Yc\315u\211VE/}\367l\265"
 167      2108B904 
ARM GAS  C:\Users\Bruger\AppData\Local\Temp\ccDDrgt5.s 			page 12


 167      FA6139D2 
 167      5963CD75 
 167      8956452F 
 168 029e 6FBE1EDB 		.ascii	"o\276\036\333\344\372\2076\341\321GG\252\307R\242\215"
 168      E4FA8736 
 168      E1D14747 
 168      AAC752A2 
 168      8D
 169 02af FD953198 		.ascii	"\375\2251\230\260\261\203\037\267Wbc\007\260\342\217"
 169      B0B1831F 
 169      B7576263 
 169      07B0E28F 
 170 02bf E2557A0C 		.ascii	"\342Uz\014\361\316\236\236j\0366\030\252\371m\301\177"
 170      F1CE9E9E 
 170      6A1E3618 
 170      AAF96DC1 
 170      7F
 171 02d0 3625942A 		.ascii	"6%\224*\300\361\277\366\011\030\304\265\3047\242\033"
 171      C0F1BFF6 
 171      0918C4B5 
 171      C437A21B 
 172 02e0 3E3D6DD1 		.ascii	">=m\321\315A\363\203\307\321C\012\232\277\027m]g,\334"
 172      CD41F383 
 172      C7D1430A 
 172      9ABF176D 
 172      5D672CDC 
 173 02f4 62B31415 		.ascii	"b\263\024\025\313\205f\313q\331h\267\035<r(9\177gA\246"
 173      CB8566CB 
 173      71D968B7 
 173      1D3C7228 
 173      397F6741 
 174 0309 91ACCC97 		.ascii	"\221\254\314\227m\262\303\342\224\017\024\232\355e\016"
 174      6DB2C3E2 
 174      940F149A 
 174      ED650E
 175 0318 ABBCCF64 		.ascii	"\253\274\317d\266\033\327\357SqL;r\254d\211ja\227\\"
 175      B61BD7EF 
 175      53714C3B 
 175      72AC6489 
 175      6A61975C 
 176 032c EAB43B14 		.ascii	"\352\264;\024\235\005j\365bY.Y\250Z\330c9*\227\225\250"
 176      9D056AF5 
 176      62592E59 
 176      A85AD863 
 176      392A9795 
 177 0341 B99B3719 		.ascii	"\271\2337\031\267\027\230\012\315\273w\025\030w'\225"
 177      B717980A 
 177      CDBB7715 
 177      18772795 
 178 0351 1DB13937 		.ascii	"\035\26197,M`\301Z\356,/\221Ks\016\023\203\325ns:\354"
 178      2C4D60C1 
 178      5AEE2C2F 
 178      914B730E 
 178      1383D56E 
 179 0368 C56627A2 		.ascii	"\305f'\242V\374\32512\324&\212,\326\243e%Z\207|h\303"
 179      56FCD531 
 179      32D4268A 
ARM GAS  C:\Users\Bruger\AppData\Local\Temp\ccDDrgt5.s 			page 13


 179      2CD6A365 
 179      255A877C 
 180 037e 0FBFA7BD 		.ascii	"\017\277\247\275\220"
 180      90
 181              		.text
 182              		.section	.gnu.lto_.symtab.727bdb8f,"",%progbits
 183 0000 4932435F 		.ascii	"I2C_Enable_SaveConfig\000\000\000\000\000\000\000\000"
 183      456E6162 
 183      6C655F53 
 183      61766543 
 183      6F6E6669 
 184 001d 00000000 		.ascii	"\000\000\000\000\254\000\000\000I2C_Enable_RestoreC"
 184      AC000000 
 184      4932435F 
 184      456E6162 
 184      6C655F52 
 185 0038 6F6E6669 		.ascii	"onfig\000\000\000\000\000\000\000\000\000\000\000\000"
 185      67000000 
 185      00000000 
 185      00000000 
 185      00
 186 0049 AE000000 		.ascii	"\256\000\000\000I2C_Enable_Sleep\000\000\000\000\000"
 186      4932435F 
 186      456E6162 
 186      6C655F53 
 186      6C656570 
 187 0062 00000000 		.ascii	"\000\000\000\000\000\000\000\260\000\000\000I2C_Ena"
 187      000000B0 
 187      00000049 
 187      32435F45 
 187      6E61
 188 0074 626C655F 		.ascii	"ble_Wakeup\000\000\000\000\000\000\000\000\000\000\000"
 188      57616B65 
 188      75700000 
 188      00000000 
 188      00000000 
 189 0089 00B20000 		.ascii	"\000\262\000\000\000"
 189      00
 190              		.text
 191              		.section	.gnu.lto_.opts,"",%progbits
 192 0000 272D666E 		.ascii	"'-fno-trapv' '-mcpu=cortex-m3' '-mthumb' '-g' '-O3'"
 192      6F2D7472 
 192      61707627 
 192      20272D6D 
 192      6370753D 
 193 0033 20272D66 		.ascii	" '-ffunction-sections' '-finline-functions' '-flto'"
 193      66756E63 
 193      74696F6E 
 193      2D736563 
 193      74696F6E 
 194 0066 20272D66 		.ascii	" '-ffat-lto-objects'\000"
 194      6661742D 
 194      6C746F2D 
 194      6F626A65 
 194      63747327 
 195              		.text
 196              		.cfi_sections	.debug_frame
ARM GAS  C:\Users\Bruger\AppData\Local\Temp\ccDDrgt5.s 			page 14


 197              		.section	.text.I2C_Enable_SaveConfig,"ax",%progbits
 198              		.align	2
 199              		.global	I2C_Enable_SaveConfig
 200              		.thumb
 201              		.thumb_func
 202              		.type	I2C_Enable_SaveConfig, %function
 203              	I2C_Enable_SaveConfig:
 204              	.LFB0:
 205              		.file 1 "Generated_Source\\PSoC5\\I2C_Enable_PM.c"
   1:Generated_Source\PSoC5/I2C_Enable_PM.c **** /*******************************************************************************
   2:Generated_Source\PSoC5/I2C_Enable_PM.c **** * File Name: I2C_Enable_PM.c
   3:Generated_Source\PSoC5/I2C_Enable_PM.c **** * Version 1.80
   4:Generated_Source\PSoC5/I2C_Enable_PM.c **** *
   5:Generated_Source\PSoC5/I2C_Enable_PM.c **** * Description:
   6:Generated_Source\PSoC5/I2C_Enable_PM.c **** *  This file contains the setup, control, and status commands to support 
   7:Generated_Source\PSoC5/I2C_Enable_PM.c **** *  the component operation in the low power mode. 
   8:Generated_Source\PSoC5/I2C_Enable_PM.c **** *
   9:Generated_Source\PSoC5/I2C_Enable_PM.c **** * Note:
  10:Generated_Source\PSoC5/I2C_Enable_PM.c **** *
  11:Generated_Source\PSoC5/I2C_Enable_PM.c **** ********************************************************************************
  12:Generated_Source\PSoC5/I2C_Enable_PM.c **** * Copyright 2015, Cypress Semiconductor Corporation.  All rights reserved.
  13:Generated_Source\PSoC5/I2C_Enable_PM.c **** * You may use this file only in accordance with the license, terms, conditions, 
  14:Generated_Source\PSoC5/I2C_Enable_PM.c **** * disclaimers, and limitations in the end user license agreement accompanying 
  15:Generated_Source\PSoC5/I2C_Enable_PM.c **** * the software package with which this file was provided.
  16:Generated_Source\PSoC5/I2C_Enable_PM.c **** *******************************************************************************/
  17:Generated_Source\PSoC5/I2C_Enable_PM.c **** 
  18:Generated_Source\PSoC5/I2C_Enable_PM.c **** #include "I2C_Enable.h"
  19:Generated_Source\PSoC5/I2C_Enable_PM.c **** 
  20:Generated_Source\PSoC5/I2C_Enable_PM.c **** /* Check for removal by optimization */
  21:Generated_Source\PSoC5/I2C_Enable_PM.c **** #if !defined(I2C_Enable_Sync_ctrl_reg__REMOVED)
  22:Generated_Source\PSoC5/I2C_Enable_PM.c **** 
  23:Generated_Source\PSoC5/I2C_Enable_PM.c **** static I2C_Enable_BACKUP_STRUCT  I2C_Enable_backup = {0u};
  24:Generated_Source\PSoC5/I2C_Enable_PM.c **** 
  25:Generated_Source\PSoC5/I2C_Enable_PM.c ****     
  26:Generated_Source\PSoC5/I2C_Enable_PM.c **** /*******************************************************************************
  27:Generated_Source\PSoC5/I2C_Enable_PM.c **** * Function Name: I2C_Enable_SaveConfig
  28:Generated_Source\PSoC5/I2C_Enable_PM.c **** ********************************************************************************
  29:Generated_Source\PSoC5/I2C_Enable_PM.c **** *
  30:Generated_Source\PSoC5/I2C_Enable_PM.c **** * Summary:
  31:Generated_Source\PSoC5/I2C_Enable_PM.c **** *  Saves the control register value.
  32:Generated_Source\PSoC5/I2C_Enable_PM.c **** *
  33:Generated_Source\PSoC5/I2C_Enable_PM.c **** * Parameters:
  34:Generated_Source\PSoC5/I2C_Enable_PM.c **** *  None
  35:Generated_Source\PSoC5/I2C_Enable_PM.c **** *
  36:Generated_Source\PSoC5/I2C_Enable_PM.c **** * Return:
  37:Generated_Source\PSoC5/I2C_Enable_PM.c **** *  None
  38:Generated_Source\PSoC5/I2C_Enable_PM.c **** *
  39:Generated_Source\PSoC5/I2C_Enable_PM.c **** *******************************************************************************/
  40:Generated_Source\PSoC5/I2C_Enable_PM.c **** void I2C_Enable_SaveConfig(void) 
  41:Generated_Source\PSoC5/I2C_Enable_PM.c **** {
 206              		.loc 1 41 0
 207              		.cfi_startproc
 208              		@ args = 0, pretend = 0, frame = 0
 209              		@ frame_needed = 0, uses_anonymous_args = 0
 210              		@ link register save eliminated.
  42:Generated_Source\PSoC5/I2C_Enable_PM.c ****     I2C_Enable_backup.controlState = I2C_Enable_Control;
 211              		.loc 1 42 0
ARM GAS  C:\Users\Bruger\AppData\Local\Temp\ccDDrgt5.s 			page 15


 212 0000 024A     		ldr	r2, .L2
 213 0002 034B     		ldr	r3, .L2+4
 214 0004 1278     		ldrb	r2, [r2]	@ zero_extendqisi2
 215 0006 1A70     		strb	r2, [r3]
 216 0008 7047     		bx	lr
 217              	.L3:
 218 000a 00BF     		.align	2
 219              	.L2:
 220 000c 75650040 		.word	1073767797
 221 0010 00000000 		.word	.LANCHOR0
 222              		.cfi_endproc
 223              	.LFE0:
 224              		.size	I2C_Enable_SaveConfig, .-I2C_Enable_SaveConfig
 225              		.section	.text.I2C_Enable_RestoreConfig,"ax",%progbits
 226              		.align	2
 227              		.global	I2C_Enable_RestoreConfig
 228              		.thumb
 229              		.thumb_func
 230              		.type	I2C_Enable_RestoreConfig, %function
 231              	I2C_Enable_RestoreConfig:
 232              	.LFB1:
  43:Generated_Source\PSoC5/I2C_Enable_PM.c **** }
  44:Generated_Source\PSoC5/I2C_Enable_PM.c **** 
  45:Generated_Source\PSoC5/I2C_Enable_PM.c **** 
  46:Generated_Source\PSoC5/I2C_Enable_PM.c **** /*******************************************************************************
  47:Generated_Source\PSoC5/I2C_Enable_PM.c **** * Function Name: I2C_Enable_RestoreConfig
  48:Generated_Source\PSoC5/I2C_Enable_PM.c **** ********************************************************************************
  49:Generated_Source\PSoC5/I2C_Enable_PM.c **** *
  50:Generated_Source\PSoC5/I2C_Enable_PM.c **** * Summary:
  51:Generated_Source\PSoC5/I2C_Enable_PM.c **** *  Restores the control register value.
  52:Generated_Source\PSoC5/I2C_Enable_PM.c **** *
  53:Generated_Source\PSoC5/I2C_Enable_PM.c **** * Parameters:
  54:Generated_Source\PSoC5/I2C_Enable_PM.c **** *  None
  55:Generated_Source\PSoC5/I2C_Enable_PM.c **** *
  56:Generated_Source\PSoC5/I2C_Enable_PM.c **** * Return:
  57:Generated_Source\PSoC5/I2C_Enable_PM.c **** *  None
  58:Generated_Source\PSoC5/I2C_Enable_PM.c **** *
  59:Generated_Source\PSoC5/I2C_Enable_PM.c **** *
  60:Generated_Source\PSoC5/I2C_Enable_PM.c **** *******************************************************************************/
  61:Generated_Source\PSoC5/I2C_Enable_PM.c **** void I2C_Enable_RestoreConfig(void) 
  62:Generated_Source\PSoC5/I2C_Enable_PM.c **** {
 233              		.loc 1 62 0
 234              		.cfi_startproc
 235              		@ args = 0, pretend = 0, frame = 0
 236              		@ frame_needed = 0, uses_anonymous_args = 0
 237              		@ link register save eliminated.
  63:Generated_Source\PSoC5/I2C_Enable_PM.c ****      I2C_Enable_Control = I2C_Enable_backup.controlState;
 238              		.loc 1 63 0
 239 0000 024A     		ldr	r2, .L5
 240 0002 034B     		ldr	r3, .L5+4
 241 0004 1278     		ldrb	r2, [r2]	@ zero_extendqisi2
 242 0006 1A70     		strb	r2, [r3]
 243 0008 7047     		bx	lr
 244              	.L6:
 245 000a 00BF     		.align	2
 246              	.L5:
 247 000c 00000000 		.word	.LANCHOR0
ARM GAS  C:\Users\Bruger\AppData\Local\Temp\ccDDrgt5.s 			page 16


 248 0010 75650040 		.word	1073767797
 249              		.cfi_endproc
 250              	.LFE1:
 251              		.size	I2C_Enable_RestoreConfig, .-I2C_Enable_RestoreConfig
 252              		.section	.text.I2C_Enable_Sleep,"ax",%progbits
 253              		.align	2
 254              		.global	I2C_Enable_Sleep
 255              		.thumb
 256              		.thumb_func
 257              		.type	I2C_Enable_Sleep, %function
 258              	I2C_Enable_Sleep:
 259              	.LFB2:
  64:Generated_Source\PSoC5/I2C_Enable_PM.c **** }
  65:Generated_Source\PSoC5/I2C_Enable_PM.c **** 
  66:Generated_Source\PSoC5/I2C_Enable_PM.c **** 
  67:Generated_Source\PSoC5/I2C_Enable_PM.c **** /*******************************************************************************
  68:Generated_Source\PSoC5/I2C_Enable_PM.c **** * Function Name: I2C_Enable_Sleep
  69:Generated_Source\PSoC5/I2C_Enable_PM.c **** ********************************************************************************
  70:Generated_Source\PSoC5/I2C_Enable_PM.c **** *
  71:Generated_Source\PSoC5/I2C_Enable_PM.c **** * Summary:
  72:Generated_Source\PSoC5/I2C_Enable_PM.c **** *  Prepares the component for entering the low power mode.
  73:Generated_Source\PSoC5/I2C_Enable_PM.c **** *
  74:Generated_Source\PSoC5/I2C_Enable_PM.c **** * Parameters:
  75:Generated_Source\PSoC5/I2C_Enable_PM.c **** *  None
  76:Generated_Source\PSoC5/I2C_Enable_PM.c **** *
  77:Generated_Source\PSoC5/I2C_Enable_PM.c **** * Return:
  78:Generated_Source\PSoC5/I2C_Enable_PM.c **** *  None
  79:Generated_Source\PSoC5/I2C_Enable_PM.c **** *
  80:Generated_Source\PSoC5/I2C_Enable_PM.c **** *******************************************************************************/
  81:Generated_Source\PSoC5/I2C_Enable_PM.c **** void I2C_Enable_Sleep(void) 
  82:Generated_Source\PSoC5/I2C_Enable_PM.c **** {
 260              		.loc 1 82 0
 261              		.cfi_startproc
 262              		@ args = 0, pretend = 0, frame = 0
 263              		@ frame_needed = 0, uses_anonymous_args = 0
 264              		@ link register save eliminated.
 265              	.LBB6:
 266              	.LBB7:
  42:Generated_Source\PSoC5/I2C_Enable_PM.c **** }
 267              		.loc 1 42 0
 268 0000 024A     		ldr	r2, .L8
 269 0002 034B     		ldr	r3, .L8+4
 270 0004 1278     		ldrb	r2, [r2]	@ zero_extendqisi2
 271 0006 1A70     		strb	r2, [r3]
 272 0008 7047     		bx	lr
 273              	.L9:
 274 000a 00BF     		.align	2
 275              	.L8:
 276 000c 75650040 		.word	1073767797
 277 0010 00000000 		.word	.LANCHOR0
 278              	.LBE7:
 279              	.LBE6:
 280              		.cfi_endproc
 281              	.LFE2:
 282              		.size	I2C_Enable_Sleep, .-I2C_Enable_Sleep
 283              		.section	.text.I2C_Enable_Wakeup,"ax",%progbits
 284              		.align	2
ARM GAS  C:\Users\Bruger\AppData\Local\Temp\ccDDrgt5.s 			page 17


 285              		.global	I2C_Enable_Wakeup
 286              		.thumb
 287              		.thumb_func
 288              		.type	I2C_Enable_Wakeup, %function
 289              	I2C_Enable_Wakeup:
 290              	.LFB3:
  83:Generated_Source\PSoC5/I2C_Enable_PM.c ****     I2C_Enable_SaveConfig();
  84:Generated_Source\PSoC5/I2C_Enable_PM.c **** }
  85:Generated_Source\PSoC5/I2C_Enable_PM.c **** 
  86:Generated_Source\PSoC5/I2C_Enable_PM.c **** 
  87:Generated_Source\PSoC5/I2C_Enable_PM.c **** /*******************************************************************************
  88:Generated_Source\PSoC5/I2C_Enable_PM.c **** * Function Name: I2C_Enable_Wakeup
  89:Generated_Source\PSoC5/I2C_Enable_PM.c **** ********************************************************************************
  90:Generated_Source\PSoC5/I2C_Enable_PM.c **** *
  91:Generated_Source\PSoC5/I2C_Enable_PM.c **** * Summary:
  92:Generated_Source\PSoC5/I2C_Enable_PM.c **** *  Restores the component after waking up from the low power mode.
  93:Generated_Source\PSoC5/I2C_Enable_PM.c **** *
  94:Generated_Source\PSoC5/I2C_Enable_PM.c **** * Parameters:
  95:Generated_Source\PSoC5/I2C_Enable_PM.c **** *  None
  96:Generated_Source\PSoC5/I2C_Enable_PM.c **** *
  97:Generated_Source\PSoC5/I2C_Enable_PM.c **** * Return:
  98:Generated_Source\PSoC5/I2C_Enable_PM.c **** *  None
  99:Generated_Source\PSoC5/I2C_Enable_PM.c **** *
 100:Generated_Source\PSoC5/I2C_Enable_PM.c **** *******************************************************************************/
 101:Generated_Source\PSoC5/I2C_Enable_PM.c **** void I2C_Enable_Wakeup(void)  
 102:Generated_Source\PSoC5/I2C_Enable_PM.c **** {
 291              		.loc 1 102 0
 292              		.cfi_startproc
 293              		@ args = 0, pretend = 0, frame = 0
 294              		@ frame_needed = 0, uses_anonymous_args = 0
 295              		@ link register save eliminated.
 296              	.LBB8:
 297              	.LBB9:
  63:Generated_Source\PSoC5/I2C_Enable_PM.c **** }
 298              		.loc 1 63 0
 299 0000 024A     		ldr	r2, .L11
 300 0002 034B     		ldr	r3, .L11+4
 301 0004 1278     		ldrb	r2, [r2]	@ zero_extendqisi2
 302 0006 1A70     		strb	r2, [r3]
 303 0008 7047     		bx	lr
 304              	.L12:
 305 000a 00BF     		.align	2
 306              	.L11:
 307 000c 00000000 		.word	.LANCHOR0
 308 0010 75650040 		.word	1073767797
 309              	.LBE9:
 310              	.LBE8:
 311              		.cfi_endproc
 312              	.LFE3:
 313              		.size	I2C_Enable_Wakeup, .-I2C_Enable_Wakeup
 314              		.bss
 315              		.align	2
 316              		.set	.LANCHOR0,. + 0
 317              		.type	I2C_Enable_backup, %object
 318              		.size	I2C_Enable_backup, 1
 319              	I2C_Enable_backup:
 320 0000 00       		.space	1
ARM GAS  C:\Users\Bruger\AppData\Local\Temp\ccDDrgt5.s 			page 18


 321 0001 000000   		.text
 322              	.Letext0:
 323              		.file 2 "Generated_Source\\PSoC5\\cytypes.h"
 324              		.file 3 "Generated_Source\\PSoC5\\I2C_Enable.h"