ARM GAS  C:\Users\Bruger\AppData\Local\Temp\ccm7ySnP.s 			page 1


   1              		.syntax unified
   2              		.cpu cortex-m3
   3              		.fpu softvfp
   4              		.eabi_attribute 20, 1
   5              		.eabi_attribute 21, 1
   6              		.eabi_attribute 23, 3
   7              		.eabi_attribute 24, 1
   8              		.eabi_attribute 25, 1
   9              		.eabi_attribute 26, 1
  10              		.eabi_attribute 30, 2
  11              		.eabi_attribute 34, 1
  12              		.eabi_attribute 18, 4
  13              		.thumb
  14              		.file	"I2C_INT.c"
  15              		.text
  16              	.Ltext0:
  17              		.section	.gnu.lto_.profile.24bfac4c,"",%progbits
  18 0000 789C6366 		.ascii	"x\234cf```c\200\000F\206E\214\313\031\001\004|\001V"
  18      60606063 
  18      80004686 
  18      458CCB19 
  18      01047C01 
  19              		.text
  20              		.section	.gnu.lto_.jmpfuncs.24bfac4c,"",%progbits
  21 0000 789C6366 		.ascii	"x\234cf\300\016X\2414#\210\000\000\000\332\000\012"
  21      C00E58A1 
  21      34238800 
  21      0000DA00 
  21      0A
  22              		.text
  23              		.section	.gnu.lto_.inline.24bfac4c,"",%progbits
  24 0000 789C6366 		.ascii	"x\234cf\300\016$\2404#\003\303JFaF\006\2463L\257&01"
  24      C00E24A0 
  24      342303C3 
  24      4A466146 
  24      06A6334C 
  25 0018 B02D9067 		.ascii	"\260-\220g\002\213\003\0008g\003\356"
  25      028B0300 
  25      386703EE 
  26              		.text
  27              		.section	.gnu.lto_.pureconst.24bfac4c,"",%progbits
  28 0000 789C6366 		.ascii	"x\234cf```f\200\000F\006)\000\000z\000\""
  28      60606066 
  28      80004606 
  28      2900007A 
  28      0022
  29              		.text
  30              		.section	.gnu.lto_I2C_ISR.24bfac4c,"",%progbits
  31 0000 789C9D59 		.ascii	"x\234\235Yyp\224E\026\357\356\231d&3\223\373d\022B."
  31      79709445 
  31      16EFEE99 
  31      64263393 
  31      FB641242 
  32 0015 C8AEC86E 		.ascii	"\310\256\310nA\225\012\324\256l\025.\032\254Z\251\362"
  32      41950AD4 
  32      AE6C152E 
  32      1AAC5AA9 
ARM GAS  C:\Users\Bruger\AppData\Local\Temp\ccm7ySnP.s 			page 2


  32      F2
  33 0026 A24A4A44 		.ascii	"\242JJDMy\256\"+\036\245\2243I\224\210r\030<\000\011"
  33      4D79AE22 
  33      2B1EA594 
  33      33499488 
  33      72183C00 
  34 003b 06144439 		.ascii	"\006\024D9r\200\012\202\232\013P!\011!7\004\0021\301"
  34      72800A82 
  34      9A0B5021 
  34      09213704 
  34      0231C1
  35 004e 28181208 		.ascii	"(\030\022\010\211Q\003\333\357u\177\235\231\317\011"
  35      895103DB 
  35      EF757F9D 
  35      99CF09
  36 005d F992FCF1 		.ascii	"\371\222\374\361\322\335\337{\277\367\372]\335\3377"
  36      D2DDDF7B 
  36      BFF7FA5D 
  36      DDDF37
  37 006c 26F2E7BF 		.ascii	"&\362\347\277>JH]\002!\327\3611\375\013\241lU%!n+c\246"
  37      3E4A485D 
  37      0221D7F1 
  37      31FD0BA1 
  37      6C552521 
  38 0084 EC54E2B2 		.ascii	"\354T\342\262\215\007\352013\316\022qf6'\226\207\023"
  38      8D07EA30 
  38      3133CE12 
  38      71663627 
  38      968713
  39 0097 97D50F69 		.ascii	"\227\325\017i8\3228\261\302\374\273\"9_`\336T\316\347"
  39      38D238B1 
  39      C2FCBB22 
  39      395F60DE 
  39      54CEE7
  40 00aa CF2C3873 		.ascii	"\317,8s\340\314\302\254\210\021\200\030V\232(\024\005"
  40      E0CCC2AC 
  40      88118018 
  40      569A2814 
  40      05
  41 00bb 301B2EDB 		.ascii	"0\033.\333q\331\246-\333\265\201C\033\004\262 DKD\264"
  41      71D9A62D 
  41      DBB58143 
  41      1B04B220 
  41      444B44B4 
  42 00cf 20168C62 		.ascii	" \026\214ba(\026\314Bq\026\202\263\020\032*DB5\3310"
  42      612816CC 
  42      42711682 
  42      B3101A2A 
  42      444235D9 
  43 00e4 6D10CE22 		.ascii	"m\020\316\"\220q\0142F\260H\234E\341,Rc\212b\321\270"
  43      90710C32 
  43      46B0489C 
  43      45E12C52 
  43      638A62D1 
  44 00f9 1C83CBD1 		.ascii	"\034\203\313\321\332r\2146\030\303\234\370<\026\237"
  44      DA728C36 
  44      18C39CF8 
ARM GAS  C:\Users\Bruger\AppData\Local\Temp\ccm7ySnP.s 			page 3


  44      3C169F
  45 0108 3BB5E558 		.ascii	";\265\345Xm\020\307\306\342\363x|>V[\216g\343p9\001"
  45      6D10C7C6 
  45      E2F3787C 
  45      3E565B8E 
  45      67E37039 
  46 011d 97C769CB 		.ascii	"\227\307i\313\011\332 \221%\325\376\235?O\335\037\317"
  46      09DA2091 
  46      25D5FE9D 
  46      3F4FDD1F 
  46      CF
  47 012e 9F27B114 		.ascii	"\237'\261\024\370oK\2065G2M\021L)4U\014\3063\344\263"
  47      F86F4B86 
  47      3547324D 
  47      114C2934 
  47      550CC633 
  48 0144 4DC0E713 		.ascii	"M\300\347\023\264\345TJa@(y\205\231\314~\376\026k\200"
  48      B4E5544A 
  48      61402879 
  48      8599CC7E 
  48      FE166B80 
  49 0158 CDEE080C 		.ascii	"\315\356\010\014\012\016\011\015\013\217\210\214\212"
  49      0A0E090D 
  49      0B8F888C 
  49      8A
  50 0165 8E19E38C 		.ascii	"\216\031\343\214\215\033\033?.!1)9e\374\204T\372\012"
  50      8D1B1B3F 
  50      2E213129 
  50      3965FC84 
  50      54FA0A
  51 0178 FD897533 		.ascii	"\375\211u3\272\252x\333\032{\352f\227\313\325\325\272"
  51      BAAA78DB 
  51      1A7BEA66 
  51      97CBD5D5 
  51      BA
  52 0189 CD35A798 		.ascii	"\3155\247\230\3663B.1\221$\364c\232J8\323\271\222\302"
  52      F633422E 
  52      319124F4 
  52      639A4A38 
  52      D3B992C2 
  53 019d B376530A 		.ascii	"\263vS\012\205q\321\341\325\231\226\344\215.W\306\351"
  53      8571D1E1 
  53      D59996E4 
  53      8D2E57C6 
  53      E9
  54 01ae F37BE615 		.ascii	"\363{\346\025\273\363\\W\256^\345R\224n\245&.H\257w"
  54      BBF35C57 
  54      AE5EE552 
  54      946EA526 
  54      2E48AF77 
  55 01c2 D2BF3A65 		.ascii	"\322\277:e\226q\376\356\254\201\006\273\177\026W\020"
  55      9671FEEE 
  55      AC8106BB 
  55      7F165710 
  56 01d2 423FA1C9 		.ascii	"B?\241\311\002\233~J\375y\002RX\311\017+v]\275z)\277"
  56      029B7E4A 
  56      FD790252 
ARM GAS  C:\Users\Bruger\AppData\Local\Temp\ccm7ySnP.s 			page 4


  56      58C90F2B 
  56      765DBD7A 
  57 01e8 644F12CD 		.ascii	"dO\022\315\244\224\300\032#\375<\023\201Xpn\345CS\000"
  57      A494C01A 
  57      23FD3C13 
  57      8158706E 
  57      E5435300 
  58 01fc 101B103B 		.ascii	"\020\033\020;\020\007>\011\204a\020\220` \241@\302\200"
  58      10073E09 
  58      84611090 
  58      6020A140 
  58      C280
  59 020e 840389E0 		.ascii	"\204\003\211\340\204F\302(\012H4\220X q@\022\200$\003"
  59      8446C228 
  59      0A483490 
  59      58207140 
  59      12802403 
  60 0222 49E1C43C 		.ascii	"I\341\304<\036F\327\001\231\010\344z \223\200L\0062"
  60      1E46D701 
  60      9908E47A 
  60      2093804C 
  60      0632
  61 0234 05C88D40 		.ascii	"\005\310\215@n\0022\025\3104 \323\201\334\014d\006\220"
  61      6E023215 
  61      C83420D3 
  61      81DC0C64 
  61      0690
  62 0246 99406E01 		.ascii	"\231@n\0012\013\310\255@n\003\222\006d6\220\333\201"
  62      320BC8AD 
  62      406E0392 
  62      06643690 
  62      DB81
  63 0258 DC01640E 		.ascii	"\334\001d\016\220\273@\371\3350\272\207\023\277{a:\027"
  63      90BB40F9 
  63      DD30BA87 
  63      13BF7B61 
  63      3A17
  64 026a A6F70199 		.ascii	"\246\367\001\231\007\344~X\233\017\243\007\200e\001"
  64      07E47E58 
  64      9B0FA307 
  64      806501
  65 0279 4C1F84E9 		.ascii	"L\037\204\351\303@\322\201<\002\344Q \217\001y\034v"
  65      C340D281 
  65      3C02E451 
  65      208F0179 
  65      1C76
  66 028b FE048C9E 		.ascii	"\376\004\214\236\004\262\020\3103@\026\003y\016\310"
  66      04B210C8 
  66      33401603 
  66      790EC8
  67 029a F3405E00 		.ascii	"\363@^\000\362\"\220\227@\342e\030-\001\342\242@\335"
  67      F2229097 
  67      40E26518 
  67      2D01E2A2 
  67      40DD
  68 02ac 480969E3 		.ascii	"H\011i\343Q\203\004kg\014\376\233\216\323\322\336e\235"
  68      5183046B 
ARM GAS  C:\Users\Bruger\AppData\Local\Temp\ccm7ySnP.s 			page 5


  68      670CFE9B 
  68      8ED3D2DE 
  68      659D
  69 02be 6BA64220 		.ascii	"k\246B \373\230\205\307y\307\321\335\217v\260~\346\337"
  69      FB9885C7 
  69      79C7D1DD 
  69      8F76B07E 
  69      E6DF
  70 02d0 B0DAED32 		.ascii	"\260\332\3552C\344[\332\252\252\255\270\204\211p\265"
  70      43E45BDA 
  70      AAAAADB8 
  70      848970B5 
  71 02e0 606D4170 		.ascii	"`mAp.}\337\235\345.\216\357g\026\272\215:\351v\312S"
  71      2E7DDF9D 
  71      E52E8EEF 
  71      6716BA8D 
  71      3AE976CA 
  72 02f5 85EEA0B9 		.ascii	"\205\356\240\271\224\324\323\014\3274L\014\036V\216"
  72      94D4D30C 
  72      D7344C0C 
  72      1E568E
  73 0304 49B88E9C 		.ascii	"I\270\216\234\302>\267I\350\260r\210\0155+v\262%\277"
  73      C23EB749 
  73      E8B07288 
  73      0D352B76 
  73      B225BF
  74 0317 BBB25D56 		.ascii	"\273\262]V\356\200\001&2L\3511\343\264\325\265\245\337"
  74      EE800126 
  74      324CE931 
  74      E3B4D5B5 
  74      A5DF
  75 0329 027A5C6E 		.ascii	"\002z\\n\316e\245;\351\022\232\217j\012@\315q\232\371"
  75      CE65A53B 
  75      E9129A8F 
  75      6A0A40CD 
  75      719AF9
  76 033c ABBF800C 		.ascii	"\253\277\200\014\020\250E\037n\376<\000\344M\377\"\264"
  76      10A8451F 
  76      6EFE3C00 
  76      E44DFF22 
  76      B4
  77 034d 9073D6D1 		.ascii	"\220s\326\321\254\246\314x\311\303\031\334[\366\275"
  77      ACA6CC78 
  77      C9C319DC 
  77      5BF6BD
  78 035c 6941060E 		.ascii	"iA\006\016RDEr\267\363Yv\252\011\340^\253\374@:\342"
  78      52444572 
  78      B7F35976 
  78      AA09E05E 
  78      ABFC403A 
  79 0371 25E18BEA 		.ascii	"%\341\213\352u[2\203A\000\322y\227\206\370\224\344\361"
  79      755B3283 
  79      4100D279 
  79      9786F894 
  79      E4F1
  80 0383 34198A60 		.ascii	"4\031\212`\267B4\223\362ppmN\367@\265\334\266}\310m"
  80      B7423493 
ARM GAS  C:\Users\Bruger\AppData\Local\Temp\ccm7ySnP.s 			page 6


  80      F270706D 
  80      4EF740B5 
  80      DCB67DC8 
  81 0398 EBF7F999 		.ascii	"\353\367\371\231\332\347\347\260\317&\352?\210p\354"
  81      DAE7E7B0 
  81      CF26EA3F 
  81      8870EC
  82 03a7 8F3FB6D2 		.ascii	"\217?\266\322\225t\271;\313\225\267/\000J\234\364\200"
  82      9574B93B 
  82      CB95B72F 
  82      004A9CF4 
  82      80
  83 03b8 6E42BFE0 		.ascii	"nB\277\340\313\234a\177na\211\037n\361\337\200]\366"
  83      CB9C617F 
  83      6E61891F 
  83      6EF1DF80 
  83      5DF6
  84 03ca 59C3513F 		.ascii	"Y\303Q?\311?`\342\374t\017G\356aX\273{\205\310\361s"
  84      C93F60E2 
  84      FC740F47 
  84      EE6158BB 
  84      7B85C8F1 
  85 03df B98D4264 		.ascii	"\271\215Bd\026\210\234\310\375\245\337\"E\326[@\344"
  85      16889CC8 
  85      FDA5DF22 
  85      45D65B40 
  85      E4
  86 03f0 4B143181 		.ascii	"K\0241\201\310>!\322\361\3737I(\221\006\022\347?\316"
  86      C83E21D2 
  86      F1FB3749 
  86      28910612 
  86      E73FCE
  87 0403 2FD1945C 		.ascii	"/\321\224\\A%\373\007\225|%$\326\326v\2540\241\310l"
  87      4125FB07 
  87      957C2524 
  87      D6D676AC 
  87      30A1C86C 
  88 0417 10693E98 		.ascii	"\020i>\230\271+H\212d\303>\350\327(b\006\221o\270\010"
  88      B92B488A 
  88      64C33EE8 
  88      D7286206 
  88      916FB808 
  89 042b BAD18F74 		.ascii	"\272\321\217t\233M\215\324\035\002\016\000<\014\322"
  89      9B4D8DD4 
  89      1D020E00 
  89      3C0CD2
  90 043a C1AD0B85 		.ascii	"\301\255\013\205C\034\"H_\356\257\251Bh\332\302\243"
  90      431C2248 
  90      5FEEAFA9 
  90      4268DAC2 
  90      A3
  91 044b 54CC71EA 		.ascii	"T\314q\352)\033\314?\207\220\252\337:WH\005\012\251"
  91      291BCC3F 
  91      8790AADF 
  91      3A574805 
  91      0AA9
  92 045d E5BF7557 		.ascii	"\345\277uW\004\241A6BKDh\0333wR\311\3049>z\347\335\355"
ARM GAS  C:\Users\Bruger\AppData\Local\Temp\ccm7ySnP.s 			page 7


  92      04A14136 
  92      424B4468 
  92      1B337752 
  92      C9C4393E 
  93 0475 C22F5642 		.ascii	"\302/VBKUl\375I>\025\261=\270)@p'\030\216m\231\212m"
  93      4B556CFD 
  93      493E15B1 
  93      3DB82940 
  93      7027188E 
  94 048d 39C41675 		.ascii	"9\304\026u~-u&`l\204\022\013\231\214:\012\217\264\332"
  94      7E2D7526 
  94      606C8412 
  94      0B998C3A 
  94      0A8FB4DA 
  95 04a1 C5D3641F 		.ascii	"\305\323d\037:\374|\3528\240t\034\224:\2322;\245\216"
  95      3AFC7CEA 
  95      38A0741C 
  95      943A9A32 
  95      3BA58E
  96 04b4 648FB4B7 		.ascii	"d\217\264\267\222\030\256##\247\273\2424X<M\321\353"
  96      9218AE23 
  96      23A7BBA2 
  96      34583C4D 
  96      D1EB
  97 04c6 08189035 		.ascii	"\010\030\2205\257\362<\000\247[\335Y\353)\252DK\350"
  97      AFF23C00 
  97      A75BDD59 
  97      EB29AA44 
  97      4BE8
  98 04d8 21AEF25B 		.ascii	"!\256\362[T\371\235(\315\322^\233\200\034\317\271\327"
  98      54F99D28 
  98      CDD25E9B 
  98      801CCFB9 
  98      D7
  99 04e9 BDB5A73E 		.ascii	"\275\265\247>\000\033\006?^\254\\\2154\357{\311\233"
  99      001B063F 
  99      5EAC5C8D 
  99      34EF7BC9 
  99      9B
 100 04fa B3711230 		.ascii	"\263q\0220s\3167\326\266o\307\240\3707j\315\247*\273"
 100      73CE37D6 
 100      B66FC7A0 
 100      F8376ACD 
 100      A72ABB
 101 050d F50D26BB 		.ascii	"\365\015&\273\315?\241\333\034V\335\346\010\227\347"
 101      CD3FA1DB 
 101      1C56DDE6 
 101      0897E7
 102 051c 1A00A26B 		.ascii	"\032\000\242kU%\223\030\203\355\211z7\247\012\316\016"
 102      55259318 
 102      83ED897A 
 102      37A70ACE 
 102      0E
 103 052d 61AD6EA9 		.ascii	"a\255n\251\306t\261\230\011\255\344O@\274\2532#P\312"
 103      C674B198 
 103      09ADE44F 
 103      40BCAB32 
ARM GAS  C:\Users\Bruger\AppData\Local\Temp\ccm7ySnP.s 			page 8


 103      2350CA
 104 0540 EB9D6CF1 		.ascii	"\353\235l\361\351\344*\345\344\243\002V\265\012+O\302"
 104      E9E42AE5 
 104      E4A30256 
 104      B50A2B4F 
 104      C2
 105 0551 6A095B50 		.ascii	"j\011[P{1`\010X\337\371qL\301\326\010\330\357;\362:"
 105      7B316008 
 105      58DFF971 
 105      4CC1D608 
 105      D8EF3BF2 
 106 0566 19C2CE22 		.ascii	"\031\302\316\"\264\026c\327\316\203\020#2\260.Gf\340"
 106      B41663D7 
 106      CE831023 
 106      32B02E47 
 106      66E0
 107 0578 753E3458 		.ascii	"u>4X}j\250S\032\352u]\324&`\3265\264\367\210J\345U\331"
 107      7D6AA853 
 107      1AEA755D 
 107      D42660D6 
 107      35B4F788 
 108 0590 A0F5BC4D 		.ascii	"\240\365\274ML2y$\220\2158D\2226\224\312$\235\354\303"
 108      4C327924 
 108      908D3844 
 108      923694CA 
 108      249DECC3 
 109 05a4 8C009F66 		.ascii	"\214\000\237f4*3\232\244\031=\322\214)\034\006\013\022"
 109      342A339A 
 109      A4193DD2 
 109      8C291C06 
 109      0B12
 110 05b6 A0E910DE 		.ascii	"\240\351\020\336\363\015z\\\201\236\300\324\230\"b\333"
 110      F30D7A5C 
 110      819EC0D4 
 110      982262DB 
 111 05c6 3CC22034 		.ascii	"<\302 4+\230\223\"\010+Wf_\026Ax\200\320SZlO\036\263"
 111      2B989322 
 111      082B5766 
 111      5F164178 
 111      80D0535A 
 112 05de 48D8B72E 		.ascii	"H\330\267.,\255\260\301s\233\253,\323\025\344U06TQ\235"
 112      2CADB0C1 
 112      739BAB2C 
 112      D315E455 
 112      30365451 
 113 05f3 E51AF0D3 		.ascii	"\345\032\360\323\222\322\316\033\225\223\236F\015g\204"
 113      92D2CE1B 
 113      95939E46 
 113      0D6784
 114 0602 86819A15 		.ascii	"\206\201\232\025]v`w\270\\\334\355\2552\320v\341\341"
 114      5D766077 
 114      B85CDCED 
 114      AD32D076 
 114      E1E1
 115 0614 DE651727 		.ascii	"\336e\027'\012\347\\\317y?8\323\261A\024I\275V$\307"
 115      0AE75CCF 
 115      793F38D3 
ARM GAS  C:\Users\Bruger\AppData\Local\Temp\ccm7ySnP.s 			page 9


 115      B1411449 
 115      BD5624C7 
 116 0628 FA7E3C64 		.ascii	"\372~<d\035\314\371\037T\316\267\351\234;I@\034n\375"
 116      1DCCF91F 
 116      54CEB7E9 
 116      9C3B4940 
 116      1C6EFD
 117 063b F5920363 		.ascii	"\365\222\003c\034Bh\273\316\327C\202\235E\247N\302\335"
 117      1C4268BB 
 117      CED74382 
 117      9D45A74E 
 117      C2DD
 118 064d 1F6DD1EA 		.ascii	"\037m\321\352m\240\363\213\025\210\345\337\244\231\263"
 118      6DA0F38B 
 118      1588E5DF 
 118      A499B3
 119 065c 6E47D345 		.ascii	"nG\323E\307 \302\217\012\241C\354v\313\311W\177\303"
 119      C720C28F 
 119      0AA143EC 
 119      76CBC957 
 119      7FC3
 120 066e 83DAC2D5 		.ascii	"\203\332\302\325\377$\324/\034\256|\177\346\262X\257"
 120      FF24D42F 
 120      1CAE7C7F 
 120      E6B258AF 
 121 067e E01807B9 		.ascii	"\340\030\007\271\202w\227\256\202\2639\226\341$\317"
 121      827797AE 
 121      82B33996 
 121      E124CF
 122 068d 09AD2A24 		.ascii	"\011\255*$\274\242\351y-\212?\226\216,9~Q\311\321)`"
 122      BCA2E979 
 122      2D8A3F96 
 122      8E2C397E 
 122      51C9D129 
 123 06a2 776497BC 		.ascii	"wd\227\274\216\260\326\331\204^\220\366\005\222R\223"
 123      8EB0D6D9 
 123      845E90F6 
 123      05925293 
 124 06b2 09BBFBB9 		.ascii	"\011\273\373\271w\345\225\"\020\223ZTN\2204?\247\273"
 124      77E59522 
 124      10935A54 
 124      4E90343F 
 124      A7BB
 125 06c4 B3545670 		.ascii	"\263TVp\220\341,\357R\026t\353\242\033,`\312\253Ol\363"
 125      90E12CEF 
 125      521674EB 
 125      A21B2C60 
 125      CAAB4F6C 
 126 06d9 C7E8E6F1 		.ascii	"\307\350\346\361^tqT\245tI)\351\301\250\007\213[\\O"
 126      5E747154 
 126      A5744929 
 126      E9C1A807 
 126      8B5B5C4F 
 127 06ed 8645A80A 		.ascii	"\206E\250\0125\334p.+\244^]\303\231\310a\006;\214v\014"
 127      35DC702E 
 127      2BA45E5D 
 127      C399C861 
ARM GAS  C:\Users\Bruger\AppData\Local\Temp\ccm7ySnP.s 			page 10


 127      063B8C76 
 128 0702 4EF4E830 		.ascii	"N\364\3500\301d\206p\323\345\034yD\205\033\016T\237"
 128      C1648670 
 128      D3E51C79 
 128      44851B0E 
 128      549F
 129 0714 D2FBAB4E 		.ascii	"\322\373\253No\030\207\301\003\035\365n{/[^\321\302"
 129      6F1887C1 
 129      031DF56E 
 129      7B2F5B5E 
 129      D1C2
 130 0726 94E63616 		.ascii	"\224\3466\026B\306\231\332Y(\352\317h\\Z\356'X\"\373"
 130      42C699DA 
 130      5928EACF 
 130      685C5AEE 
 130      275822FB 
 131 073a F01622BD 		.ascii	"\360\026\"\275\331\307\242\014;\264_\231\363\233.j\321"
 131      D9C7A20C 
 131      3BB45F99 
 131      F39B2E6A 
 131      D1
 132 074b 081B358A 		.ascii	"\010\0335\212 \375\2560\377\300 E\213~\327[4\262\224"
 132      20FDAE30 
 132      FFC02045 
 132      8B7ED75B 
 132      34B294
 133 075e 1E503057 		.ascii	"\036P0W\240\306T\203\353S\2455d\373\272\012\002\330"
 133      A0C65483 
 133      EB53A535 
 133      64FBBA0A 
 133      02D8
 134 0770 ADCE5278 		.ascii	"\255\316Rx\013m\374\366\275\033 \363\270\301\324\305"
 134      0B6DFCF6 
 134      BD1B20F3 
 134      B8C1D4C5 
 135 0780 9CC1DB4F 		.ascii	"\234\301\333O\3469</[\274\035R7s\206@p\303Dp{\227\325"
 135      E6393C2F 
 135      5BBC1D52 
 135      37738640 
 135      70C34470 
 136 0797 E72F129E 		.ascii	"\347/\022\236\210\275V\367\311`\336n\213\343\374\306"
 136      88BD56F7 
 136      C960DE6E 
 136      8BE3FCC6 
 137 07a7 7B572603 		.ascii	"{W&\003\007\305\211\3365\240\365\256!\033U\026g7\334"
 137      07C589DE 
 137      35A0F5AE 
 137      211B5516 
 137      6737DC
 138 07ba 995E651E 		.ascii	"\231^e\036\235)\334\373\316j\022\267\317\336\275\362"
 138      9D29DCFB 
 138      CE6A12B7 
 138      CFDEBDF2 
 139 07ca F619216E 		.ascii	"\366\031!n\237U"
 139      9F55
 140 07d0 A7CB5662 		.ascii	"\247\313Vb\323\244\274\333\277\306t\267\317\010\217"
 140      D3A4BCDB 
ARM GAS  C:\Users\Bruger\AppData\Local\Temp\ccm7ySnP.s 			page 11


 140      BFC674B7 
 140      CF088F
 141 07df 578908B2 		.ascii	"W\211\010\262\207\211\032\250-\223\247\354,\303\267"
 141      87891AA8 
 141      2D93A7EC 
 141      2CC3B7
 142 07ee 94A54C8B 		.ascii	"\224\245L\213l6\223w-\251\342V\303\327\311\327\025\306"
 142      6C369377 
 142      2DA9E256 
 142      C3D7C9D7 
 142      15C6
 143 0800 3226AE93 		.ascii	"2&\256\223GT\255\316\342@\322\316H\262\236\342u\262"
 143      4754ADCE 
 143      E240D2CE 
 143      48B29EE2 
 143      75B2
 144 0812 B0FEC3C9 		.ascii	"\260\376\303\311\342\351]C^'\365\367\3077\230v\177|"
 144      E2E95D43 
 144      5E27F5F7 
 144      C7379876 
 144      7F7C
 145 0824 5367E7DD 		.ascii	"Sg\347\335\206\367\272\\\331\271B`d\234\222\275\352"
 145      86F7BA5C 
 145      D9B94260 
 145      649C92BD 
 145      EA
 146 0835 1E0E0361 		.ascii	"\036\016\003aX#3\347^n\032_\365\274\246\316\365qM\275"
 146      582333E7 
 146      5E6E1A5F 
 146      F5BCA6CE 
 146      F5714DBD 
 147 0849 57C2ADD4 		.ascii	"W\302\255\324L\352\256\373A+,\317[\3514\357[\351*\314"
 147      4CEAAEFB 
 147      412B2CCF 
 147      5BE934EF 
 147      5BE92ACC 
 148 085d B4B922D3 		.ascii	"\264\271\"\323\352M\303%\317[Z\362\210\233\324.\031"
 148      EA4DC325 
 148      CF5B5AF2 
 148      889BD42E 
 148      19
 149 086e E3FB0CEF 		.ascii	"\343\373\014\357;G\355{\265\254\220\034\271\317y\034"
 149      3B47ED7B 
 149      B5AC901C 
 149      B9CF791C 
 150 087e 46BB8A0E 		.ascii	"F\273\212\016\331Y|\203\276\255@\337\301\355\314\303"
 150      D9597C83 
 150      BEAD40DF 
 150      C1EDCCC3 
 151 088e 18478918 		.ascii	"\030G\211\030sO4\327H\337\336f\370\034xWA\276\307\274"
 151      734F34D7 
 151      48DFDE66 
 151      F81C7857 
 151      41BEC7BC 
 152 08a2 FBF18D1C 		.ascii	"\373\361\215\034f\360\034\270(#\177\243\3079\020M\304"
 152      66F01CB8 
 152      28237FA3 
ARM GAS  C:\Users\Bruger\AppData\Local\Temp\ccm7ySnP.s 			page 12


 152      C739104D 
 152      C4
 153 08b3 A78A9CC2 		.ascii	"\247\212\234\302S\231\322A\263\015w\3115J\361Z]\013"
 153      5399D241 
 153      B30D77C9 
 153      354AF15A 
 153      5D0B
 154 08c5 B99DC38C 		.ascii	"\271\235\303\214\362\252\271N\201\276\217\016\272]\264"
 154      F2AAB94E 
 154      81BE8F0E 
 154      BA5DB4
 155 08d4 DE965D23 		.ascii	"\336\226]#k\275\353\025L.\363l\275m\253\207m\275\033"
 155      6BBDEB15 
 155      4C2EF36C 
 155      BD6DAB87 
 155      6DBD1B
 156 08e7 98D67AB9 		.ascii	"\230\326z\271\203b\210\366-\247\365\037bow\\\253\033"
 156      836288F6 
 156      2DA7F51F 
 156      626F775C 
 156      AB1B
 157 08f9 7EA073C4 		.ascii	"~\240s\304\034\316o\274\227\346\341\216\347\210\014"
 157      1CCE6FBC 
 157      97E6E18E 
 157      E7880C
 158 0908 3F6B1AAE 		.ascii	"?k\032\256\227n\034I/\335\344\331K\307h\275\257\372"
 158      976E1C49 
 158      2FDDE4D9 
 158      4BC768BD 
 158      AFFA
 159 091a BC3CA26F 		.ascii	"\274<\242o2\234n\037*\317~\244K\2674\0163\230n\2552"
 159      329C6E1F 
 159      2ACF7EA4 
 159      4BB7340E 
 159      33986EAD 
 160 092f DDD23CD2 		.ascii	"\335\322<\322\315\251\345yag\231\274\236M3\234\031\233"
 160      CDA9E579 
 160      616799BC 
 160      9E4D339C 
 160      199B
 161 0941 95E22D3A 		.ascii	"\225\342-:/O\0270\233[\2526\211\027\254u\374z\3661\033"
 161      2F4F1730 
 161      9B5BAA36 
 161      8917AC75 
 161      FC7AF631 
 162 0956 4DFA6D55 		.ascii	"M\372mUJ>\301`L\027\351\327s\3112\242\364\373T\301l"
 162      4A3EC160 
 162      4C17E9D7 
 162      73C932A2 
 162      F4FB54C1 
 163 096b F34ABFCB 		.ascii	"\363J\277\3135~\303\245\337v\317\364\213\225\016\343"
 163      357EC3A5 
 163      DF76CFF4 
 163      8B950EE3 
 164 097b 2F2A378B 		.ascii	"/*7\213\275\336|\255\004\332\241s\314\014\316o<\375"
 164      BDDE7CAD 
 164      04DAA173 
ARM GAS  C:\Users\Bruger\AppData\Local\Temp\ccm7ySnP.s 			page 13


 164      CC0CCE6F 
 164      3CFD
 165 098d 76E28E67 		.ascii	"v\342\216g\210\364\353\0336\375\362G\222~\005^\335x"
 165      88F4EB1B 
 165      36FDF247 
 165      927E055E 
 165      DD78
 166 099f 408BFE4C 		.ascii	"@\213\376L\303\201)T\036-\322m\362\026\001St`\303\005"
 166      C3812954 
 166      1E2DD26D 
 166      F2160153 
 166      7460C305 
 167 09b3 11FD55F0 		.ascii	"\021\375U\360MqT\321\337\255\224|\206\276\270\005\203"
 167      4D7154D1 
 167      DFAD947C 
 167      86BEB805 
 167      83
 168 09c4 10E77DF3 		.ascii	"\020\347}\3630\023<\215\017\274-\367p\277\217\323\330"
 168      30133C8D 
 168      0FBC2DF7 
 168      70BF8FD3 
 168      D8
 169 09d5 E6F334FE 		.ascii	"\346\3634\376\\\235\306_\350N\343\371>L\264\3734q\217"
 169      5C9DC65F 
 169      E84EE3F9 
 169      3E4CB4FB 
 169      34718F
 170 09e8 3271AFEE 		.ascii	"2q\257\3564~\200\303x\236\306\013\270i|\025O\343e\345"
 170      347E80C3 
 170      789EC60B 
 170      B8697C15 
 170      4FE365E5 
 171 09fc 92E941AF 		.ascii	"\222\351A\2573\226z\237\260_jVm\274I\013\276:\272\335"
 171      33967A9F 
 171      B05F6A56 
 171      6DBC490B 
 171      BE3ABADD 
 172 0a10 C5697878 		.ascii	"\305ixx/\220\332\367\241\203\036\024\347\367\201\335"
 172      2F90DAF7 
 172      A1831E14 
 172      E7F781DD 
 173 0a20 D2170F1B 		.ascii	"\322\027\017\033\336\307~\265\217\257t\247k:\207\031"
 173      DEC77EB5 
 173      8FAF74A7 
 173      6B3A8719 
 174 0a30 F674F50D 		.ascii	"\366t\365\015\372\265\002\375\006\315K\027\351v\250"
 174      FAB502FD 
 174      06CD4B17 
 174      E976A8
 175 0a3f 479AF788 		.ascii	"G\232\367\210a\244b\205T\242\013\325\243>0\034>1J\025"
 175      61A46285 
 175      54A20BD5 
 175      A33E301C 
 175      3E314A15 
 176 0a53 4699BAE0 		.ascii	"F\231\272\340i7\321G8\220l\212ce3\356*8R\3537\\\035"
 176      6937D147 
 176      38906C8A 
ARM GAS  C:\Users\Bruger\AppData\Local\Temp\ccm7ySnP.s 			page 14


 176      636533EE 
 176      2A3852EB 
 177 0a6a 956B4507 		.ascii	"\225kE\007\222\361\352\012[\361\266\214\357c\206\373"
 177      92F1EA0A 
 177      5BF1B68C 
 177      EF6386FB 
 178 0a7a F80165DD 		.ascii	"\370\001e\335A]\037\237\312a\376\334\307\247z\364\361"
 178      415D1F9F 
 178      CA61FEDC 
 178      C7A77AF4 
 178      F1
 179 0a8b 71AA8F57 		.ascii	"q\252\217W\225K\327>a\270\310\016)\305\337\352*\371"
 179      954BD73E 
 179      61B8C80E 
 179      29C5DFEA 
 179      2AF9
 180 0a9d 4901A3BD 		.ascii	"I\001\243\275\353\230\370\273\316w\243\252\343\357\225"
 180      EB98F8BB 
 180      CE77A3AA 
 180      E3EF95
 181 0aac 8AC39807 		.ascii	"\212\303\230\007O\212.^\3333\262.~D\301Txu\361\272\332"
 181      4F8A2E5E 
 181      DB33B22E 
 181      7E44C154 
 181      7875F1BA 
 182 0ac1 61BB78A5 		.ascii	"a\273x\245g\027O\030\354\342\263\305N\027^\253\017W"
 182      67174F18 
 182      ECE2B3C5 
 182      4E175EAB 
 182      0F57
 183 0ad3 E9DCF20C 		.ascii	"\351\334\362\014\3477\336\305\217\342\216\237\021]\274"
 183      E737DEC5 
 183      8FE28E9F 
 183      115DBC
 184 0ae2 C13C5C42 		.ascii	"\301<\\BU\203\241\347\245\241\211\360\203\015t:\374"
 184      5583A1E7 
 184      A5A189F0 
 184      830D743A 
 184      FC
 185 0af3 F1A39E66 		.ascii	"\361\243\236f\204\020\361\255_\344\307k\247*\3447\227"
 185      8410F1AD 
 185      5FE4C76B 
 185      A72AE437 
 185      97
 186 0b04 C7F91247 		.ascii	"\307\371\022G=\263\374\362.\212o[\011\204\036c\336?"
 186      3DB3FCF2 
 186      2E8A6F5B 
 186      09841E63 
 186      DE3F
 187 0b16 E33CAEBD 		.ascii	"\343<\256\275l\235\245\334 \213\251\271pa\037s\004\276"
 187      6C9DA5DC 
 187      208BA9B9 
 187      70611F73 
 187      04BE
 188 0b28 597D1AA6 		.ascii	"Y}\032\246N\234Z\306\221>\370^\314\0378\304\003G(L\254"
 188      4E9C5AC6 
 188      913EF85E 
ARM GAS  C:\Users\Bruger\AppData\Local\Temp\ccm7ySnP.s 			page 15


 188      CC1F38C4 
 188      0347284C 
 189 0b3d 40EC406C 		.ascii	"@\354@l@\302\200+ZH\304\3008\022H,\220\261@\022\300"
 189      40C2802B 
 189      5A48C4C0 
 189      3812482C 
 189      90B14012 
 190 0b52 F824F273 		.ascii	"\370$\362s\264\374\366\323#\253\3419\303\241\256Q\241"
 190      B4FCF6D3 
 190      23ABE139 
 190      C3A1AE51 
 190      A1
 191 0b63 AED555C3 		.ascii	"\256\325U\303b\016\243>j\310\333\322b\217\017\032\311"
 191      620EA33E 
 191      6AC8DBD2 
 191      628F0F1A 
 191      C9
 192 0b74 A43CC8D4 		.ascii	"\244<\310\324\316R\204\366\214\306\245m\222\351\371"
 192      CE5284F6 
 192      8CC6A56D 
 192      92E9F9
 193 0b83 3E7C4955 		.ascii	">|IU\215\343\005\303\351[\247\214\251\327\245\302\213"
 193      8DE305C3 
 193      E95BA78C 
 193      A9D7A5C2 
 193      8B
 194 0b94 08FBC228 		.ascii	"\010\373\302(J\242Aa6b\202\274(\316\205+\025\323\005"
 194      4AA24161 
 194      366282BC 
 194      28CE852B 
 194      15D305
 195 0ba7 F2CBD7CA 		.ascii	"\362\313\327\312\251&\235O\226\010\376O*\327\374\214"
 195      A9269D4F 
 195      9608FE4F 
 195      2AD7FC8C 
 196 0bb7 5F1F2C17 		.ascii	"_\037,\027\370\221{\234\031\314\320\023h\300\022QK="
 196      F8917B9C 
 196      19CCD013 
 196      68C01251 
 196      4B3D
 197 0bc9 3D7E23AA 		.ascii	"=~#\252\311f\265\217\223\314\373\233\247\225'\353)\206"
 197      C966B58F 
 197      93CCFB9B 
 197      A79527EB 
 197      2986
 198 0bdb 5F4C4C7C 		.ascii	"_LL|\375PnG\221\031?\215p\333Z\2303\251\371\375\001"
 198      FD506E47 
 198      91193F8D 
 198      70DB5A98 
 198      33A9F9FD 
 199 0bf0 E0579FE1 		.ascii	"\340W\237\341\031#\3644s&C\356\214\027\277T\362\206"
 199      1923F434 
 199      732643EE 
 199      8C17BF54 
 199      F286
 200 0c02 D65B2BC3 		.ascii	"\326[+\303\347\242\206m:\243lj\3259\312M\001\010\213"
 200      E7A2866D 
ARM GAS  C:\Users\Bruger\AppData\Local\Temp\ccm7ySnP.s 			page 16


 200      3AA36C6A 
 200      D539CA4D 
 200      01088B
 201 0c15 174B6391 		.ascii	"\027Kc\221\266\354\321L'\310\274\355*8\264\346\236\021"
 201      B6ECD14C 
 201      27C8BCED 
 201      2A38B4E6 
 201      9E11
 202 0c27 F9E207A5 		.ascii	"\371\342\007\245\267\015\373\023\023U\234\212?@\237"
 202      B70DFB13 
 202      13559C8A 
 202      3F409F
 203 0c36 A2EEE2BD 		.ascii	"\242\356\342\275\255V\000\024\211Ja\231#%\336\232\376"
 203      AD560014 
 203      894A6199 
 203      2325DE9A 
 203      FE
 204 0c47 54FAA205 		.ascii	"T\372\242\005\317\246?<\377\316\247\027/z(}\336\234"
 204      CFA63F3C 
 204      FFCEA717 
 204      2F7A287D 
 204      DE9C
 205 0c59 3B9F9E79 		.ascii	";\237\236y\303\274\264)3\347\247\375\347\256\277=D\374"
 205      C3BCB429 
 205      33E7A7FD 
 205      E7AEBF3D 
 205      44FC
 206 0c6b 9FFDEFC2 		.ascii	"\237\375\357\302\231\377[\364\177\272\000\261I"
 206      99FF5BF4 
 206      7FBA00B1 
 206      49
 207              		.text
 208              		.section	.gnu.lto_.symbol_nodes.24bfac4c,"",%progbits
 209 0000 789C2DC4 		.ascii	"x\234-\304A\021\2000\014E\301\327\244i\303\015Y\270"
 209      41118030 
 209      0C45C1D7 
 209      A469C30D 
 209      59B8
 210 0012 8A051430 		.ascii	"\212\005\0240(BS\373g\330\303:p\3613\012\356\017\252"
 210      284253FB 
 210      67D8C33A 
 210      70F1330A 
 210      EE0FAA
 211 0025 78DE241A 		.ascii	"x\336$\032g\021\326\264\233\356\256\243\353\021z\016"
 211      6711D6B4 
 211      9BEEAEA3 
 211      EB117A0E 
 212 0035 9D531FB9 		.ascii	"\235S\037\271g\001\257\327\011\364"
 212      6701AFD7 
 212      09F4
 213              		.text
 214              		.section	.gnu.lto_.refs.24bfac4c,"",%progbits
 215 0000 789C258E 		.ascii	"x\234%\2161\013A\001\024\205\277\343\275w=\223d@\211"
 215      310B4101 
 215      1485BFE3 
 215      BD773D93 
 215      644089
ARM GAS  C:\Users\Bruger\AppData\Local\Temp\ccm7ySnP.s 			page 17


 216 0013 51A20CC4 		.ascii	"Q\242\014\304\177\264\310@\371/\026b\022%6%6\211E(%"
 216      7FB4C840 
 216      F92F1662 
 216      12253625 
 216      36894528 
 217 0028 DC72EB74 		.ascii	"\334r\353t\316W\337p\003`\314\377\232\240\000\305(M"
 217      CE57DF70 
 217      0360CCFF 
 217      9AA000C5 
 217      284D
 218 003a 22439055 		.ascii	"\"C\220U\230\223\362D\005\254(+Ie\251\202Ue5\242:j`"
 218      9893F244 
 218      05AC282B 
 218      4965A982 
 218      556535A2 
 219 0051 2D595BEA 		.ascii	"-Y[\352\020N 1\205`\006\341\334\263@\341\022\242\025"
 219      104E2031 
 219      856006E1 
 219      DCB340E1 
 219      12A215
 220 0064 D81AD906 		.ascii	"\330\032\331\006i\353\274s\336;\037\234\217\276O\276"
 220      69EBBC73 
 220      DE3B1F9C 
 220      8FBE4FBE 
 221 0074 CF90BC40 		.ascii	"\317\220\274@|\365\334\374\201\273\367\003RO\367_\356"
 221      7CF5DCFC 
 221      81BBF703 
 221      524FF75F 
 221      EE
 222 0085 BCDDF9B8 		.ascii	"\274\335\371\270\377\365\007\273\302z\222\365%\015\204"
 222      FFF507BB 
 222      C27A92F5 
 222      250D84
 223 0094 86DE23F1 		.ascii	"\206\336#\361\0036o\036y"
 223      03366F1E 
 223      79
 224              		.text
 225              		.section	.gnu.lto_.decls.24bfac4c,"",%progbits
 226 0000 789C9594 		.ascii	"x\234\225\224mLSW\030\307\357\323[\012\275\266\365\345"
 226      6D4C5357 
 226      18C7EFD3 
 226      5B0ABDB6 
 226      F5E5
 227 0012 032C641F 		.ascii	"\003,d\037hXH\226\020?@\226\370m\011|p|1D\334\366A\022"
 227      68584896 
 227      103F4096 
 227      F86D097C 
 227      707C3144 
 228 002a B340B799 		.ascii	"\263@\267\23180\245$s\237\216\340\006\326m\316\006\202"
 228      3830A524 
 228      739F8EE0 
 228      06D66DCE 
 228      0682
 229 003c 32187563 		.ascii	"2\030uc\233\255\2147\345\265\2247a\224b\025\241\345"
 229      9BAD8C37 
 229      E5B59437 
 229      61946215 
ARM GAS  C:\Users\Bruger\AppData\Local\Temp\ccm7ySnP.s 			page 18


 229      A1E5
 230 004e 2573E145 		.ascii	"%s\341E\335p\272\244D4R7\273\347\236s\240\334\313\\"
 230      DD70BAA4 
 230      44345237 
 230      BBE79E73 
 230      A0DCCB5C 
 231 0062 DC4DFEB7 		.ascii	"\334M\376\267\367\234>\347\367\374\237\347\336sDA\020"
 231      F79C3EE7 
 231      F7FC9FE7 
 231      DE734441 
 231      10
 232 0073 E65051BC 		.ascii	"\346PQ\274jt\202\220\012\202\240\301q\256\020\273pJ"
 232      6A748290 
 232      0A82A0C1 
 232      71AE10BB 
 232      704A
 233 0085 6842E951 		.ascii	"hB\351QWQ\235\250\036\224\007\345E\015\240\206P\327"
 233      57519DA8 
 233      1E9407E5 
 233      450DA086 
 233      50D7
 234 0097 50A382F2 		.ascii	"P\243\202\362\222\327\0319\257\025\365\026*\021\325"
 234      92D71939 
 234      AF15F516 
 234      2A11D5
 235 00a6 8532A0C6 		.ascii	"\2052\240\306Qc\250v\224\037\025DM\241\314\252\334F"
 235      5163A876 
 235      941F1544 
 235      4DA1CCAA 
 235      DC46
 236 00b8 9E3B849A 		.ascii	"\236;\204\232A\315r\337\377\307\313\252\006z\232\327"
 236      41CD72DF 
 236      FFC7CBAA 
 236      067A9AD7 
 237 00c8 023B5634 		.ascii	"\002;V4`\222R\344a\257\303w^\207C\203\244\225\207\236"
 237      609252E4 
 237      61AFC377 
 237      5E874383 
 237      A495879E 
 238 00dc 67CB416D 		.ascii	"g\313AmR5\301\353\253r\262K\013\271\211\360#$\303%H"
 238      5235C1EB 
 238      AB72B24B 
 238      0BB989F0 
 238      2324C325 
 239 00f1 46272E48 		.ascii	"F'.H\302\373a-#\325\205.\371\343E\015\310\317\337\235"
 239      C2FB612D 
 239      23D5852E 
 239      F9E3450D 
 239      C8CFDF9D 
 240 0105 5F0A4AE9 		.ascii	"_\012J\351n\\VI\006'!\226n\242*\370P\227\362\015q\266"
 240      6E5C5649 
 240      06272196 
 240      6EA22AF8 
 240      5097F20D 
 241 011b 865D7DA3 		.ascii	"\206]}\243\006\342#\203\321\350\233\024\005n\020\341"
 241      06E22383 
 241      D1E89B14 
ARM GAS  C:\Users\Bruger\AppData\Local\Temp\ccm7ySnP.s 			page 19


 241      056E10E1 
 242 012b 32A4D322 		.ascii	"2\244\323\"\361\231U\333\004)\270\354\344\017\236\317"
 242      F19955DB 
 242      0429B8EC 
 242      E40F9ECF 
 243 013b E3D156A2 		.ascii	"\343\321V\242D)_N\324\016\211t\030\245\351f\006**\022"
 243      44295F4E 
 243      D40E8974 
 243      18A5E966 
 243      062A2A12 
 244 014f C44CF959 		.ascii	"\304L\371Y3?_\265.\202\224VIH\031\011;\210\370\212\000"
 244      333F5FB5 
 244      2E829456 
 244      49481909 
 244      3B88F88A 
 245 0164 E9C9F07A 		.ascii	"\351\311\360z\262\000m\220\206Kh\016\370\011\253h\306"
 245      B2006D90 
 245      864B680E 
 245      F809AB68 
 245      C6
 246 0175 2A1AD163 		.ascii	"*\032\321cx=<\375*!Zh\005\011Z6]\320l\334w\307\023{"
 246      783D3CFD 
 246      2A215A68 
 246      05095A36 
 246      5DD06CDC 
 247 018d 8F514266 		.ascii	"\217QBf\371K01\276\272\246\267,N<\314\334y=\025;R/\222"
 247      F94B3031 
 247      BEBAA6B7 
 247      2C4E3CCC 
 247      DC793D15 
 248 01a5 C6F270E0 		.ascii	"\306\362p\340\316TR\015YBgX5@;\346\273\302\362q\236"
 248      CE54520D 
 248      59426758 
 248      35403BE6 
 248      BBC2F271 
 249 01ba 208F69E1 		.ascii	" \217i\341W!\025\327\216\254?z\254\023+\200\202\356"
 249      572115D7 
 249      8EAC3F7A 
 249      AC132B80 
 249      82EE
 250 01cc 07168222 		.ascii	"\007\026\202\"\005-\336\217\344\017\237<E\236G\243\214"
 250      052DDE8F 
 250      E40F9F3C 
 250      459E47A3 
 250      8C
 251 01dd D2A1A274 		.ascii	"\322\241\242tpJ'\245\314\257=\2543\030\354rG\3605\352"
 251      704A27A5 
 251      CCAF3DAC 
 251      3318EC72 
 251      47F035EA 
 252 01f1 7D26BA26 		.ascii	"}&\272&\366\"\273\300\300\353\254?{7b\024/\260|v\367"
 252      F622BBC0 
 252      C0EBAC3F 
 252      7B376214 
 252      2FB07C76 
 253 0206 EFF35ACC 		.ascii	"\357\363Z\314\347,s\256\264\223\254S<\037FC7\317\027"
 253      E72C73AE 
ARM GAS  C:\Users\Bruger\AppData\Local\Temp\ccm7ySnP.s 			page 20


 253      B493AC53 
 253      3C1F4643 
 253      37CF17
 254 0219 6374F38C 		.ascii	"ct\363\214=<c\250\032D7\343|\177\326\336\242\247\276"
 254      3D3C63A8 
 254      1A4437E3 
 254      7C7FD6DE 
 254      A2A7BE
 255 022c 9D7F3493 		.ascii	"\235\1774\223\254\255\276{U\276{9\305C)\347\\\325-Z"
 255      ACADBE7B 
 255      55BE7B39 
 255      C54329E7 
 255      5CD52D5A 
 256 0240 D1CB286D 		.ascii	"\321\313(m\336{W\200U?\367DY}\237\212\322\307)^J\011"
 256      DE7B5780 
 256      553FF744 
 256      597D9F8A 
 256      D2C7295E 
 257 0256 D91F7B25 		.ascii	"\331\037{%1\300(\243\315\276\247\334\313M\225\227~\025"
 257      31C028A3 
 257      CDBEA7DC 
 257      CB4D9597 
 257      7E15
 258 0268 A59F5306 		.ascii	"\245\237S\006(\345r\370\3213\255x\233Q\356=\017\320"
 258      28E572F8 
 258      D133AD78 
 258      9B51EE3D 
 258      0FD0
 259 027a 57EA2C5B 		.ascii	"W\352,[\374%R8\274\2653\203\333:3\3109C\224s\247\343"
 259      FC255238 
 259      BCB53383 
 259      DB3A33C8 
 259      39439473 
 260 0290 DB805EFC 		.ascii	"\333\200^\374\223qj;\310E\211\271\371U\345fX\345f\230"
 260      93716A3B 
 260      C84589B9 
 260      F955E566 
 260      58E56698 
 261 02a4 53AE51CA 		.ascii	"S\256Q\312ok\375\215:\221\260\335\346\230\356jI`\224"
 261      6F6BFD8D 
 261      3A91B0DD 
 261      E698EE6A 
 261      496094
 262 02b7 DB2ACA88 		.ascii	"\333*\312\210\2122\302)\243\224Bj\3164&\210\016J\321"
 262      8A32C229 
 262      A394426A 
 262      CE342688 
 262      0E4AD1
 263 02ca 046FD867 		.ascii	"\004o\330g\364l\343\250?r\337\0137N\325\302k\362\306"
 263      F46CE3A8 
 263      3F72DF0B 
 263      374ED5C2 
 263      6BF2C6
 264 02dd 19C3543F 		.ascii	"\031\303T?\3076\016f\336\3349\247\227k\003\312ooL\361"
 264      C7360E66 
 264      DEDC39A7 
 264      976B03CA 
ARM GAS  C:\Users\Bruger\AppData\Local\Temp\ccm7ySnP.s 			page 21


 264      6F6F4CF1 
 265 02f1 ED8DB36F 		.ascii	"\355\215\263oO\376\305\350\340\271\317\374FE\264\334"
 265      4FFEC5E8 
 265      E0B9CFFC 
 265      4645B4DC 
 266 0301 D358B49F 		.ascii	"\323X\264\237G\373it\245\243\363A\234X\303\272\260q"
 266      47FB6974 
 266      A5A3F341 
 266      9C58C3BA 
 266      B071
 267 0313 4698D919 		.ascii	"F\230\331\031\261\360\365z\243\236\016\345\223|\247"
 267      B1F0F57A 
 267      A39E0EE5 
 267      937CA7
 268 0322 3CB53437 		.ascii	"<\26547\333\027/\326\263r=\303\216[\022\244Ir\035\213"
 268      DB172FD6 
 268      B3723DC3 
 268      8E5B12A4 
 268      49721D8B 
 269 0336 11978900 		.ascii	"\021\227\211\000L\242\261\033\261*\314\274\210\312\230"
 269      4CA2B11B 
 269      B12ACCBC 
 269      88CA98
 270 0345 1B61D30A 		.ascii	"\033a\323\012\334\304\236\230yO\256\343d\200m\374\251"
 270      DCC49E98 
 270      794FAEE3 
 270      64806DFC 
 270      A9
 271 0356 EAD58604 		.ascii	"\352\325\206\004vP\274\344\022\315\231\247+\253\246"
 271      7650BCE4 
 271      12CD99A7 
 271      2BABA6
 272 0365 8DC66F5B 		.ascii	"\215\306o[4\375/\213\250\347\353-{\320\363\024z\236"
 272      34FD2F8B 
 272      A8E7EB2D 
 272      7BD0F314 
 272      7A9E
 273 0377 8879BEB5 		.ascii	"\210y\276\265\245\363\335\343m\313\032E/\247\024\235"
 273      A5F3DDE3 
 273      6DCB1A45 
 273      2FA7149D 
 274 0387 0FF25E06 		.ascii	"\017\362^\006i/\377\252\377\342\230\271A>\261\007\263"
 274      692FFFAA 
 274      FFE298B9 
 274      413EB107 
 274      B3
 275 0398 F098A727 		.ascii	"\360\230\247'/;\202C`\306\377'\233\272\377\326\321\200"
 275      2F3B8243 
 275      60C6FF27 
 275      9BBAFFD6 
 275      D180
 276 03aa B02B3266 		.ascii	"\260+2f\"UZe\324\014\215r_\370\364\001\320(g]\005\211"
 276      22555A65 
 276      D40C8D72 
 276      5FF8F401 
 276      D028675D 
 277 03c0 0365CC2C 		.ascii	"\003e\314,\215\251]n\270kd1\225\247\267\305\314\201"
ARM GAS  C:\Users\Bruger\AppData\Local\Temp\ccm7ySnP.s 			page 22


 277      8DA95D6E 
 277      B86B6431 
 277      95A7B7C5 
 277      CC81
 278 03d2 5988CFC9 		.ascii	"Y\210\317\311\310>\222\223wP\267\377\300\333)\331\202"
 278      C83E9293 
 278      7750B7FF 
 278      C0DB29D9 
 278      82
 279 03e3 79BFA5C8 		.ascii	"y\277\245\310b}\317f)<\222W\\j-\260\344\347\346\025"
 279      627DCF66 
 279      293C9257 
 279      5C6A2DB0 
 279      E4E7E615 
 280 03f7 67BF914F 		.ascii	"g\277\221O\243\016\034\332[ \304\225\036-\262\355{Q"
 280      A30E1CDA 
 280      5B20C495 
 280      1E2DB2ED 
 280      7B51
 281 0409 5CC109DB 		.ascii	"\\\301\011\333\211\343\226\222\275\037\012zyI\211\015"
 281      89E39692 
 281      BD1F0A7A 
 281      7949890D 
 282 0419 43FE8B99 		.ascii	"C\376\213\231\373\316!\214\335-?~Tb\263\276k\315*}?"
 282      FBCE218C 
 282      DD2D3F7E 
 282      5462B3BE 
 282      6BCD2A7D 
 283 042e EFE82796 		.ascii	"\357\350'\226]\212\231\\\233u\217b\"\247\250\320\362"
 283      5D8A995C 
 283      9B758F62 
 283      22A7A8D0 
 283      F2
 284 043f F1CE8DA9 		.ascii	"\361\316\215\251\354\342\"\233\265\370\230ic\234\207"
 284      ECE2229B 
 284      B5F89869 
 284      639C87
 285 044e 594B4B36 		.ascii	"YKK6\021\007\013U\010:A\021\273\025Srb\255\325\362\301"
 285      11070B55 
 285      083A4111 
 285      BB155372 
 285      62ADD5F2 
 286 0463 BE38BC65 		.ascii	"\2768\274ef\350\344J33\376\001d\260\212\203"
 286      66E8E44A 
 286      3333FE01 
 286      64B08A83 
 287              		.text
 288              		.section	.gnu.lto_.symtab.24bfac4c,"",%progbits
 289 0000 4932435F 		.ascii	"I2C_ISR\000\000\000\000\000\000\000\000\000\000\000"
 289      49535200 
 289      00000000 
 289      00000000 
 289      0000
 290 0012 00AC0000 		.ascii	"\000\254\000\000\000I2C_state\000\000\002\000\000\000"
 290      00493243 
 290      5F737461 
 290      74650000 
ARM GAS  C:\Users\Bruger\AppData\Local\Temp\ccm7ySnP.s 			page 23


 290      02000000 
 291 0026 00000000 		.ascii	"\000\000\000\000\000\000\264\000\000\000I2C_mstrWrB"
 291      0000B400 
 291      00004932 
 291      435F6D73 
 291      74725772 
 292 003b 75665369 		.ascii	"ufSize\000\000\002\000\000\000\000\000\000\000\000\000"
 292      7A650000 
 292      02000000 
 292      00000000 
 292      0000
 293 004d B6000000 		.ascii	"\266\000\000\000I2C_mstrWrBufPtr\000\000\002\000\000"
 293      4932435F 
 293      6D737472 
 293      57724275 
 293      66507472 
 294 0066 00000000 		.ascii	"\000\000\000\000\000\000\000\271\000\000\000I2C_mst"
 294      000000B9 
 294      00000049 
 294      32435F6D 
 294      7374
 295 0078 72577242 		.ascii	"rWrBufIndex\000\000\002\000\000\000\000\000\000\000"
 295      7566496E 
 295      64657800 
 295      00020000 
 295      00000000 
 296 008d 0000BB00 		.ascii	"\000\000\273\000\000\000I2C_mstrControl\000\000\002"
 296      00004932 
 296      435F6D73 
 296      7472436F 
 296      6E74726F 
 297 00a5 00000000 		.ascii	"\000\000\000\000\000\000\000\000\000\275\000\000\000"
 297      00000000 
 297      00BD0000 
 297      00
 298 00b2 4932435F 		.ascii	"I2C_mstrStatus\000\000\002\000\000\000\000\000\000\000"
 298      6D737472 
 298      53746174 
 298      75730000 
 298      02000000 
 299 00ca 0000BF00 		.ascii	"\000\000\277\000\000\000I2C_mstrRdBufPtr\000\000\002"
 299      00004932 
 299      435F6D73 
 299      74725264 
 299      42756650 
 300 00e3 00000000 		.ascii	"\000\000\000\000\000\000\000\000\000\301\000\000\000"
 300      00000000 
 300      00C10000 
 300      00
 301 00f0 4932435F 		.ascii	"I2C_mstrRdBufIndex\000\000\002\000\000\000\000\000\000"
 301      6D737472 
 301      52644275 
 301      66496E64 
 301      65780000 
 302 010b 000000C3 		.ascii	"\000\000\000\303\000\000\000I2C_mstrRdBufSize\000\000"
 302      00000049 
 302      32435F6D 
ARM GAS  C:\Users\Bruger\AppData\Local\Temp\ccm7ySnP.s 			page 24


 302      73747252 
 302      64427566 
 303 0125 02000000 		.ascii	"\002\000\000\000\000\000\000\000\000\000\305\000\000"
 303      00000000 
 303      0000C500 
 303      00
 304 0132 00       		.ascii	"\000"
 305              		.text
 306              		.section	.gnu.lto_.opts,"",%progbits
 307 0000 272D666E 		.ascii	"'-fno-trapv' '-mcpu=cortex-m3' '-mthumb' '-g' '-O3'"
 307      6F2D7472 
 307      61707627 
 307      20272D6D 
 307      6370753D 
 308 0033 20272D66 		.ascii	" '-ffunction-sections' '-finline-functions' '-flto'"
 308      66756E63 
 308      74696F6E 
 308      2D736563 
 308      74696F6E 
 309 0066 20272D66 		.ascii	" '-ffat-lto-objects'\000"
 309      6661742D 
 309      6C746F2D 
 309      6F626A65 
 309      63747327 
 310              		.text
 311              		.cfi_sections	.debug_frame
 312              		.section	.text.I2C_ISR,"ax",%progbits
 313              		.align	2
 314              		.global	I2C_ISR
 315              		.thumb
 316              		.thumb_func
 317              		.type	I2C_ISR, %function
 318              	I2C_ISR:
 319              	.LFB0:
 320              		.file 1 "Generated_Source\\PSoC5\\I2C_INT.c"
   1:Generated_Source\PSoC5/I2C_INT.c **** /*******************************************************************************
   2:Generated_Source\PSoC5/I2C_INT.c **** * File Name: I2C_INT.c
   3:Generated_Source\PSoC5/I2C_INT.c **** * Version 3.50
   4:Generated_Source\PSoC5/I2C_INT.c **** *
   5:Generated_Source\PSoC5/I2C_INT.c **** * Description:
   6:Generated_Source\PSoC5/I2C_INT.c **** *  This file provides the source code of Interrupt Service Routine (ISR)
   7:Generated_Source\PSoC5/I2C_INT.c **** *  for the I2C component.
   8:Generated_Source\PSoC5/I2C_INT.c **** *
   9:Generated_Source\PSoC5/I2C_INT.c **** ********************************************************************************
  10:Generated_Source\PSoC5/I2C_INT.c **** * Copyright 2008-2015, Cypress Semiconductor Corporation. All rights reserved.
  11:Generated_Source\PSoC5/I2C_INT.c **** * You may use this file only in accordance with the license, terms, conditions,
  12:Generated_Source\PSoC5/I2C_INT.c **** * disclaimers, and limitations in the end user license agreement accompanying
  13:Generated_Source\PSoC5/I2C_INT.c **** * the software package with which this file was provided.
  14:Generated_Source\PSoC5/I2C_INT.c **** *******************************************************************************/
  15:Generated_Source\PSoC5/I2C_INT.c **** 
  16:Generated_Source\PSoC5/I2C_INT.c **** #include "I2C_PVT.h"
  17:Generated_Source\PSoC5/I2C_INT.c **** 
  18:Generated_Source\PSoC5/I2C_INT.c **** 
  19:Generated_Source\PSoC5/I2C_INT.c **** 
  20:Generated_Source\PSoC5/I2C_INT.c **** /*******************************************************************************
  21:Generated_Source\PSoC5/I2C_INT.c **** *  Place your includes, defines and code here.
  22:Generated_Source\PSoC5/I2C_INT.c **** ********************************************************************************/
ARM GAS  C:\Users\Bruger\AppData\Local\Temp\ccm7ySnP.s 			page 25


  23:Generated_Source\PSoC5/I2C_INT.c **** /* `#START I2C_ISR_intc` */
  24:Generated_Source\PSoC5/I2C_INT.c **** 
  25:Generated_Source\PSoC5/I2C_INT.c **** /* `#END` */
  26:Generated_Source\PSoC5/I2C_INT.c **** 
  27:Generated_Source\PSoC5/I2C_INT.c **** 
  28:Generated_Source\PSoC5/I2C_INT.c **** /*******************************************************************************
  29:Generated_Source\PSoC5/I2C_INT.c **** * Function Name: I2C_ISR
  30:Generated_Source\PSoC5/I2C_INT.c **** ********************************************************************************
  31:Generated_Source\PSoC5/I2C_INT.c **** *
  32:Generated_Source\PSoC5/I2C_INT.c **** * Summary:
  33:Generated_Source\PSoC5/I2C_INT.c **** *  The handler for the I2C interrupt. The slave and master operations are
  34:Generated_Source\PSoC5/I2C_INT.c **** *  handled here.
  35:Generated_Source\PSoC5/I2C_INT.c **** *
  36:Generated_Source\PSoC5/I2C_INT.c **** * Parameters:
  37:Generated_Source\PSoC5/I2C_INT.c **** *  None.
  38:Generated_Source\PSoC5/I2C_INT.c **** *
  39:Generated_Source\PSoC5/I2C_INT.c **** * Return:
  40:Generated_Source\PSoC5/I2C_INT.c **** *  None.
  41:Generated_Source\PSoC5/I2C_INT.c **** *
  42:Generated_Source\PSoC5/I2C_INT.c **** * Reentrant:
  43:Generated_Source\PSoC5/I2C_INT.c **** *  No.
  44:Generated_Source\PSoC5/I2C_INT.c **** *
  45:Generated_Source\PSoC5/I2C_INT.c **** *******************************************************************************/
  46:Generated_Source\PSoC5/I2C_INT.c **** CY_ISR(I2C_ISR)
  47:Generated_Source\PSoC5/I2C_INT.c **** {
 321              		.loc 1 47 0
 322              		.cfi_startproc
 323              		@ args = 0, pretend = 0, frame = 0
 324              		@ frame_needed = 0, uses_anonymous_args = 0
  48:Generated_Source\PSoC5/I2C_INT.c **** #if (I2C_MODE_SLAVE_ENABLED)
  49:Generated_Source\PSoC5/I2C_INT.c ****    uint8  tmp8;
  50:Generated_Source\PSoC5/I2C_INT.c **** #endif  /* (I2C_MODE_SLAVE_ENABLED) */
  51:Generated_Source\PSoC5/I2C_INT.c **** 
  52:Generated_Source\PSoC5/I2C_INT.c ****     uint8  tmpCsr;
  53:Generated_Source\PSoC5/I2C_INT.c ****     
  54:Generated_Source\PSoC5/I2C_INT.c **** #ifdef I2C_ISR_ENTRY_CALLBACK
  55:Generated_Source\PSoC5/I2C_INT.c ****     I2C_ISR_EntryCallback();
  56:Generated_Source\PSoC5/I2C_INT.c **** #endif /* I2C_ISR_ENTRY_CALLBACK */
  57:Generated_Source\PSoC5/I2C_INT.c ****     
  58:Generated_Source\PSoC5/I2C_INT.c **** 
  59:Generated_Source\PSoC5/I2C_INT.c **** #if(I2C_TIMEOUT_FF_ENABLED)
  60:Generated_Source\PSoC5/I2C_INT.c ****     if(0u != I2C_TimeoutGetStatus())
  61:Generated_Source\PSoC5/I2C_INT.c ****     {
  62:Generated_Source\PSoC5/I2C_INT.c ****         I2C_TimeoutReset();
  63:Generated_Source\PSoC5/I2C_INT.c ****         I2C_state = I2C_SM_EXIT_IDLE;
  64:Generated_Source\PSoC5/I2C_INT.c ****         /* I2C_CSR_REG should be cleared after reset */
  65:Generated_Source\PSoC5/I2C_INT.c ****     }
  66:Generated_Source\PSoC5/I2C_INT.c **** #endif /* (I2C_TIMEOUT_FF_ENABLED) */
  67:Generated_Source\PSoC5/I2C_INT.c **** 
  68:Generated_Source\PSoC5/I2C_INT.c **** 
  69:Generated_Source\PSoC5/I2C_INT.c ****     tmpCsr = I2C_CSR_REG;      /* Make copy as interrupts clear */
 325              		.loc 1 69 0
 326 0000 844B     		ldr	r3, .L36
  70:Generated_Source\PSoC5/I2C_INT.c **** 
  71:Generated_Source\PSoC5/I2C_INT.c **** #if(I2C_MODE_MULTI_MASTER_SLAVE_ENABLED)
  72:Generated_Source\PSoC5/I2C_INT.c ****     if(I2C_CHECK_START_GEN(I2C_MCSR_REG))
  73:Generated_Source\PSoC5/I2C_INT.c ****     {
ARM GAS  C:\Users\Bruger\AppData\Local\Temp\ccm7ySnP.s 			page 26


  74:Generated_Source\PSoC5/I2C_INT.c ****         I2C_CLEAR_START_GEN;
  75:Generated_Source\PSoC5/I2C_INT.c **** 
  76:Generated_Source\PSoC5/I2C_INT.c ****         /* Set transfer complete and error flags */
  77:Generated_Source\PSoC5/I2C_INT.c ****         I2C_mstrStatus |= (I2C_MSTAT_ERR_XFER |
  78:Generated_Source\PSoC5/I2C_INT.c ****                                         I2C_GET_MSTAT_CMPLT);
  79:Generated_Source\PSoC5/I2C_INT.c **** 
  80:Generated_Source\PSoC5/I2C_INT.c ****         /* Slave was addressed */
  81:Generated_Source\PSoC5/I2C_INT.c ****         I2C_state = I2C_SM_SLAVE;
  82:Generated_Source\PSoC5/I2C_INT.c ****     }
  83:Generated_Source\PSoC5/I2C_INT.c **** #endif /* (I2C_MODE_MULTI_MASTER_SLAVE_ENABLED) */
  84:Generated_Source\PSoC5/I2C_INT.c **** 
  85:Generated_Source\PSoC5/I2C_INT.c **** 
  86:Generated_Source\PSoC5/I2C_INT.c **** #if(I2C_MODE_MULTI_MASTER_ENABLED)
  87:Generated_Source\PSoC5/I2C_INT.c ****     if(I2C_CHECK_LOST_ARB(tmpCsr))
  88:Generated_Source\PSoC5/I2C_INT.c ****     {
  89:Generated_Source\PSoC5/I2C_INT.c ****         /* Set errors */
  90:Generated_Source\PSoC5/I2C_INT.c ****         I2C_mstrStatus |= (I2C_MSTAT_ERR_XFER     |
  91:Generated_Source\PSoC5/I2C_INT.c ****                                         I2C_MSTAT_ERR_ARB_LOST |
  92:Generated_Source\PSoC5/I2C_INT.c ****                                         I2C_GET_MSTAT_CMPLT);
  93:Generated_Source\PSoC5/I2C_INT.c **** 
  94:Generated_Source\PSoC5/I2C_INT.c ****         I2C_DISABLE_INT_ON_STOP; /* Interrupt on Stop is enabled by write */
  95:Generated_Source\PSoC5/I2C_INT.c **** 
  96:Generated_Source\PSoC5/I2C_INT.c ****         #if(I2C_MODE_MULTI_MASTER_SLAVE_ENABLED)
  97:Generated_Source\PSoC5/I2C_INT.c ****             if(I2C_CHECK_ADDRESS_STS(tmpCsr))
  98:Generated_Source\PSoC5/I2C_INT.c ****             {
  99:Generated_Source\PSoC5/I2C_INT.c ****                 /* Slave was addressed */
 100:Generated_Source\PSoC5/I2C_INT.c ****                 I2C_state = I2C_SM_SLAVE;
 101:Generated_Source\PSoC5/I2C_INT.c ****             }
 102:Generated_Source\PSoC5/I2C_INT.c ****             else
 103:Generated_Source\PSoC5/I2C_INT.c ****             {
 104:Generated_Source\PSoC5/I2C_INT.c ****                 I2C_BUS_RELEASE;
 105:Generated_Source\PSoC5/I2C_INT.c **** 
 106:Generated_Source\PSoC5/I2C_INT.c ****                 I2C_state = I2C_SM_EXIT_IDLE;
 107:Generated_Source\PSoC5/I2C_INT.c ****             }
 108:Generated_Source\PSoC5/I2C_INT.c ****         #else
 109:Generated_Source\PSoC5/I2C_INT.c ****             I2C_BUS_RELEASE;
 110:Generated_Source\PSoC5/I2C_INT.c **** 
 111:Generated_Source\PSoC5/I2C_INT.c ****             I2C_state = I2C_SM_EXIT_IDLE;
 112:Generated_Source\PSoC5/I2C_INT.c **** 
 113:Generated_Source\PSoC5/I2C_INT.c ****         #endif /* (I2C_MODE_MULTI_MASTER_SLAVE_ENABLED) */
 114:Generated_Source\PSoC5/I2C_INT.c ****     }
 115:Generated_Source\PSoC5/I2C_INT.c **** #endif /* (I2C_MODE_MULTI_MASTER_ENABLED) */
 116:Generated_Source\PSoC5/I2C_INT.c **** 
 117:Generated_Source\PSoC5/I2C_INT.c ****     /* Check for master operation mode */
 118:Generated_Source\PSoC5/I2C_INT.c ****     if(I2C_CHECK_SM_MASTER)
 327              		.loc 1 118 0
 328 0002 8549     		ldr	r1, .L36+4
  69:Generated_Source\PSoC5/I2C_INT.c **** 
 329              		.loc 1 69 0
 330 0004 1B78     		ldrb	r3, [r3]	@ zero_extendqisi2
 331              		.loc 1 118 0
 332 0006 0A78     		ldrb	r2, [r1]	@ zero_extendqisi2
  69:Generated_Source\PSoC5/I2C_INT.c **** 
 333              		.loc 1 69 0
 334 0008 DBB2     		uxtb	r3, r3
 335              	.LVL0:
 336              		.loc 1 118 0
ARM GAS  C:\Users\Bruger\AppData\Local\Temp\ccm7ySnP.s 			page 27


 337 000a 5006     		lsls	r0, r2, #25
 338 000c 42D5     		bpl	.L2
 119:Generated_Source\PSoC5/I2C_INT.c ****     {
 120:Generated_Source\PSoC5/I2C_INT.c ****     #if(I2C_MODE_MASTER_ENABLED)
 121:Generated_Source\PSoC5/I2C_INT.c ****         if(I2C_CHECK_BYTE_COMPLETE(tmpCsr))
 339              		.loc 1 121 0
 340 000e DA07     		lsls	r2, r3, #31
  47:Generated_Source\PSoC5/I2C_INT.c **** #if (I2C_MODE_SLAVE_ENABLED)
 341              		.loc 1 47 0
 342 0010 F0B5     		push	{r4, r5, r6, r7, lr}
 343              		.cfi_def_cfa_offset 20
 344              		.cfi_offset 4, -20
 345              		.cfi_offset 5, -16
 346              		.cfi_offset 6, -12
 347              		.cfi_offset 7, -8
 348              		.cfi_offset 14, -4
 349              		.loc 1 121 0
 350 0012 2AD5     		bpl	.L3
 122:Generated_Source\PSoC5/I2C_INT.c ****         {
 123:Generated_Source\PSoC5/I2C_INT.c ****             switch (I2C_state)
 351              		.loc 1 123 0
 352 0014 0A78     		ldrb	r2, [r1]	@ zero_extendqisi2
 353 0016 453A     		subs	r2, r2, #69
 354 0018 052A     		cmp	r2, #5
 355 001a 26D8     		bhi	.L3
 356 001c DFE802F0 		tbb	[pc, r2]
 357              	.L5:
 358 0020 03       		.byte	(.L4-.L5)/2
 359 0021 66       		.byte	(.L6-.L5)/2
 360 0022 25       		.byte	(.L3-.L5)/2
 361 0023 25       		.byte	(.L3-.L5)/2
 362 0024 03       		.byte	(.L4-.L5)/2
 363 0025 40       		.byte	(.L7-.L5)/2
 364              		.p2align 1
 365              	.L4:
 124:Generated_Source\PSoC5/I2C_INT.c ****             {
 125:Generated_Source\PSoC5/I2C_INT.c ****             case I2C_SM_MSTR_WR_ADDR:  /* After address is sent, write data */
 126:Generated_Source\PSoC5/I2C_INT.c ****             case I2C_SM_MSTR_RD_ADDR:  /* After address is sent, read data */
 127:Generated_Source\PSoC5/I2C_INT.c **** 
 128:Generated_Source\PSoC5/I2C_INT.c ****                 tmpCsr &= ((uint8) ~I2C_CSR_STOP_STATUS); /* Clear Stop bit history on address phas
 129:Generated_Source\PSoC5/I2C_INT.c **** 
 130:Generated_Source\PSoC5/I2C_INT.c ****                 if(I2C_CHECK_ADDR_ACK(tmpCsr))
 366              		.loc 1 130 0
 367 0026 03F00A02 		and	r2, r3, #10
 368 002a 082A     		cmp	r2, #8
 128:Generated_Source\PSoC5/I2C_INT.c **** 
 369              		.loc 1 128 0
 370 002c 03F0DF03 		and	r3, r3, #223
 371              	.LVL1:
 372              		.loc 1 130 0
 373 0030 00F08880 		beq	.L33
 131:Generated_Source\PSoC5/I2C_INT.c ****                 {
 132:Generated_Source\PSoC5/I2C_INT.c ****                     /* Setup for transmit or receive of data */
 133:Generated_Source\PSoC5/I2C_INT.c ****                     if(I2C_state == I2C_SM_MSTR_WR_ADDR)   /* TRANSMIT data */
 134:Generated_Source\PSoC5/I2C_INT.c ****                     {
 135:Generated_Source\PSoC5/I2C_INT.c ****                         /* Check if at least one byte to transfer */
 136:Generated_Source\PSoC5/I2C_INT.c ****                         if(I2C_mstrWrBufSize > 0u)
ARM GAS  C:\Users\Bruger\AppData\Local\Temp\ccm7ySnP.s 			page 28


 137:Generated_Source\PSoC5/I2C_INT.c ****                         {
 138:Generated_Source\PSoC5/I2C_INT.c ****                             /* Load the 1st data byte */
 139:Generated_Source\PSoC5/I2C_INT.c ****                             I2C_DATA_REG = I2C_mstrWrBufPtr[0u];
 140:Generated_Source\PSoC5/I2C_INT.c ****                             I2C_TRANSMIT_DATA;
 141:Generated_Source\PSoC5/I2C_INT.c ****                             I2C_mstrWrBufIndex = 1u;   /* Set index to 2nd element */
 142:Generated_Source\PSoC5/I2C_INT.c **** 
 143:Generated_Source\PSoC5/I2C_INT.c ****                             /* Set transmit state until done */
 144:Generated_Source\PSoC5/I2C_INT.c ****                             I2C_state = I2C_SM_MSTR_WR_DATA;
 145:Generated_Source\PSoC5/I2C_INT.c ****                         }
 146:Generated_Source\PSoC5/I2C_INT.c ****                         /* End of buffer: complete writing */
 147:Generated_Source\PSoC5/I2C_INT.c ****                         else if(I2C_CHECK_NO_STOP(I2C_mstrControl))
 148:Generated_Source\PSoC5/I2C_INT.c ****                         {
 149:Generated_Source\PSoC5/I2C_INT.c ****                             /* Set write complete and master halted */
 150:Generated_Source\PSoC5/I2C_INT.c ****                             I2C_mstrStatus |= (I2C_MSTAT_XFER_HALT |
 151:Generated_Source\PSoC5/I2C_INT.c ****                                                             I2C_MSTAT_WR_CMPLT);
 152:Generated_Source\PSoC5/I2C_INT.c **** 
 153:Generated_Source\PSoC5/I2C_INT.c ****                             I2C_state = I2C_SM_MSTR_HALT; /* Expect ReStart */
 154:Generated_Source\PSoC5/I2C_INT.c ****                             I2C_DisableInt();
 155:Generated_Source\PSoC5/I2C_INT.c ****                         }
 156:Generated_Source\PSoC5/I2C_INT.c ****                         else
 157:Generated_Source\PSoC5/I2C_INT.c ****                         {
 158:Generated_Source\PSoC5/I2C_INT.c ****                             I2C_ENABLE_INT_ON_STOP; /* Enable interrupt on Stop, to catch it */
 159:Generated_Source\PSoC5/I2C_INT.c ****                             I2C_GENERATE_STOP;
 160:Generated_Source\PSoC5/I2C_INT.c ****                         }
 161:Generated_Source\PSoC5/I2C_INT.c ****                     }
 162:Generated_Source\PSoC5/I2C_INT.c ****                     else  /* Master receive data */
 163:Generated_Source\PSoC5/I2C_INT.c ****                     {
 164:Generated_Source\PSoC5/I2C_INT.c ****                         I2C_READY_TO_READ; /* Release bus to read data */
 165:Generated_Source\PSoC5/I2C_INT.c **** 
 166:Generated_Source\PSoC5/I2C_INT.c ****                         I2C_state  = I2C_SM_MSTR_RD_DATA;
 167:Generated_Source\PSoC5/I2C_INT.c ****                     }
 168:Generated_Source\PSoC5/I2C_INT.c ****                 }
 169:Generated_Source\PSoC5/I2C_INT.c ****                 /* Address is NACKed */
 170:Generated_Source\PSoC5/I2C_INT.c ****                 else if(I2C_CHECK_ADDR_NAK(tmpCsr))
 374              		.loc 1 170 0
 375 0034 0A2A     		cmp	r2, #10
 376 0036 18D1     		bne	.L3
 171:Generated_Source\PSoC5/I2C_INT.c ****                 {
 172:Generated_Source\PSoC5/I2C_INT.c ****                     /* Set Address NAK error */
 173:Generated_Source\PSoC5/I2C_INT.c ****                     I2C_mstrStatus |= (I2C_MSTAT_ERR_XFER |
 377              		.loc 1 173 0
 378 0038 7848     		ldr	r0, .L36+8
 174:Generated_Source\PSoC5/I2C_INT.c ****                                                     I2C_MSTAT_ERR_ADDR_NAK);
 175:Generated_Source\PSoC5/I2C_INT.c **** 
 176:Generated_Source\PSoC5/I2C_INT.c ****                     if(I2C_CHECK_NO_STOP(I2C_mstrControl))
 379              		.loc 1 176 0
 380 003a 794C     		ldr	r4, .L36+12
 173:Generated_Source\PSoC5/I2C_INT.c ****                                                     I2C_MSTAT_ERR_ADDR_NAK);
 381              		.loc 1 173 0
 382 003c 0278     		ldrb	r2, [r0]	@ zero_extendqisi2
 383 003e 42F0A002 		orr	r2, r2, #160
 384 0042 0270     		strb	r2, [r0]
 385              		.loc 1 176 0
 386 0044 2278     		ldrb	r2, [r4]	@ zero_extendqisi2
 387 0046 9607     		lsls	r6, r2, #30
 388 0048 40F1B180 		bpl	.L16
 177:Generated_Source\PSoC5/I2C_INT.c ****                     {
ARM GAS  C:\Users\Bruger\AppData\Local\Temp\ccm7ySnP.s 			page 29


 178:Generated_Source\PSoC5/I2C_INT.c ****                         I2C_mstrStatus |= (I2C_MSTAT_XFER_HALT |
 179:Generated_Source\PSoC5/I2C_INT.c ****                                                         I2C_GET_MSTAT_CMPLT);
 389              		.loc 1 179 0
 390 004c 0A78     		ldrb	r2, [r1]	@ zero_extendqisi2
 178:Generated_Source\PSoC5/I2C_INT.c ****                                                         I2C_GET_MSTAT_CMPLT);
 391              		.loc 1 178 0
 392 004e 0478     		ldrb	r4, [r0]	@ zero_extendqisi2
 393 0050 12F0080F 		tst	r2, #8
 394 0054 0CBF     		ite	eq
 395 0056 0A22     		moveq	r2, #10
 396 0058 0922     		movne	r2, #9
 180:Generated_Source\PSoC5/I2C_INT.c **** 
 181:Generated_Source\PSoC5/I2C_INT.c ****                         I2C_state = I2C_SM_MSTR_HALT; /* Expect RESTART */
 182:Generated_Source\PSoC5/I2C_INT.c ****                         I2C_DisableInt();
 397              		.loc 1 182 0
 398 005a 724D     		ldr	r5, .L36+16
 178:Generated_Source\PSoC5/I2C_INT.c ****                                                         I2C_GET_MSTAT_CMPLT);
 399              		.loc 1 178 0
 400 005c 2243     		orrs	r2, r2, r4
 181:Generated_Source\PSoC5/I2C_INT.c ****                         I2C_DisableInt();
 401              		.loc 1 181 0
 402 005e 6026     		movs	r6, #96
 403              		.loc 1 182 0
 404 0060 4FF40044 		mov	r4, #32768
 178:Generated_Source\PSoC5/I2C_INT.c ****                                                         I2C_GET_MSTAT_CMPLT);
 405              		.loc 1 178 0
 406 0064 0270     		strb	r2, [r0]
 181:Generated_Source\PSoC5/I2C_INT.c ****                         I2C_DisableInt();
 407              		.loc 1 181 0
 408 0066 0E70     		strb	r6, [r1]
 409              		.loc 1 182 0
 410 0068 2C60     		str	r4, [r5]
 411              	.L3:
 183:Generated_Source\PSoC5/I2C_INT.c ****                     }
 184:Generated_Source\PSoC5/I2C_INT.c ****                     else  /* Do normal Stop */
 185:Generated_Source\PSoC5/I2C_INT.c ****                     {
 186:Generated_Source\PSoC5/I2C_INT.c ****                         I2C_ENABLE_INT_ON_STOP; /* Enable interrupt on Stop, to catch it */
 187:Generated_Source\PSoC5/I2C_INT.c ****                         I2C_GENERATE_STOP;
 188:Generated_Source\PSoC5/I2C_INT.c ****                     }
 189:Generated_Source\PSoC5/I2C_INT.c ****                 }
 190:Generated_Source\PSoC5/I2C_INT.c ****                 else
 191:Generated_Source\PSoC5/I2C_INT.c ****                 {
 192:Generated_Source\PSoC5/I2C_INT.c ****                     /* Address phase is not set for some reason: error */
 193:Generated_Source\PSoC5/I2C_INT.c ****                     #if(I2C_TIMEOUT_ENABLED)
 194:Generated_Source\PSoC5/I2C_INT.c ****                         /* Exit interrupt to take chance for timeout timer to handle this case */
 195:Generated_Source\PSoC5/I2C_INT.c ****                         I2C_DisableInt();
 196:Generated_Source\PSoC5/I2C_INT.c ****                         I2C_ClearPendingInt();
 197:Generated_Source\PSoC5/I2C_INT.c ****                     #else
 198:Generated_Source\PSoC5/I2C_INT.c ****                         /* Block execution flow: unexpected condition */
 199:Generated_Source\PSoC5/I2C_INT.c ****                         CYASSERT(0u != 0u);
 200:Generated_Source\PSoC5/I2C_INT.c ****                     #endif /* (I2C_TIMEOUT_ENABLED) */
 201:Generated_Source\PSoC5/I2C_INT.c ****                 }
 202:Generated_Source\PSoC5/I2C_INT.c ****                 break;
 203:Generated_Source\PSoC5/I2C_INT.c **** 
 204:Generated_Source\PSoC5/I2C_INT.c ****             case I2C_SM_MSTR_WR_DATA:
 205:Generated_Source\PSoC5/I2C_INT.c **** 
 206:Generated_Source\PSoC5/I2C_INT.c ****                 if(I2C_CHECK_DATA_ACK(tmpCsr))
ARM GAS  C:\Users\Bruger\AppData\Local\Temp\ccm7ySnP.s 			page 30


 207:Generated_Source\PSoC5/I2C_INT.c ****                 {
 208:Generated_Source\PSoC5/I2C_INT.c ****                     /* Check if end of buffer */
 209:Generated_Source\PSoC5/I2C_INT.c ****                     if(I2C_mstrWrBufIndex  < I2C_mstrWrBufSize)
 210:Generated_Source\PSoC5/I2C_INT.c ****                     {
 211:Generated_Source\PSoC5/I2C_INT.c ****                         I2C_DATA_REG =
 212:Generated_Source\PSoC5/I2C_INT.c ****                                                  I2C_mstrWrBufPtr[I2C_mstrWrBufIndex];
 213:Generated_Source\PSoC5/I2C_INT.c ****                         I2C_TRANSMIT_DATA;
 214:Generated_Source\PSoC5/I2C_INT.c ****                         I2C_mstrWrBufIndex++;
 215:Generated_Source\PSoC5/I2C_INT.c ****                     }
 216:Generated_Source\PSoC5/I2C_INT.c ****                     /* End of buffer: complete writing */
 217:Generated_Source\PSoC5/I2C_INT.c ****                     else if(I2C_CHECK_NO_STOP(I2C_mstrControl))
 218:Generated_Source\PSoC5/I2C_INT.c ****                     {
 219:Generated_Source\PSoC5/I2C_INT.c ****                         /* Set write complete and master halted */
 220:Generated_Source\PSoC5/I2C_INT.c ****                         I2C_mstrStatus |= (I2C_MSTAT_XFER_HALT |
 221:Generated_Source\PSoC5/I2C_INT.c ****                                                         I2C_MSTAT_WR_CMPLT);
 222:Generated_Source\PSoC5/I2C_INT.c **** 
 223:Generated_Source\PSoC5/I2C_INT.c ****                         I2C_state = I2C_SM_MSTR_HALT;    /* Expect restart */
 224:Generated_Source\PSoC5/I2C_INT.c ****                         I2C_DisableInt();
 225:Generated_Source\PSoC5/I2C_INT.c ****                     }
 226:Generated_Source\PSoC5/I2C_INT.c ****                     else  /* Do normal Stop */
 227:Generated_Source\PSoC5/I2C_INT.c ****                     {
 228:Generated_Source\PSoC5/I2C_INT.c ****                         I2C_ENABLE_INT_ON_STOP;    /* Enable interrupt on Stop, to catch it */
 229:Generated_Source\PSoC5/I2C_INT.c ****                         I2C_GENERATE_STOP;
 230:Generated_Source\PSoC5/I2C_INT.c ****                     }
 231:Generated_Source\PSoC5/I2C_INT.c ****                 }
 232:Generated_Source\PSoC5/I2C_INT.c ****                 /* Last byte NAKed: end writing */
 233:Generated_Source\PSoC5/I2C_INT.c ****                 else if(I2C_CHECK_NO_STOP(I2C_mstrControl))
 234:Generated_Source\PSoC5/I2C_INT.c ****                 {
 235:Generated_Source\PSoC5/I2C_INT.c ****                     /* Set write complete, short transfer and master halted */
 236:Generated_Source\PSoC5/I2C_INT.c ****                     I2C_mstrStatus |= (I2C_MSTAT_ERR_XFER       |
 237:Generated_Source\PSoC5/I2C_INT.c ****                                                     I2C_MSTAT_ERR_SHORT_XFER |
 238:Generated_Source\PSoC5/I2C_INT.c ****                                                     I2C_MSTAT_XFER_HALT      |
 239:Generated_Source\PSoC5/I2C_INT.c ****                                                     I2C_MSTAT_WR_CMPLT);
 240:Generated_Source\PSoC5/I2C_INT.c **** 
 241:Generated_Source\PSoC5/I2C_INT.c ****                     I2C_state = I2C_SM_MSTR_HALT;    /* Expect ReStart */
 242:Generated_Source\PSoC5/I2C_INT.c ****                     I2C_DisableInt();
 243:Generated_Source\PSoC5/I2C_INT.c ****                 }
 244:Generated_Source\PSoC5/I2C_INT.c ****                 else  /* Do normal Stop */
 245:Generated_Source\PSoC5/I2C_INT.c ****                 {
 246:Generated_Source\PSoC5/I2C_INT.c ****                     I2C_ENABLE_INT_ON_STOP;    /* Enable interrupt on Stop, to catch it */
 247:Generated_Source\PSoC5/I2C_INT.c ****                     I2C_GENERATE_STOP;
 248:Generated_Source\PSoC5/I2C_INT.c **** 
 249:Generated_Source\PSoC5/I2C_INT.c ****                     /* Set short transfer and error flag */
 250:Generated_Source\PSoC5/I2C_INT.c ****                     I2C_mstrStatus |= (I2C_MSTAT_ERR_SHORT_XFER |
 251:Generated_Source\PSoC5/I2C_INT.c ****                                                     I2C_MSTAT_ERR_XFER);
 252:Generated_Source\PSoC5/I2C_INT.c ****                 }
 253:Generated_Source\PSoC5/I2C_INT.c **** 
 254:Generated_Source\PSoC5/I2C_INT.c ****                 break;
 255:Generated_Source\PSoC5/I2C_INT.c **** 
 256:Generated_Source\PSoC5/I2C_INT.c ****             case I2C_SM_MSTR_RD_DATA:
 257:Generated_Source\PSoC5/I2C_INT.c **** 
 258:Generated_Source\PSoC5/I2C_INT.c ****                 I2C_mstrRdBufPtr[I2C_mstrRdBufIndex] = I2C_DATA_REG;
 259:Generated_Source\PSoC5/I2C_INT.c ****                 I2C_mstrRdBufIndex++;
 260:Generated_Source\PSoC5/I2C_INT.c **** 
 261:Generated_Source\PSoC5/I2C_INT.c ****                 /* Check if end of buffer */
 262:Generated_Source\PSoC5/I2C_INT.c ****                 if(I2C_mstrRdBufIndex < I2C_mstrRdBufSize)
 263:Generated_Source\PSoC5/I2C_INT.c ****                 {
ARM GAS  C:\Users\Bruger\AppData\Local\Temp\ccm7ySnP.s 			page 31


 264:Generated_Source\PSoC5/I2C_INT.c ****                     I2C_ACK_AND_RECEIVE;       /* ACK and receive byte */
 265:Generated_Source\PSoC5/I2C_INT.c ****                 }
 266:Generated_Source\PSoC5/I2C_INT.c ****                 /* End of buffer: complete reading */
 267:Generated_Source\PSoC5/I2C_INT.c ****                 else if(I2C_CHECK_NO_STOP(I2C_mstrControl))
 268:Generated_Source\PSoC5/I2C_INT.c ****                 {
 269:Generated_Source\PSoC5/I2C_INT.c ****                     /* Set read complete and master halted */
 270:Generated_Source\PSoC5/I2C_INT.c ****                     I2C_mstrStatus |= (I2C_MSTAT_XFER_HALT |
 271:Generated_Source\PSoC5/I2C_INT.c ****                                                     I2C_MSTAT_RD_CMPLT);
 272:Generated_Source\PSoC5/I2C_INT.c **** 
 273:Generated_Source\PSoC5/I2C_INT.c ****                     I2C_state = I2C_SM_MSTR_HALT;    /* Expect ReStart */
 274:Generated_Source\PSoC5/I2C_INT.c ****                     I2C_DisableInt();
 275:Generated_Source\PSoC5/I2C_INT.c ****                 }
 276:Generated_Source\PSoC5/I2C_INT.c ****                 else
 277:Generated_Source\PSoC5/I2C_INT.c ****                 {
 278:Generated_Source\PSoC5/I2C_INT.c ****                     I2C_ENABLE_INT_ON_STOP;
 279:Generated_Source\PSoC5/I2C_INT.c ****                     I2C_NAK_AND_RECEIVE;       /* NACK and TRY to generate Stop */
 280:Generated_Source\PSoC5/I2C_INT.c ****                 }
 281:Generated_Source\PSoC5/I2C_INT.c ****                 break;
 282:Generated_Source\PSoC5/I2C_INT.c **** 
 283:Generated_Source\PSoC5/I2C_INT.c ****             default: /* This is an invalid state and should not occur */
 284:Generated_Source\PSoC5/I2C_INT.c **** 
 285:Generated_Source\PSoC5/I2C_INT.c ****             #if(I2C_TIMEOUT_ENABLED)
 286:Generated_Source\PSoC5/I2C_INT.c ****                 /* Exit interrupt to take chance for timeout timer to handles this case */
 287:Generated_Source\PSoC5/I2C_INT.c ****                 I2C_DisableInt();
 288:Generated_Source\PSoC5/I2C_INT.c ****                 I2C_ClearPendingInt();
 289:Generated_Source\PSoC5/I2C_INT.c ****             #else
 290:Generated_Source\PSoC5/I2C_INT.c ****                 /* Block execution flow: unexpected condition */
 291:Generated_Source\PSoC5/I2C_INT.c ****                 CYASSERT(0u != 0u);
 292:Generated_Source\PSoC5/I2C_INT.c ****             #endif /* (I2C_TIMEOUT_ENABLED) */
 293:Generated_Source\PSoC5/I2C_INT.c **** 
 294:Generated_Source\PSoC5/I2C_INT.c ****                 break;
 295:Generated_Source\PSoC5/I2C_INT.c ****             }
 296:Generated_Source\PSoC5/I2C_INT.c ****         }
 297:Generated_Source\PSoC5/I2C_INT.c **** 
 298:Generated_Source\PSoC5/I2C_INT.c ****         /* Catches Stop: end of transaction */
 299:Generated_Source\PSoC5/I2C_INT.c ****         if(I2C_CHECK_STOP_STS(tmpCsr))
 412              		.loc 1 299 0
 413 006a 9A06     		lsls	r2, r3, #26
 414 006c 11D5     		bpl	.L1
 300:Generated_Source\PSoC5/I2C_INT.c ****         {
 301:Generated_Source\PSoC5/I2C_INT.c ****             I2C_mstrStatus |= I2C_GET_MSTAT_CMPLT;
 415              		.loc 1 301 0
 416 006e 0B78     		ldrb	r3, [r1]	@ zero_extendqisi2
 417              	.LVL2:
 418 0070 6A48     		ldr	r0, .L36+8
 419 0072 13F0080F 		tst	r3, #8
 420 0076 0378     		ldrb	r3, [r0]	@ zero_extendqisi2
 421 0078 14BF     		ite	ne
 422 007a 0124     		movne	r4, #1
 423 007c 0224     		moveq	r4, #2
 302:Generated_Source\PSoC5/I2C_INT.c **** 
 303:Generated_Source\PSoC5/I2C_INT.c ****             I2C_DISABLE_INT_ON_STOP;
 424              		.loc 1 303 0
 425 007e 6A4A     		ldr	r2, .L36+20
 301:Generated_Source\PSoC5/I2C_INT.c **** 
 426              		.loc 1 301 0
 427 0080 2343     		orrs	r3, r3, r4
ARM GAS  C:\Users\Bruger\AppData\Local\Temp\ccm7ySnP.s 			page 32


 428 0082 0370     		strb	r3, [r0]
 429              		.loc 1 303 0
 430 0084 1378     		ldrb	r3, [r2]	@ zero_extendqisi2
 304:Generated_Source\PSoC5/I2C_INT.c ****             I2C_state = I2C_SM_IDLE;
 431              		.loc 1 304 0
 432 0086 1020     		movs	r0, #16
 303:Generated_Source\PSoC5/I2C_INT.c ****             I2C_state = I2C_SM_IDLE;
 433              		.loc 1 303 0
 434 0088 03F0EF03 		and	r3, r3, #239
 435 008c 1370     		strb	r3, [r2]
 436              		.loc 1 304 0
 437 008e 0870     		strb	r0, [r1]
 438 0090 F0BD     		pop	{r4, r5, r6, r7, pc}
 439              	.LVL3:
 440              	.L1:
 441 0092 F0BD     		pop	{r4, r5, r6, r7, pc}
 442              	.L2:
 443              		.cfi_def_cfa_offset 0
 444              		.cfi_restore 4
 445              		.cfi_restore 5
 446              		.cfi_restore 6
 447              		.cfi_restore 7
 448              		.cfi_restore 14
 305:Generated_Source\PSoC5/I2C_INT.c ****         }
 306:Generated_Source\PSoC5/I2C_INT.c ****     #endif /* (I2C_MODE_MASTER_ENABLED) */
 307:Generated_Source\PSoC5/I2C_INT.c ****     }
 308:Generated_Source\PSoC5/I2C_INT.c ****     else if(I2C_CHECK_SM_SLAVE)
 449              		.loc 1 308 0
 450 0094 0B78     		ldrb	r3, [r1]	@ zero_extendqisi2
 451              	.LVL4:
 452 0096 DB06     		lsls	r3, r3, #27
 309:Generated_Source\PSoC5/I2C_INT.c ****     {
 310:Generated_Source\PSoC5/I2C_INT.c ****     #if(I2C_MODE_SLAVE_ENABLED)
 311:Generated_Source\PSoC5/I2C_INT.c **** 
 312:Generated_Source\PSoC5/I2C_INT.c ****         if((I2C_CHECK_STOP_STS(tmpCsr)) || /* Stop || Restart */
 313:Generated_Source\PSoC5/I2C_INT.c ****            (I2C_CHECK_BYTE_COMPLETE(tmpCsr) && I2C_CHECK_ADDRESS_STS(tmpCsr)))
 314:Generated_Source\PSoC5/I2C_INT.c ****         {
 315:Generated_Source\PSoC5/I2C_INT.c ****             /* Catch end of master write transaction: use interrupt on Stop */
 316:Generated_Source\PSoC5/I2C_INT.c ****             /* The Stop bit history on address phase does not have correct state */
 317:Generated_Source\PSoC5/I2C_INT.c ****             if(I2C_SM_SL_WR_DATA == I2C_state)
 318:Generated_Source\PSoC5/I2C_INT.c ****             {
 319:Generated_Source\PSoC5/I2C_INT.c ****                 I2C_DISABLE_INT_ON_STOP;
 320:Generated_Source\PSoC5/I2C_INT.c **** 
 321:Generated_Source\PSoC5/I2C_INT.c ****                 I2C_slStatus &= ((uint8) ~I2C_SSTAT_WR_BUSY);
 322:Generated_Source\PSoC5/I2C_INT.c ****                 I2C_slStatus |= ((uint8)  I2C_SSTAT_WR_CMPLT);
 323:Generated_Source\PSoC5/I2C_INT.c **** 
 324:Generated_Source\PSoC5/I2C_INT.c ****                 I2C_state = I2C_SM_IDLE;
 325:Generated_Source\PSoC5/I2C_INT.c ****             }
 326:Generated_Source\PSoC5/I2C_INT.c ****         }
 327:Generated_Source\PSoC5/I2C_INT.c **** 
 328:Generated_Source\PSoC5/I2C_INT.c ****         if(I2C_CHECK_BYTE_COMPLETE(tmpCsr))
 329:Generated_Source\PSoC5/I2C_INT.c ****         {
 330:Generated_Source\PSoC5/I2C_INT.c ****             /* The address only issued after Start or ReStart: so check the address
 331:Generated_Source\PSoC5/I2C_INT.c ****                to catch these events:
 332:Generated_Source\PSoC5/I2C_INT.c ****                 FF : sets an address phase with a byte_complete interrupt trigger.
 333:Generated_Source\PSoC5/I2C_INT.c ****                 UDB: sets an address phase immediately after Start or ReStart. */
 334:Generated_Source\PSoC5/I2C_INT.c ****             if(I2C_CHECK_ADDRESS_STS(tmpCsr))
ARM GAS  C:\Users\Bruger\AppData\Local\Temp\ccm7ySnP.s 			page 33


 335:Generated_Source\PSoC5/I2C_INT.c ****             {
 336:Generated_Source\PSoC5/I2C_INT.c ****             /* Check for software address detection */
 337:Generated_Source\PSoC5/I2C_INT.c ****             #if(I2C_SW_ADRR_DECODE)
 338:Generated_Source\PSoC5/I2C_INT.c ****                 tmp8 = I2C_GET_SLAVE_ADDR(I2C_DATA_REG);
 339:Generated_Source\PSoC5/I2C_INT.c **** 
 340:Generated_Source\PSoC5/I2C_INT.c ****                 if(tmp8 == I2C_slAddress)   /* Check for address match */
 341:Generated_Source\PSoC5/I2C_INT.c ****                 {
 342:Generated_Source\PSoC5/I2C_INT.c ****                     if(0u != (I2C_DATA_REG & I2C_READ_FLAG))
 343:Generated_Source\PSoC5/I2C_INT.c ****                     {
 344:Generated_Source\PSoC5/I2C_INT.c ****                         /* Place code to prepare read buffer here                  */
 345:Generated_Source\PSoC5/I2C_INT.c ****                         /* `#START I2C_SW_PREPARE_READ_BUF_interrupt` */
 346:Generated_Source\PSoC5/I2C_INT.c **** 
 347:Generated_Source\PSoC5/I2C_INT.c ****                         /* `#END` */
 348:Generated_Source\PSoC5/I2C_INT.c **** 
 349:Generated_Source\PSoC5/I2C_INT.c ****                     #ifdef I2C_SW_PREPARE_READ_BUF_CALLBACK
 350:Generated_Source\PSoC5/I2C_INT.c ****                         I2C_SwPrepareReadBuf_Callback();
 351:Generated_Source\PSoC5/I2C_INT.c ****                     #endif /* I2C_SW_PREPARE_READ_BUF_CALLBACK */
 352:Generated_Source\PSoC5/I2C_INT.c ****                         
 353:Generated_Source\PSoC5/I2C_INT.c ****                         /* Prepare next operation to read, get data and place in data register */
 354:Generated_Source\PSoC5/I2C_INT.c ****                         if(I2C_slRdBufIndex < I2C_slRdBufSize)
 355:Generated_Source\PSoC5/I2C_INT.c ****                         {
 356:Generated_Source\PSoC5/I2C_INT.c ****                             /* Load first data byte from array */
 357:Generated_Source\PSoC5/I2C_INT.c ****                             I2C_DATA_REG = I2C_slRdBufPtr[I2C_slRdBufIndex];
 358:Generated_Source\PSoC5/I2C_INT.c ****                             I2C_ACK_AND_TRANSMIT;
 359:Generated_Source\PSoC5/I2C_INT.c ****                             I2C_slRdBufIndex++;
 360:Generated_Source\PSoC5/I2C_INT.c **** 
 361:Generated_Source\PSoC5/I2C_INT.c ****                             I2C_slStatus |= I2C_SSTAT_RD_BUSY;
 362:Generated_Source\PSoC5/I2C_INT.c ****                         }
 363:Generated_Source\PSoC5/I2C_INT.c ****                         else    /* Overflow: provide 0xFF on bus */
 364:Generated_Source\PSoC5/I2C_INT.c ****                         {
 365:Generated_Source\PSoC5/I2C_INT.c ****                             I2C_DATA_REG = I2C_OVERFLOW_RETURN;
 366:Generated_Source\PSoC5/I2C_INT.c ****                             I2C_ACK_AND_TRANSMIT;
 367:Generated_Source\PSoC5/I2C_INT.c **** 
 368:Generated_Source\PSoC5/I2C_INT.c ****                             I2C_slStatus  |= (I2C_SSTAT_RD_BUSY |
 369:Generated_Source\PSoC5/I2C_INT.c ****                                                            I2C_SSTAT_RD_ERR_OVFL);
 370:Generated_Source\PSoC5/I2C_INT.c ****                         }
 371:Generated_Source\PSoC5/I2C_INT.c **** 
 372:Generated_Source\PSoC5/I2C_INT.c ****                         I2C_state = I2C_SM_SL_RD_DATA;
 373:Generated_Source\PSoC5/I2C_INT.c ****                     }
 374:Generated_Source\PSoC5/I2C_INT.c ****                     else  /* Write transaction: receive 1st byte */
 375:Generated_Source\PSoC5/I2C_INT.c ****                     {
 376:Generated_Source\PSoC5/I2C_INT.c ****                         I2C_ACK_AND_RECEIVE;
 377:Generated_Source\PSoC5/I2C_INT.c ****                         I2C_state = I2C_SM_SL_WR_DATA;
 378:Generated_Source\PSoC5/I2C_INT.c **** 
 379:Generated_Source\PSoC5/I2C_INT.c ****                         I2C_slStatus |= I2C_SSTAT_WR_BUSY;
 380:Generated_Source\PSoC5/I2C_INT.c ****                         I2C_ENABLE_INT_ON_STOP;
 381:Generated_Source\PSoC5/I2C_INT.c ****                     }
 382:Generated_Source\PSoC5/I2C_INT.c ****                 }
 383:Generated_Source\PSoC5/I2C_INT.c ****                 else
 384:Generated_Source\PSoC5/I2C_INT.c ****                 {
 385:Generated_Source\PSoC5/I2C_INT.c ****                     /*     Place code to compare for additional address here    */
 386:Generated_Source\PSoC5/I2C_INT.c ****                     /* `#START I2C_SW_ADDR_COMPARE_interruptStart` */
 387:Generated_Source\PSoC5/I2C_INT.c **** 
 388:Generated_Source\PSoC5/I2C_INT.c ****                     /* `#END` */
 389:Generated_Source\PSoC5/I2C_INT.c **** 
 390:Generated_Source\PSoC5/I2C_INT.c ****                 #ifdef I2C_SW_ADDR_COMPARE_ENTRY_CALLBACK
 391:Generated_Source\PSoC5/I2C_INT.c ****                     I2C_SwAddrCompare_EntryCallback();
ARM GAS  C:\Users\Bruger\AppData\Local\Temp\ccm7ySnP.s 			page 34


 392:Generated_Source\PSoC5/I2C_INT.c ****                 #endif /* I2C_SW_ADDR_COMPARE_ENTRY_CALLBACK */
 393:Generated_Source\PSoC5/I2C_INT.c ****                     
 394:Generated_Source\PSoC5/I2C_INT.c ****                     I2C_NAK_AND_RECEIVE;   /* NACK address */
 395:Generated_Source\PSoC5/I2C_INT.c **** 
 396:Generated_Source\PSoC5/I2C_INT.c ****                     /* Place code to end of condition for NACK generation here */
 397:Generated_Source\PSoC5/I2C_INT.c ****                     /* `#START I2C_SW_ADDR_COMPARE_interruptEnd`  */
 398:Generated_Source\PSoC5/I2C_INT.c **** 
 399:Generated_Source\PSoC5/I2C_INT.c ****                     /* `#END` */
 400:Generated_Source\PSoC5/I2C_INT.c **** 
 401:Generated_Source\PSoC5/I2C_INT.c ****                 #ifdef I2C_SW_ADDR_COMPARE_EXIT_CALLBACK
 402:Generated_Source\PSoC5/I2C_INT.c ****                     I2C_SwAddrCompare_ExitCallback();
 403:Generated_Source\PSoC5/I2C_INT.c ****                 #endif /* I2C_SW_ADDR_COMPARE_EXIT_CALLBACK */
 404:Generated_Source\PSoC5/I2C_INT.c ****                 }
 405:Generated_Source\PSoC5/I2C_INT.c **** 
 406:Generated_Source\PSoC5/I2C_INT.c ****             #else /* (I2C_HW_ADRR_DECODE) */
 407:Generated_Source\PSoC5/I2C_INT.c **** 
 408:Generated_Source\PSoC5/I2C_INT.c ****                 if(0u != (I2C_DATA_REG & I2C_READ_FLAG))
 409:Generated_Source\PSoC5/I2C_INT.c ****                 {
 410:Generated_Source\PSoC5/I2C_INT.c ****                     /* Place code to prepare read buffer here                  */
 411:Generated_Source\PSoC5/I2C_INT.c ****                     /* `#START I2C_HW_PREPARE_READ_BUF_interrupt` */
 412:Generated_Source\PSoC5/I2C_INT.c **** 
 413:Generated_Source\PSoC5/I2C_INT.c ****                     /* `#END` */
 414:Generated_Source\PSoC5/I2C_INT.c ****                     
 415:Generated_Source\PSoC5/I2C_INT.c ****                 #ifdef I2C_HW_PREPARE_READ_BUF_CALLBACK
 416:Generated_Source\PSoC5/I2C_INT.c ****                     I2C_HwPrepareReadBuf_Callback();
 417:Generated_Source\PSoC5/I2C_INT.c ****                 #endif /* I2C_HW_PREPARE_READ_BUF_CALLBACK */
 418:Generated_Source\PSoC5/I2C_INT.c **** 
 419:Generated_Source\PSoC5/I2C_INT.c ****                     /* Prepare next operation to read, get data and place in data register */
 420:Generated_Source\PSoC5/I2C_INT.c ****                     if(I2C_slRdBufIndex < I2C_slRdBufSize)
 421:Generated_Source\PSoC5/I2C_INT.c ****                     {
 422:Generated_Source\PSoC5/I2C_INT.c ****                         /* Load first data byte from array */
 423:Generated_Source\PSoC5/I2C_INT.c ****                         I2C_DATA_REG = I2C_slRdBufPtr[I2C_slRdBufIndex];
 424:Generated_Source\PSoC5/I2C_INT.c ****                         I2C_ACK_AND_TRANSMIT;
 425:Generated_Source\PSoC5/I2C_INT.c ****                         I2C_slRdBufIndex++;
 426:Generated_Source\PSoC5/I2C_INT.c **** 
 427:Generated_Source\PSoC5/I2C_INT.c ****                         I2C_slStatus |= I2C_SSTAT_RD_BUSY;
 428:Generated_Source\PSoC5/I2C_INT.c ****                     }
 429:Generated_Source\PSoC5/I2C_INT.c ****                     else    /* Overflow: provide 0xFF on bus */
 430:Generated_Source\PSoC5/I2C_INT.c ****                     {
 431:Generated_Source\PSoC5/I2C_INT.c ****                         I2C_DATA_REG = I2C_OVERFLOW_RETURN;
 432:Generated_Source\PSoC5/I2C_INT.c ****                         I2C_ACK_AND_TRANSMIT;
 433:Generated_Source\PSoC5/I2C_INT.c **** 
 434:Generated_Source\PSoC5/I2C_INT.c ****                         I2C_slStatus  |= (I2C_SSTAT_RD_BUSY |
 435:Generated_Source\PSoC5/I2C_INT.c ****                                                        I2C_SSTAT_RD_ERR_OVFL);
 436:Generated_Source\PSoC5/I2C_INT.c ****                     }
 437:Generated_Source\PSoC5/I2C_INT.c **** 
 438:Generated_Source\PSoC5/I2C_INT.c ****                     I2C_state = I2C_SM_SL_RD_DATA;
 439:Generated_Source\PSoC5/I2C_INT.c ****                 }
 440:Generated_Source\PSoC5/I2C_INT.c ****                 else  /* Write transaction: receive 1st byte */
 441:Generated_Source\PSoC5/I2C_INT.c ****                 {
 442:Generated_Source\PSoC5/I2C_INT.c ****                     I2C_ACK_AND_RECEIVE;
 443:Generated_Source\PSoC5/I2C_INT.c ****                     I2C_state = I2C_SM_SL_WR_DATA;
 444:Generated_Source\PSoC5/I2C_INT.c **** 
 445:Generated_Source\PSoC5/I2C_INT.c ****                     I2C_slStatus |= I2C_SSTAT_WR_BUSY;
 446:Generated_Source\PSoC5/I2C_INT.c ****                     I2C_ENABLE_INT_ON_STOP;
 447:Generated_Source\PSoC5/I2C_INT.c ****                 }
 448:Generated_Source\PSoC5/I2C_INT.c **** 
ARM GAS  C:\Users\Bruger\AppData\Local\Temp\ccm7ySnP.s 			page 35


 449:Generated_Source\PSoC5/I2C_INT.c ****             #endif /* (I2C_SW_ADRR_DECODE) */
 450:Generated_Source\PSoC5/I2C_INT.c ****             }
 451:Generated_Source\PSoC5/I2C_INT.c ****             /* Data states */
 452:Generated_Source\PSoC5/I2C_INT.c ****             /* Data master writes into slave */
 453:Generated_Source\PSoC5/I2C_INT.c ****             else if(I2C_state == I2C_SM_SL_WR_DATA)
 454:Generated_Source\PSoC5/I2C_INT.c ****             {
 455:Generated_Source\PSoC5/I2C_INT.c ****                 if(I2C_slWrBufIndex < I2C_slWrBufSize)
 456:Generated_Source\PSoC5/I2C_INT.c ****                 {
 457:Generated_Source\PSoC5/I2C_INT.c ****                     tmp8 = I2C_DATA_REG;
 458:Generated_Source\PSoC5/I2C_INT.c ****                     I2C_ACK_AND_RECEIVE;
 459:Generated_Source\PSoC5/I2C_INT.c ****                     I2C_slWrBufPtr[I2C_slWrBufIndex] = tmp8;
 460:Generated_Source\PSoC5/I2C_INT.c ****                     I2C_slWrBufIndex++;
 461:Generated_Source\PSoC5/I2C_INT.c ****                 }
 462:Generated_Source\PSoC5/I2C_INT.c ****                 else  /* of array: complete write, send NACK */
 463:Generated_Source\PSoC5/I2C_INT.c ****                 {
 464:Generated_Source\PSoC5/I2C_INT.c ****                     I2C_NAK_AND_RECEIVE;
 465:Generated_Source\PSoC5/I2C_INT.c **** 
 466:Generated_Source\PSoC5/I2C_INT.c ****                     I2C_slStatus |= I2C_SSTAT_WR_ERR_OVFL;
 467:Generated_Source\PSoC5/I2C_INT.c ****                 }
 468:Generated_Source\PSoC5/I2C_INT.c ****             }
 469:Generated_Source\PSoC5/I2C_INT.c ****             /* Data master reads from slave */
 470:Generated_Source\PSoC5/I2C_INT.c ****             else if(I2C_state == I2C_SM_SL_RD_DATA)
 471:Generated_Source\PSoC5/I2C_INT.c ****             {
 472:Generated_Source\PSoC5/I2C_INT.c ****                 if(I2C_CHECK_DATA_ACK(tmpCsr))
 473:Generated_Source\PSoC5/I2C_INT.c ****                 {
 474:Generated_Source\PSoC5/I2C_INT.c ****                     if(I2C_slRdBufIndex < I2C_slRdBufSize)
 475:Generated_Source\PSoC5/I2C_INT.c ****                     {
 476:Generated_Source\PSoC5/I2C_INT.c ****                          /* Get data from array */
 477:Generated_Source\PSoC5/I2C_INT.c ****                         I2C_DATA_REG = I2C_slRdBufPtr[I2C_slRdBufIndex];
 478:Generated_Source\PSoC5/I2C_INT.c ****                         I2C_TRANSMIT_DATA;
 479:Generated_Source\PSoC5/I2C_INT.c ****                         I2C_slRdBufIndex++;
 480:Generated_Source\PSoC5/I2C_INT.c ****                     }
 481:Generated_Source\PSoC5/I2C_INT.c ****                     else   /* Overflow: provide 0xFF on bus */
 482:Generated_Source\PSoC5/I2C_INT.c ****                     {
 483:Generated_Source\PSoC5/I2C_INT.c ****                         I2C_DATA_REG = I2C_OVERFLOW_RETURN;
 484:Generated_Source\PSoC5/I2C_INT.c ****                         I2C_TRANSMIT_DATA;
 485:Generated_Source\PSoC5/I2C_INT.c **** 
 486:Generated_Source\PSoC5/I2C_INT.c ****                         I2C_slStatus |= I2C_SSTAT_RD_ERR_OVFL;
 487:Generated_Source\PSoC5/I2C_INT.c ****                     }
 488:Generated_Source\PSoC5/I2C_INT.c ****                 }
 489:Generated_Source\PSoC5/I2C_INT.c ****                 else  /* Last byte was NACKed: read complete */
 490:Generated_Source\PSoC5/I2C_INT.c ****                 {
 491:Generated_Source\PSoC5/I2C_INT.c ****                     /* Only NACK appears on bus */
 492:Generated_Source\PSoC5/I2C_INT.c ****                     I2C_DATA_REG = I2C_OVERFLOW_RETURN;
 493:Generated_Source\PSoC5/I2C_INT.c ****                     I2C_NAK_AND_TRANSMIT;
 494:Generated_Source\PSoC5/I2C_INT.c **** 
 495:Generated_Source\PSoC5/I2C_INT.c ****                     I2C_slStatus &= ((uint8) ~I2C_SSTAT_RD_BUSY);
 496:Generated_Source\PSoC5/I2C_INT.c ****                     I2C_slStatus |= ((uint8)  I2C_SSTAT_RD_CMPLT);
 497:Generated_Source\PSoC5/I2C_INT.c **** 
 498:Generated_Source\PSoC5/I2C_INT.c ****                     I2C_state = I2C_SM_IDLE;
 499:Generated_Source\PSoC5/I2C_INT.c ****                 }
 500:Generated_Source\PSoC5/I2C_INT.c ****             }
 501:Generated_Source\PSoC5/I2C_INT.c ****             else
 502:Generated_Source\PSoC5/I2C_INT.c ****             {
 503:Generated_Source\PSoC5/I2C_INT.c ****             #if(I2C_TIMEOUT_ENABLED)
 504:Generated_Source\PSoC5/I2C_INT.c ****                 /* Exit interrupt to take chance for timeout timer to handle this case */
 505:Generated_Source\PSoC5/I2C_INT.c ****                 I2C_DisableInt();
ARM GAS  C:\Users\Bruger\AppData\Local\Temp\ccm7ySnP.s 			page 36


 506:Generated_Source\PSoC5/I2C_INT.c ****                 I2C_ClearPendingInt();
 507:Generated_Source\PSoC5/I2C_INT.c ****             #else
 508:Generated_Source\PSoC5/I2C_INT.c ****                 /* Block execution flow: unexpected condition */
 509:Generated_Source\PSoC5/I2C_INT.c ****                 CYASSERT(0u != 0u);
 510:Generated_Source\PSoC5/I2C_INT.c ****             #endif /* (I2C_TIMEOUT_ENABLED) */
 511:Generated_Source\PSoC5/I2C_INT.c ****             }
 512:Generated_Source\PSoC5/I2C_INT.c ****         }
 513:Generated_Source\PSoC5/I2C_INT.c ****     #endif /* (I2C_MODE_SLAVE_ENABLED) */
 514:Generated_Source\PSoC5/I2C_INT.c ****     }
 515:Generated_Source\PSoC5/I2C_INT.c ****     else
 516:Generated_Source\PSoC5/I2C_INT.c ****     {
 517:Generated_Source\PSoC5/I2C_INT.c ****         /* The FSM skips master and slave processing: return to IDLE */
 518:Generated_Source\PSoC5/I2C_INT.c ****         I2C_state = I2C_SM_IDLE;
 453              		.loc 1 518 0
 454 0098 5CBF     		itt	pl
 455 009a 1023     		movpl	r3, #16
 456 009c 0B70     		strbpl	r3, [r1]
 457 009e 7047     		bx	lr
 458              	.LVL5:
 459              	.L7:
 460              		.cfi_def_cfa_offset 20
 461              		.cfi_offset 4, -20
 462              		.cfi_offset 5, -16
 463              		.cfi_offset 6, -12
 464              		.cfi_offset 7, -8
 465              		.cfi_offset 14, -4
 258:Generated_Source\PSoC5/I2C_INT.c ****                 I2C_mstrRdBufIndex++;
 466              		.loc 1 258 0
 467 00a0 6248     		ldr	r0, .L36+24
 468 00a2 634C     		ldr	r4, .L36+28
 469 00a4 634D     		ldr	r5, .L36+32
 470 00a6 0278     		ldrb	r2, [r0]	@ zero_extendqisi2
 471 00a8 2478     		ldrb	r4, [r4]	@ zero_extendqisi2
 472 00aa 2D68     		ldr	r5, [r5]
 473 00ac D2B2     		uxtb	r2, r2
 474 00ae E4B2     		uxtb	r4, r4
 475 00b0 AC54     		strb	r4, [r5, r2]
 259:Generated_Source\PSoC5/I2C_INT.c **** 
 476              		.loc 1 259 0
 477 00b2 0278     		ldrb	r2, [r0]	@ zero_extendqisi2
 262:Generated_Source\PSoC5/I2C_INT.c ****                 {
 478              		.loc 1 262 0
 479 00b4 604C     		ldr	r4, .L36+36
 259:Generated_Source\PSoC5/I2C_INT.c **** 
 480              		.loc 1 259 0
 481 00b6 0132     		adds	r2, r2, #1
 482 00b8 D2B2     		uxtb	r2, r2
 483 00ba 0270     		strb	r2, [r0]
 262:Generated_Source\PSoC5/I2C_INT.c ****                 {
 484              		.loc 1 262 0
 485 00bc 0078     		ldrb	r0, [r0]	@ zero_extendqisi2
 486 00be 2278     		ldrb	r2, [r4]	@ zero_extendqisi2
 487 00c0 9042     		cmp	r0, r2
 488 00c2 3BD3     		bcc	.L34
 267:Generated_Source\PSoC5/I2C_INT.c ****                 {
 489              		.loc 1 267 0
 490 00c4 564A     		ldr	r2, .L36+12
ARM GAS  C:\Users\Bruger\AppData\Local\Temp\ccm7ySnP.s 			page 37


 491 00c6 1278     		ldrb	r2, [r2]	@ zero_extendqisi2
 492 00c8 02F00202 		and	r2, r2, #2
 493 00cc 02F0FF00 		and	r0, r2, #255
 494 00d0 002A     		cmp	r2, #0
 495 00d2 41D0     		beq	.L19
 270:Generated_Source\PSoC5/I2C_INT.c ****                                                     I2C_MSTAT_RD_CMPLT);
 496              		.loc 1 270 0
 497 00d4 5148     		ldr	r0, .L36+8
 274:Generated_Source\PSoC5/I2C_INT.c ****                 }
 498              		.loc 1 274 0
 499 00d6 534C     		ldr	r4, .L36+16
 270:Generated_Source\PSoC5/I2C_INT.c ****                                                     I2C_MSTAT_RD_CMPLT);
 500              		.loc 1 270 0
 501 00d8 0278     		ldrb	r2, [r0]	@ zero_extendqisi2
 273:Generated_Source\PSoC5/I2C_INT.c ****                     I2C_DisableInt();
 502              		.loc 1 273 0
 503 00da 6026     		movs	r6, #96
 270:Generated_Source\PSoC5/I2C_INT.c ****                                                     I2C_MSTAT_RD_CMPLT);
 504              		.loc 1 270 0
 505 00dc 42F00902 		orr	r2, r2, #9
 274:Generated_Source\PSoC5/I2C_INT.c ****                 }
 506              		.loc 1 274 0
 507 00e0 4FF40045 		mov	r5, #32768
 270:Generated_Source\PSoC5/I2C_INT.c ****                                                     I2C_MSTAT_RD_CMPLT);
 508              		.loc 1 270 0
 509 00e4 0270     		strb	r2, [r0]
 273:Generated_Source\PSoC5/I2C_INT.c ****                     I2C_DisableInt();
 510              		.loc 1 273 0
 511 00e6 0E70     		strb	r6, [r1]
 274:Generated_Source\PSoC5/I2C_INT.c ****                 }
 512              		.loc 1 274 0
 513 00e8 2560     		str	r5, [r4]
 514 00ea BEE7     		b	.L3
 515              	.L6:
 206:Generated_Source\PSoC5/I2C_INT.c ****                 {
 516              		.loc 1 206 0
 517 00ec 9D07     		lsls	r5, r3, #30
 518 00ee 15D4     		bmi	.L14
 209:Generated_Source\PSoC5/I2C_INT.c ****                     {
 519              		.loc 1 209 0
 520 00f0 524A     		ldr	r2, .L36+40
 521 00f2 5348     		ldr	r0, .L36+44
 522 00f4 1478     		ldrb	r4, [r2]	@ zero_extendqisi2
 523 00f6 0078     		ldrb	r0, [r0]	@ zero_extendqisi2
 524 00f8 8442     		cmp	r4, r0
 525 00fa 48D2     		bcs	.L15
 212:Generated_Source\PSoC5/I2C_INT.c ****                         I2C_TRANSMIT_DATA;
 526              		.loc 1 212 0
 527 00fc 514C     		ldr	r4, .L36+48
 528 00fe 1078     		ldrb	r0, [r2]	@ zero_extendqisi2
 529 0100 2468     		ldr	r4, [r4]
 530 0102 C0B2     		uxtb	r0, r0
 531 0104 205C     		ldrb	r0, [r4, r0]	@ zero_extendqisi2
 211:Generated_Source\PSoC5/I2C_INT.c ****                                                  I2C_mstrWrBufPtr[I2C_mstrWrBufIndex];
 532              		.loc 1 211 0
 533 0106 4A4E     		ldr	r6, .L36+28
 213:Generated_Source\PSoC5/I2C_INT.c ****                         I2C_mstrWrBufIndex++;
ARM GAS  C:\Users\Bruger\AppData\Local\Temp\ccm7ySnP.s 			page 38


 534              		.loc 1 213 0
 535 0108 424C     		ldr	r4, .L36
 212:Generated_Source\PSoC5/I2C_INT.c ****                         I2C_TRANSMIT_DATA;
 536              		.loc 1 212 0
 537 010a C0B2     		uxtb	r0, r0
 213:Generated_Source\PSoC5/I2C_INT.c ****                         I2C_mstrWrBufIndex++;
 538              		.loc 1 213 0
 539 010c 0425     		movs	r5, #4
 211:Generated_Source\PSoC5/I2C_INT.c ****                                                  I2C_mstrWrBufPtr[I2C_mstrWrBufIndex];
 540              		.loc 1 211 0
 541 010e 3070     		strb	r0, [r6]
 213:Generated_Source\PSoC5/I2C_INT.c ****                         I2C_mstrWrBufIndex++;
 542              		.loc 1 213 0
 543 0110 2570     		strb	r5, [r4]
 214:Generated_Source\PSoC5/I2C_INT.c ****                     }
 544              		.loc 1 214 0
 545 0112 1078     		ldrb	r0, [r2]	@ zero_extendqisi2
 546 0114 0130     		adds	r0, r0, #1
 547 0116 C0B2     		uxtb	r0, r0
 548 0118 1070     		strb	r0, [r2]
 549 011a A6E7     		b	.L3
 550              	.L14:
 233:Generated_Source\PSoC5/I2C_INT.c ****                 {
 551              		.loc 1 233 0
 552 011c 404A     		ldr	r2, .L36+12
 553 011e 1278     		ldrb	r2, [r2]	@ zero_extendqisi2
 554 0120 9007     		lsls	r0, r2, #30
 555 0122 21D5     		bpl	.L17
 236:Generated_Source\PSoC5/I2C_INT.c ****                                                     I2C_MSTAT_ERR_SHORT_XFER |
 556              		.loc 1 236 0
 557 0124 3D48     		ldr	r0, .L36+8
 242:Generated_Source\PSoC5/I2C_INT.c ****                 }
 558              		.loc 1 242 0
 559 0126 3F4C     		ldr	r4, .L36+16
 236:Generated_Source\PSoC5/I2C_INT.c ****                                                     I2C_MSTAT_ERR_SHORT_XFER |
 560              		.loc 1 236 0
 561 0128 0278     		ldrb	r2, [r0]	@ zero_extendqisi2
 241:Generated_Source\PSoC5/I2C_INT.c ****                     I2C_DisableInt();
 562              		.loc 1 241 0
 563 012a 6026     		movs	r6, #96
 236:Generated_Source\PSoC5/I2C_INT.c ****                                                     I2C_MSTAT_ERR_SHORT_XFER |
 564              		.loc 1 236 0
 565 012c 42F09A02 		orr	r2, r2, #154
 242:Generated_Source\PSoC5/I2C_INT.c ****                 }
 566              		.loc 1 242 0
 567 0130 4FF40045 		mov	r5, #32768
 236:Generated_Source\PSoC5/I2C_INT.c ****                                                     I2C_MSTAT_ERR_SHORT_XFER |
 568              		.loc 1 236 0
 569 0134 0270     		strb	r2, [r0]
 241:Generated_Source\PSoC5/I2C_INT.c ****                     I2C_DisableInt();
 570              		.loc 1 241 0
 571 0136 0E70     		strb	r6, [r1]
 242:Generated_Source\PSoC5/I2C_INT.c ****                 }
 572              		.loc 1 242 0
 573 0138 2560     		str	r5, [r4]
 574 013a 96E7     		b	.L3
 575              	.L34:
ARM GAS  C:\Users\Bruger\AppData\Local\Temp\ccm7ySnP.s 			page 39


 264:Generated_Source\PSoC5/I2C_INT.c ****                 }
 576              		.loc 1 264 0
 577 013c 354A     		ldr	r2, .L36
 578 013e 1020     		movs	r0, #16
 579 0140 1070     		strb	r0, [r2]
 580 0142 92E7     		b	.L3
 581              	.L33:
 133:Generated_Source\PSoC5/I2C_INT.c ****                     {
 582              		.loc 1 133 0
 583 0144 0A78     		ldrb	r2, [r1]	@ zero_extendqisi2
 584 0146 3448     		ldr	r0, .L36+4
 585 0148 452A     		cmp	r2, #69
 586 014a 3CD0     		beq	.L35
 164:Generated_Source\PSoC5/I2C_INT.c **** 
 587              		.loc 1 164 0
 588 014c 314C     		ldr	r4, .L36
 589 014e 0025     		movs	r5, #0
 166:Generated_Source\PSoC5/I2C_INT.c ****                     }
 590              		.loc 1 166 0
 591 0150 4A22     		movs	r2, #74
 164:Generated_Source\PSoC5/I2C_INT.c **** 
 592              		.loc 1 164 0
 593 0152 2570     		strb	r5, [r4]
 166:Generated_Source\PSoC5/I2C_INT.c ****                     }
 594              		.loc 1 166 0
 595 0154 0270     		strb	r2, [r0]
 596 0156 88E7     		b	.L3
 597              	.L19:
 278:Generated_Source\PSoC5/I2C_INT.c ****                     I2C_NAK_AND_RECEIVE;       /* NACK and TRY to generate Stop */
 598              		.loc 1 278 0
 599 0158 334C     		ldr	r4, .L36+20
 279:Generated_Source\PSoC5/I2C_INT.c ****                 }
 600              		.loc 1 279 0
 601 015a 2E4D     		ldr	r5, .L36
 278:Generated_Source\PSoC5/I2C_INT.c ****                     I2C_NAK_AND_RECEIVE;       /* NACK and TRY to generate Stop */
 602              		.loc 1 278 0
 603 015c 2278     		ldrb	r2, [r4]	@ zero_extendqisi2
 604 015e 42F01002 		orr	r2, r2, #16
 605 0162 2270     		strb	r2, [r4]
 279:Generated_Source\PSoC5/I2C_INT.c ****                 }
 606              		.loc 1 279 0
 607 0164 2870     		strb	r0, [r5]
 608 0166 80E7     		b	.L3
 609              	.L17:
 246:Generated_Source\PSoC5/I2C_INT.c ****                     I2C_GENERATE_STOP;
 610              		.loc 1 246 0
 611 0168 2F4C     		ldr	r4, .L36+20
 247:Generated_Source\PSoC5/I2C_INT.c **** 
 612              		.loc 1 247 0
 613 016a 374F     		ldr	r7, .L36+52
 246:Generated_Source\PSoC5/I2C_INT.c ****                     I2C_GENERATE_STOP;
 614              		.loc 1 246 0
 615 016c 2278     		ldrb	r2, [r4]	@ zero_extendqisi2
 247:Generated_Source\PSoC5/I2C_INT.c **** 
 616              		.loc 1 247 0
 617 016e 294D     		ldr	r5, .L36
 246:Generated_Source\PSoC5/I2C_INT.c ****                     I2C_GENERATE_STOP;
ARM GAS  C:\Users\Bruger\AppData\Local\Temp\ccm7ySnP.s 			page 40


 618              		.loc 1 246 0
 619 0170 42F01002 		orr	r2, r2, #16
 250:Generated_Source\PSoC5/I2C_INT.c ****                                                     I2C_MSTAT_ERR_XFER);
 620              		.loc 1 250 0
 621 0174 2948     		ldr	r0, .L36+8
 247:Generated_Source\PSoC5/I2C_INT.c **** 
 622              		.loc 1 247 0
 623 0176 4FF0100E 		mov	lr, #16
 624 017a 0426     		movs	r6, #4
 246:Generated_Source\PSoC5/I2C_INT.c ****                     I2C_GENERATE_STOP;
 625              		.loc 1 246 0
 626 017c 2270     		strb	r2, [r4]
 247:Generated_Source\PSoC5/I2C_INT.c **** 
 627              		.loc 1 247 0
 628 017e 87F800E0 		strb	lr, [r7]
 629 0182 2E70     		strb	r6, [r5]
 250:Generated_Source\PSoC5/I2C_INT.c ****                                                     I2C_MSTAT_ERR_XFER);
 630              		.loc 1 250 0
 631 0184 0278     		ldrb	r2, [r0]	@ zero_extendqisi2
 632 0186 42F09002 		orr	r2, r2, #144
 633 018a 0270     		strb	r2, [r0]
 634 018c 6DE7     		b	.L3
 635              	.L15:
 217:Generated_Source\PSoC5/I2C_INT.c ****                     {
 636              		.loc 1 217 0
 637 018e 244A     		ldr	r2, .L36+12
 638 0190 1278     		ldrb	r2, [r2]	@ zero_extendqisi2
 639 0192 9407     		lsls	r4, r2, #30
 640 0194 0BD5     		bpl	.L16
 220:Generated_Source\PSoC5/I2C_INT.c ****                                                         I2C_MSTAT_WR_CMPLT);
 641              		.loc 1 220 0
 642 0196 2148     		ldr	r0, .L36+8
 224:Generated_Source\PSoC5/I2C_INT.c ****                     }
 643              		.loc 1 224 0
 644 0198 224C     		ldr	r4, .L36+16
 220:Generated_Source\PSoC5/I2C_INT.c ****                                                         I2C_MSTAT_WR_CMPLT);
 645              		.loc 1 220 0
 646 019a 0278     		ldrb	r2, [r0]	@ zero_extendqisi2
 223:Generated_Source\PSoC5/I2C_INT.c ****                         I2C_DisableInt();
 647              		.loc 1 223 0
 648 019c 6026     		movs	r6, #96
 220:Generated_Source\PSoC5/I2C_INT.c ****                                                         I2C_MSTAT_WR_CMPLT);
 649              		.loc 1 220 0
 650 019e 42F00A02 		orr	r2, r2, #10
 224:Generated_Source\PSoC5/I2C_INT.c ****                     }
 651              		.loc 1 224 0
 652 01a2 4FF40045 		mov	r5, #32768
 220:Generated_Source\PSoC5/I2C_INT.c ****                                                         I2C_MSTAT_WR_CMPLT);
 653              		.loc 1 220 0
 654 01a6 0270     		strb	r2, [r0]
 223:Generated_Source\PSoC5/I2C_INT.c ****                         I2C_DisableInt();
 655              		.loc 1 223 0
 656 01a8 0E70     		strb	r6, [r1]
 224:Generated_Source\PSoC5/I2C_INT.c ****                     }
 657              		.loc 1 224 0
 658 01aa 2560     		str	r5, [r4]
 659 01ac 5DE7     		b	.L3
ARM GAS  C:\Users\Bruger\AppData\Local\Temp\ccm7ySnP.s 			page 41


 660              	.L16:
 228:Generated_Source\PSoC5/I2C_INT.c ****                         I2C_GENERATE_STOP;
 661              		.loc 1 228 0
 662 01ae 1E48     		ldr	r0, .L36+20
 229:Generated_Source\PSoC5/I2C_INT.c ****                     }
 663              		.loc 1 229 0
 664 01b0 254E     		ldr	r6, .L36+52
 228:Generated_Source\PSoC5/I2C_INT.c ****                         I2C_GENERATE_STOP;
 665              		.loc 1 228 0
 666 01b2 0278     		ldrb	r2, [r0]	@ zero_extendqisi2
 229:Generated_Source\PSoC5/I2C_INT.c ****                     }
 667              		.loc 1 229 0
 668 01b4 174C     		ldr	r4, .L36
 228:Generated_Source\PSoC5/I2C_INT.c ****                         I2C_GENERATE_STOP;
 669              		.loc 1 228 0
 670 01b6 42F01002 		orr	r2, r2, #16
 229:Generated_Source\PSoC5/I2C_INT.c ****                     }
 671              		.loc 1 229 0
 672 01ba 1027     		movs	r7, #16
 673 01bc 0425     		movs	r5, #4
 228:Generated_Source\PSoC5/I2C_INT.c ****                         I2C_GENERATE_STOP;
 674              		.loc 1 228 0
 675 01be 0270     		strb	r2, [r0]
 229:Generated_Source\PSoC5/I2C_INT.c ****                     }
 676              		.loc 1 229 0
 677 01c0 3770     		strb	r7, [r6]
 678 01c2 2570     		strb	r5, [r4]
 679 01c4 51E7     		b	.L3
 680              	.L35:
 136:Generated_Source\PSoC5/I2C_INT.c ****                         {
 681              		.loc 1 136 0
 682 01c6 1E4A     		ldr	r2, .L36+44
 683 01c8 1278     		ldrb	r2, [r2]	@ zero_extendqisi2
 684 01ca 92B1     		cbz	r2, .L10
 139:Generated_Source\PSoC5/I2C_INT.c ****                             I2C_TRANSMIT_DATA;
 685              		.loc 1 139 0
 686 01cc 1D4A     		ldr	r2, .L36+48
 687 01ce DFF860C0 		ldr	ip, .L36+28
 688 01d2 1268     		ldr	r2, [r2]
 140:Generated_Source\PSoC5/I2C_INT.c ****                             I2C_mstrWrBufIndex = 1u;   /* Set index to 2nd element */
 689              		.loc 1 140 0
 690 01d4 0F4F     		ldr	r7, .L36
 139:Generated_Source\PSoC5/I2C_INT.c ****                             I2C_TRANSMIT_DATA;
 691              		.loc 1 139 0
 692 01d6 1278     		ldrb	r2, [r2]	@ zero_extendqisi2
 141:Generated_Source\PSoC5/I2C_INT.c **** 
 693              		.loc 1 141 0
 694 01d8 184D     		ldr	r5, .L36+40
 139:Generated_Source\PSoC5/I2C_INT.c ****                             I2C_TRANSMIT_DATA;
 695              		.loc 1 139 0
 696 01da D2B2     		uxtb	r2, r2
 140:Generated_Source\PSoC5/I2C_INT.c ****                             I2C_mstrWrBufIndex = 1u;   /* Set index to 2nd element */
 697              		.loc 1 140 0
 698 01dc 4FF0040E 		mov	lr, #4
 141:Generated_Source\PSoC5/I2C_INT.c **** 
 699              		.loc 1 141 0
 700 01e0 0126     		movs	r6, #1
ARM GAS  C:\Users\Bruger\AppData\Local\Temp\ccm7ySnP.s 			page 42


 144:Generated_Source\PSoC5/I2C_INT.c ****                         }
 701              		.loc 1 144 0
 702 01e2 4624     		movs	r4, #70
 139:Generated_Source\PSoC5/I2C_INT.c ****                             I2C_TRANSMIT_DATA;
 703              		.loc 1 139 0
 704 01e4 8CF80020 		strb	r2, [ip]
 140:Generated_Source\PSoC5/I2C_INT.c ****                             I2C_mstrWrBufIndex = 1u;   /* Set index to 2nd element */
 705              		.loc 1 140 0
 706 01e8 87F800E0 		strb	lr, [r7]
 141:Generated_Source\PSoC5/I2C_INT.c **** 
 707              		.loc 1 141 0
 708 01ec 2E70     		strb	r6, [r5]
 144:Generated_Source\PSoC5/I2C_INT.c ****                         }
 709              		.loc 1 144 0
 710 01ee 0470     		strb	r4, [r0]
 711 01f0 3BE7     		b	.L3
 712              	.L10:
 147:Generated_Source\PSoC5/I2C_INT.c ****                         {
 713              		.loc 1 147 0
 714 01f2 0B4A     		ldr	r2, .L36+12
 715 01f4 1278     		ldrb	r2, [r2]	@ zero_extendqisi2
 716 01f6 9707     		lsls	r7, r2, #30
 717 01f8 D9D5     		bpl	.L16
 150:Generated_Source\PSoC5/I2C_INT.c ****                                                             I2C_MSTAT_WR_CMPLT);
 718              		.loc 1 150 0
 719 01fa 084C     		ldr	r4, .L36+8
 154:Generated_Source\PSoC5/I2C_INT.c ****                         }
 720              		.loc 1 154 0
 721 01fc 094D     		ldr	r5, .L36+16
 150:Generated_Source\PSoC5/I2C_INT.c ****                                                             I2C_MSTAT_WR_CMPLT);
 722              		.loc 1 150 0
 723 01fe 2278     		ldrb	r2, [r4]	@ zero_extendqisi2
 153:Generated_Source\PSoC5/I2C_INT.c ****                             I2C_DisableInt();
 724              		.loc 1 153 0
 725 0200 6027     		movs	r7, #96
 150:Generated_Source\PSoC5/I2C_INT.c ****                                                             I2C_MSTAT_WR_CMPLT);
 726              		.loc 1 150 0
 727 0202 42F00A02 		orr	r2, r2, #10
 154:Generated_Source\PSoC5/I2C_INT.c ****                         }
 728              		.loc 1 154 0
 729 0206 4FF40046 		mov	r6, #32768
 150:Generated_Source\PSoC5/I2C_INT.c ****                                                             I2C_MSTAT_WR_CMPLT);
 730              		.loc 1 150 0
 731 020a 2270     		strb	r2, [r4]
 153:Generated_Source\PSoC5/I2C_INT.c ****                             I2C_DisableInt();
 732              		.loc 1 153 0
 733 020c 0770     		strb	r7, [r0]
 154:Generated_Source\PSoC5/I2C_INT.c ****                         }
 734              		.loc 1 154 0
 735 020e 2E60     		str	r6, [r5]
 736 0210 2BE7     		b	.L3
 737              	.L37:
 738 0212 00BF     		.align	2
 739              	.L36:
 740 0214 D7490040 		.word	1073760727
 741 0218 00000000 		.word	I2C_state
 742 021c 00000000 		.word	I2C_mstrStatus
ARM GAS  C:\Users\Bruger\AppData\Local\Temp\ccm7ySnP.s 			page 43


 743 0220 00000000 		.word	I2C_mstrControl
 744 0224 80E100E0 		.word	-536813184
 745 0228 D6490040 		.word	1073760726
 746 022c 00000000 		.word	I2C_mstrRdBufIndex
 747 0230 D8490040 		.word	1073760728
 748 0234 00000000 		.word	I2C_mstrRdBufPtr
 749 0238 00000000 		.word	I2C_mstrRdBufSize
 750 023c 00000000 		.word	I2C_mstrWrBufIndex
 751 0240 00000000 		.word	I2C_mstrWrBufSize
 752 0244 00000000 		.word	I2C_mstrWrBufPtr
 753 0248 D9490040 		.word	1073760729
 754              		.cfi_endproc
 755              	.LFE0:
 756              		.size	I2C_ISR, .-I2C_ISR
 757              		.text
 758              	.Letext0:
 759              		.file 2 "Generated_Source\\PSoC5\\cytypes.h"
 760              		.file 3 "Generated_Source\\PSoC5\\I2C_PVT.h"