ARM GAS  C:\Users\Bruger\AppData\Local\Temp\cc5pu3XD.s 			page 1


   1              		.syntax unified
   2              		.cpu cortex-m3
   3              		.fpu softvfp
   4              		.eabi_attribute 20, 1
   5              		.eabi_attribute 21, 1
   6              		.eabi_attribute 23, 3
   7              		.eabi_attribute 24, 1
   8              		.eabi_attribute 25, 1
   9              		.eabi_attribute 26, 1
  10              		.eabi_attribute 30, 2
  11              		.eabi_attribute 34, 1
  12              		.eabi_attribute 18, 4
  13              		.thumb
  14              		.file	"Ignition_1.c"
  15              		.text
  16              	.Ltext0:
  17              		.section	.gnu.lto_.profile.71da0093,"",%progbits
  18 0000 789C6366 		.ascii	"x\234cf```a\200\000F\206\022O\000\001\245\000\306"
  18      60606061 
  18      80004686 
  18      124F0001 
  18      A500C6
  19              		.text
  20              		.section	.gnu.lto_.jmpfuncs.71da0093,"",%progbits
  21 0000 789C6D8B 		.ascii	"x\234m\213I\016\300 \014\003'b+\224\355K}\031_\207\250"
  21      490EC020 
  21      0C032762 
  21      2B94ED4B 
  21      7D195F87 
  22 0015 396269EC 		.ascii	"9bi\354\271\330q\317g;\017b8\360\020DdEH\360\250f\255"
  22      B9D871CF 
  22      673B0F62 
  22      38F01044 
  22      644548F0 
  23 002c A2F54285 		.ascii	"\242\365B\205\246\332a\374\347\015h\220\003f"
  23      A6DA61FC 
  23      E70D6890 
  23      0366
  24              		.text
  25              		.section	.gnu.lto_.inline.71da0093,"",%progbits
  26 0000 789C6DCB 		.ascii	"x\234m\313\273\015\302@\020\004\320\271\337r\334\031"
  26      BB0DC240 
  26      1004D0B9 
  26      DF72DC19 
  27 0010 DB0D2037 		.ascii	"\333\015 7\200\310i\300\241\233\240\027bJp\025\324A"
  27      80C869C0 
  27      A19BA017 
  27      624A7015 
  27      D441
  28 0022 408C881D 		.ascii	"@\214\210\035\271\004\326B\332d\330`Fz\243\015\370\177"
  28      B904D642 
  28      DA64D860 
  28      467AA30D 
  28      F87F
  29 0034 A3FB750F 		.ascii	"\243\373u\017\034?p\360\247\333;C\346\301o\352+\340"
  29      1C3F70F0 
  29      A7DB3B43 
ARM GAS  C:\Users\Bruger\AppData\Local\Temp\cc5pu3XD.s 			page 2


  29      E6C16FEA 
  29      2BE0
  30 0046 EED356BA 		.ascii	"\356\323V\272\325F\367v\271\332\354\212F\200$uY\317"
  30      D546F776 
  30      B9DAEC8A 
  30      46802475 
  30      59CF
  31 0058 E6912921 		.ascii	"\346\221)!\006%\377\354\214\004)*\305y0\332!_\224\312"
  31      0625FFEC 
  31      8C04292A 
  31      C57930DA 
  31      215F94CA 
  32 006c E3256699 		.ascii	"\343%f\231?\367L\205\25125L\007\246\226\251c\352\231"
  32      3FF74C85 
  32      A932354C 
  32      07A696A9 
  32      63EA99
  33 007f F005135A 		.ascii	"\360\005\023Z \241"
  33      20A1
  34              		.text
  35              		.section	.gnu.lto_.pureconst.71da0093,"",%progbits
  36 0000 789C25C1 		.ascii	"x\234%\3017\022\000 \014\004\261cL\216\256\267\343\377"
  36      37120020 
  36      0C04B163 
  36      4C8EAEB7 
  36      E3FF
  37 0012 9FA44032 		.ascii	"\237\244@2IW\237\213\200\021Id\012\225Fg0Yl\016\316"
  37      49579F8B 
  37      80114964 
  37      0A954667 
  37      30596C0E 
  38 0027 03282F02 		.ascii	"\003(/\002["
  38      5B
  39              		.text
  40              		.section	.gnu.lto_Ignition_1_Init.71da0093,"",%progbits
  41 0000 789C8D96 		.ascii	"x\234\215\226kL\\U\020\307\317\234{\367\301\302\262"
  41      6B4C5C55 
  41      10C7CF9C 
  41      7BF7C1C2 
  41      B2
  42 0011 50FCD092 		.ascii	"P\374\320\222\030?`\202&\215\211&\375\322\257F\2151"
  42      183F6082 
  42      268D8926 
  42      FDD2AF46 
  42      8D31
  43 0023 9A268DDF 		.ascii	"\232&\215\337\332\020\002\033\203Q \233%\361K\323\273"
  43      DA10021B 
  43      8351209B 
  43      25F14BD3 
  43      BB
  44 0034 EC42B4A9 		.ascii	"\354B\264\251B\211R\212B\037<\372\340]\240\202\210\335"
  44      4289528A 
  44      421F3CFA 
  44      E05DA082 
  44      88DD
  45 0046 82E5B594 		.ascii	"\202\345\265\224\367\333\226G\001K\215\"\010\021\266"
  45      F7DB9647 
ARM GAS  C:\Users\Bruger\AppData\Local\Temp\cc5pu3XD.s 			page 3


  45      014B8D22 
  45      0811B6
  46 0055 B5AC33E7 		.ascii	"\265\2543\347\336]\330]j\334d\017\367\036f\346\374\177"
  46      DE5DD85D 
  46      6ADC640F 
  46      F71E66E6 
  46      FC7F
  47 0067 73E6CC59 		.ascii	"s\346\314Y\211\205\177\336\302\257>\202\261\217\361"
  47      89857FDE 
  47      C2AF3E82 
  47      B18FF1
  48 0076 2FE819F0 		.ascii	"/\350\031\360\374\001\306\034F\016\262\372 \251\017"
  48      FC01C61C 
  48      460EB2FA 
  48      20A90F
  49 0085 778C3297 		.ascii	"w\2142\227\316v3\246\230t.\003S\242t\0004\317\200\235"
  49      CE7633A6 
  49      98742E03 
  49      53A27400 
  49      34CF809D 
  50 0099 E692AC83 		.ascii	"\346\222\254\203\323\\V\003>\346\353\034\362\335UE\221"
  50      D35C5603 
  50      3EE6EB1C 
  50      F2DD5545 
  50      91
  51 00aa 89158AA2 		.ascii	"\211\025\212\242\254u4\037\3149\350\345\214mp\325\000"
  51      AC75341F 
  51      CC39E8E5 
  51      8C6D70D5 
  51      00
  52 00bb AE422243 		.ascii	"\256B\"C\233\177\\u\013\026)\021\350\371i\371\231%S"
  52      9B7F5C75 
  52      0B162911 
  52      E8F969F9 
  52      992553
  53 00ce C26545C9 		.ascii	"\302eE\311\236\257[\354\216T\212\024\327\274\317\367"
  53      9EAF5BEC 
  53      8E548A14 
  53      D7BCCFF7 
  54 00de 9297035C 		.ascii	"\222\227\003\\\003\011=\341p<\274\032\257iF\207\232"
  54      03093DE1 
  54      703CBC1A 
  54      AF694687 
  54      9A
  55 00ef FEA6B128 		.ascii	"\376\246\261(\351\260p\316\315\233\272,\251\316\355"
  55      E9B070CE 
  55      CD9BBA2C 
  55      A9CEED
  56 00fe 8B7D41CE 		.ascii	"\213}A\3167\366u^w=\233\214\324\273P]\014\\\207\004"
  56      37F6755E 
  56      773D9B8C 
  56      D4BB505D 
  56      0C5C8704 
  57 0112 A8820455 		.ascii	"\250\202\004U\035T\203\036\030\343\376\331\272\003n"
  57      1D54831E 
  57      18E3FED9 
  57      BA036E
ARM GAS  C:\Users\Bruger\AppData\Local\Temp\cc5pu3XD.s 			page 4


  58 0121 C5E7DB98 		.ascii	"\305\347\333\2308\267r\224\037\342\314\313\271\304\350"
  58      38B77294 
  58      1FE2CCCB 
  58      B9C4E8
  59 0130 7F323DEA 		.ascii	"\1772=\352i0\320\020A\203\211\0063\015\3218\200\005"
  59      6930D010 
  59      41838906 
  59      330DD138 
  59      8005
  60 0142 07299651 		.ascii	"\007)\226Q\224\0034\031G\003cK\370\305\374-\343\263"
  60      94033419 
  60      4703634B 
  60      F8C5FC2D 
  60      E3B3
  61 0154 CB20CD40 		.ascii	"\313 \315@\307\337gVK\217\321\272[\234\022W\274^Qi^"
  61      C7DF6756 
  61      4B8FD1BA 
  61      5B9C1257 
  61      BC5E5169 
  62 0169 E15E2E7B 		.ascii	"\341^.{{\034\212Lj\347\226\006\207\215bJ\210\277_\364"
  62      7B1C8A4C 
  62      6AE79606 
  62      878D624A 
  62      88BF5FF4 
  63 017d CD97BC04 		.ascii	"\315\227\274\004\276u\270\300\313uP\003\361P\013\010"
  63      BE75B8C0 
  63      CB755003 
  63      F1500B08 
  64 018d 07755002 		.ascii	"\007uP\002l\006\234\333\271\233\240\006\224\324\230"
  64      6C069CDB 
  64      B99BA006 
  64      94D498
  65 019c 358D6D0F 		.ascii	"5\215m\017\200\002\200\033\030\324\243\361\004p\201"
  65      8002801B 
  65      18D4A3F1 
  65      047081
  66 01ab 8A286845 		.ascii	"\212(hEN\233\271;\245\237\251^2N\241\327T\317\371#\344"
  66      4E9BB93B 
  66      A59FA95E 
  66      324EA1D7 
  66      54CFF923 
  67 01c0 8474D080 		.ascii	"\204t\320\200>\250\265@\304\015\322\340p\037\012Vq\023"
  67      3EA8B540 
  67      C40DD2E0 
  67      701F0A56 
  67      7113
  68 01d2 55600C26 		.ascii	"U`\014&\320\006\256\225jR\310krabK\005)\352\325\330"
  68      D006AE95 
  68      6A52C86B 
  68      7261624B 
  68      0529EAD5 
  69 01e7 72B67306 		.ascii	"r\266s\006\365\2730\215\2010M\032\314\246^\3657\250"
  69      F5BB308D 
  69      81304D1A 
  69      CCA65EF5 
  69      37A8
  70 01f9 21BA4B56 		.ascii	"!\272KVn\312B\025\2224\207\250zn\260[B\223A\3254\362"
ARM GAS  C:\Users\Bruger\AppData\Local\Temp\cc5pu3XD.s 			page 5


  70      6ECA4215 
  70      923487A8 
  70      7A6EB05B 
  70      429341D5 
  71 020f 8A1A3102 		.ascii	"\212\0321\002=\256<*{\242*\272\340W4\350\231.\334\023"
  71      3DAE3C2A 
  71      7BA22ABA 
  71      E05734E8 
  71      992EDC13 
  72 0223 E4FB4090 		.ascii	"\344\373@\220\226\020E&\014\021&\341\271\336\255B\202"
  72      96104526 
  72      0C1126E1 
  72      B9DEAD42 
  72      82
  73 0234 C99F7934 		.ascii	"\311\237y4\035\350u\332\245\267E\001{\036noD\221\014"
  73      1DE875DA 
  73      A5B74501 
  73      7B1E6E6F 
  73      44910C
  74 0247 7D0CBD16 		.ascii	"}\014\275\026O.oJ\364j\340\364Zq\266\315aV\313\273\272"
  74      4F2E6F4A 
  74      F46AE0F4 
  74      5A71B6CD 
  74      6156CBBB 
  75 025c 33D99D7D 		.ascii	"3\331\235}I\331\361\3710\274\004?\250\325\335\206\253"
  75      49D9F1F9 
  75      30BC043F 
  75      A8D5DD86 
  75      AB
  76 026d FC08FEFA 		.ascii	"\374\010\376\372\206vH@/\347h\263O\004\221z\346\320"
  76      86764840 
  76      2FE768B3 
  76      4F04917A 
  76      E6D0
  77 027f E6275568 		.ascii	"\346'Uha\303d\241\024t\002\334\305&\362\020\245\277"
  77      61C364A1 
  77      147402DC 
  77      C526F210 
  77      A5BF
  78 0291 C121E478 		.ascii	"\301!\344x0\270\215M\201a\341\220\344s\015w\257\030"
  78      30B88D4D 
  78      8161E190 
  78      E4730D77 
  78      AF18
  79 02a3 28A6317F 		.ascii	"(\2461\177(\2648\215\2428\177\177RZ\006\304\377\265"
  79      28B4388D 
  79      A2387F7F 
  79      525A06C4 
  79      FFB5
  80 02b5 C3E8C5FC 		.ascii	"\303\350\305\374\334Ai\035\"\001\2358-TL@\266\240\364"
  80      DC41691D 
  80      22019D38 
  80      2D544C40 
  80      B6A0F4
  81 02c8 35AE0F1B 		.ascii	"5\256\017\033\244\017\304\2129K\243\327u\373\"\376\274"
  81      A40FC48A 
  81      394BA3D7 
ARM GAS  C:\Users\Bruger\AppData\Local\Temp\cc5pu3XD.s 			page 6


  81      75FB22FE 
  81      BC
  82 02d9 2FE25D3C 		.ascii	"/\342]<\236~\242\365G\347C\210\032\3728YhH<\014\251"
  82      9E7EA2F5 
  82      47E74388 
  82      1AFA3859 
  82      68483C0C 
  83 02ee 4B20750B 		.ascii	"K u\013$e\347v\256\254\"\015kHm\315\316q\313\036\206"
  83      2465E776 
  83      AEAC220D 
  83      6B486DCD 
  83      CE71CB1E 
  84 0303 9E00436F 		.ascii	"\236\000Co(\203\273\240w\310,}(\030\376*\377m\325\262"
  84      2883BBA0 
  84      77C82C7D 
  84      2818FE2A 
  84      FF6DD5B2 
  85 0317 2F43DFBE 		.ascii	"/C\337\276\014\036\261M\203C\316Z\221?Iy\202%\335\357"
  85      0C1EB14D 
  85      8343CE5A 
  85      913F4979 
  85      8225DDEF 
  86 032b DFA67B45 		.ascii	"\337\246{EG\203\241n\231\310Cc\222\302\230\356\011\246"
  86      4783A16E 
  86      99C84363 
  86      92C298EE 
  86      09A6
  87 033d 01C134D2 		.ascii	"\001\3014\322\222?\243\027LC\376m\352\254\336\254\334"
  87      923FA317 
  87      4C43FE6D 
  87      EAACDEAC 
  87      DC
  88 034e BB2F8301 		.ascii	"\273/\203\001\246!b\352\337\303\2247\377\254E/\235\024"
  88      A62162EA 
  88      DFC39437 
  88      FFAC452F 
  88      9D14
  89 0360 4CD9772E 		.ascii	"L\331w.\025\004J\357\244\333\341g\002\030\016o\2540"
  89      15044AEF 
  89      A4DBE167 
  89      02180E6F 
  89      AC30
  90 0372 22881C95 		.ascii	"\"\210\034\225mgE\221`\247\203Q?\317\237\305o\004\363"
  90      6D674591 
  90      60A78351 
  90      3FCF9FC5 
  90      6F04F3
  91 0385 6C9AC85E 		.ascii	"l\232\310^\343\221\303x\306\004\317\270\340q4\345\365"
  91      E391C378 
  91      C604CFB8 
  91      E07134E5 
  91      F5
  92 0396 0A1EF90B 		.ascii	"\012\036\371\013\377)-\\+\277j\016\360\350`\"p\320&"
  92      FF292D5C 
  92      2BBF6A0E 
  92      F0E86022 
  92      70D026
ARM GAS  C:\Users\Bruger\AppData\Local\Temp\cc5pu3XD.s 			page 7


  93 03a9 898796BD 		.ascii	"\211\207\226\275\017N\367EO\242zXc\321\247t\364\253"
  93      0F4EF745 
  93      4FA27A58 
  93      63D1A774 
  93      F4AB
  94 03bb 5A7EEAA9 		.ascii	"Z~\352\251\362\271\202.\246\015\256C\353)8\205}92\320"
  94      F2B9822E 
  94      A60DAE43 
  94      EB293885 
  94      7D3932D0 
  95 03cf 10ABA821 		.ascii	"\020\253\250!\306j\315\253\246^k^\007\376\353dO\207"
  95      C66ACDAB 
  95      A65E6B5E 
  95      07FEEB64 
  95      4F87
  96 03e1 F48538D5 		.ascii	"\364\2058\325>p\2469\322\314\374\3376\361\213h\023q"
  96      3E70A639 
  96      D2CCFCDF 
  96      36F18B68 
  96      1371
  97 03f3 28DEE56E 		.ascii	"(\336\345n\365D\2239\013\225\036\265\301)7\367Q:j\365"
  97      F5449339 
  97      0B951EB5 
  97      C12937F7 
  97      513A6AF5 
  98 0407 E29DC3F0 		.ascii	"\342\235\303\360>\221\030\336\316\352\205\322\345)\323"
  98      3E9118DE 
  98      CEEA85D2 
  98      E529D3
  99 0416 07277BD8 		.ascii	"\007'{\330\023\255e\332\020\226\351\007\224\351`\363"
  99      13AD65DA 
  99      1096E907 
  99      94E960F3 
 100 0426 C6D91718 		.ascii	"\306\331\027\030\314\222\2711\314|Nl\314<\221Z\250W"
 100      CC92B931 
 100      CC7C4E6C 
 100      CC3C915A 
 100      A857
 101 0438 FDD13E25 		.ascii	"\375\321>%\3527\272~8\264%D\213\270\027\326\226Zv\217"
 101      EA37BA7E 
 101      38B42544 
 101      8BB817D6 
 101      965A768F 
 102 044c 93051610 		.ascii	"\223\005\026\020\366\241\200]\244\314\221v\231\341O"
 102      F6A1805D 
 102      A4CC9176 
 102      99E14F
 103 045b 0955FB40 		.ascii	"\011U\373@k\250\366\213\245/jb\"\302\304,\0111\313$"
 103      6BA8F68B 
 103      A52F6A62 
 103      22C2C42C 
 103      0931CB24 
 104 046f 269A5AEA 		.ascii	"&\232Z\352\355\357\346\"h\345\230\307a\227g\214\020"
 104      EDEFE622 
 104      68E598C7 
 104      6197678C 
 104      10
ARM GAS  C:\Users\Bruger\AppData\Local\Temp\cc5pu3XD.s 			page 8


 105 0480 B3DA553C 		.ascii	"\263\332U<\306\003bb\341W\024\363H\210Y\331\275=9-\267"
 105      C6036262 
 105      E15714F3 
 105      488859D9 
 105      BD3D392D 
 106 0495 C5CD1854 		.ascii	"\305\315\030T\354\3348\270\246\2357@\233\025\305\305"
 106      ECDC38B8 
 106      A69D3740 
 106      9B15C5C5 
 107 04a5 846E1DDD 		.ascii	"\204n\035\335\341\263\340pO\276'v\212\321\375\0168\211"
 107      E1B3E070 
 107      4FBE2776 
 107      8AD1FD0E 
 107      3889
 108 04b7 A5FFF23B 		.ascii	"\245\377\362;\326t\253-\331nMM:\236\221eK\261\2368v"
 108      D674AB2D 
 108      D96E4D4D 
 108      3A9E9165 
 108      4BB19E38 
 109 04cc 3CE3CD23 		.ascii	"<\343\315#'\336\375(=\315\236\226\221\236\364\372k)"
 109      27DEFD28 
 109      3DCD9E96 
 109      919EF4FA 
 109      6B29
 110 04de 4C4EB1DB 		.ascii	"LN\261\333>9\264;\225\224\226n\267\332lY\231\366\343"
 110      3E39B43B 
 110      9594966E 
 110      B7DA6C59 
 110      99F6E3
 111 04f1 767435A4 		.ascii	"vt5\244dd\321\204>\323jK\313H\305\327O3\223mVs\300\352"
 111      6464D184 
 111      3ED36A4B 
 111      CB48C5D7 
 111      4F33936D 
 112 0509 FD8C54EB 		.ascii	"\375\214T\353\277\2233Y\016"
 112      BF933359 
 112      0E
 113              		.text
 114              		.section	.gnu.lto_Ignition_1_Start.71da0093,"",%progbits
 115 0000 789C7D91 		.ascii	"x\234}\221OHTQ\024\306\317w\356\2337\317L\212\240\215"
 115      4F485451 
 115      14C6CF77 
 115      EE9B37CF 
 115      4C8AA08D 
 116 0014 8B5945EE 		.ascii	"\213YE\356\212\2106\326.(\332\011n\005\011{\210\233"
 116      8A8836D6 
 116      2E28DA09 
 116      6E05097B 
 116      889B
 117 0026 19108336 		.ascii	"\031\020\2036\203\3675CDD\310\364\207Pk\347hY\232\331"
 117      83F73543 
 117      4444C8F4 
 117      87506BE7 
 117      68599AD9 
 118 003a 1F982C5E 		.ascii	"\037\230,^\255\"\320\220\350\017\"\265Q\250\335L\023"
 118      AD22D090 
 118      E80F22B5 
ARM GAS  C:\Users\Bruger\AppData\Local\Temp\cc5pu3XD.s 			page 9


 118      51A8DD4C 
 118      13
 119 004b C523643A 		.ascii	"\305#d:\347\275(\234\310\007\357\336\367\316\375\316"
 119      E7BD289C 
 119      C807EFDE 
 119      F7CEFDCE 
 120 005b 777FF7BB 		.ascii	"w\177\367\273\206\376}\016\312\333\317D{eF\212\300#"
 120      86FE7D0E 
 120      CADBCF44 
 120      7B65468A 
 120      C023
 121 006d 4B4481C7 		.ascii	"KD\201\307l*\031\262\333\234w\373\311n7p\222\262\003"
 121      6C2A19B2 
 121      DB9C77FB 
 121      C96E3770 
 121      92B203
 122 0080 E8078186 		.ascii	"\350\007\201\206\3318\030\306\027\2561F\302\351\353"
 122      D93818C6 
 122      17AE3146 
 122      C2E9EB
 123 008f AD1D13D6 		.ascii	"\255\035\023\326\332\352\327\305\240+D$\206uN6\300$"
 123      DAEAD7C5 
 123      A02B4424 
 123      86754E36 
 123      C024
 124 00a1 3A4844B5 		.ascii	":HD\265\342\306\373V\267(\242\235\311\032\246\340B\346"
 124      E2C6FB56 
 124      B728A29D 
 124      C91AA6E0 
 124      42E6
 125 00b3 D95DA16D 		.ascii	"\331]\241m4\346\027\236\227\334\026C\021#\255\203\247"
 125      34E6179E 
 125      97DC1643 
 125      1123AD83 
 125      A7
 126 00c4 03D19A28 		.ascii	"\003\321\232(u\307uf\235\315\012\316\226\346\236\036"
 126      75C77566 
 126      9DCD0ACE 
 126      96E69E1E 
 127 00d4 D6DE1F6C 		.ascii	"\326\336\037l\304\366\346\233K3\234\377i\317[/b\336"
 127      C4F6E69B 
 127      4B339CFF 
 127      69CF5B2F 
 127      62DE
 128 00e6 5063A97E 		.ascii	"Pc\251~Z{\275\354}f\251\304\277SAq\03470\026XU\031\334"
 128      5A7BBDEC 
 128      7D66A9C4 
 128      BF534171 
 128      1C373016 
 129 00fe 421EB7D1 		.ascii	"B\036\267\321.\014\323R\246\267(~(d\376z\006\345'\027"
 129      2E0CD352 
 129      A6B7287E 
 129      2864FE7A 
 129      06E52717 
 130 0112 D3DA2D00 		.ascii	"\323\332-\000\270\243:R\002C\225\214YE!\214|\325R\363"
 130      B8A33A52 
 130      0243958C 
ARM GAS  C:\Users\Bruger\AppData\Local\Temp\cc5pu3XD.s 			page 10


 130      5945218C 
 130      7CD552F3 
 131 0126 EE4E3D6E 		.ascii	"\356N=n\270\213\274\260\247HP\253\325gGT\372_\316f\260"
 131      B88BBCB0 
 131      A74850AB 
 131      D5674754 
 131      FA5FCE66 
 132 013b 993F60B3 		.ascii	"\231?`\263R\026\301\362h\271\260CQ\014\010\367b\224"
 132      5216C1F2 
 132      68B9B043 
 132      510C08F7 
 132      6294
 133 014d 75767E47 		.ascii	"uv~G\361\342\373\205W\235\233\242\015\033\273\343\\"
 133      F1E2FB85 
 133      579D9BA2 
 133      0D1BBBE3 
 133      5C
 134 015e EB72F0A6 		.ascii	"\353r\360\246\3141'\310\204\373z\310\264\254\215\326"
 134      CC3127C8 
 134      84FB7AC8 
 134      B4AC8DD6 
 135 016e 26CA6DEA 		.ascii	"&\312m\352\354F/\003\353lJ\315\215\341&\257-\256\246"
 135      EC462F03 
 135      EB6C4ACD 
 135      8DE126AF 
 135      2DAEA6
 136 0181 14EE4A20 		.ascii	"\024\356J pi\314\243\035\017b\270\207\232\332\012\012"
 136      7069CCA3 
 136      1D0F62B8 
 136      879ADA0A 
 136      0A
 137 0192 DFCE2D55 		.ascii	"\337\316-U\316$\226^\342zua\274\324\022Gg\005\370\221"
 137      CE24965E 
 137      E27A7561 
 137      BCD41247 
 137      6705F891 
 138 01a6 A805B304 		.ascii	"\250\005\263\004\325l\351\370X\034\305\204>\"\010/\037"
 138      D56CE9F8 
 138      581CC584 
 138      3E22082F 
 138      1F
 139 01b7 8BE325BD 		.ascii	"\213\343%\275}\350Q%\254=\307\375\254?xr\310?\325\333"
 139      7DE85125 
 139      AC3DC7FD 
 139      AC3F7872 
 139      C83FD5DB 
 140 01cb 9D3B3DD8 		.ascii	"\235;=\330\347\367tu\347\216\036\3529\321\237\035\030"
 140      E7F77475 
 140      E78E1EEA 
 140      39D19F1D 
 140      18
 141 01dc 1AC8657B 		.ascii	"\032\310e{\017\354\353\243_A\311\350\243"
 141      0FECEBA3 
 141      5F41C9E8 
 141      A3
 142              		.text
 143              		.section	.gnu.lto_Ignition_1_Enable.71da0093,"",%progbits
ARM GAS  C:\Users\Bruger\AppData\Local\Temp\cc5pu3XD.s 			page 11


 144 0000 789C6366 		.ascii	"x\234cf\300\004R@\254\312\310\300\240\006\244\031\231"
 144      C0045240 
 144      ACCAC8C0 
 144      A006A419 
 144      99
 145 0011 19189926 		.ascii	"\031\030\231&\234c`h\344`bd\0041\030\030\031\352\231"
 145      9C636068 
 145      E4606264 
 145      04311818 
 145      19EA99
 146 0024 18EB195F 		.ascii	"\030\353\031_2}db\234p`\365\014n\365\245\015\015\015"
 146      327D6462 
 146      9C7060F5 
 146      0C6EF5A5 
 146      0D0D0D
 147 0037 1F3E7D94 		.ascii	"\037>}\224h\225\370\311\304\300\360\231\011b\014\343"
 147      6895F8C9 
 147      C4C0F099 
 147      09620CE3 
 148 0047 72467506 		.ascii	"rFu\006\240\232\217-\177\257s\263\265\000\325\010@\344"
 148      A09A8F2D 
 148      7FAF73B3 
 148      B500D508 
 148      40E4
 149 0059 185730B2 		.ascii	"\030W0\262\001\215gX/t\240\341\377\377\315g&\277\320"
 149      018D6758 
 149      2F74A0E1 
 149      FFFFCD67 
 149      26BFD0
 150 006c 62666562 		.ascii	"bfeb\370\311\004\264\014H00<\001\252\002Y\365\224\211"
 150      F8C904B4 
 150      0C483030 
 150      3C01AA02 
 150      59F59489 
 151 0080 094433DF 		.ascii	"\011D3\337b<\364\255\353\334\256\012\220\306\357L {"
 151      623CF4AD 
 151      EBDCAE0A 
 151      90C6EF4C 
 151      207B
 152 0092 677D5CBA 		.ascii	"g}\\\272\214\367\005\323O&\246\237'\032\033X@\326\334"
 152      8CF705D3 
 152      4F26A69F 
 152      271A1B58 
 152      40D6DC
 153 00a5 7F72FE22 		.ascii	"\177r\376\"\007X\210\001\304\2753cj/\323\\\306\331\215"
 153      07588801 
 153      C4BD3363 
 153      6A2FD35C 
 153      C6D98D
 154 00b8 2D8C3F99 		.ascii	"-\214?\231\230\031W2J1\256b\004\372\214q5\343\\F\206"
 154      98195732 
 154      4A31AE62 
 154      04FA8C71 
 154      35E35C46 
 155 00cd 5B8CCD5F 		.ascii	"[\214\315_\330 \3061CL\234\272g\316$N\220v\306\006F"
 155      D820C631 
 155      434C9CBA 
ARM GAS  C:\Users\Bruger\AppData\Local\Temp\cc5pu3XD.s 			page 12


 155      67CE244E 
 155      9076C606 
 156 00e2 06C63540 		.ascii	"\006\3065@\245@['1\202\324\3403m-\3204\240\031\014\367"
 156      A5405B27 
 156      3182D4E0 
 156      336D2DD0 
 156      34A0190C 
 157 00f7 181B0F5C 		.ascii	"\030\033\017\\\367\003\251\006y\375\011\320\027@\207"
 157      F703A906 
 157      79FD09D0 
 157      174087
 158 0106 035DA2E2 		.ascii	"\003]\242\342\236\232\227Z\224X\222\232\022\037\234"
 158      9E9A975A 
 158      9458929A 
 158      121F9C
 159 0115 5F5A949C 		.ascii	"_Z\224\234\032\023\020\234\357l\032\343\231\236\227"
 159      1A13109C 
 159      EF6C1AE3 
 159      999E97
 160 0124 5992999F 		.ascii	"Y\222\231\237\027o\250\227\314\000\000\263~sG"
 160      176FA897 
 160      CC0000B3 
 160      7E7347
 161              		.text
 162              		.section	.gnu.lto_Ignition_1_Stop.71da0093,"",%progbits
 163 0000 789C6366 		.ascii	"x\234cf\300\004R@\254\302\310\300\240\006\244\031\231"
 163      C0045240 
 163      ACC2C8C0 
 163      A006A419 
 163      99
 164 0011 19189926 		.ascii	"\031\030\231&\234c`h\344`bd\0041\030\030\031\352\231"
 164      9C636068 
 164      E4606264 
 164      04311818 
 164      19EA99
 165 0024 18EB195F 		.ascii	"\030\353\031_2}db\234p`\365\014n\365\245\015\015\015"
 165      327D6462 
 165      9C7060F5 
 165      0C6EF5A5 
 165      0D0D0D
 166 0037 1F26FD96 		.ascii	"\037&\375\226h\225\370\311\304\300\360\231\011b\014"
 166      6895F8C9 
 166      C4C0F099 
 166      09620C
 167 0046 E3724675 		.ascii	"\343rFu\006\240\232\217-\177\257s\263\265\000\325\010"
 167      06A09A8F 
 167      2D7FAF73 
 167      B3B500D5 
 167      08
 168 0057 40E41857 		.ascii	"@\344\030W0\262\001\215gX/t\240\341\377\377\315o'wX"
 168      30B2018D 
 168      67582F74 
 168      A0E1FFFF 
 168      CD6F2777 
 169 006c 33B33231 		.ascii	"3\26321\374d\002Z\006$\030\030\236\000U\201\254z\312"
 169      FC64025A 
 169      06241818 
ARM GAS  C:\Users\Bruger\AppData\Local\Temp\cc5pu3XD.s 			page 13


 169      9E005581 
 169      AC7ACA
 170 007f C404A299 		.ascii	"\304\004\242\231o1\036\372\326\365lo\005H\343w&\220"
 170      6F311EFA 
 170      D6F56C6F 
 170      0548E377 
 170      2690
 171 0091 BDB33E2E 		.ascii	"\275\263>.]\306\373\202\351'\023\323\317\023\215\015"
 171      5DC6FB82 
 171      E92713D3 
 171      CF138D0D 
 172 00a1 2C206BEE 		.ascii	", k\356?9\177\221\003,\304\000\342\336\2311\265\227"
 172      3F397F91 
 172      032CC400 
 172      E2DE9931 
 172      B597
 173 00b3 692EE3EC 		.ascii	"i.\343\354\306\026\306\237L\314\214+\031\245\030W1\002"
 173      C616C69F 
 173      4CCC8C2B 
 173      19A51857 
 173      3102
 174 00c5 7DC6B89A 		.ascii	"}\306\270\232q.#\303-\306\346\037l\020\343\230!&\316"
 174      712E23C3 
 174      2DC6E61F 
 174      6C10E398 
 174      2126CE
 175 00d8 7FF9EF05 		.ascii	"\177\371\357\005\013H;s=\003\343\032\240J\240\245\223"
 175      0B483B73 
 175      3D03E31A 
 175      A04AA0A5 
 175      93
 176 00e9 18414AF0 		.ascii	"\030AJ\360\031\266\026h\030\320\010\206{\214\215\007"
 176      19B61668 
 176      18D00886 
 176      7B8C8D07 
 177 00f9 6EFA8354 		.ascii	"n\372\203T\203|\376\004\350\011\240\273\201\016QqO\315"
 177      837CFE04 
 177      E809A0BB 
 177      810E5171 
 177      4FCD
 178 010b 4B2D4A2C 		.ascii	"K-J,IM\211\017\316/-JN\215\011\010\316w6\215\361L\317"
 178      494D890F 
 178      CE2F2D4A 
 178      4E8D0908 
 178      CE77368D 
 179 0122 CB2CC9CC 		.ascii	"\313,\311\314\317\2137\324Kf\000\000Q\253s\316"
 179      CF8B37D4 
 179      4B660000 
 179      51AB73CE 
 180              		.text
 181              		.section	.gnu.lto_Ignition_1_WriteCounter.71da0093,"",%progbits
 182 0000 789C654F 		.ascii	"x\234eO\277KBQ\030\375\316}\246\202B\322\350\234H\004"
 182      BF4B4251 
 182      18FDCE7D 
 182      A68242D2 
 182      E89C4804 
 183 0014 42437BD0 		.ascii	"BC{\320\020m\201\253`a\217py\202<g\357+\377\000\203"
ARM GAS  C:\Users\Bruger\AppData\Local\Temp\cc5pu3XD.s 			page 14


 183      106D81AB 
 183      60618F70 
 183      79823C67 
 183      EF2BFF00 
 184 0029 10296C28 		.ascii	"\020)l(\242\037Vf[K<\202\006\011\264\206|\344\220\020"
 184      A21F5666 
 184      5B4B3C82 
 184      0609B486 
 184      7CE49010 
 185 003d 0AB62506 		.ascii	"\012\266%\006\345\020\366\335\034\273p\371\276s8\367"
 185      E510F6DD 
 185      1CBB70F9 
 185      BE7338F7 
 186 004d 9C7335FA 		.ascii	"\234s5\372\177\202|g@\024\341\011\215 \362u\"\313+\000"
 186      7F827C67 
 186      4014E109 
 186      8D20F275 
 186      22CB2B00 
 187 0061 B510282B 		.ascii	"\265\020(+\220\305\273\350\013\344\355r\321\027>\222"
 187      90C5BBE8 
 187      0BE4ED72 
 187      D1173E92 
 188 0071 527E5C3F 		.ascii	"R~\\?'\345\316\352P\020\015\304\330\007\307\010\263"
 188      27E5CEEA 
 188      50100DC4 
 188      D807C708 
 188      B3
 189 0082 A65EDB32 		.ascii	"\246^\3332\2650\210\327\207\267\357\201\277'\206\002"
 189      B53088D7 
 189      87B7EF81 
 189      BF278602 
 190 0092 0105779D 		.ascii	"\001\005w\235\356\247\246\240\020\012\3368\267\373\223"
 190      EEA7A6A0 
 190      100ADE38 
 190      B7FB93
 191 00a1 A1432937 		.ascii	"\241C)7\355\227+\271\300\274\206\023hl\207S\004q\206"
 191      ED972BB9 
 191      C0BC8613 
 191      686C8753 
 191      047186
 192 00b4 20314528 		.ascii	" 1E(#\244\344\375\334\217\343s\3478;0\216\3049\334\\"
 192      23A4E4FD 
 192      DC8FE373 
 192      E7383B30 
 192      8EC439DC 
 193 00c9 9B2A53B6 		.ascii	"\233*S\266\034\215\006\315fo\326\355\342\326JO\035V"
 193      1C8D06CD 
 193      666FD6ED 
 193      E2D64A4F 
 193      1D56
 194 00db A8FA5DCE 		.ascii	"\250\372]\316\342\251\265pW\250:\005M=b\263\355\352"
 194      E2A9B570 
 194      57A83A05 
 194      4D3D62B3 
 194      EDEA
 195 00ed FD814755 		.ascii	"\375\201GUq\345\037-\351R\376\355N\343\311\373G\221"
 195      71E51F2D 
ARM GAS  C:\Users\Bruger\AppData\Local\Temp\cc5pu3XD.s 			page 15


 195      E952FEED 
 195      4EE3C9FB 
 195      4791
 196 00ff 82B2D628 		.ascii	"\202\262\326(\372K\330\263r\030\212\011\\p\243KnD\250"
 196      FA4BD8B3 
 196      72188A09 
 196      5C70A34B 
 196      6E44A8
 197 0112 A0842F76 		.ascii	"\240\204/v}\205e\267[B\031\252\337w\004T\020\307N/\351"
 197      7D8565B7 
 197      5B4219AA 
 197      DF770454 
 197      10C74E2F 
 198 0127 869E5E33 		.ascii	"\206\236^3\365\365x4\225I'\364\330J4\2658\037[\3360"
 198      F5F57834 
 198      954927F4 
 198      D84A34B5 
 198      381F5BDE 
 199 013c 92663265 		.ascii	"\222f2e\304\347\"\011\362$R\031\303\324\323\277\347"
 199      C4E72209 
 199      F2245219 
 199      C3D4D3BF 
 199      E7
 200 014d 517C86   		.ascii	"Q|\206"
 201              		.text
 202              		.section	.gnu.lto_Ignition_1_ReadCounter.71da0093,"",%progbits
 203 0000 789C658F 		.ascii	"x\234e\217=HBQ\024\307\3179\367\3652j\220F\347HZ\202"
 203      3D484251 
 203      14C7CF39 
 203      F7F5326A 
 203      9046E748 
 204 0016 8A1A5A1B 		.ascii	"\212\032Z\033\242%\002WA\302\036\341\242$6{_85E5H!\265"
 204      A2250257 
 204      41C21EE1 
 204      A224367B 
 204      5F383545 
 205 002e A47D2B34 		.ascii	"\244}+4J MB`\010\221}@\201(\324\360\"1\314G\204\335"
 205      4A204D42 
 205      6008917D 
 205      408128D4 
 205      F02231CC 
 206 0045 F36AAA0B 		.ascii	"\363j\252\013\207s\377\367\236\363;\377#\340\377\361"
 206      8773FFF7 
 206      9EF33BFF 
 206      23E0FFF1 
 207 0055 A8984580 		.ascii	"\250\230E\200A\225Q\000\322Z\011\300t\021\"_\000!N\030"
 207      41955100 
 207      D25A09C0 
 207      7411225F 
 207      00214E18 
 208 0069 C7176A10 		.ascii	"\307\027j\020^V\333\315\276g\262\011\334\240\344V\245"
 208      5E56DBCD 
 208      BE67B209 
 208      DCA0E456 
 208      A5
 209 007a FE2E5822 		.ascii	"\376.X\"\261\3147KU\335\273'\345\312\333\372\303Rrs"
 209      B1CC374B 
ARM GAS  C:\Users\Bruger\AppData\Local\Temp\cc5pu3XD.s 			page 16


 209      55DDBB27 
 209      E5CADBFA 
 209      C3527273 
 210 008e 176D2268 		.ascii	"\027m\"h\022`\006=\270\217<\010\017\320\313\265\215"
 210      1260063D 
 210      B88F3C08 
 210      0FD0CBB5 
 210      8D
 211 009f C457A557 		.ascii	"\304W\245WOH)\335\\\241>\016QW& \333_\220\235\316\231"
 211      4F4829DD 
 211      5CA13E0E 
 211      51572620 
 211      DB5F909D 
 212 00b5 75539CD4 		.ascii	"uS\234\3245\002\233\204\000\306@M\005\033\252+\241\262"
 212      35029B84 
 212      00C6404D 
 212      051BAA2B 
 212      A1B2
 213 00c7 B8C78BD6 		.ascii	"\270\307\213\326j\313\232\340\306\017bw;\231Ob7Z\262"
 213      6ACB9AE0 
 213      C60F6277 
 213      3B994F62 
 213      375AB2
 214 00da 684A8DA7 		.ascii	"hJ\215\247<\325\256\312.\347\011X\246\363\327\033=)"
 214      3CD5AECA 
 214      2EE70958 
 214      A6F3D71B 
 214      3D29
 215 00ec DC3613CA 		.ascii	"\3346\023\312Y\027\036)W\307\354\012O0\205\340\000K"
 215      59171E29 
 215      57C7EC0A 
 215      4F3085E0 
 215      004B
 216 00fe AFA33F40 		.ascii	"\257\243?@\301\373Y\347\267N\273\236+\377%\352\016\321"
 216      C1FB59E7 
 216      B74EBB9E 
 216      2BFF25EA 
 216      0ED1
 217 0110 BA6BA775 		.ascii	"\272k\247u\207h\026\206l\352\306S\305\314:\314\0343"
 217      87681686 
 217      6CEAC653 
 217      C5CC3ACC 
 217      1C33
 218 0122 1FD19463 		.ascii	"\037\321\224c\277@\340\035\220\275\253M\006\246\215"
 218      BF40E01D 
 218      90BDAB4D 
 218      06A68D
 219 0131 B0119D8F 		.ascii	"\260\021\235\217\031\013\001_d9\0324\374s\276\310\324"
 219      190B015F 
 219      64391A34 
 219      FC73BEC8 
 219      D4
 220 0142 B87F6631 		.ascii	"\270\177f1\034\212\205\"\341\300\310p\020\276\001\311"
 220      1C8A8522 
 220      E1C0C870 
 220      10BE01C9 
 221 0152 FF8B64   		.ascii	"\377\213d"
ARM GAS  C:\Users\Bruger\AppData\Local\Temp\cc5pu3XD.s 			page 17


 222              		.text
 223              		.section	.gnu.lto_Ignition_1_ClearFIFO.71da0093,"",%progbits
 224 0000 789C6591 		.ascii	"x\234e\221\317+DQ\024\307\3179\367\2757\203)\222\225"
 224      CF2B4451 
 224      14C7CF39 
 224      F7BD3783 
 224      299295
 225 0013 B2132BCA 		.ascii	"\262\023+\312\302_ \311N\315v\0121i63%\026V\336k^\026"
 225      C25F20C9 
 225      4ECD760A 
 225      31693633 
 225      251656DE 
 226 002a B2B0507E 		.ascii	"\262\260P~\016\013\371\375k\030\205$\303\002\245FD~"
 226      0E0BF9FD 
 226      6B188524 
 226      C302A546 
 226      447E
 227 003c 2C46E929 		.ascii	",F\351)\026~L#\314B\234\373\236\024^\275{\357;\367\323"
 227      167E4C23 
 227      CC429CFB 
 227      9E145EBD 
 227      7BEF3BF7 
 228 0051 F77CEE7D 		.ascii	"\367|\356}\002\376?\325\374>!@\011\317\250\001Ro\002"
 228      02FE3FD5 
 228      FC3E2140 
 228      09CFA801 
 228      526F02
 229 0064 C070132A 		.ascii	"\300p\023*\316B8\213\035\267B\242g\037@\317VM\027\350"
 229      CE42388B 
 229      1DB742A2 
 229      671F40CF 
 229      564D17E8 
 230 0078 1E1551D6 		.ascii	"\036\025Q\326\001\241\223\204\242b')N\340=\245\010{"
 230      01A19384 
 230      A2622729 
 230      4EE03DA5 
 230      087B
 231 008a E3730339 		.ascii	"\343s\0039\245\023\272\256?\237\244:\364\276\206\014"
 231      A513BAAE 
 231      3F9FA43A 
 231      F4BE860C 
 232 009a 01A4C921 		.ascii	"\001\244\311!p\012K\201\241\224\371q\236\243\231\014"
 232      700A4B81 
 232      A194F971 
 232      9EA3990C 
 233 00aa E5397B38 		.ascii	"\3459{8\215\032\253\300R~\\\377\374\214\355\367\207"
 233      8D1AABC0 
 233      527E5CFF 
 233      FC8CEDF7 
 233      87
 234 00bb CB3A3401 		.ascii	"\313:4\001\031\226\341\201T\036\004\200\305(+XD<\211"
 234      1996E181 
 234      541E0480 
 234      C5282B58 
 234      443C89
 235 00ce 5B2EB197 		.ascii	"[.\261\227\270\302\335\327\356\335C\361+7\036K\026\330"
 235      B8C2DDD7 
ARM GAS  C:\Users\Bruger\AppData\Local\Temp\cc5pu3XD.s 			page 18


 235      EEDD43F1 
 235      2B371E4B 
 235      16D8
 236 00e0 A969C2BF 		.ascii	"\251i\302\277\035q\206\217\0138\213\332\033)\2747\364"
 236      1D71868F 
 236      0B388BDA 
 236      1B29BC37 
 236      F4
 237 00f1 B075E1BE 		.ascii	"\260u\341\276\243\014)\321cCW$~m\035\035;%\220\237\203"
 237      A30C29D1 
 237      63435724 
 237      7E6D1D1D 
 237      3B25909F 
 238 0106 CFD67A6E 		.ascii	"\317\326zn\004\207\215>\303\235!\025\347\260\020\347"
 238      04878D3E 
 238      C39D2115 
 238      E7B010E7 
 239 0116 B1904316 		.ascii	"\261\220C\0260\"\275o\031\344Kq\\\022\033\343\332o\231"
 239      3022BD6F 
 239      19E44B71 
 239      5C121BE3 
 239      DA6F99
 240 0129 B1D1A26F 		.ascii	"\261\321\242o\031\372'\263h\313,I\031y\204\304\366\310"
 240      19FA27B3 
 240      68CB2C49 
 240      197984C4 
 240      F6C8
 241 013b 7596ECAC 		.ascii	"u\226\354\254\335\037\374\225\321l\231\307\275\241S"
 241      DD1FFC95 
 241      D16C99C7 
 241      BDA153
 242 014a FA917161 		.ascii	"\372\221qa\224e\226m\231\025)s\205\341\367\256\027\222"
 242      9465966D 
 242      99152973 
 242      85E1F7AE 
 242      1792
 243 015c EDDE4875 		.ascii	"\355\336HuB\017o\336\323\036\231 \270a\214\33134/\303"
 243      420F6FDE 
 243      D31E9920 
 243      B8618CD9 
 243      33342FC3 
 244 0170 B3F80D31 		.ascii	"\263\370\0151aLn\366\270l\202sVe\232}*U^t\022\215\370"
 244      614C6EF6 
 244      B86C8273 
 244      56659A7D 
 244      2A555E74 
 245 0187 5AD22361 		.ascii	"Z\322#aY\265\370FM\027\377\212\342\032\177\320\337\332"
 245      59B5F846 
 245      4D17FF8A 
 245      E21A7FD0 
 245      DFDA
 246 0199 D8E66FAE 		.ascii	"\330\346o\256\367\206\332[\233\374\276:o\250\252\322"
 246      F786DA5B 
 246      9BFCBE3A 
 246      6FA8AAD2 
 247 01a9 57DB120C 		.ascii	"W\333\022\014\264\005B\301\372\212\362&\370\002\230"
 247      B40542C1 
ARM GAS  C:\Users\Bruger\AppData\Local\Temp\cc5pu3XD.s 			page 19


 247      FA8AF226 
 247      F80298
 248 01b8 41C5CC   		.ascii	"A\305\314"
 249              		.text
 250              		.section	.gnu.lto_Ignition_1_WritePeriod.71da0093,"",%progbits
 251 0000 789C654F 		.ascii	"x\234eO\277KBQ\030\375\316\275/\025l\220\246rNl)h\250"
 251      BF4B4251 
 251      18FDCEBD 
 251      2F156C90 
 251      A6724E6C 
 252 0017 396888B6 		.ascii	"9h\210\266\300U\220\320G\270\370Bl\366\276\260\326\234"
 252      C05590D0 
 252      47B8F842 
 252      6CF6BEB0 
 252      D69C
 253 0029 328A200A 		.ascii	"2\212 \012\311\2622\360\017\350\321\320R\024\016!\024"
 253      C9B232F0 
 253      0FE8D1D0 
 253      52140E21 
 253      14
 254 003a 1484D28F 		.ascii	"\024\204\322\217\251\207A\275\241\354\2739v\341\362"
 254      A98741BD 
 254      A1ECBB39 
 254      76E1F2
 255 0049 7DE770EE 		.ascii	"}\347p\3569\347J\372\177\302|G@4\312\023\222 \212\327"
 255      39E74AFA 
 255      7FC27C47 
 255      4034CA13 
 255      92208AD7 
 256 005d 44764000 		.ascii	"Dv@\000z!P^ \217W\341\012\024\235\352F0ZVJ\275\357z"
 256      7A21505E 
 256      208F57E1 
 256      0A149DEA 
 256      46305A56 
 257 0075 432B839E 		.ascii	"C+\203\236 \352\210\236\015\366\021eI\267\3566\3742"
 257      20EA889E 
 257      0DF61165 
 257      49B7EE36 
 257      FC32
 258 0087 0AE2FDF2 		.ascii	"\012\342\375\362\351\253\323\377\"<\201\220\206\233"
 258      E9ABD3FF 
 258      223C8190 
 258      869B
 259 0095 CDF687D4 		.ascii	"\315\366\207\324P\010\015o\337\356w\002\221=\245\226"
 259      50080D6F 
 259      DFEE7702 
 259      913DA596 
 260 00a5 9DAB5335 		.ascii	"\235\253S5\305\274D\005\222\375p\2000\016\021&\246\010"
 260      C5BC4405 
 260      92FD7080 
 260      300E1126 
 260      A608
 261 00b7 5544B4DC 		.ascii	"UD\264\334-|7\203\276\002g\207z\2318\202\217kSm\300"
 261      2D7C3783 
 261      BE026787 
 261      7A993882 
 261      8F6B536D 
ARM GAS  C:\Users\Bruger\AppData\Local\Temp\cc5pu3XD.s 			page 20


 262 00cc 51DD6EA7 		.ascii	"Q\335n\247]\252L\372\015n\255\365\324b\205\256\337\346"
 262      5DAA4CFA 
 262      0D6EADF5 
 262      D46285AE 
 262      DFE6
 263 00de 2C9EF20E 		.ascii	",\236\362\016\347\353\356sI\352Gl\246~\316V\015]\305"
 263      E7EBEE73 
 263      49EA476C 
 263      A67ECE56 
 263      0D5DC5
 264 00f1 28366C65 		.ascii	"(6leh\377\307\326M#\360G\221\206\336\232{\201ml\331"
 264      68FFC7D6 
 264      4D23F047 
 264      9186DE9A 
 264      7B816D6C 
 265 0106 0578A20F 		.ascii	"\005x\242\017\307\334\350\204\033\021j\314~\262\353"
 265      C7DCE884 
 265      1B116ACC 
 265      7EB2EB
 266 0115 036CA79E 		.ascii	"\003l\247\236\320~\372\367-\001\235\303\251\3033f\306"
 266      D07EFAF7 
 266      2D019DC3 
 266      A9C33366 
 266      C6
 267 0126 CCCEE7CC 		.ascii	"\314\316\347\314T\"f-e\223f|.fMO\304g\0272\351\\\332"
 267      5422662D 
 267      6593667C 
 267      2E664D4F 
 267      C4671732 
 268 013d CA24C6C7 		.ascii	"\312$\306\307\222\344[4\263i+\365\013\372\213{\372"
 268      92E45B34 
 268      B3692BF5 
 268      0BFA8B7B 
 268      FA
 269              		.text
 270              		.section	.gnu.lto_Ignition_1_WriteCompare.71da0093,"",%progbits
 271 0000 789C654F 		.ascii	"x\234eO=H\202Q\024\275\347}f\222\011\321\350\234\030"
 271      3D488251 
 271      14BDE77D 
 271      669209D1 
 271      E89C18
 272 0013 0482434B 		.ascii	"\004\202CKS\320\020n\201\253`b\037\341\220\206\330\354"
 272      53D0106E 
 272      81AB6062 
 272      1FE19086 
 272      D8EC
 273 0025 FB421A9C 		.ascii	"\373B\032\234,\"\244p\012\351\307\312~\026\307\017\227"
 273      2C22A470 
 273      0AE9C7CA 
 273      7E16C70F 
 273      97
 274 0036 88A8CC45 		.ascii	"\210\250\314E\024*\020\205\242%1(\207\260\373r\354\301"
 274      142A1085 
 274      A2253128 
 274      87B0FB72 
 274      ECC1
 275 0048 E3DE73B8 		.ascii	"\343\336s\270\367\234s5\372\377\234\374\247@\344\341"
ARM GAS  C:\Users\Bruger\AppData\Local\Temp\cc5pu3XD.s 			page 21


 275      F79C7335 
 275      FAFF9CFC 
 275      A740E4E1 
 276 0058 0A8D2032 		.ascii	"\012\215 2\367D\206M\000\252!PR \2117\321\021\310\230"
 276      F744864D 
 276      00AA2150 
 276      52208937 
 276      D111C898 
 277 006c 85ACDD9D 		.ascii	"\205\254\335\235\227R~\22477\034r{\261'\210\272b \204"
 277      97527E94 
 277      37371C72 
 277      7BB12788 
 277      BA622084 
 278 0080 03B879C8 		.ascii	"\003\270y\310\334\272\251847\210\373\333\346ww\364U"
 278      DCBAA938 
 278      343788FB 
 278      DBE67777 
 278      F455
 279 0092 F404C614 		.ascii	"\364\004\306\024\334\255\265?5\005\205P\3602_}\037q"
 279      DCADB53F 
 279      35058550 
 279      F0325F7D 
 279      1F71
 280 00a4 ED4BB96E 		.ascii	"\355K\271n\326\317\345,\363\032\016\241\261\036\216"
 280      D6CFE52C 
 280      F31A0EA1 
 280      B11E8E
 281 00b3 E0C4319C 		.ascii	"\340\3041\234\304\024\241\000\227\032\357\244~jvk\212"
 281      C414A100 
 281      971AEFA4 
 281      7E6A766B 
 281      8A
 282 00c4 DDC7069E 		.ascii	"\335\307\006\2368\201\225\203Sq\334\224\375\376\325"
 282      38819583 
 282      5371DC94 
 282      FDFED5
 283 00d3 7536ED4D 		.ascii	"u6\355Mk\026\016\256\026\250\305#\352\2026\233q\325"
 283      6B160EAE 
 283      16A8C523 
 283      EA82369B 
 283      71D5
 284 00e5 1A28EF5C 		.ascii	"\032(\357\\\334eg\324\026\253UK\231\206Ue\261T*\206"
 284      DC6567D4 
 284      16AB554B 
 284      99865565 
 284      B1542A86 
 285 00f9 B4288397 		.ascii	"\264(\203\227\326\303\243\355\217\"\005\237\214\222"
 285      D6C3A3ED 
 285      8F22059F 
 285      8C92
 286 0107 2F873D23 		.ascii	"/\207=#\205\236\030\302)':\343D\204\"r\370b\321g\030"
 286      859E18C2 
 286      29273AE3 
 286      44842272 
 286      F862D167 
 287 011c 66BD39A9 		.ascii	"f\2759\251\364\324\371-\001\345\303\256\023\363zT\217"
 287      F4D4F92D 
ARM GAS  C:\Users\Bruger\AppData\Local\Temp\cc5pu3XD.s 			page 22


 287      01E5C3AE 
 287      13F37A54 
 287      8F
 288 012d 8712FA52 		.ascii	"\207\022\372R\320\037[\213\207\365\300\202?67\035\360"
 288      D01F5B8B 
 288      87F5C082 
 288      3F36371D 
 288      F0
 289 013e 2D472389 		.ascii	"-G#\211H,\032\364z\3024\034\216\255\254\206\342\372"
 289      482C1AF4 
 289      7AC2341C 
 289      8EADAC86 
 289      E2FA
 290 0150 2F87367D 		.ascii	"/\2076}\030"
 290      18
 291              		.text
 292              		.section	.gnu.lto_Ignition_1_SetInterruptMode.71da0093,"",%progbits
 293 0000 789C6366 		.ascii	"x\234cf\300\004R@\314\303\310\300`\002\244\031\231\031"
 293      C0045240 
 293      CCC3C8C0 
 293      6002A419 
 293      9919
 294 0012 1899269C 		.ascii	"\030\231&\234c`h\344`bd\0041\030\030\031\352\231\030"
 294      636068E4 
 294      60626404 
 294      31181819 
 294      EA9918
 295 0025 EB195F32 		.ascii	"\353\031_2}db\234p`\365\014n\365\245\015\015\015\037"
 295      7D64629C 
 295      7060F50C 
 295      6EF5A50D 
 295      0D0D1F
 296 0038 0EDD6EE3 		.ascii	"\016\335n\343m\230\222\360\223\211\201\3413\023\304"
 296      6D9892F0 
 296      938981E1 
 296      3313C4
 297 0047 20C6E58C 		.ascii	" \306\345\214\352@E\375\017\376\356`cVgd\000\262O}\372"
 297      EA4045FD 
 297      0FFEEE60 
 297      63566764 
 297      00B24F7D 
 298 005c F68E4975 		.ascii	"\366\216IuqCC\323\201;\353\032\034\030\177\002M]\301"
 298      714343D3 
 298      813BEB1A 
 298      1C187F02 
 298      4D5DC1
 299 006f C80CD4C1 		.ascii	"\310\014\324\301\250#\305\250)\305\000\024``\\\311\250"
 299      A823C5A8 
 299      29C50014 
 299      60605CC9 
 299      A8
 300 0080 0A52FCB1 		.ascii	"\012R\374\261\345\357un\266\026\240\351\002\0203\031"
 300      E5EF756E 
 300      B616A0E9 
 300      02103319 
 301 0090 5731B201 		.ascii	"W1\262\001\035\306\260^\350@\303\377\377\237\337\315"
 301      1DC6B05E 
ARM GAS  C:\Users\Bruger\AppData\Local\Temp\cc5pu3XD.s 			page 23


 301      E840C3FF 
 301      FF9FDFCD 
 302 00a0 EAB25DCB 		.ascii	"\352\262]\313\314\0024\002\244\201\341\011P\011\310"
 302      CC023402 
 302      A481E109 
 302      5009C8
 303 00af 854F9998 		.ascii	"\205O\231\230@4\363-\306C\3236\276\237e\004\322\005"
 303      4034F32D 
 303      C643D336 
 303      BE9F6504 
 303      D205
 304 00c1 34AD714B 		.ascii	"4\255qK\377I\266\027L?\231\230:O66\260\200,\270\377"
 304      FF49B617 
 304      4C3F9998 
 304      3A4F3636 
 304      B0802CB8 
 305 00d6 E4FC450E 		.ascii	"\344\374E\016\260\020\003\210\273\352\311\265\355\334"
 305      B0100388 
 305      BBEAC9B5 
 305      EDDC
 306 00e4 73196737 		.ascii	"s\031g7\266\000\335\305\314\270\232Q\212q\015#04\030"
 306      B600DDC5 
 306      CCB89A51 
 306      8A710D23 
 306      303418
 307 00f7 D732CE65 		.ascii	"\3272\316e\374\016Tt\217\261\361\300\376\327\032 \003"
 307      FC0E5474 
 307      8FB1F1C0 
 307      FED71A20 
 307      03
 308 0108 41FE7B02 		.ascii	"A\376{\002t+\320\"\240f\025\367\324\274\324\242\304"
 308      742BD022 
 308      A06615F7 
 308      D4BCD4A2 
 308      C4
 309 0119 92D494F8 		.ascii	"\222\324\224\370\340\374\322\242\344\324\230\200\340"
 309      E0FCD2A2 
 309      E4D49880 
 309      E0
 310 0126 7C67D318 		.ascii	"|g\323\030\317\364\274\314\222\314\374\274xC\275d\006"
 310      CFF4BCCC 
 310      92CCFCBC 
 310      7843BD64 
 310      06
 311 0137 DECCBC92 		.ascii	"\336\314\274\222\324\242\242\322\202\022\337\374\224"
 311      D4A2A2D2 
 311      8212DFFC 
 311      94
 312 0144 5400FC88 		.ascii	"T\000\374\210ss"
 312      7373
 313              		.text
 314              		.section	.gnu.lto_Ignition_1_ReadStatusRegister.71da0093,"",%progbits
 315 0000 789C6366 		.ascii	"x\234cf\300\004R@|\013\210\325\200\230\221\231\201\221"
 315      C0045240 
 315      7C0B88D5 
 315      80989199 
 315      8191
ARM GAS  C:\Users\Bruger\AppData\Local\Temp\cc5pu3XD.s 			page 24


 316 0012 69C23906 		.ascii	"i\3029\006\206F\016&FF\020\203\201\221\241\236\211\261"
 316      86460E26 
 316      46461083 
 316      8191A19E 
 316      89B1
 317 0024 9EF125D3 		.ascii	"\236\361%\323G&\3063;\377]fT_\332\320\320\364\341\323"
 317      4726C633 
 317      3BFF5D66 
 317      545FDAD0 
 317      D0F4E1D3 
 318 0038 C763BCD3 		.ascii	"\307c\274\323\247$\374db`\370\314\304\300\250#\305\250"
 318      A724FC64 
 318      6260F8CC 
 318      C4C0A823 
 318      C5A8
 319 004a 09328871 		.ascii	"\0112\210q9\243:\003P\345\307\226\277\327\271\331Z\032"
 319      39A33A03 
 319      50E5C796 
 319      BFD7B9D9 
 319      5A1A
 320 005c 1A1A0440 		.ascii	"\032\032\004@\362@\211\025\214l\214@z\275\320\201\206"
 320      F2408915 
 320      8C6C8C40 
 320      7ABDD081 
 320      86
 321 006d FFFF379F 		.ascii	"\377\3777\237\231\335\245\271\223\231\231\211\001d\000"
 321      99DDA5B9 
 321      93999989 
 321      016400
 322 007c C3132001 		.ascii	"\303\023 \001\262\354)\023\023\210f\276\305x\350[\327"
 322      B2EC2913 
 322      138866BE 
 322      C578E85B 
 322      D7
 323 008d B99D8BD9 		.ascii	"\271\235\213\331@\272\2763\201\254>\267\177\316}\316"
 323      40BABE33 
 323      81AC3EB7 
 323      7FCE7DCE 
 324 009d 174C3F99 		.ascii	"\027L?\231\030_\236hl`\001\331q\377\311\371\213\034"
 324      185F9E68 
 324      6C6001D9 
 324      71FFC9F9 
 324      8B1C
 325 00af 60210610 		.ascii	"`!\006\020w\306\304)=,s\031g7\2664\036\320\374\311\304"
 325      77C6C429 
 325      3D2C7319 
 325      6737B634 
 325      1ED0FCC9 
 326 00c4 C4B89251 		.ascii	"\304\270\222Q\212q\025#\320U\214\253\031\34722\334c"
 326      8A711523 
 326      D0558CAB 
 326      19E73232 
 326      DC63
 327 00d6 6C6C3086 		.ascii	"ll0\206\032\010\266\223\021d\027\220\251\342\236\232"
 327      1A08B693 
 327      11641790 
 327      A9E29E9A 
ARM GAS  C:\Users\Bruger\AppData\Local\Temp\cc5pu3XD.s 			page 25


 328 00e6 975A9458 		.ascii	"\227Z\224X\222\232\022\037\234_Z\224\234\032\023\020"
 328      929A121F 
 328      9C5F5A94 
 328      9C1A1310 
 329 00f6 9CEF6C1A 		.ascii	"\234\357l\032\343\231\236\227Y\222\231\237\027o\250"
 329      E3999E97 
 329      5992999F 
 329      176FA8
 330 0105 97CC0000 		.ascii	"\227\314\000\000Qp^U"
 330      51705E55 
 331              		.text
 332              		.section	.gnu.lto_Ignition_1_ReadControlRegister.71da0093,"",%progbits
 333 0000 789C654F 		.ascii	"x\234eO=HBQ\024>\337}!a\030\321\350j E\005\015\216\321"
 333      3D484251 
 333      143EDF7D 
 333      216118D1 
 333      E86A2045 
 334 0018 D0106D85 		.ascii	"\320\020m\205\253`a\217\020B\301t\013\274\317\234\204"
 334      AB60618F 
 334      1042C174 
 334      0BBCCF9C 
 334      84
 335 0029 40A23212 		.ascii	"@\2422\022\207\006+\373\241\241!\002\207WC\010E\021"
 335      87062BFB 
 335      A1A12102 
 335      87574308 
 335      4511
 336 003b 41414839 		.ascii	"AAH9(\324RIT\274\241\354\\i\010:p9\037\207\357\357j"
 336      28D45249 
 336      54BCA1EC 
 336      5C69083A 
 336      70391F87 
 337 0052 F47F9CFC 		.ascii	"\364\177\234\374< \352\343\015\215 \322\027DF\253\000"
 337      3C20EAE3 
 337      0D8D20D2 
 337      174446AB 
 337      00
 338 0063 1420505C 		.ascii	"\024 P\\ \216'Q\0278?\372\276\206;/e\342u\321:ud\226"
 338      208E2751 
 338      17383FFA 
 338      BE863B2F 
 338      65E275D1 
 339 007b 262C41F4 		.ascii	"&,A\364&\010\275Nt+#l\302M\314,\224\337\315v\315\015"
 339      2608BD4E 
 339      742B236C 
 339      C24DCC2C 
 339      94DFCD76 
 340 0091 8533C7F9 		.ascii	"\2053\307\371\025\273k\235U\225\263\303\271\214\254"
 340      15BB6B9D 
 340      5595B3C3 
 340      B98CAC
 341 00a0 C8B46C34 		.ascii	"\310\264l4\206\300ZlA\373+W\303\212z\362\353\266\315"
 341      86C05A6C 
 341      41FB2B57 
 341      C38A7AF2 
 341      EBB6CD
 342 00b3 96945276 		.ascii	"\226\224Rv\240\000\227J`\353m\330\270&\324e\277\323"
ARM GAS  C:\Users\Bruger\AppData\Local\Temp\cc5pu3XD.s 			page 26


 342      A000974A 
 342      60EB6DD8 
 342      B826D465 
 342      BFD3
 343 00c5 648B835A 		.ascii	"d\213\203Z65X\32446P,\2522Mu\256\011\241\266v\207\223"
 343      363558D4 
 343      3436502C 
 343      AA324D75 
 343      AE09A1B6 
 344 00dc 8FD47371 		.ascii	"\217\324sq\336\256\244\237B\375`\255\236\337p<\012K"
 344      DEAEA49F 
 344      42FD60AD 
 344      9EDF703C 
 344      0A4B
 345 00ee C02A19B2 		.ascii	"\300*\031\262E\205=T/\257Z\233\247fvyuyA\344\2205\222"
 345      45853D54 
 345      2FAF5A9B 
 345      A7667679 
 345      757941E4 
 346 0105 86D96309 		.ascii	"\206\331c\011\201\0358\261\013n\207=\344@7H\310\361"
 346      811D38B1 
 346      0B6E873D 
 346      E4403748 
 346      C8F1
 347 0117 6617CE64 		.ascii	"f\027\316dS\272\207a\346^J\370\015!\325\003*\237a\327"
 347      53BA8761 
 347      E65E4AF8 
 347      0D21D503 
 347      2A9F61D7 
 348 012b 881ED223 		.ascii	"\210\036\322#\223Q}\312\357\015\307\"\001\3357\346\015"
 348      93517DCA 
 348      EF0DC722 
 348      01DD37E6 
 348      0D
 349 013c 0F7B7CA3 		.ascii	"\017{|\243\323\241`4\030\016\371\007\372\003d\213\350"
 349      D3A16034 
 349      180EF907 
 349      FA03648B 
 349      E8
 350 014d B3B199E8 		.ascii	"\263\261\231\350\017\370\034~\366"
 350      0FF81C7E 
 350      F6
 351              		.text
 352              		.section	.gnu.lto_Ignition_1_WriteControlRegister.71da0093,"",%progbits
 353 0000 789C6366 		.ascii	"x\234cf\300\004R@\314\315\310\300\240\007\244\031\231"
 353      C0045240 
 353      CCCDC8C0 
 353      A007A419 
 353      99
 354 0011 19189926 		.ascii	"\031\030\231&\234c`h\344`bd\0041\030\030\031\352\231"
 354      9C636068 
 354      E4606264 
 354      04311818 
 354      19EA99
 355 0024 18EB195F 		.ascii	"\030\353\031_2}db\234p`\365\014n\365\245\015\015\015"
 355      327D6462 
 355      9C7060F5 
ARM GAS  C:\Users\Bruger\AppData\Local\Temp\cc5pu3XD.s 			page 27


 355      0C6EF5A5 
 355      0D0D0D
 356 0037 1F2EFD6F 		.ascii	"\037.\375o\343m\230\222\360\223\211\201\3413\023\304"
 356      E36D9892 
 356      F0938981 
 356      E13313C4 
 357 0047 20C6E58C 		.ascii	" \306\345\214\352@E\313\216\034\223bVgd\0002\177m\236"
 357      EA4045CB 
 357      8E1C9362 
 357      56676400 
 357      327F6D9E 
 358 005b B49A5375 		.ascii	"\264\232SuqCC\323\201\027\353\032\034\030\177\002\015"
 358      714343D3 
 358      8117EB1A 
 358      1C187F02 
 358      0D
 359 006c 5DC1C80C 		.ascii	"]\301\310\014\324\300\250#\305\250)\305\000\024``\\"
 359      D4C0A823 
 359      C5A829C5 
 359      00146060 
 359      5C
 360 007d C9A80A52 		.ascii	"\311\250\012R\374\261\345\357un\266\026\240\341\002"
 360      FCB1E5EF 
 360      756EB616 
 360      A0E102
 361 008c 10231957 		.ascii	"\020#\031W1\262\001\335\305\260^\350@\303\377\377\233"
 361      31B201DD 
 361      C5B05EE8 
 361      40C3FFFF 
 361      9B
 362 009d FFCFEE52 		.ascii	"\377\317\356R<\301\314\0024\002\244\201\341\011P\011"
 362      3CC1CC02 
 362      3402A481 
 362      E1095009 
 363 00ad C8814F99 		.ascii	"\310\201O\231\230@4\363-\306C\323>\376\237m\004\322"
 363      984034F3 
 363      2DC643D3 
 363      3EFE9F6D 
 363      04D2
 364 00bf 05346DD6 		.ascii	"\0054m\326\307\245\313x_0\375db\372y\242\261\201\005"
 364      C7A5CB78 
 364      5F30FD64 
 364      62FA79A2 
 364      B18105
 365 00d2 64C1FD27 		.ascii	"d\301\375'\347/r\200\205\030@\334;3\246\3662\315e\234"
 365      E72F7280 
 365      851840DC 
 365      3B33A6F6 
 365      32CD659C 
 366 00e6 DDD80274 		.ascii	"\335\330\002t\0273\343jF)\3065\214\300\300`\\\3138\227"
 366      1733E36A 
 366      4629C635 
 366      8CC0C060 
 366      5CCB3897 
 367 00fa F13B50D1 		.ascii	"\361;P\321=\306\306\003\023?i\200\014\004y\357\011\320"
 367      3DC6C603 
 367      133F6980 
ARM GAS  C:\Users\Bruger\AppData\Local\Temp\cc5pu3XD.s 			page 28


 367      0C0479EF 
 367      09D0
 368 010c AD408B80 		.ascii	"\255@\213\200\232U\334S\363R\213\022KRS\342\203\363"
 368      9A55DC53 
 368      F3528B12 
 368      4B5253E2 
 368      83F3
 369 011e 4B8B9253 		.ascii	"K\213\222Sc\002\202\363\235Mc<\323\3632K2\363\363\342"
 369      630282F3 
 369      9D4D633C 
 369      D3F3324B 
 369      32F3F3E2 
 370 0132 0DF59219 		.ascii	"\015\365\222\031\330\223\363\363J\212\362s\000\006\365"
 370      D893F3F3 
 370      4A8AF273 
 370      0006F5
 371 0141 6FD2     		.ascii	"o\322"
 372              		.text
 373              		.section	.gnu.lto_Ignition_1_ReadCapture.71da0093,"",%progbits
 374 0000 789C6366 		.ascii	"x\234cf\300\004R@\374\033\210\325\200\230\221\231\201"
 374      C0045240 
 374      FC1B88D5 
 374      80989199 
 374      81
 375 0011 9169C239 		.ascii	"\221i\3029\006\206F\016&FF\020\203\201\221\241\236\211"
 375      0686460E 
 375      26464610 
 375      838191A1 
 375      9E89
 376 0023 B19EF125 		.ascii	"\261\236\361%\323G&\306\323\217~|\346y\301\364\223\211"
 376      D34726C6 
 376      D38F7E7C 
 376      E679C1F4 
 376      9389
 377 0035 418001C8 		.ascii	"A\200\001\310\235u\375\351\027f\020\227\221\011\304"
 377      9D75FDE9 
 377      17661097 
 377      9109C4
 378 0044 DDFDF9DC 		.ascii	"\335\375\371\334#6\365\245\015\015M\037\036Mm\347\233"
 378      2336F5A5 
 378      0D0D4D1F 
 378      1E4D6DE7 
 378      9B
 379 0055 316501E3 		.ascii	"1e\001\343O&&\206\317L\014\214\313\031\245\030W0\202"
 379      4F262686 
 379      CF4C0C8C 
 379      CB19A518 
 379      573082
 380 0068 6C625CC9 		.ascii	"lb\\\311\250\016R\374\261\345\357un\266\226\206\206"
 380      A80E52FC 
 380      B1E5EF75 
 380      6EB69686 
 380      86
 381 0079 0601900A 		.ascii	"\006\001\220\012\240\304*F6F \275^\350@\303\377\377"
 381      A0C42A46 
 381      364620BD 
 381      5EE840C3 
ARM GAS  C:\Users\Bruger\AppData\Local\Temp\cc5pu3XD.s 			page 29


 381      FFFF
 382 008b 9FAFCFE9 		.ascii	"\237\257\317\351R=\315\314\314\304\0002\202\341\011"
 382      523DCDCC 
 382      CCC40032 
 382      82E109
 383 009a 10835CF3 		.ascii	"\020\203\\\363\024\310\001\322\314\267\030\017}\353"
 383      14C801D2 
 383      CCB7180F 
 383      7DEB
 384 00a8 3A767A31 		.ascii	":vz1\033H\327w&\220\333f\275\335{\203\003\344\030\346"
 384      1B48D777 
 384      2690DB66 
 384      BDDD7B83 
 384      03E418E6 
 385 00bc 0D171B1B 		.ascii	"\015\027\033\033X@v\334\177r\376\"D\210\001\304}{\363"
 385      584076DC 
 385      7F72FE22 
 385      448801C4 
 385      7D7BF3
 386 00cf C732B6B9 		.ascii	"\3072\266\271\214\263\033[\032\017h\376dba\\\015t\325"
 386      8CB31B5B 
 386      1A0F68FE 
 386      6462615C 
 386      0D74D5
 387 00e2 1A90AB18 		.ascii	"\032\220\253\030\3272\316ed\270\307\330\330`\0145\220"
 387      D732CE65 
 387      64B8C7D8 
 387      D8600C35 
 387      90
 388 00f3 01642723 		.ascii	"\001d'#\310. S\305=5/\265(\261$5%>8\277\264(95& 8\337"
 388      C82E2053 
 388      C53D352F 
 388      B528B124 
 388      35253E38 
 389 0110 D934C633 		.ascii	"\3314\3063=/\263$3?/\336P/\231\001\000F\201mI"
 389      3D2FB324 
 389      333F2FDE 
 389      502F9901 
 389      0046816D 
 390              		.text
 391              		.section	.gnu.lto_Ignition_1_ReadCompare.71da0093,"",%progbits
 392 0000 789C6366 		.ascii	"x\234cf\300\004R@\374\013\210\325\200\230\221\231\201"
 392      C0045240 
 392      FC0B88D5 
 392      80989199 
 392      81
 393 0011 9169C239 		.ascii	"\221i\3029\006\206F\016&FF\020\203\201\221\241\236\211"
 393      0686460E 
 393      26464610 
 393      838191A1 
 393      9E89
 394 0023 B19EF125 		.ascii	"\261\236\361%\323G&\306\323\217~|\346y\301\364\223\211"
 394      D34726C6 
 394      D38F7E7C 
 394      E679C1F4 
 394      9389
 395 0035 418001C8 		.ascii	"A\200\001\310\235u\375\351\027f\020\227\221\011\304"
ARM GAS  C:\Users\Bruger\AppData\Local\Temp\cc5pu3XD.s 			page 30


 395      9D75FDE9 
 395      17661097 
 395      9109C4
 396 0044 DDFDF9DC 		.ascii	"\335\375\371\334#6\365\245\015\015M\037\232\346\266"
 396      2336F5A5 
 396      0D0D4D1F 
 396      9AE6B6
 397 0053 F3CD98B2 		.ascii	"\363\315\230\262\200\361'\023\023\303g&\006\306\345"
 397      80F12713 
 397      13C36726 
 397      06C6E5
 398 0062 8C528C2B 		.ascii	"\214R\214+\030A61\256dT\007)\376\330\362\367:7[KCC\203"
 398      18413631 
 398      AE645407 
 398      29FED8F2 
 398      F73A375B 
 399 007a 00480550 		.ascii	"\000H\005Pb\025#\033#\220^/t\240\341\377\377\317_\346"
 399      6215231B 
 399      23905E2F 
 399      74A0E1FF 
 399      FFCF5FE6 
 400 008e 74D99E63 		.ascii	"t\331\236cffb\000\031\301\360\004\210A\256y\012\344"
 400      66666200 
 400      19C1F004 
 400      8841AE79 
 400      0AE4
 401 00a0 0069E65B 		.ascii	"\000i\346[\214\207\276u\275;\267\230\035\244\353;\023"
 401      8C87BE75 
 401      BD3BB798 
 401      1DA4EB3B 
 401      13
 402 00b1 C86D9776 		.ascii	"\310m\227vL\270\305\006r\014\363\205\013\215\015, ;"
 402      4CB8C506 
 402      720CF385 
 402      0B8D0D2C 
 402      203B
 403 00c3 EE3F397F 		.ascii	"\356?9\177\221\003,\304\000\342\336m\334\3419\227qv"
 403      91032CC4 
 403      00E2DE6D 
 403      DCE13997 
 403      7176
 404 00d5 634BE301 		.ascii	"cK\343\001\335\237L,\214\253\201\216Z\003r\024\343Z"
 404      DD9F4C2C 
 404      8CAB818E 
 404      5A037214 
 404      E35A
 405 00e7 C6B98C0C 		.ascii	"\306\271\214\014\367\030\033\033\254\241\3461\200\254"
 405      F7181B1B 
 405      ACA1E631 
 405      80AC
 406 00f5 64045905 		.ascii	"d\004Y\005d\252\270\247\346\245\026%\226\244\246\304"
 406      64AAB8A7 
 406      E6A51625 
 406      96A4A6C4 
 407 0105 07E79716 		.ascii	"\007\347\227\026%\247\306\004\004\347;\233\306x\246"
 407      25A7C604 
 407      04E73B9B 
ARM GAS  C:\Users\Bruger\AppData\Local\Temp\cc5pu3XD.s 			page 31


 407      C678A6
 408 0114 E7659664 		.ascii	"\347e\226d\346\347\305\033\352%3\000\000{\311lJ"
 408      E6E7C51B 
 408      EA253300 
 408      007BC96C 
 408      4A
 409              		.text
 410              		.section	.gnu.lto_Ignition_1_ReadPeriod.71da0093,"",%progbits
 411 0000 789C6366 		.ascii	"x\234cf\300\004R@\374\033\210\325\200\230\221\231\201"
 411      C0045240 
 411      FC1B88D5 
 411      80989199 
 411      81
 412 0011 9169C239 		.ascii	"\221i\3029\006\206F\016&FF\020\203\201\221\241\236\211"
 412      0686460E 
 412      26464610 
 412      838191A1 
 412      9E89
 413 0023 B19EF125 		.ascii	"\261\236\361%\323G&\306\323\217~|\346y\301\364\223\211"
 413      D34726C6 
 413      D38F7E7C 
 413      E679C1F4 
 413      9389
 414 0035 418001C8 		.ascii	"A\200\001\310\235u\375\351\027f\020\227\221\011\304"
 414      9D75FDE9 
 414      17661097 
 414      9109C4
 415 0044 DDFDF9DC 		.ascii	"\335\375\371\334#6\365\245\015\015M\037\016\355m\347"
 415      2336F5A5 
 415      0D0D4D1F 
 415      0EED6DE7 
 416 0054 99316501 		.ascii	"\2311e\001\343O&&\206\317L\014\214\313\031\245\030W"
 416      E34F2626 
 416      86CF4C0C 
 416      8CCB19A5 
 416      1857
 417 0066 30826C62 		.ascii	"0\202lb\\\311\250\016R\374\261\345\357un\266\226\206"
 417      5CC9A80E 
 417      52FCB1E5 
 417      EF756EB6 
 417      9686
 418 0078 86060190 		.ascii	"\206\006\001\220\012\240\304*F6F \275^\350@\303\377"
 418      0AA0C42A 
 418      46364620 
 418      BD5EE840 
 418      C3FF
 419 008a FF9FBFCD 		.ascii	"\377\237\277\315m\322\275\317\314\314\304\0002\202\341"
 419      6DD2BDCF 
 419      CCCCC400 
 419      3282E1
 420 0099 0910835C 		.ascii	"\011\020\203\\\363\024\310\001\322\314\267\030\017}"
 420      F314C801 
 420      D2CCB718 
 420      0F7D
 421 00a7 EB3A777F 		.ascii	"\353:w\1771\033H\327w&\220\333\032\376\355oc\0019\206"
 421      311B48D7 
 421      772690DB 
ARM GAS  C:\Users\Bruger\AppData\Local\Temp\cc5pu3XD.s 			page 32


 421      1AFEED6F 
 421      63013986 
 422 00bb 79C2C5C6 		.ascii	"y\302\305\306\006\026\220\035\367\237\234\277\310\001"
 422      0616901D 
 422      F79F9CBF 
 422      C801
 423 00c9 16620071 		.ascii	"\026b\000q\177\366\177<\3068\227qvcK\343\001\315\237"
 423      7FF67F3C 
 423      C6389771 
 423      76634BE3 
 423      01CD9F
 424 00dc 4C2C8CAB 		.ascii	"L,\214\253\201\256Z\003r\025\343Z\2408\303=\306\306"
 424      81AE5A03 
 424      7215E35A 
 424      A038C33D 
 424      C6C6
 425 00ee 0663A881 		.ascii	"\006c\250\201\014 ;\031Av\001\231*\356\251y\251E\211"
 425      0C203B19 
 425      41760199 
 425      2AEEA979 
 425      A94589
 426 0101 25A929F1 		.ascii	"%\251)\361\301\371\245E\311\2511\001\301\371\316\246"
 426      C1F9A545 
 426      C9A93101 
 426      C1F9CEA6 
 427 0111 319EE979 		.ascii	"1\236\351y\231%\231\371y\361\206z\311\014\0003ql\370"
 427      992599F9 
 427      79F1867A 
 427      C90C0033 
 427      716CF8
 428              		.text
 429              		.section	.gnu.lto_.symbol_nodes.71da0093,"",%progbits
 430 0000 789C55D0 		.ascii	"x\234U\320\273\015\3020\030\004\340\363\3578q\336q\026"
 430      BB0DC230 
 430      1804E0F3 
 430      EF3871DE 
 430      7116
 431 0012 60096A56 		.ascii	"`\011jV\273\024tH\210\011\020H\214\300\034\014A\315"
 431      BB147448 
 431      88091048 
 431      8CC01C0C 
 431      41CD
 432 0024 10584AE3 		.ascii	"\020XJ\343\273\346\364IW\235\007pr\330cF\340\366\001"
 432      BBE6F449 
 432      579D0770 
 432      72D86346 
 432      E0F601
 433 0037 48DC1F11 		.ascii	"H\334\037\021\346\350J\007\340\231'\346i2\253\350\305"
 433      E6E84A07 
 433      E09927E6 
 433      6932ABE8 
 433      C5
 434 0048 8195B866 		.ascii	"\201\225\270f\0207\254\305\221\215\270e\024wl\305=;"
 434      1037ACC5 
 434      918DB865 
 434      14776CC5 
 434      3D3B
ARM GAS  C:\Users\Bruger\AppData\Local\Temp\cc5pu3XD.s 			page 33


 435 005a F1C05E3C 		.ascii	"\361\300^<r\020O\034\3053'\361\302\271\264[\271\354"
 435      72104F1C 
 435      C53327F1 
 435      C2B9B45B 
 435      B9EC
 436 006c C6B66526 		.ascii	"\306\266e&\246\202\036+\316\227\337\301#\341u\315\235"
 436      A6821E2B 
 436      CE97DFC1 
 436      23E175CD 
 436      9D
 437 007d DFFBBE8F 		.ascii	"\337\373\276\217\370\003\305+Q\366"
 437      F803C52B 
 437      51F6
 438              		.text
 439              		.section	.gnu.lto_.refs.71da0093,"",%progbits
 440 0000 789C6366 		.ascii	"x\234cf``\340d\200\000&F bdba\000\000\001*\000\032"
 440      6060E064 
 440      80002646 
 440      20626462 
 440      61000001 
 441              		.text
 442              		.section	.gnu.lto_.decls.71da0093,"",%progbits
 443 0000 789C8D96 		.ascii	"x\234\215\226mLSW\030\307\357\351)\025J\0015\023\027"
 443      6D4C5357 
 443      18C7EFE9 
 443      29154A01 
 443      351317
 444 0013 974D1617 		.ascii	"\227M\026\027\223%\306\314\0173f\0376\023\242\316\275"
 444      9325C6CC 
 444      0F33661F 
 444      3613A2CE 
 444      BD
 445 0024 4934DB3E 		.ascii	"I4\333>\350\342*\334h\023\006\254\226d~\273\212/\350"
 445      E8E22ADC 
 445      681306AC 
 445      96647EBB 
 445      8A2FE8
 446 0037 64226A40 		.ascii	"d\"j@6\035\016\234\242\200\005\305ZA)\025\021q\200/"
 446      361D0E9C 
 446      A28005C5 
 446      5A412915 
 446      1171802F 
 447 004b 5841100A 		.ascii	"XA\020\012LEA(\012\210S\351\236s\316\275\366\334R\224"
 447      4C454128 
 447      0A8853E9 
 447      9E73CEBD 
 447      F6DC5294 
 448 005f 9BFCCB7D 		.ascii	"\233\374\313}y\236\337\363r\236s/X\020\204x\255 x\341"
 448      799EDFF3 
 448      729E732F 
 448      58108478 
 448      AD2078E1 
 449 0073 48D10BC2 		.ascii	"H\321\013\302'\032A\230\002\367b\004\3371\025T\000*"
 449      271A4198 
 449      02F76204 
 449      DF311554 
 449      002A
ARM GAS  C:\Users\Bruger\AppData\Local\Temp\cc5pu3XD.s 			page 34


 450 0085 02594125 		.ascii	"\002YA%\240s \007\310\011\252\002U\203\032@\327A\215"
 450      A0732007 
 450      C809AA02 
 450      55831A40 
 450      D7418D
 451 0098 2017A809 		.ascii	" \027\250\011t\033\324\012j\003\271A\010\324%\250\217"
 451      741BD40A 
 451      6A03B941 
 451      08D425A8 
 451      8F
 452 00a9 02390689 		.ascii	"\0029\006\211Y\013\212\004\331A\335\240{\240p\220\001"
 452      590B8A04 
 452      D941DDA0 
 452      7BA07090 
 452      01
 453 00ba F408D40B 		.ascii	"\364\010\324\013\352\003]\005\365\203\352@\003 \017"
 453      EA035D05 
 453      F583EA40 
 453      03200F
 454 00c9 E809E8B1 		.ascii	"\350\011\350\261\314\324\313\334s~\371\271\345\\\234"
 454      CCD4CBDC 
 454      737EF9B9 
 454      E55C9C
 455 00d8 727ED785 		.ascii	"r~\327\205\261\007\2513X\316\207\3442(\3475\004\312"
 455      B107A933 
 455      58CE87E4 
 455      3228E735 
 455      04CA
 456 00ea E7F22207 		.ascii	"\347\362\"\007\226\355\013\344\336\004\252\217\334\327"
 456      96ED0BE4 
 456      DE04AA8F 
 456      DCD7
 457 00f8 723CDE1F 		.ascii	"r<\336\037\311\317\375\217\2227\370\224\004\360!\265"
 457      C9CFFD8F 
 457      9237F894 
 457      04F021B5 
 458 0108 EA641FA5 		.ascii	"\352d\037\245g\244\217J\337\024\337s\001|\035r\315\274"
 458      67A48F4A 
 458      DF14DF73 
 458      017C1D72 
 458      CDBC
 459 011a 1F89ABF4 		.ascii	"\037\211\253\364T\351\261\302p\004`8\005_\337j9F\240"
 459      54E9B1C2 
 459      70046038 
 459      055FDF6A 
 459      3946A0
 460 012d F5C1C2EB 		.ascii	"\365\301\302\353\327\240j\202\265T\005\360\255\236\240"
 460      D7A06A82 
 460      B55405F0 
 460      AD9EA0
 461 013c 6F75005F 		.ascii	"ou\000_2#J\337I\015\376}o\010\340s]\256\247\326\257"
 461      32234ADF 
 461      490DFE7D 
 461      6F08E073 
 461      5DAEA7D6 
 462 0151 46344E6D 		.ascii	"F4Nm\215\257\261o\014`\357zCN\256\000>\244\257A\202"
 462      8DAFB16F 
ARM GAS  C:\Users\Bruger\AppData\Local\Temp\cc5pu3XD.s 			page 35


 462      0C60EF7A 
 462      434EAE00 
 462      3EA4AF41 
 463 0166 BA7EFF35 		.ascii	"\272~\3775l\012\340w{\002~\267\003\370\265N\300\257"
 463      6C0AE077 
 463      7B027EB7 
 463      03F8B54E 
 463      C0AF
 464 0178 3580DF80 		.ascii	"5\200\337\200\006\331\213\006\353B\2735(\\\037E.\317"
 464      06D98B06 
 464      EB42BB35 
 464      285C1F45 
 464      2ECF
 465 018a 66D464E9 		.ascii	"f\324d\351\340\322\240\327\222\313\262\347\235\215\332"
 465      E0D2A0D7 
 465      92CBB2E7 
 465      9D8DDA
 466 0199 E9FB2438 		.ascii	"\351\373$8\322S\244\311Z\024\023\211\216\240\031\350"
 466      D253A4C9 
 466      5A141389 
 466      8EA019E8 
 467 01a9 289A01D4 		.ascii	"(\232\001\324|4\035~Wj\031\251\301]R\033\2015\210\234"
 467      7C341D7E 
 467      576A19A9 
 467      C15D521B 
 467      8135889C 
 468 01bd E7667534 		.ascii	"\347fu4\352\347\034\003\267T\311qU\343\013\327<\360"
 468      EAE71C03 
 468      B754C971 
 468      55E30BD7 
 468      3CF0
 469 01cf D78BE0A8 		.ascii	"\327\213\340\250\203\222\333\352\2617m\305\373\245\234"
 469      8392DBEA 
 469      B1376DC5 
 469      FBA59C
 470 01de 4DD2A8D7 		.ascii	"M\322\250\327\213(\014\035C\030\035Gsh\312p\316r/@Q"
 470      8B280C1D 
 470      43181D47 
 470      7368CA70 
 470      CE722F40 
 471 01f3 E0F8F446 		.ascii	"\340\370\364F\315 \306\237R\272\263-}\237\026 9\326"
 471      CD20C69F 
 471      52BAB32D 
 471      7D9F1620 
 471      39D6
 472 0205 9CFE1269 		.ascii	"\234\376\022i\341f\351\205\327\213)\240\220\003\024"
 472      E166E985 
 472      D78B29A0 
 472      900314
 473 0214 2A80220A 		.ascii	"*\200\"\012\330\226r\262C\217\227Q\300\245\374\262Q"
 473      D89672B2 
 473      438F9751 
 473      C0A5FCB2 
 473      51
 474 0225 2DCD2267 		.ascii	"-\315\"g\327\021]\215\344\360z+$D\011'8\302\011\205"
 474      D7115D8D 
 474      E4F07A2B 
ARM GAS  C:\Users\Bruger\AppData\Local\Temp\cc5pu3XD.s 			page 36


 474      24440927 
 474      38C20985 
 475 0239 60A5845B 		.ascii	"`\245\204[\177\272\272t\330H\011}\266\214\201 \226B"
 475      7FBABA74 
 475      D848097D 
 475      B68C8120 
 475      9642
 476 024b B34CF88C 		.ascii	"\263L\370\214\372\027s\376\305\212\177\011\365\277\322"
 476      FA1773FE 
 476      C58A7F09 
 476      F5BFD2
 477 025a 39F2C440 		.ascii	"9\362\304@[=\231 \262o\335\035\304\264\325\032ry\340"
 477      5B3D9920 
 477      B26FDD1D 
 477      C4B4D51A 
 477      7279E0
 478 026d 715F7908 		.ascii	"q_y\010\376\231\3227\376]\266s\022<\212\322\323\246"
 478      FE99D237 
 478      FE5DB673 
 478      123C8AD2 
 478      D3A6
 479 027f 65F68C9C 		.ascii	"e\366\214\234\012\246\227P'\334\320<\357*:\242C\263"
 479      0AA69750 
 479      27DCD03C 
 479      EF2A3AA2 
 479      43B3
 480 0291 F579D060 		.ascii	"\365y\320`\317H\356\371/R\244\205\310\216\364\250\364"
 480      CF48EEF9 
 480      2F52A485 
 480      C88EF4A8 
 480      F4
 481 02a2 5574EA4B 		.ascii	"Ut\352K\216TI\332$I)R\320\321p\001\235\204\265;\005"
 481      8E5449DA 
 481      24492952 
 481      D0D17001 
 481      9D84B53B 
 482 02b7 6B87CEA0 		.ascii	"k\207\316\240\331`Am\321i\270i\203\233\020\251<\357"
 482      D960416D 
 482      D169B869 
 482      839B10A9 
 482      3CEF
 483 02c9 615FA816 		.ascii	"a_\250\026\326\213\322V\322\031h/\035\266\351\307\235"
 483      D68BD256 
 483      D219682F 
 483      1DB6E9C7 
 483      9D
 484 02da 81323A03 		.ascii	"\2012:\003g\221<\004\035\316\276c!8\033\3212\366T\270"
 484      67913C04 
 484      1DCEBE63 
 484      21381BD1 
 484      32F654B8 
 485 02ee 8635F262 		.ascii	"\2065\362b\273\262\303^-\266\206x\241r\256S\345J\247"
 485      BBB2C35E 
 485      2DB68678 
 485      A172AE53 
 485      E54AA7
 486 0301 CED14E3D 		.ascii	"\316\321N=\333R\327\216\371\220$\033_\314\363\252\271"
ARM GAS  C:\Users\Bruger\AppData\Local\Temp\cc5pu3XD.s 			page 37


 486      DB52D78E 
 486      F990241B 
 486      5FCCF3AA 
 486      B9
 487 0312 DBE3DADB 		.ascii	"\333\343\332\333\020\206KX\310\202\321j:_9Vws\332%\203"
 487      10864B58 
 487      C882D16A 
 487      3A5F3956 
 487      7773DA25 
 488 0327 C45686BA 		.ascii	"\304V\206\272\240\012.`\205\022\320A\003v\036\331x\003"
 488      A00A2E60 
 488      8512D041 
 488      03761ED9 
 488      7803
 489 0339 E1CB8C31 		.ascii	"\341\313\2141XR\323\311f\324\235\326\2400`>\330\214"
 489      5852D3C9 
 489      66D49DD6 
 489      A030603E 
 489      D88C
 490 034b 5672944A 		.ascii	"Vr\224J\205\342\244\224\276\302\234\227\030\2671\212"
 490      85E2A494 
 490      BEC29C97 
 490      18B7318A 
 491 035b ADE6D9A0 		.ascii	"\255\346\331\240\201Qj\033D\007\035\322\224`\3320t\201"
 491      81516A1B 
 491      44071DD2 
 491      9460DA30 
 491      7481
 492 036d 635C5018 		.ascii	"c\\P\030U\224qi\357\276*=\036b\214\273w\267\224Ob\214"
 492      55947169 
 492      EFBE2A3D 
 492      1E628CBB 
 492      77B7944F 
 493 0383 9DC5EBFC 		.ascii	"\235\305\353\374\372w\221\203\\T \325\024\342\252\330"
 493      FA779183 
 493      5C5420D5 
 493      14E2AAD8 
 494 0393 B62D18A7 		.ascii	"\266-\030\247iT\303\024\311\206\351\267+\331\225\230"
 494      6954C314 
 494      C986E9B7 
 494      2BD99598 
 495 03a3 5E7AC963 		.ascii	"^z\311cMs\363\336g\030\351g\3239\361dH\370m\001\315"
 495      4D73F3DE 
 495      6718E967 
 495      D339F164 
 495      48F86D01 
 496 03b8 99813E84 		.ascii	"\231\201>\204!\271\002C\022)\017I\015t\3772t\237\215"
 496      21B90243 
 496      12290F49 
 496      0D74FF32 
 496      749F8D
 497 03cb 5C0A1BB9 		.ascii	"\\\012\033\271ZX\226K\276\221\213\324\277\332\347\351"
 497      5A58964B 
 497      BE918BD4 
 497      BFDAE7E9 
 498 03db 5B2AD3B5 		.ascii	"[*\323\265t\220j_\015\322\220\267\343\260f\334A\252"
 498      74906A5F 
ARM GAS  C:\Users\Bruger\AppData\Local\Temp\cc5pu3XD.s 			page 38


 498      0DD290B7 
 498      E3B066DC 
 498      41AA
 499 03ed A38BFA8F 		.ascii	"\243\213\372\2172H\335\335/\366!\274\207\225\220q\346"
 499      3248DDDD 
 499      2FF621BC 
 499      87959071 
 499      E6
 500 03fe C150B83C 		.ascii	"\301P\270<Hgzbv\247Hy\222\333\353\235\031E\274P=\327"
 500      48677A62 
 500      76A74879 
 500      92DBEB9D 
 500      1945BC50 
 501 0414 887AA511 		.ascii	"\210z\245\021\015\264\021\3337[UsT\253\232\243\253\252"
 501      0DB411DB 
 501      375B5573 
 501      54AB9AA3 
 501      ABAA
 502 0426 39F264DE 		.ascii	"9\362d\336\267\007\343\023,bgS\352\321\010\326\371]"
 502      B707E313 
 502      2C626753 
 502      EAD108D6 
 502      F95D
 503 0438 B678AEF3 		.ascii	"\266x\256\363\340\203\256q\001\257)\001\257\323\200"
 503      E083AE71 
 503      01AF2901 
 503      AFD380
 504 0447 F93D2D7B 		.ascii	"\371=-{\021\256c\220\347\3035\316\010\366\222\270l\213"
 504      11AE6390 
 504      E7C335CE 
 504      08F692B8 
 504      6C8B
 505 0459 63238069 		.ascii	"c#\200iXt\203C\334P\020\215\024q3\355~\226\006\3672"
 505      58748343 
 505      DC50108D 
 505      147133ED 
 505      7E9606F7 
 506 046e 448B2DBB 		.ascii	"D\213-\273\236!\334/m\353\270\327%)\374&\007\271\251"
 506      9E21DC2F 
 506      6DEBB8D7 
 506      2529FC26 
 506      07B9A9
 507 0481 405C1492 		.ascii	"@\\\024\222\261\273\355\221\036\357\304\024\322\364"
 507      B1BBED91 
 507      1EEFC414 
 507      D2F4
 508 048f DF99D230 		.ascii	"\337\231\3220VL\221=\211+\206\354\212[\034\344\226\002"
 508      564C913D 
 508      892B86EC 
 508      8A5B1CE4 
 508      9602
 509 04a1 69A290BC 		.ascii	"i\242\220\274\256\376\326\020\234\313 \305\033\245&"
 509      AEFED610 
 509      9CCB20C5 
 509      1BA526
 510 04b0 032BA6DB 		.ascii	"\003+\246\333\356+\206 \2329D\263\202\270M\021\243\266"
 510      EE2B8620 
ARM GAS  C:\Users\Bruger\AppData\Local\Temp\cc5pu3XD.s 			page 39


 510      9A3944B3 
 510      82B84D11 
 510      A3B6
 511 04c2 D3F93A7C 		.ascii	"\323\371:|\226!\334\336\252\021ys\366\226\375\310\025"
 511      9621DCDE 
 511      AA117973 
 511      F696FDC8 
 511      15
 512 04d3 43202D1C 		.ascii	"C -\034\244E\201\264RHoa\2615\024_e\220\334\364\362"
 512      A44581B4 
 512      52486F61 
 512      B135145F 
 512      6590DCF4 
 513 04e8 161D2946 		.ascii	"\026\035)F\362\324\367{?\332/\035\342[r\207\243\334"
 513      F2D4F77B 
 513      3FDA2F1D 
 513      E25B7287 
 513      A3DC
 514 04fa 51286D94 		.ascii	"Q(m\224\322\360px\277\036o\325RJ\373\361\303\361\024"
 514      D2F07078 
 514      BF1E6FD5 
 514      524AFBF1 
 514      C3F114
 515 050d E21EED12 		.ascii	"\342\036\355\022\235\374\312\264s\204v\205\340\246\204"
 515      9DFCCAB4 
 515      73847685 
 515      E0A684
 516 051c C28B679F 		.ascii	"\302\213g\237\006\341\003\2140\332b\265\221/%\214\024"
 516      06E1038C 
 516      30DA62B5 
 516      912F258C 
 516      14
 517 052d 1D9FFED6 		.ascii	"\035\237\376\326\247\237\317:$\345\374e\265\247\377"
 517      A79FCF3A 
 517      24E5FC65 
 517      B5A7FF
 518 053c E0D828D1 		.ascii	"\340\330(\321\244\350\300u0\242\274\253\004r\015\277"
 518      A4E8C075 
 518      30A2BCAB 
 518      04720DBF 
 519 054c 9DE435DC 		.ascii	"\235\3445\334\205f\201\253\224\371k^0\2662n\351\360"
 519      856681AB 
 519      94F96B5E 
 519      30B6326E 
 519      E9F0
 520 055e 0E7B983E 		.ascii	"\016{\230>\225\274\262\337\274\033a\3776\326\357p\205"
 520      95BCB2DF 
 520      BC1B61FF 
 520      36D6EF70 
 520      85
 521 056f B0FDEBEF 		.ascii	"\260\375\353\357q\177\334\375{\341\361\227\233a\377"
 521      717FDCFD 
 521      7BE1F197 
 521      9B61FF
 522 057e DE83ECFE 		.ascii	"\336\203\354\376\365\355\337\273\310\267\201\267wf\327"
 522      F5EDDFBB 
 522      C8B781B7 
ARM GAS  C:\Users\Bruger\AppData\Local\Temp\cc5pu3XD.s 			page 40


 522      7766D7
 523 058d 190C3BC8 		.ascii	"\031\014;\310K\001\266NHM85\366\355\235nd\240\235\201"
 523      4B01B64E 
 523      484D3835 
 523      F6ED9D6E 
 523      64A09D81 
 524 05a1 BFE4BF88 		.ascii	"\277\344\277\210\372\2266\214KY\005\236\324\264\036"
 524      FA96368C 
 524      4B59059E 
 524      D4B41E
 525 05b0 2DAB6082 		.ascii	"-\253`\202\337\035Mf\341\035\370f\260\017Z\316\225\010"
 525      DF1D4D66 
 525      E11DF866 
 525      B00F5ACE 
 525      9508
 526 05c2 847A21D8 		.ascii	"\204z!\330\003_f\017\221\357k\026\200\332\023\370kv"
 526      035F660F 
 526      91EF6B16 
 526      80DA13F8 
 526      6B76
 527 05d4 78773556 		.ascii	"xw5V\225\320\253*\341\221\\\302#Z\302\310\241\216{\021"
 527      95D0AB2A 
 527      E1915CC2 
 527      235AC2C8 
 527      A18E7B11 
 528 05e8 2A6B320D 		.ascii	"*k2\015>\353>\331\272\217Z\247g\374~>De]\247\262\356"
 528      3EEB3ED9 
 528      BA8F5AA7 
 528      67FC7E3E 
 528      44655DA7 
 529 05fe 97ADFBA9 		.ascii	"\227\255\373\251\365\316\356\241\334P\245#\251\023\312"
 529      F5CEEEA1 
 529      DC50A523 
 529      A913CA
 530 060d 3DDF69FF 		.ascii	"=\337i\377#T\025\300\243J~@\0160@\003t\244W\227\207"
 530      235415C0 
 530      A34A7E40 
 530      0E304003 
 530      74A45797 
 531 0622 284393FA 		.ascii	"(C\223\372\206\021\000\373\312\254=\307\302T\364\307"
 531      861100FB 
 531      CAAC3DC7 
 531      C254F4C7 
 532 0632 2AFA1399 		.ascii	"*\372\023\231\376\204\3223\017z\236\253\213U\277G\007"
 532      FE84D233 
 532      0F7A9EAB 
 532      8B55BF47 
 532      07
 533 0643 65EB416A 		.ascii	"e\353Aj\335\226\345\330\241UY\347\253Z3\204\014\312"
 533      DD96E5D8 
 533      A15559E7 
 533      AB5A3384 
 533      0CCA
 534 0655 B2C2A910 		.ascii	"\262\302\251\020\261tm\202\311bJLX=o\365R8\323-\371"
 534      B1746D82 
 534      C9624A4C 
 534      583D6FF5 
ARM GAS  C:\Users\Bruger\AppData\Local\Temp\cc5pu3XD.s 			page 41


 534      5238D32D 
 535 066a E6DBA868 		.ascii	"\346\333\250h\341\203%b\202h6Z\304\270\325+\022\223"
 535      E1832562 
 535      8268365A 
 535      C4B8D52B 
 535      1293
 536 067c CDB1E2AA 		.ascii	"\315\261\342\252\230\025\211\321\037\257\362Y\317\215"
 536      981589D1 
 536      1FAFF259 
 536      CF8D
 537 068a 152673BE 		.ascii	"\025&s\276+,F\263e\012wcQ\202qM\274\030\2412IL\322%"
 537      2B2C46B3 
 537      650A7763 
 537      5182714D 
 537      BC18A132 
 538 06a2 9B122CF3 		.ascii	"\233\022,\363\346\277?\016>v\203eC\222\270~\356:a:\347"
 538      E6BF3F0E 
 538      3E768365 
 538      4392B87E 
 538      EE3A613A 
 539 06b7 F8BDD964 		.ascii	"\370\275\331d\021\243\023\223\023,\2429\222\273\277"
 539      11A31393 
 539      132CA239 
 539      92BBBF
 540 06c6 5C34C6C9 		.ascii	"\\4\306\311\267\337\342nG\307\213F\363\342\245\213\227"
 540      B7DFE26E 
 540      47C78B46 
 540      F3E2A58B 
 540      97
 541 06d7 45FA3362 		.ascii	"E\3723bD\263)1.\000\372\247$\243Y\014\"\271-x\207\317"
 541      44B32931 
 541      2E00FAA7 
 541      24A3590C 
 541      22B92D78 
 542 06ed 58B42C25 		.ascii	"X\264,%tsr\222\345\353\3048\361]\277\340P\264%y\375"
 542      74737292 
 542      E5EBC438 
 542      F15DBFE0 
 542      50B42579 
 543 0702 7271AD69 		.ascii	"rq\255i=X\2757&\265\004\21391^y<slX\325\3631\225\031"
 543      3D58BD37 
 543      26B5048B 
 543      39315E79 
 543      3C736C58 
 544 071b 932CC966 		.ascii	"\223,\311fql\3014\331i~\267Yi\323\2427,\372\305d\211"
 544      716CC134 
 544      D9697EB7 
 544      5969D3A2 
 544      372CFAC5 
 545 0731 06BC29D6 		.ascii	"\006\274)\326\030\277B\214%&3\307\351v\364\206\257L"
 545      18BF428C 
 545      252633C7 
 545      E976F486 
 545      AF4C
 546 0743 6BA0D791 		.ascii	"k\240\327\221\340E\312\364s\233\312\2050\301\331wF\263"
 546      E045CAF4 
 546      739BCA85 
ARM GAS  C:\Users\Bruger\AppData\Local\Temp\cc5pu3XD.s 			page 42


 546      30C1D977 
 546      46B3
 547 0755 D62CAE5D 		.ascii	"\326,\256]\020\004?\363\346\377\017+\307\232\364"
 547      10043FF3 
 547      E6FF0F2B 
 547      C79AF4
 548              		.text
 549              		.section	.gnu.lto_.symtab.71da0093,"",%progbits
 550 0000 49676E69 		.ascii	"Ignition_1_Init\000\000\000\000\000\000\000\000\000"
 550      74696F6E 
 550      5F315F49 
 550      6E697400 
 550      00000000 
 551 0018 000000AC 		.ascii	"\000\000\000\254\000\000\000Ignition_1_Start\000\000"
 551      00000049 
 551      676E6974 
 551      696F6E5F 
 551      315F5374 
 552 0031 00000000 		.ascii	"\000\000\000\000\000\000\000\000\000\000\256\000\000"
 552      00000000 
 552      0000AE00 
 552      00
 553 003e 0049676E 		.ascii	"\000Ignition_1_initVar\000\000\000\000\000\000\000\000"
 553      6974696F 
 553      6E5F315F 
 553      696E6974 
 553      56617200 
 554 0059 00000000 		.ascii	"\000\000\000\000\343\000\000\000Ignition_1_Enable\000"
 554      E3000000 
 554      49676E69 
 554      74696F6E 
 554      5F315F45 
 555 0073 00000000 		.ascii	"\000\000\000\000\000\000\000\000\000\000\000\260\000"
 555      00000000 
 555      000000B0 
 555      00
 556 0080 00004967 		.ascii	"\000\000Ignition_1_Stop\000\000\000\000\000\000\000"
 556      6E697469 
 556      6F6E5F31 
 556      5F53746F 
 556      70000000 
 557 0098 00000000 		.ascii	"\000\000\000\000\000\262\000\000\000Ignition_1_Writ"
 557      00B20000 
 557      0049676E 
 557      6974696F 
 557      6E5F315F 
 558 00b0 65436F75 		.ascii	"eCounter\000\000\000\000\000\000\000\000\000\000\000"
 558      6E746572 
 558      00000000 
 558      00000000 
 558      000000
 559 00c3 00BD0000 		.ascii	"\000\275\000\000\000Ignition_1_ReadCounter\000\000\000"
 559      0049676E 
 559      6974696F 
 559      6E5F315F 
 559      52656164 
 560 00e1 00000000 		.ascii	"\000\000\000\000\000\000\000\000\000\300\000\000\000"
ARM GAS  C:\Users\Bruger\AppData\Local\Temp\cc5pu3XD.s 			page 43


 560      00000000 
 560      00C00000 
 560      00
 561 00ee 49676E69 		.ascii	"Ignition_1_ClearFIFO\000\000\000\000\000\000\000\000"
 561      74696F6E 
 561      5F315F43 
 561      6C656172 
 561      4649464F 
 562 010a 00000000 		.ascii	"\000\000\000\000\302\000\000\000Ignition_1_WritePer"
 562      C2000000 
 562      49676E69 
 562      74696F6E 
 562      5F315F57 
 563 0125 696F6400 		.ascii	"iod\000\000\000\000\000\000\000\000\000\000\000\000"
 563      00000000 
 563      00000000 
 563      000000
 564 0134 C4000000 		.ascii	"\304\000\000\000Ignition_1_WriteCompare\000\000\000"
 564      49676E69 
 564      74696F6E 
 564      5F315F57 
 564      72697465 
 565 0152 00000000 		.ascii	"\000\000\000\000\000\000\000\000\000\306\000\000\000"
 565      00000000 
 565      00C60000 
 565      00
 566 015f 49676E69 		.ascii	"Ignition_1_SetInterruptMode\000\000\000\000\000\000"
 566      74696F6E 
 566      5F315F53 
 566      6574496E 
 566      74657272 
 567 0180 00000000 		.ascii	"\000\000\000\000\000\000\317\000\000\000Ignition_1_"
 567      0000CF00 
 567      00004967 
 567      6E697469 
 567      6F6E5F31 
 568 0195 52656164 		.ascii	"ReadStatusRegister\000\000\000\000\000\000\000\000\000"
 568      53746174 
 568      75735265 
 568      67697374 
 568      65720000 
 569 01b0 000000D2 		.ascii	"\000\000\000\322\000\000\000Ignition_1_ReadControlR"
 569      00000049 
 569      676E6974 
 569      696F6E5F 
 569      315F5265 
 570 01ce 65676973 		.ascii	"egister\000\000\000\000\000\000\000\000\000\000\000"
 570      74657200 
 570      00000000 
 570      00000000 
 570      0000
 571 01e0 00D40000 		.ascii	"\000\324\000\000\000Ignition_1_WriteControlRegister"
 571      0049676E 
 571      6974696F 
 571      6E5F315F 
 571      57726974 
 572 0204 00000000 		.ascii	"\000\000\000\000\000\000\000\000\000\000\000\000\326"
ARM GAS  C:\Users\Bruger\AppData\Local\Temp\cc5pu3XD.s 			page 44


 572      00000000 
 572      00000000 
 572      D6
 573 0211 00000049 		.ascii	"\000\000\000Ignition_1_ReadCapture\000\000\000\000\000"
 573      676E6974 
 573      696F6E5F 
 573      315F5265 
 573      61644361 
 574 022f 00000000 		.ascii	"\000\000\000\000\000\000\000\330\000\000\000Ignitio"
 574      000000D8 
 574      00000049 
 574      676E6974 
 574      696F
 575 0241 6E5F315F 		.ascii	"n_1_ReadCompare\000\000\000\000\000\000\000\000\000"
 575      52656164 
 575      436F6D70 
 575      61726500 
 575      00000000 
 576 0259 000000DA 		.ascii	"\000\000\000\332\000\000\000Ignition_1_ReadPeriod\000"
 576      00000049 
 576      676E6974 
 576      696F6E5F 
 576      315F5265 
 577 0276 00000000 		.ascii	"\000\000\000\000\000\000\000\000\000\000\000\334\000"
 577      00000000 
 577      000000DC 
 577      00
 578 0283 00004379 		.ascii	"\000\000CyExitCriticalSection\000\000\002\000\000\000"
 578      45786974 
 578      43726974 
 578      6963616C 
 578      53656374 
 579 02a0 00000000 		.ascii	"\000\000\000\000\000\000\336\000\000\000CyEnterCrit"
 579      0000DE00 
 579      00004379 
 579      456E7465 
 579      72437269 
 580 02b5 6963616C 		.ascii	"icalSection\000\000\002\000\000\000\000\000\000\000"
 580      53656374 
 580      696F6E00 
 580      00020000 
 580      00000000 
 581 02ca 0000E000 		.ascii	"\000\000\340\000\000\000"
 581      0000
 582              		.text
 583              		.section	.gnu.lto_.opts,"",%progbits
 584 0000 272D666E 		.ascii	"'-fno-trapv' '-mcpu=cortex-m3' '-mthumb' '-g' '-O3'"
 584      6F2D7472 
 584      61707627 
 584      20272D6D 
 584      6370753D 
 585 0033 20272D66 		.ascii	" '-ffunction-sections' '-finline-functions' '-flto'"
 585      66756E63 
 585      74696F6E 
 585      2D736563 
 585      74696F6E 
 586 0066 20272D66 		.ascii	" '-ffat-lto-objects'\000"
ARM GAS  C:\Users\Bruger\AppData\Local\Temp\cc5pu3XD.s 			page 45


 586      6661742D 
 586      6C746F2D 
 586      6F626A65 
 586      63747327 
 587              		.text
 588              		.cfi_sections	.debug_frame
 589              		.section	.text.Ignition_1_Start,"ax",%progbits
 590              		.align	2
 591              		.global	Ignition_1_Start
 592              		.thumb
 593              		.thumb_func
 594              		.type	Ignition_1_Start, %function
 595              	Ignition_1_Start:
 596              	.LFB0:
 597              		.file 1 "Generated_Source\\PSoC5\\Ignition_1.c"
   1:Generated_Source\PSoC5/Ignition_1.c **** /*******************************************************************************
   2:Generated_Source\PSoC5/Ignition_1.c **** * File Name: Ignition_1.c
   3:Generated_Source\PSoC5/Ignition_1.c **** * Version 3.30
   4:Generated_Source\PSoC5/Ignition_1.c **** *
   5:Generated_Source\PSoC5/Ignition_1.c **** * Description:
   6:Generated_Source\PSoC5/Ignition_1.c **** *  The PWM User Module consist of an 8 or 16-bit counter with two 8 or 16-bit
   7:Generated_Source\PSoC5/Ignition_1.c **** *  comparitors. Each instance of this user module is capable of generating
   8:Generated_Source\PSoC5/Ignition_1.c **** *  two PWM outputs with the same period. The pulse width is selectable between
   9:Generated_Source\PSoC5/Ignition_1.c **** *  1 and 255/65535. The period is selectable between 2 and 255/65536 clocks.
  10:Generated_Source\PSoC5/Ignition_1.c **** *  The compare value output may be configured to be active when the present
  11:Generated_Source\PSoC5/Ignition_1.c **** *  counter is less than or less than/equal to the compare value.
  12:Generated_Source\PSoC5/Ignition_1.c **** *  A terminal count output is also provided. It generates a pulse one clock
  13:Generated_Source\PSoC5/Ignition_1.c **** *  width wide when the counter is equal to zero.
  14:Generated_Source\PSoC5/Ignition_1.c **** *
  15:Generated_Source\PSoC5/Ignition_1.c **** * Note:
  16:Generated_Source\PSoC5/Ignition_1.c **** *
  17:Generated_Source\PSoC5/Ignition_1.c **** *******************************************************************************
  18:Generated_Source\PSoC5/Ignition_1.c **** * Copyright 2008-2014, Cypress Semiconductor Corporation.  All rights reserved.
  19:Generated_Source\PSoC5/Ignition_1.c **** * You may use this file only in accordance with the license, terms, conditions,
  20:Generated_Source\PSoC5/Ignition_1.c **** * disclaimers, and limitations in the end user license agreement accompanying
  21:Generated_Source\PSoC5/Ignition_1.c **** * the software package with which this file was provided.
  22:Generated_Source\PSoC5/Ignition_1.c **** ********************************************************************************/
  23:Generated_Source\PSoC5/Ignition_1.c **** 
  24:Generated_Source\PSoC5/Ignition_1.c **** #include "Ignition_1.h"
  25:Generated_Source\PSoC5/Ignition_1.c **** 
  26:Generated_Source\PSoC5/Ignition_1.c **** /* Error message for removed <resource> through optimization */
  27:Generated_Source\PSoC5/Ignition_1.c **** #ifdef Ignition_1_PWMUDB_genblk1_ctrlreg__REMOVED
  28:Generated_Source\PSoC5/Ignition_1.c ****     #error PWM_v3_30 detected with a constant 0 for the enable or \
  29:Generated_Source\PSoC5/Ignition_1.c ****          constant 1 for reset. This will prevent the component from operating.
  30:Generated_Source\PSoC5/Ignition_1.c **** #endif /* Ignition_1_PWMUDB_genblk1_ctrlreg__REMOVED */
  31:Generated_Source\PSoC5/Ignition_1.c **** 
  32:Generated_Source\PSoC5/Ignition_1.c **** uint8 Ignition_1_initVar = 0u;
  33:Generated_Source\PSoC5/Ignition_1.c **** 
  34:Generated_Source\PSoC5/Ignition_1.c **** 
  35:Generated_Source\PSoC5/Ignition_1.c **** /*******************************************************************************
  36:Generated_Source\PSoC5/Ignition_1.c **** * Function Name: Ignition_1_Start
  37:Generated_Source\PSoC5/Ignition_1.c **** ********************************************************************************
  38:Generated_Source\PSoC5/Ignition_1.c **** *
  39:Generated_Source\PSoC5/Ignition_1.c **** * Summary:
  40:Generated_Source\PSoC5/Ignition_1.c **** *  The start function initializes the pwm with the default values, the
  41:Generated_Source\PSoC5/Ignition_1.c **** *  enables the counter to begin counting.  It does not enable interrupts,
  42:Generated_Source\PSoC5/Ignition_1.c **** *  the EnableInt command should be called if interrupt generation is required.
ARM GAS  C:\Users\Bruger\AppData\Local\Temp\cc5pu3XD.s 			page 46


  43:Generated_Source\PSoC5/Ignition_1.c **** *
  44:Generated_Source\PSoC5/Ignition_1.c **** * Parameters:
  45:Generated_Source\PSoC5/Ignition_1.c **** *  None
  46:Generated_Source\PSoC5/Ignition_1.c **** *
  47:Generated_Source\PSoC5/Ignition_1.c **** * Return:
  48:Generated_Source\PSoC5/Ignition_1.c **** *  None
  49:Generated_Source\PSoC5/Ignition_1.c **** *
  50:Generated_Source\PSoC5/Ignition_1.c **** * Global variables:
  51:Generated_Source\PSoC5/Ignition_1.c **** *  Ignition_1_initVar: Is modified when this function is called for the
  52:Generated_Source\PSoC5/Ignition_1.c **** *   first time. Is used to ensure that initialization happens only once.
  53:Generated_Source\PSoC5/Ignition_1.c **** *
  54:Generated_Source\PSoC5/Ignition_1.c **** *******************************************************************************/
  55:Generated_Source\PSoC5/Ignition_1.c **** void Ignition_1_Start(void) 
  56:Generated_Source\PSoC5/Ignition_1.c **** {
 598              		.loc 1 56 0
 599              		.cfi_startproc
 600              		@ args = 0, pretend = 0, frame = 0
 601              		@ frame_needed = 0, uses_anonymous_args = 0
 602 0000 F8B5     		push	{r3, r4, r5, r6, r7, lr}
 603              		.cfi_def_cfa_offset 24
 604              		.cfi_offset 3, -24
 605              		.cfi_offset 4, -20
 606              		.cfi_offset 5, -16
 607              		.cfi_offset 6, -12
 608              		.cfi_offset 7, -8
 609              		.cfi_offset 14, -4
  57:Generated_Source\PSoC5/Ignition_1.c ****     /* If not Initialized then initialize all required hardware and software */
  58:Generated_Source\PSoC5/Ignition_1.c ****     if(Ignition_1_initVar == 0u)
 610              		.loc 1 58 0
 611 0002 1F4C     		ldr	r4, .L13
 612 0004 2378     		ldrb	r3, [r4]	@ zero_extendqisi2
 613 0006 2BB1     		cbz	r3, .L12
 614              	.L2:
 615              	.LBB40:
 616              	.LBB41:
  59:Generated_Source\PSoC5/Ignition_1.c ****     {
  60:Generated_Source\PSoC5/Ignition_1.c ****         Ignition_1_Init();
  61:Generated_Source\PSoC5/Ignition_1.c ****         Ignition_1_initVar = 1u;
  62:Generated_Source\PSoC5/Ignition_1.c ****     }
  63:Generated_Source\PSoC5/Ignition_1.c ****     Ignition_1_Enable();
  64:Generated_Source\PSoC5/Ignition_1.c **** 
  65:Generated_Source\PSoC5/Ignition_1.c **** }
  66:Generated_Source\PSoC5/Ignition_1.c **** 
  67:Generated_Source\PSoC5/Ignition_1.c **** 
  68:Generated_Source\PSoC5/Ignition_1.c **** /*******************************************************************************
  69:Generated_Source\PSoC5/Ignition_1.c **** * Function Name: Ignition_1_Init
  70:Generated_Source\PSoC5/Ignition_1.c **** ********************************************************************************
  71:Generated_Source\PSoC5/Ignition_1.c **** *
  72:Generated_Source\PSoC5/Ignition_1.c **** * Summary:
  73:Generated_Source\PSoC5/Ignition_1.c **** *  Initialize component's parameters to the parameters set by user in the
  74:Generated_Source\PSoC5/Ignition_1.c **** *  customizer of the component placed onto schematic. Usually called in
  75:Generated_Source\PSoC5/Ignition_1.c **** *  Ignition_1_Start().
  76:Generated_Source\PSoC5/Ignition_1.c **** *
  77:Generated_Source\PSoC5/Ignition_1.c **** * Parameters:
  78:Generated_Source\PSoC5/Ignition_1.c **** *  None
  79:Generated_Source\PSoC5/Ignition_1.c **** *
  80:Generated_Source\PSoC5/Ignition_1.c **** * Return:
ARM GAS  C:\Users\Bruger\AppData\Local\Temp\cc5pu3XD.s 			page 47


  81:Generated_Source\PSoC5/Ignition_1.c **** *  None
  82:Generated_Source\PSoC5/Ignition_1.c **** *
  83:Generated_Source\PSoC5/Ignition_1.c **** *******************************************************************************/
  84:Generated_Source\PSoC5/Ignition_1.c **** void Ignition_1_Init(void) 
  85:Generated_Source\PSoC5/Ignition_1.c **** {
  86:Generated_Source\PSoC5/Ignition_1.c ****     #if (Ignition_1_UsingFixedFunction || Ignition_1_UseControl)
  87:Generated_Source\PSoC5/Ignition_1.c ****         uint8 ctrl;
  88:Generated_Source\PSoC5/Ignition_1.c ****     #endif /* (Ignition_1_UsingFixedFunction || Ignition_1_UseControl) */
  89:Generated_Source\PSoC5/Ignition_1.c **** 
  90:Generated_Source\PSoC5/Ignition_1.c ****     #if(!Ignition_1_UsingFixedFunction)
  91:Generated_Source\PSoC5/Ignition_1.c ****         #if(Ignition_1_UseStatus)
  92:Generated_Source\PSoC5/Ignition_1.c ****             /* Interrupt State Backup for Critical Region*/
  93:Generated_Source\PSoC5/Ignition_1.c ****             uint8 Ignition_1_interruptState;
  94:Generated_Source\PSoC5/Ignition_1.c ****         #endif /* (Ignition_1_UseStatus) */
  95:Generated_Source\PSoC5/Ignition_1.c ****     #endif /* (!Ignition_1_UsingFixedFunction) */
  96:Generated_Source\PSoC5/Ignition_1.c **** 
  97:Generated_Source\PSoC5/Ignition_1.c ****     #if (Ignition_1_UsingFixedFunction)
  98:Generated_Source\PSoC5/Ignition_1.c ****         /* You are allowed to write the compare value (FF only) */
  99:Generated_Source\PSoC5/Ignition_1.c ****         Ignition_1_CONTROL |= Ignition_1_CFG0_MODE;
 100:Generated_Source\PSoC5/Ignition_1.c ****         #if (Ignition_1_DeadBand2_4)
 101:Generated_Source\PSoC5/Ignition_1.c ****             Ignition_1_CONTROL |= Ignition_1_CFG0_DB;
 102:Generated_Source\PSoC5/Ignition_1.c ****         #endif /* (Ignition_1_DeadBand2_4) */
 103:Generated_Source\PSoC5/Ignition_1.c **** 
 104:Generated_Source\PSoC5/Ignition_1.c ****         ctrl = Ignition_1_CONTROL3 & ((uint8 )(~Ignition_1_CTRL_CMPMODE1_MASK));
 105:Generated_Source\PSoC5/Ignition_1.c ****         Ignition_1_CONTROL3 = ctrl | Ignition_1_DEFAULT_COMPARE1_MODE;
 106:Generated_Source\PSoC5/Ignition_1.c **** 
 107:Generated_Source\PSoC5/Ignition_1.c ****          /* Clear and Set SYNCTC and SYNCCMP bits of RT1 register */
 108:Generated_Source\PSoC5/Ignition_1.c ****         Ignition_1_RT1 &= ((uint8)(~Ignition_1_RT1_MASK));
 109:Generated_Source\PSoC5/Ignition_1.c ****         Ignition_1_RT1 |= Ignition_1_SYNC;
 110:Generated_Source\PSoC5/Ignition_1.c **** 
 111:Generated_Source\PSoC5/Ignition_1.c ****         /*Enable DSI Sync all all inputs of the PWM*/
 112:Generated_Source\PSoC5/Ignition_1.c ****         Ignition_1_RT1 &= ((uint8)(~Ignition_1_SYNCDSI_MASK));
 113:Generated_Source\PSoC5/Ignition_1.c ****         Ignition_1_RT1 |= Ignition_1_SYNCDSI_EN;
 114:Generated_Source\PSoC5/Ignition_1.c **** 
 115:Generated_Source\PSoC5/Ignition_1.c ****     #elif (Ignition_1_UseControl)
 116:Generated_Source\PSoC5/Ignition_1.c ****         /* Set the default compare mode defined in the parameter */
 117:Generated_Source\PSoC5/Ignition_1.c ****         ctrl = Ignition_1_CONTROL & ((uint8)(~Ignition_1_CTRL_CMPMODE2_MASK)) &
 118:Generated_Source\PSoC5/Ignition_1.c ****                 ((uint8)(~Ignition_1_CTRL_CMPMODE1_MASK));
 119:Generated_Source\PSoC5/Ignition_1.c ****         Ignition_1_CONTROL = ctrl | Ignition_1_DEFAULT_COMPARE2_MODE |
 120:Generated_Source\PSoC5/Ignition_1.c ****                                    Ignition_1_DEFAULT_COMPARE1_MODE;
 121:Generated_Source\PSoC5/Ignition_1.c ****     #endif /* (Ignition_1_UsingFixedFunction) */
 122:Generated_Source\PSoC5/Ignition_1.c **** 
 123:Generated_Source\PSoC5/Ignition_1.c ****     #if (!Ignition_1_UsingFixedFunction)
 124:Generated_Source\PSoC5/Ignition_1.c ****         #if (Ignition_1_Resolution == 8)
 125:Generated_Source\PSoC5/Ignition_1.c ****             /* Set FIFO 0 to 1 byte register for period*/
 126:Generated_Source\PSoC5/Ignition_1.c ****             Ignition_1_AUX_CONTROLDP0 |= (Ignition_1_AUX_CTRL_FIFO0_CLR);
 127:Generated_Source\PSoC5/Ignition_1.c ****         #else /* (Ignition_1_Resolution == 16)*/
 128:Generated_Source\PSoC5/Ignition_1.c ****             /* Set FIFO 0 to 1 byte register for period */
 129:Generated_Source\PSoC5/Ignition_1.c ****             Ignition_1_AUX_CONTROLDP0 |= (Ignition_1_AUX_CTRL_FIFO0_CLR);
 130:Generated_Source\PSoC5/Ignition_1.c ****             Ignition_1_AUX_CONTROLDP1 |= (Ignition_1_AUX_CTRL_FIFO0_CLR);
 131:Generated_Source\PSoC5/Ignition_1.c ****         #endif /* (Ignition_1_Resolution == 8) */
 132:Generated_Source\PSoC5/Ignition_1.c **** 
 133:Generated_Source\PSoC5/Ignition_1.c ****         Ignition_1_WriteCounter(Ignition_1_INIT_PERIOD_VALUE);
 134:Generated_Source\PSoC5/Ignition_1.c ****     #endif /* (!Ignition_1_UsingFixedFunction) */
 135:Generated_Source\PSoC5/Ignition_1.c **** 
 136:Generated_Source\PSoC5/Ignition_1.c ****     Ignition_1_WritePeriod(Ignition_1_INIT_PERIOD_VALUE);
 137:Generated_Source\PSoC5/Ignition_1.c **** 
ARM GAS  C:\Users\Bruger\AppData\Local\Temp\cc5pu3XD.s 			page 48


 138:Generated_Source\PSoC5/Ignition_1.c ****         #if (Ignition_1_UseOneCompareMode)
 139:Generated_Source\PSoC5/Ignition_1.c ****             Ignition_1_WriteCompare(Ignition_1_INIT_COMPARE_VALUE1);
 140:Generated_Source\PSoC5/Ignition_1.c ****         #else
 141:Generated_Source\PSoC5/Ignition_1.c ****             Ignition_1_WriteCompare1(Ignition_1_INIT_COMPARE_VALUE1);
 142:Generated_Source\PSoC5/Ignition_1.c ****             Ignition_1_WriteCompare2(Ignition_1_INIT_COMPARE_VALUE2);
 143:Generated_Source\PSoC5/Ignition_1.c ****         #endif /* (Ignition_1_UseOneCompareMode) */
 144:Generated_Source\PSoC5/Ignition_1.c **** 
 145:Generated_Source\PSoC5/Ignition_1.c ****         #if (Ignition_1_KillModeMinTime)
 146:Generated_Source\PSoC5/Ignition_1.c ****             Ignition_1_WriteKillTime(Ignition_1_MinimumKillTime);
 147:Generated_Source\PSoC5/Ignition_1.c ****         #endif /* (Ignition_1_KillModeMinTime) */
 148:Generated_Source\PSoC5/Ignition_1.c **** 
 149:Generated_Source\PSoC5/Ignition_1.c ****         #if (Ignition_1_DeadBandUsed)
 150:Generated_Source\PSoC5/Ignition_1.c ****             Ignition_1_WriteDeadTime(Ignition_1_INIT_DEAD_TIME);
 151:Generated_Source\PSoC5/Ignition_1.c ****         #endif /* (Ignition_1_DeadBandUsed) */
 152:Generated_Source\PSoC5/Ignition_1.c **** 
 153:Generated_Source\PSoC5/Ignition_1.c ****     #if (Ignition_1_UseStatus || Ignition_1_UsingFixedFunction)
 154:Generated_Source\PSoC5/Ignition_1.c ****         Ignition_1_SetInterruptMode(Ignition_1_INIT_INTERRUPTS_MODE);
 155:Generated_Source\PSoC5/Ignition_1.c ****     #endif /* (Ignition_1_UseStatus || Ignition_1_UsingFixedFunction) */
 156:Generated_Source\PSoC5/Ignition_1.c **** 
 157:Generated_Source\PSoC5/Ignition_1.c ****     #if (Ignition_1_UsingFixedFunction)
 158:Generated_Source\PSoC5/Ignition_1.c ****         /* Globally Enable the Fixed Function Block chosen */
 159:Generated_Source\PSoC5/Ignition_1.c ****         Ignition_1_GLOBAL_ENABLE |= Ignition_1_BLOCK_EN_MASK;
 160:Generated_Source\PSoC5/Ignition_1.c ****         /* Set the Interrupt source to come from the status register */
 161:Generated_Source\PSoC5/Ignition_1.c ****         Ignition_1_CONTROL2 |= Ignition_1_CTRL2_IRQ_SEL;
 162:Generated_Source\PSoC5/Ignition_1.c ****     #else
 163:Generated_Source\PSoC5/Ignition_1.c ****         #if(Ignition_1_UseStatus)
 164:Generated_Source\PSoC5/Ignition_1.c **** 
 165:Generated_Source\PSoC5/Ignition_1.c ****             /* CyEnterCriticalRegion and CyExitCriticalRegion are used to mark following region cri
 166:Generated_Source\PSoC5/Ignition_1.c ****             /* Enter Critical Region*/
 167:Generated_Source\PSoC5/Ignition_1.c ****             Ignition_1_interruptState = CyEnterCriticalSection();
 168:Generated_Source\PSoC5/Ignition_1.c ****             /* Use the interrupt output of the status register for IRQ output */
 169:Generated_Source\PSoC5/Ignition_1.c ****             Ignition_1_STATUS_AUX_CTRL |= Ignition_1_STATUS_ACTL_INT_EN_MASK;
 170:Generated_Source\PSoC5/Ignition_1.c **** 
 171:Generated_Source\PSoC5/Ignition_1.c ****              /* Exit Critical Region*/
 172:Generated_Source\PSoC5/Ignition_1.c ****             CyExitCriticalSection(Ignition_1_interruptState);
 173:Generated_Source\PSoC5/Ignition_1.c **** 
 174:Generated_Source\PSoC5/Ignition_1.c ****             /* Clear the FIFO to enable the Ignition_1_STATUS_FIFOFULL
 175:Generated_Source\PSoC5/Ignition_1.c ****                    bit to be set on FIFO full. */
 176:Generated_Source\PSoC5/Ignition_1.c ****             Ignition_1_ClearFIFO();
 177:Generated_Source\PSoC5/Ignition_1.c ****         #endif /* (Ignition_1_UseStatus) */
 178:Generated_Source\PSoC5/Ignition_1.c ****     #endif /* (Ignition_1_UsingFixedFunction) */
 179:Generated_Source\PSoC5/Ignition_1.c **** }
 180:Generated_Source\PSoC5/Ignition_1.c **** 
 181:Generated_Source\PSoC5/Ignition_1.c **** 
 182:Generated_Source\PSoC5/Ignition_1.c **** /*******************************************************************************
 183:Generated_Source\PSoC5/Ignition_1.c **** * Function Name: Ignition_1_Enable
 184:Generated_Source\PSoC5/Ignition_1.c **** ********************************************************************************
 185:Generated_Source\PSoC5/Ignition_1.c **** *
 186:Generated_Source\PSoC5/Ignition_1.c **** * Summary:
 187:Generated_Source\PSoC5/Ignition_1.c **** *  Enables the PWM block operation
 188:Generated_Source\PSoC5/Ignition_1.c **** *
 189:Generated_Source\PSoC5/Ignition_1.c **** * Parameters:
 190:Generated_Source\PSoC5/Ignition_1.c **** *  None
 191:Generated_Source\PSoC5/Ignition_1.c **** *
 192:Generated_Source\PSoC5/Ignition_1.c **** * Return:
 193:Generated_Source\PSoC5/Ignition_1.c **** *  None
 194:Generated_Source\PSoC5/Ignition_1.c **** *
ARM GAS  C:\Users\Bruger\AppData\Local\Temp\cc5pu3XD.s 			page 49


 195:Generated_Source\PSoC5/Ignition_1.c **** * Side Effects:
 196:Generated_Source\PSoC5/Ignition_1.c **** *  This works only if software enable mode is chosen
 197:Generated_Source\PSoC5/Ignition_1.c **** *
 198:Generated_Source\PSoC5/Ignition_1.c **** *******************************************************************************/
 199:Generated_Source\PSoC5/Ignition_1.c **** void Ignition_1_Enable(void) 
 200:Generated_Source\PSoC5/Ignition_1.c **** {
 201:Generated_Source\PSoC5/Ignition_1.c ****     /* Globally Enable the Fixed Function Block chosen */
 202:Generated_Source\PSoC5/Ignition_1.c ****     #if (Ignition_1_UsingFixedFunction)
 203:Generated_Source\PSoC5/Ignition_1.c ****         Ignition_1_GLOBAL_ENABLE |= Ignition_1_BLOCK_EN_MASK;
 204:Generated_Source\PSoC5/Ignition_1.c ****         Ignition_1_GLOBAL_STBY_ENABLE |= Ignition_1_BLOCK_STBY_EN_MASK;
 205:Generated_Source\PSoC5/Ignition_1.c ****     #endif /* (Ignition_1_UsingFixedFunction) */
 206:Generated_Source\PSoC5/Ignition_1.c **** 
 207:Generated_Source\PSoC5/Ignition_1.c ****     /* Enable the PWM from the control register  */
 208:Generated_Source\PSoC5/Ignition_1.c ****     #if (Ignition_1_UseControl || Ignition_1_UsingFixedFunction)
 209:Generated_Source\PSoC5/Ignition_1.c ****         Ignition_1_CONTROL |= Ignition_1_CTRL_ENABLE;
 617              		.loc 1 209 0
 618 0008 1E4A     		ldr	r2, .L13+4
 619 000a 1378     		ldrb	r3, [r2]	@ zero_extendqisi2
 620 000c 43F08003 		orr	r3, r3, #128
 621 0010 1370     		strb	r3, [r2]
 622 0012 F8BD     		pop	{r3, r4, r5, r6, r7, pc}
 623              	.L12:
 624              	.LBE41:
 625              	.LBE40:
 626              	.LBB42:
 627              	.LBB43:
 628              	.LBB44:
 629              	.LBB45:
 210:Generated_Source\PSoC5/Ignition_1.c ****     #endif /* (Ignition_1_UseControl || Ignition_1_UsingFixedFunction) */
 211:Generated_Source\PSoC5/Ignition_1.c **** }
 212:Generated_Source\PSoC5/Ignition_1.c **** 
 213:Generated_Source\PSoC5/Ignition_1.c **** 
 214:Generated_Source\PSoC5/Ignition_1.c **** /*******************************************************************************
 215:Generated_Source\PSoC5/Ignition_1.c **** * Function Name: Ignition_1_Stop
 216:Generated_Source\PSoC5/Ignition_1.c **** ********************************************************************************
 217:Generated_Source\PSoC5/Ignition_1.c **** *
 218:Generated_Source\PSoC5/Ignition_1.c **** * Summary:
 219:Generated_Source\PSoC5/Ignition_1.c **** *  The stop function halts the PWM, but does not change any modes or disable
 220:Generated_Source\PSoC5/Ignition_1.c **** *  interrupts.
 221:Generated_Source\PSoC5/Ignition_1.c **** *
 222:Generated_Source\PSoC5/Ignition_1.c **** * Parameters:
 223:Generated_Source\PSoC5/Ignition_1.c **** *  None
 224:Generated_Source\PSoC5/Ignition_1.c **** *
 225:Generated_Source\PSoC5/Ignition_1.c **** * Return:
 226:Generated_Source\PSoC5/Ignition_1.c **** *  None
 227:Generated_Source\PSoC5/Ignition_1.c **** *
 228:Generated_Source\PSoC5/Ignition_1.c **** * Side Effects:
 229:Generated_Source\PSoC5/Ignition_1.c **** *  If the Enable mode is set to Hardware only then this function
 230:Generated_Source\PSoC5/Ignition_1.c **** *  has no effect on the operation of the PWM
 231:Generated_Source\PSoC5/Ignition_1.c **** *
 232:Generated_Source\PSoC5/Ignition_1.c **** *******************************************************************************/
 233:Generated_Source\PSoC5/Ignition_1.c **** void Ignition_1_Stop(void) 
 234:Generated_Source\PSoC5/Ignition_1.c **** {
 235:Generated_Source\PSoC5/Ignition_1.c ****     #if (Ignition_1_UseControl || Ignition_1_UsingFixedFunction)
 236:Generated_Source\PSoC5/Ignition_1.c ****         Ignition_1_CONTROL &= ((uint8)(~Ignition_1_CTRL_ENABLE));
 237:Generated_Source\PSoC5/Ignition_1.c ****     #endif /* (Ignition_1_UseControl || Ignition_1_UsingFixedFunction) */
 238:Generated_Source\PSoC5/Ignition_1.c **** 
ARM GAS  C:\Users\Bruger\AppData\Local\Temp\cc5pu3XD.s 			page 50


 239:Generated_Source\PSoC5/Ignition_1.c ****     /* Globally disable the Fixed Function Block chosen */
 240:Generated_Source\PSoC5/Ignition_1.c ****     #if (Ignition_1_UsingFixedFunction)
 241:Generated_Source\PSoC5/Ignition_1.c ****         Ignition_1_GLOBAL_ENABLE &= ((uint8)(~Ignition_1_BLOCK_EN_MASK));
 242:Generated_Source\PSoC5/Ignition_1.c ****         Ignition_1_GLOBAL_STBY_ENABLE &= ((uint8)(~Ignition_1_BLOCK_STBY_EN_MASK));
 243:Generated_Source\PSoC5/Ignition_1.c ****     #endif /* (Ignition_1_UsingFixedFunction) */
 244:Generated_Source\PSoC5/Ignition_1.c **** }
 245:Generated_Source\PSoC5/Ignition_1.c **** 
 246:Generated_Source\PSoC5/Ignition_1.c **** #if (Ignition_1_UseOneCompareMode)
 247:Generated_Source\PSoC5/Ignition_1.c ****     #if (Ignition_1_CompareMode1SW)
 248:Generated_Source\PSoC5/Ignition_1.c **** 
 249:Generated_Source\PSoC5/Ignition_1.c **** 
 250:Generated_Source\PSoC5/Ignition_1.c ****         /*******************************************************************************
 251:Generated_Source\PSoC5/Ignition_1.c ****         * Function Name: Ignition_1_SetCompareMode
 252:Generated_Source\PSoC5/Ignition_1.c ****         ********************************************************************************
 253:Generated_Source\PSoC5/Ignition_1.c ****         *
 254:Generated_Source\PSoC5/Ignition_1.c ****         * Summary:
 255:Generated_Source\PSoC5/Ignition_1.c ****         *  This function writes the Compare Mode for the pwm output when in Dither mode,
 256:Generated_Source\PSoC5/Ignition_1.c ****         *  Center Align Mode or One Output Mode.
 257:Generated_Source\PSoC5/Ignition_1.c ****         *
 258:Generated_Source\PSoC5/Ignition_1.c ****         * Parameters:
 259:Generated_Source\PSoC5/Ignition_1.c ****         *  comparemode:  The new compare mode for the PWM output. Use the compare types
 260:Generated_Source\PSoC5/Ignition_1.c ****         *                defined in the H file as input arguments.
 261:Generated_Source\PSoC5/Ignition_1.c ****         *
 262:Generated_Source\PSoC5/Ignition_1.c ****         * Return:
 263:Generated_Source\PSoC5/Ignition_1.c ****         *  None
 264:Generated_Source\PSoC5/Ignition_1.c ****         *
 265:Generated_Source\PSoC5/Ignition_1.c ****         *******************************************************************************/
 266:Generated_Source\PSoC5/Ignition_1.c ****         void Ignition_1_SetCompareMode(uint8 comparemode) 
 267:Generated_Source\PSoC5/Ignition_1.c ****         {
 268:Generated_Source\PSoC5/Ignition_1.c ****             #if(Ignition_1_UsingFixedFunction)
 269:Generated_Source\PSoC5/Ignition_1.c **** 
 270:Generated_Source\PSoC5/Ignition_1.c ****                 #if(0 != Ignition_1_CTRL_CMPMODE1_SHIFT)
 271:Generated_Source\PSoC5/Ignition_1.c ****                     uint8 comparemodemasked = ((uint8)((uint8)comparemode << Ignition_1_CTRL_CMPMOD
 272:Generated_Source\PSoC5/Ignition_1.c ****                 #else
 273:Generated_Source\PSoC5/Ignition_1.c ****                     uint8 comparemodemasked = comparemode;
 274:Generated_Source\PSoC5/Ignition_1.c ****                 #endif /* (0 != Ignition_1_CTRL_CMPMODE1_SHIFT) */
 275:Generated_Source\PSoC5/Ignition_1.c **** 
 276:Generated_Source\PSoC5/Ignition_1.c ****                 Ignition_1_CONTROL3 &= ((uint8)(~Ignition_1_CTRL_CMPMODE1_MASK)); /*Clear Existing 
 277:Generated_Source\PSoC5/Ignition_1.c ****                 Ignition_1_CONTROL3 |= comparemodemasked;
 278:Generated_Source\PSoC5/Ignition_1.c **** 
 279:Generated_Source\PSoC5/Ignition_1.c ****             #elif (Ignition_1_UseControl)
 280:Generated_Source\PSoC5/Ignition_1.c **** 
 281:Generated_Source\PSoC5/Ignition_1.c ****                 #if(0 != Ignition_1_CTRL_CMPMODE1_SHIFT)
 282:Generated_Source\PSoC5/Ignition_1.c ****                     uint8 comparemode1masked = ((uint8)((uint8)comparemode << Ignition_1_CTRL_CMPMO
 283:Generated_Source\PSoC5/Ignition_1.c ****                                                 Ignition_1_CTRL_CMPMODE1_MASK;
 284:Generated_Source\PSoC5/Ignition_1.c ****                 #else
 285:Generated_Source\PSoC5/Ignition_1.c ****                     uint8 comparemode1masked = comparemode & Ignition_1_CTRL_CMPMODE1_MASK;
 286:Generated_Source\PSoC5/Ignition_1.c ****                 #endif /* (0 != Ignition_1_CTRL_CMPMODE1_SHIFT) */
 287:Generated_Source\PSoC5/Ignition_1.c **** 
 288:Generated_Source\PSoC5/Ignition_1.c ****                 #if(0 != Ignition_1_CTRL_CMPMODE2_SHIFT)
 289:Generated_Source\PSoC5/Ignition_1.c ****                     uint8 comparemode2masked = ((uint8)((uint8)comparemode << Ignition_1_CTRL_CMPMO
 290:Generated_Source\PSoC5/Ignition_1.c ****                                                Ignition_1_CTRL_CMPMODE2_MASK;
 291:Generated_Source\PSoC5/Ignition_1.c ****                 #else
 292:Generated_Source\PSoC5/Ignition_1.c ****                     uint8 comparemode2masked = comparemode & Ignition_1_CTRL_CMPMODE2_MASK;
 293:Generated_Source\PSoC5/Ignition_1.c ****                 #endif /* (0 != Ignition_1_CTRL_CMPMODE2_SHIFT) */
 294:Generated_Source\PSoC5/Ignition_1.c **** 
 295:Generated_Source\PSoC5/Ignition_1.c ****                 /*Clear existing mode */
ARM GAS  C:\Users\Bruger\AppData\Local\Temp\cc5pu3XD.s 			page 51


 296:Generated_Source\PSoC5/Ignition_1.c ****                 Ignition_1_CONTROL &= ((uint8)(~(Ignition_1_CTRL_CMPMODE1_MASK |
 297:Generated_Source\PSoC5/Ignition_1.c ****                                             Ignition_1_CTRL_CMPMODE2_MASK)));
 298:Generated_Source\PSoC5/Ignition_1.c ****                 Ignition_1_CONTROL |= (comparemode1masked | comparemode2masked);
 299:Generated_Source\PSoC5/Ignition_1.c **** 
 300:Generated_Source\PSoC5/Ignition_1.c ****             #else
 301:Generated_Source\PSoC5/Ignition_1.c ****                 uint8 temp = comparemode;
 302:Generated_Source\PSoC5/Ignition_1.c ****             #endif /* (Ignition_1_UsingFixedFunction) */
 303:Generated_Source\PSoC5/Ignition_1.c ****         }
 304:Generated_Source\PSoC5/Ignition_1.c ****     #endif /* Ignition_1_CompareMode1SW */
 305:Generated_Source\PSoC5/Ignition_1.c **** 
 306:Generated_Source\PSoC5/Ignition_1.c **** #else /* UseOneCompareMode */
 307:Generated_Source\PSoC5/Ignition_1.c **** 
 308:Generated_Source\PSoC5/Ignition_1.c ****     #if (Ignition_1_CompareMode1SW)
 309:Generated_Source\PSoC5/Ignition_1.c **** 
 310:Generated_Source\PSoC5/Ignition_1.c **** 
 311:Generated_Source\PSoC5/Ignition_1.c ****         /*******************************************************************************
 312:Generated_Source\PSoC5/Ignition_1.c ****         * Function Name: Ignition_1_SetCompareMode1
 313:Generated_Source\PSoC5/Ignition_1.c ****         ********************************************************************************
 314:Generated_Source\PSoC5/Ignition_1.c ****         *
 315:Generated_Source\PSoC5/Ignition_1.c ****         * Summary:
 316:Generated_Source\PSoC5/Ignition_1.c ****         *  This function writes the Compare Mode for the pwm or pwm1 output
 317:Generated_Source\PSoC5/Ignition_1.c ****         *
 318:Generated_Source\PSoC5/Ignition_1.c ****         * Parameters:
 319:Generated_Source\PSoC5/Ignition_1.c ****         *  comparemode:  The new compare mode for the PWM output. Use the compare types
 320:Generated_Source\PSoC5/Ignition_1.c ****         *                defined in the H file as input arguments.
 321:Generated_Source\PSoC5/Ignition_1.c ****         *
 322:Generated_Source\PSoC5/Ignition_1.c ****         * Return:
 323:Generated_Source\PSoC5/Ignition_1.c ****         *  None
 324:Generated_Source\PSoC5/Ignition_1.c ****         *
 325:Generated_Source\PSoC5/Ignition_1.c ****         *******************************************************************************/
 326:Generated_Source\PSoC5/Ignition_1.c ****         void Ignition_1_SetCompareMode1(uint8 comparemode) 
 327:Generated_Source\PSoC5/Ignition_1.c ****         {
 328:Generated_Source\PSoC5/Ignition_1.c ****             #if(0 != Ignition_1_CTRL_CMPMODE1_SHIFT)
 329:Generated_Source\PSoC5/Ignition_1.c ****                 uint8 comparemodemasked = ((uint8)((uint8)comparemode << Ignition_1_CTRL_CMPMODE1_S
 330:Generated_Source\PSoC5/Ignition_1.c ****                                            Ignition_1_CTRL_CMPMODE1_MASK;
 331:Generated_Source\PSoC5/Ignition_1.c ****             #else
 332:Generated_Source\PSoC5/Ignition_1.c ****                 uint8 comparemodemasked = comparemode & Ignition_1_CTRL_CMPMODE1_MASK;
 333:Generated_Source\PSoC5/Ignition_1.c ****             #endif /* (0 != Ignition_1_CTRL_CMPMODE1_SHIFT) */
 334:Generated_Source\PSoC5/Ignition_1.c **** 
 335:Generated_Source\PSoC5/Ignition_1.c ****             #if (Ignition_1_UseControl)
 336:Generated_Source\PSoC5/Ignition_1.c ****                 Ignition_1_CONTROL &= ((uint8)(~Ignition_1_CTRL_CMPMODE1_MASK)); /*Clear existing m
 337:Generated_Source\PSoC5/Ignition_1.c ****                 Ignition_1_CONTROL |= comparemodemasked;
 338:Generated_Source\PSoC5/Ignition_1.c ****             #endif /* (Ignition_1_UseControl) */
 339:Generated_Source\PSoC5/Ignition_1.c ****         }
 340:Generated_Source\PSoC5/Ignition_1.c ****     #endif /* Ignition_1_CompareMode1SW */
 341:Generated_Source\PSoC5/Ignition_1.c **** 
 342:Generated_Source\PSoC5/Ignition_1.c **** #if (Ignition_1_CompareMode2SW)
 343:Generated_Source\PSoC5/Ignition_1.c **** 
 344:Generated_Source\PSoC5/Ignition_1.c **** 
 345:Generated_Source\PSoC5/Ignition_1.c ****     /*******************************************************************************
 346:Generated_Source\PSoC5/Ignition_1.c ****     * Function Name: Ignition_1_SetCompareMode2
 347:Generated_Source\PSoC5/Ignition_1.c ****     ********************************************************************************
 348:Generated_Source\PSoC5/Ignition_1.c ****     *
 349:Generated_Source\PSoC5/Ignition_1.c ****     * Summary:
 350:Generated_Source\PSoC5/Ignition_1.c ****     *  This function writes the Compare Mode for the pwm or pwm2 output
 351:Generated_Source\PSoC5/Ignition_1.c ****     *
 352:Generated_Source\PSoC5/Ignition_1.c ****     * Parameters:
ARM GAS  C:\Users\Bruger\AppData\Local\Temp\cc5pu3XD.s 			page 52


 353:Generated_Source\PSoC5/Ignition_1.c ****     *  comparemode:  The new compare mode for the PWM output. Use the compare types
 354:Generated_Source\PSoC5/Ignition_1.c ****     *                defined in the H file as input arguments.
 355:Generated_Source\PSoC5/Ignition_1.c ****     *
 356:Generated_Source\PSoC5/Ignition_1.c ****     * Return:
 357:Generated_Source\PSoC5/Ignition_1.c ****     *  None
 358:Generated_Source\PSoC5/Ignition_1.c ****     *
 359:Generated_Source\PSoC5/Ignition_1.c ****     *******************************************************************************/
 360:Generated_Source\PSoC5/Ignition_1.c ****     void Ignition_1_SetCompareMode2(uint8 comparemode) 
 361:Generated_Source\PSoC5/Ignition_1.c ****     {
 362:Generated_Source\PSoC5/Ignition_1.c **** 
 363:Generated_Source\PSoC5/Ignition_1.c ****         #if(0 != Ignition_1_CTRL_CMPMODE2_SHIFT)
 364:Generated_Source\PSoC5/Ignition_1.c ****             uint8 comparemodemasked = ((uint8)((uint8)comparemode << Ignition_1_CTRL_CMPMODE2_SHIFT
 365:Generated_Source\PSoC5/Ignition_1.c ****                                                  Ignition_1_CTRL_CMPMODE2_MASK;
 366:Generated_Source\PSoC5/Ignition_1.c ****         #else
 367:Generated_Source\PSoC5/Ignition_1.c ****             uint8 comparemodemasked = comparemode & Ignition_1_CTRL_CMPMODE2_MASK;
 368:Generated_Source\PSoC5/Ignition_1.c ****         #endif /* (0 != Ignition_1_CTRL_CMPMODE2_SHIFT) */
 369:Generated_Source\PSoC5/Ignition_1.c **** 
 370:Generated_Source\PSoC5/Ignition_1.c ****         #if (Ignition_1_UseControl)
 371:Generated_Source\PSoC5/Ignition_1.c ****             Ignition_1_CONTROL &= ((uint8)(~Ignition_1_CTRL_CMPMODE2_MASK)); /*Clear existing mode 
 372:Generated_Source\PSoC5/Ignition_1.c ****             Ignition_1_CONTROL |= comparemodemasked;
 373:Generated_Source\PSoC5/Ignition_1.c ****         #endif /* (Ignition_1_UseControl) */
 374:Generated_Source\PSoC5/Ignition_1.c ****     }
 375:Generated_Source\PSoC5/Ignition_1.c ****     #endif /*Ignition_1_CompareMode2SW */
 376:Generated_Source\PSoC5/Ignition_1.c **** 
 377:Generated_Source\PSoC5/Ignition_1.c **** #endif /* UseOneCompareMode */
 378:Generated_Source\PSoC5/Ignition_1.c **** 
 379:Generated_Source\PSoC5/Ignition_1.c **** 
 380:Generated_Source\PSoC5/Ignition_1.c **** #if (!Ignition_1_UsingFixedFunction)
 381:Generated_Source\PSoC5/Ignition_1.c **** 
 382:Generated_Source\PSoC5/Ignition_1.c **** 
 383:Generated_Source\PSoC5/Ignition_1.c ****     /*******************************************************************************
 384:Generated_Source\PSoC5/Ignition_1.c ****     * Function Name: Ignition_1_WriteCounter
 385:Generated_Source\PSoC5/Ignition_1.c ****     ********************************************************************************
 386:Generated_Source\PSoC5/Ignition_1.c ****     *
 387:Generated_Source\PSoC5/Ignition_1.c ****     * Summary:
 388:Generated_Source\PSoC5/Ignition_1.c ****     *  Writes a new counter value directly to the counter register. This will be
 389:Generated_Source\PSoC5/Ignition_1.c ****     *  implemented for that currently running period and only that period. This API
 390:Generated_Source\PSoC5/Ignition_1.c ****     *  is valid only for UDB implementation and not available for fixed function
 391:Generated_Source\PSoC5/Ignition_1.c ****     *  PWM implementation.
 392:Generated_Source\PSoC5/Ignition_1.c ****     *
 393:Generated_Source\PSoC5/Ignition_1.c ****     * Parameters:
 394:Generated_Source\PSoC5/Ignition_1.c ****     *  counter:  The period new period counter value.
 395:Generated_Source\PSoC5/Ignition_1.c ****     *
 396:Generated_Source\PSoC5/Ignition_1.c ****     * Return:
 397:Generated_Source\PSoC5/Ignition_1.c ****     *  None
 398:Generated_Source\PSoC5/Ignition_1.c ****     *
 399:Generated_Source\PSoC5/Ignition_1.c ****     * Side Effects:
 400:Generated_Source\PSoC5/Ignition_1.c ****     *  The PWM Period will be reloaded when a counter value will be a zero
 401:Generated_Source\PSoC5/Ignition_1.c ****     *
 402:Generated_Source\PSoC5/Ignition_1.c ****     *******************************************************************************/
 403:Generated_Source\PSoC5/Ignition_1.c ****     void Ignition_1_WriteCounter(uint16 counter) \
 404:Generated_Source\PSoC5/Ignition_1.c ****                                        
 405:Generated_Source\PSoC5/Ignition_1.c ****     {
 406:Generated_Source\PSoC5/Ignition_1.c ****         CY_SET_REG16(Ignition_1_COUNTER_LSB_PTR, counter);
 630              		.loc 1 406 0
 631 0014 4AF6C871 		movw	r1, #45000
 632              	.LBE45:
ARM GAS  C:\Users\Bruger\AppData\Local\Temp\cc5pu3XD.s 			page 53


 633              	.LBE44:
 117:Generated_Source\PSoC5/Ignition_1.c ****                 ((uint8)(~Ignition_1_CTRL_CMPMODE1_MASK));
 634              		.loc 1 117 0
 635 0018 1A4E     		ldr	r6, .L13+4
 129:Generated_Source\PSoC5/Ignition_1.c ****             Ignition_1_AUX_CONTROLDP1 |= (Ignition_1_AUX_CTRL_FIFO0_CLR);
 636              		.loc 1 129 0
 637 001a 1B48     		ldr	r0, .L13+8
 117:Generated_Source\PSoC5/Ignition_1.c ****                 ((uint8)(~Ignition_1_CTRL_CMPMODE1_MASK));
 638              		.loc 1 117 0
 639 001c 3278     		ldrb	r2, [r6]	@ zero_extendqisi2
 640              	.LVL0:
 130:Generated_Source\PSoC5/Ignition_1.c ****         #endif /* (Ignition_1_Resolution == 8) */
 641              		.loc 1 130 0
 642 001e 1B4D     		ldr	r5, .L13+12
 117:Generated_Source\PSoC5/Ignition_1.c ****                 ((uint8)(~Ignition_1_CTRL_CMPMODE1_MASK));
 643              		.loc 1 117 0
 644 0020 02F0C002 		and	r2, r2, #192
 645              	.LVL1:
 119:Generated_Source\PSoC5/Ignition_1.c ****                                    Ignition_1_DEFAULT_COMPARE1_MODE;
 646              		.loc 1 119 0
 647 0024 42F00902 		orr	r2, r2, #9
 648 0028 3270     		strb	r2, [r6]
 129:Generated_Source\PSoC5/Ignition_1.c ****             Ignition_1_AUX_CONTROLDP1 |= (Ignition_1_AUX_CTRL_FIFO0_CLR);
 649              		.loc 1 129 0
 650 002a 0278     		ldrb	r2, [r0]	@ zero_extendqisi2
 651              	.LBB48:
 652              	.LBB46:
 653              		.loc 1 406 0
 654 002c DFF868C0 		ldr	ip, .L13+24
 655              	.LBE46:
 656              	.LBE48:
 129:Generated_Source\PSoC5/Ignition_1.c ****             Ignition_1_AUX_CONTROLDP1 |= (Ignition_1_AUX_CTRL_FIFO0_CLR);
 657              		.loc 1 129 0
 658 0030 42F00102 		orr	r2, r2, #1
 659 0034 0270     		strb	r2, [r0]
 130:Generated_Source\PSoC5/Ignition_1.c ****         #endif /* (Ignition_1_Resolution == 8) */
 660              		.loc 1 130 0
 661 0036 2A78     		ldrb	r2, [r5]	@ zero_extendqisi2
 662              	.LBB49:
 663              	.LBB50:
 407:Generated_Source\PSoC5/Ignition_1.c ****     }
 408:Generated_Source\PSoC5/Ignition_1.c **** 
 409:Generated_Source\PSoC5/Ignition_1.c **** 
 410:Generated_Source\PSoC5/Ignition_1.c ****     /*******************************************************************************
 411:Generated_Source\PSoC5/Ignition_1.c ****     * Function Name: Ignition_1_ReadCounter
 412:Generated_Source\PSoC5/Ignition_1.c ****     ********************************************************************************
 413:Generated_Source\PSoC5/Ignition_1.c ****     *
 414:Generated_Source\PSoC5/Ignition_1.c ****     * Summary:
 415:Generated_Source\PSoC5/Ignition_1.c ****     *  This function returns the current value of the counter.  It doesn't matter
 416:Generated_Source\PSoC5/Ignition_1.c ****     *  if the counter is enabled or running.
 417:Generated_Source\PSoC5/Ignition_1.c ****     *
 418:Generated_Source\PSoC5/Ignition_1.c ****     * Parameters:
 419:Generated_Source\PSoC5/Ignition_1.c ****     *  None
 420:Generated_Source\PSoC5/Ignition_1.c ****     *
 421:Generated_Source\PSoC5/Ignition_1.c ****     * Return:
 422:Generated_Source\PSoC5/Ignition_1.c ****     *  The current value of the counter.
 423:Generated_Source\PSoC5/Ignition_1.c ****     *
ARM GAS  C:\Users\Bruger\AppData\Local\Temp\cc5pu3XD.s 			page 54


 424:Generated_Source\PSoC5/Ignition_1.c ****     *******************************************************************************/
 425:Generated_Source\PSoC5/Ignition_1.c ****     uint16 Ignition_1_ReadCounter(void) 
 426:Generated_Source\PSoC5/Ignition_1.c ****     {
 427:Generated_Source\PSoC5/Ignition_1.c ****         /* Force capture by reading Accumulator */
 428:Generated_Source\PSoC5/Ignition_1.c ****         /* Must first do a software capture to be able to read the counter */
 429:Generated_Source\PSoC5/Ignition_1.c ****         /* It is up to the user code to make sure there isn't already captured data in the FIFO */
 430:Generated_Source\PSoC5/Ignition_1.c ****           (void)CY_GET_REG8(Ignition_1_COUNTERCAP_LSB_PTR_8BIT);
 431:Generated_Source\PSoC5/Ignition_1.c **** 
 432:Generated_Source\PSoC5/Ignition_1.c ****         /* Read the data from the FIFO */
 433:Generated_Source\PSoC5/Ignition_1.c ****         return (CY_GET_REG16(Ignition_1_CAPTURE_LSB_PTR));
 434:Generated_Source\PSoC5/Ignition_1.c ****     }
 435:Generated_Source\PSoC5/Ignition_1.c **** 
 436:Generated_Source\PSoC5/Ignition_1.c ****     #if (Ignition_1_UseStatus)
 437:Generated_Source\PSoC5/Ignition_1.c **** 
 438:Generated_Source\PSoC5/Ignition_1.c **** 
 439:Generated_Source\PSoC5/Ignition_1.c ****         /*******************************************************************************
 440:Generated_Source\PSoC5/Ignition_1.c ****         * Function Name: Ignition_1_ClearFIFO
 441:Generated_Source\PSoC5/Ignition_1.c ****         ********************************************************************************
 442:Generated_Source\PSoC5/Ignition_1.c ****         *
 443:Generated_Source\PSoC5/Ignition_1.c ****         * Summary:
 444:Generated_Source\PSoC5/Ignition_1.c ****         *  This function clears all capture data from the capture FIFO
 445:Generated_Source\PSoC5/Ignition_1.c ****         *
 446:Generated_Source\PSoC5/Ignition_1.c ****         * Parameters:
 447:Generated_Source\PSoC5/Ignition_1.c ****         *  None
 448:Generated_Source\PSoC5/Ignition_1.c ****         *
 449:Generated_Source\PSoC5/Ignition_1.c ****         * Return:
 450:Generated_Source\PSoC5/Ignition_1.c ****         *  None
 451:Generated_Source\PSoC5/Ignition_1.c ****         *
 452:Generated_Source\PSoC5/Ignition_1.c ****         *******************************************************************************/
 453:Generated_Source\PSoC5/Ignition_1.c ****         void Ignition_1_ClearFIFO(void) 
 454:Generated_Source\PSoC5/Ignition_1.c ****         {
 455:Generated_Source\PSoC5/Ignition_1.c ****             while(0u != (Ignition_1_ReadStatusRegister() & Ignition_1_STATUS_FIFONEMPTY))
 456:Generated_Source\PSoC5/Ignition_1.c ****             {
 457:Generated_Source\PSoC5/Ignition_1.c ****                 (void)Ignition_1_ReadCapture();
 458:Generated_Source\PSoC5/Ignition_1.c ****             }
 459:Generated_Source\PSoC5/Ignition_1.c ****         }
 460:Generated_Source\PSoC5/Ignition_1.c **** 
 461:Generated_Source\PSoC5/Ignition_1.c ****     #endif /* Ignition_1_UseStatus */
 462:Generated_Source\PSoC5/Ignition_1.c **** 
 463:Generated_Source\PSoC5/Ignition_1.c **** #endif /* !Ignition_1_UsingFixedFunction */
 464:Generated_Source\PSoC5/Ignition_1.c **** 
 465:Generated_Source\PSoC5/Ignition_1.c **** 
 466:Generated_Source\PSoC5/Ignition_1.c **** /*******************************************************************************
 467:Generated_Source\PSoC5/Ignition_1.c **** * Function Name: Ignition_1_WritePeriod
 468:Generated_Source\PSoC5/Ignition_1.c **** ********************************************************************************
 469:Generated_Source\PSoC5/Ignition_1.c **** *
 470:Generated_Source\PSoC5/Ignition_1.c **** * Summary:
 471:Generated_Source\PSoC5/Ignition_1.c **** *  This function is used to change the period of the counter.  The new period
 472:Generated_Source\PSoC5/Ignition_1.c **** *  will be loaded the next time terminal count is detected.
 473:Generated_Source\PSoC5/Ignition_1.c **** *
 474:Generated_Source\PSoC5/Ignition_1.c **** * Parameters:
 475:Generated_Source\PSoC5/Ignition_1.c **** *  period:  Period value. May be between 1 and (2^Resolution)-1.  A value of 0
 476:Generated_Source\PSoC5/Ignition_1.c **** *           will result in the counter remaining at zero.
 477:Generated_Source\PSoC5/Ignition_1.c **** *
 478:Generated_Source\PSoC5/Ignition_1.c **** * Return:
 479:Generated_Source\PSoC5/Ignition_1.c **** *  None
 480:Generated_Source\PSoC5/Ignition_1.c **** *
ARM GAS  C:\Users\Bruger\AppData\Local\Temp\cc5pu3XD.s 			page 55


 481:Generated_Source\PSoC5/Ignition_1.c **** *******************************************************************************/
 482:Generated_Source\PSoC5/Ignition_1.c **** void Ignition_1_WritePeriod(uint16 period) 
 483:Generated_Source\PSoC5/Ignition_1.c **** {
 484:Generated_Source\PSoC5/Ignition_1.c ****     #if(Ignition_1_UsingFixedFunction)
 485:Generated_Source\PSoC5/Ignition_1.c ****         CY_SET_REG16(Ignition_1_PERIOD_LSB_PTR, (uint16)period);
 486:Generated_Source\PSoC5/Ignition_1.c ****     #else
 487:Generated_Source\PSoC5/Ignition_1.c ****         CY_SET_REG16(Ignition_1_PERIOD_LSB_PTR, period);
 664              		.loc 1 487 0
 665 0038 DFF860E0 		ldr	lr, .L13+28
 666              	.LBE50:
 667              	.LBE49:
 130:Generated_Source\PSoC5/Ignition_1.c ****         #endif /* (Ignition_1_Resolution == 8) */
 668              		.loc 1 130 0
 669 003c 42F00102 		orr	r2, r2, #1
 670              	.LBB52:
 671              	.LBB53:
 488:Generated_Source\PSoC5/Ignition_1.c ****     #endif /* (Ignition_1_UsingFixedFunction) */
 489:Generated_Source\PSoC5/Ignition_1.c **** }
 490:Generated_Source\PSoC5/Ignition_1.c **** 
 491:Generated_Source\PSoC5/Ignition_1.c **** #if (Ignition_1_UseOneCompareMode)
 492:Generated_Source\PSoC5/Ignition_1.c **** 
 493:Generated_Source\PSoC5/Ignition_1.c **** 
 494:Generated_Source\PSoC5/Ignition_1.c ****     /*******************************************************************************
 495:Generated_Source\PSoC5/Ignition_1.c ****     * Function Name: Ignition_1_WriteCompare
 496:Generated_Source\PSoC5/Ignition_1.c ****     ********************************************************************************
 497:Generated_Source\PSoC5/Ignition_1.c ****     *
 498:Generated_Source\PSoC5/Ignition_1.c ****     * Summary:
 499:Generated_Source\PSoC5/Ignition_1.c ****     *  This funtion is used to change the compare1 value when the PWM is in Dither
 500:Generated_Source\PSoC5/Ignition_1.c ****     *  mode. The compare output will reflect the new value on the next UDB clock.
 501:Generated_Source\PSoC5/Ignition_1.c ****     *  The compare output will be driven high when the present counter value is
 502:Generated_Source\PSoC5/Ignition_1.c ****     *  compared to the compare value based on the compare mode defined in
 503:Generated_Source\PSoC5/Ignition_1.c ****     *  Dither Mode.
 504:Generated_Source\PSoC5/Ignition_1.c ****     *
 505:Generated_Source\PSoC5/Ignition_1.c ****     * Parameters:
 506:Generated_Source\PSoC5/Ignition_1.c ****     *  compare:  New compare value.
 507:Generated_Source\PSoC5/Ignition_1.c ****     *
 508:Generated_Source\PSoC5/Ignition_1.c ****     * Return:
 509:Generated_Source\PSoC5/Ignition_1.c ****     *  None
 510:Generated_Source\PSoC5/Ignition_1.c ****     *
 511:Generated_Source\PSoC5/Ignition_1.c ****     * Side Effects:
 512:Generated_Source\PSoC5/Ignition_1.c ****     *  This function is only available if the PWM mode parameter is set to
 513:Generated_Source\PSoC5/Ignition_1.c ****     *  Dither Mode, Center Aligned Mode or One Output Mode
 514:Generated_Source\PSoC5/Ignition_1.c ****     *
 515:Generated_Source\PSoC5/Ignition_1.c ****     *******************************************************************************/
 516:Generated_Source\PSoC5/Ignition_1.c ****     void Ignition_1_WriteCompare(uint16 compare) \
 517:Generated_Source\PSoC5/Ignition_1.c ****                                        
 518:Generated_Source\PSoC5/Ignition_1.c ****     {
 519:Generated_Source\PSoC5/Ignition_1.c ****         #if(Ignition_1_UsingFixedFunction)
 520:Generated_Source\PSoC5/Ignition_1.c ****             CY_SET_REG16(Ignition_1_COMPARE1_LSB_PTR, (uint16)compare);
 521:Generated_Source\PSoC5/Ignition_1.c ****         #else
 522:Generated_Source\PSoC5/Ignition_1.c ****             CY_SET_REG16(Ignition_1_COMPARE1_LSB_PTR, compare);
 672              		.loc 1 522 0
 673 0040 4FF4FA47 		mov	r7, #32000
 674              	.LBE53:
 675              	.LBE52:
 130:Generated_Source\PSoC5/Ignition_1.c ****         #endif /* (Ignition_1_Resolution == 8) */
 676              		.loc 1 130 0
ARM GAS  C:\Users\Bruger\AppData\Local\Temp\cc5pu3XD.s 			page 56


 677 0044 2A70     		strb	r2, [r5]
 678              	.LVL2:
 679              	.LBB55:
 680              	.LBB47:
 406:Generated_Source\PSoC5/Ignition_1.c ****     }
 681              		.loc 1 406 0
 682 0046 ACF80010 		strh	r1, [ip]	@ movhi
 683              	.LVL3:
 684              	.LBE47:
 685              	.LBE55:
 686              	.LBB56:
 687              	.LBB51:
 487:Generated_Source\PSoC5/Ignition_1.c ****     #endif /* (Ignition_1_UsingFixedFunction) */
 688              		.loc 1 487 0
 689 004a AEF80010 		strh	r1, [lr]	@ movhi
 690              	.LVL4:
 691              	.LBE51:
 692              	.LBE56:
 693              	.LBB57:
 694              	.LBB54:
 695              		.loc 1 522 0
 696 004e A6F8D773 		strh	r7, [r6, #983]	@ movhi
 697              	.LVL5:
 698              	.LBE54:
 699              	.LBE57:
 700              	.LBB58:
 701              	.LBB59:
 523:Generated_Source\PSoC5/Ignition_1.c ****         #endif /* (Ignition_1_UsingFixedFunction) */
 524:Generated_Source\PSoC5/Ignition_1.c **** 
 525:Generated_Source\PSoC5/Ignition_1.c ****         #if (Ignition_1_PWMMode == Ignition_1__B_PWM__DITHER)
 526:Generated_Source\PSoC5/Ignition_1.c ****             #if(Ignition_1_UsingFixedFunction)
 527:Generated_Source\PSoC5/Ignition_1.c ****                 CY_SET_REG16(Ignition_1_COMPARE2_LSB_PTR, (uint16)(compare + 1u));
 528:Generated_Source\PSoC5/Ignition_1.c ****             #else
 529:Generated_Source\PSoC5/Ignition_1.c ****                 CY_SET_REG16(Ignition_1_COMPARE2_LSB_PTR, (compare + 1u));
 530:Generated_Source\PSoC5/Ignition_1.c ****             #endif /* (Ignition_1_UsingFixedFunction) */
 531:Generated_Source\PSoC5/Ignition_1.c ****         #endif /* (Ignition_1_PWMMode == Ignition_1__B_PWM__DITHER) */
 532:Generated_Source\PSoC5/Ignition_1.c ****     }
 533:Generated_Source\PSoC5/Ignition_1.c **** 
 534:Generated_Source\PSoC5/Ignition_1.c **** 
 535:Generated_Source\PSoC5/Ignition_1.c **** #else
 536:Generated_Source\PSoC5/Ignition_1.c **** 
 537:Generated_Source\PSoC5/Ignition_1.c **** 
 538:Generated_Source\PSoC5/Ignition_1.c ****     /*******************************************************************************
 539:Generated_Source\PSoC5/Ignition_1.c ****     * Function Name: Ignition_1_WriteCompare1
 540:Generated_Source\PSoC5/Ignition_1.c ****     ********************************************************************************
 541:Generated_Source\PSoC5/Ignition_1.c ****     *
 542:Generated_Source\PSoC5/Ignition_1.c ****     * Summary:
 543:Generated_Source\PSoC5/Ignition_1.c ****     *  This funtion is used to change the compare1 value.  The compare output will
 544:Generated_Source\PSoC5/Ignition_1.c ****     *  reflect the new value on the next UDB clock.  The compare output will be
 545:Generated_Source\PSoC5/Ignition_1.c ****     *  driven high when the present counter value is less than or less than or
 546:Generated_Source\PSoC5/Ignition_1.c ****     *  equal to the compare register, depending on the mode.
 547:Generated_Source\PSoC5/Ignition_1.c ****     *
 548:Generated_Source\PSoC5/Ignition_1.c ****     * Parameters:
 549:Generated_Source\PSoC5/Ignition_1.c ****     *  compare:  New compare value.
 550:Generated_Source\PSoC5/Ignition_1.c ****     *
 551:Generated_Source\PSoC5/Ignition_1.c ****     * Return:
 552:Generated_Source\PSoC5/Ignition_1.c ****     *  None
ARM GAS  C:\Users\Bruger\AppData\Local\Temp\cc5pu3XD.s 			page 57


 553:Generated_Source\PSoC5/Ignition_1.c ****     *
 554:Generated_Source\PSoC5/Ignition_1.c ****     *******************************************************************************/
 555:Generated_Source\PSoC5/Ignition_1.c ****     void Ignition_1_WriteCompare1(uint16 compare) \
 556:Generated_Source\PSoC5/Ignition_1.c ****                                         
 557:Generated_Source\PSoC5/Ignition_1.c ****     {
 558:Generated_Source\PSoC5/Ignition_1.c ****         #if(Ignition_1_UsingFixedFunction)
 559:Generated_Source\PSoC5/Ignition_1.c ****             CY_SET_REG16(Ignition_1_COMPARE1_LSB_PTR, (uint16)compare);
 560:Generated_Source\PSoC5/Ignition_1.c ****         #else
 561:Generated_Source\PSoC5/Ignition_1.c ****             CY_SET_REG16(Ignition_1_COMPARE1_LSB_PTR, compare);
 562:Generated_Source\PSoC5/Ignition_1.c ****         #endif /* (Ignition_1_UsingFixedFunction) */
 563:Generated_Source\PSoC5/Ignition_1.c ****     }
 564:Generated_Source\PSoC5/Ignition_1.c **** 
 565:Generated_Source\PSoC5/Ignition_1.c **** 
 566:Generated_Source\PSoC5/Ignition_1.c ****     /*******************************************************************************
 567:Generated_Source\PSoC5/Ignition_1.c ****     * Function Name: Ignition_1_WriteCompare2
 568:Generated_Source\PSoC5/Ignition_1.c ****     ********************************************************************************
 569:Generated_Source\PSoC5/Ignition_1.c ****     *
 570:Generated_Source\PSoC5/Ignition_1.c ****     * Summary:
 571:Generated_Source\PSoC5/Ignition_1.c ****     *  This funtion is used to change the compare value, for compare1 output.
 572:Generated_Source\PSoC5/Ignition_1.c ****     *  The compare output will reflect the new value on the next UDB clock.
 573:Generated_Source\PSoC5/Ignition_1.c ****     *  The compare output will be driven high when the present counter value is
 574:Generated_Source\PSoC5/Ignition_1.c ****     *  less than or less than or equal to the compare register, depending on the
 575:Generated_Source\PSoC5/Ignition_1.c ****     *  mode.
 576:Generated_Source\PSoC5/Ignition_1.c ****     *
 577:Generated_Source\PSoC5/Ignition_1.c ****     * Parameters:
 578:Generated_Source\PSoC5/Ignition_1.c ****     *  compare:  New compare value.
 579:Generated_Source\PSoC5/Ignition_1.c ****     *
 580:Generated_Source\PSoC5/Ignition_1.c ****     * Return:
 581:Generated_Source\PSoC5/Ignition_1.c ****     *  None
 582:Generated_Source\PSoC5/Ignition_1.c ****     *
 583:Generated_Source\PSoC5/Ignition_1.c ****     *******************************************************************************/
 584:Generated_Source\PSoC5/Ignition_1.c ****     void Ignition_1_WriteCompare2(uint16 compare) \
 585:Generated_Source\PSoC5/Ignition_1.c ****                                         
 586:Generated_Source\PSoC5/Ignition_1.c ****     {
 587:Generated_Source\PSoC5/Ignition_1.c ****         #if(Ignition_1_UsingFixedFunction)
 588:Generated_Source\PSoC5/Ignition_1.c ****             CY_SET_REG16(Ignition_1_COMPARE2_LSB_PTR, compare);
 589:Generated_Source\PSoC5/Ignition_1.c ****         #else
 590:Generated_Source\PSoC5/Ignition_1.c ****             CY_SET_REG16(Ignition_1_COMPARE2_LSB_PTR, compare);
 591:Generated_Source\PSoC5/Ignition_1.c ****         #endif /* (Ignition_1_UsingFixedFunction) */
 592:Generated_Source\PSoC5/Ignition_1.c ****     }
 593:Generated_Source\PSoC5/Ignition_1.c **** #endif /* UseOneCompareMode */
 594:Generated_Source\PSoC5/Ignition_1.c **** 
 595:Generated_Source\PSoC5/Ignition_1.c **** #if (Ignition_1_DeadBandUsed)
 596:Generated_Source\PSoC5/Ignition_1.c **** 
 597:Generated_Source\PSoC5/Ignition_1.c **** 
 598:Generated_Source\PSoC5/Ignition_1.c ****     /*******************************************************************************
 599:Generated_Source\PSoC5/Ignition_1.c ****     * Function Name: Ignition_1_WriteDeadTime
 600:Generated_Source\PSoC5/Ignition_1.c ****     ********************************************************************************
 601:Generated_Source\PSoC5/Ignition_1.c ****     *
 602:Generated_Source\PSoC5/Ignition_1.c ****     * Summary:
 603:Generated_Source\PSoC5/Ignition_1.c ****     *  This function writes the dead-band counts to the corresponding register
 604:Generated_Source\PSoC5/Ignition_1.c ****     *
 605:Generated_Source\PSoC5/Ignition_1.c ****     * Parameters:
 606:Generated_Source\PSoC5/Ignition_1.c ****     *  deadtime:  Number of counts for dead time
 607:Generated_Source\PSoC5/Ignition_1.c ****     *
 608:Generated_Source\PSoC5/Ignition_1.c ****     * Return:
 609:Generated_Source\PSoC5/Ignition_1.c ****     *  None
ARM GAS  C:\Users\Bruger\AppData\Local\Temp\cc5pu3XD.s 			page 58


 610:Generated_Source\PSoC5/Ignition_1.c ****     *
 611:Generated_Source\PSoC5/Ignition_1.c ****     *******************************************************************************/
 612:Generated_Source\PSoC5/Ignition_1.c ****     void Ignition_1_WriteDeadTime(uint8 deadtime) 
 613:Generated_Source\PSoC5/Ignition_1.c ****     {
 614:Generated_Source\PSoC5/Ignition_1.c ****         /* If using the Dead Band 1-255 mode then just write the register */
 615:Generated_Source\PSoC5/Ignition_1.c ****         #if(!Ignition_1_DeadBand2_4)
 616:Generated_Source\PSoC5/Ignition_1.c ****             CY_SET_REG8(Ignition_1_DEADBAND_COUNT_PTR, deadtime);
 617:Generated_Source\PSoC5/Ignition_1.c ****         #else
 618:Generated_Source\PSoC5/Ignition_1.c ****             /* Otherwise the data has to be masked and offset */
 619:Generated_Source\PSoC5/Ignition_1.c ****             /* Clear existing data */
 620:Generated_Source\PSoC5/Ignition_1.c ****             Ignition_1_DEADBAND_COUNT &= ((uint8)(~Ignition_1_DEADBAND_COUNT_MASK));
 621:Generated_Source\PSoC5/Ignition_1.c **** 
 622:Generated_Source\PSoC5/Ignition_1.c ****             /* Set new dead time */
 623:Generated_Source\PSoC5/Ignition_1.c ****             #if(Ignition_1_DEADBAND_COUNT_SHIFT)
 624:Generated_Source\PSoC5/Ignition_1.c ****                 Ignition_1_DEADBAND_COUNT |= ((uint8)((uint8)deadtime << Ignition_1_DEADBAND_COUNT_
 625:Generated_Source\PSoC5/Ignition_1.c ****                                                     Ignition_1_DEADBAND_COUNT_MASK;
 626:Generated_Source\PSoC5/Ignition_1.c ****             #else
 627:Generated_Source\PSoC5/Ignition_1.c ****                 Ignition_1_DEADBAND_COUNT |= deadtime & Ignition_1_DEADBAND_COUNT_MASK;
 628:Generated_Source\PSoC5/Ignition_1.c ****             #endif /* (Ignition_1_DEADBAND_COUNT_SHIFT) */
 629:Generated_Source\PSoC5/Ignition_1.c **** 
 630:Generated_Source\PSoC5/Ignition_1.c ****         #endif /* (!Ignition_1_DeadBand2_4) */
 631:Generated_Source\PSoC5/Ignition_1.c ****     }
 632:Generated_Source\PSoC5/Ignition_1.c **** 
 633:Generated_Source\PSoC5/Ignition_1.c **** 
 634:Generated_Source\PSoC5/Ignition_1.c ****     /*******************************************************************************
 635:Generated_Source\PSoC5/Ignition_1.c ****     * Function Name: Ignition_1_ReadDeadTime
 636:Generated_Source\PSoC5/Ignition_1.c ****     ********************************************************************************
 637:Generated_Source\PSoC5/Ignition_1.c ****     *
 638:Generated_Source\PSoC5/Ignition_1.c ****     * Summary:
 639:Generated_Source\PSoC5/Ignition_1.c ****     *  This function reads the dead-band counts from the corresponding register
 640:Generated_Source\PSoC5/Ignition_1.c ****     *
 641:Generated_Source\PSoC5/Ignition_1.c ****     * Parameters:
 642:Generated_Source\PSoC5/Ignition_1.c ****     *  None
 643:Generated_Source\PSoC5/Ignition_1.c ****     *
 644:Generated_Source\PSoC5/Ignition_1.c ****     * Return:
 645:Generated_Source\PSoC5/Ignition_1.c ****     *  Dead Band Counts
 646:Generated_Source\PSoC5/Ignition_1.c ****     *
 647:Generated_Source\PSoC5/Ignition_1.c ****     *******************************************************************************/
 648:Generated_Source\PSoC5/Ignition_1.c ****     uint8 Ignition_1_ReadDeadTime(void) 
 649:Generated_Source\PSoC5/Ignition_1.c ****     {
 650:Generated_Source\PSoC5/Ignition_1.c ****         /* If using the Dead Band 1-255 mode then just read the register */
 651:Generated_Source\PSoC5/Ignition_1.c ****         #if(!Ignition_1_DeadBand2_4)
 652:Generated_Source\PSoC5/Ignition_1.c ****             return (CY_GET_REG8(Ignition_1_DEADBAND_COUNT_PTR));
 653:Generated_Source\PSoC5/Ignition_1.c ****         #else
 654:Generated_Source\PSoC5/Ignition_1.c **** 
 655:Generated_Source\PSoC5/Ignition_1.c ****             /* Otherwise the data has to be masked and offset */
 656:Generated_Source\PSoC5/Ignition_1.c ****             #if(Ignition_1_DEADBAND_COUNT_SHIFT)
 657:Generated_Source\PSoC5/Ignition_1.c ****                 return ((uint8)(((uint8)(Ignition_1_DEADBAND_COUNT & Ignition_1_DEADBAND_COUNT_MASK
 658:Generated_Source\PSoC5/Ignition_1.c ****                                                                            Ignition_1_DEADBAND_COUN
 659:Generated_Source\PSoC5/Ignition_1.c ****             #else
 660:Generated_Source\PSoC5/Ignition_1.c ****                 return (Ignition_1_DEADBAND_COUNT & Ignition_1_DEADBAND_COUNT_MASK);
 661:Generated_Source\PSoC5/Ignition_1.c ****             #endif /* (Ignition_1_DEADBAND_COUNT_SHIFT) */
 662:Generated_Source\PSoC5/Ignition_1.c ****         #endif /* (!Ignition_1_DeadBand2_4) */
 663:Generated_Source\PSoC5/Ignition_1.c ****     }
 664:Generated_Source\PSoC5/Ignition_1.c **** #endif /* DeadBandUsed */
 665:Generated_Source\PSoC5/Ignition_1.c **** 
 666:Generated_Source\PSoC5/Ignition_1.c **** #if (Ignition_1_UseStatus || Ignition_1_UsingFixedFunction)
ARM GAS  C:\Users\Bruger\AppData\Local\Temp\cc5pu3XD.s 			page 59


 667:Generated_Source\PSoC5/Ignition_1.c **** 
 668:Generated_Source\PSoC5/Ignition_1.c **** 
 669:Generated_Source\PSoC5/Ignition_1.c ****     /*******************************************************************************
 670:Generated_Source\PSoC5/Ignition_1.c ****     * Function Name: Ignition_1_SetInterruptMode
 671:Generated_Source\PSoC5/Ignition_1.c ****     ********************************************************************************
 672:Generated_Source\PSoC5/Ignition_1.c ****     *
 673:Generated_Source\PSoC5/Ignition_1.c ****     * Summary:
 674:Generated_Source\PSoC5/Ignition_1.c ****     *  This function configures the interrupts mask control of theinterrupt
 675:Generated_Source\PSoC5/Ignition_1.c ****     *  source status register.
 676:Generated_Source\PSoC5/Ignition_1.c ****     *
 677:Generated_Source\PSoC5/Ignition_1.c ****     * Parameters:
 678:Generated_Source\PSoC5/Ignition_1.c ****     *  uint8 interruptMode: Bit field containing the interrupt sources enabled
 679:Generated_Source\PSoC5/Ignition_1.c ****     *
 680:Generated_Source\PSoC5/Ignition_1.c ****     * Return:
 681:Generated_Source\PSoC5/Ignition_1.c ****     *  None
 682:Generated_Source\PSoC5/Ignition_1.c ****     *
 683:Generated_Source\PSoC5/Ignition_1.c ****     *******************************************************************************/
 684:Generated_Source\PSoC5/Ignition_1.c ****     void Ignition_1_SetInterruptMode(uint8 interruptMode) 
 685:Generated_Source\PSoC5/Ignition_1.c ****     {
 686:Generated_Source\PSoC5/Ignition_1.c ****         CY_SET_REG8(Ignition_1_STATUS_MASK_PTR, interruptMode);
 702              		.loc 1 686 0
 703 0052 00F80F3C 		strb	r3, [r0, #-15]
 704              	.LBE59:
 705              	.LBE58:
 167:Generated_Source\PSoC5/Ignition_1.c ****             /* Use the interrupt output of the status register for IRQ output */
 706              		.loc 1 167 0
 707 0056 FFF7FEFF 		bl	CyEnterCriticalSection
 708              	.LVL6:
 169:Generated_Source\PSoC5/Ignition_1.c **** 
 709              		.loc 1 169 0
 710 005a 2B78     		ldrb	r3, [r5]	@ zero_extendqisi2
 711 005c 43F01003 		orr	r3, r3, #16
 712 0060 2B70     		strb	r3, [r5]
 172:Generated_Source\PSoC5/Ignition_1.c **** 
 713              		.loc 1 172 0
 714 0062 FFF7FEFF 		bl	CyExitCriticalSection
 715              	.LVL7:
 716              	.LBB60:
 717              	.LBB61:
 718              	.LBB62:
 719              	.LBB63:
 687:Generated_Source\PSoC5/Ignition_1.c ****     }
 688:Generated_Source\PSoC5/Ignition_1.c **** 
 689:Generated_Source\PSoC5/Ignition_1.c **** 
 690:Generated_Source\PSoC5/Ignition_1.c ****     /*******************************************************************************
 691:Generated_Source\PSoC5/Ignition_1.c ****     * Function Name: Ignition_1_ReadStatusRegister
 692:Generated_Source\PSoC5/Ignition_1.c ****     ********************************************************************************
 693:Generated_Source\PSoC5/Ignition_1.c ****     *
 694:Generated_Source\PSoC5/Ignition_1.c ****     * Summary:
 695:Generated_Source\PSoC5/Ignition_1.c ****     *  This function returns the current state of the status register.
 696:Generated_Source\PSoC5/Ignition_1.c ****     *
 697:Generated_Source\PSoC5/Ignition_1.c ****     * Parameters:
 698:Generated_Source\PSoC5/Ignition_1.c ****     *  None
 699:Generated_Source\PSoC5/Ignition_1.c ****     *
 700:Generated_Source\PSoC5/Ignition_1.c ****     * Return:
 701:Generated_Source\PSoC5/Ignition_1.c ****     *  uint8 : Current status register value. The status register bits are:
 702:Generated_Source\PSoC5/Ignition_1.c ****     *  [7:6] : Unused(0)
ARM GAS  C:\Users\Bruger\AppData\Local\Temp\cc5pu3XD.s 			page 60


 703:Generated_Source\PSoC5/Ignition_1.c ****     *  [5]   : Kill event output
 704:Generated_Source\PSoC5/Ignition_1.c ****     *  [4]   : FIFO not empty
 705:Generated_Source\PSoC5/Ignition_1.c ****     *  [3]   : FIFO full
 706:Generated_Source\PSoC5/Ignition_1.c ****     *  [2]   : Terminal count
 707:Generated_Source\PSoC5/Ignition_1.c ****     *  [1]   : Compare output 2
 708:Generated_Source\PSoC5/Ignition_1.c ****     *  [0]   : Compare output 1
 709:Generated_Source\PSoC5/Ignition_1.c ****     *
 710:Generated_Source\PSoC5/Ignition_1.c ****     *******************************************************************************/
 711:Generated_Source\PSoC5/Ignition_1.c ****     uint8 Ignition_1_ReadStatusRegister(void) 
 712:Generated_Source\PSoC5/Ignition_1.c ****     {
 713:Generated_Source\PSoC5/Ignition_1.c ****         return (CY_GET_REG8(Ignition_1_STATUS_PTR));
 720              		.loc 1 713 0
 721 0066 0A4A     		ldr	r2, .L13+16
 722 0068 1378     		ldrb	r3, [r2]	@ zero_extendqisi2
 723              	.LBE63:
 724              	.LBE62:
 455:Generated_Source\PSoC5/Ignition_1.c ****             {
 725              		.loc 1 455 0
 726 006a D906     		lsls	r1, r3, #27
 727 006c 04D5     		bpl	.L3
 728              	.LBB65:
 729              	.LBB66:
 714:Generated_Source\PSoC5/Ignition_1.c ****     }
 715:Generated_Source\PSoC5/Ignition_1.c **** 
 716:Generated_Source\PSoC5/Ignition_1.c **** #endif /* (Ignition_1_UseStatus || Ignition_1_UsingFixedFunction) */
 717:Generated_Source\PSoC5/Ignition_1.c **** 
 718:Generated_Source\PSoC5/Ignition_1.c **** 
 719:Generated_Source\PSoC5/Ignition_1.c **** #if (Ignition_1_UseControl)
 720:Generated_Source\PSoC5/Ignition_1.c **** 
 721:Generated_Source\PSoC5/Ignition_1.c **** 
 722:Generated_Source\PSoC5/Ignition_1.c ****     /*******************************************************************************
 723:Generated_Source\PSoC5/Ignition_1.c ****     * Function Name: Ignition_1_ReadControlRegister
 724:Generated_Source\PSoC5/Ignition_1.c ****     ********************************************************************************
 725:Generated_Source\PSoC5/Ignition_1.c ****     *
 726:Generated_Source\PSoC5/Ignition_1.c ****     * Summary:
 727:Generated_Source\PSoC5/Ignition_1.c ****     *  Returns the current state of the control register. This API is available
 728:Generated_Source\PSoC5/Ignition_1.c ****     *  only if the control register is not removed.
 729:Generated_Source\PSoC5/Ignition_1.c ****     *
 730:Generated_Source\PSoC5/Ignition_1.c ****     * Parameters:
 731:Generated_Source\PSoC5/Ignition_1.c ****     *  None
 732:Generated_Source\PSoC5/Ignition_1.c ****     *
 733:Generated_Source\PSoC5/Ignition_1.c ****     * Return:
 734:Generated_Source\PSoC5/Ignition_1.c ****     *  uint8 : Current control register value
 735:Generated_Source\PSoC5/Ignition_1.c ****     *
 736:Generated_Source\PSoC5/Ignition_1.c ****     *******************************************************************************/
 737:Generated_Source\PSoC5/Ignition_1.c ****     uint8 Ignition_1_ReadControlRegister(void) 
 738:Generated_Source\PSoC5/Ignition_1.c ****     {
 739:Generated_Source\PSoC5/Ignition_1.c ****         uint8 result;
 740:Generated_Source\PSoC5/Ignition_1.c **** 
 741:Generated_Source\PSoC5/Ignition_1.c ****         result = CY_GET_REG8(Ignition_1_CONTROL_PTR);
 742:Generated_Source\PSoC5/Ignition_1.c ****         return (result);
 743:Generated_Source\PSoC5/Ignition_1.c ****     }
 744:Generated_Source\PSoC5/Ignition_1.c **** 
 745:Generated_Source\PSoC5/Ignition_1.c **** 
 746:Generated_Source\PSoC5/Ignition_1.c ****     /*******************************************************************************
 747:Generated_Source\PSoC5/Ignition_1.c ****     * Function Name: Ignition_1_WriteControlRegister
 748:Generated_Source\PSoC5/Ignition_1.c ****     ********************************************************************************
ARM GAS  C:\Users\Bruger\AppData\Local\Temp\cc5pu3XD.s 			page 61


 749:Generated_Source\PSoC5/Ignition_1.c ****     *
 750:Generated_Source\PSoC5/Ignition_1.c ****     * Summary:
 751:Generated_Source\PSoC5/Ignition_1.c ****     *  Sets the bit field of the control register. This API is available only if
 752:Generated_Source\PSoC5/Ignition_1.c ****     *  the control register is not removed.
 753:Generated_Source\PSoC5/Ignition_1.c ****     *
 754:Generated_Source\PSoC5/Ignition_1.c ****     * Parameters:
 755:Generated_Source\PSoC5/Ignition_1.c ****     *  uint8 control: Control register bit field, The status register bits are:
 756:Generated_Source\PSoC5/Ignition_1.c ****     *  [7]   : PWM Enable
 757:Generated_Source\PSoC5/Ignition_1.c ****     *  [6]   : Reset
 758:Generated_Source\PSoC5/Ignition_1.c ****     *  [5:3] : Compare Mode2
 759:Generated_Source\PSoC5/Ignition_1.c ****     *  [2:0] : Compare Mode2
 760:Generated_Source\PSoC5/Ignition_1.c ****     *
 761:Generated_Source\PSoC5/Ignition_1.c ****     * Return:
 762:Generated_Source\PSoC5/Ignition_1.c ****     *  None
 763:Generated_Source\PSoC5/Ignition_1.c ****     *
 764:Generated_Source\PSoC5/Ignition_1.c ****     *******************************************************************************/
 765:Generated_Source\PSoC5/Ignition_1.c ****     void Ignition_1_WriteControlRegister(uint8 control) 
 766:Generated_Source\PSoC5/Ignition_1.c ****     {
 767:Generated_Source\PSoC5/Ignition_1.c ****         CY_SET_REG8(Ignition_1_CONTROL_PTR, control);
 768:Generated_Source\PSoC5/Ignition_1.c ****     }
 769:Generated_Source\PSoC5/Ignition_1.c **** 
 770:Generated_Source\PSoC5/Ignition_1.c **** #endif /* (Ignition_1_UseControl) */
 771:Generated_Source\PSoC5/Ignition_1.c **** 
 772:Generated_Source\PSoC5/Ignition_1.c **** 
 773:Generated_Source\PSoC5/Ignition_1.c **** #if (!Ignition_1_UsingFixedFunction)
 774:Generated_Source\PSoC5/Ignition_1.c **** 
 775:Generated_Source\PSoC5/Ignition_1.c **** 
 776:Generated_Source\PSoC5/Ignition_1.c ****     /*******************************************************************************
 777:Generated_Source\PSoC5/Ignition_1.c ****     * Function Name: Ignition_1_ReadCapture
 778:Generated_Source\PSoC5/Ignition_1.c ****     ********************************************************************************
 779:Generated_Source\PSoC5/Ignition_1.c ****     *
 780:Generated_Source\PSoC5/Ignition_1.c ****     * Summary:
 781:Generated_Source\PSoC5/Ignition_1.c ****     *  Reads the capture value from the capture FIFO.
 782:Generated_Source\PSoC5/Ignition_1.c ****     *
 783:Generated_Source\PSoC5/Ignition_1.c ****     * Parameters:
 784:Generated_Source\PSoC5/Ignition_1.c ****     *  None
 785:Generated_Source\PSoC5/Ignition_1.c ****     *
 786:Generated_Source\PSoC5/Ignition_1.c ****     * Return:
 787:Generated_Source\PSoC5/Ignition_1.c ****     *  uint8/uint16: The current capture value
 788:Generated_Source\PSoC5/Ignition_1.c ****     *
 789:Generated_Source\PSoC5/Ignition_1.c ****     *******************************************************************************/
 790:Generated_Source\PSoC5/Ignition_1.c ****     uint16 Ignition_1_ReadCapture(void) 
 791:Generated_Source\PSoC5/Ignition_1.c ****     {
 792:Generated_Source\PSoC5/Ignition_1.c ****         return (CY_GET_REG16(Ignition_1_CAPTURE_LSB_PTR));
 730              		.loc 1 792 0
 731 006e 0949     		ldr	r1, .L13+20
 732              	.L7:
 733 0070 0B88     		ldrh	r3, [r1]
 734              	.LBE66:
 735              	.LBE65:
 736              	.LBB67:
 737              	.LBB64:
 713:Generated_Source\PSoC5/Ignition_1.c ****     }
 738              		.loc 1 713 0
 739 0072 1378     		ldrb	r3, [r2]	@ zero_extendqisi2
 740              	.LBE64:
 741              	.LBE67:
ARM GAS  C:\Users\Bruger\AppData\Local\Temp\cc5pu3XD.s 			page 62


 455:Generated_Source\PSoC5/Ignition_1.c ****             {
 742              		.loc 1 455 0
 743 0074 DB06     		lsls	r3, r3, #27
 744 0076 FBD4     		bmi	.L7
 745              	.L3:
 746              	.LBE61:
 747              	.LBE60:
 748              	.LBE43:
 749              	.LBE42:
  61:Generated_Source\PSoC5/Ignition_1.c ****     }
 750              		.loc 1 61 0
 751 0078 0123     		movs	r3, #1
 752 007a 2370     		strb	r3, [r4]
 753 007c C4E7     		b	.L2
 754              	.L14:
 755 007e 00BF     		.align	2
 756              	.L13:
 757 0080 00000000 		.word	.LANCHOR0
 758 0084 79640040 		.word	1073767545
 759 0088 98640040 		.word	1073767576
 760 008c 99640040 		.word	1073767577
 761 0090 69640040 		.word	1073767529
 762 0094 B0680040 		.word	1073768624
 763 0098 10680040 		.word	1073768464
 764 009c 90680040 		.word	1073768592
 765              		.cfi_endproc
 766              	.LFE0:
 767              		.size	Ignition_1_Start, .-Ignition_1_Start
 768              		.section	.text.Ignition_1_Init,"ax",%progbits
 769              		.align	2
 770              		.global	Ignition_1_Init
 771              		.thumb
 772              		.thumb_func
 773              		.type	Ignition_1_Init, %function
 774              	Ignition_1_Init:
 775              	.LFB1:
  85:Generated_Source\PSoC5/Ignition_1.c ****     #if (Ignition_1_UsingFixedFunction || Ignition_1_UseControl)
 776              		.loc 1 85 0
 777              		.cfi_startproc
 778              		@ args = 0, pretend = 0, frame = 0
 779              		@ frame_needed = 0, uses_anonymous_args = 0
 780              	.LBB68:
 781              	.LBB69:
 406:Generated_Source\PSoC5/Ignition_1.c ****     }
 782              		.loc 1 406 0
 783 0000 4AF6C872 		movw	r2, #45000
 784              	.LBE69:
 785              	.LBE68:
  85:Generated_Source\PSoC5/Ignition_1.c ****     #if (Ignition_1_UsingFixedFunction || Ignition_1_UseControl)
 786              		.loc 1 85 0
 787 0004 F8B5     		push	{r3, r4, r5, r6, r7, lr}
 788              		.cfi_def_cfa_offset 24
 789              		.cfi_offset 3, -24
 790              		.cfi_offset 4, -20
 791              		.cfi_offset 5, -16
 792              		.cfi_offset 6, -12
 793              		.cfi_offset 7, -8
ARM GAS  C:\Users\Bruger\AppData\Local\Temp\cc5pu3XD.s 			page 63


 794              		.cfi_offset 14, -4
 117:Generated_Source\PSoC5/Ignition_1.c ****                 ((uint8)(~Ignition_1_CTRL_CMPMODE1_MASK));
 795              		.loc 1 117 0
 796 0006 1848     		ldr	r0, .L24
 129:Generated_Source\PSoC5/Ignition_1.c ****             Ignition_1_AUX_CONTROLDP1 |= (Ignition_1_AUX_CTRL_FIFO0_CLR);
 797              		.loc 1 129 0
 798 0008 1849     		ldr	r1, .L24+4
 117:Generated_Source\PSoC5/Ignition_1.c ****                 ((uint8)(~Ignition_1_CTRL_CMPMODE1_MASK));
 799              		.loc 1 117 0
 800 000a 0378     		ldrb	r3, [r0]	@ zero_extendqisi2
 801              	.LVL8:
 130:Generated_Source\PSoC5/Ignition_1.c ****         #endif /* (Ignition_1_Resolution == 8) */
 802              		.loc 1 130 0
 803 000c 184C     		ldr	r4, .L24+8
 117:Generated_Source\PSoC5/Ignition_1.c ****                 ((uint8)(~Ignition_1_CTRL_CMPMODE1_MASK));
 804              		.loc 1 117 0
 805 000e 03F0C003 		and	r3, r3, #192
 806              	.LVL9:
 119:Generated_Source\PSoC5/Ignition_1.c ****                                    Ignition_1_DEFAULT_COMPARE1_MODE;
 807              		.loc 1 119 0
 808 0012 43F00903 		orr	r3, r3, #9
 809 0016 0370     		strb	r3, [r0]
 129:Generated_Source\PSoC5/Ignition_1.c ****             Ignition_1_AUX_CONTROLDP1 |= (Ignition_1_AUX_CTRL_FIFO0_CLR);
 810              		.loc 1 129 0
 811 0018 0B78     		ldrb	r3, [r1]	@ zero_extendqisi2
 812              	.LBB72:
 813              	.LBB70:
 406:Generated_Source\PSoC5/Ignition_1.c ****     }
 814              		.loc 1 406 0
 815 001a DFF868E0 		ldr	lr, .L24+28
 816              	.LBE70:
 817              	.LBE72:
 129:Generated_Source\PSoC5/Ignition_1.c ****             Ignition_1_AUX_CONTROLDP1 |= (Ignition_1_AUX_CTRL_FIFO0_CLR);
 818              		.loc 1 129 0
 819 001e 43F00103 		orr	r3, r3, #1
 820 0022 0B70     		strb	r3, [r1]
 130:Generated_Source\PSoC5/Ignition_1.c ****         #endif /* (Ignition_1_Resolution == 8) */
 821              		.loc 1 130 0
 822 0024 2378     		ldrb	r3, [r4]	@ zero_extendqisi2
 823              	.LBB73:
 824              	.LBB74:
 487:Generated_Source\PSoC5/Ignition_1.c ****     #endif /* (Ignition_1_UsingFixedFunction) */
 825              		.loc 1 487 0
 826 0026 134F     		ldr	r7, .L24+12
 827              	.LBE74:
 828              	.LBE73:
 829              	.LBB76:
 830              	.LBB77:
 522:Generated_Source\PSoC5/Ignition_1.c ****         #endif /* (Ignition_1_UsingFixedFunction) */
 831              		.loc 1 522 0
 832 0028 134D     		ldr	r5, .L24+16
 833              	.LBE77:
 834              	.LBE76:
 130:Generated_Source\PSoC5/Ignition_1.c ****         #endif /* (Ignition_1_Resolution == 8) */
 835              		.loc 1 130 0
 836 002a 43F00103 		orr	r3, r3, #1
 837              	.LBB80:
ARM GAS  C:\Users\Bruger\AppData\Local\Temp\cc5pu3XD.s 			page 64


 838              	.LBB81:
 686:Generated_Source\PSoC5/Ignition_1.c ****     }
 839              		.loc 1 686 0
 840 002e 0020     		movs	r0, #0
 841              	.LBE81:
 842              	.LBE80:
 843              	.LBB83:
 844              	.LBB78:
 522:Generated_Source\PSoC5/Ignition_1.c ****         #endif /* (Ignition_1_UsingFixedFunction) */
 845              		.loc 1 522 0
 846 0030 4FF4FA46 		mov	r6, #32000
 847              	.LBE78:
 848              	.LBE83:
 130:Generated_Source\PSoC5/Ignition_1.c ****         #endif /* (Ignition_1_Resolution == 8) */
 849              		.loc 1 130 0
 850 0034 2370     		strb	r3, [r4]
 851              	.LVL10:
 852              	.LBB84:
 853              	.LBB71:
 406:Generated_Source\PSoC5/Ignition_1.c ****     }
 854              		.loc 1 406 0
 855 0036 AEF80020 		strh	r2, [lr]	@ movhi
 856              	.LVL11:
 857              	.LBE71:
 858              	.LBE84:
 859              	.LBB85:
 860              	.LBB75:
 487:Generated_Source\PSoC5/Ignition_1.c ****     #endif /* (Ignition_1_UsingFixedFunction) */
 861              		.loc 1 487 0
 862 003a 3A80     		strh	r2, [r7]	@ movhi
 863              	.LVL12:
 864              	.LBE75:
 865              	.LBE85:
 866              	.LBB86:
 867              	.LBB79:
 522:Generated_Source\PSoC5/Ignition_1.c ****         #endif /* (Ignition_1_UsingFixedFunction) */
 868              		.loc 1 522 0
 869 003c 2E80     		strh	r6, [r5]	@ movhi
 870              	.LVL13:
 871              	.LBE79:
 872              	.LBE86:
 873              	.LBB87:
 874              	.LBB82:
 686:Generated_Source\PSoC5/Ignition_1.c ****     }
 875              		.loc 1 686 0
 876 003e 01F80F0C 		strb	r0, [r1, #-15]
 877              	.LBE82:
 878              	.LBE87:
 167:Generated_Source\PSoC5/Ignition_1.c ****             /* Use the interrupt output of the status register for IRQ output */
 879              		.loc 1 167 0
 880 0042 FFF7FEFF 		bl	CyEnterCriticalSection
 881              	.LVL14:
 169:Generated_Source\PSoC5/Ignition_1.c **** 
 882              		.loc 1 169 0
 883 0046 2378     		ldrb	r3, [r4]	@ zero_extendqisi2
 884 0048 43F01003 		orr	r3, r3, #16
 885 004c 2370     		strb	r3, [r4]
ARM GAS  C:\Users\Bruger\AppData\Local\Temp\cc5pu3XD.s 			page 65


 172:Generated_Source\PSoC5/Ignition_1.c **** 
 886              		.loc 1 172 0
 887 004e FFF7FEFF 		bl	CyExitCriticalSection
 888              	.LVL15:
 889              	.LBB88:
 890              	.LBB89:
 891              	.LBB90:
 892              	.LBB91:
 713:Generated_Source\PSoC5/Ignition_1.c ****     }
 893              		.loc 1 713 0
 894 0052 0A4A     		ldr	r2, .L24+20
 895 0054 1378     		ldrb	r3, [r2]	@ zero_extendqisi2
 896              	.LBE91:
 897              	.LBE90:
 455:Generated_Source\PSoC5/Ignition_1.c ****             {
 898              		.loc 1 455 0
 899 0056 D906     		lsls	r1, r3, #27
 900 0058 04D5     		bpl	.L15
 901              	.LBB93:
 902              	.LBB94:
 903              		.loc 1 792 0
 904 005a 0949     		ldr	r1, .L24+24
 905              	.L20:
 906 005c 0B88     		ldrh	r3, [r1]
 907              	.LBE94:
 908              	.LBE93:
 909              	.LBB95:
 910              	.LBB92:
 713:Generated_Source\PSoC5/Ignition_1.c ****     }
 911              		.loc 1 713 0
 912 005e 1378     		ldrb	r3, [r2]	@ zero_extendqisi2
 913              	.LBE92:
 914              	.LBE95:
 455:Generated_Source\PSoC5/Ignition_1.c ****             {
 915              		.loc 1 455 0
 916 0060 DB06     		lsls	r3, r3, #27
 917 0062 FBD4     		bmi	.L20
 918              	.L15:
 919 0064 F8BD     		pop	{r3, r4, r5, r6, r7, pc}
 920              	.L25:
 921 0066 00BF     		.align	2
 922              	.L24:
 923 0068 79640040 		.word	1073767545
 924 006c 98640040 		.word	1073767576
 925 0070 99640040 		.word	1073767577
 926 0074 90680040 		.word	1073768592
 927 0078 50680040 		.word	1073768528
 928 007c 69640040 		.word	1073767529
 929 0080 B0680040 		.word	1073768624
 930 0084 10680040 		.word	1073768464
 931              	.LBE89:
 932              	.LBE88:
 933              		.cfi_endproc
 934              	.LFE1:
 935              		.size	Ignition_1_Init, .-Ignition_1_Init
 936              		.section	.text.Ignition_1_Enable,"ax",%progbits
 937              		.align	2
ARM GAS  C:\Users\Bruger\AppData\Local\Temp\cc5pu3XD.s 			page 66


 938              		.global	Ignition_1_Enable
 939              		.thumb
 940              		.thumb_func
 941              		.type	Ignition_1_Enable, %function
 942              	Ignition_1_Enable:
 943              	.LFB2:
 200:Generated_Source\PSoC5/Ignition_1.c ****     /* Globally Enable the Fixed Function Block chosen */
 944              		.loc 1 200 0
 945              		.cfi_startproc
 946              		@ args = 0, pretend = 0, frame = 0
 947              		@ frame_needed = 0, uses_anonymous_args = 0
 948              		@ link register save eliminated.
 209:Generated_Source\PSoC5/Ignition_1.c ****     #endif /* (Ignition_1_UseControl || Ignition_1_UsingFixedFunction) */
 949              		.loc 1 209 0
 950 0000 024A     		ldr	r2, .L27
 951 0002 1378     		ldrb	r3, [r2]	@ zero_extendqisi2
 952 0004 43F08003 		orr	r3, r3, #128
 953 0008 1370     		strb	r3, [r2]
 954 000a 7047     		bx	lr
 955              	.L28:
 956              		.align	2
 957              	.L27:
 958 000c 79640040 		.word	1073767545
 959              		.cfi_endproc
 960              	.LFE2:
 961              		.size	Ignition_1_Enable, .-Ignition_1_Enable
 962              		.section	.text.Ignition_1_Stop,"ax",%progbits
 963              		.align	2
 964              		.global	Ignition_1_Stop
 965              		.thumb
 966              		.thumb_func
 967              		.type	Ignition_1_Stop, %function
 968              	Ignition_1_Stop:
 969              	.LFB3:
 234:Generated_Source\PSoC5/Ignition_1.c ****     #if (Ignition_1_UseControl || Ignition_1_UsingFixedFunction)
 970              		.loc 1 234 0
 971              		.cfi_startproc
 972              		@ args = 0, pretend = 0, frame = 0
 973              		@ frame_needed = 0, uses_anonymous_args = 0
 974              		@ link register save eliminated.
 236:Generated_Source\PSoC5/Ignition_1.c ****     #endif /* (Ignition_1_UseControl || Ignition_1_UsingFixedFunction) */
 975              		.loc 1 236 0
 976 0000 024A     		ldr	r2, .L30
 977 0002 1378     		ldrb	r3, [r2]	@ zero_extendqisi2
 978 0004 03F07F03 		and	r3, r3, #127
 979 0008 1370     		strb	r3, [r2]
 980 000a 7047     		bx	lr
 981              	.L31:
 982              		.align	2
 983              	.L30:
 984 000c 79640040 		.word	1073767545
 985              		.cfi_endproc
 986              	.LFE3:
 987              		.size	Ignition_1_Stop, .-Ignition_1_Stop
 988              		.section	.text.Ignition_1_WriteCounter,"ax",%progbits
 989              		.align	2
 990              		.global	Ignition_1_WriteCounter
ARM GAS  C:\Users\Bruger\AppData\Local\Temp\cc5pu3XD.s 			page 67


 991              		.thumb
 992              		.thumb_func
 993              		.type	Ignition_1_WriteCounter, %function
 994              	Ignition_1_WriteCounter:
 995              	.LFB4:
 405:Generated_Source\PSoC5/Ignition_1.c ****         CY_SET_REG16(Ignition_1_COUNTER_LSB_PTR, counter);
 996              		.loc 1 405 0
 997              		.cfi_startproc
 998              		@ args = 0, pretend = 0, frame = 0
 999              		@ frame_needed = 0, uses_anonymous_args = 0
 1000              		@ link register save eliminated.
 1001              	.LVL16:
 406:Generated_Source\PSoC5/Ignition_1.c ****     }
 1002              		.loc 1 406 0
 1003 0000 014B     		ldr	r3, .L33
 1004 0002 1880     		strh	r0, [r3]	@ movhi
 1005 0004 7047     		bx	lr
 1006              	.L34:
 1007 0006 00BF     		.align	2
 1008              	.L33:
 1009 0008 10680040 		.word	1073768464
 1010              		.cfi_endproc
 1011              	.LFE4:
 1012              		.size	Ignition_1_WriteCounter, .-Ignition_1_WriteCounter
 1013              		.section	.text.Ignition_1_ReadCounter,"ax",%progbits
 1014              		.align	2
 1015              		.global	Ignition_1_ReadCounter
 1016              		.thumb
 1017              		.thumb_func
 1018              		.type	Ignition_1_ReadCounter, %function
 1019              	Ignition_1_ReadCounter:
 1020              	.LFB5:
 426:Generated_Source\PSoC5/Ignition_1.c ****         /* Force capture by reading Accumulator */
 1021              		.loc 1 426 0
 1022              		.cfi_startproc
 1023              		@ args = 0, pretend = 0, frame = 0
 1024              		@ frame_needed = 0, uses_anonymous_args = 0
 1025              		@ link register save eliminated.
 433:Generated_Source\PSoC5/Ignition_1.c ****     }
 1026              		.loc 1 433 0
 1027 0000 024B     		ldr	r3, .L36
 430:Generated_Source\PSoC5/Ignition_1.c **** 
 1028              		.loc 1 430 0
 1029 0002 034A     		ldr	r2, .L36+4
 1030 0004 1278     		ldrb	r2, [r2]	@ zero_extendqisi2
 433:Generated_Source\PSoC5/Ignition_1.c ****     }
 1031              		.loc 1 433 0
 1032 0006 1888     		ldrh	r0, [r3]
 434:Generated_Source\PSoC5/Ignition_1.c **** 
 1033              		.loc 1 434 0
 1034 0008 80B2     		uxth	r0, r0
 1035 000a 7047     		bx	lr
 1036              	.L37:
 1037              		.align	2
 1038              	.L36:
 1039 000c B0680040 		.word	1073768624
 1040 0010 18640040 		.word	1073767448
ARM GAS  C:\Users\Bruger\AppData\Local\Temp\cc5pu3XD.s 			page 68


 1041              		.cfi_endproc
 1042              	.LFE5:
 1043              		.size	Ignition_1_ReadCounter, .-Ignition_1_ReadCounter
 1044              		.section	.text.Ignition_1_ClearFIFO,"ax",%progbits
 1045              		.align	2
 1046              		.global	Ignition_1_ClearFIFO
 1047              		.thumb
 1048              		.thumb_func
 1049              		.type	Ignition_1_ClearFIFO, %function
 1050              	Ignition_1_ClearFIFO:
 1051              	.LFB6:
 454:Generated_Source\PSoC5/Ignition_1.c ****             while(0u != (Ignition_1_ReadStatusRegister() & Ignition_1_STATUS_FIFONEMPTY))
 1052              		.loc 1 454 0
 1053              		.cfi_startproc
 1054              		@ args = 0, pretend = 0, frame = 0
 1055              		@ frame_needed = 0, uses_anonymous_args = 0
 1056              		@ link register save eliminated.
 1057              	.LBB96:
 1058              	.LBB97:
 713:Generated_Source\PSoC5/Ignition_1.c ****     }
 1059              		.loc 1 713 0
 1060 0000 044A     		ldr	r2, .L46
 1061 0002 1378     		ldrb	r3, [r2]	@ zero_extendqisi2
 1062              	.LBE97:
 1063              	.LBE96:
 455:Generated_Source\PSoC5/Ignition_1.c ****             {
 1064              		.loc 1 455 0
 1065 0004 D906     		lsls	r1, r3, #27
 1066 0006 04D5     		bpl	.L38
 1067              	.LBB99:
 1068              	.LBB100:
 1069              		.loc 1 792 0
 1070 0008 0349     		ldr	r1, .L46+4
 1071              	.L43:
 1072 000a 0B88     		ldrh	r3, [r1]
 1073              	.LBE100:
 1074              	.LBE99:
 1075              	.LBB101:
 1076              	.LBB98:
 713:Generated_Source\PSoC5/Ignition_1.c ****     }
 1077              		.loc 1 713 0
 1078 000c 1378     		ldrb	r3, [r2]	@ zero_extendqisi2
 1079              	.LBE98:
 1080              	.LBE101:
 455:Generated_Source\PSoC5/Ignition_1.c ****             {
 1081              		.loc 1 455 0
 1082 000e DB06     		lsls	r3, r3, #27
 1083 0010 FBD4     		bmi	.L43
 1084              	.L38:
 1085 0012 7047     		bx	lr
 1086              	.L47:
 1087              		.align	2
 1088              	.L46:
 1089 0014 69640040 		.word	1073767529
 1090 0018 B0680040 		.word	1073768624
 1091              		.cfi_endproc
 1092              	.LFE6:
ARM GAS  C:\Users\Bruger\AppData\Local\Temp\cc5pu3XD.s 			page 69


 1093              		.size	Ignition_1_ClearFIFO, .-Ignition_1_ClearFIFO
 1094              		.section	.text.Ignition_1_WritePeriod,"ax",%progbits
 1095              		.align	2
 1096              		.global	Ignition_1_WritePeriod
 1097              		.thumb
 1098              		.thumb_func
 1099              		.type	Ignition_1_WritePeriod, %function
 1100              	Ignition_1_WritePeriod:
 1101              	.LFB7:
 483:Generated_Source\PSoC5/Ignition_1.c ****     #if(Ignition_1_UsingFixedFunction)
 1102              		.loc 1 483 0
 1103              		.cfi_startproc
 1104              		@ args = 0, pretend = 0, frame = 0
 1105              		@ frame_needed = 0, uses_anonymous_args = 0
 1106              		@ link register save eliminated.
 1107              	.LVL17:
 487:Generated_Source\PSoC5/Ignition_1.c ****     #endif /* (Ignition_1_UsingFixedFunction) */
 1108              		.loc 1 487 0
 1109 0000 014B     		ldr	r3, .L49
 1110 0002 1880     		strh	r0, [r3]	@ movhi
 1111 0004 7047     		bx	lr
 1112              	.L50:
 1113 0006 00BF     		.align	2
 1114              	.L49:
 1115 0008 90680040 		.word	1073768592
 1116              		.cfi_endproc
 1117              	.LFE7:
 1118              		.size	Ignition_1_WritePeriod, .-Ignition_1_WritePeriod
 1119              		.section	.text.Ignition_1_WriteCompare,"ax",%progbits
 1120              		.align	2
 1121              		.global	Ignition_1_WriteCompare
 1122              		.thumb
 1123              		.thumb_func
 1124              		.type	Ignition_1_WriteCompare, %function
 1125              	Ignition_1_WriteCompare:
 1126              	.LFB8:
 518:Generated_Source\PSoC5/Ignition_1.c ****         #if(Ignition_1_UsingFixedFunction)
 1127              		.loc 1 518 0
 1128              		.cfi_startproc
 1129              		@ args = 0, pretend = 0, frame = 0
 1130              		@ frame_needed = 0, uses_anonymous_args = 0
 1131              		@ link register save eliminated.
 1132              	.LVL18:
 522:Generated_Source\PSoC5/Ignition_1.c ****         #endif /* (Ignition_1_UsingFixedFunction) */
 1133              		.loc 1 522 0
 1134 0000 014B     		ldr	r3, .L52
 1135 0002 1880     		strh	r0, [r3]	@ movhi
 1136 0004 7047     		bx	lr
 1137              	.L53:
 1138 0006 00BF     		.align	2
 1139              	.L52:
 1140 0008 50680040 		.word	1073768528
 1141              		.cfi_endproc
 1142              	.LFE8:
 1143              		.size	Ignition_1_WriteCompare, .-Ignition_1_WriteCompare
 1144              		.section	.text.Ignition_1_SetInterruptMode,"ax",%progbits
 1145              		.align	2
ARM GAS  C:\Users\Bruger\AppData\Local\Temp\cc5pu3XD.s 			page 70


 1146              		.global	Ignition_1_SetInterruptMode
 1147              		.thumb
 1148              		.thumb_func
 1149              		.type	Ignition_1_SetInterruptMode, %function
 1150              	Ignition_1_SetInterruptMode:
 1151              	.LFB9:
 685:Generated_Source\PSoC5/Ignition_1.c ****         CY_SET_REG8(Ignition_1_STATUS_MASK_PTR, interruptMode);
 1152              		.loc 1 685 0
 1153              		.cfi_startproc
 1154              		@ args = 0, pretend = 0, frame = 0
 1155              		@ frame_needed = 0, uses_anonymous_args = 0
 1156              		@ link register save eliminated.
 1157              	.LVL19:
 686:Generated_Source\PSoC5/Ignition_1.c ****     }
 1158              		.loc 1 686 0
 1159 0000 014B     		ldr	r3, .L55
 1160 0002 1870     		strb	r0, [r3]
 1161 0004 7047     		bx	lr
 1162              	.L56:
 1163 0006 00BF     		.align	2
 1164              	.L55:
 1165 0008 89640040 		.word	1073767561
 1166              		.cfi_endproc
 1167              	.LFE9:
 1168              		.size	Ignition_1_SetInterruptMode, .-Ignition_1_SetInterruptMode
 1169              		.section	.text.Ignition_1_ReadStatusRegister,"ax",%progbits
 1170              		.align	2
 1171              		.global	Ignition_1_ReadStatusRegister
 1172              		.thumb
 1173              		.thumb_func
 1174              		.type	Ignition_1_ReadStatusRegister, %function
 1175              	Ignition_1_ReadStatusRegister:
 1176              	.LFB10:
 712:Generated_Source\PSoC5/Ignition_1.c ****         return (CY_GET_REG8(Ignition_1_STATUS_PTR));
 1177              		.loc 1 712 0
 1178              		.cfi_startproc
 1179              		@ args = 0, pretend = 0, frame = 0
 1180              		@ frame_needed = 0, uses_anonymous_args = 0
 1181              		@ link register save eliminated.
 713:Generated_Source\PSoC5/Ignition_1.c ****     }
 1182              		.loc 1 713 0
 1183 0000 014B     		ldr	r3, .L58
 1184 0002 1878     		ldrb	r0, [r3]	@ zero_extendqisi2
 714:Generated_Source\PSoC5/Ignition_1.c **** 
 1185              		.loc 1 714 0
 1186 0004 7047     		bx	lr
 1187              	.L59:
 1188 0006 00BF     		.align	2
 1189              	.L58:
 1190 0008 69640040 		.word	1073767529
 1191              		.cfi_endproc
 1192              	.LFE10:
 1193              		.size	Ignition_1_ReadStatusRegister, .-Ignition_1_ReadStatusRegister
 1194              		.section	.text.Ignition_1_ReadControlRegister,"ax",%progbits
 1195              		.align	2
 1196              		.global	Ignition_1_ReadControlRegister
 1197              		.thumb
ARM GAS  C:\Users\Bruger\AppData\Local\Temp\cc5pu3XD.s 			page 71


 1198              		.thumb_func
 1199              		.type	Ignition_1_ReadControlRegister, %function
 1200              	Ignition_1_ReadControlRegister:
 1201              	.LFB11:
 738:Generated_Source\PSoC5/Ignition_1.c ****         uint8 result;
 1202              		.loc 1 738 0
 1203              		.cfi_startproc
 1204              		@ args = 0, pretend = 0, frame = 0
 1205              		@ frame_needed = 0, uses_anonymous_args = 0
 1206              		@ link register save eliminated.
 741:Generated_Source\PSoC5/Ignition_1.c ****         return (result);
 1207              		.loc 1 741 0
 1208 0000 014B     		ldr	r3, .L61
 1209 0002 1878     		ldrb	r0, [r3]	@ zero_extendqisi2
 1210              	.LVL20:
 743:Generated_Source\PSoC5/Ignition_1.c **** 
 1211              		.loc 1 743 0
 1212 0004 7047     		bx	lr
 1213              	.L62:
 1214 0006 00BF     		.align	2
 1215              	.L61:
 1216 0008 79640040 		.word	1073767545
 1217              		.cfi_endproc
 1218              	.LFE11:
 1219              		.size	Ignition_1_ReadControlRegister, .-Ignition_1_ReadControlRegister
 1220              		.section	.text.Ignition_1_WriteControlRegister,"ax",%progbits
 1221              		.align	2
 1222              		.global	Ignition_1_WriteControlRegister
 1223              		.thumb
 1224              		.thumb_func
 1225              		.type	Ignition_1_WriteControlRegister, %function
 1226              	Ignition_1_WriteControlRegister:
 1227              	.LFB12:
 766:Generated_Source\PSoC5/Ignition_1.c ****         CY_SET_REG8(Ignition_1_CONTROL_PTR, control);
 1228              		.loc 1 766 0
 1229              		.cfi_startproc
 1230              		@ args = 0, pretend = 0, frame = 0
 1231              		@ frame_needed = 0, uses_anonymous_args = 0
 1232              		@ link register save eliminated.
 1233              	.LVL21:
 767:Generated_Source\PSoC5/Ignition_1.c ****     }
 1234              		.loc 1 767 0
 1235 0000 014B     		ldr	r3, .L64
 1236 0002 1870     		strb	r0, [r3]
 1237 0004 7047     		bx	lr
 1238              	.L65:
 1239 0006 00BF     		.align	2
 1240              	.L64:
 1241 0008 79640040 		.word	1073767545
 1242              		.cfi_endproc
 1243              	.LFE12:
 1244              		.size	Ignition_1_WriteControlRegister, .-Ignition_1_WriteControlRegister
 1245              		.section	.text.Ignition_1_ReadCapture,"ax",%progbits
 1246              		.align	2
 1247              		.global	Ignition_1_ReadCapture
 1248              		.thumb
 1249              		.thumb_func
ARM GAS  C:\Users\Bruger\AppData\Local\Temp\cc5pu3XD.s 			page 72


 1250              		.type	Ignition_1_ReadCapture, %function
 1251              	Ignition_1_ReadCapture:
 1252              	.LFB13:
 791:Generated_Source\PSoC5/Ignition_1.c ****         return (CY_GET_REG16(Ignition_1_CAPTURE_LSB_PTR));
 1253              		.loc 1 791 0
 1254              		.cfi_startproc
 1255              		@ args = 0, pretend = 0, frame = 0
 1256              		@ frame_needed = 0, uses_anonymous_args = 0
 1257              		@ link register save eliminated.
 1258              		.loc 1 792 0
 1259 0000 014B     		ldr	r3, .L67
 1260 0002 1888     		ldrh	r0, [r3]
 793:Generated_Source\PSoC5/Ignition_1.c ****     }
 1261              		.loc 1 793 0
 1262 0004 80B2     		uxth	r0, r0
 1263 0006 7047     		bx	lr
 1264              	.L68:
 1265              		.align	2
 1266              	.L67:
 1267 0008 B0680040 		.word	1073768624
 1268              		.cfi_endproc
 1269              	.LFE13:
 1270              		.size	Ignition_1_ReadCapture, .-Ignition_1_ReadCapture
 1271              		.section	.text.Ignition_1_ReadCompare,"ax",%progbits
 1272              		.align	2
 1273              		.global	Ignition_1_ReadCompare
 1274              		.thumb
 1275              		.thumb_func
 1276              		.type	Ignition_1_ReadCompare, %function
 1277              	Ignition_1_ReadCompare:
 1278              	.LFB14:
 794:Generated_Source\PSoC5/Ignition_1.c **** 
 795:Generated_Source\PSoC5/Ignition_1.c **** #endif /* (!Ignition_1_UsingFixedFunction) */
 796:Generated_Source\PSoC5/Ignition_1.c **** 
 797:Generated_Source\PSoC5/Ignition_1.c **** 
 798:Generated_Source\PSoC5/Ignition_1.c **** #if (Ignition_1_UseOneCompareMode)
 799:Generated_Source\PSoC5/Ignition_1.c **** 
 800:Generated_Source\PSoC5/Ignition_1.c **** 
 801:Generated_Source\PSoC5/Ignition_1.c ****     /*******************************************************************************
 802:Generated_Source\PSoC5/Ignition_1.c ****     * Function Name: Ignition_1_ReadCompare
 803:Generated_Source\PSoC5/Ignition_1.c ****     ********************************************************************************
 804:Generated_Source\PSoC5/Ignition_1.c ****     *
 805:Generated_Source\PSoC5/Ignition_1.c ****     * Summary:
 806:Generated_Source\PSoC5/Ignition_1.c ****     *  Reads the compare value for the compare output when the PWM Mode parameter is
 807:Generated_Source\PSoC5/Ignition_1.c ****     *  set to Dither mode, Center Aligned mode, or One Output mode.
 808:Generated_Source\PSoC5/Ignition_1.c ****     *
 809:Generated_Source\PSoC5/Ignition_1.c ****     * Parameters:
 810:Generated_Source\PSoC5/Ignition_1.c ****     *  None
 811:Generated_Source\PSoC5/Ignition_1.c ****     *
 812:Generated_Source\PSoC5/Ignition_1.c ****     * Return:
 813:Generated_Source\PSoC5/Ignition_1.c ****     *  uint8/uint16: Current compare value
 814:Generated_Source\PSoC5/Ignition_1.c ****     *
 815:Generated_Source\PSoC5/Ignition_1.c ****     *******************************************************************************/
 816:Generated_Source\PSoC5/Ignition_1.c ****     uint16 Ignition_1_ReadCompare(void) 
 817:Generated_Source\PSoC5/Ignition_1.c ****     {
 1279              		.loc 1 817 0
 1280              		.cfi_startproc
ARM GAS  C:\Users\Bruger\AppData\Local\Temp\cc5pu3XD.s 			page 73


 1281              		@ args = 0, pretend = 0, frame = 0
 1282              		@ frame_needed = 0, uses_anonymous_args = 0
 1283              		@ link register save eliminated.
 818:Generated_Source\PSoC5/Ignition_1.c ****         #if(Ignition_1_UsingFixedFunction)
 819:Generated_Source\PSoC5/Ignition_1.c ****             return ((uint16)CY_GET_REG16(Ignition_1_COMPARE1_LSB_PTR));
 820:Generated_Source\PSoC5/Ignition_1.c ****         #else
 821:Generated_Source\PSoC5/Ignition_1.c ****             return (CY_GET_REG16(Ignition_1_COMPARE1_LSB_PTR));
 1284              		.loc 1 821 0
 1285 0000 014B     		ldr	r3, .L70
 1286 0002 1888     		ldrh	r0, [r3]
 822:Generated_Source\PSoC5/Ignition_1.c ****         #endif /* (Ignition_1_UsingFixedFunction) */
 823:Generated_Source\PSoC5/Ignition_1.c ****     }
 1287              		.loc 1 823 0
 1288 0004 80B2     		uxth	r0, r0
 1289 0006 7047     		bx	lr
 1290              	.L71:
 1291              		.align	2
 1292              	.L70:
 1293 0008 50680040 		.word	1073768528
 1294              		.cfi_endproc
 1295              	.LFE14:
 1296              		.size	Ignition_1_ReadCompare, .-Ignition_1_ReadCompare
 1297              		.section	.text.Ignition_1_ReadPeriod,"ax",%progbits
 1298              		.align	2
 1299              		.global	Ignition_1_ReadPeriod
 1300              		.thumb
 1301              		.thumb_func
 1302              		.type	Ignition_1_ReadPeriod, %function
 1303              	Ignition_1_ReadPeriod:
 1304              	.LFB15:
 824:Generated_Source\PSoC5/Ignition_1.c **** 
 825:Generated_Source\PSoC5/Ignition_1.c **** #else
 826:Generated_Source\PSoC5/Ignition_1.c **** 
 827:Generated_Source\PSoC5/Ignition_1.c **** 
 828:Generated_Source\PSoC5/Ignition_1.c ****     /*******************************************************************************
 829:Generated_Source\PSoC5/Ignition_1.c ****     * Function Name: Ignition_1_ReadCompare1
 830:Generated_Source\PSoC5/Ignition_1.c ****     ********************************************************************************
 831:Generated_Source\PSoC5/Ignition_1.c ****     *
 832:Generated_Source\PSoC5/Ignition_1.c ****     * Summary:
 833:Generated_Source\PSoC5/Ignition_1.c ****     *  Reads the compare value for the compare1 output.
 834:Generated_Source\PSoC5/Ignition_1.c ****     *
 835:Generated_Source\PSoC5/Ignition_1.c ****     * Parameters:
 836:Generated_Source\PSoC5/Ignition_1.c ****     *  None
 837:Generated_Source\PSoC5/Ignition_1.c ****     *
 838:Generated_Source\PSoC5/Ignition_1.c ****     * Return:
 839:Generated_Source\PSoC5/Ignition_1.c ****     *  uint8/uint16: Current compare value.
 840:Generated_Source\PSoC5/Ignition_1.c ****     *
 841:Generated_Source\PSoC5/Ignition_1.c ****     *******************************************************************************/
 842:Generated_Source\PSoC5/Ignition_1.c ****     uint16 Ignition_1_ReadCompare1(void) 
 843:Generated_Source\PSoC5/Ignition_1.c ****     {
 844:Generated_Source\PSoC5/Ignition_1.c ****         return (CY_GET_REG16(Ignition_1_COMPARE1_LSB_PTR));
 845:Generated_Source\PSoC5/Ignition_1.c ****     }
 846:Generated_Source\PSoC5/Ignition_1.c **** 
 847:Generated_Source\PSoC5/Ignition_1.c **** 
 848:Generated_Source\PSoC5/Ignition_1.c ****     /*******************************************************************************
 849:Generated_Source\PSoC5/Ignition_1.c ****     * Function Name: Ignition_1_ReadCompare2
 850:Generated_Source\PSoC5/Ignition_1.c ****     ********************************************************************************
ARM GAS  C:\Users\Bruger\AppData\Local\Temp\cc5pu3XD.s 			page 74


 851:Generated_Source\PSoC5/Ignition_1.c ****     *
 852:Generated_Source\PSoC5/Ignition_1.c ****     * Summary:
 853:Generated_Source\PSoC5/Ignition_1.c ****     *  Reads the compare value for the compare2 output.
 854:Generated_Source\PSoC5/Ignition_1.c ****     *
 855:Generated_Source\PSoC5/Ignition_1.c ****     * Parameters:
 856:Generated_Source\PSoC5/Ignition_1.c ****     *  None
 857:Generated_Source\PSoC5/Ignition_1.c ****     *
 858:Generated_Source\PSoC5/Ignition_1.c ****     * Return:
 859:Generated_Source\PSoC5/Ignition_1.c ****     *  uint8/uint16: Current compare value.
 860:Generated_Source\PSoC5/Ignition_1.c ****     *
 861:Generated_Source\PSoC5/Ignition_1.c ****     *******************************************************************************/
 862:Generated_Source\PSoC5/Ignition_1.c ****     uint16 Ignition_1_ReadCompare2(void) 
 863:Generated_Source\PSoC5/Ignition_1.c ****     {
 864:Generated_Source\PSoC5/Ignition_1.c ****         return (CY_GET_REG16(Ignition_1_COMPARE2_LSB_PTR));
 865:Generated_Source\PSoC5/Ignition_1.c ****     }
 866:Generated_Source\PSoC5/Ignition_1.c **** 
 867:Generated_Source\PSoC5/Ignition_1.c **** #endif /* (Ignition_1_UseOneCompareMode) */
 868:Generated_Source\PSoC5/Ignition_1.c **** 
 869:Generated_Source\PSoC5/Ignition_1.c **** 
 870:Generated_Source\PSoC5/Ignition_1.c **** /*******************************************************************************
 871:Generated_Source\PSoC5/Ignition_1.c **** * Function Name: Ignition_1_ReadPeriod
 872:Generated_Source\PSoC5/Ignition_1.c **** ********************************************************************************
 873:Generated_Source\PSoC5/Ignition_1.c **** *
 874:Generated_Source\PSoC5/Ignition_1.c **** * Summary:
 875:Generated_Source\PSoC5/Ignition_1.c **** *  Reads the period value used by the PWM hardware.
 876:Generated_Source\PSoC5/Ignition_1.c **** *
 877:Generated_Source\PSoC5/Ignition_1.c **** * Parameters:
 878:Generated_Source\PSoC5/Ignition_1.c **** *  None
 879:Generated_Source\PSoC5/Ignition_1.c **** *
 880:Generated_Source\PSoC5/Ignition_1.c **** * Return:
 881:Generated_Source\PSoC5/Ignition_1.c **** *  uint8/16: Period value
 882:Generated_Source\PSoC5/Ignition_1.c **** *
 883:Generated_Source\PSoC5/Ignition_1.c **** *******************************************************************************/
 884:Generated_Source\PSoC5/Ignition_1.c **** uint16 Ignition_1_ReadPeriod(void) 
 885:Generated_Source\PSoC5/Ignition_1.c **** {
 1305              		.loc 1 885 0
 1306              		.cfi_startproc
 1307              		@ args = 0, pretend = 0, frame = 0
 1308              		@ frame_needed = 0, uses_anonymous_args = 0
 1309              		@ link register save eliminated.
 886:Generated_Source\PSoC5/Ignition_1.c ****     #if(Ignition_1_UsingFixedFunction)
 887:Generated_Source\PSoC5/Ignition_1.c ****         return ((uint16)CY_GET_REG16(Ignition_1_PERIOD_LSB_PTR));
 888:Generated_Source\PSoC5/Ignition_1.c ****     #else
 889:Generated_Source\PSoC5/Ignition_1.c ****         return (CY_GET_REG16(Ignition_1_PERIOD_LSB_PTR));
 1310              		.loc 1 889 0
 1311 0000 014B     		ldr	r3, .L73
 1312 0002 1888     		ldrh	r0, [r3]
 890:Generated_Source\PSoC5/Ignition_1.c ****     #endif /* (Ignition_1_UsingFixedFunction) */
 891:Generated_Source\PSoC5/Ignition_1.c **** }
 1313              		.loc 1 891 0
 1314 0004 80B2     		uxth	r0, r0
 1315 0006 7047     		bx	lr
 1316              	.L74:
 1317              		.align	2
 1318              	.L73:
 1319 0008 90680040 		.word	1073768592
 1320              		.cfi_endproc
ARM GAS  C:\Users\Bruger\AppData\Local\Temp\cc5pu3XD.s 			page 75


 1321              	.LFE15:
 1322              		.size	Ignition_1_ReadPeriod, .-Ignition_1_ReadPeriod
 1323              		.global	Ignition_1_initVar
 1324              		.bss
 1325              		.set	.LANCHOR0,. + 0
 1326              		.type	Ignition_1_initVar, %object
 1327              		.size	Ignition_1_initVar, 1
 1328              	Ignition_1_initVar:
 1329 0000 00       		.space	1
 1330              		.text
 1331              	.Letext0:
 1332              		.file 2 "Generated_Source\\PSoC5\\cytypes.h"
 1333              		.file 3 "Generated_Source\\PSoC5\\CyLib.h"