ARM GAS  C:\Users\Bruger\AppData\Local\Temp\cchqqFqZ.s 			page 1


   1              		.syntax unified
   2              		.cpu cortex-m3
   3              		.fpu softvfp
   4              		.eabi_attribute 20, 1
   5              		.eabi_attribute 21, 1
   6              		.eabi_attribute 23, 3
   7              		.eabi_attribute 24, 1
   8              		.eabi_attribute 25, 1
   9              		.eabi_attribute 26, 1
  10              		.eabi_attribute 30, 2
  11              		.eabi_attribute 34, 1
  12              		.eabi_attribute 18, 4
  13              		.thumb
  14              		.file	"Ignition_1_PM.c"
  15              		.text
  16              	.Ltext0:
  17              		.section	.gnu.lto_.profile.71da20bb,"",%progbits
  18 0000 789C6366 		.ascii	"x\234cf```e\200\000F\206\026F5\000\002>\000\265"
  18      60606065 
  18      80004686 
  18      16463500 
  18      023E00B5 
  19              		.text
  20              		.section	.gnu.lto_.jmpfuncs.71da20bb,"",%progbits
  21 0000 789C6366 		.ascii	"x\234cf\300\016\344\2404\013\204bb``\204!f\2048\000"
  21      C00EE4A0 
  21      340B8462 
  21      62606084 
  21      21668438 
  22 0015 067E0032 		.ascii	"\006~\0002"
  23              		.text
  24              		.section	.gnu.lto_.inline.71da20bb,"",%progbits
  25 0000 789C6366 		.ascii	"x\234cf\300\016\332\2404\013\003\003\237\006#\003\023"
  25      C00EDAA0 
  25      340B0303 
  25      9F062303 
  25      13
  26 0011 D7043F06 		.ascii	"\327\004?\006\266\005\362L 1&nT\002\273\012\306\011"
  26      B605F24C 
  26      2031266E 
  26      5402BB0A 
  26      C609
  27 0023 7EA81433 		.ascii	"~\250\0243\003\227\024H\335>;\270:F.\030\301\302\300"
  27      03971448 
  27      DD3E3BB8 
  27      3A462E18 
  27      C1C2C0
  28 0036 210C9464 		.ascii	"!\014\224d\373\240\207E\222\001\000C0\013{"
  28      FBA08745 
  28      92010043 
  28      300B7B
  29              		.text
  30              		.section	.gnu.lto_.pureconst.71da20bb,"",%progbits
  31 0000 789C6366 		.ascii	"x\234cf``\340d\200\000\026\006)&)f)\026\011\000\002"
  31      6060E064 
  31      80001606 
  31      29262966 
ARM GAS  C:\Users\Bruger\AppData\Local\Temp\cchqqFqZ.s 			page 2


  31      29160900 
  32 0015 CF0080   		.ascii	"\317\000\200"
  33              		.text
  34              		.section	.gnu.lto_Ignition_1_SaveConfig.71da20bb,"",%progbits
  35 0000 789C9D92 		.ascii	"x\234\235\222OHTQ\024\306\317w\237=\237\276\204h9\373"
  35      4F485451 
  35      14C6CF77 
  35      9F3D9FBE 
  35      846839FB 
  36 0014 1804155A 		.ascii	"\030\004\025Z\330\242E\233@q!\014\270\035\030b\032d"
  36      D8A2459B 
  36      4071210C 
  36      B81D1862 
  36      1A64
  37 0026 363320B6 		.ascii	"63 \266\034|\257\006\311\026\371g\241B&(D\323\214\377"
  37      1C7CAF06 
  37      C916F967 
  37      A1422628 
  37      44D38CFF 
  38 003a 9DB274D1 		.ascii	"\235\262t\321\323E A\021BA\204\021\214\240\213 \033"
  38      D3452041 
  38      11424184 
  38      118CA08B 
  38      201B
  39 004c 4807313B 		.ascii	"H\0071;\347>\0279\332\200=\270\367\276{\357w\317\367"
  39      E73E1739 
  39      DA803DB8 
  39      F7BE7BEF 
  39      77CFF7
  40 005f 3BE75E83 		.ascii	";\347^\203N\177\001n\373\212\250\236G\030\0045\360\216"
  40      4E7F016E 
  40      FB8AA89E 
  40      47180435 
  40      F08E
  41 0071 C8B51420 		.ascii	"\310\265\024 ?\004\352Q\350\301\216\332U\030\360r\243"
  41      3F04EA51 
  41      E8C18EDA 
  41      5518F072 
  41      A3
  42 0082 76F089E3 		.ascii	"v\360\211\3438?&\337\272!\017%>WT~\034<E\220X\264\233"
  42      383F26DF 
  42      BA210F25 
  42      3E57547E 
  42      1C3C4590 
  43 0099 3EFC649B 		.ascii	">\374d\233i\026]\362\367\220\201\011\036g/{\316\321"
  43      69165DF2 
  43      F7908109 
  43      1E672F7B 
  43      CED1
  44 00ab 51717A75 		.ascii	"Qqzu\330\2543\250\244`Jgq\247l\351\210\012\334\304t"
  44      D8AC33A8 
  44      A4604A67 
  44      71A76CE9 
  44      880ADCC4 
  45 00c0 8B273C1A 		.ascii	"\213'<\032_p\317{\375]I\200=ep\354\361\215\2073*u\340"
  45      5F70CF7B 
  45      FD5D4980 
ARM GAS  C:\Users\Bruger\AppData\Local\Temp\cchqqFqZ.s 			page 3


  45      3D6570EC 
  45      F18D8733 
  46 00d7 DC77AC92 		.ascii	"\334w\254\2222\212\212\303\342\031R|\272\212>\343\356"
  46      328A8AC3 
  46      E219527C 
  46      BA8A3EE3 
  46      EE
  47 00e8 D0B706D1 		.ascii	"\320\267\006\321\226\013/\034\012\006\257~-\274\377"
  47      960B2F1C 
  47      0A06AF7E 
  47      2DBCFF
  48 00f7 606D2B5E 		.ascii	"`m+^\321\323\214\233\036\303c<r\035Q\231\310\"\205\034"
  48      D1D38C9B 
  48      1EC3633C 
  48      721D5199 
  48      C822851C 
  49 010b 027AEFF7 		.ascii	"\002z\357\367T\377\202\331\230\343,\274\033%U\215)\026"
  49      54FF82D9 
  49      98E32CBC 
  49      1B25558D 
  49      2916
  50 011d FED49962 		.ascii	"\376\324\231b\032\215LC\002\2671\177\014w\312\223\341"
  50      1A8D4C43 
  50      02B7317F 
  50      0C77CA93 
  50      E1
  51 012e 588D99BF 		.ascii	"X\215\231\277\340&\256T\204+\247\231=\233\346\272\320"
  51      E026AE54 
  51      842BA799 
  51      3D9BE6BA 
  51      D0
  52 013f CC691A29 		.ascii	"\314i\032)*\346\205\306d\203\265_\0176\337\324\3718"
  52      2AE685C6 
  52      6483B55F 
  52      0F36DFD4 
  52      F938
  53 0151 169F71F3 		.ascii	"\026\237q\363\375\353\246$k\365\255\273N\325\211\374"
  53      FDEBA624 
  53      6BF5ADBB 
  53      4ED589FC 
  54 0161 2D1D355B 		.ascii	"-\0355[\370\270d\213c\232/\262\006\013\010`Q\014\221"
  54      F8B8648B 
  54      639A2FB2 
  54      060B0860 
  54      510C91
  55 0174 E7F03E72 		.ascii	"\347\360>r\363\271\220\237\377\263\200\265x\241\221"
  55      F3B9909F 
  55      FFB380B5 
  55      78A191
  56 0183 F57B5812 		.ascii	"\365{X\022dK\027p\260\367\232Ol\227\233\330E\2561\341"
  56      644B1770 
  56      B0F79A4F 
  56      6C979BD8 
  56      45AE31E1 
  57 0197 A52EE0C5 		.ascii	"\245.\340\305\377\241yU\201fY\323\030B\263\"46m\302"
  57      FFA17955 
  57      816659D3 
ARM GAS  C:\Users\Bruger\AppData\Local\Temp\cchqqFqZ.s 			page 4


  57      1842B322 
  57      34366DC2 
  58 01ab F5465AC4 		.ascii	"\365FZ\304@.\271\300\305\345\027\310\221\203\255\261"
  58      402EB9C0 
  58      C5E517C8 
  58      9183ADB1 
  59 01bb 44ACEB56 		.ascii	"D\254\353Vw\354v\244#y\247+\032\013\207:\2227\233\303"
  59      77EC76A4 
  59      2379A72B 
  59      1A0B873A 
  59      92379BC3 
  60 01cf 6D9D8978 		.ascii	"m\235\211xw<\231\210\\\215\204\332\233\242\364\007_"
  60      773C9988 
  60      5C8D84DA 
  60      9BA2F407 
  60      5F
  61 01e0 F61AA2   		.ascii	"\366\032\242"
  62              		.text
  63              		.section	.gnu.lto_Ignition_1_RestoreConfig.71da20bb,"",%progbits
  64 0000 789C8D92 		.ascii	"x\234\215\222\275K\034a\020\306\347\231]\327\325\023"
  64      BD4B1C61 
  64      10C6E799 
  64      5DD7D513 
  65 0010 142BB97F 		.ascii	"\024+\271\177\340\220\304@\2124\266)$\205\240\330\012"
  65      E090C440 
  65      8A34B629 
  65      2485A0D8 
  65      0A
  66 0021 47D023D8 		.ascii	"G\320#\330\334\201hy\270+'h\343G\252@\214`!~F=c\274"
  66      DC816879 
  66      B82B2768 
  66      E347AA40 
  66      8C60217E 
  67 0039 7C34471A 		.ascii	"|4G\032\261Q\216\220(\"Z\344\204X\351yEX\20213\357\222"
  67      B1518E90 
  67      28225AE4 
  67      8458E979 
  67      45588231 
  68 0050 22E6222E 		.ascii	"\"\346\".\2743;\357\373\3543?f_\213\376}\242\262\276"
  68      BC333BEF 
  68      FBEC333F 
  68      665F8BFE 
  68      7DA2B2BE 
  69 0064 3151B364 		.ascii	"1Q\263dX\004\236\334%\362]\006\364\205@C\214!\234q\211"
  69      58049EDC 
  69      25F25D06 
  69      F4854043 
  69      8C219C71 
  70 0079 31995F7E 		.ascii	"1\231_~\021\211\315y\236w1\234k\032i\012\344\2632\207"
  70      1189CD79 
  70      9E77319C 
  70      6B1A690A 
  70      E4B33287 
  71 008d 3698478C 		.ascii	"6\230G\214DS\312\\\355G\234\214h\032\3023,\300\201\344"
  71      4453CA5C 
  71      ED479C8C 
  71      681AC233 
ARM GAS  C:\Users\Bruger\AppData\Local\Temp\cchqqFqZ.s 			page 5


  71      2CC081E4 
  72 00a1 B5C6BC77 		.ascii	"\265\306\274w}]>\232:h\355\254e\012\030\266\006G\002"
  72      7D5D3E9A 
  72      3A68EDAC 
  72      650A18B6 
  72      064702
  73 00b4 BB1A888A 		.ascii	"\273\032\210\212\262\264\351\251\024\222\255C\014oe"
  73      B2B4E9A9 
  73      1492AD43 
  73      0C6F65
  74 00c3 8FA7AAD4 		.ascii	"\217\247\252\324\342\007+\301\314\347\361UN\377\364"
  74      E2072BC1 
  74      CCE7F155 
  74      4EFFF4
  75 00d2 463D3760 		.ascii	"F=7`\353J\375e\367\244\270Wp\277\263\354\230r\301\317"
  75      EB4AFD65 
  75      F7A4B857 
  75      70BFB3EC 
  75      9872C1CF 
  76 00e6 4CE3155E 		.ascii	"L\343\025^\372\236\252l,\"\215%D\315\331\257\225\211"
  76      FA9EAA6C 
  76      2C228D25 
  76      44CDD9AF 
  76      9589
  77 00f8 0DA7E55E 		.ascii	"\015\247\345^\300UX\026\315\245\241\307\012Z\350\010"
  77      C0555816 
  77      CDA5A1C7 
  77      0A5AE808 
  78 0108 B6F6A19B 		.ascii	"\266\366\241\233]\2342\013>^#M\302\020p5)V\351\244`"
  78      5D9C320B 
  78      3E5E234D 
  78      C2107035 
  78      2956E9A4 
  79 011d 8558F67F 		.ascii	"\205X\366\177\261nr\254V\346X3\034:\"\254\337\316!\276"
  79      B16E72AC 
  79      56E65833 
  79      1C3A22AC 
  79      DFCE21BE 
  80 0131 C81A0EFB 		.ascii	"\310\032\016\373\017G\3664[\037r8w\346\330\250\304\341"
  80      0F47F634 
  80      5B1F7238 
  80      77E6D8A8 
  80      C4E1
  81 0143 E28DE130 		.ascii	"\342\215\3410\277lS8\016\361\351\371\354}\365\026\231"
  81      BF6C5338 
  81      0EF1E9F9 
  81      EC7DF516 
  81      99
  82 0154 BF39B1E3 		.ascii	"\2779\261\343\350\204k\306v|\317\376k\3505\306h\251"
  82      E8846BC6 
  82      767CCFFE 
  82      6BE835C6 
  82      68A9
  83 0166 F83517D1 		.ascii	"\3705\027\321&\031?\337\034p-\336\"\212-\355\202\234"
  83      26193FDF 
  83      1C702DDE 
  83      228A2DED 
ARM GAS  C:\Users\Bruger\AppData\Local\Temp\cchqqFqZ.s 			page 6


  83      829C
  84 0178 180B9FE1 		.ascii	"\030\013\237\341-\234#\304u\357\214\373\2562\356{\203"
  84      2D9C23C4 
  84      75EF8CFB 
  84      AE32EE7B 
  84      83
  85 0189 6B29EE87 		.ascii	"k)\356\207[\306\026)\253\006\037\315\330\244\256\243"
  85      5BC61629 
  85      AB061FCD 
  85      D8A4AEA3 
  86 0199 63F8F92F 		.ascii	"c\370\371/\333l\324\244\227\016z\331\244y\254-\221L"
  86      DB6CD4A4 
  86      970E7AD9 
  86      A479AC2D 
  86      914C
  87 01ab F43F1D48 		.ascii	"\364?\035H\364\306\273R\203\375=\211\356\216\256\324"
  87      F4C6BB52 
  87      83FD3D89 
  87      EE8EAED4 
  88 01bb E347DD4F 		.ascii	"\343G\335O\236%\373\006\372R\311\370\303xG\373\203\036"
  88      9E25FB06 
  88      FA52C9F8 
  88      C37847FB 
  88      831E
  89 01cd FA0D3DE8 		.ascii	"\372\015=\350\0140"
  89      0C30
  90              		.text
  91              		.section	.gnu.lto_Ignition_1_Sleep.71da20bb,"",%progbits
  92 0000 789C8592 		.ascii	"x\234\205\222\315k\023A\030\306\337\347\235\331M\332"
  92      CD6B1341 
  92      18C6DFE7 
  92      9DD94DDA 
  93 0010 682D9E4A 		.ascii	"h-\236J\377\201\340\241\212\007\217\332\203\007Q(\024"
  93      FF81E0A1 
  93      8A078FDA 
  93      83075128 
  93      14
  94 0021 7A2D04A9 		.ascii	"z-\004\251AzI\244\324c\350l\262b\021\324\"\010\241\332"
  94      417A49A4 
  94      D463E86C 
  94      B26211D4 
  94      2208A1DA 
  95 0035 DEFA99DA 		.ascii	"\336\372\231\332\326\372u]<\211\024K)E(!\202\264\240"
  95      D6FA755D 
  95      3C89144B 
  95      29452821 
  95      82B4A0
  96 0048 B7C440ED 		.ascii	"\267\304@\355\"\265\276\263\211Z*\352\302\354\314\274"
  96      22B5BEB3 
  96      895A2AEA 
  96      C2ECCCBC 
  97 0058 F39BE779 		.ascii	"\363\233\347yvf\025\375\371\234\227v\203\211NI\017\227"
  97      766615FD 
  97      F99C9776 
  97      83894E49 
  97      0F97
  98 006a C063EF88 		.ascii	"\300c\357\210\2748\263\332k#\323\252\213\335d\216)8"
ARM GAS  C:\Users\Bruger\AppData\Local\Temp\cchqqFqZ.s 			page 7


  98      BC38B3DA 
  98      6B23D3AA 
  98      8BDD648E 
  98      2938
  99 007c 8DB2FE39 		.ascii	"\215\262\3769p\000; \320\010+\355`\004\237\271\306\030"
  99      70003B20 
  99      D0082BED 
  99      60049FB9 
  99      C618
 100 008e 0B4AC544 		.ascii	"\013J\305Dr\312\030S\315ot\334\352\010E\271\316\015"
 100      72CA1853 
 100      CD6F74DC 
 100      EA0845B9 
 100      CE0D
 101 00a0 27CC2049 		.ascii	"'\314 I\302\324\374\375\367\011\327\027\246\275\261"
 101      C2D4FCFD 
 101      F709D717 
 101      A6BDB1
 102 00af 8659B890 		.ascii	"\206Y\270\220~\351d`\016\016\352\253\017F\317p\213\242"
 102      7EE96460 
 102      0E0EEAAB 
 102      0F46CF70 
 102      8BA2
 103 00c1 90A1E525 		.ascii	"\220\241\345%\304\2664\353\266#\023\351\325\026^\357"
 103      C4B634EB 
 103      B62313E9 
 103      D5165EEF 
 104 00d1 DEA9CC4D 		.ascii	"\336\251\314M\302\356\374\312JD\307kS\323\307?q\310"
 104      C2EEFCCA 
 104      4A44C76B 
 104      53D3C73F 
 104      71C8
 105 00e3 2A7CE319 		.ascii	"*|\343\031m}>l\257\255\307\243\022\331i\271\370\360"
 105      6D7D3E6C 
 105      AFADC7A3 
 105      12D969B9 
 105      F8F0
 106 00f5 2E4FE091 		.ascii	".O\340\221\347#d\2159tb\036\235\342^\302\004h\013\371"
 106      E723648D 
 106      3974621E 
 106      9DE25EC2 
 106      04680BF9 
 107 0109 CAEDB26E 		.ascii	"\312\355\262n\010j\321\244M\370\253\205L\263pXN\302"
 107      086AD1A4 
 107      4DF8AB85 
 107      4CB37058 
 107      4EC2
 108 011b 60C1EE24 		.ascii	"`\301\356$\233H\321^\233\004\312W\227\327>&,-\350\344"
 108      9B48D15E 
 108      9B04CA57 
 108      97D73E26 
 108      2C2DE8E4 
 109 012f C6BD45CE 		.ascii	"\306\275E\316}3\243&\036\262\263o\277\361\260\200\023"
 109      7D33A326 
 109      1EB2B36F 
 109      BFF1B080 
 109      13
ARM GAS  C:\Users\Bruger\AppData\Local\Temp\cchqqFqZ.s 			page 8


 110 0140 4D673DFF 		.ascii	"Mg=\3771l\036c)\027O\220\303\242\225\225\265\357\013"
 110      316C1E63 
 110      29174F90 
 110      C3A29595 
 110      B5EF0B
 111 0153 F757DCAE 		.ascii	"\367W\334\256\222\034Qp!\344\030\226\004\374\022\035"
 111      921C5170 
 111      21E41896 
 111      04FC121D 
 112 0163 2396D125 		.ascii	"#\226\321%\300\372\370t\341\204\325\212\201\3604\012"
 112      C0FAF874 
 112      E184D58A 
 112      81F0340A 
 113 0173 B3C39A8A 		.ascii	"\263\303\232\212\335Q\224\352\346\177\242\034\365^\371"
 113      DD5194EA 
 113      E67FA21C 
 113      F55EF9
 114 0182 87F7B3DF 		.ascii	"\207\367\263\337\336\317#\357_\337\021\223\322\213\246"
 114      DECF23EF 
 114      5FDF1193 
 114      D28BA6
 115 0191 B7135D4C 		.ascii	"\267\023]L\031\205\240\366\226\2557\0355\217\327Y.\031"
 115      1985A0F6 
 115      96AD371D 
 115      358FD759 
 115      2E19
 116 01a3 2F91934B 		.ascii	"/\221\223Km!\213\356\266\376\215\264g\374\252IV\340"
 116      6D218BEE 
 116      B6FE8DB4 
 116      67FCAA49 
 116      56E0
 117 01b5 05E19588 		.ascii	"\005\341\225\210$\373/\300Z\011\220\274\224\316\244"
 117      24FB2FC0 
 117      5A0990BC 
 117      94CEA4
 118 01c4 87AE0EA7 		.ascii	"\207\256\016\247\257\245\372\2627\207\006\322\375\275"
 118      AFA5FAB2 
 118      378706D2 
 118      FDBD
 119 01d2 7DD98BE7 		.ascii	"}\331\213\347\372/_\317\014\016\017f3\251\263\251\336"
 119      FA2F5FCF 
 119      0C0E0F66 
 119      33A9B3A9 
 119      DE
 120 01e3 9ED303F4 		.ascii	"\236\323\003\364\003\022\215\361<"
 120      03128DF1 
 120      3C
 121              		.text
 122              		.section	.gnu.lto_Ignition_1_Wakeup.71da20bb,"",%progbits
 123 0000 789C7550 		.ascii	"x\234uP=HBQ\024>\347\274\347S\322!\232\242\301U\",\""
 123      3D484251 
 123      143EE7BC 
 123      E753D221 
 123      9AA2C155 
 124 0017 9A1B1A22 		.ascii	"\232\033\032\"\"\020\\\005\011{\204\213\202X\233x_\276"
 124      22105C05 
 124      097B848B 
ARM GAS  C:\Users\Bruger\AppData\Local\Temp\cchqqFqZ.s 			page 9


 124      82589B78 
 124      5FBE
 125 0029 A0214A9C 		.ascii	"\240!J\234\202~\206\240\2624\205\206\006[\336.\024\021"
 125      827E86A0 
 125      B2348586 
 125      065BDE2E 
 125      1411
 126 003b 15FD2F06 		.ascii	"\025\375/\006\265e\"\362\020\263{\237APt\341r\356\375"
 126      B56522F2 
 126      10B37B9F 
 126      415074E1 
 126      72EEFD
 127 004e CEF79DEF 		.ascii	"\316\367\235\357~W\202\277k\204\357\005\004\350\347"
 127      7E5782BF 
 127      6B84EF05 
 127      04E8E7
 128 005d 156D8094 		.ascii	"\025m\200\224>\003\320\034DR\311\015\254K\276\036\002"
 128      3E03D01C 
 128      4452C90D 
 128      AC4BBE1E 
 128      02
 129 006e E69250EE 		.ascii	"\346\222P\356\3002\2428\000B\222$\031\223\370FU\302"
 129      C032A238 
 129      00429224 
 129      1993F846 
 129      55C2
 130 0080 B4915B77 		.ascii	"\264\221[wzv\031c\357;\217\275K\275&\001\324\2503\037"
 130      7A761963 
 130      EF3B8FBD 
 130      4BBD2601 
 130      D4A8331F 
 131 0094 F7D1039C 		.ascii	"\367\321\003\234S\325[7NE\347\234\356N\017\263\250p"
 131      53D55B37 
 131      4E45E79C 
 131      EE4E0FB3 
 131      A870
 132 00a6 5F28F618 		.ascii	"_(\366\030\254\335\256\3253\3311Rd0\211\203\025N\020"
 132      ACDDAED5 
 132      33D93152 
 132      64308983 
 132      154E10
 133 00b9 3E2F44A2 		.ascii	">/D\242J\017\2302\356\313$$b\326\366\345j\201\022M\266"
 133      4A0F9832 
 133      EECB2424 
 133      62D6F6E5 
 133      6A81124D 
 134 00ce CC1C2651 		.ascii	"\314\034&QM(\360\000\023\\+\301\035.\236T\033\031\273"
 134      4D28F000 
 134      135C2BC1 
 134      1D2E9E54 
 134      1B19BB
 135 00e1 E03648FE 		.ascii	"\3406H\376\315\226[\302\233\243\317\225\363\013\307"
 135      CD965BC2 
 135      9BA3CF95 
 135      F30BC7
 136 00f0 2B71C4BA 		.ascii	"+q\304\272f5}\023\267pCc\202e\303CL`\016\373\254\336"
 136      66357D13 
ARM GAS  C:\Users\Bruger\AppData\Local\Temp\cchqqFqZ.s 			page 10


 136      B7704363 
 136      8265C343 
 136      4C600EFB 
 137 0106 677EED58 		.ascii	"g~\355X\361\016\230\244`\236s>\254dx\204^\270B\3756"
 137      F10E98A4 
 137      609E733E 
 137      AC647884 
 137      5EB842FD 
 138 011b E5FEB1D2 		.ascii	"\345\376\261\322\366NW\354b\250xQA\310A\204\220\240"
 138      F64E57EC 
 138      62A87851 
 138      41C84184 
 138      90A0
 139 012d E4B632D4 		.ascii	"\344\2662\324\313\256\3772\360\241X\374\316 4\262\025"
 139      CBAEFF32 
 139      F0A158FC 
 139      CE2034B2 
 139      15
 140 013e FC0935A3 		.ascii	"\374\0115\2439ei@|\013\012\224S=\023jD\215\315\304\325"
 140      39656940 
 140      7C0B0A94 
 140      533D136A 
 140      448DCDC4 
 141 0153 D9A03F3A 		.ascii	"\331\240?:\037\013\251\001\237?:>\032\230\234\213\204"
 141      1F0BA901 
 141      9F3F3A3E 
 141      1A989C8B 
 141      84
 142 0164 E3E16824 		.ascii	"\343\341h$8\034\364M\017\206\340\013=0\224\032"
 142      381CF44D 
 142      0F86E00B 
 142      3D30941A 
 143              		.text
 144              		.section	.gnu.lto_.symbol_nodes.71da20bb,"",%progbits
 145 0000 789C55CA 		.ascii	"x\234U\312\261\015\3020\020\205\341\347;;v\342\024l"
 145      B10DC230 
 145      1085E1E7 
 145      3B3B76E2 
 145      146C
 146 0012 C012ECF7 		.ascii	"\300\022\354\367RX\324L\200\"\304\012l\220\232\031\000"
 146      5258D44C 
 146      8022C40A 
 146      6C909A19 
 146      00
 147 0023 A5CC0C88 		.ascii	"\245\314\014\2108i\216k~}O\247\000\016\016\373\211#"
 147      38698E6B 
 147      7E7D4FA7 
 147      000E0EFB 
 147      8923
 148 0035 70790224 		.ascii	"py\002$\256cB\000F\241\212\320\331Y\224\362gO\265v\221"
 148      AE634200 
 148      46A18AD0 
 148      D95994F2 
 148      674FB576 
 149 004a 7E378661 		.ascii	"~7\206ae\303`\031\330Xv\214\226-\223ebk\231\331Y\366"
 149      65C36019 
 149      D858768C 
ARM GAS  C:\Users\Bruger\AppData\Local\Temp\cchqqFqZ.s 			page 11


 149      962D9365 
 149      626B99D9 
 150 0060 CC868A88 		.ascii	"\314\206\212\210\373\353\353\024\015\346\255\001\363"
 150      FBEBEB14 
 150      0DE6AD01 
 150      F3
 151 006d 7BAD7498 		.ascii	"{\255t\230\252\245E\331\234P\316\313Q5c\252V\340S\353"
 151      AAA545D9 
 151      9C50CECB 
 151      513563AA 
 151      56E053EB 
 152 0081 05B7FAE7 		.ascii	"\005\267\372\347{\224\307\011?\177fFt"
 152      7B94C709 
 152      3F7F6646 
 152      74
 153              		.text
 154              		.section	.gnu.lto_.refs.71da20bb,"",%progbits
 155 0000 789C258A 		.ascii	"x\234%\212\311\015\000 \014\200\240\255\307,\356?\240"
 155      C90D0020 
 155      0C80A0AD 
 155      C72CEE3F 
 155      A0
 156 0011 8DF22390 		.ascii	"\215\362#\220\300\341Shh\351\324]\321\212\211\003W\344"
 156      C0E15368 
 156      68E9D45D 
 156      D18A8903 
 156      57E4
 157 0023 0BC39E82 		.ascii	"\013\303\236\202\013\0205\000\202"
 157      0B103500 
 157      82
 158              		.text
 159              		.section	.gnu.lto_.decls.71da20bb,"",%progbits
 160 0000 789C8D56 		.ascii	"x\234\215VkL\024W\024\236\273w\331e\207\025_\021\015"
 160      6B4C1457 
 160      149EBB77 
 160      D9658715 
 160      5F110D
 161 0013 3FEA561B 		.ascii	"?\352V\033\372\2101\332\244\215\377jb\214\261\215\015"
 161      FA8831DA 
 161      A48DFF6A 
 161      628CB18D 
 161      0D
 162 0024 9158D368 		.ascii	"\221X\323hb\021\247\226H\000\227\245\211\277:\270P("
 162      6211A796 
 162      480097A5 
 162      89BF3AB8 
 162      5028
 163 0036 568B0ABA 		.ascii	"V\213\012\272\305\324\256\005\344!\"\276\000A\201EA"
 163      C5D4AE05 
 163      E42122BE 
 163      00418145 
 163      41
 164 0047 444004C4 		.ascii	"D@\004\304\007*\013\210\240[\327\345\251\326\307\366"
 164      072A0B88 
 164      A05BD7E5 
 164      A9D6C7F6 
 165 0057 DC7B67D8 		.ascii	"\334{g\330\031\204\332I\276\335\2753\337\371\316w\316"
ARM GAS  C:\Users\Bruger\AppData\Local\Temp\cchqqFqZ.s 			page 12


 165      1984DA49 
 165      BEDDBD33 
 165      DFF9CE77 
 165      CE
 166 0068 7DCC628E 		.ascii	"}\314b\216\343F\020\307y\341\372\224\3478\177\015\307"
 166      E34610C7 
 166      79E1FA94 
 166      E7387F0D 
 166      C7
 167 0079 F9C1BD50 		.ascii	"\371\301\275P\316w\031\001\205\200\"@1\340\024\240\034"
 167      CE771901 
 167      85802240 
 167      31E014A0 
 167      1C
 168 008a 70095007 		.ascii	"p\011P\007h\0004\003Z\000\255\200v\000Hr\2178\365E4"
 168      68003403 
 168      5A00AD80 
 168      76004872 
 168      8F38F545 
 169 009f A649DA26 		.ascii	"\246I\332&@\020\3401\240\006\340\002\364\003\034\000"
 169      4010E031 
 169      A006E002 
 169      F4031C00 
 170 00af 0FC00D28 		.ascii	"\017\300\015(\001\014\002\312\000Z\200\023\320\013\350"
 170      010C02CA 
 170      005A8013 
 170      D00BE8
 171 00be 067449F7 		.ascii	"\006tI\367\012%\017\227$O\223\345-\232$\2572\337\020"
 171      0A250F97 
 171      244F93E5 
 171      2D9A24AF 
 171      32DF10
 172 00d1 A051CA27 		.ascii	"\240Q\312'\347\036\006\324\377G\336\"\251\336f\251\376"
 172      E71E06D4 
 172      FF47DE22 
 172      A9DE66A9 
 172      FE
 173 00e2 C9F2925E 		.ascii	"\311\362\222^\361R^\222sT\241/\347'9\237\001\362%\215"
 173      F1525E92 
 173      7354A12F 
 173      E727399F 
 173      01F2258D 
 174 00f6 1E009662 		.ascii	"\036\000\226b[\245\372&\323&s\240Wh\313\032J]\245\336"
 174      5BA5FA26 
 174      D32673A0 
 174      5768CB1A 
 174      4A5DA5DE 
 175 010a 29C9F354 		.ascii	")\311\363Ts3\250A\347\212F\232\002\0064(\2207\221a\371"
 175      7333A841 
 175      E78A469A 
 175      02063428 
 175      90379161 
 176 011f BE7A9B0E 		.ascii	"\276z\233\016\206F^K\206\025/{\332\265s3D\270\322\254"
 176      86465E4B 
 176      86152F7B 
 176      DAB57333 
 176      44B8D2AC 
ARM GAS  C:\Users\Bruger\AppData\Local\Temp\cchqqFqZ.s 			page 13


 177 0133 E20C2D0A 		.ascii	"\342\014-\012\015B\271(\030\345\241`P\314Gs\341s\203"
 177      0D42B928 
 177      18E5A160 
 177      50CC4773 
 177      E17383
 178 0146 9629D567 		.ascii	"\226)\325g\272:\014X\203\310\357,[w;\277\250\000\302"
 178      BA3A0C58 
 178      83C8EF2C 
 178      5B773BBF 
 178      A800C2
 179 0159 52C4EA6A 		.ascii	"R\304\352j\354K\227\273\277\304\021`:,:\213=Ugn\033"
 179      EC4B97BB 
 179      BFC41160 
 179      3A2C3A8B 
 179      3D55676E 
 180 016e C57AB1DA 		.ascii	"\305z\261\332\353\375\202J\241\002\204\3211\264\210"
 180      EBFD824A 
 180      A10284D1 
 180      31B488
 181 017d 30C96F1A 		.ascii	"0\311o\032\202\012\221\011\302\256\272]Mz\274\212j\337"
 181      820A9109 
 181      C2AEBA5D 
 181      4D7ABC8A 
 181      6ADF
 182 018f 78D193C8 		.ascii	"x\321\223\310S\011{Y\226\216\011\320\370\343\212\370"
 182      53097B59 
 182      968E09D0 
 182      F8E38AF8 
 183 019f E3727C11 		.ascii	"\343r|\021\215\277[\330\271\237\307\337\321\370W\336"
 183      8DBF5BD8 
 183      B99FC7DF 
 183      D1F857DE 
 184 01af B24008B7 		.ascii	"\262@\010\267\027\333m9\312\360\023\212\360\023rx1\015"
 184      17DB6D39 
 184      CAF0138A 
 184      F0137278 
 184      310D
 185 01c1 4FBB9394 		.ascii	"O\273\223\224\300\343\3554|$)#_\307\342\037\253\342"
 185      C0E3ED34 
 185      7C242923 
 185      5FC7E21F 
 185      ABE2
 186 01d3 4F2AE24F 		.ascii	"O*\342O\312\361\247h|GUr\262?\266\"*\220p\264\342W="
 186      CAF1A768 
 186      7C475572 
 186      B23FB622 
 186      2A9070B4 
 187 01ea B43888A7 		.ascii	"\2648\210\247\035\331s5\323\201\351\320K\036kn\337N"
 187      1DD97335 
 187      D381E9D0 
 187      4B1E6B6E 
 187      DF4E
 188 01fc 7F81111F 		.ascii	"\177\201\021\037\222\"\212;E\317>\021\317\343\320\242"
 188      92228A3B 
 188      45CF3E11 
 188      CFE3D0A2 
 189 020c 60F47130 		.ascii	"`\364q0\207JQ\010\320h\022t\006f\341,\314B6\364\330"
ARM GAS  C:\Users\Bruger\AppData\Local\Temp\cchqqFqZ.s 			page 14


 189      874A5108 
 189      D0681274 
 189      0666E12C 
 189      CC4236F4 
 190 0221 F37B52E5 		.ascii	"\363{R\345\227Vq9*A<:=n\203f\220\372\376Kb1V\316#a\372"
 190      97567139 
 190      2A413C3A 
 190      3D6E8366 
 190      90FAFE4B 
 191 023c 26B24C35 		.ascii	"&\262L5\221\371\256\316t\204\2171\267M\366\322Q:a\242"
 191      91F9AECE 
 191      74848F31 
 191      B74DF6D2 
 191      513A61A2 
 192 0250 2733F7C4 		.ascii	"'3\367\304\267{\255i\331\242\323\353\235O\203\3209E"
 192      B77BAD69 
 192      D9A2D3EB 
 192      9D4F83D0 
 192      3945
 193 0262 CDE7E49A 		.ascii	"\315\347\344\232\313\331\224\365<\0376\322\2055\203"
 193      CBD994F5 
 193      3C1F36D2 
 193      853583
 194 0271 E864DEEC 		.ascii	"\350d\336\354\033\301tai\310\360\217!\367y\003~\252"
 194      1BC17461 
 194      69C8F08F 
 194      21F77903 
 194      7EAA
 195 0283 EE888975 		.ascii	"\356\210\211u\344\240\353\371\031\177:\364z1i\311\313"
 195      E4A0EBF9 
 195      197F3AF4 
 195      7A3169C9 
 195      CB
 196 0294 DEA25C1D 		.ascii	"\336\242\\\035\012\341Y\2559\254V\007Tp\301W\253I\252"
 196      0AE159AD 
 196      39AC5607 
 196      5470C157 
 196      AB49AA
 197 02a7 95B64DB4 		.ascii	"\225\266M\264\212~y\201\034\252\200\012\317C\205\250"
 197      8A7E7981 
 197      1CAA800A 
 197      CF4385A8 
 198 02b7 1A3A6792 		.ascii	"\032:g\222:W\0117\253\340&dz\221\324\324\245j\213C\325"
 198      3A570937 
 198      ABE02664 
 198      7A91D4D4 
 198      A56A8B43 
 199 02cc 961A555B 		.ascii	"\226\032U[\366w\244_\233\206\307\230\345\226\334\327"
 199      F677A45F 
 199      9B86C798 
 199      E596DCD7 
 200 02dc 415257FA 		.ascii	"ARW\372\313\267+\272\0021\350\242\242+\027\345\256\\"
 200      CBB72BBA 
 200      0231E8A2 
 200      A22B17E5 
 200      AE5C
 201 02ee A25D7953 		.ascii	"\242]ySZ\222\257\303\273\331.\251mw\366j\250\2123%\271"
ARM GAS  C:\Users\Bruger\AppData\Local\Temp\cchqqFqZ.s 			page 15


 201      5A92AFC3 
 201      BBD92EA9 
 201      6D77F66A 
 201      A88A3325 
 202 0303 CE689737 		.ascii	"\316h\2277\003\321\250Uh\324\312\032ul5&9\322\264Z8"
 202      03D1A855 
 202      68D4CA1A 
 202      756C3526 
 202      39D2B45A 
 203 0318 B2E92C6E 		.ascii	"\262\351,n\240\033u\324\333\235\243\231r\243\326\323"
 203      A01B75D4 
 203      DB9DA399 
 203      72A3D6D3 
 204 0328 422E23A9 		.ascii	"B.#\251\222\033\273\373m\032\234\305L\224\\\367V\373"
 204      921BBBFB 
 204      6D1A9CC5 
 204      4C945CF7 
 204      56FB
 205 033a 3313957D 		.ascii	"3\023\225}\012\023\020\203\256(L\\\221M4P\023\347\263"
 205      0A131083 
 205      AE284C5C 
 205      914D3450 
 205      13E7B3
 206 034d 1FBB03A8 		.ascii	"\037\273\003\250\011\307\270\211\256\263c\245\374\224"
 206      09C7B889 
 206      AEB363A5 
 206      FC94
 207 035b 261AA989 		.ascii	"&\032\251\211\253\262\211\356\032w\201\001_d&Zk\017"
 207      ABB289EE 
 207      1A778101 
 207      5F64265A 
 207      6B0F
 208 036d 374F6726 		.ascii	"7Og&\376\311\271\3543\0011\250Ia\242I6\321LM\270\217"
 208      FEC9B9EC 
 208      330131A8 
 208      4961A249 
 208      36D14C4D 
 209 0383 DB5F63DC 		.ascii	"\333_c\334\3114\222\306\254\007\264L\343MN\235Z\343"
 209      C93492C6 
 209      AC07B44C 
 209      E34D4E9D 
 209      5AE3
 210 0395 9A42E39A 		.ascii	"\232B\343\232\254\321B5n\376\331\321\253\303C\322\214"
 210      ACD14235 
 210      6EFED9D1 
 210      ABC343D2 
 210      8C
 211 03a6 E438592F 		.ascii	"\3448Y/\354\307r~6)6\367u\205\300uY\240\225\012$[Ow"
 211      ECC7727E 
 211      362936F7 
 211      7585C075 
 211      59A0950A 
 212 03be F37827A6 		.ascii	"\363x'\246\002\331)\317Z\014\314D\305e\241&Q|E\3260"
 212      02D929CF 
 212      5A0CCC44 
 212      C565A126 
 212      517C45D6 
ARM GAS  C:\Users\Bruger\AppData\Local\Temp\cchqqFqZ.s 			page 16


 213 03d3 95685348 		.ascii	"\225hSH\264\311\022\355T\342TVN\211\201\356\225\345"
 213      B4C912ED 
 213      54E25456 
 213      4E8981EE 
 213      95E5
 214 03e5 5424E340 		.ascii	"T$\343@\241\037\335+\376d\3702\257\245\224\307\351,"
 214      A11FDD2B 
 214      FE64F832 
 214      AFA594C7 
 214      E92C
 215 03f7 417ADBD9 		.ascii	"Az\333\331\363\001\270\220\015\232\013;\274\001\270"
 215      F301B890 
 215      0D9A0B3B 
 215      BC01B8
 216 0406 820D1E0C 		.ascii	"\202\015\036\014\346\376\245\3075l\220x\341h\232\036"
 216      E6FEA5C7 
 216      356C9078 
 216      E1689A1E 
 217 0416 37B241D7 		.ascii	"7\262A\327\263\256\032=\225_B\206)o\232\212\265\270"
 217      B3AE1A3D 
 217      955F4286 
 217      296F9A8A 
 217      B5B8
 218 0428 8B3D4BA8 		.ascii	"\213=K\250>\336\306\236-\203\241\276\2410\353\215\036"
 218      3EDEC69E 
 218      2D83A1BE 
 218      A130EB8D 
 218      1E
 219 0439 2D20D7EC 		.ascii	"- \327\354\020;\354%\347\236\276\206\000\321\266\204"
 219      103BEC25 
 219      E79EBE86 
 219      00D1B684 
 220 0449 AEB57B50 		.ascii	"\256\265{P\302\0034[>\217>\"\323z\237L.G\251.\353.\243"
 220      C203345B 
 220      3E8F3E22 
 220      D37A9F4C 
 220      2E47A92E 
 221 0460 98B784AE 		.ascii	"\230\267\204\256\210;\022u|\013Rr\256\217\354\356\365"
 221      883B1275 
 221      7C0B5272 
 221      AE8FECEE 
 221      F5
 222 0471 E9764EA2 		.ascii	"\351vN\242{\327G\275\337[7N\2755\011\365\223q\346#k"
 222      7BD747BD 
 222      DF5B374E 
 222      BD3509F5 
 222      9371E623 
 223 0486 EAB883DB 		.ascii	"\352\270\203\333\223:\250\240\262{\351\032\265\213\313"
 223      933AA8A0 
 223      B27BE91A 
 223      B58BCB
 224 0495 CD1CBA01 		.ascii	"\315\034\272\001\317;\350\012%l\230!\324\007\247E\017"
 224      CF3BE80A 
 224      256C9821 
 224      D407A745 
 224      0F
 225 04a6 5A807A01 		.ascii	"Z\200z\001N@7\240\013-\2403F\316 gg\226ND\204\316\311"
ARM GAS  C:\Users\Bruger\AppData\Local\Temp\cchqqFqZ.s 			page 17


 225      4E4037A0 
 225      0B2DA033 
 225      46CE2067 
 225      67964E44 
 226 04bd 332A1FB4 		.ascii	"3*\037\264\232\314\004\2335\000\205\314\246\274C+\375"
 226      9ACC049B 
 226      350085CC 
 226      A6BC432B 
 226      FD
 227 04ce 513F88DE 		.ascii	"Q?\210\336\364\235S$\210^\223Y@\017!\363\377qA\016\346"
 227      F49D5324 
 227      885E9359 
 227      400F21F3 
 227      FF71410E 
 228 04e3 FDC7B2FD 		.ascii	"\375\307\262\375\361\020\233\305\014W\2117`\341\021"
 228      F1109BC5 
 228      0C578937 
 228      60E111
 229 04f2 51B47BAA 		.ascii	"Q\264{\252n\3315\011\242\035\016A\262vi\372\001\226"
 229      6ED93509 
 229      A21D0E41 
 229      B27669FA 
 229      0196
 230 0504 5E51E900 		.ascii	"^Q\351\000[\177\350\021Z\010\321Oz\012\322t\306Trr\302"
 230      5B7FE811 
 230      5A08D14F 
 230      7A0AD274 
 230      C6547272 
 231 0519 BE35D407 		.ascii	"\2765\324\007\322\023\310\267s\037##e\3037\260w'\367"
 231      D213C8B7 
 231      731F2323 
 231      65C337B0 
 231      7727F7
 232 052c BDC22A36 		.ascii	"\275\302*6\311\341c\273$\266\213\262\305\203\273\300"
 232      C9E163BB 
 232      24B68BB2 
 232      C583BBC0 
 233 053c 66A296DA 		.ascii	"f\242\226\332<;\226zn\032\237B\316\347w\277\331\240"
 233      3C3B967A 
 233      6E1A9F42 
 233      CEE777BF 
 233      D9A0
 234 054e 99EDCDA9 		.ascii	"\231\355\315\251\035\006\366.\234\030\361t\312wa\355"
 234      1D06F62E 
 234      9C18F174 
 234      CA7761ED 
 235 055e D05789F0 		.ascii	"\320W\211\360~p\303\022\370\333\327\367'H\3612\354\311"
 235      7E70C312 
 235      F8DBD7F7 
 235      2748F132 
 235      ECC9
 236 0570 6C32AA2A 		.ascii	"l2\252*p\253\316}\217T\201\207V\360\374H\367\303\351"
 236      70ABCE7D 
 236      8F548187 
 236      56F0FC48 
 236      F7C3E9
 237 0583 2A7699AA 		.ascii	"*v\231\252;\203\022{\220\262\357\224;\356MS\261\033"
ARM GAS  C:\Users\Bruger\AppData\Local\Temp\cchqqFqZ.s 			page 18


 237      3B83127B 
 237      90B2EF94 
 237      3BEE4D53 
 237      B11B
 238 0595 55EC2189 		.ascii	"U\354!\211=D\331i\373\016U\032T\354z\025{Xb\017\023"
 238      3D44D969 
 238      FB0E551A 
 238      54EC7A15 
 238      7B58620F 
 239 05aa 3676E43A 		.ascii	"6v\344:\356\360(\230\017\266\301\337\252\347\363\321"
 239      EEF02898 
 239      0FB6C1DF 
 239      AAE7F3D1 
 240 05ba 28D49442 		.ascii	"(\324\224B\226\221g\247\210m\201ro8\372\200Cc 3\002"
 240      969167A7 
 240      886D8172 
 240      6F38FA80 
 240      43632033 
 241 05cf 32845D3D 		.ascii	"2\204]=\340\365\376\344e\327ozJ \037`\341\276\255:U"
 241      E0F5FEE4 
 241      65D76F7A 
 241      4A201F60 
 241      E1BEAD3A 
 242 05e4 ABB290AF 		.ascii	"\253\262\220\257\262\360\014\031\345\036\302On\316\352"
 242      B2F00C19 
 242      E51EC24F 
 242      6ECEEA
 243 05f3 ADD19196 		.ascii	"\255\321\221\226\310\230\350MK7\205\205\377(\254\210"
 243      C898E84D 
 243      4B378585 
 243      FF28AC88 
 244 0603 89FE3E72 		.ascii	"\211\376>r\253n\325\327\353L+\270\017W\011\321\2029"
 244      AB6ED5D7 
 244      EB4C2BB8 
 244      0F5709D1 
 244      8239
 245 0615 DC226CD9 		.ascii	"\334\"l\331\024\026\023o\216\0206\206\206\305\254\370"
 245      1416136F 
 245      8E103686 
 245      86C5ACF8 
 246 0625 6CA32226 		.ascii	"l\243\"&t\315\342\010n\236\342\306Z!\316\022c\226tf"
 246      74CDE208 
 246      6E9EE2C6 
 246      5A21CE12 
 246      63967466 
 247 0639 28D5A304 		.ascii	"(\325\243\004!v\246\342\306\372\360mB|\254_|d\264e\331"
 247      2176A6E2 
 247      C6FAF06D 
 247      427CAC5F 
 247      7C64B465 
 248 064e FB53648A 		.ascii	"\373Sd\212\330a\331\021+\304-\376\201{O\225#|\013$\260"
 248      D861D911 
 248      2BC42DFE 
 248      817B4F95 
 248      237C0B24 
 249 0663 9863A2D6 		.ascii	"\230c\242\326\012[#\343,\202\371\203wZ\005\015\035\311"
 249      0A5B23E3 
ARM GAS  C:\Users\Bruger\AppData\Local\Temp\cchqqFqZ.s 			page 19


 249      2C82F983 
 249      775A050D 
 249      1DC9
 250 0675 B5F4F3A0 		.ascii	"\265\364\363\240\267\244\342\243Ab\316\204\333\241\202"
 250      B7A4E2A3 
 250      4162CE84 
 250      DBA182
 251 0684 393266CB 		.ascii	"92f\313|\245cs\244E\230\220x\356\333\317\251Z\320\304"
 251      7CA56373 
 251      A4459890 
 251      78EEDBCF 
 251      A95AD0C4 
 252 0698 FB4C6EBA 		.ascii	"\373Ln\272\262#\226\030UCVF\207o\216\022\224\202\233"
 252      B2239618 
 252      55435646 
 252      876F8E12 
 252      94829B
 253 06ab C323B6C5 		.ascii	"\303#\266\305\307\206Y\314\361\021\226\300\320\365k"
 253      C78659CC 
 253      F11196C0 
 253      D0F56B
 254 06ba 1823CC02 		.ascii	"\030#\314\002u\352`\270n\313f\003|1\345Y\253IZs|\254"
 254      75EA60B8 
 254      6ECB6603 
 254      7C31E559 
 254      AB495A73 
 255 06d0 654D78DC 		.ascii	"eMx\334\266o\302\243\342\205Y\360p\202\335\231o\251"
 255      B66FC2A3 
 255      E28559F0 
 255      7082DD99 
 255      6FA9
 256 06e2 6BCDC2D6 		.ascii	"k\315\302\326e\377\002\004I'\250"
 256      65FF0204 
 256      4927A8
 257              		.text
 258              		.section	.gnu.lto_.symtab.71da20bb,"",%progbits
 259 0000 49676E69 		.ascii	"Ignition_1_SaveConfig\000\000\000\000\000\000\000\000"
 259      74696F6E 
 259      5F315F53 
 259      61766543 
 259      6F6E6669 
 260 001d 00000000 		.ascii	"\000\000\000\000\254\000\000\000Ignition_1_RestoreC"
 260      AC000000 
 260      49676E69 
 260      74696F6E 
 260      5F315F52 
 261 0038 6F6E6669 		.ascii	"onfig\000\000\000\000\000\000\000\000\000\000\000\000"
 261      67000000 
 261      00000000 
 261      00000000 
 261      00
 262 0049 AE000000 		.ascii	"\256\000\000\000Ignition_1_Sleep\000\000\000\000\000"
 262      49676E69 
 262      74696F6E 
 262      5F315F53 
 262      6C656570 
 263 0062 00000000 		.ascii	"\000\000\000\000\000\000\000\260\000\000\000Ignitio"
ARM GAS  C:\Users\Bruger\AppData\Local\Temp\cchqqFqZ.s 			page 20


 263      000000B0 
 263      00000049 
 263      676E6974 
 263      696F
 264 0074 6E5F315F 		.ascii	"n_1_Wakeup\000\000\000\000\000\000\000\000\000\000\000"
 264      57616B65 
 264      75700000 
 264      00000000 
 264      00000000 
 265 0089 00B20000 		.ascii	"\000\262\000\000\000Ignition_1_ReadControlRegister\000"
 265      0049676E 
 265      6974696F 
 265      6E5F315F 
 265      52656164 
 266 00ad 00020000 		.ascii	"\000\002\000\000\000\000\000\000\000\000\000\272\000"
 266      00000000 
 266      000000BA 
 266      00
 267 00ba 00004967 		.ascii	"\000\000Ignition_1_ReadCounter\000\000\002\000\000\000"
 267      6E697469 
 267      6F6E5F31 
 267      5F526561 
 267      64436F75 
 268 00d8 00000000 		.ascii	"\000\000\000\000\000\000\304\000\000\000Ignition_1_"
 268      0000C400 
 268      00004967 
 268      6E697469 
 268      6F6E5F31 
 269 00ed 52656164 		.ascii	"ReadPeriod\000\000\002\000\000\000\000\000\000\000\000"
 269      50657269 
 269      6F640000 
 269      02000000 
 269      00000000 
 270 0102 00C60000 		.ascii	"\000\306\000\000\000Ignition_1_WriteControlRegister"
 270      0049676E 
 270      6974696F 
 270      6E5F315F 
 270      57726974 
 271 0126 00000200 		.ascii	"\000\000\002\000\000\000\000\000\000\000\000\000\312"
 271      00000000 
 271      00000000 
 271      CA
 272 0133 00000049 		.ascii	"\000\000\000Ignition_1_WriteCounter\000\000\002\000"
 272      676E6974 
 272      696F6E5F 
 272      315F5772 
 272      69746543 
 273 0151 00000000 		.ascii	"\000\000\000\000\000\000\000\000\316\000\000\000Ign"
 273      00000000 
 273      CE000000 
 273      49676E
 274 0160 6974696F 		.ascii	"ition_1_WritePeriod\000\000\002\000\000\000\000\000"
 274      6E5F315F 
 274      57726974 
 274      65506572 
 274      696F6400 
 275 017b 00000000 		.ascii	"\000\000\000\000\320\000\000\000Ignition_1_Stop\000"
ARM GAS  C:\Users\Bruger\AppData\Local\Temp\cchqqFqZ.s 			page 21


 275      D0000000 
 275      49676E69 
 275      74696F6E 
 275      5F315F53 
 276 0193 00020000 		.ascii	"\000\002\000\000\000\000\000\000\000\000\000\322\000"
 276      00000000 
 276      000000D2 
 276      00
 277 01a0 00004967 		.ascii	"\000\000Ignition_1_Enable\000\000\002\000\000\000\000"
 277      6E697469 
 277      6F6E5F31 
 277      5F456E61 
 277      626C6500 
 278 01ba 00000000 		.ascii	"\000\000\000\000\000\324\000\000\000"
 278      00D40000 
 278      00
 279              		.text
 280              		.section	.gnu.lto_.opts,"",%progbits
 281 0000 272D666E 		.ascii	"'-fno-trapv' '-mcpu=cortex-m3' '-mthumb' '-g' '-O3'"
 281      6F2D7472 
 281      61707627 
 281      20272D6D 
 281      6370753D 
 282 0033 20272D66 		.ascii	" '-ffunction-sections' '-finline-functions' '-flto'"
 282      66756E63 
 282      74696F6E 
 282      2D736563 
 282      74696F6E 
 283 0066 20272D66 		.ascii	" '-ffat-lto-objects'\000"
 283      6661742D 
 283      6C746F2D 
 283      6F626A65 
 283      63747327 
 284              		.text
 285              		.cfi_sections	.debug_frame
 286              		.section	.text.Ignition_1_SaveConfig,"ax",%progbits
 287              		.align	2
 288              		.global	Ignition_1_SaveConfig
 289              		.thumb
 290              		.thumb_func
 291              		.type	Ignition_1_SaveConfig, %function
 292              	Ignition_1_SaveConfig:
 293              	.LFB0:
 294              		.file 1 "Generated_Source\\PSoC5\\Ignition_1_PM.c"
   1:Generated_Source\PSoC5/Ignition_1_PM.c **** /*******************************************************************************
   2:Generated_Source\PSoC5/Ignition_1_PM.c **** * File Name: Ignition_1_PM.c
   3:Generated_Source\PSoC5/Ignition_1_PM.c **** * Version 3.30
   4:Generated_Source\PSoC5/Ignition_1_PM.c **** *
   5:Generated_Source\PSoC5/Ignition_1_PM.c **** * Description:
   6:Generated_Source\PSoC5/Ignition_1_PM.c **** *  This file provides the power management source code to API for the
   7:Generated_Source\PSoC5/Ignition_1_PM.c **** *  PWM.
   8:Generated_Source\PSoC5/Ignition_1_PM.c **** *
   9:Generated_Source\PSoC5/Ignition_1_PM.c **** * Note:
  10:Generated_Source\PSoC5/Ignition_1_PM.c **** *
  11:Generated_Source\PSoC5/Ignition_1_PM.c **** ********************************************************************************
  12:Generated_Source\PSoC5/Ignition_1_PM.c **** * Copyright 2008-2014, Cypress Semiconductor Corporation.  All rights reserved.
  13:Generated_Source\PSoC5/Ignition_1_PM.c **** * You may use this file only in accordance with the license, terms, conditions,
ARM GAS  C:\Users\Bruger\AppData\Local\Temp\cchqqFqZ.s 			page 22


  14:Generated_Source\PSoC5/Ignition_1_PM.c **** * disclaimers, and limitations in the end user license agreement accompanying
  15:Generated_Source\PSoC5/Ignition_1_PM.c **** * the software package with which this file was provided.
  16:Generated_Source\PSoC5/Ignition_1_PM.c **** *******************************************************************************/
  17:Generated_Source\PSoC5/Ignition_1_PM.c **** 
  18:Generated_Source\PSoC5/Ignition_1_PM.c **** #include "Ignition_1.h"
  19:Generated_Source\PSoC5/Ignition_1_PM.c **** 
  20:Generated_Source\PSoC5/Ignition_1_PM.c **** static Ignition_1_backupStruct Ignition_1_backup;
  21:Generated_Source\PSoC5/Ignition_1_PM.c **** 
  22:Generated_Source\PSoC5/Ignition_1_PM.c **** 
  23:Generated_Source\PSoC5/Ignition_1_PM.c **** /*******************************************************************************
  24:Generated_Source\PSoC5/Ignition_1_PM.c **** * Function Name: Ignition_1_SaveConfig
  25:Generated_Source\PSoC5/Ignition_1_PM.c **** ********************************************************************************
  26:Generated_Source\PSoC5/Ignition_1_PM.c **** *
  27:Generated_Source\PSoC5/Ignition_1_PM.c **** * Summary:
  28:Generated_Source\PSoC5/Ignition_1_PM.c **** *  Saves the current user configuration of the component.
  29:Generated_Source\PSoC5/Ignition_1_PM.c **** *
  30:Generated_Source\PSoC5/Ignition_1_PM.c **** * Parameters:
  31:Generated_Source\PSoC5/Ignition_1_PM.c **** *  None
  32:Generated_Source\PSoC5/Ignition_1_PM.c **** *
  33:Generated_Source\PSoC5/Ignition_1_PM.c **** * Return:
  34:Generated_Source\PSoC5/Ignition_1_PM.c **** *  None
  35:Generated_Source\PSoC5/Ignition_1_PM.c **** *
  36:Generated_Source\PSoC5/Ignition_1_PM.c **** * Global variables:
  37:Generated_Source\PSoC5/Ignition_1_PM.c **** *  Ignition_1_backup:  Variables of this global structure are modified to
  38:Generated_Source\PSoC5/Ignition_1_PM.c **** *  store the values of non retention configuration registers when Sleep() API is
  39:Generated_Source\PSoC5/Ignition_1_PM.c **** *  called.
  40:Generated_Source\PSoC5/Ignition_1_PM.c **** *
  41:Generated_Source\PSoC5/Ignition_1_PM.c **** *******************************************************************************/
  42:Generated_Source\PSoC5/Ignition_1_PM.c **** void Ignition_1_SaveConfig(void) 
  43:Generated_Source\PSoC5/Ignition_1_PM.c **** {
 295              		.loc 1 43 0
 296              		.cfi_startproc
 297              		@ args = 0, pretend = 0, frame = 0
 298              		@ frame_needed = 0, uses_anonymous_args = 0
 299 0000 10B5     		push	{r4, lr}
 300              		.cfi_def_cfa_offset 8
 301              		.cfi_offset 4, -8
 302              		.cfi_offset 14, -4
  44:Generated_Source\PSoC5/Ignition_1_PM.c **** 
  45:Generated_Source\PSoC5/Ignition_1_PM.c ****     #if(!Ignition_1_UsingFixedFunction)
  46:Generated_Source\PSoC5/Ignition_1_PM.c ****         #if(!Ignition_1_PWMModeIsCenterAligned)
  47:Generated_Source\PSoC5/Ignition_1_PM.c ****             Ignition_1_backup.PWMPeriod = Ignition_1_ReadPeriod();
 303              		.loc 1 47 0
 304 0002 FFF7FEFF 		bl	Ignition_1_ReadPeriod
 305              	.LVL0:
 306 0006 064C     		ldr	r4, .L3
 307 0008 A080     		strh	r0, [r4, #4]	@ movhi
  48:Generated_Source\PSoC5/Ignition_1_PM.c ****         #endif /* (!Ignition_1_PWMModeIsCenterAligned) */
  49:Generated_Source\PSoC5/Ignition_1_PM.c ****         Ignition_1_backup.PWMUdb = Ignition_1_ReadCounter();
 308              		.loc 1 49 0
 309 000a FFF7FEFF 		bl	Ignition_1_ReadCounter
 310              	.LVL1:
  50:Generated_Source\PSoC5/Ignition_1_PM.c ****         #if (Ignition_1_UseStatus)
  51:Generated_Source\PSoC5/Ignition_1_PM.c ****             Ignition_1_backup.InterruptMaskValue = Ignition_1_STATUS_MASK;
 311              		.loc 1 51 0
 312 000e 054B     		ldr	r3, .L3+4
  49:Generated_Source\PSoC5/Ignition_1_PM.c ****         #if (Ignition_1_UseStatus)
ARM GAS  C:\Users\Bruger\AppData\Local\Temp\cchqqFqZ.s 			page 23


 313              		.loc 1 49 0
 314 0010 6080     		strh	r0, [r4, #2]	@ movhi
 315              		.loc 1 51 0
 316 0012 1B78     		ldrb	r3, [r3]	@ zero_extendqisi2
 317 0014 A371     		strb	r3, [r4, #6]
  52:Generated_Source\PSoC5/Ignition_1_PM.c ****         #endif /* (Ignition_1_UseStatus) */
  53:Generated_Source\PSoC5/Ignition_1_PM.c **** 
  54:Generated_Source\PSoC5/Ignition_1_PM.c ****         #if(Ignition_1_DeadBandMode == Ignition_1__B_PWM__DBM_256_CLOCKS || \
  55:Generated_Source\PSoC5/Ignition_1_PM.c ****             Ignition_1_DeadBandMode == Ignition_1__B_PWM__DBM_2_4_CLOCKS)
  56:Generated_Source\PSoC5/Ignition_1_PM.c ****             Ignition_1_backup.PWMdeadBandValue = Ignition_1_ReadDeadTime();
  57:Generated_Source\PSoC5/Ignition_1_PM.c ****         #endif /*  deadband count is either 2-4 clocks or 256 clocks */
  58:Generated_Source\PSoC5/Ignition_1_PM.c **** 
  59:Generated_Source\PSoC5/Ignition_1_PM.c ****         #if(Ignition_1_KillModeMinTime)
  60:Generated_Source\PSoC5/Ignition_1_PM.c ****              Ignition_1_backup.PWMKillCounterPeriod = Ignition_1_ReadKillTime();
  61:Generated_Source\PSoC5/Ignition_1_PM.c ****         #endif /* (Ignition_1_KillModeMinTime) */
  62:Generated_Source\PSoC5/Ignition_1_PM.c **** 
  63:Generated_Source\PSoC5/Ignition_1_PM.c ****         #if(Ignition_1_UseControl)
  64:Generated_Source\PSoC5/Ignition_1_PM.c ****             Ignition_1_backup.PWMControlRegister = Ignition_1_ReadControlRegister();
 318              		.loc 1 64 0
 319 0016 FFF7FEFF 		bl	Ignition_1_ReadControlRegister
 320              	.LVL2:
 321 001a E071     		strb	r0, [r4, #7]
 322 001c 10BD     		pop	{r4, pc}
 323              	.L4:
 324 001e 00BF     		.align	2
 325              	.L3:
 326 0020 00000000 		.word	.LANCHOR0
 327 0024 89640040 		.word	1073767561
 328              		.cfi_endproc
 329              	.LFE0:
 330              		.size	Ignition_1_SaveConfig, .-Ignition_1_SaveConfig
 331              		.section	.text.Ignition_1_RestoreConfig,"ax",%progbits
 332              		.align	2
 333              		.global	Ignition_1_RestoreConfig
 334              		.thumb
 335              		.thumb_func
 336              		.type	Ignition_1_RestoreConfig, %function
 337              	Ignition_1_RestoreConfig:
 338              	.LFB1:
  65:Generated_Source\PSoC5/Ignition_1_PM.c ****         #endif /* (Ignition_1_UseControl) */
  66:Generated_Source\PSoC5/Ignition_1_PM.c ****     #endif  /* (!Ignition_1_UsingFixedFunction) */
  67:Generated_Source\PSoC5/Ignition_1_PM.c **** }
  68:Generated_Source\PSoC5/Ignition_1_PM.c **** 
  69:Generated_Source\PSoC5/Ignition_1_PM.c **** 
  70:Generated_Source\PSoC5/Ignition_1_PM.c **** /*******************************************************************************
  71:Generated_Source\PSoC5/Ignition_1_PM.c **** * Function Name: Ignition_1_RestoreConfig
  72:Generated_Source\PSoC5/Ignition_1_PM.c **** ********************************************************************************
  73:Generated_Source\PSoC5/Ignition_1_PM.c **** *
  74:Generated_Source\PSoC5/Ignition_1_PM.c **** * Summary:
  75:Generated_Source\PSoC5/Ignition_1_PM.c **** *  Restores the current user configuration of the component.
  76:Generated_Source\PSoC5/Ignition_1_PM.c **** *
  77:Generated_Source\PSoC5/Ignition_1_PM.c **** * Parameters:
  78:Generated_Source\PSoC5/Ignition_1_PM.c **** *  None
  79:Generated_Source\PSoC5/Ignition_1_PM.c **** *
  80:Generated_Source\PSoC5/Ignition_1_PM.c **** * Return:
  81:Generated_Source\PSoC5/Ignition_1_PM.c **** *  None
  82:Generated_Source\PSoC5/Ignition_1_PM.c **** *
ARM GAS  C:\Users\Bruger\AppData\Local\Temp\cchqqFqZ.s 			page 24


  83:Generated_Source\PSoC5/Ignition_1_PM.c **** * Global variables:
  84:Generated_Source\PSoC5/Ignition_1_PM.c **** *  Ignition_1_backup:  Variables of this global structure are used to
  85:Generated_Source\PSoC5/Ignition_1_PM.c **** *  restore the values of non retention registers on wakeup from sleep mode.
  86:Generated_Source\PSoC5/Ignition_1_PM.c **** *
  87:Generated_Source\PSoC5/Ignition_1_PM.c **** *******************************************************************************/
  88:Generated_Source\PSoC5/Ignition_1_PM.c **** void Ignition_1_RestoreConfig(void) 
  89:Generated_Source\PSoC5/Ignition_1_PM.c **** {
 339              		.loc 1 89 0
 340              		.cfi_startproc
 341              		@ args = 0, pretend = 0, frame = 0
 342              		@ frame_needed = 0, uses_anonymous_args = 0
 343 0000 10B5     		push	{r4, lr}
 344              		.cfi_def_cfa_offset 8
 345              		.cfi_offset 4, -8
 346              		.cfi_offset 14, -4
  90:Generated_Source\PSoC5/Ignition_1_PM.c ****         #if(!Ignition_1_UsingFixedFunction)
  91:Generated_Source\PSoC5/Ignition_1_PM.c ****             #if(!Ignition_1_PWMModeIsCenterAligned)
  92:Generated_Source\PSoC5/Ignition_1_PM.c ****                 Ignition_1_WritePeriod(Ignition_1_backup.PWMPeriod);
 347              		.loc 1 92 0
 348 0002 074C     		ldr	r4, .L7
 349 0004 A088     		ldrh	r0, [r4, #4]
 350 0006 FFF7FEFF 		bl	Ignition_1_WritePeriod
 351              	.LVL3:
  93:Generated_Source\PSoC5/Ignition_1_PM.c ****             #endif /* (!Ignition_1_PWMModeIsCenterAligned) */
  94:Generated_Source\PSoC5/Ignition_1_PM.c **** 
  95:Generated_Source\PSoC5/Ignition_1_PM.c ****             Ignition_1_WriteCounter(Ignition_1_backup.PWMUdb);
 352              		.loc 1 95 0
 353 000a 6088     		ldrh	r0, [r4, #2]
 354 000c FFF7FEFF 		bl	Ignition_1_WriteCounter
 355              	.LVL4:
  96:Generated_Source\PSoC5/Ignition_1_PM.c **** 
  97:Generated_Source\PSoC5/Ignition_1_PM.c ****             #if (Ignition_1_UseStatus)
  98:Generated_Source\PSoC5/Ignition_1_PM.c ****                 Ignition_1_STATUS_MASK = Ignition_1_backup.InterruptMaskValue;
 356              		.loc 1 98 0
 357 0010 A279     		ldrb	r2, [r4, #6]	@ zero_extendqisi2
 358 0012 044B     		ldr	r3, .L7+4
  99:Generated_Source\PSoC5/Ignition_1_PM.c ****             #endif /* (Ignition_1_UseStatus) */
 100:Generated_Source\PSoC5/Ignition_1_PM.c **** 
 101:Generated_Source\PSoC5/Ignition_1_PM.c ****             #if(Ignition_1_DeadBandMode == Ignition_1__B_PWM__DBM_256_CLOCKS || \
 102:Generated_Source\PSoC5/Ignition_1_PM.c ****                 Ignition_1_DeadBandMode == Ignition_1__B_PWM__DBM_2_4_CLOCKS)
 103:Generated_Source\PSoC5/Ignition_1_PM.c ****                 Ignition_1_WriteDeadTime(Ignition_1_backup.PWMdeadBandValue);
 104:Generated_Source\PSoC5/Ignition_1_PM.c ****             #endif /* deadband count is either 2-4 clocks or 256 clocks */
 105:Generated_Source\PSoC5/Ignition_1_PM.c **** 
 106:Generated_Source\PSoC5/Ignition_1_PM.c ****             #if(Ignition_1_KillModeMinTime)
 107:Generated_Source\PSoC5/Ignition_1_PM.c ****                 Ignition_1_WriteKillTime(Ignition_1_backup.PWMKillCounterPeriod);
 108:Generated_Source\PSoC5/Ignition_1_PM.c ****             #endif /* (Ignition_1_KillModeMinTime) */
 109:Generated_Source\PSoC5/Ignition_1_PM.c **** 
 110:Generated_Source\PSoC5/Ignition_1_PM.c ****             #if(Ignition_1_UseControl)
 111:Generated_Source\PSoC5/Ignition_1_PM.c ****                 Ignition_1_WriteControlRegister(Ignition_1_backup.PWMControlRegister);
 359              		.loc 1 111 0
 360 0014 E079     		ldrb	r0, [r4, #7]	@ zero_extendqisi2
  98:Generated_Source\PSoC5/Ignition_1_PM.c ****             #endif /* (Ignition_1_UseStatus) */
 361              		.loc 1 98 0
 362 0016 1A70     		strb	r2, [r3]
 112:Generated_Source\PSoC5/Ignition_1_PM.c ****             #endif /* (Ignition_1_UseControl) */
 113:Generated_Source\PSoC5/Ignition_1_PM.c ****         #endif  /* (!Ignition_1_UsingFixedFunction) */
 114:Generated_Source\PSoC5/Ignition_1_PM.c ****     }
ARM GAS  C:\Users\Bruger\AppData\Local\Temp\cchqqFqZ.s 			page 25


 363              		.loc 1 114 0
 364 0018 BDE81040 		pop	{r4, lr}
 365              		.cfi_restore 14
 366              		.cfi_restore 4
 367              		.cfi_def_cfa_offset 0
 111:Generated_Source\PSoC5/Ignition_1_PM.c ****             #endif /* (Ignition_1_UseControl) */
 368              		.loc 1 111 0
 369 001c FFF7FEBF 		b	Ignition_1_WriteControlRegister
 370              	.LVL5:
 371              	.L8:
 372              		.align	2
 373              	.L7:
 374 0020 00000000 		.word	.LANCHOR0
 375 0024 89640040 		.word	1073767561
 376              		.cfi_endproc
 377              	.LFE1:
 378              		.size	Ignition_1_RestoreConfig, .-Ignition_1_RestoreConfig
 379              		.section	.text.Ignition_1_Sleep,"ax",%progbits
 380              		.align	2
 381              		.global	Ignition_1_Sleep
 382              		.thumb
 383              		.thumb_func
 384              		.type	Ignition_1_Sleep, %function
 385              	Ignition_1_Sleep:
 386              	.LFB2:
 115:Generated_Source\PSoC5/Ignition_1_PM.c **** 
 116:Generated_Source\PSoC5/Ignition_1_PM.c **** 
 117:Generated_Source\PSoC5/Ignition_1_PM.c **** /*******************************************************************************
 118:Generated_Source\PSoC5/Ignition_1_PM.c **** * Function Name: Ignition_1_Sleep
 119:Generated_Source\PSoC5/Ignition_1_PM.c **** ********************************************************************************
 120:Generated_Source\PSoC5/Ignition_1_PM.c **** *
 121:Generated_Source\PSoC5/Ignition_1_PM.c **** * Summary:
 122:Generated_Source\PSoC5/Ignition_1_PM.c **** *  Disables block's operation and saves the user configuration. Should be called
 123:Generated_Source\PSoC5/Ignition_1_PM.c **** *  just prior to entering sleep.
 124:Generated_Source\PSoC5/Ignition_1_PM.c **** *
 125:Generated_Source\PSoC5/Ignition_1_PM.c **** * Parameters:
 126:Generated_Source\PSoC5/Ignition_1_PM.c **** *  None
 127:Generated_Source\PSoC5/Ignition_1_PM.c **** *
 128:Generated_Source\PSoC5/Ignition_1_PM.c **** * Return:
 129:Generated_Source\PSoC5/Ignition_1_PM.c **** *  None
 130:Generated_Source\PSoC5/Ignition_1_PM.c **** *
 131:Generated_Source\PSoC5/Ignition_1_PM.c **** * Global variables:
 132:Generated_Source\PSoC5/Ignition_1_PM.c **** *  Ignition_1_backup.PWMEnableState:  Is modified depending on the enable
 133:Generated_Source\PSoC5/Ignition_1_PM.c **** *  state of the block before entering sleep mode.
 134:Generated_Source\PSoC5/Ignition_1_PM.c **** *
 135:Generated_Source\PSoC5/Ignition_1_PM.c **** *******************************************************************************/
 136:Generated_Source\PSoC5/Ignition_1_PM.c **** void Ignition_1_Sleep(void) 
 137:Generated_Source\PSoC5/Ignition_1_PM.c **** {
 387              		.loc 1 137 0
 388              		.cfi_startproc
 389              		@ args = 0, pretend = 0, frame = 0
 390              		@ frame_needed = 0, uses_anonymous_args = 0
 391 0000 10B5     		push	{r4, lr}
 392              		.cfi_def_cfa_offset 8
 393              		.cfi_offset 4, -8
 394              		.cfi_offset 14, -4
 138:Generated_Source\PSoC5/Ignition_1_PM.c ****     #if(Ignition_1_UseControl)
ARM GAS  C:\Users\Bruger\AppData\Local\Temp\cchqqFqZ.s 			page 26


 139:Generated_Source\PSoC5/Ignition_1_PM.c ****         if(Ignition_1_CTRL_ENABLE == (Ignition_1_CONTROL & Ignition_1_CTRL_ENABLE))
 395              		.loc 1 139 0
 396 0002 0A4B     		ldr	r3, .L11
 397 0004 0A4C     		ldr	r4, .L11+4
 398 0006 1B78     		ldrb	r3, [r3]	@ zero_extendqisi2
 399 0008 DB09     		lsrs	r3, r3, #7
 400 000a 2370     		strb	r3, [r4]
 140:Generated_Source\PSoC5/Ignition_1_PM.c ****         {
 141:Generated_Source\PSoC5/Ignition_1_PM.c ****             /*Component is enabled */
 142:Generated_Source\PSoC5/Ignition_1_PM.c ****             Ignition_1_backup.PWMEnableState = 1u;
 143:Generated_Source\PSoC5/Ignition_1_PM.c ****         }
 144:Generated_Source\PSoC5/Ignition_1_PM.c ****         else
 145:Generated_Source\PSoC5/Ignition_1_PM.c ****         {
 146:Generated_Source\PSoC5/Ignition_1_PM.c ****             /* Component is disabled */
 147:Generated_Source\PSoC5/Ignition_1_PM.c ****             Ignition_1_backup.PWMEnableState = 0u;
 148:Generated_Source\PSoC5/Ignition_1_PM.c ****         }
 149:Generated_Source\PSoC5/Ignition_1_PM.c ****     #endif /* (Ignition_1_UseControl) */
 150:Generated_Source\PSoC5/Ignition_1_PM.c **** 
 151:Generated_Source\PSoC5/Ignition_1_PM.c ****     /* Stop component */
 152:Generated_Source\PSoC5/Ignition_1_PM.c ****     Ignition_1_Stop();
 401              		.loc 1 152 0
 402 000c FFF7FEFF 		bl	Ignition_1_Stop
 403              	.LVL6:
 404              	.LBB4:
 405              	.LBB5:
  47:Generated_Source\PSoC5/Ignition_1_PM.c ****         #endif /* (!Ignition_1_PWMModeIsCenterAligned) */
 406              		.loc 1 47 0
 407 0010 FFF7FEFF 		bl	Ignition_1_ReadPeriod
 408              	.LVL7:
 409 0014 A080     		strh	r0, [r4, #4]	@ movhi
  49:Generated_Source\PSoC5/Ignition_1_PM.c ****         #if (Ignition_1_UseStatus)
 410              		.loc 1 49 0
 411 0016 FFF7FEFF 		bl	Ignition_1_ReadCounter
 412              	.LVL8:
  51:Generated_Source\PSoC5/Ignition_1_PM.c ****         #endif /* (Ignition_1_UseStatus) */
 413              		.loc 1 51 0
 414 001a 064B     		ldr	r3, .L11+8
  49:Generated_Source\PSoC5/Ignition_1_PM.c ****         #if (Ignition_1_UseStatus)
 415              		.loc 1 49 0
 416 001c 6080     		strh	r0, [r4, #2]	@ movhi
  51:Generated_Source\PSoC5/Ignition_1_PM.c ****         #endif /* (Ignition_1_UseStatus) */
 417              		.loc 1 51 0
 418 001e 1B78     		ldrb	r3, [r3]	@ zero_extendqisi2
 419 0020 A371     		strb	r3, [r4, #6]
  64:Generated_Source\PSoC5/Ignition_1_PM.c ****         #endif /* (Ignition_1_UseControl) */
 420              		.loc 1 64 0
 421 0022 FFF7FEFF 		bl	Ignition_1_ReadControlRegister
 422              	.LVL9:
 423 0026 E071     		strb	r0, [r4, #7]
 424 0028 10BD     		pop	{r4, pc}
 425              	.L12:
 426 002a 00BF     		.align	2
 427              	.L11:
 428 002c 79640040 		.word	1073767545
 429 0030 00000000 		.word	.LANCHOR0
 430 0034 89640040 		.word	1073767561
 431              	.LBE5:
ARM GAS  C:\Users\Bruger\AppData\Local\Temp\cchqqFqZ.s 			page 27


 432              	.LBE4:
 433              		.cfi_endproc
 434              	.LFE2:
 435              		.size	Ignition_1_Sleep, .-Ignition_1_Sleep
 436              		.section	.text.Ignition_1_Wakeup,"ax",%progbits
 437              		.align	2
 438              		.global	Ignition_1_Wakeup
 439              		.thumb
 440              		.thumb_func
 441              		.type	Ignition_1_Wakeup, %function
 442              	Ignition_1_Wakeup:
 443              	.LFB3:
 153:Generated_Source\PSoC5/Ignition_1_PM.c **** 
 154:Generated_Source\PSoC5/Ignition_1_PM.c ****     /* Save registers configuration */
 155:Generated_Source\PSoC5/Ignition_1_PM.c ****     Ignition_1_SaveConfig();
 156:Generated_Source\PSoC5/Ignition_1_PM.c **** }
 157:Generated_Source\PSoC5/Ignition_1_PM.c **** 
 158:Generated_Source\PSoC5/Ignition_1_PM.c **** 
 159:Generated_Source\PSoC5/Ignition_1_PM.c **** /*******************************************************************************
 160:Generated_Source\PSoC5/Ignition_1_PM.c **** * Function Name: Ignition_1_Wakeup
 161:Generated_Source\PSoC5/Ignition_1_PM.c **** ********************************************************************************
 162:Generated_Source\PSoC5/Ignition_1_PM.c **** *
 163:Generated_Source\PSoC5/Ignition_1_PM.c **** * Summary:
 164:Generated_Source\PSoC5/Ignition_1_PM.c **** *  Restores and enables the user configuration. Should be called just after
 165:Generated_Source\PSoC5/Ignition_1_PM.c **** *  awaking from sleep.
 166:Generated_Source\PSoC5/Ignition_1_PM.c **** *
 167:Generated_Source\PSoC5/Ignition_1_PM.c **** * Parameters:
 168:Generated_Source\PSoC5/Ignition_1_PM.c **** *  None
 169:Generated_Source\PSoC5/Ignition_1_PM.c **** *
 170:Generated_Source\PSoC5/Ignition_1_PM.c **** * Return:
 171:Generated_Source\PSoC5/Ignition_1_PM.c **** *  None
 172:Generated_Source\PSoC5/Ignition_1_PM.c **** *
 173:Generated_Source\PSoC5/Ignition_1_PM.c **** * Global variables:
 174:Generated_Source\PSoC5/Ignition_1_PM.c **** *  Ignition_1_backup.pwmEnable:  Is used to restore the enable state of
 175:Generated_Source\PSoC5/Ignition_1_PM.c **** *  block on wakeup from sleep mode.
 176:Generated_Source\PSoC5/Ignition_1_PM.c **** *
 177:Generated_Source\PSoC5/Ignition_1_PM.c **** *******************************************************************************/
 178:Generated_Source\PSoC5/Ignition_1_PM.c **** void Ignition_1_Wakeup(void) 
 179:Generated_Source\PSoC5/Ignition_1_PM.c **** {
 444              		.loc 1 179 0
 445              		.cfi_startproc
 446              		@ args = 0, pretend = 0, frame = 0
 447              		@ frame_needed = 0, uses_anonymous_args = 0
 448 0000 10B5     		push	{r4, lr}
 449              		.cfi_def_cfa_offset 8
 450              		.cfi_offset 4, -8
 451              		.cfi_offset 14, -4
 452              	.LBB8:
 453              	.LBB9:
  92:Generated_Source\PSoC5/Ignition_1_PM.c ****             #endif /* (!Ignition_1_PWMModeIsCenterAligned) */
 454              		.loc 1 92 0
 455 0002 0A4C     		ldr	r4, .L18
 456 0004 A088     		ldrh	r0, [r4, #4]
 457 0006 FFF7FEFF 		bl	Ignition_1_WritePeriod
 458              	.LVL10:
  95:Generated_Source\PSoC5/Ignition_1_PM.c **** 
 459              		.loc 1 95 0
ARM GAS  C:\Users\Bruger\AppData\Local\Temp\cchqqFqZ.s 			page 28


 460 000a 6088     		ldrh	r0, [r4, #2]
 461 000c FFF7FEFF 		bl	Ignition_1_WriteCounter
 462              	.LVL11:
  98:Generated_Source\PSoC5/Ignition_1_PM.c ****             #endif /* (Ignition_1_UseStatus) */
 463              		.loc 1 98 0
 464 0010 074B     		ldr	r3, .L18+4
 465 0012 A279     		ldrb	r2, [r4, #6]	@ zero_extendqisi2
 111:Generated_Source\PSoC5/Ignition_1_PM.c ****             #endif /* (Ignition_1_UseControl) */
 466              		.loc 1 111 0
 467 0014 E079     		ldrb	r0, [r4, #7]	@ zero_extendqisi2
  98:Generated_Source\PSoC5/Ignition_1_PM.c ****             #endif /* (Ignition_1_UseStatus) */
 468              		.loc 1 98 0
 469 0016 1A70     		strb	r2, [r3]
 111:Generated_Source\PSoC5/Ignition_1_PM.c ****             #endif /* (Ignition_1_UseControl) */
 470              		.loc 1 111 0
 471 0018 FFF7FEFF 		bl	Ignition_1_WriteControlRegister
 472              	.LVL12:
 473              	.LBE9:
 474              	.LBE8:
 180:Generated_Source\PSoC5/Ignition_1_PM.c ****      /* Restore registers values */
 181:Generated_Source\PSoC5/Ignition_1_PM.c ****     Ignition_1_RestoreConfig();
 182:Generated_Source\PSoC5/Ignition_1_PM.c **** 
 183:Generated_Source\PSoC5/Ignition_1_PM.c ****     if(Ignition_1_backup.PWMEnableState != 0u)
 475              		.loc 1 183 0
 476 001c 2378     		ldrb	r3, [r4]	@ zero_extendqisi2
 477 001e 03B9     		cbnz	r3, .L17
 478 0020 10BD     		pop	{r4, pc}
 479              	.L17:
 184:Generated_Source\PSoC5/Ignition_1_PM.c ****     {
 185:Generated_Source\PSoC5/Ignition_1_PM.c ****         /* Enable component's operation */
 186:Generated_Source\PSoC5/Ignition_1_PM.c ****         Ignition_1_Enable();
 187:Generated_Source\PSoC5/Ignition_1_PM.c ****     } /* Do nothing if component's block was disabled before */
 188:Generated_Source\PSoC5/Ignition_1_PM.c **** 
 189:Generated_Source\PSoC5/Ignition_1_PM.c **** }
 480              		.loc 1 189 0
 481 0022 BDE81040 		pop	{r4, lr}
 482              		.cfi_restore 14
 483              		.cfi_restore 4
 484              		.cfi_def_cfa_offset 0
 186:Generated_Source\PSoC5/Ignition_1_PM.c ****     } /* Do nothing if component's block was disabled before */
 485              		.loc 1 186 0
 486 0026 FFF7FEBF 		b	Ignition_1_Enable
 487              	.LVL13:
 488              	.L19:
 489 002a 00BF     		.align	2
 490              	.L18:
 491 002c 00000000 		.word	.LANCHOR0
 492 0030 89640040 		.word	1073767561
 493              		.cfi_endproc
 494              	.LFE3:
 495              		.size	Ignition_1_Wakeup, .-Ignition_1_Wakeup
 496              		.bss
 497              		.align	2
 498              		.set	.LANCHOR0,. + 0
 499              		.type	Ignition_1_backup, %object
 500              		.size	Ignition_1_backup, 8
 501              	Ignition_1_backup:
ARM GAS  C:\Users\Bruger\AppData\Local\Temp\cchqqFqZ.s 			page 29


 502 0000 00000000 		.space	8
 502      00000000 
 503              		.text
 504              	.Letext0:
 505              		.file 2 "Generated_Source\\PSoC5\\cytypes.h"
 506              		.file 3 "Generated_Source\\PSoC5\\Ignition_1.h"