ARM GAS  C:\Users\Bruger\AppData\Local\Temp\ccusA8cR.s 			page 1


   1              		.syntax unified
   2              		.cpu cortex-m3
   3              		.fpu softvfp
   4              		.eabi_attribute 20, 1
   5              		.eabi_attribute 21, 1
   6              		.eabi_attribute 23, 3
   7              		.eabi_attribute 24, 1
   8              		.eabi_attribute 25, 1
   9              		.eabi_attribute 26, 1
  10              		.eabi_attribute 30, 2
  11              		.eabi_attribute 34, 1
  12              		.eabi_attribute 18, 4
  13              		.thumb
  14              		.file	"Ignition_Timer_1.c"
  15              		.text
  16              	.Ltext0:
  17              		.section	.gnu.lto_.profile.1d796bfc,"",%progbits
  18 0000 789C6366 		.ascii	"x\234cf```a\200\000F\206\022O\000\001\245\000\306"
  18      60606061 
  18      80004686 
  18      124F0001 
  18      A500C6
  19              		.text
  20              		.section	.gnu.lto_.jmpfuncs.1d796bfc,"",%progbits
  21 0000 789C6D8B 		.ascii	"x\234m\213I\016\300 \014\003'b+\224\355K}\031_\207\250"
  21      490EC020 
  21      0C032762 
  21      2B94ED4B 
  21      7D195F87 
  22 0015 396269EC 		.ascii	"9bi\354\271\330q\317g;\017b8\360\020DdEH\360\250f\255"
  22      B9D871CF 
  22      673B0F62 
  22      38F01044 
  22      644548F0 
  23 002c A2F54285 		.ascii	"\242\365B\205\246\332a\374\347\015h\220\003f"
  23      A6DA61FC 
  23      E70D6890 
  23      0366
  24              		.text
  25              		.section	.gnu.lto_.inline.1d796bfc,"",%progbits
  26 0000 789C6DCB 		.ascii	"x\234m\313\273\015\302@\020\004\320\271\337r\334\031"
  26      BB0DC240 
  26      1004D0B9 
  26      DF72DC19 
  27 0010 DB0D2037 		.ascii	"\333\015 7\200\310i\300\241\233\240\027bJp\025\324A"
  27      80C869C0 
  27      A19BA017 
  27      624A7015 
  27      D441
  28 0022 408C881D 		.ascii	"@\214\210\035\271\004\326B\332d\330`Fz\243\015\370\177"
  28      B904D642 
  28      DA64D860 
  28      467AA30D 
  28      F87F
  29 0034 A3FB750F 		.ascii	"\243\373u\017\034?p\360\247\333;C\346\301o\352+\340"
  29      1C3F70F0 
  29      A7DB3B43 
ARM GAS  C:\Users\Bruger\AppData\Local\Temp\ccusA8cR.s 			page 2


  29      E6C16FEA 
  29      2BE0
  30 0046 EED356BA 		.ascii	"\356\323V\272\325F\367v\271\332\354\212F\200$uY\317"
  30      D546F776 
  30      B9DAEC8A 
  30      46802475 
  30      59CF
  31 0058 E6912921 		.ascii	"\346\221)!\006%\377\354\214\004)*\305y0\332!_\224\312"
  31      0625FFEC 
  31      8C04292A 
  31      C57930DA 
  31      215F94CA 
  32 006c E3256699 		.ascii	"\343%f\231?\367L\205\25125L\007\246\226\251c\352\231"
  32      3FF74C85 
  32      A932354C 
  32      07A696A9 
  32      63EA99
  33 007f F005135A 		.ascii	"\360\005\023Z \241"
  33      20A1
  34              		.text
  35              		.section	.gnu.lto_.pureconst.1d796bfc,"",%progbits
  36 0000 789C25C1 		.ascii	"x\234%\3017\022\000 \014\004\261cL\216\256\267\343\377"
  36      37120020 
  36      0C04B163 
  36      4C8EAEB7 
  36      E3FF
  37 0012 9FA44032 		.ascii	"\237\244@2IW\237\213\200\021Id\012\225Fg0Yl\016\316"
  37      49579F8B 
  37      80114964 
  37      0A954667 
  37      30596C0E 
  38 0027 03282F02 		.ascii	"\003(/\002["
  38      5B
  39              		.text
  40              		.section	.gnu.lto_Ignition_Timer_1_Init.1d796bfc,"",%progbits
  41 0000 789C8D96 		.ascii	"x\234\215\226[LTW\024\206\367\332\347\314\205\201\231"
  41      5B4C5457 
  41      1486F7DA 
  41      E7CC8581 
  41      99
  42 0011 E1D20725 		.ascii	"\341\322\007%i|\340\301\266iMj\342\213\257M\3234M\023"
  42      697CE0C1 
  42      B6694D6A 
  42      E28BAF4D 
  42      D3344D13 
  43 0025 53FAD4D8 		.ascii	"S\372\324\330\020\002\223f\222\012d2\364\315x\0163b"
  43      10029366 
  43      920A6432 
  43      F4CD780E 
  43      3362
  44 0037 63285262 		.ascii	"c(Rb\221\200\200M\261U\221\273\250\310m\200\"\227A\256"
  44      9180804D 
  44      B15591BB 
  44      A8C86D80 
  44      229741AE 
  45 004b E5222283 		.ascii	"\345\"\"\2032\010\364\001\2133\255\216\267\351\332\373"
  45      3208F401 
ARM GAS  C:\Users\Bruger\AppData\Local\Temp\ccusA8cR.s 			page 3


  45      8B33AD8E 
  45      B7E9DAFB 
  46 005b 9C199819 		.ascii	"\234\031\230\031lJ\302\346\234}\326Z\373\377\326^{m"
  46      6C4AC2E6 
  46      9C7DD65A 
  46      FBFFD65E 
  46      7B6D
  47 006d 0412FBF3 		.ascii	"\004\022\373\3631\376\352\342\010\371\016\377\202\226"
  47      31FEEAE2 
  47      08F90EFF 
  47      8296
  48 007b 002D1923 		.ascii	"\000-\031#D\326S\020\225\007Ay\350\325\213T(\032$D2"
  48      44D65310 
  48      95074179 
  48      E8D58B54 
  48      281A2444 
  49 0090 689C3A22 		.ascii	"h\234:\"%h\000\330<\001r\202\012\242\006NPQ\011\270"
  49      256800D8 
  49      3C017282 
  49      0AA2064E 
  49      505109B8 
  50 00a4 41B72894 		.ascii	"A\267(\224\270\352\312\343\367_\224$\351\257\276\266"
  50      B8EACAE3 
  50      F75F9424 
  50      E9AFBEB6 
  51 00b4 3D27F704 		.ascii	"='\367\004(!>\252\030\300o\260\237\240\315Kg\343\003"
  51      28213EAA 
  51      18C06FB0 
  51      9FA0CD4B 
  51      67E303
  52 00c7 B3F001B0 		.ascii	"\263\360\001\260\347\027\265\247\275\206\264\237%\251"
  52      E717B5A7 
  52      BD86B49F 
  52      25A9
  53 00d5 60B97165 		.ascii	"`\271qe0^*\227\234\313\301\340\276\000\005\270\004\002"
  53      305E2A97 
  53      9CCBC1E0 
  53      BE0005B8 
  53      0402
  54 00e7 7AC2FBA9 		.ascii	"z\302\373\251\360n\252\252\031\035\352\232\236\227P"
  54      F06EAAAA 
  54      191DEA9A 
  54      9E9750
  55 00f6 E12077DE 		.ascii	"\341 w\336X\237\227\265\212s\327\312H\204\363\225]\235"
  55      589F97B5 
  55      8A73D7CA 
  55      4884F395 
  55      5D9D
  56 0108 B79CAFE6 		.ascii	"\267\234\257\346\342\265NT\227\010\227!\015\352 MQ\007"
  56      E2B54E54 
  56      97089721 
  56      0DEA204D 
  56      5107
  57 011a 57410B84 		.ascii	"WA\013\204\320\320lc\262K\012\006}\263?\256\037\246"
  57      D0D06C63 
  57      B24B0A06 
  57      7DB33FAE 
ARM GAS  C:\Users\Bruger\AppData\Local\Temp\ccusA8cR.s 			page 4


  57      1FA6
  58 012c 7B290950 		.ascii	"{)\011P*\020\366Md\217Z6\350\330\020\307\006\003\033"
  58      2A10F64D 
  58      648F5A36 
  58      E8D810C7 
  58      06031B
  59 013f 8C6C30E1 		.ascii	"\214l0\341\000f\034\204$\302\242$\263\311\0246\020\342"
  59      00661C84 
  59      24C2A224 
  59      B3C91436 
  59      10E2
  60 0151 C55FCCDF 		.ascii	"\305_\314\337*>;u\302\002\364\375sz\263\372\010[\367"
  60      2A3E3B75 
  60      C202F4FD 
  60      737AB3FA 
  60      085BF7
  61 0164 2965896B 		.ascii	")e\211k\361w\227\231\327i\200\212\301!Y\022\231Z\217"
  61      F1779799 
  61      D769808A 
  61      C1215912 
  61      995A8F
  62 0177 777C52CF 		.ascii	"w|R\317\247\270\370\363\336F\217\246\012*e'\004\250"
  62      A7B8F8F3 
  62      DE468FA6 
  62      0A2A6527 
  62      04A8
  63 0189 06EA2115 		.ascii	"\006\352!\025\032\000\341\240\021\252\200,\200\343Y"
  63      1A00E1A0 
  63      11AA802C 
  63      80E359
  64 0198 A11F9480 		.ascii	"\241\037\224\200\202\022\263\276\265\343>\260\000\340"
  64      8212B3BE 
  64      B5E33EB0 
  64      00E0
  65 01a6 02024D68 		.ascii	"\002\002Mh<\013\224\243\"\012Z1'\177\341\353\352\263"
  65      3C0B94A3 
  65      220A5A31 
  65      277FE1EB 
  65      EAB3
  66 01b8 AA9B8873 		.ascii	"\252\233\210s\3506?t\356\020\363B<hF'\024[\312-\"D\310"
  66      E8363F74 
  66      EE10F342 
  66      3C684627 
  66      145BCA2D 
  67 01cf AEBD9132 		.ascii	"\256\275\2212ZP\006\306 \234m\354\322-5(\363\032\255"
  67      5A5006C6 
  67      209C6DEC 
  67      D22D3528 
  67      F31AAD
  68 01e2 ADECD272 		.ascii	"\255\354\322r\222\352a\025nl\364Fk\3026Mk8\3145\225"
  68      92EA6115 
  68      6E6CF446 
  68      6BC2364D 
  68      6B38CC35 
  69 01f7 C6AF55FC 		.ascii	"\306\257U\374uJ\210\301\252\365\026\221\253B\224\266"
  69      754A88C1 
  69      AAF51691 
ARM GAS  C:\Users\Bruger\AppData\Local\Temp\ccusA8cR.s 			page 5


  69      AB4294B6 
  70 0207 28556F0C 		.ascii	"(Uo\014v\235k\322)\232\246\336Q\"\306\241\307\223\256"
  70      769D6BD2 
  70      299AA6DE 
  70      5122C6A1 
  70      C793AE
  71 021a BF659E1A 		.ascii	"\277e\236\032\261&\244\350\345\243\3612a;\310\215p\220"
  71      B126A4E8 
  71      E5A3F132 
  71      613BC88D 
  71      7090
  72 022c 9B518A0C 		.ascii	"\233Q\212\014\030\"F\302\033\275\333\271\004C(\365L"
  72      182246C2 
  72      1BBDDBB9 
  72      044328F5 
  72      4C
  73 023d EDB0C32E 		.ascii	"\355\260\303.|\301+\330\375\360\231/\201\311\320&\262"
  73      7CC12BD8 
  73      FDF0992F 
  73      81C9D026 
  73      B2
  74 024e D78AB955 		.ascii	"\327\212\271U\277\300^u\224\275^,\352\220\215J}_\355"
  74      BFC05E75 
  74      94BD5E2C 
  74      EA908D4A 
  74      7D5FED
  75 0261 CF74155C 		.ascii	"\317t\025\\\220^\007\203\030^\200[Jyw\340*\235\020*"
  75      905E0783 
  75      185E805B 
  75      4A7977E0 
  75      2A9D102A 
  76 0275 70E88234 		.ascii	"p\350\2024\364rL\267\005y\020a\310\2036\335\212\320"
  76      F4724CB7 
  76      05791061 
  76      C88336DD 
  76      8AD0
  77 0287 B2E6B932 		.ascii	"\262\346\2712!\342\010\270*\014\314\203\327\276\217"
  77      21E208B8 
  77      2A0CCC83 
  77      D7BE8F
  78 0296 42D4F920 		.ascii	"B\324\371 \320\203]\201`\3450\311\375k\003\367\214,"
  78      D0835D81 
  78      60E530C9 
  78      FD6B03F7 
  78      8C2C
  79 02a8 A6FEFC44 		.ascii	"\246\376\374Dtu\352yu\316\017\027\257P\306\177V\326"
  79      7475EA79 
  79      75CE0F17 
  79      AF50C67F 
  79      56D6
  80 02ba 07303FBD 		.ascii	"\0070?\275(\255\217'\240\037\023\300U\314B\001\247\014"
  80      28AD8F27 
  80      A01F13C0 
  80      55CC4201 
  80      A70C
  81 02cc B66E4DEA 		.ascii	"\266nM\352\204\257\370\212'\275\323\2275\273\"\376\276"
  81      84AFF88A 
ARM GAS  C:\Users\Bruger\AppData\Local\Temp\ccusA8cR.s 			page 6


  81      27BDD397 
  81      35BB22FE 
  81      BE
  82 02dd 2BE2009E 		.ascii	"+\342\000\236\317\020\321\326\332\271(\242\346\021\312"
  82      CF10D1D6 
  82      DAB928A2 
  82      E611CA
  83 02ec 2C54241A 		.ascii	",T$\032\203t\233#\015r\244Q\337O\036\252 M\252H\303"
  83      83749B23 
  83      0D72A451 
  83      DF4F1EAA 
  83      204DAA48 
  84 0301 53D32ED8 		.ascii	"S\323.\330\3010\024f\030\216fp\225\016O\030\205L\316"
  84      C1301466 
  84      188E6670 
  84      950E4F18 
  84      854CCE
  85 0314 F0A4F6CF 		.ascii	"\360\244\366\317M\363\256\014#\2732\270\3716\215O8\032"
  85      4DF3AE0C 
  85      23BB32B8 
  85      F9368D4F 
  85      381A
  86 0326 78FE04E9 		.ascii	"x\376\004\3519\226\364hh\233\356\224\037\216\204\272"
  86      3996F468 
  86      689BEE94 
  86      1F8E84BA 
  87 0336 6E601E2A 		.ascii	"n`\036*\223\020\303t\2073\215q\246\331\345\342Q\003"
  87      9310C374 
  87      87338D71 
  87      A6D9E5E2 
  87      5103
  88 0348 675A0C6D 		.ascii	"gZ\014mSY\333\306\214f\007\323x\230i\2021\215\356`:"
  88      5359DBC6 
  88      8C6607D3 
  88      78986982 
  88      318DEE60 
  89 035d B3FCEAA6 		.ascii	"\263\374\352\246V\260r\246\202\336\013\245\341\322\373"
  89      56B072A6 
  89      82DE0BA5 
  89      E1D2FB
  90 036c DA258798 		.ascii	"\332%\207\230\000&c;+Lq\"\371\327\216\"\035?\24285\035"
  90      0026633B 
  90      2B4C7122 
  90      F9D78E22 
  90      1D3FA238 
  91 0382 E2795C71 		.ascii	"\342y\\q0\222\307o`\366*\217\030\303\363\007\347\231"
  91      3092C76F 
  91      60F62A8F 
  91      18C3F307 
  91      E799
  92 0394 E13C033D 		.ascii	"\341<\003=\335\225J\007<\023:\245+\236\315&m\230G\003"
  92      DD954A07 
  92      3C133AA5 
  92      2B9ECD26 
  92      6D984703 
  93 03a8 B3E18336 		.ascii	"\263\341\2036\307x\330\262\213\340p\325\270\017(\207"
  93      C778D8B2 
ARM GAS  C:\Users\Bruger\AppData\Local\Temp\ccusA8cR.s 			page 7


  93      8BE070D5 
  93      B80F2887 
  94 03b8 35097DAA 		.ascii	"5\011}\252\247\213\033\350\361\027\322\367\022\272\030"
  94      A78B1BE8 
  94      F117D2F7 
  94      12BA18
  95 03c7 7C5483D6 		.ascii	"|T\203\326\363p\034\033s|\270#\326\261\216\230\2446"
  95      F3701C1B 
  95      737CB823 
  95      D6B18E98 
  95      A436
  96 03d9 AFFA4EB5 		.ascii	"\257\372N\265y%\377\327\311\276\033\325\027R\024\373"
  96      7925FFD7 
  96      C9BE1BD5 
  96      175214FB 
  97 03e9 F099A648 		.ascii	"\360\231\246H\263\360\177\333\304=\336&RP\274\323\325"
  97      B3F07FDB 
  97      C43DDE26 
  97      5250BCD3 
  97      D5
  98 03fa EE363173 		.ascii	"\35661s\022-=\301GYn\026Q:j\015\340\245C\360B\021\010"
  98      122D3DC1 
  98      47596E16 
  98      513A6A0D 
  98      E0A543F0 
  99 0411 5ECFCA8D 		.ascii	"^\317\312\215r\333\375\21362\331\223n\223\232i]L\246"
  99      72DBFD8B 
  99      3632D993 
  99      6E939A69 
  99      5D4CA6
 100 0424 EFB34C47 		.ascii	"\357\263LG\232\267.\275E`\211\231\353c\314=|c\226\031"
 100      9AB72EBD 
 100      45608999 
 100      EB63CC3D 
 100      7C639619 
 101 0438 A919BFD5 		.ascii	"\251\031\277\325\270\213\353yO7uNF\267\004\023\217{"
 101      B88BEB79 
 101      4F37754E 
 101      46B70413 
 101      8F7B
 102 044a AAB0F994 		.ascii	"\252\260\371\224)\274Ufx\200\260\0179\354\012\313\034"
 102      29BC5566 
 102      7880B00F 
 102      39EC0ACB 
 102      1C
 103 045b D32E12FC 		.ascii	"\323.\022\374_B\321>\326\036\255\275\246\372mUL\\\214"
 103      5F42D13E 
 103      D61EADBD 
 103      A6FA6D55 
 103      4C5C8C
 104 046e 182F17B3 		.ascii	"\030/\027\263\312\304\230\360[\3175y\300\304VN|\034"
 104      CAC498F0 
 104      5BCF3579 
 104      C0C4564E 
 104      7C1C
 105 0480 737B2672 		.ascii	"s{&r1\253?\254\225\350\302b\222\340\021\212Y\343b\326"
 105      31AB3FAC 
ARM GAS  C:\Users\Bruger\AppData\Local\Temp\ccusA8cR.s 			page 8


 105      95E8C262 
 105      92E0118A 
 105      59E362D6 
 106 0494 B7AF4FCA 		.ascii	"\267\257O\312\226{J\215\030\224\357\334\0148\357:\256"
 106      967B4A8D 
 106      1894EFDC 
 106      0C38EF3A 
 106      AE
 107 04a5 803ACB8B 		.ascii	"\200:\313\213\213p\335\032v\211/\201\354\232\373\214"
 107      8B70DD1A 
 107      76892F81 
 107      EC9AFB8C 
 108 04b5 EF146117 		.ascii	"\357\024a\027<\340$\226\376{\237Xr,\266L\273%;#=7\337"
 108      3CE02496 
 108      FE7B9F58 
 108      722CB64C 
 108      BB253B23 
 109 04cc 9665397A 		.ascii	"\226e9z$=\367\243CG?\375&\307j\267\346\346d|i=f\261"
 109      243DF7A3 
 109      43473FFD 
 109      26C76AB7 
 109      E6E6647C 
 110 04e4 657C7820 		.ascii	"e|x \213\210Yv\333\267\373\242?dXs\354\026\233-?\317"
 110      8B885976 
 110      DBB7FBA2 
 110      3F645873 
 110      EC169B2D 
 111 04fa 9E6EC730 		.ascii	"\236n\3070\272\254\334|6\241\315\263\330\254\271\331"
 111      BAACDC7C 
 111      36A1CDB3 
 111      D8ACB9D9 
 112 050a F87A2C2F 		.ascii	"\370z,/\323f1\206\255>\317\315\266\374\013\023\020a"
 112      D3663186 
 112      AD3ECFCD 
 112      B6FC0B13 
 112      1061
 113 051c 68       		.ascii	"h"
 114              		.text
 115              		.section	.gnu.lto_Ignition_Timer_1_Start.1d796bfc,"",%progbits
 116 0000 789C7D91 		.ascii	"x\234}\221Oh\023A\024\306\3377\263\335l\255\240\010"
 116      4F681341 
 116      14C6DF37 
 116      B3DD6CAD 
 116      A008
 117 0012 BDF4906B 		.ascii	"\275\364\220k\241\210\"\342\305\253\240\324S\241\036"
 117      A18822E2 
 117      C5ABA0D4 
 117      53A11E
 118 0021 0B41EAD2 		.ascii	"\013A\352\322\346`\002\241\036CgM\020\021\221\262\326"
 118      E66002A1 
 118      1E43674D 
 118      101191B2 
 118      D6
 119 0032 22367AB3 		.ascii	"\"6z\263V\253\375\353\037\210\265\254\236D\260R\304"
 119      56ABFDEB 
 119      1F88B5AC 
 119      9E44B052 
ARM GAS  C:\Users\Bruger\AppData\Local\Temp\ccusA8cR.s 			page 9


 119      C4
 120 0043 3F54D14B 		.ascii	"?T\321K\012zKMQ\202\224\370\336\254X\032\321\205\235"
 120      0A7A4B4D 
 120      518294F8 
 120      DEAC581A 
 120      D1859D
 121 0056 D97DF3BD 		.ascii	"\331}\363\275o~\363\215\246\277\237\203\374\016*\242"
 121      6F7EF38D 
 121      A6BF9F83 
 121      FC0E2AA2 
 122 0066 BD3CA385 		.ascii	"\275<\243\205\240F\226\211\002O)]N\222\331\341\274\335"
 122      A0469689 
 122      024F295D 
 122      4E92D9E1 
 122      BCDD
 123 0078 4F66A786 		.ascii	"Of\247\206\023\227\035@>\0104\254\264\203a|U\353\012"
 123      13971D40 
 123      3E0834AC 
 123      B483617C 
 123      55EB0A
 124 008b 23D1D4D5 		.ascii	"#\321\324\325\266\316\233\306\230\352\267\227AO\204"
 124      B6CE9BC6 
 124      98EAB797 
 124      414F84
 125 009a 3A1BD654 		.ascii	":\033\326T\274\001n\241\223X\264^\334|\327\346\026Y"
 125      BC016EA1 
 125      9358B45E 
 125      DC7CD7E6 
 125      1659
 126 00ac B43B5EC3 		.ascii	"\264;^\303$\\\360<\263'2\215\306\302\342\323\320m\325"
 126      245CF03C 
 126      B327328D 
 126      C6C2E2D3 
 126      D06DD5
 127 00bf 545748C8 		.ascii	"TWH\310\340\311@Ta\245\354\270\246\224\314z\025g\303"
 127      E0C94054 
 127      61A5ECB8 
 127      A694CC7A 
 127      1567C3
 128 00d2 B927DDD2 		.ascii	"\271'\335\322\373Ci\266\275\361\372\322\264\312\377"
 128      FB4369B6 
 128      BDF1FAD2 
 128      B4CAFF
 129 00e1 34E78D57 		.ascii	"4\347\215WWjS\214\271\372\271\362j\305\373\242\270b"
 129      576A538C 
 129      B9FAB9F2 
 129      6AC5FBA2 
 129      B862
 130 00f3 7F278362 		.ascii	"\177'\203b\011\3271\036\030Qi\334F\036w\320\301\014"
 130      09D7311E 
 130      185169DC 
 130      461E77D0 
 130      C10C
 131 0105 535CA637 		.ascii	"S\\\2467(\276/$\267<\203\211\307\027\023\322\315\000"
 131      28BE2F24 
 131      B73C8389 
 131      C71713D2 
ARM GAS  C:\Users\Bruger\AppData\Local\Temp\ccusA8cR.s 			page 10


 131      CD00
 132 0117 B82B3A12 		.ascii	"\270+:\022\002M\345\244\376\210BT\367EK\315\273;5\333"
 132      024DE5A4 
 132      FE884254 
 132      F7454BCD 
 132      BB3B35DB 
 133 012b 700F7966 		.ascii	"p\017yfo!F\255V\227\216\213\364\237\234\315`\323\177"
 133      6F2146AD 
 133      56978E8B 
 133      F49F9CCD 
 133      60D37F
 134 013e C066B8CC 		.ascii	"\300f\270\314\202\225k\023\205]\202\242A\230\265(k\312"
 134      82956B13 
 134      855D82A2 
 134      4198B528 
 134      6BCA
 135 0150 F91DC5B3 		.ascii	"\371\035\305\263\357\027^\034\336\026m\324h\267\271"
 135      EF175E1C 
 135      DE166DD4 
 135      68B7B9
 136 015f D6F8E04D 		.ascii	"\326\370\340M\231c\216\221\011\363r\310\004\257\315"
 136      99638E91 
 136      09F372C8 
 136      04AFCD
 137 016e 6F2C8D59 		.ascii	"o,\215Yg\267\361<0\316\266\324\\\013\027~\250\224<\201"
 137      67B7F13C 
 137      30CEB6D4 
 137      5C0B177E 
 137      A8943C81 
 138 0182 1B0D182E 		.ascii	"\033\015\030.\201\005t\340\276\205{ \251\255\242\260"
 138      810574E0 
 138      BE857B20 
 138      A9ADA2B0 
 139 0192 716EB93C 		.ascii	"qn\271<\212\330\323\213m\257,\226\302V\233\235a\342"
 139      8AD8D38B 
 139      6DAF2C96 
 139      C2569B9D 
 139      61E2
 140 01a4 872C67CE 		.ascii	"\207,g\316\320j\376k\371\210-\331\204>!\210.\037\265"
 140      D06AFE6B 
 140      F9882DD9 
 140      843E2188 
 140      2E1FB5
 141 01b7 F9925C3F 		.ascii	"\371\222\\?\344\254\234V\3271?\343\347N\016\371\247"
 141      E4AC9C56 
 141      D7313FE3 
 141      E74E0EF9 
 141      A7
 142 01c8 52BDD933 		.ascii	"R\275\3313\271~\277\257\2477{\344P_\367@&=\224\316f"
 142      B97EBFAF 
 142      A7377BE4 
 142      505FF740 
 142      263D94CE 
 143 01dd 5227D2A7 		.ascii	"R'\322\247\375\\\352\300\276~\372\005\010\203\353\211"
 143      FD5CEAC0 
 143      BE7EFA05 
 143      0883EB89 
ARM GAS  C:\Users\Bruger\AppData\Local\Temp\ccusA8cR.s 			page 11


 144              		.text
 145              		.section	.gnu.lto_Ignition_Timer_1_Enable.1d796bfc,"",%progbits
 146 0000 789C6366 		.ascii	"x\234cf\300\004R@\254\306\310\300\240\003\244\031\231"
 146      C0045240 
 146      ACC6C8C0 
 146      A003A419 
 146      99
 147 0011 19189926 		.ascii	"\031\030\231&\234c`h\344`bd\0041\030\030\031\352\231"
 147      9C636068 
 147      E4606264 
 147      04311818 
 147      19EA99
 148 0024 18EB195F 		.ascii	"\030\353\031_2}db\234p`\365\014n\365\245\015\015\015"
 148      327D6462 
 148      9C7060F5 
 148      0C6EF5A5 
 148      0D0D0D
 149 0037 1F3E7D94 		.ascii	"\037>}\224h\225\370\311\304\300\360\231\011b\014\343"
 149      6895F8C9 
 149      C4C0F099 
 149      09620CE3 
 150 0047 72467506 		.ascii	"rFu\006\240\232\217-\177\257s\263\265\000\325\010@\344"
 150      A09A8F2D 
 150      7FAF73B3 
 150      B500D508 
 150      40E4
 151 0059 185730B2 		.ascii	"\030W0\262\001\215gX/t\240\341\377\377\315g&\277\320"
 151      018D6758 
 151      2F74A0E1 
 151      FFFFCD67 
 151      26BFD0
 152 006c 62666562 		.ascii	"bfeb\370\311\004\264\014H00<\001\252\002Y\365\224\211"
 152      F8C904B4 
 152      0C483030 
 152      3C01AA02 
 152      59F59489 
 153 0080 094433DF 		.ascii	"\011D3\337b<\364\255\353\334\256)\214 \235\337\231@"
 153      623CF4AD 
 153      EBDCAE29 
 153      8C209DDF 
 153      9940
 154 0092 166FFAB2 		.ascii	"\026o\372\262o\032\377\013\246\237LL\377O46\260\200"
 154      6F1AFF0B 
 154      A69F4C4C 
 154      FF4F3436 
 154      B080
 155 00a4 ECB9FFE4 		.ascii	"\354\271\377\344\374E\016\260\020\003\210;\347\311\372"
 155      FC450EB0 
 155      1003883B 
 155      E7C9FA
 156 00b3 FBAC7319 		.ascii	"\373\254s\031g7\2660\376dbf\\\311(\305\270\212\021\350"
 156      6737B630 
 156      FE646266 
 156      5CC928C5 
 156      B88A11E8 
 157 00c7 35C6D58C 		.ascii	"5\306\325\214s\031\031n16\177a\203\030\307\0141q\352"
 157      7319196E 
ARM GAS  C:\Users\Bruger\AppData\Local\Temp\ccusA8cR.s 			page 12


 157      31367F61 
 157      8318C70C 
 157      3171EA
 158 00da 9E399338 		.ascii	"\2369\2238A\332\031\033\030\031\030\327\000\225\002"
 158      41DA191B 
 158      181918D7 
 158      009502
 159 00e9 AD9D04B6 		.ascii	"\255\235\004\266\022\237ik\201\246\001\315`\270\307"
 159      129F696B 
 159      81A601CD 
 159      60B8C7
 160 00f8 D878E0BA 		.ascii	"\330x\340\272\037H5\310\357O\200\336\000\272\034\350"
 160      1F4835C8 
 160      EF4F80DE 
 160      00BA1CE8 
 161 0108 122DF7D4 		.ascii	"\022-\367\324\274\324\242\304\222\324\224\370\340\374"
 161      BCD4A2C4 
 161      92D494F8 
 161      E0FC
 162 0116 D2A2E4D4 		.ascii	"\322\242\344\324\230\200\340|g\323\030\317\364\274\314"
 162      9880E07C 
 162      67D318CF 
 162      F4BCCC
 163 0125 92CCFCBC 		.ascii	"\222\314\374\274\370\220\314\334\324\242xC\275d\006"
 163      F890CCDC 
 163      D4A27843 
 163      BD6406
 164 0134 006C5676 		.ascii	"\000lVv\363"
 164      F3
 165              		.text
 166              		.section	.gnu.lto_Ignition_Timer_1_Stop.1d796bfc,"",%progbits
 167 0000 789C6366 		.ascii	"x\234cf\300\004R@\254\312\310\300\240\003\244\031\231"
 167      C0045240 
 167      ACCAC8C0 
 167      A003A419 
 167      99
 168 0011 19189926 		.ascii	"\031\030\231&\234c`h\344`bd\0041\030\030\031\352\231"
 168      9C636068 
 168      E4606264 
 168      04311818 
 168      19EA99
 169 0024 18EB195F 		.ascii	"\030\353\031_2}db\234p`\365\014n\365\245\015\015\015"
 169      327D6462 
 169      9C7060F5 
 169      0C6EF5A5 
 169      0D0D0D
 170 0037 1F26FD96 		.ascii	"\037&\375\226h\225\370\311\304\300\360\231\011b\014"
 170      6895F8C9 
 170      C4C0F099 
 170      09620C
 171 0046 E3724675 		.ascii	"\343rFu\006\240\232\217-\177\257s\263\265\000\325\010"
 171      06A09A8F 
 171      2D7FAF73 
 171      B3B500D5 
 171      08
 172 0057 40E41857 		.ascii	"@\344\030W0\262\001\215gX/t\240\341\377\377\315o'wX"
 172      30B2018D 
ARM GAS  C:\Users\Bruger\AppData\Local\Temp\ccusA8cR.s 			page 13


 172      67582F74 
 172      A0E1FFFF 
 172      CD6F2777 
 173 006c 33B33231 		.ascii	"3\26321\374d\002Z\006$\030\030\236\000U\201\254z\312"
 173      FC64025A 
 173      06241818 
 173      9E005581 
 173      AC7ACA
 174 007f C404A299 		.ascii	"\304\004\242\231o1\036\372\326\365l\357\024F\220\316"
 174      6F311EFA 
 174      D6F56CEF 
 174      144690CE 
 175 008f EF4C208B 		.ascii	"\357L \2137}\3317\215\377\005\323O&\246\377'\032\033"
 175      377DD937 
 175      8DFF05D3 
 175      4F26A6FF 
 175      271A1B
 176 00a2 5840F6DC 		.ascii	"X@\366\334\177r\376\"\007X\210\001\304\235\363d\375"
 176      7F72FE22 
 176      07588801 
 176      C49DF364 
 176      FD
 177 00b3 7DD6B98C 		.ascii	"}\326\271\214\263\033[\030\177213\256d\224b\\\305\010"
 177      B31B5B18 
 177      7F323133 
 177      AE649462 
 177      5CC508
 178 00c6 F41AE36A 		.ascii	"\364\032\343j\306\271\214\014\267\030\233\177\260A\214"
 178      C6B98C0C 
 178      B7189B7F 
 178      B0418C
 179 00d5 63869838 		.ascii	"c\206\2308\377\345\277\027, \355\314\365\014\214k\200"
 179      FFE5BF17 
 179      2C20EDCC 
 179      F50C8C6B 
 179      80
 180 00e6 2A81B64E 		.ascii	"*\201\266N\002\333\210\317\260\265@\303\200F0\334cl"
 180      02DB88CF 
 180      B0B540C3 
 180      804630DC 
 180      636C
 181 00f8 3C70D31F 		.ascii	"<p\323\037\244\032\344\365'@_\000\035\016t\210\226{"
 181      A41AE4F5 
 181      27405F00 
 181      1D0E7488 
 181      967B
 182 010a 6A5E6A51 		.ascii	"j^jQbIjJ|p~iQrjL@p\276\263i\214gz^fIf~^|HfnjQ\274\241"
 182      62496A4A 
 182      7C707E69 
 182      51726A4C 
 182      4070BEB3 
 183 0130 5E320300 		.ascii	"^2\003\000\014xwz"
 183      0C78777A 
 184              		.text
 185              		.section	.gnu.lto_Ignition_Timer_1_WriteCounter.1d796bfc,"",%progbits
 186 0000 789C654F 		.ascii	"x\234eO\277KBQ\030\375\316}f\202E\322\350.RQ\020\324"
 186      BF4B4251 
ARM GAS  C:\Users\Bruger\AppData\Local\Temp\ccusA8cR.s 			page 14


 186      18FDCE7D 
 186      668245D2 
 186      E82E5251 
 187 0016 1E34445B 		.ascii	"\0364D[`\243`a\217p\310\007\217\347\354\265\374\003"
 187      60A36061 
 187      8F70C807 
 187      8FE7ECB5 
 187      FC03
 188 0028 1C42A2B2 		.ascii	"\034B\242\262%\242\037VV\264\264\204\024\015\021X\015"
 188      25A21F56 
 188      56B4B484 
 188      140D1158 
 188      0D
 189 0039 F9402121 		.ascii	"\371@!!\224\214\226\304\240\034\302\276\233c\027.\337"
 189      948C96C4 
 189      A01CC2BE 
 189      9B63172E 
 189      DF
 190 004a 770EE79E 		.ascii	"w\016\347\236s\256F\377\217\227\357\000\210\306xB#\210"
 190      73AE46FF 
 190      8F97EF00 
 190      88C67842 
 190      2388
 191 005c 548128E1 		.ascii	"T\201(\341\022\200Z\010\024\027\210\343M4\004R\371\354"
 191      12805A08 
 191      141788E3 
 191      4D340452 
 191      F9EC
 192 006e 9ADBBF23 		.ascii	"\232\333\277#\245\3748{\212\310\325\271\226 j\212\216"
 192      A5FC387B 
 192      8AC8D5B9 
 192      96206A8A 
 192      8E
 193 007f 0F76E167 		.ascii	"\017v\341gM\341v\305\322\206A\274\336\275|7{\352\242"
 193      4DE176C5 
 193      D28641BC 
 193      DEBD7C37 
 193      7BEAA2
 194 0092 25E05170 		.ascii	"%\340Qp\335\256}j\012\012\241\340\205}\271\325\347\333"
 194      DDAE7D6A 
 194      0A0AA1E0 
 194      857DB9D5 
 194      E7DB
 195 00a4 9672395F 		.ascii	"\226r9_9\221\023\314k\330\203\306v\330\207\027\007\360"
 195      399113CC 
 195      6BD883C6 
 195      76D88717 
 195      07F0
 196 00b6 1253842C 		.ascii	"\022S\204,|J\336H\376\330ng\222\263=\235H\034\302\311"
 196      7C4ADE48 
 196      FED86E67 
 196      92B33D9D 
 196      481CC2C9 
 197 00ca B529D79F 		.ascii	"\265)\327\237\227\355v\263X\254\0179\035\334Z\351\251"
 197      97ED76B3 
 197      58AC0F39 
 197      1DDC5AE9 
ARM GAS  C:\Users\Bruger\AppData\Local\Temp\ccusA8cR.s 			page 15


 197      A9
 198 00db CA0A55BF 		.ascii	"\312\012U\277\306Y<\265\022\256\322\247vZS\217\330\354"
 198      C6593CB5 
 198      12AED2A7 
 198      765A538F 
 198      D8EC
 199 00ed FAF5A6DC 		.ascii	"\372\365\246\334\253\25286\037\022\322\241\374+\325"
 199      ABAA3836 
 199      1F12D2A1 
 199      FC2BD5
 200 00fc FB47D71F 		.ascii	"\373G\327\037E\012\276\247\313\347\256\0146\022I\264"
 200      450ABEA7 
 200      CBE7AE0C 
 200      361249B4 
 201 010c 44178EB8 		.ascii	"D\027\216\270\32117\"\344\220\301\027\273>#\221\257"
 201      D1313722 
 201      E490C117 
 201      BB3E2391 
 201      AF
 202 011d 94843254 		.ascii	"\224\2042T\277\257\012\250 \216\035\234\322\243\272"
 202      BFAF0AA8 
 202      208E1D9C 
 202      D2A3BA
 203 012c 396FE90B 		.ascii	"9o\351\013\241\200\0213\303zp&`L\216\007\247\027\243"
 203      A1801133 
 203      C37A7026 
 203      604C8E07 
 203      A717A3
 204 013f 112B6244 		.ascii	"\021+bDC\263\221%\335\014\215\216\204\251;l\304\242"
 204      43B39125 
 204      DD0C8D8E 
 204      84A93B6C 
 204      C4A2
 205 0151 966EFE02 		.ascii	"\226n\376\002\201c\200\015"
 205      8163800D 
 206              		.text
 207              		.section	.gnu.lto_Ignition_Timer_1_ReadCounter.1d796bfc,"",%progbits
 208 0000 789C658F 		.ascii	"x\234e\217\317K\002Q\020\307gf\267M\250@:\366\017H\021"
 208      CF4B0251 
 208      10C76766 
 208      B74DA840 
 208      3AF60F48 
 209 0015 41451DBA 		.ascii	"AE\035\272v\210N\005v\024$l\011\017)\211\235}\033{*"
 209      76884E05 
 209      7614246C 
 209      090F2989 
 209      9D7D1B7B 
 210 002a 8888A05F 		.ascii	"\210\210\240_X]\242\262\314\240c\035\244K\202`H\220"
 210      585DA2B2 
 210      CCA0631D 
 210      A44B8260 
 210      4890
 211 003c 5151200A 		.ascii	"QQ \012\025\030\211e\356!\354\315\326\251\036\014\363"
 211      15188965 
 211      EE21ECCD 
 211      D6A91E0C 
 211      F3
ARM GAS  C:\Users\Bruger\AppData\Local\Temp\ccusA8cR.s 			page 16


 212 004d BEEFCD7C 		.ascii	"\276\357\315|\346;\012\374?m2F\020\240SfT\000i1\003"
 212      E63B0AFC 
 212      3F6D3246 
 212      10A05366 
 212      54006931 
 213 0062 60380891 		.ascii	"`8\010\221/\200\020!\214\3403\225\011\323\371Z\245\371"
 213      2F801021 
 213      8CE03395 
 213      09D3F95A 
 213      A5F9
 214 0074 892C0227 		.ascii	"\211,\002'H\271\236+\276+,\221X\236V2y\315\265#\304"
 214      48B99E2B 
 214      BE2B2C91 
 214      589E5632 
 214      79CDB523 
 215 0089 ECDBD2DD 		.ascii	"\354\333\322\335\364\352\3626ZDP!\300]l\303=\344A\270"
 215      F4EAF236 
 215      5A445021 
 215      C05D6CC3 
 215      3DE441B8 
 216 009d 8F2EAE2D 		.ascii	"\217.\256-\233_\271&\315\024B8\271B~\304P\223& \321"
 216      9B5FB926 
 216      CD144238 
 216      B9427EC4 
 216      50932620 
 217 00b2 9A14F5FA 		.ascii	"\232\024\365\372I\351:5\240\251\004\026)\0120\006\012"
 217      49E93A35 
 217      A0A90416 
 217      290A3006 
 217      0A
 218 00c3 32D85051 		.ascii	"2\330PQ\012\231\225[<\257\316UK\375\334\370I\354\356"
 218      0A99955B 
 218      3CAFCE55 
 218      4BFDDCF8 
 218      49ECEE
 219 00d6 DEBC7A69 		.ascii	"\336\274zia;\352f\312\020*\217y,\\f\035\366\023\260"
 219      613BEA66 
 219      CA102A8F 
 219      792C5C66 
 219      1DF613B0 
 220 00ea ACC5E62F 		.ascii	"\254\305\346/(\212\033\206)\2555\340\201\264u\310\266"
 220      288A1B86 
 220      29AD35E0 
 220      81B475C8 
 220      B6
 221 00fb 308E5104 		.ascii	"0\216Q\004\233\230y\355\371!*\262~+\275\020\327\270"
 221      9B9879ED 
 221      F9212AB2 
 221      7E2BBD10 
 221      D7B8
 222 010d 5D3BCBFE 		.ascii	"];\313\376%j6q\345\346cM\265\211F\262\335\242F<\222"
 222      256A3671 
 222      E5E6634D 
 222      B58946B2 
 222      DDA2463C 
 223 0122 CC84CD3C 		.ascii	"\314\204\315<f\346\003\032\242\367\027\010\274\004\262"
 223      66E6031A 
ARM GAS  C:\Users\Bruger\AppData\Local\Temp\ccusA8cR.s 			page 17


 223      A2F71708 
 223      BC04B2
 224 0131 79B94AC7 		.ascii	"y\271J\307\220\036\320C\343a}\302\353\016\316\204|\272"
 224      901ED043 
 224      E3617DC2 
 224      EB0ECE84 
 224      7CBA
 225 0143 67D41D1C 		.ascii	"g\324\035\034\354\363\014O\006\374a\1770\340\035\363"
 225      ECF30C4F 
 225      06FC617F 
 225      30E01DF3 
 226 0153 4FE9216F 		.ascii	"O\351!ow\227\017\276\001\350\226\216\015"
 226      77970FBE 
 226      01E8968E 
 226      0D
 227              		.text
 228              		.section	.gnu.lto_Ignition_Timer_1_ClearFIFO.1d796bfc,"",%progbits
 229 0000 789C6591 		.ascii	"x\234e\221\317K\033A\024\307\337{\263;\033j\220\"\236"
 229      CF4B1B41 
 229      14C7DF7B 
 229      B33B1B6A 
 229      90229E
 230 0013 04CF82A8 		.ascii	"\004\317\202\250\320\203\177\201\224\322\233\240G!\212"
 230      D0837F81 
 230      94D29BA0 
 230      47218A
 231 0022 2E928309 		.ascii	".\222\203\011\204x\310)\273dQ\020\225\034\004\205\242"
 231      8478C829 
 231      BB645110 
 231      951C0485 
 231      A2
 232 0033 1EC4DFBF 		.ascii	"\036\304\337\277\215 b\301\030\020\205\200b\241\024"
 232      8D2062C1 
 232      18108580 
 232      62A114
 233 0042 3D449004 		.ascii	"=D\220\004\353\311\206\210\232\203\350\233])\250\013"
 233      EBC98688 
 233      9A83E89B 
 233      5D29A80B 
 234 0052 3B33FBE6 		.ascii	";3\373\346\303\367}fV\300\307\347+\277\267\010\320\300"
 234      C3F77D66 
 234      56C0C7E7 
 234      2BBFB708 
 234      D0C0
 235 0064 334A404A 		.ascii	"3J@J\236\000\330>B\315[\010oq\340\323H\014\037\001X"
 235      9E00D83E 
 235      42CD5B08 
 235      6F71E0D3 
 235      480C1F01 
 236 0079 9F74C700 		.ascii	"\237t\307\000\313\257#\252: \304Ih:\306I\363\002o\250"
 236      CBAF23AA 
 236      3A20C449 
 236      683AC649 
 236      F3026FA8 
 237 008d 48984C2F 		.ascii	"H\230L/OT\324\315Z\226\365\357W1f\215u\226\011\240D"
 237      4F54D4CD 
 237      5A96F5EF 
ARM GAS  C:\Users\Bruger\AppData\Local\Temp\ccusA8cR.s 			page 18


 237      5731668D 
 237      759609A0 
 238 00a2 1E81F358 		.ascii	"\036\201\363X\007\014\025\235\247?\025\322a\350\263"
 238      070C159D 
 238      A73F15D2 
 238      61E8B3
 239 00b1 B7870B28 		.ascii	"\267\207\013(Y\005\326\253\322\326\363s\352h<\321\030"
 239      5905D6AB 
 239      D2D6F373 
 239      EA683CD1 
 239      18
 240 00c2 9302CA2C 		.ascii	"\223\002\312,\303\003\351<\010\200<\243\254\220'\342"
 240      C303E93C 
 240      08803CA3 
 240      AC9027E2 
 241 00d2 4914B8C4 		.ascii	"I\024\270\304^\342\0023\367C\231\254x\223\233N\345\252"
 241      5EE20233 
 241      F74399AC 
 241      78939B4E 
 241      E5AA
 242 00e4 DDD412E1 		.ascii	"\335\324\022\341\373\216\270\310\307\005\\B\371@\032"
 242      FB8EB8C8 
 242      C7055C42 
 242      F9401A
 243 00f3 EF4D6747 		.ascii	"\357MgGW\345_*\223\366\363\314\2664\205_\346O\317|n"
 243      57E55F2A 
 243      93F6F3CC 
 243      B634855F 
 243      E64FCF7C 
 244 0108 09D4E7E0 		.ascii	"\011\324\347\340\300\346`\345$\376\260\307l_\231t\\"
 244      C0E660E5 
 244      24FEB0C7 
 244      6C5F9974 
 244      5C
 245 0119 C61A5CC1 		.ascii	"\306\032\\\301\032\016Y\305I\345]`\220/\305s9\331\235"
 245      1A0E59C5 
 245      49E55D60 
 245      902FC573 
 245      39D99D
 246 012c 916F65A6 		.ascii	"\221oe\246\247j_e\350\203\314\232+\263\256d\324\021"
 246      A76A5F65 
 246      E883CC9A 
 246      2BB3AE64 
 246      D411
 247 013e F6B7EDC3 		.ascii	"\366\267\355\303J\325Y\336\036\277\227\221\256La\344"
 247      4AD559DE 
 247      1EBF9791 
 247      AE4C61E4 
 248 014e 3A69FC97 		.ascii	":i\374\2271p\203e6]\231-%s\201\211\307\201;R\355\036"
 248      31708365 
 248      365D992D 
 248      25738189 
 248      C7813B52 
 249 0164 48F742B3 		.ascii	"H\367B\263W\217%\277J\020\3340\305\354ot\316\023K\370"
 249      578F25BF 
 249      4A10DC30 
 249      C5EC6F74 
ARM GAS  C:\Users\Bruger\AppData\Local\Temp\ccusA8cR.s 			page 19


 249      CE134BF8 
 250 0178 0A3161CF 		.ascii	"\0121a\317\355\015\033.\3019\333*\315=\225\256.:\207"
 250      ED0D1B2E 
 250      C139DB2A 
 250      CD3D95AE 
 250      2E3A87
 251 018b 767A27E7 		.ascii	"vz'\347W\260\252\346\371F\035\203\177E\37573dF\272\242"
 251      57B0AAE6 
 251      F9461D83 
 251      7F45FD37 
 251      336446BA 
 252 01a0 664FA02D 		.ascii	"fO\240-\334\037\3516;Z\333\302-\315\035\337{C\301h0"
 252      DC1FE936 
 252      3B5ADBC2 
 252      2DCD1DDF 
 252      7B43C168 
 253 01b5 1C0AB407 		.ascii	"\034\012\264\007\373\314H\340KS7\274\000K\215\306r"
 253      FBCC48E0 
 253      4B5337BC 
 253      004B8DC6 
 253      72
 254              		.text
 255              		.section	.gnu.lto_Ignition_Timer_1_WritePeriod.1d796bfc,"",%progbits
 256 0000 789C654F 		.ascii	"x\234eO=HBQ\030\375\316\275\246\202A\322T\356b\004\005"
 256      3D484251 
 256      18FDCEBD 
 256      A68241D2 
 256      54EE6204 
 257 0015 1135070D 		.ascii	"\0215\007\015\321\026\330(<B\037\361\206|!6\373\014"
 257      D116D828 
 257      3C421FF1 
 257      867C2136 
 257      FB0C
 258 0027 DB1A5CCA 		.ascii	"\333\032\\\312\250\204(\"\313\312\300\251\355QcR8\204"
 258      A8842822 
 258      CBCAC0A9 
 258      ED516352 
 258      3884
 259 0039 6090104A 		.ascii	"`\220\020J?S\017\203r\010\373n\215]\270|\3379\234{\316"
 259      3F530F83 
 259      7208FB6E 
 259      8D5DB87C 
 259      DF399C7B 
 260 004e B992FE9F 		.ascii	"\271\222\376\237\000\337!\020\215\363\204$\210\354-"
 260      00DF2110 
 260      8DF38424 
 260      88EC2D
 261 005d 51DA2B00 		.ascii	"Q\332+\000\265\020(%\220\302\253p\004\262vq\313\027"
 261      B5102825 
 261      90C2AB70 
 261      04B27671 
 261      CB17
 262 006f 3AB42CEB 		.ascii	":\264,\353}\2773\2706\320\021Dm\361g\203#\204X\322-"
 262      7DBF33B8 
 262      36D01144 
 262      6DF16783 
 262      238458D2 
ARM GAS  C:\Users\Bruger\AppData\Local\Temp\ccusA8cR.s 			page 20


 263 0084 3B558F1C 		.ascii	";U\217\034\001\361~\363\364\325\356}\021\035\001\277"
 263      01F17EF3 
 263      F4D5EE7D 
 263      111D01BF 
 264 0094 82DBB5D6 		.ascii	"\202\333\265\326\207TP\010\005\357\337\036\366\274\301"
 264      87545008 
 264      05EFDF1E 
 264      F6BCC1
 265 00a3 03CB5AB5 		.ascii	"\003\313Z\265\353\027\326\024\363\022\005H\366\3031"
 265      EB17D614 
 265      F3120548 
 265      F6C331
 266 00b2 02384180 		.ascii	"\0028A\200\230\"\024\021Tr'\363]\363\2713\234\355\377"
 266      98221411 
 266      547227F3 
 266      5DF3B933 
 266      9CEDFF
 267 00c5 CBC429DC 		.ascii	"\313\304)\334\\\233J\375\266\325\355\266[\271\302\244"
 267      5C9B4AFD 
 267      B6D5EDB6 
 267      5BB9C2A4 
 268 00d5 C7C5AD95 		.ascii	"\307\305\255\225\236\232\254P\365[\234\305S\326q\265"
 268      9E9AAC50 
 268      F55B9CC5 
 268      53D671B5 
 269 00e5 E93CE7A4 		.ascii	"\351<\347\244z\304f\225\366FC\250*\256\335j\332r)\377"
 269      7AC46695 
 269      F64643A8 
 269      2AAEDD6A 
 269      DA7229FF 
 270 00f9 46F3AEEA 		.ascii	"F\363\256\352\375\245H\301\365\353\312e_\036;\351\014"
 270      FDA548C1 
 270      F5EBCA65 
 270      5F1E3BE9 
 270      0C
 271 010a 3AA20767 		.ascii	":\242\007g\334\350\234\033\021J\310\343\223]\037\221"
 271      DCE89C1B 
 271      114AC8E3 
 271      935D1F91 
 272 011a B6CB9AF2 		.ascii	"\266\313\232\362S\277o\012\250\034N\035\236\321\343"
 272      53BF6F0A 
 272      A81C4E1D 
 272      9ED1E3
 273 0129 7A6221A9 		.ascii	"zb!\251\307\264\260\271\222\210\352\221\271\2609=\021"
 273      C7B4B0B9 
 273      9288EA91 
 273      B9B0393D 
 273      11
 274 013a 995D8C1B 		.ascii	"\231]\214\033I\303\214k\363\306\222\236\320\306F\243"
 274      49C38C6B 
 274      F3C6929E 
 274      D0C646A3 
 275 014a E45ED613 		.ascii	"\344^\326\023\206\031\373\001+\\~\227"
 275      8619FB01 
 275      2B5C7E97 
 276              		.text
 277              		.section	.gnu.lto_Ignition_Timer_1_WriteCompare.1d796bfc,"",%progbits
ARM GAS  C:\Users\Bruger\AppData\Local\Temp\ccusA8cR.s 			page 21


 278 0000 789C654F 		.ascii	"x\234eOMKBQ\020\235\271\327L4AZ\272\027#*\020j\323*"
 278      4D4B4251 
 278      109DB9D7 
 278      4C34415A 
 278      BA17232A 
 279 0018 6811ED02 		.ascii	"h\021\355\002[\012&\366\010\027\372\342ak\357\013)p"
 279      5B0A26F6 
 279      0817FAE2 
 279      616BEF0B 
 279      2970
 280 002a 11161152 		.ascii	"\021\026\021R\270\012\351\303\312>\376\300\303MD\037"
 280      B80AE9C3 
 280      CA3EFEC0 
 280      C34D441F 
 281 003a 5A8BAC88 		.ascii	"Z\213\254\210\014Q(\332(\006\345\"ln.\273p\2319\207"
 281      0C5128DA 
 281      2806E522 
 281      6C6E2EBB 
 281      70993987 
 282 004e 9973CE70 		.ascii	"\231s\316p\370\377\234\364\007\020`\230*r@\226\274\001"
 282      F8FF9CF4 
 282      07106098 
 282      2A724096 
 282      BC01
 283 0060 D02D0C51 		.ascii	"\320-\014Q6\200\020c\030\303w\326`\2304\262)\233;#\204"
 283      36801063 
 283      18C377D6 
 283      609834B2 
 283      299B3B23 
 284 0075 A8E75797 		.ascii	"\250\347W\227\354b}\246\305\000\232\254#\204;\350\246"
 284      EC627DA6 
 284      C5009AAC 
 284      23843BE8 
 284      A6
 285 0086 2163EDA2 		.ascii	"!c\355\242h\347\203\010\324_V\276\233=o\254\305\320"
 285      68E78308 
 285      D45F56BE 
 285      9B3D6FAC 
 285      C5D0
 286 0098 21E166A9 		.ascii	"!\341f\251\366\311%dL\302\323\314\335\207\325\265-\304"
 286      F6C92564 
 286      4CC2D3CC 
 286      DD87D5B5 
 286      2DC4
 287 00aa A2513E16 		.ascii	"\242Q>\026c\304s\334ENz\270\207N\334G'\020\005\230E"
 287      63C473DC 
 287      454E7AB8 
 287      874EDC47 
 287      27100598 
 288 00bf 971C6FC4 		.ascii	"\227\034o\304\177J6s\234\334\035\035O<@3\005\207\\\257"
 288      7F4A3673 
 288      9CDC1D1D 
 288      4F3C4033 
 288      05875CAF 
 289 00d3 21DAEDB3 		.ascii	"!\332\355\263\363T\302\223\340&\012.\027\240J#\362\202"
 289      F354C293 
 289      E0260A2E 
ARM GAS  C:\Users\Bruger\AppData\Local\Temp\ccusA8cR.s 			page 22


 289      17A04A23 
 289      F282
 290 00e5 1A9951E5 		.ascii	"\032\231Q\345O\230\3378\271N\215\312-R\273\177]\271"
 290      4F98DF38 
 290      B94E8DCA 
 290      2D52BB7F 
 290      5DB9
 291 00f7 B2CA2CA6 		.ascii	"\262\312,\246\347\242.L\322\240\\-\334Z\376(\220\260"
 291      E7A22E4C 
 291      D2A05C2D 
 291      DC5AFE28 
 291      90B0
 292 0109 505F7EB0 		.ascii	"P_~\260\244qK\217c\213u\341!E:\242H\2009L\343\027\251"
 292      A4714B8F 
 292      638B75E1 
 292      21453AA2 
 292      4880394C 
 293 0120 BEA06E3C 		.ascii	"\276\240n<V\372\244\240\274\277\312P\032\221m\377\204"
 293      56FAA4A0 
 293      BCBFCA50 
 293      1A916DFF 
 293      84
 294 0131 1251B440 		.ascii	"\022Q\264@T\231\365{\325\005-\250\370\246\274\352\370"
 294      5499F57B 
 294      D5052DA8 
 294      F8A6BCEA 
 294      F8
 295 0142 886F722E 		.ascii	"\210or.\022\212\206\324\210\177:\024V4\277g(\010\335"
 295      128A86D4 
 295      887F3A14 
 295      5634BF67 
 295      2808DD
 296 0155 41353C1F 		.ascii	"A5<\037\320\224_g7\200\204"
 296      D0945F67 
 296      378084
 297              		.text
 298              		.section	.gnu.lto_Ignition_Timer_1_SetInterruptMode.1d796bfc,"",%progbits
 299 0000 789C6366 		.ascii	"x\234cf\300\004R@\314\303\310\300`\005\244\031\231\031"
 299      C0045240 
 299      CCC3C8C0 
 299      6005A419 
 299      9919
 300 0012 1899269C 		.ascii	"\030\231&\234c`h\344`bd\0041\030\030\031\352\231\030"
 300      636068E4 
 300      60626404 
 300      31181819 
 300      EA9918
 301 0025 EB195F32 		.ascii	"\353\031_2}db\234p`\365\014n\365\245\015\015\015\037"
 301      7D64629C 
 301      7060F50C 
 301      6EF5A50D 
 301      0D0D1F
 302 0038 0EDD6EE3 		.ascii	"\016\335n\343m\230\222\360\223\211\201\3413\023\304"
 302      6D9892F0 
 302      938981E1 
 302      3313C4
 303 0047 20C6E58C 		.ascii	" \306\345\214\352@E\375\017\376\356`c\326ed\000\262"
ARM GAS  C:\Users\Bruger\AppData\Local\Temp\ccusA8cR.s 			page 23


 303      EA4045FD 
 303      0FFEEE60 
 303      63D66564 
 303      00B2
 304 0059 4F7DFAF6 		.ascii	"O}\372\366\216IuqCC\323\201W\353\032\034\030\177\002"
 304      8E497571 
 304      4343D381 
 304      57EB1A1C 
 304      187F02
 305 006c 4D5DC1C8 		.ascii	"M]\301\310\014\324\301\250#\305\250)\305\000\024``\\"
 305      0CD4C1A8 
 305      23C5A829 
 305      C5001460 
 305      605C
 306 007e C9A80A52 		.ascii	"\311\250\012R\374\261\345\357un\266\026\240\351\002"
 306      FCB1E5EF 
 306      756EB616 
 306      A0E902
 307 008d 10331957 		.ascii	"\0203\031W1\262\001\035\306\260^\350@\303\377\377\237"
 307      31B2011D 
 307      C6B05EE8 
 307      40C3FFFF 
 307      9F
 308 009e DFCDEAB2 		.ascii	"\337\315\352\262]\313\314\0024\002\244\201\341\011P"
 308      5DCBCC02 
 308      3402A481 
 308      E10950
 309 00ad 09C8854F 		.ascii	"\011\310\205O\231\230@4\363-\306C\3236\276\237e\004"
 309      99984034 
 309      F32DC643 
 309      D336BE9F 
 309      6504
 310 00bf D20534ED 		.ascii	"\322\0054\355\350\376}\2639^0\375db\352?\331\330\300"
 310      E8FE7DB3 
 310      395E30FD 
 310      6462EA3F 
 310      D9D8C0
 311 00d2 02B2E0FE 		.ascii	"\002\262\340\376\223\363\027!B\014 n\343\273\367OX\347"
 311      93F31721 
 311      420C206E 
 311      E3BBF74F 
 311      58E7
 312 00e4 32CE6E6C 		.ascii	"2\316nl\001\272\213\231q5\243\024\343\032F`h0\256e\234"
 312      01BA8B99 
 312      7135A314 
 312      E31A4660 
 312      6830AE65 
 313 00f9 CBF81DA8 		.ascii	"\313\370\035\250\350\036c\343\201\375\2575@\006\202"
 313      E81E63E3 
 313      81FDAF35 
 313      400682
 314 0108 FCF704E8 		.ascii	"\374\367\004\350V\240E@\315Z\356\251y\251E\211%\251"
 314      56A04540 
 314      CD5AEEA9 
 314      79A94589 
 314      25A9
 315 011a 29F1C1F9 		.ascii	")\361\301\371\245E\311\2511\001\301\371\316\2461\236"
ARM GAS  C:\Users\Bruger\AppData\Local\Temp\ccusA8cR.s 			page 24


 315      A545C9A9 
 315      3101C1F9 
 315      CEA6319E 
 316 012a E9799925 		.ascii	"\351y\231%\231\371y\361!\231\271\251E\361\206z\311\014"
 316      99F979F1 
 316      2199B9A9 
 316      45F1867A 
 316      C90C
 317 013c BC997925 		.ascii	"\274\231y%\251EE\245\005%\276\371)\251\000\036\220v"
 317      A94545A5 
 317      0525BEF9 
 317      29A9001E 
 317      9076
 318 014e 6C       		.ascii	"l"
 319              		.text
 320              		.section	.gnu.lto_Ignition_Timer_1_ReadStatusRegister.1d796bfc,"",%progbits
 321 0000 789C6366 		.ascii	"x\234cf\300\004R@|\013\210u\200\230\221\231\201\221"
 321      C0045240 
 321      7C0B8875 
 321      80989199 
 321      8191
 322 0012 69C23906 		.ascii	"i\3029\006\206F\016&FF\020\203\201\221\241\236\211\261"
 322      86460E26 
 322      46461083 
 322      8191A19E 
 322      89B1
 323 0024 9EF125D3 		.ascii	"\236\361%\323G&\3063;\377]fT_\332\320\320\364\341\323"
 323      4726C633 
 323      3BFF5D66 
 323      545FDAD0 
 323      D0F4E1D3 
 324 0038 C763BCD3 		.ascii	"\307c\274\323\247$\374db`\370\314\304\300\250#\305\250"
 324      A724FC64 
 324      6260F8CC 
 324      C4C0A823 
 324      C5A8
 325 004a 09328871 		.ascii	"\0112\210q9\243:\003P\345\307\226\277\327\271\331Z\032"
 325      39A33A03 
 325      50E5C796 
 325      BFD7B9D9 
 325      5A1A
 326 005c 1A1A0440 		.ascii	"\032\032\004@\362@\211\025\214l\214@z\275\320\201\206"
 326      F2408915 
 326      8C6C8C40 
 326      7ABDD081 
 326      86
 327 006d FFFF379F 		.ascii	"\377\3777\237\231\335\245\271\223\231\231\211\001d\000"
 327      99DDA5B9 
 327      93999989 
 327      016400
 328 007c C3132001 		.ascii	"\303\023 \001\262\354)\023\023\210f\276\305x\350[\327"
 328      B2EC2913 
 328      138866BE 
 328      C578E85B 
 328      D7
 329 008d B99D8BD9 		.ascii	"\271\235\213\331@\272\2763\201\254\336\277\245\361("
 329      40BABE33 
ARM GAS  C:\Users\Bruger\AppData\Local\Temp\ccusA8cR.s 			page 25


 329      81ACDEBF 
 329      A5F128
 330 009c DF0BA69F 		.ascii	"\337\013\246\237L\214\357O46\260\200\354\270\377\344"
 330      4C8CEF4F 
 330      3436B080 
 330      ECB8FFE4 
 331 00ac FC450EB0 		.ascii	"\374E\016\260\020\003\210\333\361dE\013\357\\\306\331"
 331      100388DB 
 331      F164450B 
 331      EF5CC6D9 
 332 00bc 8D2D8D07 		.ascii	"\215-\215\0074\177211\256d\224b\\\305\010t\025\343j"
 332      347F3231 
 332      31AE6494 
 332      625CC508 
 332      7415E36A 
 333 00d0 C6B98C0C 		.ascii	"\306\271\214\014\367\030\033\033\214\241\006\202\355"
 333      F7181B1B 
 333      8CA10682 
 333      ED
 334 00dd 6404D905 		.ascii	"d\004\331\005dj\271\247\346\245\026%\226\244\246\304"
 334      646AB9A7 
 334      E6A51625 
 334      96A4A6C4 
 335 00ed 07E79716 		.ascii	"\007\347\227\026%\247\306\004\004\347;\233\306x\246"
 335      25A7C604 
 335      04E73B9B 
 335      C678A6
 336 00fc E7659664 		.ascii	"\347e\226d\346\347\305\207d\346\246\026\305\033\352"
 336      E6E7C587 
 336      64E6A616 
 336      C51BEA
 337 010b 25330000 		.ascii	"%3\000\000\233\005`\325"
 337      9B0560D5 
 338              		.text
 339              		.section	.gnu.lto_Ignition_Timer_1_ReadControlRegister.1d796bfc,"",%progbits
 340 0000 789C654F 		.ascii	"x\234eO;HBQ\030\376\277sK\304\350A\243\253\203$\025"
 340      3B484251 
 340      18FEBF73 
 340      4BC4E841 
 340      A3AB8324 
 341 0015 44384643 		.ascii	"D8FCC\264\0256\012\026v\011\241\024n\272\005\236kNN"
 341      43B41536 
 341      0A167609 
 341      A1146EBA 
 341      059E6B4E 
 342 002a 12A18339 		.ascii	"\022\241\20394H\331\003\241\206\010$n\015!\024E\004"
 342      3448D903 
 342      A1860824 
 342      6E0D2114 
 342      4504
 343 003c 0511E9A0 		.ascii	"\005\021\351\240PK%\275\270C\3319\322\020\364\303\341"
 343      504B25BD 
 343      B843D939 
 343      D210F4C3 
 343      E1
 344 004d FFF8F95E 		.ascii	"\377\370\371^G\241\377c\027\317\015\242A\261\241\020"
 344      47A1FF63 
ARM GAS  C:\Users\Bruger\AppData\Local\Temp\ccusA8cR.s 			page 26


 344      17CF0DA2 
 344      41B1A110 
 345 005d 58F29C48 		.ascii	"X\362\234H\2672@\002\002E\031\242xdu\206\263\203\357"
 345      B7324002 
 345      024519A2 
 345      78647586 
 345      B383EF
 346 0070 2B38739C 		.ascii	"+8s\234\307^\226\315\223\366\364\312\224\311\210^\031"
 346      C75E96CD 
 346      93F6F4CA 
 346      94C9885E 
 346      19
 347 0081 A1D78E1E 		.ascii	"\241\327\216\036i\204u8I0\363w\357F\207\322\007\211"
 347      69847538 
 347      4930F377 
 347      EF4687D2 
 347      0789
 348 0093 D347B994 		.ascii	"\323G\271\224\315\261&T\225\323\375\3054\257\360$o4"
 348      CDB12654 
 348      95D3FDC5 
 348      34AFF024 
 348      6F34
 349 00a5 8621B4D8 		.ascii	"\206!\264\330\200\362W.G(\352\361\257\2336K\234s\336"
 349      80F2572E 
 349      4728EAF1 
 349      AF9B364B 
 349      9C73DE
 350 00b8 853C1C32 		.ascii	"\205<\0342AXo\302\"jB^\012\335\206\260\330\253e\022"
 350      41586FC2 
 350      226A425E 
 350      0ADD86B0 
 350      D8AB6512 
 351 00cc 43454511 		.ascii	"CEE\021\006\222EUA\223\235k\214\311\255\334\342\370"
 351      06924555 
 351      41939D6B 
 351      8CC9ADDC 
 351      E2F8
 352 00de 23F1545C 		.ascii	"#\361T\\\262I\351'\223?\330};Lu>0\223\241Q\322y\213"
 352      B249E927 
 352      933FD87D 
 352      3B4C753E 
 352      3093A151 
 353 00f5 0C2B572F 		.ascii	"\014+W/.\255\315S3{\265Z(\267f\221\321\343\272\3412"
 353      2EADCD53 
 353      337BB55A 
 353      28B76691 
 353      D1E3BAE1 
 354 010a 19C316EC 		.ascii	"\031\303\026\354\330\206h\207\035dA\327\210\361\211"
 354      D8866887 
 354      1D6441D7 
 354      88F189
 355 0119 66179129 		.ascii	"f\027\221)L\351\036\272\221}.\3417\204d\017\310|\001"
 355      4CE91EBA 
 355      917D2EE1 
 355      3784640F 
 355      C87C01
 356 012c 5DA36A50 		.ascii	"]\243jP\325\246\303\352\214\317\023\212h~\325;\356\011"
ARM GAS  C:\Users\Bruger\AppData\Local\Temp\ccusA8cR.s 			page 27


 356      D5A6C3EA 
 356      8CCF138A 
 356      687ED53B 
 356      EE09
 357 013e 8DB8BD63 		.ascii	"\215\270\275c\263\301@8\020\012\372&\003\363\252\346"
 357      B3C14038 
 357      100AFA26 
 357      03F3AAE6 
 358 014e 1BE8F793 		.ascii	"\033\350\367\223ES\027\"s\341\037he\202\017"
 358      45531722 
 358      73E11F68 
 358      65820F
 359              		.text
 360              		.section	.gnu.lto_Ignition_Timer_1_WriteControlRegister.1d796bfc,"",%progbits
 361 0000 789C6590 		.ascii	"x\234e\220=H\003A\020\205\347\355\305\030\011\242X^"
 361      3D480341 
 361      1085E7ED 
 361      C51809A2 
 361      585E
 362 0012 6711A2A2 		.ascii	"g\021\242\242\202\242\275`!vB,\003Q\342!\001\275\203"
 362      82A2BD60 
 362      2176422C 
 362      0351E221 
 362      01BD83
 363 0025 23D6D993 		.ascii	"#\326\331\223`a\025EB \246\022\177\243\006L/\207\210"
 363      60611545 
 363      4220A612 
 363      7FA3064C 
 363      2F8788
 364 0038 A452B411 		.ascii	"\244R\264\021,Ls\2026bT\220\010r\316\232\322\205ef\227"
 364      2C4C7382 
 364      36625490 
 364      0872CE9A 
 364      D2856566 
 365 004d F7BE79BB 		.ascii	"\367\276y\273\032\375_:\3570\210\306\270B#\210\3345"
 365      1AFD5F3A 
 365      EF3088C6 
 365      B8422388 
 365      DC35
 366 005f 91131280 		.ascii	"\221\023\022\200j\010\224\021\310\340E4\004rn\271\020"
 366      6A089411 
 366      C8E04534 
 366      04726EB9 
 366      10
 367 0070 8EEE4A29 		.ascii	"\216\356J)\337\356\374\265N\2715\327\024D\037\242\005"
 367      DFEEFCB5 
 367      4EB935D7 
 367      14441FA2 
 367      05
 368 0081 C23EA22C 		.ascii	"\302>\242,\332\273\274\322\265!\020\267\337\325\315"
 368      DABBBCD2 
 368      B52110B7 
 368      DFD5CD
 369 0090 72476447 		.ascii	"rGdG\312U\367\365TN\240\311\320\003hl\300\240\216~\235"
 369      CA55F7F5 
 369      544EA0C9 
 369      D003686C 
ARM GAS  C:\Users\Bruger\AppData\Local\Temp\ccusA8cR.s 			page 28


 369      C0A08E7E 
 370 00a5 F8827088 		.ascii	"\370\202p\210\210\0227\262?\367\341`\226\341\335-$\216"
 370      881237B2 
 370      3FF7E160 
 370      96E1DD2D 
 370      248E
 371 00b7 10E45C54 		.ascii	"\020\344\\T\351q\245\357W\375\342zoM\0130B\031\310c"
 371      E971A5EF 
 371      57FDE27A 
 371      6F4D0B30 
 371      4219C863 
 372 00cb 890AF824 		.ascii	"\211\012\370$\204\252\332\003.\362\015\2778\252\\L;"
 372      84AADA03 
 372      2EF20DBF 
 372      38AA5C4C 
 372      3B
 373 00dc FB3CCF77 		.ascii	"\373<\317w=\213\246\020~\315\221\0015\240\356\335\334"
 373      3D8BA610 
 373      7ECD9101 
 373      35A0EEDD 
 373      DC
 374 00ed 86FEAE48 		.ascii	"\206\376\256H\035\267\275J\275\255\204\242\223\345\\"
 374      1DB7BD4A 
 374      BDAD84A2 
 374      93E55C
 375 00fc 1ACAD071 		.ascii	"\032\312\320q\014\376\014\234\240\204/\026=\302q7\336"
 375      0CFE0C9C 
 375      A0842F16 
 375      3DC27137 
 375      DE
 376 010d FB14503D 		.ascii	"\373\024P=\317\343\254<\210\315\003S\206i\330\363ic"
 376      CFE3AC3C 
 376      88CD0353 
 376      8669D8F3 
 376      6963
 377 011f 2111B356 		.ascii	"!\021\263V\354\244\021\237\211Y\223\343\361\351E3\225"
 377      ECA4119F 
 377      895993E3 
 377      F1E94533 
 377      95
 378 0130 4E596662 		.ascii	"NYfb6\265l\330\211\221\341$\265'-3m[K\277\024\337r\361"
 378      36B56CD8 
 378      8991E124 
 378      B5272D33 
 378      6D5B4BBF 
 379              		.text
 380              		.section	.gnu.lto_Ignition_Timer_1_ReadCapture.1d796bfc,"",%progbits
 381 0000 789C6366 		.ascii	"x\234cf\300\004R@\374\033\210u\200\230\221\231\201\221"
 381      C0045240 
 381      FC1B8875 
 381      80989199 
 381      8191
 382 0012 69C23906 		.ascii	"i\3029\006\206F\016&FF\020\203\201\221\241\236\211\261"
 382      86460E26 
 382      46461083 
 382      8191A19E 
 382      89B1
ARM GAS  C:\Users\Bruger\AppData\Local\Temp\ccusA8cR.s 			page 29


 383 0024 9EF125D3 		.ascii	"\236\361%\323G&\306\323\217~|\346y\301\364\223\211A"
 383      4726C6D3 
 383      8F7E7CE6 
 383      79C1F493 
 383      8941
 384 0036 8001C89D 		.ascii	"\200\001\310\235u\375\351\027f\020\227\221\011\304\335"
 384      75FDE917 
 384      66109791 
 384      09C4DD
 385 0045 FDF9DC23 		.ascii	"\375\371\334#6\365\245\015\015M\037\036Mm\347\2331e"
 385      36F5A50D 
 385      0D4D1F1E 
 385      4D6DE79B 
 385      3165
 386 0057 01E34F26 		.ascii	"\001\343O&&\206\317L\014\214\313\031\245\030W0\202l"
 386      2686CF4C 
 386      0C8CCB19 
 386      A5185730 
 386      826C
 387 0069 625CC9A8 		.ascii	"b\\\311\250\016R\374\261\345\357un\266\226\206\206\006"
 387      0E52FCB1 
 387      E5EF756E 
 387      B6968686 
 387      06
 388 007a 01900AA0 		.ascii	"\001\220\012\240\304*F6F \275^\350@\303\377\377\237"
 388      C42A4636 
 388      4620BD5E 
 388      E840C3FF 
 388      FF9F
 389 008c AFCFE952 		.ascii	"\257\317\351R=\315\314\314\304\0002\202\341\011\020"
 389      3DCDCCCC 
 389      C4003282 
 389      E10910
 390 009b 835CF314 		.ascii	"\203\\\363\024\310\001\322\314\267\030\017}\353:vz1"
 390      C801D2CC 
 390      B7180F7D 
 390      EB3A767A 
 390      31
 391 00ac 1B48D777 		.ascii	"\033H\327w&\220\333\346\237\356[\313\006r\014\363\236"
 391      2690DBE6 
 391      9FEE5BCB 
 391      06720CF3 
 391      9E
 392 00bd 8B8D0D2C 		.ascii	"\213\215\015, ;\356?9\177\221\003,\304\000\342N\277"
 392      203BEE3F 
 392      397F9103 
 392      2CC400E2 
 392      4EBF
 393 00cf F17526CB 		.ascii	"\361u&\313\\\306\331\215-\215\0074\1772\2610\256\006"
 393      5CC6D98D 
 393      2D8D0734 
 393      7F32B130 
 393      AE06
 394 00e1 BA6A0DC8 		.ascii	"\272j\015\310U\214k\031\34722\334cll0\206\032\310\000"
 394      558C6B19 
 394      E73232DC 
 394      636C6C30 
ARM GAS  C:\Users\Bruger\AppData\Local\Temp\ccusA8cR.s 			page 30


 394      861AC800 
 395 00f5 B2931164 		.ascii	"\262\223\021d\027\220\251\345\236\232\227Z\224X\222"
 395      1790A9E5 
 395      9E9A975A 
 395      945892
 396 0104 9A121F9C 		.ascii	"\232\022\037\234_Z\224\234\032\023\020\234\357l\032"
 396      5F5A949C 
 396      1A13109C 
 396      EF6C1A
 397 0113 E3999E97 		.ascii	"\343\231\236\227Y\222\231\237\027\037\222\231\233Z\024"
 397      5992999F 
 397      171F9299 
 397      9B5A14
 398 0122 6FA897CC 		.ascii	"o\250\227\314\000\000\212\311n\337"
 398      00008AC9 
 398      6EDF
 399              		.text
 400              		.section	.gnu.lto_Ignition_Timer_1_ReadCompare.1d796bfc,"",%progbits
 401 0000 789C6366 		.ascii	"x\234cf\300\004R@\374\033\210u\200\230\221\231\201\221"
 401      C0045240 
 401      FC1B8875 
 401      80989199 
 401      8191
 402 0012 69C23906 		.ascii	"i\3029\006\206F\016&FF\020\203\201\221\241\236\211\261"
 402      86460E26 
 402      46461083 
 402      8191A19E 
 402      89B1
 403 0024 9EF125D3 		.ascii	"\236\361%\323G&\306\323\217~|\346y\301\364\223\211A"
 403      4726C6D3 
 403      8F7E7CE6 
 403      79C1F493 
 403      8941
 404 0036 8001C89D 		.ascii	"\200\001\310\235u\375\351\027f\020\227\221\011\304\335"
 404      75FDE917 
 404      66109791 
 404      09C4DD
 405 0045 FDF9DC23 		.ascii	"\375\371\334#6\365\245\015\015M\037\232\346\266\363"
 405      36F5A50D 
 405      0D4D1F9A 
 405      E6B6F3
 406 0054 CD98B280 		.ascii	"\315\230\262\200\361'\023\023\303g&\006\306\345\214"
 406      F1271313 
 406      C3672606 
 406      C6E58C
 407 0063 528C2B18 		.ascii	"R\214+\030A61\256dT\007)\376\330\362\367:7[KCC\203\000"
 407      413631AE 
 407      64540729 
 407      FED8F2F7 
 407      3A375B4B 
 408 007b 48055062 		.ascii	"H\005Pb\025#\033#\220^/t\240\341\377\377\317_\346t\331"
 408      15231B23 
 408      905E2F74 
 408      A0E1FFFF 
 408      CF5FE674 
 409 0090 9E636666 		.ascii	"\236cffb\000\031\301\360\004\210A\256y\012\344\000i"
 409      620019C1 
ARM GAS  C:\Users\Bruger\AppData\Local\Temp\ccusA8cR.s 			page 31


 409      F0048841 
 409      AE790AE4 
 409      0069
 410 00a2 E65B8C87 		.ascii	"\346[\214\207\276u\275;\267\230\035\244\353;\023\310"
 410      BE75BD3B 
 410      B7981DA4 
 410      EB3B13C8 
 411 00b2 6DD71EF4 		.ascii	"m\327\036\364\235\341\0029\206\371\316\205\306\006\026"
 411      9DE10239 
 411      86F9CE85 
 411      C60616
 412 00c1 901DF79F 		.ascii	"\220\035\367\237\234\277\310\001\026b\000q\317\177h"
 412      9CBFC801 
 412      16620071 
 412      CF7F68
 413 00d0 BFC13197 		.ascii	"\277\3011\227qvcK\343\001\335\237L,\214\253\201\256"
 413      7176634B 
 413      E301DD9F 
 413      4C2C8CAB 
 413      81AE
 414 00e2 5A037215 		.ascii	"Z\003r\025\343Z\306\271\214\014\367\030\033\033\254"
 414      E35AC6B9 
 414      8C0CF718 
 414      1B1BAC
 415 00f1 A1063280 		.ascii	"\241\0062\200\354d\004\331\005dj\271\247\346\245\026"
 415      EC6404D9 
 415      05646AB9 
 415      A7E6A516 
 416 0101 2596A4A6 		.ascii	"%\226\244\246\304\007\347\227\026%\247\306\004\004\347"
 416      C407E797 
 416      1625A7C6 
 416      0404E7
 417 0110 3B9BC678 		.ascii	";\233\306x\246\347e\226d\346\347\305\207d\346\246\026"
 417      A6E76596 
 417      64E6E7C5 
 417      8764E6A6 
 417      16
 418 0121 C51BEA25 		.ascii	"\305\033\352%3\000\000\320\257o\252"
 418      330000D0 
 418      AF6FAA
 419              		.text
 420              		.section	.gnu.lto_Ignition_Timer_1_ReadPeriod.1d796bfc,"",%progbits
 421 0000 789C6366 		.ascii	"x\234cf\300\004R@\374\033\210u\200\230\221\231\201\221"
 421      C0045240 
 421      FC1B8875 
 421      80989199 
 421      8191
 422 0012 69C23906 		.ascii	"i\3029\006\206F\016&FF\020\203\201\221\241\236\211\261"
 422      86460E26 
 422      46461083 
 422      8191A19E 
 422      89B1
 423 0024 9EF125D3 		.ascii	"\236\361%\323G&\306\323\217~|\346y\301\364\223\211A"
 423      4726C6D3 
 423      8F7E7CE6 
 423      79C1F493 
 423      8941
ARM GAS  C:\Users\Bruger\AppData\Local\Temp\ccusA8cR.s 			page 32


 424 0036 8001C89D 		.ascii	"\200\001\310\235u\375\351\027f\020\227\221\011\304\335"
 424      75FDE917 
 424      66109791 
 424      09C4DD
 425 0045 FDF9DC23 		.ascii	"\375\371\334#6\365\245\015\015M\037\016\355m\347\231"
 425      36F5A50D 
 425      0D4D1F0E 
 425      ED6DE799 
 426 0055 316501E3 		.ascii	"1e\001\343O&&\206\317L\014\214\313\031\245\030W0\202"
 426      4F262686 
 426      CF4C0C8C 
 426      CB19A518 
 426      573082
 427 0068 6C625CC9 		.ascii	"lb\\\311\250\016R\374\261\345\357un\266\226\206\206"
 427      A80E52FC 
 427      B1E5EF75 
 427      6EB69686 
 427      86
 428 0079 0601900A 		.ascii	"\006\001\220\012\240\304*F6F \275^\350@\303\377\377"
 428      A0C42A46 
 428      364620BD 
 428      5EE840C3 
 428      FFFF
 429 008b 9FBFCD6D 		.ascii	"\237\277\315m\322\275\317\314\314\304\0002\202\341\011"
 429      D2BDCFCC 
 429      CCC40032 
 429      82E109
 430 009a 10835CF3 		.ascii	"\020\203\\\363\024\310\001\322\314\267\030\017}\353"
 430      14C801D2 
 430      CCB7180F 
 430      7DEB
 431 00a8 3A777F31 		.ascii	":w\1771\033H\327w&\220\333\316|\236z\237\011\344\030"
 431      1B48D777 
 431      2690DBCE 
 431      7C9E7A9F 
 431      09E418
 432 00bb E639171B 		.ascii	"\3469\027\033\033X@v\334\177r\376\"\007X\210\001\304"
 432      1B584076 
 432      DC7F72FE 
 432      22075888 
 432      01C4
 433 00cd ED397C66 		.ascii	"\3559|f'\377\\\306\331\215-\215\0074\1772\2610\256\006"
 433      27FF5CC6 
 433      D98D2D8D 
 433      07347F32 
 433      B130AE06 
 434 00e1 BA6A0DC8 		.ascii	"\272j\015\310U\214k\031\34722\334cll0\206\032\310\000"
 434      558C6B19 
 434      E73232DC 
 434      636C6C30 
 434      861AC800 
 435 00f5 B2931164 		.ascii	"\262\223\021d\027\220\251\345\236\232\227Z\224X\222"
 435      1790A9E5 
 435      9E9A975A 
 435      945892
 436 0104 9A121F9C 		.ascii	"\232\022\037\234_Z\224\234\032\023\020\234\357l\032"
 436      5F5A949C 
ARM GAS  C:\Users\Bruger\AppData\Local\Temp\ccusA8cR.s 			page 33


 436      1A13109C 
 436      EF6C1A
 437 0113 E3999E97 		.ascii	"\343\231\236\227Y\222\231\237\027\037\222\231\233Z\024"
 437      5992999F 
 437      171F9299 
 437      9B5A14
 438 0122 6FA897CC 		.ascii	"o\250\227\314\000\000\361\217o\201"
 438      0000F18F 
 438      6F81
 439              		.text
 440              		.section	.gnu.lto_.symbol_nodes.1d796bfc,"",%progbits
 441 0000 789C55D0 		.ascii	"x\234U\320\273\015\3020\030\004\340\363\3578q\336q\026"
 441      BB0DC230 
 441      1804E0F3 
 441      EF3871DE 
 441      7116
 442 0012 60096A56 		.ascii	"`\011jV\273\024tH\210\011\020H\214\300\034\014A\315"
 442      BB147448 
 442      88091048 
 442      8CC01C0C 
 442      41CD
 443 0024 10584AE3 		.ascii	"\020XJ\343\273\346\364IW\235\007pr\330cF\340\366\001"
 443      BBE6F449 
 443      579D0770 
 443      72D86346 
 443      E0F601
 444 0037 48DC1F11 		.ascii	"H\334\037\021\346\350J\007\340\231'\346i2\253\350\305"
 444      E6E84A07 
 444      E09927E6 
 444      6932ABE8 
 444      C5
 445 0048 8195B866 		.ascii	"\201\225\270f\0207\254\305\221\215\270e\024wl\305=;"
 445      1037ACC5 
 445      918DB865 
 445      14776CC5 
 445      3D3B
 446 005a F1C05E3C 		.ascii	"\361\300^<r\020O\034\3053'\361\302\271\264[\271\354"
 446      72104F1C 
 446      C53327F1 
 446      C2B9B45B 
 446      B9EC
 447 006c C6B66526 		.ascii	"\306\266e&\246\202\036+\316\227\337\301#\341u\315\235"
 447      A6821E2B 
 447      CE97DFC1 
 447      23E175CD 
 447      9D
 448 007d DFFBBE8F 		.ascii	"\337\373\276\217\370\003\305+Q\366"
 448      F803C52B 
 448      51F6
 449              		.text
 450              		.section	.gnu.lto_.refs.1d796bfc,"",%progbits
 451 0000 789C6366 		.ascii	"x\234cf``\340d\200\000&F bdba\000\000\001*\000\032"
 451      6060E064 
 451      80002646 
 451      20626462 
 451      61000001 
 452              		.text
ARM GAS  C:\Users\Bruger\AppData\Local\Temp\ccusA8cR.s 			page 34


 453              		.section	.gnu.lto_.decls.1d796bfc,"",%progbits
 454 0000 789C8D95 		.ascii	"x\234\215\225kL\024W\024\307\347\356]^\313\202\266\211"
 454      6B4C1457 
 454      14C7E7EE 
 454      5D5ECB82 
 454      B689
 455 0012 686C1B69 		.ascii	"hl\033ilM\332\030\023?\324\370\255&D\255\366E\244\217"
 455      6C4DDA18 
 455      133FD4F8 
 455      AD2644AD 
 455      F645A48F 
 456 0026 0FDAD815 		.ascii	"\017\332\330\025&\272\011\002Y\227\244|\033\001\005"
 456      26BA0902 
 456      5997A47C 
 456      1B0105
 457 0035 1515B58A 		.ascii	"\025\025\265\212\242\265\250 \242\200\013>\000\001Y"
 457      A2B5A820 
 457      A2800B3E 
 457      000159
 458 0044 101151C4 		.ascii	"\020\021Q\304\007\"\013\010\213(\202\274\037\242Vq{"
 458      07220B08 
 458      8B2882BC 
 458      1FA25671 
 458      7B
 459 0055 EEBD33EE 		.ascii	"\356\2753\356\314\356\2542\311\201\2753\347\374\316"
 459      CCEEAC32 
 459      C981BD33 
 459      E7FCCE
 460 0064 39FF7BEE 		.ascii	"9\377{\356\014\3468.R\313q\016\270\022u\034wR\303q\037"
 460      0CE6382E 
 460      52CB710E 
 460      B812751C 
 460      7752C371 
 461 0079 C1BD50CE 		.ascii	"\301\275P\316y}\014\226\013\226\017f\001+\004+\007\263"
 461      797D0C96 
 461      0B960F66 
 461      012B042B 
 461      07B3
 462 008b 82558155 		.ascii	"\202U\201U\203\325\2005\200\335\005k\004k\002k\006k"
 462      83D58035 
 462      80DD056B 
 462      046B026B 
 462      066B
 463 009d 016B036B 		.ascii	"\001k\003k\007\263\203!\260.Ny\345\2129H\316:\260 \260"
 463      07B38321 
 463      B02E4E79 
 463      E58A3948 
 463      CE3AB020 
 464 00b2 12B01EB0 		.ascii	"\022\260\036\260n\260@0=\330\000X?\330 \330m\260!\260"
 464      6EB04030 
 464      3DD80058 
 464      3FD820D8 
 464      6DB021B0 
 465 00c6 7AB011B0 		.ascii	"z\260\021\260a\2601\260Q\221\251\023\271\345.\365\331"
 465      61B031B0 
 465      5191A913 
 465      B9E52EF5 
ARM GAS  C:\Users\Bruger\AppData\Local\Temp\ccusA8cR.s 			page 35


 465      D9
 466 00d7 C55AAAC4 		.ascii	"\305Z\252\304\372\356r\356\027\351\323W\254\207\324"
 466      FAEE72EE 
 466      17E9D357 
 466      AC87D4
 467 00e6 322ED6F5 		.ascii	"2.\326\365\034,GV\027\271\260\350\237+j\243\326\037"
 467      1C2C4756 
 467      17B9B0E8 
 467      9F2B6AA3 
 467      D61F
 468 00f8 B9AF95F1 		.ascii	"\271\257\225\361\344\361H|\356z\025~ \246P%\206\364"
 468      E4F1487C 
 468      EE7A157E 
 468      20A65025 
 468      86F4
 469 010a EA2DC648 		.ascii	"\352-\306H\232\021\035%\335\244\330r\225X\253\330\263"
 469      9A111D25 
 469      DDA4D872 
 469      9558ABD8 
 469      B3
 470 011b 3C8EE495 		.ascii	"<\216\344\2254\2254\226\030V\025F\025\347\324\255N\306"
 470      34953496 
 470      18561546 
 470      15E7D4AD 
 470      4EC6
 471 012d 50DB1FCC 		.ascii	"P\333\037\314\275\177\017\252\247\330K\265Jl\315\024"
 471      BD7F0FAA 
 471      A7D84BB5 
 471      4A6CCD14 
 472 013d 636B5462 		.ascii	"ckTb\311\214H\272\223\036\\uoP\211\271+\366S\347\322"
 472      C98C48BA 
 472      931E5C75 
 472      6F5089B9 
 472      2BF653E7 
 473 0152 23F2D05B 		.ascii	"#\362\320[\343{\374\033U\374\233>PS\223J\014\321\325"
 473      E37BFC1B 
 473      55FC9B3E 
 473      5053934A 
 473      0CD1D5
 474 0165 8B53F6EF 		.ascii	"\213S\366\357\272\207\315*q-S\210kQ\211k\233B\\\233"
 474      BA87CD2A 
 474      712D5388 
 474      6B51896B 
 474      9B425C9B 
 475 0179 4ADC8806 		.ascii	"J\334\210\006\225\344\217\327\373\367hP\240.\230,/\355"
 475      95E48FD7 
 475      FBF76850 
 475      A02E982C 
 475      2FED
 476 018b AD3DE80D 		.ascii	"\255=\350\015K\275NK\226\245\257\0375jg\356\027\340"
 476      4BBD4E4B 
 476      96A5AF1F 
 476      356A67EE 
 476      17E0
 477 019d 4A4D10A6 		.ascii	"JM\020\246kQh\020\312F\263\321)4\033\2509h&\374]\255"
 477      6B516810 
 477      CA46B3D1 
ARM GAS  C:\Users\Bruger\AppData\Local\Temp\ccusA8cR.s 			page 36


 477      29341BA8 
 477      396826FC 
 478 01b3 65A4A4BE 		.ascii	"e\244\244\276m\335~X\203\310\357\023\007;\033u\363O"
 478      6DDD7E58 
 478      83C8EF13 
 478      073B1B75 
 478      F34F
 479 01c5 4358B260 		.ascii	"CX\262`\265bg:\233#a\207.\370\250`\267\014W4o\305\207"
 479      B562673A 
 479      9B236187 
 479      2EF8A860 
 479      B70C5734 
 480 01dc 848C78E1 		.ascii	"\204\214x\341\255\303\201(\014\235F\030\235A\363i\311"
 480      ADC38128 
 480      0C9D4618 
 480      9D41F369 
 480      C9
 481 01ed F09BD59E 		.ascii	"\360\233\325\236\213\202!\260x\274\367Y\000^I\351%\265"
 481      8B8221B0 
 481      78BCF759 
 481      005E49E9 
 481      25B5
 482 01ff A34F0824 		.ascii	"\243O\010$\303\2221T(,I\024\3368\034\230\002\362d\200"
 482      C3923154 
 482      282C4914 
 482      DE381C98 
 482      02F26480 
 483 0213 3C09904F 		.ascii	"<\011\220O\001vK\331\003_l\240\200\224\264s\215\210"
 483      01764BD9 
 483      035F6CA0 
 483      8094B473 
 483      8D88
 484 0225 5691B13B 		.ascii	"V\221\261;\333\273V\260:\034\025\002\242\204\2632\302"
 484      DBBB56B0 
 484      3A1C1502 
 484      A284B332 
 484      C2
 485 0236 598960A1 		.ascii	"Y\211`\241\204\226\223\245\337\3418\012(\253o\035\320"
 485      849693A5 
 485      DFE1380A 
 485      28AB6F1D 
 485      D0
 486 0247 B30A6C22 		.ascii	"\263\012l\"\340[\032^ \013/\220\302\013i\370\215G/\307"
 486      E05B1A5E 
 486      200B2F90 
 486      C20B69F8 
 486      8D472FC7 
 487 025b F454E9E9 		.ascii	"\364T\351\351\004\221\376\340\3118\246Jk\310\362\237"
 487      0491FEE0 
 487      C938A64A 
 487      6BC8F29F 
 488 026b D1C1323F 		.ascii	"\321\3012?\274\033Q\374\346\223\245)>\360,XGEK\353{"
 488      BC1B51FC 
 488      E693A529 
 488      3EF02C58 
 488      47454BEB 
 489 0280 79DE972E 		.ascii	"y\336\227.\241O\270\241y\335\225\237\355\215\346\351"
ARM GAS  C:\Users\Bruger\AppData\Local\Temp\ccusA8cR.s 			page 37


 489      A14FB8A1 
 489      79DD959F 
 489      ED8DE6E9 
 490 0290 3241E0E1 		.ascii	"2A\340\341\374\254\313+\023\204%\250\004\351\320\205"
 490      FCACCB2B 
 490      138425A8 
 490      04E9D085 
 491 02a0 77E9692C 		.ascii	"w\351i,\271\222\005!^\020\022\004\257S\201\034:\007"
 491      B9920521 
 491      5E101204 
 491      AF53811C 
 491      3A07
 492 02b2 7B771EF6 		.ascii	"{w\036\366\016\025\243y\340A}\321E\270Y\0047I_\231\317"
 492      0E15A379 
 492      E0417DD1 
 492      45B85904 
 492      37495F99 
 493 02c7 06FDB5F0 		.ascii	"\006\375\265\360\025\242\264\325t\006:.L\024\351<\316"
 493      15A2B4D5 
 493      74063A2E 
 493      4C14E93C 
 493      CE
 494 02d8 40299D81 		.ascii	"@)\235\201KH\034\202\352\233m\3671.fmlM|z\034\213\233"
 494      4B481C82 
 494      EA9B6DF7 
 494      312E666D 
 494      6C4D7C7A 
 495 02ef DD941EF0 		.ascii	"\335\224\036\360n\2635$\012\225\311\244*\223\244*\247"
 495      6EB33524 
 495      0A95C9A4 
 495      2A93A42A 
 495      A7
 496 0300 52BDDA52 		.ascii	"R\275\332R\337\201\345)I5\316\234\227\025s\227;1`\365"
 496      DF81E529 
 496      4935CE9C 
 496      97157397 
 496      3B3160F5 
 497 0314 C74D2C65 		.ascii	"\307M,e\353\356\274'\376tc\354\266\235\327\364\002\333"
 497      EBEEBC27 
 497      FE7463EC 
 497      B69DD7F4 
 497      02DB
 498 0326 1A1A822A 		.ascii	"\032\032\202*d\011+\244\204V\232\360\344\177\223\203"
 498      64092BA4 
 498      84569AF0 
 498      E47F9383 
 499 0336 188F3146 		.ascii	"\030\2171Fbk\363%\037Z\266}g\203\304\200\371`3Z)\243"
 499      626BF325 
 499      1F5AB67D 
 499      6783C480 
 499      F960335A 
 500 034c 544A942A 		.ascii	"TJ\224*J\271\260o\264\330\007\357bG {\374\351u-\243"
 500      4AB9B06F 
 500      B4D807EF 
 500      6247207B 
 500      FCE9752D 
 501 0361 D435F056 		.ascii	"\3245\360V:\244\011\276T0tE\306\270\"1\252)\243&\333"
ARM GAS  C:\Users\Bruger\AppData\Local\Temp\ccusA8cR.s 			page 38


 501      3AA409BE 
 501      54307445 
 501      C6B82231 
 501      AA29A326 
 502 0376 96A5C567 		.ascii	"\226\245\305g\030\243\363\374\277\002\023\320\236R\260"
 502      18A3F3FC 
 502      BF0213D0 
 502      9E52B0
 503 0385 C145BFAB 		.ascii	"\301E\277\2532\310U\011RC!M\025II\276\370\272F1LAl\230"
 503      32C85509 
 503      5243214D 
 503      154949BE 
 503      F8BA4631 
 504 039d 76DD48AF 		.ascii	"v\335H\257\304t\351 \21756\333\337\2570\322\315\243"
 504      C474E920 
 504      8F3536DB 
 504      DFAF30D2 
 504      CDA3
 505 03af 7332BC57 		.ascii	"s2\274W\300\26384\1776\372\012\206\344\006\014I\220"
 505      C0B33834 
 505      7F36FA0A 
 505      86E4060C 
 505      4990
 506 03c1 3824B5A0 		.ascii	"8$\265\240\376uP\237\215\334\0266ru\260-\327\234#\027"
 506      FE75509F 
 506      8DDC1636 
 506      7275B02D 
 506      D79C2317 
 507 03d5 A47B77CE 		.ascii	"\244{w\316S\267T\246j\351 \325\275\033\244\347\216\316"
 507      53B754A6 
 507      6AE920D5 
 507      BD1BA4E7 
 507      8ECE
 508 03e7 2C8DC741 		.ascii	",\215\307A\252\247\233zS\032\244\254\313\333\272\002"
 508      AAA79B7A 
 508      531AA4AC 
 508      CBDBBA02 
 509 03f7 71036BA1 		.ascii	"q\003k\241A\030\272\242\027\007\251\270/tO\202\220)"
 509      4118BAA2 
 509      1707A9B8 
 509      2F744F82 
 509      9029
 510 0409 D81D8E39 		.ascii	"\330\035\2169\301$\012\335\222\011qK\022\242\201\012"
 510      C1240ADD 
 510      9209714B 
 510      12A2810A 
 511 0419 B12DD1A2 		.ascii	"\261-\321\242\230\243:\305\034\335V\314Q\2075~L\217"
 511      98A33AC5 
 511      1CDD56CC 
 511      5187357E 
 511      4C8F
 512 042b 4758C67B 		.ascii	"GX\306{\243\207\037\3731\345w\027E\312\224\207\030t"
 512      A3871FFB 
 512      31E57717 
 512      45CA9487 
 512      1874
 513 043d 4796F08E 		.ascii	"G\226\360\216\224\360.M\330\177\276\274Z\207\367c\012"
ARM GAS  C:\Users\Bruger\AppData\Local\Temp\ccusA8cR.s 			page 39


 513      94F02E4D 
 513      D87FBEBC 
 513      5A87F763 
 513      0A
 514 044e 39FC223E 		.ascii	"9\374\">\227\015c\306\365\242\0106\002\230\246E\367"
 514      970D63C6 
 514      F5A20836 
 514      0298A645 
 514      F7
 515 045f 64887B12 		.ascii	"d\210{\022\242\221\"\366?\276\230\244\301\227\030b\342"
 515      A29122F6 
 515      3FBE98A4 
 515      C1971862 
 515      E2
 516 0470 DAF18969 		.ascii	"\332\361\211il\236'\2136\310^\227\244\361\3732\310}"
 516      6C9E278B 
 516      36C85E97 
 516      A4F1FB32 
 516      C87D
 517 0482 09D24421 		.ascii	"\011\322D!#\367\037\276\010\300v\006)hN\311\024\233"
 517      23F71FBE 
 517      08C07606 
 517      29684EC9 
 517      149B
 518 0494 C92F8991 		.ascii	"\311/\211\2215CN\305\003\031\344\201\004i\246\220\027"
 518      35434EC5 
 518      0319E481 
 518      0469A690 
 518      17
 519 04a5 9D23E918 		.ascii	"\235#\351\030O2\310d_}\257\017k\246\247\304\331\014"
 519      4F32C864 
 519      5F7DAF0F 
 519      6BA6A7C4 
 519      D90C
 520 04b7 41D86408 		.ascii	"A\330d\010\233\204h\241\210\263go7\373\340t-E\0348\265"
 520      9B8468A1 
 520      88B3676F 
 520      37FBE074 
 520      2D451C38 
 521 04cc D52236D3 		.ascii	"\325\"6\323_\372\247\254\031\002i\225AZ%H\033\0235\257"
 521      5FFAA7AC 
 521      19026995 
 521      415A2548 
 521      1B1335AF 
 522 04e0 C0E28F2F 		.ascii	"\300\342\217/2\310\211\324\262Vo\322\2140|\344\334\233"
 522      32C889D4 
 522      B2566FD2 
 522      8C307CE4 
 522      DC9B
 523 04f2 69071252 		.ascii	"i\007\022R\331,0I\036\312(\017%J;\2454<\2338\244\303"
 523      D92C3049 
 523      1ECA280F 
 523      254A3BA5 
 523      343C9B38 
 524 0508 FD8CD271 		.ascii	"\375\214\322q&+\222B\354o\273\370*\371\316t\310\010"
 524      262B9242 
 524      EC6FBBF8 
ARM GAS  C:\Users\Bruger\AppData\Local\Temp\ccusA8cR.s 			page 40


 524      2AF9CE74 
 524      C808
 525 051a 1D12C14E 		.ascii	"\035\022\301N\011I\245\223\266\000\234\340E\011o[-E"
 525      0949A593 
 525      B6009CE0 
 525      45096F5B 
 525      2D45
 526 052c E44B0923 		.ascii	"\344K\011#E\307\247w_z\207~\3561!\343\270\245\"\365"
 526      45C7A777 
 526      5F7A877E 
 526      EE3121E3 
 526      B8A522F5 
 527 0540 0FEB6681 		.ascii	"\017\353f\201\366F'\256\223!\305c\305\2215\374}D\336"
 527      F64627AE 
 527      9321C563 
 527      C59135FC 
 527      7D44DE
 528 0553 C35D682E 		.ascii	"\303]h.\304\012i;2}\361\021\006\2760\261\275$@\227L"
 528      C40A693B 
 528      327DF111 
 528      06BE30B1 
 528      BD244097 
 529 0568 DED91F3E 		.ascii	"\336\331\037>\216p\200\033omo\362c\007\3305\342\251"
 529      8E70801B 
 529      6F6D6FF2 
 529      6307D835 
 529      E2A9
 530 057a C7037C75 		.ascii	"\307\003|u\364\373D8\300\335P\335c\347\001~\202\234"
 530      F4FB4438 
 530      C0DD50DD 
 530      63E7017E 
 530      829C
 531 058c 2778DBA3 		.ascii	"'x\333\243\364z\275~;y+\300\331\361\253\015\244\316"
 531      F47ABD7E 
 531      3B792BC0 
 531      D9F1AB0D 
 531      A4CE
 532 059e CEC3D383 		.ascii	"\316\303\323\203\364T\032\370O>\311\267Z\3331>\306:"
 532      F4541AF8 
 532      4F3EC9B7 
 532      5ADB313E 
 532      C63A
 533 05b0 184EDED9 		.ascii	"\030N\336\331\247e\035L\361\303\243I\313{\230\216\304"
 533      A7651D4C 
 533      F1C3A349 
 533      CB7B988E 
 533      C4
 534 05c1 2F5AC68D 		.ascii	"/Z\306\215i\010\365C\262^ge\317\220\363s\246B\355S\377"
 534      6908F543 
 534      B25E6765 
 534      CF90F373 
 534      A642ED53 
 535 05d6 9C65EDA9 		.ascii	"\234e\355\251\301\212\026\372\025-\014\210-\014\320"
 535      C18A16FA 
 535      152D0C88 
 535      2D0CD0
 536 05e5 165E1EEB 		.ascii	"\026^\036\353\354\236\246\360&\343\340\364\036\024\275"
ARM GAS  C:\Users\Bruger\AppData\Local\Temp\ccusA8cR.s 			page 41


 536      EC9EA6F0 
 536      26E3E0F4 
 536      1E14BD
 537 05f4 07A977EA 		.ascii	"\007\251w\352\336\303\227\375\024\336\365\012\357!\321"
 537      DEC397FD 
 537      14DEF50A 
 537      EF21D1
 538 0603 7B887AA7 		.ascii	"{\210z\247\364<?\341/)\222<\245\332s\252J\216\370+\022"
 538      F43C3FE1 
 538      2F29923C 
 538      A5DA73AA 
 538      4A8EF82B 
 539 0618 0C2B8A1F 		.ascii	"\014+\212\037\021\023\214\320\004\235\2515e~\322\320"
 539      11138CD0 
 539      049DA935 
 539      657ED2D0 
 540 0628 247F6004 		.ascii	"$\177`\004\300\277\362\340\276\323\001\012\372\250\202"
 540      C0BFF2E0 
 540      BED3010A 
 540      FAA882
 541 0637 3E26D2C7 		.ascii	">&\322\307(=\355\350\360ke\263\312\027\351\270\350="
 541      283DEDE8 
 541      F06B65B3 
 541      CA17E9B8 
 541      E83D
 542 0649 4EBDDB0F 		.ascii	"N\275\333\017Z\267k\025\3369\012i\236#\275\264\255\360"
 542      5AB76B15 
 542      DE390A69 
 542      9E23BDB4 
 542      ADF0
 543 065b 939BB162 		.ascii	"\223\233\261b}\224\321l\214\216Z\373\213q#oZ\273p\355"
 543      7D94D16C 
 543      8C8E5AFB 
 543      8B71236F 
 543      5ABB70ED 
 544 066f 0A587B2F 		.ascii	"\012X{/\377\351\327\340\020\356\353\345|\024o2\230\371"
 544      FFE9D7E0 
 544      10EEEBE5 
 544      7C146F32 
 544      98F9
 545 0681 88B561D1 		.ascii	"\210\265a\321\261\246p~MhXt\3107k\\c\026\204sAn\234"
 545      B1A6707E 
 545      4D685874 
 545      C8376B5C 
 545      63168473 
 546 0698 30B3C164 		.ascii	"0\263\301d\236\351v{i\224a]$\357\2366\314\034\035\343"
 546      9EE9767B 
 546      6994615D 
 546      24EF9E36 
 546      CC1C1DE3 
 547 06ac 1D6B8C32 		.ascii	"\035k\2142/\\\364\271\207\264\341q\346\270\030~\323"
 547      2F5CF4B9 
 547      87B4E171 
 547      E6B8187E 
 547      D3
 548 06bd 820DDC67 		.ascii	"\202\015\334gn\341\277\233\214f>$:6\312\314\233>u{\272"
 548      6EE1BF9B 
ARM GAS  C:\Users\Bruger\AppData\Local\Temp\ccusA8cR.s 			page 42


 548      8C663E24 
 548      3A36CACC 
 548      9B3E757B 
 549 06d2 8A374488 		.ascii	"\2127D\210\017g\273=\014\211\344\015\246e+\226\375\354"
 549      0F67BB3D 
 549      0C89E40D 
 549      A6652B96 
 549      FDEC
 550 06e4 1E47A9A1 		.ascii	"\036G\251\241\274\311\030\035\3411\345\306\030\203\211"
 550      BCC9181D 
 550      E131E5C6 
 550      188389
 551 06f3 F722952F 		.ascii	"\367\"\225/\376\334\275+\336\274\202d5\305\306\230\177"
 551      FEDCBD2B 
 551      DEBC8264 
 551      35C5C698 
 551      7F
 552 0704 8C8EE0E7 		.ascii	"\214\216\340\347\252\226\006R\231c7\255\342\327\033"
 552      AA960652 
 552      996337AD 
 552      E2D71B
 553 0713 3781EF17 		.ascii	"7\201\357\027\036\312\2172\233\242#%\247/=\225\243\360"
 553      1ECA8F32 
 553      9BA22325 
 553      A72F3D95 
 553      A3F0
 554 0725 F2A08421 		.ascii	"\362\240\204!\306\034k\342=\311D\033\372D\365!\223b"
 554      C61C6BE2 
 554      3DC9441B 
 554      FA44F521 
 554      9362
 555 0737 4648DCD2 		.ascii	"FH\334\322\277\214\346\020Hh\0147D\206\361\341\304q"
 555      BF8CE610 
 555      48680C37 
 555      4486F1E1 
 555      C471
 556 0749 8E875D0B 		.ascii	"\216\207]\013\211\373\301\270\016\366,\010\242\210\024"
 556      89FBC1B8 
 556      0EF62C08 
 556      A28814
 557 0758 2E61B3DC 		.ascii	".a\263\334\022\031a\375\233\301\2445\361\353\027{\301"
 557      121961FD 
 557      9BC1A435 
 557      F1EB177B 
 557      C1
 558 0769 9F858BFE 		.ascii	"\237\205\213\376\007\231\241\304\032"
 558      0799A1C4 
 558      1A
 559              		.text
 560              		.section	.gnu.lto_.symtab.1d796bfc,"",%progbits
 561 0000 49676E69 		.ascii	"Ignition_Timer_1_Init\000\000\000\000\000\000\000\000"
 561      74696F6E 
 561      5F54696D 
 561      65725F31 
 561      5F496E69 
 562 001d 00000000 		.ascii	"\000\000\000\000\254\000\000\000Ignition_Timer_1_St"
 562      AC000000 
ARM GAS  C:\Users\Bruger\AppData\Local\Temp\ccusA8cR.s 			page 43


 562      49676E69 
 562      74696F6E 
 562      5F54696D 
 563 0038 61727400 		.ascii	"art\000\000\000\000\000\000\000\000\000\000\000\000"
 563      00000000 
 563      00000000 
 563      000000
 564 0047 AE000000 		.ascii	"\256\000\000\000Ignition_Timer_1_initVar\000\000\000"
 564      49676E69 
 564      74696F6E 
 564      5F54696D 
 564      65725F31 
 565 0066 00000000 		.ascii	"\000\000\000\000\000\000\000\000\000\343\000\000\000"
 565      00000000 
 565      00E30000 
 565      00
 566 0073 49676E69 		.ascii	"Ignition_Timer_1_Enable\000\000\000\000\000\000\000"
 566      74696F6E 
 566      5F54696D 
 566      65725F31 
 566      5F456E61 
 567 0091 00000000 		.ascii	"\000\000\000\000\000\260\000\000\000Ignition_Timer_"
 567      00B00000 
 567      0049676E 
 567      6974696F 
 567      6E5F5469 
 568 00a9 315F5374 		.ascii	"1_Stop\000\000\000\000\000\000\000\000\000\000\000\000"
 568      6F700000 
 568      00000000 
 568      00000000 
 568      0000
 569 00bb B2000000 		.ascii	"\262\000\000\000Ignition_Timer_1_WriteCounter\000\000"
 569      49676E69 
 569      74696F6E 
 569      5F54696D 
 569      65725F31 
 570 00de 00000000 		.ascii	"\000\000\000\000\000\000\000\000\000\000\275\000\000"
 570      00000000 
 570      0000BD00 
 570      00
 571 00eb 0049676E 		.ascii	"\000Ignition_Timer_1_ReadCounter\000\000\000\000\000"
 571      6974696F 
 571      6E5F5469 
 571      6D65725F 
 571      315F5265 
 572 010d 00000000 		.ascii	"\000\000\000\000\000\000\000\300\000\000\000Ignitio"
 572      000000C0 
 572      00000049 
 572      676E6974 
 572      696F
 573 011f 6E5F5469 		.ascii	"n_Timer_1_ClearFIFO\000\000\000\000\000\000\000\000"
 573      6D65725F 
 573      315F436C 
 573      65617246 
 573      49464F00 
 574 013a 00000000 		.ascii	"\000\000\000\000\302\000\000\000Ignition_Timer_1_Wr"
 574      C2000000 
ARM GAS  C:\Users\Bruger\AppData\Local\Temp\ccusA8cR.s 			page 44


 574      49676E69 
 574      74696F6E 
 574      5F54696D 
 575 0155 69746550 		.ascii	"itePeriod\000\000\000\000\000\000\000\000\000\000\000"
 575      6572696F 
 575      64000000 
 575      00000000 
 575      00000000 
 576 0169 00C40000 		.ascii	"\000\304\000\000\000Ignition_Timer_1_WriteCompare\000"
 576      0049676E 
 576      6974696F 
 576      6E5F5469 
 576      6D65725F 
 577 018c 00000000 		.ascii	"\000\000\000\000\000\000\000\000\000\000\000\306\000"
 577      00000000 
 577      000000C6 
 577      00
 578 0199 00004967 		.ascii	"\000\000Ignition_Timer_1_SetInterruptMode\000\000\000"
 578      6E697469 
 578      6F6E5F54 
 578      696D6572 
 578      5F315F53 
 579 01bf 00000000 		.ascii	"\000\000\000\000\000\000\000\000\000\317\000\000\000"
 579      00000000 
 579      00CF0000 
 579      00
 580 01cc 49676E69 		.ascii	"Ignition_Timer_1_ReadStatusRegister\000\000\000\000"
 580      74696F6E 
 580      5F54696D 
 580      65725F31 
 580      5F526561 
 581 01f3 00000000 		.ascii	"\000\000\000\000\000\000\000\000\322\000\000\000Ign"
 581      00000000 
 581      D2000000 
 581      49676E
 582 0202 6974696F 		.ascii	"ition_Timer_1_ReadControlRegister\000\000\000\000\000"
 582      6E5F5469 
 582      6D65725F 
 582      315F5265 
 582      6164436F 
 583 0228 00000000 		.ascii	"\000\000\000\000\000\000\000\324\000\000\000Ignitio"
 583      000000D4 
 583      00000049 
 583      676E6974 
 583      696F
 584 023a 6E5F5469 		.ascii	"n_Timer_1_WriteControlRegister\000\000\000\000\000\000"
 584      6D65725F 
 584      315F5772 
 584      69746543 
 584      6F6E7472 
 585 025e 00000000 		.ascii	"\000\000\000\000\000\000\326\000\000\000Ignition_Ti"
 585      0000D600 
 585      00004967 
 585      6E697469 
 585      6F6E5F54 
 586 0273 6D65725F 		.ascii	"mer_1_ReadCapture\000\000\000\000\000\000\000\000\000"
 586      315F5265 
ARM GAS  C:\Users\Bruger\AppData\Local\Temp\ccusA8cR.s 			page 45


 586      61644361 
 586      70747572 
 586      65000000 
 587 028d 000000D8 		.ascii	"\000\000\000\330\000\000\000Ignition_Timer_1_ReadCo"
 587      00000049 
 587      676E6974 
 587      696F6E5F 
 587      54696D65 
 588 02ab 6D706172 		.ascii	"mpare\000\000\000\000\000\000\000\000\000\000\000\000"
 588      65000000 
 588      00000000 
 588      00000000 
 588      00
 589 02bc DA000000 		.ascii	"\332\000\000\000Ignition_Timer_1_ReadPeriod\000\000"
 589      49676E69 
 589      74696F6E 
 589      5F54696D 
 589      65725F31 
 590 02dd 00000000 		.ascii	"\000\000\000\000\000\000\000\000\000\000\334\000\000"
 590      00000000 
 590      0000DC00 
 590      00
 591 02ea 00437945 		.ascii	"\000CyExitCriticalSection\000\000\002\000\000\000\000"
 591      78697443 
 591      72697469 
 591      63616C53 
 591      65637469 
 592 0307 00000000 		.ascii	"\000\000\000\000\000\336\000\000\000CyEnterCritical"
 592      00DE0000 
 592      00437945 
 592      6E746572 
 592      43726974 
 593 031f 53656374 		.ascii	"Section\000\000\002\000\000\000\000\000\000\000\000"
 593      696F6E00 
 593      00020000 
 593      00000000 
 593      0000
 594 0331 00E00000 		.ascii	"\000\340\000\000\000"
 594      00
 595              		.text
 596              		.section	.gnu.lto_.opts,"",%progbits
 597 0000 272D666E 		.ascii	"'-fno-trapv' '-mcpu=cortex-m3' '-mthumb' '-g' '-O3'"
 597      6F2D7472 
 597      61707627 
 597      20272D6D 
 597      6370753D 
 598 0033 20272D66 		.ascii	" '-ffunction-sections' '-finline-functions' '-flto'"
 598      66756E63 
 598      74696F6E 
 598      2D736563 
 598      74696F6E 
 599 0066 20272D66 		.ascii	" '-ffat-lto-objects'\000"
 599      6661742D 
 599      6C746F2D 
 599      6F626A65 
 599      63747327 
 600              		.text
ARM GAS  C:\Users\Bruger\AppData\Local\Temp\ccusA8cR.s 			page 46


 601              		.cfi_sections	.debug_frame
 602              		.section	.text.Ignition_Timer_1_Start,"ax",%progbits
 603              		.align	2
 604              		.global	Ignition_Timer_1_Start
 605              		.thumb
 606              		.thumb_func
 607              		.type	Ignition_Timer_1_Start, %function
 608              	Ignition_Timer_1_Start:
 609              	.LFB0:
 610              		.file 1 "Generated_Source\\PSoC5\\Ignition_Timer_1.c"
   1:Generated_Source\PSoC5/Ignition_Timer_1.c **** /*******************************************************************************
   2:Generated_Source\PSoC5/Ignition_Timer_1.c **** * File Name: Ignition_Timer_1.c
   3:Generated_Source\PSoC5/Ignition_Timer_1.c **** * Version 3.30
   4:Generated_Source\PSoC5/Ignition_Timer_1.c **** *
   5:Generated_Source\PSoC5/Ignition_Timer_1.c **** * Description:
   6:Generated_Source\PSoC5/Ignition_Timer_1.c **** *  The PWM User Module consist of an 8 or 16-bit counter with two 8 or 16-bit
   7:Generated_Source\PSoC5/Ignition_Timer_1.c **** *  comparitors. Each instance of this user module is capable of generating
   8:Generated_Source\PSoC5/Ignition_Timer_1.c **** *  two PWM outputs with the same period. The pulse width is selectable between
   9:Generated_Source\PSoC5/Ignition_Timer_1.c **** *  1 and 255/65535. The period is selectable between 2 and 255/65536 clocks.
  10:Generated_Source\PSoC5/Ignition_Timer_1.c **** *  The compare value output may be configured to be active when the present
  11:Generated_Source\PSoC5/Ignition_Timer_1.c **** *  counter is less than or less than/equal to the compare value.
  12:Generated_Source\PSoC5/Ignition_Timer_1.c **** *  A terminal count output is also provided. It generates a pulse one clock
  13:Generated_Source\PSoC5/Ignition_Timer_1.c **** *  width wide when the counter is equal to zero.
  14:Generated_Source\PSoC5/Ignition_Timer_1.c **** *
  15:Generated_Source\PSoC5/Ignition_Timer_1.c **** * Note:
  16:Generated_Source\PSoC5/Ignition_Timer_1.c **** *
  17:Generated_Source\PSoC5/Ignition_Timer_1.c **** *******************************************************************************
  18:Generated_Source\PSoC5/Ignition_Timer_1.c **** * Copyright 2008-2014, Cypress Semiconductor Corporation.  All rights reserved.
  19:Generated_Source\PSoC5/Ignition_Timer_1.c **** * You may use this file only in accordance with the license, terms, conditions,
  20:Generated_Source\PSoC5/Ignition_Timer_1.c **** * disclaimers, and limitations in the end user license agreement accompanying
  21:Generated_Source\PSoC5/Ignition_Timer_1.c **** * the software package with which this file was provided.
  22:Generated_Source\PSoC5/Ignition_Timer_1.c **** ********************************************************************************/
  23:Generated_Source\PSoC5/Ignition_Timer_1.c **** 
  24:Generated_Source\PSoC5/Ignition_Timer_1.c **** #include "Ignition_Timer_1.h"
  25:Generated_Source\PSoC5/Ignition_Timer_1.c **** 
  26:Generated_Source\PSoC5/Ignition_Timer_1.c **** /* Error message for removed <resource> through optimization */
  27:Generated_Source\PSoC5/Ignition_Timer_1.c **** #ifdef Ignition_Timer_1_PWMUDB_genblk1_ctrlreg__REMOVED
  28:Generated_Source\PSoC5/Ignition_Timer_1.c ****     #error PWM_v3_30 detected with a constant 0 for the enable or \
  29:Generated_Source\PSoC5/Ignition_Timer_1.c ****          constant 1 for reset. This will prevent the component from operating.
  30:Generated_Source\PSoC5/Ignition_Timer_1.c **** #endif /* Ignition_Timer_1_PWMUDB_genblk1_ctrlreg__REMOVED */
  31:Generated_Source\PSoC5/Ignition_Timer_1.c **** 
  32:Generated_Source\PSoC5/Ignition_Timer_1.c **** uint8 Ignition_Timer_1_initVar = 0u;
  33:Generated_Source\PSoC5/Ignition_Timer_1.c **** 
  34:Generated_Source\PSoC5/Ignition_Timer_1.c **** 
  35:Generated_Source\PSoC5/Ignition_Timer_1.c **** /*******************************************************************************
  36:Generated_Source\PSoC5/Ignition_Timer_1.c **** * Function Name: Ignition_Timer_1_Start
  37:Generated_Source\PSoC5/Ignition_Timer_1.c **** ********************************************************************************
  38:Generated_Source\PSoC5/Ignition_Timer_1.c **** *
  39:Generated_Source\PSoC5/Ignition_Timer_1.c **** * Summary:
  40:Generated_Source\PSoC5/Ignition_Timer_1.c **** *  The start function initializes the pwm with the default values, the
  41:Generated_Source\PSoC5/Ignition_Timer_1.c **** *  enables the counter to begin counting.  It does not enable interrupts,
  42:Generated_Source\PSoC5/Ignition_Timer_1.c **** *  the EnableInt command should be called if interrupt generation is required.
  43:Generated_Source\PSoC5/Ignition_Timer_1.c **** *
  44:Generated_Source\PSoC5/Ignition_Timer_1.c **** * Parameters:
  45:Generated_Source\PSoC5/Ignition_Timer_1.c **** *  None
  46:Generated_Source\PSoC5/Ignition_Timer_1.c **** *
  47:Generated_Source\PSoC5/Ignition_Timer_1.c **** * Return:
ARM GAS  C:\Users\Bruger\AppData\Local\Temp\ccusA8cR.s 			page 47


  48:Generated_Source\PSoC5/Ignition_Timer_1.c **** *  None
  49:Generated_Source\PSoC5/Ignition_Timer_1.c **** *
  50:Generated_Source\PSoC5/Ignition_Timer_1.c **** * Global variables:
  51:Generated_Source\PSoC5/Ignition_Timer_1.c **** *  Ignition_Timer_1_initVar: Is modified when this function is called for the
  52:Generated_Source\PSoC5/Ignition_Timer_1.c **** *   first time. Is used to ensure that initialization happens only once.
  53:Generated_Source\PSoC5/Ignition_Timer_1.c **** *
  54:Generated_Source\PSoC5/Ignition_Timer_1.c **** *******************************************************************************/
  55:Generated_Source\PSoC5/Ignition_Timer_1.c **** void Ignition_Timer_1_Start(void) 
  56:Generated_Source\PSoC5/Ignition_Timer_1.c **** {
 611              		.loc 1 56 0
 612              		.cfi_startproc
 613              		@ args = 0, pretend = 0, frame = 0
 614              		@ frame_needed = 0, uses_anonymous_args = 0
 615 0000 F8B5     		push	{r3, r4, r5, r6, r7, lr}
 616              		.cfi_def_cfa_offset 24
 617              		.cfi_offset 3, -24
 618              		.cfi_offset 4, -20
 619              		.cfi_offset 5, -16
 620              		.cfi_offset 6, -12
 621              		.cfi_offset 7, -8
 622              		.cfi_offset 14, -4
  57:Generated_Source\PSoC5/Ignition_Timer_1.c ****     /* If not Initialized then initialize all required hardware and software */
  58:Generated_Source\PSoC5/Ignition_Timer_1.c ****     if(Ignition_Timer_1_initVar == 0u)
 623              		.loc 1 58 0
 624 0002 1F4C     		ldr	r4, .L13
 625 0004 2378     		ldrb	r3, [r4]	@ zero_extendqisi2
 626 0006 2BB1     		cbz	r3, .L12
 627              	.L2:
 628              	.LBB40:
 629              	.LBB41:
  59:Generated_Source\PSoC5/Ignition_Timer_1.c ****     {
  60:Generated_Source\PSoC5/Ignition_Timer_1.c ****         Ignition_Timer_1_Init();
  61:Generated_Source\PSoC5/Ignition_Timer_1.c ****         Ignition_Timer_1_initVar = 1u;
  62:Generated_Source\PSoC5/Ignition_Timer_1.c ****     }
  63:Generated_Source\PSoC5/Ignition_Timer_1.c ****     Ignition_Timer_1_Enable();
  64:Generated_Source\PSoC5/Ignition_Timer_1.c **** 
  65:Generated_Source\PSoC5/Ignition_Timer_1.c **** }
  66:Generated_Source\PSoC5/Ignition_Timer_1.c **** 
  67:Generated_Source\PSoC5/Ignition_Timer_1.c **** 
  68:Generated_Source\PSoC5/Ignition_Timer_1.c **** /*******************************************************************************
  69:Generated_Source\PSoC5/Ignition_Timer_1.c **** * Function Name: Ignition_Timer_1_Init
  70:Generated_Source\PSoC5/Ignition_Timer_1.c **** ********************************************************************************
  71:Generated_Source\PSoC5/Ignition_Timer_1.c **** *
  72:Generated_Source\PSoC5/Ignition_Timer_1.c **** * Summary:
  73:Generated_Source\PSoC5/Ignition_Timer_1.c **** *  Initialize component's parameters to the parameters set by user in the
  74:Generated_Source\PSoC5/Ignition_Timer_1.c **** *  customizer of the component placed onto schematic. Usually called in
  75:Generated_Source\PSoC5/Ignition_Timer_1.c **** *  Ignition_Timer_1_Start().
  76:Generated_Source\PSoC5/Ignition_Timer_1.c **** *
  77:Generated_Source\PSoC5/Ignition_Timer_1.c **** * Parameters:
  78:Generated_Source\PSoC5/Ignition_Timer_1.c **** *  None
  79:Generated_Source\PSoC5/Ignition_Timer_1.c **** *
  80:Generated_Source\PSoC5/Ignition_Timer_1.c **** * Return:
  81:Generated_Source\PSoC5/Ignition_Timer_1.c **** *  None
  82:Generated_Source\PSoC5/Ignition_Timer_1.c **** *
  83:Generated_Source\PSoC5/Ignition_Timer_1.c **** *******************************************************************************/
  84:Generated_Source\PSoC5/Ignition_Timer_1.c **** void Ignition_Timer_1_Init(void) 
  85:Generated_Source\PSoC5/Ignition_Timer_1.c **** {
ARM GAS  C:\Users\Bruger\AppData\Local\Temp\ccusA8cR.s 			page 48


  86:Generated_Source\PSoC5/Ignition_Timer_1.c ****     #if (Ignition_Timer_1_UsingFixedFunction || Ignition_Timer_1_UseControl)
  87:Generated_Source\PSoC5/Ignition_Timer_1.c ****         uint8 ctrl;
  88:Generated_Source\PSoC5/Ignition_Timer_1.c ****     #endif /* (Ignition_Timer_1_UsingFixedFunction || Ignition_Timer_1_UseControl) */
  89:Generated_Source\PSoC5/Ignition_Timer_1.c **** 
  90:Generated_Source\PSoC5/Ignition_Timer_1.c ****     #if(!Ignition_Timer_1_UsingFixedFunction)
  91:Generated_Source\PSoC5/Ignition_Timer_1.c ****         #if(Ignition_Timer_1_UseStatus)
  92:Generated_Source\PSoC5/Ignition_Timer_1.c ****             /* Interrupt State Backup for Critical Region*/
  93:Generated_Source\PSoC5/Ignition_Timer_1.c ****             uint8 Ignition_Timer_1_interruptState;
  94:Generated_Source\PSoC5/Ignition_Timer_1.c ****         #endif /* (Ignition_Timer_1_UseStatus) */
  95:Generated_Source\PSoC5/Ignition_Timer_1.c ****     #endif /* (!Ignition_Timer_1_UsingFixedFunction) */
  96:Generated_Source\PSoC5/Ignition_Timer_1.c **** 
  97:Generated_Source\PSoC5/Ignition_Timer_1.c ****     #if (Ignition_Timer_1_UsingFixedFunction)
  98:Generated_Source\PSoC5/Ignition_Timer_1.c ****         /* You are allowed to write the compare value (FF only) */
  99:Generated_Source\PSoC5/Ignition_Timer_1.c ****         Ignition_Timer_1_CONTROL |= Ignition_Timer_1_CFG0_MODE;
 100:Generated_Source\PSoC5/Ignition_Timer_1.c ****         #if (Ignition_Timer_1_DeadBand2_4)
 101:Generated_Source\PSoC5/Ignition_Timer_1.c ****             Ignition_Timer_1_CONTROL |= Ignition_Timer_1_CFG0_DB;
 102:Generated_Source\PSoC5/Ignition_Timer_1.c ****         #endif /* (Ignition_Timer_1_DeadBand2_4) */
 103:Generated_Source\PSoC5/Ignition_Timer_1.c **** 
 104:Generated_Source\PSoC5/Ignition_Timer_1.c ****         ctrl = Ignition_Timer_1_CONTROL3 & ((uint8 )(~Ignition_Timer_1_CTRL_CMPMODE1_MASK));
 105:Generated_Source\PSoC5/Ignition_Timer_1.c ****         Ignition_Timer_1_CONTROL3 = ctrl | Ignition_Timer_1_DEFAULT_COMPARE1_MODE;
 106:Generated_Source\PSoC5/Ignition_Timer_1.c **** 
 107:Generated_Source\PSoC5/Ignition_Timer_1.c ****          /* Clear and Set SYNCTC and SYNCCMP bits of RT1 register */
 108:Generated_Source\PSoC5/Ignition_Timer_1.c ****         Ignition_Timer_1_RT1 &= ((uint8)(~Ignition_Timer_1_RT1_MASK));
 109:Generated_Source\PSoC5/Ignition_Timer_1.c ****         Ignition_Timer_1_RT1 |= Ignition_Timer_1_SYNC;
 110:Generated_Source\PSoC5/Ignition_Timer_1.c **** 
 111:Generated_Source\PSoC5/Ignition_Timer_1.c ****         /*Enable DSI Sync all all inputs of the PWM*/
 112:Generated_Source\PSoC5/Ignition_Timer_1.c ****         Ignition_Timer_1_RT1 &= ((uint8)(~Ignition_Timer_1_SYNCDSI_MASK));
 113:Generated_Source\PSoC5/Ignition_Timer_1.c ****         Ignition_Timer_1_RT1 |= Ignition_Timer_1_SYNCDSI_EN;
 114:Generated_Source\PSoC5/Ignition_Timer_1.c **** 
 115:Generated_Source\PSoC5/Ignition_Timer_1.c ****     #elif (Ignition_Timer_1_UseControl)
 116:Generated_Source\PSoC5/Ignition_Timer_1.c ****         /* Set the default compare mode defined in the parameter */
 117:Generated_Source\PSoC5/Ignition_Timer_1.c ****         ctrl = Ignition_Timer_1_CONTROL & ((uint8)(~Ignition_Timer_1_CTRL_CMPMODE2_MASK)) &
 118:Generated_Source\PSoC5/Ignition_Timer_1.c ****                 ((uint8)(~Ignition_Timer_1_CTRL_CMPMODE1_MASK));
 119:Generated_Source\PSoC5/Ignition_Timer_1.c ****         Ignition_Timer_1_CONTROL = ctrl | Ignition_Timer_1_DEFAULT_COMPARE2_MODE |
 120:Generated_Source\PSoC5/Ignition_Timer_1.c ****                                    Ignition_Timer_1_DEFAULT_COMPARE1_MODE;
 121:Generated_Source\PSoC5/Ignition_Timer_1.c ****     #endif /* (Ignition_Timer_1_UsingFixedFunction) */
 122:Generated_Source\PSoC5/Ignition_Timer_1.c **** 
 123:Generated_Source\PSoC5/Ignition_Timer_1.c ****     #if (!Ignition_Timer_1_UsingFixedFunction)
 124:Generated_Source\PSoC5/Ignition_Timer_1.c ****         #if (Ignition_Timer_1_Resolution == 8)
 125:Generated_Source\PSoC5/Ignition_Timer_1.c ****             /* Set FIFO 0 to 1 byte register for period*/
 126:Generated_Source\PSoC5/Ignition_Timer_1.c ****             Ignition_Timer_1_AUX_CONTROLDP0 |= (Ignition_Timer_1_AUX_CTRL_FIFO0_CLR);
 127:Generated_Source\PSoC5/Ignition_Timer_1.c ****         #else /* (Ignition_Timer_1_Resolution == 16)*/
 128:Generated_Source\PSoC5/Ignition_Timer_1.c ****             /* Set FIFO 0 to 1 byte register for period */
 129:Generated_Source\PSoC5/Ignition_Timer_1.c ****             Ignition_Timer_1_AUX_CONTROLDP0 |= (Ignition_Timer_1_AUX_CTRL_FIFO0_CLR);
 130:Generated_Source\PSoC5/Ignition_Timer_1.c ****             Ignition_Timer_1_AUX_CONTROLDP1 |= (Ignition_Timer_1_AUX_CTRL_FIFO0_CLR);
 131:Generated_Source\PSoC5/Ignition_Timer_1.c ****         #endif /* (Ignition_Timer_1_Resolution == 8) */
 132:Generated_Source\PSoC5/Ignition_Timer_1.c **** 
 133:Generated_Source\PSoC5/Ignition_Timer_1.c ****         Ignition_Timer_1_WriteCounter(Ignition_Timer_1_INIT_PERIOD_VALUE);
 134:Generated_Source\PSoC5/Ignition_Timer_1.c ****     #endif /* (!Ignition_Timer_1_UsingFixedFunction) */
 135:Generated_Source\PSoC5/Ignition_Timer_1.c **** 
 136:Generated_Source\PSoC5/Ignition_Timer_1.c ****     Ignition_Timer_1_WritePeriod(Ignition_Timer_1_INIT_PERIOD_VALUE);
 137:Generated_Source\PSoC5/Ignition_Timer_1.c **** 
 138:Generated_Source\PSoC5/Ignition_Timer_1.c ****         #if (Ignition_Timer_1_UseOneCompareMode)
 139:Generated_Source\PSoC5/Ignition_Timer_1.c ****             Ignition_Timer_1_WriteCompare(Ignition_Timer_1_INIT_COMPARE_VALUE1);
 140:Generated_Source\PSoC5/Ignition_Timer_1.c ****         #else
 141:Generated_Source\PSoC5/Ignition_Timer_1.c ****             Ignition_Timer_1_WriteCompare1(Ignition_Timer_1_INIT_COMPARE_VALUE1);
 142:Generated_Source\PSoC5/Ignition_Timer_1.c ****             Ignition_Timer_1_WriteCompare2(Ignition_Timer_1_INIT_COMPARE_VALUE2);
ARM GAS  C:\Users\Bruger\AppData\Local\Temp\ccusA8cR.s 			page 49


 143:Generated_Source\PSoC5/Ignition_Timer_1.c ****         #endif /* (Ignition_Timer_1_UseOneCompareMode) */
 144:Generated_Source\PSoC5/Ignition_Timer_1.c **** 
 145:Generated_Source\PSoC5/Ignition_Timer_1.c ****         #if (Ignition_Timer_1_KillModeMinTime)
 146:Generated_Source\PSoC5/Ignition_Timer_1.c ****             Ignition_Timer_1_WriteKillTime(Ignition_Timer_1_MinimumKillTime);
 147:Generated_Source\PSoC5/Ignition_Timer_1.c ****         #endif /* (Ignition_Timer_1_KillModeMinTime) */
 148:Generated_Source\PSoC5/Ignition_Timer_1.c **** 
 149:Generated_Source\PSoC5/Ignition_Timer_1.c ****         #if (Ignition_Timer_1_DeadBandUsed)
 150:Generated_Source\PSoC5/Ignition_Timer_1.c ****             Ignition_Timer_1_WriteDeadTime(Ignition_Timer_1_INIT_DEAD_TIME);
 151:Generated_Source\PSoC5/Ignition_Timer_1.c ****         #endif /* (Ignition_Timer_1_DeadBandUsed) */
 152:Generated_Source\PSoC5/Ignition_Timer_1.c **** 
 153:Generated_Source\PSoC5/Ignition_Timer_1.c ****     #if (Ignition_Timer_1_UseStatus || Ignition_Timer_1_UsingFixedFunction)
 154:Generated_Source\PSoC5/Ignition_Timer_1.c ****         Ignition_Timer_1_SetInterruptMode(Ignition_Timer_1_INIT_INTERRUPTS_MODE);
 155:Generated_Source\PSoC5/Ignition_Timer_1.c ****     #endif /* (Ignition_Timer_1_UseStatus || Ignition_Timer_1_UsingFixedFunction) */
 156:Generated_Source\PSoC5/Ignition_Timer_1.c **** 
 157:Generated_Source\PSoC5/Ignition_Timer_1.c ****     #if (Ignition_Timer_1_UsingFixedFunction)
 158:Generated_Source\PSoC5/Ignition_Timer_1.c ****         /* Globally Enable the Fixed Function Block chosen */
 159:Generated_Source\PSoC5/Ignition_Timer_1.c ****         Ignition_Timer_1_GLOBAL_ENABLE |= Ignition_Timer_1_BLOCK_EN_MASK;
 160:Generated_Source\PSoC5/Ignition_Timer_1.c ****         /* Set the Interrupt source to come from the status register */
 161:Generated_Source\PSoC5/Ignition_Timer_1.c ****         Ignition_Timer_1_CONTROL2 |= Ignition_Timer_1_CTRL2_IRQ_SEL;
 162:Generated_Source\PSoC5/Ignition_Timer_1.c ****     #else
 163:Generated_Source\PSoC5/Ignition_Timer_1.c ****         #if(Ignition_Timer_1_UseStatus)
 164:Generated_Source\PSoC5/Ignition_Timer_1.c **** 
 165:Generated_Source\PSoC5/Ignition_Timer_1.c ****             /* CyEnterCriticalRegion and CyExitCriticalRegion are used to mark following region cri
 166:Generated_Source\PSoC5/Ignition_Timer_1.c ****             /* Enter Critical Region*/
 167:Generated_Source\PSoC5/Ignition_Timer_1.c ****             Ignition_Timer_1_interruptState = CyEnterCriticalSection();
 168:Generated_Source\PSoC5/Ignition_Timer_1.c ****             /* Use the interrupt output of the status register for IRQ output */
 169:Generated_Source\PSoC5/Ignition_Timer_1.c ****             Ignition_Timer_1_STATUS_AUX_CTRL |= Ignition_Timer_1_STATUS_ACTL_INT_EN_MASK;
 170:Generated_Source\PSoC5/Ignition_Timer_1.c **** 
 171:Generated_Source\PSoC5/Ignition_Timer_1.c ****              /* Exit Critical Region*/
 172:Generated_Source\PSoC5/Ignition_Timer_1.c ****             CyExitCriticalSection(Ignition_Timer_1_interruptState);
 173:Generated_Source\PSoC5/Ignition_Timer_1.c **** 
 174:Generated_Source\PSoC5/Ignition_Timer_1.c ****             /* Clear the FIFO to enable the Ignition_Timer_1_STATUS_FIFOFULL
 175:Generated_Source\PSoC5/Ignition_Timer_1.c ****                    bit to be set on FIFO full. */
 176:Generated_Source\PSoC5/Ignition_Timer_1.c ****             Ignition_Timer_1_ClearFIFO();
 177:Generated_Source\PSoC5/Ignition_Timer_1.c ****         #endif /* (Ignition_Timer_1_UseStatus) */
 178:Generated_Source\PSoC5/Ignition_Timer_1.c ****     #endif /* (Ignition_Timer_1_UsingFixedFunction) */
 179:Generated_Source\PSoC5/Ignition_Timer_1.c **** }
 180:Generated_Source\PSoC5/Ignition_Timer_1.c **** 
 181:Generated_Source\PSoC5/Ignition_Timer_1.c **** 
 182:Generated_Source\PSoC5/Ignition_Timer_1.c **** /*******************************************************************************
 183:Generated_Source\PSoC5/Ignition_Timer_1.c **** * Function Name: Ignition_Timer_1_Enable
 184:Generated_Source\PSoC5/Ignition_Timer_1.c **** ********************************************************************************
 185:Generated_Source\PSoC5/Ignition_Timer_1.c **** *
 186:Generated_Source\PSoC5/Ignition_Timer_1.c **** * Summary:
 187:Generated_Source\PSoC5/Ignition_Timer_1.c **** *  Enables the PWM block operation
 188:Generated_Source\PSoC5/Ignition_Timer_1.c **** *
 189:Generated_Source\PSoC5/Ignition_Timer_1.c **** * Parameters:
 190:Generated_Source\PSoC5/Ignition_Timer_1.c **** *  None
 191:Generated_Source\PSoC5/Ignition_Timer_1.c **** *
 192:Generated_Source\PSoC5/Ignition_Timer_1.c **** * Return:
 193:Generated_Source\PSoC5/Ignition_Timer_1.c **** *  None
 194:Generated_Source\PSoC5/Ignition_Timer_1.c **** *
 195:Generated_Source\PSoC5/Ignition_Timer_1.c **** * Side Effects:
 196:Generated_Source\PSoC5/Ignition_Timer_1.c **** *  This works only if software enable mode is chosen
 197:Generated_Source\PSoC5/Ignition_Timer_1.c **** *
 198:Generated_Source\PSoC5/Ignition_Timer_1.c **** *******************************************************************************/
 199:Generated_Source\PSoC5/Ignition_Timer_1.c **** void Ignition_Timer_1_Enable(void) 
ARM GAS  C:\Users\Bruger\AppData\Local\Temp\ccusA8cR.s 			page 50


 200:Generated_Source\PSoC5/Ignition_Timer_1.c **** {
 201:Generated_Source\PSoC5/Ignition_Timer_1.c ****     /* Globally Enable the Fixed Function Block chosen */
 202:Generated_Source\PSoC5/Ignition_Timer_1.c ****     #if (Ignition_Timer_1_UsingFixedFunction)
 203:Generated_Source\PSoC5/Ignition_Timer_1.c ****         Ignition_Timer_1_GLOBAL_ENABLE |= Ignition_Timer_1_BLOCK_EN_MASK;
 204:Generated_Source\PSoC5/Ignition_Timer_1.c ****         Ignition_Timer_1_GLOBAL_STBY_ENABLE |= Ignition_Timer_1_BLOCK_STBY_EN_MASK;
 205:Generated_Source\PSoC5/Ignition_Timer_1.c ****     #endif /* (Ignition_Timer_1_UsingFixedFunction) */
 206:Generated_Source\PSoC5/Ignition_Timer_1.c **** 
 207:Generated_Source\PSoC5/Ignition_Timer_1.c ****     /* Enable the PWM from the control register  */
 208:Generated_Source\PSoC5/Ignition_Timer_1.c ****     #if (Ignition_Timer_1_UseControl || Ignition_Timer_1_UsingFixedFunction)
 209:Generated_Source\PSoC5/Ignition_Timer_1.c ****         Ignition_Timer_1_CONTROL |= Ignition_Timer_1_CTRL_ENABLE;
 630              		.loc 1 209 0
 631 0008 1E4A     		ldr	r2, .L13+4
 632 000a 1378     		ldrb	r3, [r2]	@ zero_extendqisi2
 633 000c 43F08003 		orr	r3, r3, #128
 634 0010 1370     		strb	r3, [r2]
 635 0012 F8BD     		pop	{r3, r4, r5, r6, r7, pc}
 636              	.L12:
 637              	.LBE41:
 638              	.LBE40:
 639              	.LBB42:
 640              	.LBB43:
 641              	.LBB44:
 642              	.LBB45:
 210:Generated_Source\PSoC5/Ignition_Timer_1.c ****     #endif /* (Ignition_Timer_1_UseControl || Ignition_Timer_1_UsingFixedFunction) */
 211:Generated_Source\PSoC5/Ignition_Timer_1.c **** }
 212:Generated_Source\PSoC5/Ignition_Timer_1.c **** 
 213:Generated_Source\PSoC5/Ignition_Timer_1.c **** 
 214:Generated_Source\PSoC5/Ignition_Timer_1.c **** /*******************************************************************************
 215:Generated_Source\PSoC5/Ignition_Timer_1.c **** * Function Name: Ignition_Timer_1_Stop
 216:Generated_Source\PSoC5/Ignition_Timer_1.c **** ********************************************************************************
 217:Generated_Source\PSoC5/Ignition_Timer_1.c **** *
 218:Generated_Source\PSoC5/Ignition_Timer_1.c **** * Summary:
 219:Generated_Source\PSoC5/Ignition_Timer_1.c **** *  The stop function halts the PWM, but does not change any modes or disable
 220:Generated_Source\PSoC5/Ignition_Timer_1.c **** *  interrupts.
 221:Generated_Source\PSoC5/Ignition_Timer_1.c **** *
 222:Generated_Source\PSoC5/Ignition_Timer_1.c **** * Parameters:
 223:Generated_Source\PSoC5/Ignition_Timer_1.c **** *  None
 224:Generated_Source\PSoC5/Ignition_Timer_1.c **** *
 225:Generated_Source\PSoC5/Ignition_Timer_1.c **** * Return:
 226:Generated_Source\PSoC5/Ignition_Timer_1.c **** *  None
 227:Generated_Source\PSoC5/Ignition_Timer_1.c **** *
 228:Generated_Source\PSoC5/Ignition_Timer_1.c **** * Side Effects:
 229:Generated_Source\PSoC5/Ignition_Timer_1.c **** *  If the Enable mode is set to Hardware only then this function
 230:Generated_Source\PSoC5/Ignition_Timer_1.c **** *  has no effect on the operation of the PWM
 231:Generated_Source\PSoC5/Ignition_Timer_1.c **** *
 232:Generated_Source\PSoC5/Ignition_Timer_1.c **** *******************************************************************************/
 233:Generated_Source\PSoC5/Ignition_Timer_1.c **** void Ignition_Timer_1_Stop(void) 
 234:Generated_Source\PSoC5/Ignition_Timer_1.c **** {
 235:Generated_Source\PSoC5/Ignition_Timer_1.c ****     #if (Ignition_Timer_1_UseControl || Ignition_Timer_1_UsingFixedFunction)
 236:Generated_Source\PSoC5/Ignition_Timer_1.c ****         Ignition_Timer_1_CONTROL &= ((uint8)(~Ignition_Timer_1_CTRL_ENABLE));
 237:Generated_Source\PSoC5/Ignition_Timer_1.c ****     #endif /* (Ignition_Timer_1_UseControl || Ignition_Timer_1_UsingFixedFunction) */
 238:Generated_Source\PSoC5/Ignition_Timer_1.c **** 
 239:Generated_Source\PSoC5/Ignition_Timer_1.c ****     /* Globally disable the Fixed Function Block chosen */
 240:Generated_Source\PSoC5/Ignition_Timer_1.c ****     #if (Ignition_Timer_1_UsingFixedFunction)
 241:Generated_Source\PSoC5/Ignition_Timer_1.c ****         Ignition_Timer_1_GLOBAL_ENABLE &= ((uint8)(~Ignition_Timer_1_BLOCK_EN_MASK));
 242:Generated_Source\PSoC5/Ignition_Timer_1.c ****         Ignition_Timer_1_GLOBAL_STBY_ENABLE &= ((uint8)(~Ignition_Timer_1_BLOCK_STBY_EN_MASK));
 243:Generated_Source\PSoC5/Ignition_Timer_1.c ****     #endif /* (Ignition_Timer_1_UsingFixedFunction) */
ARM GAS  C:\Users\Bruger\AppData\Local\Temp\ccusA8cR.s 			page 51


 244:Generated_Source\PSoC5/Ignition_Timer_1.c **** }
 245:Generated_Source\PSoC5/Ignition_Timer_1.c **** 
 246:Generated_Source\PSoC5/Ignition_Timer_1.c **** #if (Ignition_Timer_1_UseOneCompareMode)
 247:Generated_Source\PSoC5/Ignition_Timer_1.c ****     #if (Ignition_Timer_1_CompareMode1SW)
 248:Generated_Source\PSoC5/Ignition_Timer_1.c **** 
 249:Generated_Source\PSoC5/Ignition_Timer_1.c **** 
 250:Generated_Source\PSoC5/Ignition_Timer_1.c ****         /*******************************************************************************
 251:Generated_Source\PSoC5/Ignition_Timer_1.c ****         * Function Name: Ignition_Timer_1_SetCompareMode
 252:Generated_Source\PSoC5/Ignition_Timer_1.c ****         ********************************************************************************
 253:Generated_Source\PSoC5/Ignition_Timer_1.c ****         *
 254:Generated_Source\PSoC5/Ignition_Timer_1.c ****         * Summary:
 255:Generated_Source\PSoC5/Ignition_Timer_1.c ****         *  This function writes the Compare Mode for the pwm output when in Dither mode,
 256:Generated_Source\PSoC5/Ignition_Timer_1.c ****         *  Center Align Mode or One Output Mode.
 257:Generated_Source\PSoC5/Ignition_Timer_1.c ****         *
 258:Generated_Source\PSoC5/Ignition_Timer_1.c ****         * Parameters:
 259:Generated_Source\PSoC5/Ignition_Timer_1.c ****         *  comparemode:  The new compare mode for the PWM output. Use the compare types
 260:Generated_Source\PSoC5/Ignition_Timer_1.c ****         *                defined in the H file as input arguments.
 261:Generated_Source\PSoC5/Ignition_Timer_1.c ****         *
 262:Generated_Source\PSoC5/Ignition_Timer_1.c ****         * Return:
 263:Generated_Source\PSoC5/Ignition_Timer_1.c ****         *  None
 264:Generated_Source\PSoC5/Ignition_Timer_1.c ****         *
 265:Generated_Source\PSoC5/Ignition_Timer_1.c ****         *******************************************************************************/
 266:Generated_Source\PSoC5/Ignition_Timer_1.c ****         void Ignition_Timer_1_SetCompareMode(uint8 comparemode) 
 267:Generated_Source\PSoC5/Ignition_Timer_1.c ****         {
 268:Generated_Source\PSoC5/Ignition_Timer_1.c ****             #if(Ignition_Timer_1_UsingFixedFunction)
 269:Generated_Source\PSoC5/Ignition_Timer_1.c **** 
 270:Generated_Source\PSoC5/Ignition_Timer_1.c ****                 #if(0 != Ignition_Timer_1_CTRL_CMPMODE1_SHIFT)
 271:Generated_Source\PSoC5/Ignition_Timer_1.c ****                     uint8 comparemodemasked = ((uint8)((uint8)comparemode << Ignition_Timer_1_CTRL_
 272:Generated_Source\PSoC5/Ignition_Timer_1.c ****                 #else
 273:Generated_Source\PSoC5/Ignition_Timer_1.c ****                     uint8 comparemodemasked = comparemode;
 274:Generated_Source\PSoC5/Ignition_Timer_1.c ****                 #endif /* (0 != Ignition_Timer_1_CTRL_CMPMODE1_SHIFT) */
 275:Generated_Source\PSoC5/Ignition_Timer_1.c **** 
 276:Generated_Source\PSoC5/Ignition_Timer_1.c ****                 Ignition_Timer_1_CONTROL3 &= ((uint8)(~Ignition_Timer_1_CTRL_CMPMODE1_MASK)); /*Cle
 277:Generated_Source\PSoC5/Ignition_Timer_1.c ****                 Ignition_Timer_1_CONTROL3 |= comparemodemasked;
 278:Generated_Source\PSoC5/Ignition_Timer_1.c **** 
 279:Generated_Source\PSoC5/Ignition_Timer_1.c ****             #elif (Ignition_Timer_1_UseControl)
 280:Generated_Source\PSoC5/Ignition_Timer_1.c **** 
 281:Generated_Source\PSoC5/Ignition_Timer_1.c ****                 #if(0 != Ignition_Timer_1_CTRL_CMPMODE1_SHIFT)
 282:Generated_Source\PSoC5/Ignition_Timer_1.c ****                     uint8 comparemode1masked = ((uint8)((uint8)comparemode << Ignition_Timer_1_CTRL
 283:Generated_Source\PSoC5/Ignition_Timer_1.c ****                                                 Ignition_Timer_1_CTRL_CMPMODE1_MASK;
 284:Generated_Source\PSoC5/Ignition_Timer_1.c ****                 #else
 285:Generated_Source\PSoC5/Ignition_Timer_1.c ****                     uint8 comparemode1masked = comparemode & Ignition_Timer_1_CTRL_CMPMODE1_MASK;
 286:Generated_Source\PSoC5/Ignition_Timer_1.c ****                 #endif /* (0 != Ignition_Timer_1_CTRL_CMPMODE1_SHIFT) */
 287:Generated_Source\PSoC5/Ignition_Timer_1.c **** 
 288:Generated_Source\PSoC5/Ignition_Timer_1.c ****                 #if(0 != Ignition_Timer_1_CTRL_CMPMODE2_SHIFT)
 289:Generated_Source\PSoC5/Ignition_Timer_1.c ****                     uint8 comparemode2masked = ((uint8)((uint8)comparemode << Ignition_Timer_1_CTRL
 290:Generated_Source\PSoC5/Ignition_Timer_1.c ****                                                Ignition_Timer_1_CTRL_CMPMODE2_MASK;
 291:Generated_Source\PSoC5/Ignition_Timer_1.c ****                 #else
 292:Generated_Source\PSoC5/Ignition_Timer_1.c ****                     uint8 comparemode2masked = comparemode & Ignition_Timer_1_CTRL_CMPMODE2_MASK;
 293:Generated_Source\PSoC5/Ignition_Timer_1.c ****                 #endif /* (0 != Ignition_Timer_1_CTRL_CMPMODE2_SHIFT) */
 294:Generated_Source\PSoC5/Ignition_Timer_1.c **** 
 295:Generated_Source\PSoC5/Ignition_Timer_1.c ****                 /*Clear existing mode */
 296:Generated_Source\PSoC5/Ignition_Timer_1.c ****                 Ignition_Timer_1_CONTROL &= ((uint8)(~(Ignition_Timer_1_CTRL_CMPMODE1_MASK |
 297:Generated_Source\PSoC5/Ignition_Timer_1.c ****                                             Ignition_Timer_1_CTRL_CMPMODE2_MASK)));
 298:Generated_Source\PSoC5/Ignition_Timer_1.c ****                 Ignition_Timer_1_CONTROL |= (comparemode1masked | comparemode2masked);
 299:Generated_Source\PSoC5/Ignition_Timer_1.c **** 
 300:Generated_Source\PSoC5/Ignition_Timer_1.c ****             #else
ARM GAS  C:\Users\Bruger\AppData\Local\Temp\ccusA8cR.s 			page 52


 301:Generated_Source\PSoC5/Ignition_Timer_1.c ****                 uint8 temp = comparemode;
 302:Generated_Source\PSoC5/Ignition_Timer_1.c ****             #endif /* (Ignition_Timer_1_UsingFixedFunction) */
 303:Generated_Source\PSoC5/Ignition_Timer_1.c ****         }
 304:Generated_Source\PSoC5/Ignition_Timer_1.c ****     #endif /* Ignition_Timer_1_CompareMode1SW */
 305:Generated_Source\PSoC5/Ignition_Timer_1.c **** 
 306:Generated_Source\PSoC5/Ignition_Timer_1.c **** #else /* UseOneCompareMode */
 307:Generated_Source\PSoC5/Ignition_Timer_1.c **** 
 308:Generated_Source\PSoC5/Ignition_Timer_1.c ****     #if (Ignition_Timer_1_CompareMode1SW)
 309:Generated_Source\PSoC5/Ignition_Timer_1.c **** 
 310:Generated_Source\PSoC5/Ignition_Timer_1.c **** 
 311:Generated_Source\PSoC5/Ignition_Timer_1.c ****         /*******************************************************************************
 312:Generated_Source\PSoC5/Ignition_Timer_1.c ****         * Function Name: Ignition_Timer_1_SetCompareMode1
 313:Generated_Source\PSoC5/Ignition_Timer_1.c ****         ********************************************************************************
 314:Generated_Source\PSoC5/Ignition_Timer_1.c ****         *
 315:Generated_Source\PSoC5/Ignition_Timer_1.c ****         * Summary:
 316:Generated_Source\PSoC5/Ignition_Timer_1.c ****         *  This function writes the Compare Mode for the pwm or pwm1 output
 317:Generated_Source\PSoC5/Ignition_Timer_1.c ****         *
 318:Generated_Source\PSoC5/Ignition_Timer_1.c ****         * Parameters:
 319:Generated_Source\PSoC5/Ignition_Timer_1.c ****         *  comparemode:  The new compare mode for the PWM output. Use the compare types
 320:Generated_Source\PSoC5/Ignition_Timer_1.c ****         *                defined in the H file as input arguments.
 321:Generated_Source\PSoC5/Ignition_Timer_1.c ****         *
 322:Generated_Source\PSoC5/Ignition_Timer_1.c ****         * Return:
 323:Generated_Source\PSoC5/Ignition_Timer_1.c ****         *  None
 324:Generated_Source\PSoC5/Ignition_Timer_1.c ****         *
 325:Generated_Source\PSoC5/Ignition_Timer_1.c ****         *******************************************************************************/
 326:Generated_Source\PSoC5/Ignition_Timer_1.c ****         void Ignition_Timer_1_SetCompareMode1(uint8 comparemode) 
 327:Generated_Source\PSoC5/Ignition_Timer_1.c ****         {
 328:Generated_Source\PSoC5/Ignition_Timer_1.c ****             #if(0 != Ignition_Timer_1_CTRL_CMPMODE1_SHIFT)
 329:Generated_Source\PSoC5/Ignition_Timer_1.c ****                 uint8 comparemodemasked = ((uint8)((uint8)comparemode << Ignition_Timer_1_CTRL_CMPM
 330:Generated_Source\PSoC5/Ignition_Timer_1.c ****                                            Ignition_Timer_1_CTRL_CMPMODE1_MASK;
 331:Generated_Source\PSoC5/Ignition_Timer_1.c ****             #else
 332:Generated_Source\PSoC5/Ignition_Timer_1.c ****                 uint8 comparemodemasked = comparemode & Ignition_Timer_1_CTRL_CMPMODE1_MASK;
 333:Generated_Source\PSoC5/Ignition_Timer_1.c ****             #endif /* (0 != Ignition_Timer_1_CTRL_CMPMODE1_SHIFT) */
 334:Generated_Source\PSoC5/Ignition_Timer_1.c **** 
 335:Generated_Source\PSoC5/Ignition_Timer_1.c ****             #if (Ignition_Timer_1_UseControl)
 336:Generated_Source\PSoC5/Ignition_Timer_1.c ****                 Ignition_Timer_1_CONTROL &= ((uint8)(~Ignition_Timer_1_CTRL_CMPMODE1_MASK)); /*Clea
 337:Generated_Source\PSoC5/Ignition_Timer_1.c ****                 Ignition_Timer_1_CONTROL |= comparemodemasked;
 338:Generated_Source\PSoC5/Ignition_Timer_1.c ****             #endif /* (Ignition_Timer_1_UseControl) */
 339:Generated_Source\PSoC5/Ignition_Timer_1.c ****         }
 340:Generated_Source\PSoC5/Ignition_Timer_1.c ****     #endif /* Ignition_Timer_1_CompareMode1SW */
 341:Generated_Source\PSoC5/Ignition_Timer_1.c **** 
 342:Generated_Source\PSoC5/Ignition_Timer_1.c **** #if (Ignition_Timer_1_CompareMode2SW)
 343:Generated_Source\PSoC5/Ignition_Timer_1.c **** 
 344:Generated_Source\PSoC5/Ignition_Timer_1.c **** 
 345:Generated_Source\PSoC5/Ignition_Timer_1.c ****     /*******************************************************************************
 346:Generated_Source\PSoC5/Ignition_Timer_1.c ****     * Function Name: Ignition_Timer_1_SetCompareMode2
 347:Generated_Source\PSoC5/Ignition_Timer_1.c ****     ********************************************************************************
 348:Generated_Source\PSoC5/Ignition_Timer_1.c ****     *
 349:Generated_Source\PSoC5/Ignition_Timer_1.c ****     * Summary:
 350:Generated_Source\PSoC5/Ignition_Timer_1.c ****     *  This function writes the Compare Mode for the pwm or pwm2 output
 351:Generated_Source\PSoC5/Ignition_Timer_1.c ****     *
 352:Generated_Source\PSoC5/Ignition_Timer_1.c ****     * Parameters:
 353:Generated_Source\PSoC5/Ignition_Timer_1.c ****     *  comparemode:  The new compare mode for the PWM output. Use the compare types
 354:Generated_Source\PSoC5/Ignition_Timer_1.c ****     *                defined in the H file as input arguments.
 355:Generated_Source\PSoC5/Ignition_Timer_1.c ****     *
 356:Generated_Source\PSoC5/Ignition_Timer_1.c ****     * Return:
 357:Generated_Source\PSoC5/Ignition_Timer_1.c ****     *  None
ARM GAS  C:\Users\Bruger\AppData\Local\Temp\ccusA8cR.s 			page 53


 358:Generated_Source\PSoC5/Ignition_Timer_1.c ****     *
 359:Generated_Source\PSoC5/Ignition_Timer_1.c ****     *******************************************************************************/
 360:Generated_Source\PSoC5/Ignition_Timer_1.c ****     void Ignition_Timer_1_SetCompareMode2(uint8 comparemode) 
 361:Generated_Source\PSoC5/Ignition_Timer_1.c ****     {
 362:Generated_Source\PSoC5/Ignition_Timer_1.c **** 
 363:Generated_Source\PSoC5/Ignition_Timer_1.c ****         #if(0 != Ignition_Timer_1_CTRL_CMPMODE2_SHIFT)
 364:Generated_Source\PSoC5/Ignition_Timer_1.c ****             uint8 comparemodemasked = ((uint8)((uint8)comparemode << Ignition_Timer_1_CTRL_CMPMODE2
 365:Generated_Source\PSoC5/Ignition_Timer_1.c ****                                                  Ignition_Timer_1_CTRL_CMPMODE2_MASK;
 366:Generated_Source\PSoC5/Ignition_Timer_1.c ****         #else
 367:Generated_Source\PSoC5/Ignition_Timer_1.c ****             uint8 comparemodemasked = comparemode & Ignition_Timer_1_CTRL_CMPMODE2_MASK;
 368:Generated_Source\PSoC5/Ignition_Timer_1.c ****         #endif /* (0 != Ignition_Timer_1_CTRL_CMPMODE2_SHIFT) */
 369:Generated_Source\PSoC5/Ignition_Timer_1.c **** 
 370:Generated_Source\PSoC5/Ignition_Timer_1.c ****         #if (Ignition_Timer_1_UseControl)
 371:Generated_Source\PSoC5/Ignition_Timer_1.c ****             Ignition_Timer_1_CONTROL &= ((uint8)(~Ignition_Timer_1_CTRL_CMPMODE2_MASK)); /*Clear ex
 372:Generated_Source\PSoC5/Ignition_Timer_1.c ****             Ignition_Timer_1_CONTROL |= comparemodemasked;
 373:Generated_Source\PSoC5/Ignition_Timer_1.c ****         #endif /* (Ignition_Timer_1_UseControl) */
 374:Generated_Source\PSoC5/Ignition_Timer_1.c ****     }
 375:Generated_Source\PSoC5/Ignition_Timer_1.c ****     #endif /*Ignition_Timer_1_CompareMode2SW */
 376:Generated_Source\PSoC5/Ignition_Timer_1.c **** 
 377:Generated_Source\PSoC5/Ignition_Timer_1.c **** #endif /* UseOneCompareMode */
 378:Generated_Source\PSoC5/Ignition_Timer_1.c **** 
 379:Generated_Source\PSoC5/Ignition_Timer_1.c **** 
 380:Generated_Source\PSoC5/Ignition_Timer_1.c **** #if (!Ignition_Timer_1_UsingFixedFunction)
 381:Generated_Source\PSoC5/Ignition_Timer_1.c **** 
 382:Generated_Source\PSoC5/Ignition_Timer_1.c **** 
 383:Generated_Source\PSoC5/Ignition_Timer_1.c ****     /*******************************************************************************
 384:Generated_Source\PSoC5/Ignition_Timer_1.c ****     * Function Name: Ignition_Timer_1_WriteCounter
 385:Generated_Source\PSoC5/Ignition_Timer_1.c ****     ********************************************************************************
 386:Generated_Source\PSoC5/Ignition_Timer_1.c ****     *
 387:Generated_Source\PSoC5/Ignition_Timer_1.c ****     * Summary:
 388:Generated_Source\PSoC5/Ignition_Timer_1.c ****     *  Writes a new counter value directly to the counter register. This will be
 389:Generated_Source\PSoC5/Ignition_Timer_1.c ****     *  implemented for that currently running period and only that period. This API
 390:Generated_Source\PSoC5/Ignition_Timer_1.c ****     *  is valid only for UDB implementation and not available for fixed function
 391:Generated_Source\PSoC5/Ignition_Timer_1.c ****     *  PWM implementation.
 392:Generated_Source\PSoC5/Ignition_Timer_1.c ****     *
 393:Generated_Source\PSoC5/Ignition_Timer_1.c ****     * Parameters:
 394:Generated_Source\PSoC5/Ignition_Timer_1.c ****     *  counter:  The period new period counter value.
 395:Generated_Source\PSoC5/Ignition_Timer_1.c ****     *
 396:Generated_Source\PSoC5/Ignition_Timer_1.c ****     * Return:
 397:Generated_Source\PSoC5/Ignition_Timer_1.c ****     *  None
 398:Generated_Source\PSoC5/Ignition_Timer_1.c ****     *
 399:Generated_Source\PSoC5/Ignition_Timer_1.c ****     * Side Effects:
 400:Generated_Source\PSoC5/Ignition_Timer_1.c ****     *  The PWM Period will be reloaded when a counter value will be a zero
 401:Generated_Source\PSoC5/Ignition_Timer_1.c ****     *
 402:Generated_Source\PSoC5/Ignition_Timer_1.c ****     *******************************************************************************/
 403:Generated_Source\PSoC5/Ignition_Timer_1.c ****     void Ignition_Timer_1_WriteCounter(uint16 counter) \
 404:Generated_Source\PSoC5/Ignition_Timer_1.c ****                                        
 405:Generated_Source\PSoC5/Ignition_Timer_1.c ****     {
 406:Generated_Source\PSoC5/Ignition_Timer_1.c ****         CY_SET_REG16(Ignition_Timer_1_COUNTER_LSB_PTR, counter);
 643              		.loc 1 406 0
 644 0014 4AF6C871 		movw	r1, #45000
 645              	.LBE45:
 646              	.LBE44:
 117:Generated_Source\PSoC5/Ignition_Timer_1.c ****                 ((uint8)(~Ignition_Timer_1_CTRL_CMPMODE1_MASK));
 647              		.loc 1 117 0
 648 0018 1A4E     		ldr	r6, .L13+4
 129:Generated_Source\PSoC5/Ignition_Timer_1.c ****             Ignition_Timer_1_AUX_CONTROLDP1 |= (Ignition_Timer_1_AUX_CTRL_FIFO0_CLR);
ARM GAS  C:\Users\Bruger\AppData\Local\Temp\ccusA8cR.s 			page 54


 649              		.loc 1 129 0
 650 001a 1B48     		ldr	r0, .L13+8
 117:Generated_Source\PSoC5/Ignition_Timer_1.c ****                 ((uint8)(~Ignition_Timer_1_CTRL_CMPMODE1_MASK));
 651              		.loc 1 117 0
 652 001c 3278     		ldrb	r2, [r6]	@ zero_extendqisi2
 653              	.LVL0:
 130:Generated_Source\PSoC5/Ignition_Timer_1.c ****         #endif /* (Ignition_Timer_1_Resolution == 8) */
 654              		.loc 1 130 0
 655 001e 1B4D     		ldr	r5, .L13+12
 117:Generated_Source\PSoC5/Ignition_Timer_1.c ****                 ((uint8)(~Ignition_Timer_1_CTRL_CMPMODE1_MASK));
 656              		.loc 1 117 0
 657 0020 02F0C002 		and	r2, r2, #192
 658              	.LVL1:
 119:Generated_Source\PSoC5/Ignition_Timer_1.c ****                                    Ignition_Timer_1_DEFAULT_COMPARE1_MODE;
 659              		.loc 1 119 0
 660 0024 42F00902 		orr	r2, r2, #9
 661 0028 3270     		strb	r2, [r6]
 129:Generated_Source\PSoC5/Ignition_Timer_1.c ****             Ignition_Timer_1_AUX_CONTROLDP1 |= (Ignition_Timer_1_AUX_CTRL_FIFO0_CLR);
 662              		.loc 1 129 0
 663 002a 0278     		ldrb	r2, [r0]	@ zero_extendqisi2
 664              	.LBB48:
 665              	.LBB46:
 666              		.loc 1 406 0
 667 002c DFF868C0 		ldr	ip, .L13+24
 668              	.LBE46:
 669              	.LBE48:
 129:Generated_Source\PSoC5/Ignition_Timer_1.c ****             Ignition_Timer_1_AUX_CONTROLDP1 |= (Ignition_Timer_1_AUX_CTRL_FIFO0_CLR);
 670              		.loc 1 129 0
 671 0030 42F00102 		orr	r2, r2, #1
 672 0034 0270     		strb	r2, [r0]
 130:Generated_Source\PSoC5/Ignition_Timer_1.c ****         #endif /* (Ignition_Timer_1_Resolution == 8) */
 673              		.loc 1 130 0
 674 0036 2A78     		ldrb	r2, [r5]	@ zero_extendqisi2
 675              	.LBB49:
 676              	.LBB50:
 407:Generated_Source\PSoC5/Ignition_Timer_1.c ****     }
 408:Generated_Source\PSoC5/Ignition_Timer_1.c **** 
 409:Generated_Source\PSoC5/Ignition_Timer_1.c **** 
 410:Generated_Source\PSoC5/Ignition_Timer_1.c ****     /*******************************************************************************
 411:Generated_Source\PSoC5/Ignition_Timer_1.c ****     * Function Name: Ignition_Timer_1_ReadCounter
 412:Generated_Source\PSoC5/Ignition_Timer_1.c ****     ********************************************************************************
 413:Generated_Source\PSoC5/Ignition_Timer_1.c ****     *
 414:Generated_Source\PSoC5/Ignition_Timer_1.c ****     * Summary:
 415:Generated_Source\PSoC5/Ignition_Timer_1.c ****     *  This function returns the current value of the counter.  It doesn't matter
 416:Generated_Source\PSoC5/Ignition_Timer_1.c ****     *  if the counter is enabled or running.
 417:Generated_Source\PSoC5/Ignition_Timer_1.c ****     *
 418:Generated_Source\PSoC5/Ignition_Timer_1.c ****     * Parameters:
 419:Generated_Source\PSoC5/Ignition_Timer_1.c ****     *  None
 420:Generated_Source\PSoC5/Ignition_Timer_1.c ****     *
 421:Generated_Source\PSoC5/Ignition_Timer_1.c ****     * Return:
 422:Generated_Source\PSoC5/Ignition_Timer_1.c ****     *  The current value of the counter.
 423:Generated_Source\PSoC5/Ignition_Timer_1.c ****     *
 424:Generated_Source\PSoC5/Ignition_Timer_1.c ****     *******************************************************************************/
 425:Generated_Source\PSoC5/Ignition_Timer_1.c ****     uint16 Ignition_Timer_1_ReadCounter(void) 
 426:Generated_Source\PSoC5/Ignition_Timer_1.c ****     {
 427:Generated_Source\PSoC5/Ignition_Timer_1.c ****         /* Force capture by reading Accumulator */
 428:Generated_Source\PSoC5/Ignition_Timer_1.c ****         /* Must first do a software capture to be able to read the counter */
ARM GAS  C:\Users\Bruger\AppData\Local\Temp\ccusA8cR.s 			page 55


 429:Generated_Source\PSoC5/Ignition_Timer_1.c ****         /* It is up to the user code to make sure there isn't already captured data in the FIFO */
 430:Generated_Source\PSoC5/Ignition_Timer_1.c ****           (void)CY_GET_REG8(Ignition_Timer_1_COUNTERCAP_LSB_PTR_8BIT);
 431:Generated_Source\PSoC5/Ignition_Timer_1.c **** 
 432:Generated_Source\PSoC5/Ignition_Timer_1.c ****         /* Read the data from the FIFO */
 433:Generated_Source\PSoC5/Ignition_Timer_1.c ****         return (CY_GET_REG16(Ignition_Timer_1_CAPTURE_LSB_PTR));
 434:Generated_Source\PSoC5/Ignition_Timer_1.c ****     }
 435:Generated_Source\PSoC5/Ignition_Timer_1.c **** 
 436:Generated_Source\PSoC5/Ignition_Timer_1.c ****     #if (Ignition_Timer_1_UseStatus)
 437:Generated_Source\PSoC5/Ignition_Timer_1.c **** 
 438:Generated_Source\PSoC5/Ignition_Timer_1.c **** 
 439:Generated_Source\PSoC5/Ignition_Timer_1.c ****         /*******************************************************************************
 440:Generated_Source\PSoC5/Ignition_Timer_1.c ****         * Function Name: Ignition_Timer_1_ClearFIFO
 441:Generated_Source\PSoC5/Ignition_Timer_1.c ****         ********************************************************************************
 442:Generated_Source\PSoC5/Ignition_Timer_1.c ****         *
 443:Generated_Source\PSoC5/Ignition_Timer_1.c ****         * Summary:
 444:Generated_Source\PSoC5/Ignition_Timer_1.c ****         *  This function clears all capture data from the capture FIFO
 445:Generated_Source\PSoC5/Ignition_Timer_1.c ****         *
 446:Generated_Source\PSoC5/Ignition_Timer_1.c ****         * Parameters:
 447:Generated_Source\PSoC5/Ignition_Timer_1.c ****         *  None
 448:Generated_Source\PSoC5/Ignition_Timer_1.c ****         *
 449:Generated_Source\PSoC5/Ignition_Timer_1.c ****         * Return:
 450:Generated_Source\PSoC5/Ignition_Timer_1.c ****         *  None
 451:Generated_Source\PSoC5/Ignition_Timer_1.c ****         *
 452:Generated_Source\PSoC5/Ignition_Timer_1.c ****         *******************************************************************************/
 453:Generated_Source\PSoC5/Ignition_Timer_1.c ****         void Ignition_Timer_1_ClearFIFO(void) 
 454:Generated_Source\PSoC5/Ignition_Timer_1.c ****         {
 455:Generated_Source\PSoC5/Ignition_Timer_1.c ****             while(0u != (Ignition_Timer_1_ReadStatusRegister() & Ignition_Timer_1_STATUS_FIFONEMPTY
 456:Generated_Source\PSoC5/Ignition_Timer_1.c ****             {
 457:Generated_Source\PSoC5/Ignition_Timer_1.c ****                 (void)Ignition_Timer_1_ReadCapture();
 458:Generated_Source\PSoC5/Ignition_Timer_1.c ****             }
 459:Generated_Source\PSoC5/Ignition_Timer_1.c ****         }
 460:Generated_Source\PSoC5/Ignition_Timer_1.c **** 
 461:Generated_Source\PSoC5/Ignition_Timer_1.c ****     #endif /* Ignition_Timer_1_UseStatus */
 462:Generated_Source\PSoC5/Ignition_Timer_1.c **** 
 463:Generated_Source\PSoC5/Ignition_Timer_1.c **** #endif /* !Ignition_Timer_1_UsingFixedFunction */
 464:Generated_Source\PSoC5/Ignition_Timer_1.c **** 
 465:Generated_Source\PSoC5/Ignition_Timer_1.c **** 
 466:Generated_Source\PSoC5/Ignition_Timer_1.c **** /*******************************************************************************
 467:Generated_Source\PSoC5/Ignition_Timer_1.c **** * Function Name: Ignition_Timer_1_WritePeriod
 468:Generated_Source\PSoC5/Ignition_Timer_1.c **** ********************************************************************************
 469:Generated_Source\PSoC5/Ignition_Timer_1.c **** *
 470:Generated_Source\PSoC5/Ignition_Timer_1.c **** * Summary:
 471:Generated_Source\PSoC5/Ignition_Timer_1.c **** *  This function is used to change the period of the counter.  The new period
 472:Generated_Source\PSoC5/Ignition_Timer_1.c **** *  will be loaded the next time terminal count is detected.
 473:Generated_Source\PSoC5/Ignition_Timer_1.c **** *
 474:Generated_Source\PSoC5/Ignition_Timer_1.c **** * Parameters:
 475:Generated_Source\PSoC5/Ignition_Timer_1.c **** *  period:  Period value. May be between 1 and (2^Resolution)-1.  A value of 0
 476:Generated_Source\PSoC5/Ignition_Timer_1.c **** *           will result in the counter remaining at zero.
 477:Generated_Source\PSoC5/Ignition_Timer_1.c **** *
 478:Generated_Source\PSoC5/Ignition_Timer_1.c **** * Return:
 479:Generated_Source\PSoC5/Ignition_Timer_1.c **** *  None
 480:Generated_Source\PSoC5/Ignition_Timer_1.c **** *
 481:Generated_Source\PSoC5/Ignition_Timer_1.c **** *******************************************************************************/
 482:Generated_Source\PSoC5/Ignition_Timer_1.c **** void Ignition_Timer_1_WritePeriod(uint16 period) 
 483:Generated_Source\PSoC5/Ignition_Timer_1.c **** {
 484:Generated_Source\PSoC5/Ignition_Timer_1.c ****     #if(Ignition_Timer_1_UsingFixedFunction)
 485:Generated_Source\PSoC5/Ignition_Timer_1.c ****         CY_SET_REG16(Ignition_Timer_1_PERIOD_LSB_PTR, (uint16)period);
ARM GAS  C:\Users\Bruger\AppData\Local\Temp\ccusA8cR.s 			page 56


 486:Generated_Source\PSoC5/Ignition_Timer_1.c ****     #else
 487:Generated_Source\PSoC5/Ignition_Timer_1.c ****         CY_SET_REG16(Ignition_Timer_1_PERIOD_LSB_PTR, period);
 677              		.loc 1 487 0
 678 0038 DFF860E0 		ldr	lr, .L13+28
 679              	.LBE50:
 680              	.LBE49:
 130:Generated_Source\PSoC5/Ignition_Timer_1.c ****         #endif /* (Ignition_Timer_1_Resolution == 8) */
 681              		.loc 1 130 0
 682 003c 42F00102 		orr	r2, r2, #1
 683              	.LBB52:
 684              	.LBB53:
 488:Generated_Source\PSoC5/Ignition_Timer_1.c ****     #endif /* (Ignition_Timer_1_UsingFixedFunction) */
 489:Generated_Source\PSoC5/Ignition_Timer_1.c **** }
 490:Generated_Source\PSoC5/Ignition_Timer_1.c **** 
 491:Generated_Source\PSoC5/Ignition_Timer_1.c **** #if (Ignition_Timer_1_UseOneCompareMode)
 492:Generated_Source\PSoC5/Ignition_Timer_1.c **** 
 493:Generated_Source\PSoC5/Ignition_Timer_1.c **** 
 494:Generated_Source\PSoC5/Ignition_Timer_1.c ****     /*******************************************************************************
 495:Generated_Source\PSoC5/Ignition_Timer_1.c ****     * Function Name: Ignition_Timer_1_WriteCompare
 496:Generated_Source\PSoC5/Ignition_Timer_1.c ****     ********************************************************************************
 497:Generated_Source\PSoC5/Ignition_Timer_1.c ****     *
 498:Generated_Source\PSoC5/Ignition_Timer_1.c ****     * Summary:
 499:Generated_Source\PSoC5/Ignition_Timer_1.c ****     *  This funtion is used to change the compare1 value when the PWM is in Dither
 500:Generated_Source\PSoC5/Ignition_Timer_1.c ****     *  mode. The compare output will reflect the new value on the next UDB clock.
 501:Generated_Source\PSoC5/Ignition_Timer_1.c ****     *  The compare output will be driven high when the present counter value is
 502:Generated_Source\PSoC5/Ignition_Timer_1.c ****     *  compared to the compare value based on the compare mode defined in
 503:Generated_Source\PSoC5/Ignition_Timer_1.c ****     *  Dither Mode.
 504:Generated_Source\PSoC5/Ignition_Timer_1.c ****     *
 505:Generated_Source\PSoC5/Ignition_Timer_1.c ****     * Parameters:
 506:Generated_Source\PSoC5/Ignition_Timer_1.c ****     *  compare:  New compare value.
 507:Generated_Source\PSoC5/Ignition_Timer_1.c ****     *
 508:Generated_Source\PSoC5/Ignition_Timer_1.c ****     * Return:
 509:Generated_Source\PSoC5/Ignition_Timer_1.c ****     *  None
 510:Generated_Source\PSoC5/Ignition_Timer_1.c ****     *
 511:Generated_Source\PSoC5/Ignition_Timer_1.c ****     * Side Effects:
 512:Generated_Source\PSoC5/Ignition_Timer_1.c ****     *  This function is only available if the PWM mode parameter is set to
 513:Generated_Source\PSoC5/Ignition_Timer_1.c ****     *  Dither Mode, Center Aligned Mode or One Output Mode
 514:Generated_Source\PSoC5/Ignition_Timer_1.c ****     *
 515:Generated_Source\PSoC5/Ignition_Timer_1.c ****     *******************************************************************************/
 516:Generated_Source\PSoC5/Ignition_Timer_1.c ****     void Ignition_Timer_1_WriteCompare(uint16 compare) \
 517:Generated_Source\PSoC5/Ignition_Timer_1.c ****                                        
 518:Generated_Source\PSoC5/Ignition_Timer_1.c ****     {
 519:Generated_Source\PSoC5/Ignition_Timer_1.c ****         #if(Ignition_Timer_1_UsingFixedFunction)
 520:Generated_Source\PSoC5/Ignition_Timer_1.c ****             CY_SET_REG16(Ignition_Timer_1_COMPARE1_LSB_PTR, (uint16)compare);
 521:Generated_Source\PSoC5/Ignition_Timer_1.c ****         #else
 522:Generated_Source\PSoC5/Ignition_Timer_1.c ****             CY_SET_REG16(Ignition_Timer_1_COMPARE1_LSB_PTR, compare);
 685              		.loc 1 522 0
 686 0040 4FF4FA47 		mov	r7, #32000
 687              	.LBE53:
 688              	.LBE52:
 130:Generated_Source\PSoC5/Ignition_Timer_1.c ****         #endif /* (Ignition_Timer_1_Resolution == 8) */
 689              		.loc 1 130 0
 690 0044 2A70     		strb	r2, [r5]
 691              	.LVL2:
 692              	.LBB55:
 693              	.LBB47:
 406:Generated_Source\PSoC5/Ignition_Timer_1.c ****     }
ARM GAS  C:\Users\Bruger\AppData\Local\Temp\ccusA8cR.s 			page 57


 694              		.loc 1 406 0
 695 0046 ACF80010 		strh	r1, [ip]	@ movhi
 696              	.LVL3:
 697              	.LBE47:
 698              	.LBE55:
 699              	.LBB56:
 700              	.LBB51:
 487:Generated_Source\PSoC5/Ignition_Timer_1.c ****     #endif /* (Ignition_Timer_1_UsingFixedFunction) */
 701              		.loc 1 487 0
 702 004a AEF80010 		strh	r1, [lr]	@ movhi
 703              	.LVL4:
 704              	.LBE51:
 705              	.LBE56:
 706              	.LBB57:
 707              	.LBB54:
 708              		.loc 1 522 0
 709 004e A6F8DD73 		strh	r7, [r6, #989]	@ movhi
 710              	.LVL5:
 711              	.LBE54:
 712              	.LBE57:
 713              	.LBB58:
 714              	.LBB59:
 523:Generated_Source\PSoC5/Ignition_Timer_1.c ****         #endif /* (Ignition_Timer_1_UsingFixedFunction) */
 524:Generated_Source\PSoC5/Ignition_Timer_1.c **** 
 525:Generated_Source\PSoC5/Ignition_Timer_1.c ****         #if (Ignition_Timer_1_PWMMode == Ignition_Timer_1__B_PWM__DITHER)
 526:Generated_Source\PSoC5/Ignition_Timer_1.c ****             #if(Ignition_Timer_1_UsingFixedFunction)
 527:Generated_Source\PSoC5/Ignition_Timer_1.c ****                 CY_SET_REG16(Ignition_Timer_1_COMPARE2_LSB_PTR, (uint16)(compare + 1u));
 528:Generated_Source\PSoC5/Ignition_Timer_1.c ****             #else
 529:Generated_Source\PSoC5/Ignition_Timer_1.c ****                 CY_SET_REG16(Ignition_Timer_1_COMPARE2_LSB_PTR, (compare + 1u));
 530:Generated_Source\PSoC5/Ignition_Timer_1.c ****             #endif /* (Ignition_Timer_1_UsingFixedFunction) */
 531:Generated_Source\PSoC5/Ignition_Timer_1.c ****         #endif /* (Ignition_Timer_1_PWMMode == Ignition_Timer_1__B_PWM__DITHER) */
 532:Generated_Source\PSoC5/Ignition_Timer_1.c ****     }
 533:Generated_Source\PSoC5/Ignition_Timer_1.c **** 
 534:Generated_Source\PSoC5/Ignition_Timer_1.c **** 
 535:Generated_Source\PSoC5/Ignition_Timer_1.c **** #else
 536:Generated_Source\PSoC5/Ignition_Timer_1.c **** 
 537:Generated_Source\PSoC5/Ignition_Timer_1.c **** 
 538:Generated_Source\PSoC5/Ignition_Timer_1.c ****     /*******************************************************************************
 539:Generated_Source\PSoC5/Ignition_Timer_1.c ****     * Function Name: Ignition_Timer_1_WriteCompare1
 540:Generated_Source\PSoC5/Ignition_Timer_1.c ****     ********************************************************************************
 541:Generated_Source\PSoC5/Ignition_Timer_1.c ****     *
 542:Generated_Source\PSoC5/Ignition_Timer_1.c ****     * Summary:
 543:Generated_Source\PSoC5/Ignition_Timer_1.c ****     *  This funtion is used to change the compare1 value.  The compare output will
 544:Generated_Source\PSoC5/Ignition_Timer_1.c ****     *  reflect the new value on the next UDB clock.  The compare output will be
 545:Generated_Source\PSoC5/Ignition_Timer_1.c ****     *  driven high when the present counter value is less than or less than or
 546:Generated_Source\PSoC5/Ignition_Timer_1.c ****     *  equal to the compare register, depending on the mode.
 547:Generated_Source\PSoC5/Ignition_Timer_1.c ****     *
 548:Generated_Source\PSoC5/Ignition_Timer_1.c ****     * Parameters:
 549:Generated_Source\PSoC5/Ignition_Timer_1.c ****     *  compare:  New compare value.
 550:Generated_Source\PSoC5/Ignition_Timer_1.c ****     *
 551:Generated_Source\PSoC5/Ignition_Timer_1.c ****     * Return:
 552:Generated_Source\PSoC5/Ignition_Timer_1.c ****     *  None
 553:Generated_Source\PSoC5/Ignition_Timer_1.c ****     *
 554:Generated_Source\PSoC5/Ignition_Timer_1.c ****     *******************************************************************************/
 555:Generated_Source\PSoC5/Ignition_Timer_1.c ****     void Ignition_Timer_1_WriteCompare1(uint16 compare) \
 556:Generated_Source\PSoC5/Ignition_Timer_1.c ****                                         
 557:Generated_Source\PSoC5/Ignition_Timer_1.c ****     {
ARM GAS  C:\Users\Bruger\AppData\Local\Temp\ccusA8cR.s 			page 58


 558:Generated_Source\PSoC5/Ignition_Timer_1.c ****         #if(Ignition_Timer_1_UsingFixedFunction)
 559:Generated_Source\PSoC5/Ignition_Timer_1.c ****             CY_SET_REG16(Ignition_Timer_1_COMPARE1_LSB_PTR, (uint16)compare);
 560:Generated_Source\PSoC5/Ignition_Timer_1.c ****         #else
 561:Generated_Source\PSoC5/Ignition_Timer_1.c ****             CY_SET_REG16(Ignition_Timer_1_COMPARE1_LSB_PTR, compare);
 562:Generated_Source\PSoC5/Ignition_Timer_1.c ****         #endif /* (Ignition_Timer_1_UsingFixedFunction) */
 563:Generated_Source\PSoC5/Ignition_Timer_1.c ****     }
 564:Generated_Source\PSoC5/Ignition_Timer_1.c **** 
 565:Generated_Source\PSoC5/Ignition_Timer_1.c **** 
 566:Generated_Source\PSoC5/Ignition_Timer_1.c ****     /*******************************************************************************
 567:Generated_Source\PSoC5/Ignition_Timer_1.c ****     * Function Name: Ignition_Timer_1_WriteCompare2
 568:Generated_Source\PSoC5/Ignition_Timer_1.c ****     ********************************************************************************
 569:Generated_Source\PSoC5/Ignition_Timer_1.c ****     *
 570:Generated_Source\PSoC5/Ignition_Timer_1.c ****     * Summary:
 571:Generated_Source\PSoC5/Ignition_Timer_1.c ****     *  This funtion is used to change the compare value, for compare1 output.
 572:Generated_Source\PSoC5/Ignition_Timer_1.c ****     *  The compare output will reflect the new value on the next UDB clock.
 573:Generated_Source\PSoC5/Ignition_Timer_1.c ****     *  The compare output will be driven high when the present counter value is
 574:Generated_Source\PSoC5/Ignition_Timer_1.c ****     *  less than or less than or equal to the compare register, depending on the
 575:Generated_Source\PSoC5/Ignition_Timer_1.c ****     *  mode.
 576:Generated_Source\PSoC5/Ignition_Timer_1.c ****     *
 577:Generated_Source\PSoC5/Ignition_Timer_1.c ****     * Parameters:
 578:Generated_Source\PSoC5/Ignition_Timer_1.c ****     *  compare:  New compare value.
 579:Generated_Source\PSoC5/Ignition_Timer_1.c ****     *
 580:Generated_Source\PSoC5/Ignition_Timer_1.c ****     * Return:
 581:Generated_Source\PSoC5/Ignition_Timer_1.c ****     *  None
 582:Generated_Source\PSoC5/Ignition_Timer_1.c ****     *
 583:Generated_Source\PSoC5/Ignition_Timer_1.c ****     *******************************************************************************/
 584:Generated_Source\PSoC5/Ignition_Timer_1.c ****     void Ignition_Timer_1_WriteCompare2(uint16 compare) \
 585:Generated_Source\PSoC5/Ignition_Timer_1.c ****                                         
 586:Generated_Source\PSoC5/Ignition_Timer_1.c ****     {
 587:Generated_Source\PSoC5/Ignition_Timer_1.c ****         #if(Ignition_Timer_1_UsingFixedFunction)
 588:Generated_Source\PSoC5/Ignition_Timer_1.c ****             CY_SET_REG16(Ignition_Timer_1_COMPARE2_LSB_PTR, compare);
 589:Generated_Source\PSoC5/Ignition_Timer_1.c ****         #else
 590:Generated_Source\PSoC5/Ignition_Timer_1.c ****             CY_SET_REG16(Ignition_Timer_1_COMPARE2_LSB_PTR, compare);
 591:Generated_Source\PSoC5/Ignition_Timer_1.c ****         #endif /* (Ignition_Timer_1_UsingFixedFunction) */
 592:Generated_Source\PSoC5/Ignition_Timer_1.c ****     }
 593:Generated_Source\PSoC5/Ignition_Timer_1.c **** #endif /* UseOneCompareMode */
 594:Generated_Source\PSoC5/Ignition_Timer_1.c **** 
 595:Generated_Source\PSoC5/Ignition_Timer_1.c **** #if (Ignition_Timer_1_DeadBandUsed)
 596:Generated_Source\PSoC5/Ignition_Timer_1.c **** 
 597:Generated_Source\PSoC5/Ignition_Timer_1.c **** 
 598:Generated_Source\PSoC5/Ignition_Timer_1.c ****     /*******************************************************************************
 599:Generated_Source\PSoC5/Ignition_Timer_1.c ****     * Function Name: Ignition_Timer_1_WriteDeadTime
 600:Generated_Source\PSoC5/Ignition_Timer_1.c ****     ********************************************************************************
 601:Generated_Source\PSoC5/Ignition_Timer_1.c ****     *
 602:Generated_Source\PSoC5/Ignition_Timer_1.c ****     * Summary:
 603:Generated_Source\PSoC5/Ignition_Timer_1.c ****     *  This function writes the dead-band counts to the corresponding register
 604:Generated_Source\PSoC5/Ignition_Timer_1.c ****     *
 605:Generated_Source\PSoC5/Ignition_Timer_1.c ****     * Parameters:
 606:Generated_Source\PSoC5/Ignition_Timer_1.c ****     *  deadtime:  Number of counts for dead time
 607:Generated_Source\PSoC5/Ignition_Timer_1.c ****     *
 608:Generated_Source\PSoC5/Ignition_Timer_1.c ****     * Return:
 609:Generated_Source\PSoC5/Ignition_Timer_1.c ****     *  None
 610:Generated_Source\PSoC5/Ignition_Timer_1.c ****     *
 611:Generated_Source\PSoC5/Ignition_Timer_1.c ****     *******************************************************************************/
 612:Generated_Source\PSoC5/Ignition_Timer_1.c ****     void Ignition_Timer_1_WriteDeadTime(uint8 deadtime) 
 613:Generated_Source\PSoC5/Ignition_Timer_1.c ****     {
 614:Generated_Source\PSoC5/Ignition_Timer_1.c ****         /* If using the Dead Band 1-255 mode then just write the register */
ARM GAS  C:\Users\Bruger\AppData\Local\Temp\ccusA8cR.s 			page 59


 615:Generated_Source\PSoC5/Ignition_Timer_1.c ****         #if(!Ignition_Timer_1_DeadBand2_4)
 616:Generated_Source\PSoC5/Ignition_Timer_1.c ****             CY_SET_REG8(Ignition_Timer_1_DEADBAND_COUNT_PTR, deadtime);
 617:Generated_Source\PSoC5/Ignition_Timer_1.c ****         #else
 618:Generated_Source\PSoC5/Ignition_Timer_1.c ****             /* Otherwise the data has to be masked and offset */
 619:Generated_Source\PSoC5/Ignition_Timer_1.c ****             /* Clear existing data */
 620:Generated_Source\PSoC5/Ignition_Timer_1.c ****             Ignition_Timer_1_DEADBAND_COUNT &= ((uint8)(~Ignition_Timer_1_DEADBAND_COUNT_MASK));
 621:Generated_Source\PSoC5/Ignition_Timer_1.c **** 
 622:Generated_Source\PSoC5/Ignition_Timer_1.c ****             /* Set new dead time */
 623:Generated_Source\PSoC5/Ignition_Timer_1.c ****             #if(Ignition_Timer_1_DEADBAND_COUNT_SHIFT)
 624:Generated_Source\PSoC5/Ignition_Timer_1.c ****                 Ignition_Timer_1_DEADBAND_COUNT |= ((uint8)((uint8)deadtime << Ignition_Timer_1_DEA
 625:Generated_Source\PSoC5/Ignition_Timer_1.c ****                                                     Ignition_Timer_1_DEADBAND_COUNT_MASK;
 626:Generated_Source\PSoC5/Ignition_Timer_1.c ****             #else
 627:Generated_Source\PSoC5/Ignition_Timer_1.c ****                 Ignition_Timer_1_DEADBAND_COUNT |= deadtime & Ignition_Timer_1_DEADBAND_COUNT_MASK;
 628:Generated_Source\PSoC5/Ignition_Timer_1.c ****             #endif /* (Ignition_Timer_1_DEADBAND_COUNT_SHIFT) */
 629:Generated_Source\PSoC5/Ignition_Timer_1.c **** 
 630:Generated_Source\PSoC5/Ignition_Timer_1.c ****         #endif /* (!Ignition_Timer_1_DeadBand2_4) */
 631:Generated_Source\PSoC5/Ignition_Timer_1.c ****     }
 632:Generated_Source\PSoC5/Ignition_Timer_1.c **** 
 633:Generated_Source\PSoC5/Ignition_Timer_1.c **** 
 634:Generated_Source\PSoC5/Ignition_Timer_1.c ****     /*******************************************************************************
 635:Generated_Source\PSoC5/Ignition_Timer_1.c ****     * Function Name: Ignition_Timer_1_ReadDeadTime
 636:Generated_Source\PSoC5/Ignition_Timer_1.c ****     ********************************************************************************
 637:Generated_Source\PSoC5/Ignition_Timer_1.c ****     *
 638:Generated_Source\PSoC5/Ignition_Timer_1.c ****     * Summary:
 639:Generated_Source\PSoC5/Ignition_Timer_1.c ****     *  This function reads the dead-band counts from the corresponding register
 640:Generated_Source\PSoC5/Ignition_Timer_1.c ****     *
 641:Generated_Source\PSoC5/Ignition_Timer_1.c ****     * Parameters:
 642:Generated_Source\PSoC5/Ignition_Timer_1.c ****     *  None
 643:Generated_Source\PSoC5/Ignition_Timer_1.c ****     *
 644:Generated_Source\PSoC5/Ignition_Timer_1.c ****     * Return:
 645:Generated_Source\PSoC5/Ignition_Timer_1.c ****     *  Dead Band Counts
 646:Generated_Source\PSoC5/Ignition_Timer_1.c ****     *
 647:Generated_Source\PSoC5/Ignition_Timer_1.c ****     *******************************************************************************/
 648:Generated_Source\PSoC5/Ignition_Timer_1.c ****     uint8 Ignition_Timer_1_ReadDeadTime(void) 
 649:Generated_Source\PSoC5/Ignition_Timer_1.c ****     {
 650:Generated_Source\PSoC5/Ignition_Timer_1.c ****         /* If using the Dead Band 1-255 mode then just read the register */
 651:Generated_Source\PSoC5/Ignition_Timer_1.c ****         #if(!Ignition_Timer_1_DeadBand2_4)
 652:Generated_Source\PSoC5/Ignition_Timer_1.c ****             return (CY_GET_REG8(Ignition_Timer_1_DEADBAND_COUNT_PTR));
 653:Generated_Source\PSoC5/Ignition_Timer_1.c ****         #else
 654:Generated_Source\PSoC5/Ignition_Timer_1.c **** 
 655:Generated_Source\PSoC5/Ignition_Timer_1.c ****             /* Otherwise the data has to be masked and offset */
 656:Generated_Source\PSoC5/Ignition_Timer_1.c ****             #if(Ignition_Timer_1_DEADBAND_COUNT_SHIFT)
 657:Generated_Source\PSoC5/Ignition_Timer_1.c ****                 return ((uint8)(((uint8)(Ignition_Timer_1_DEADBAND_COUNT & Ignition_Timer_1_DEADBAN
 658:Generated_Source\PSoC5/Ignition_Timer_1.c ****                                                                            Ignition_Timer_1_DEADBAN
 659:Generated_Source\PSoC5/Ignition_Timer_1.c ****             #else
 660:Generated_Source\PSoC5/Ignition_Timer_1.c ****                 return (Ignition_Timer_1_DEADBAND_COUNT & Ignition_Timer_1_DEADBAND_COUNT_MASK);
 661:Generated_Source\PSoC5/Ignition_Timer_1.c ****             #endif /* (Ignition_Timer_1_DEADBAND_COUNT_SHIFT) */
 662:Generated_Source\PSoC5/Ignition_Timer_1.c ****         #endif /* (!Ignition_Timer_1_DeadBand2_4) */
 663:Generated_Source\PSoC5/Ignition_Timer_1.c ****     }
 664:Generated_Source\PSoC5/Ignition_Timer_1.c **** #endif /* DeadBandUsed */
 665:Generated_Source\PSoC5/Ignition_Timer_1.c **** 
 666:Generated_Source\PSoC5/Ignition_Timer_1.c **** #if (Ignition_Timer_1_UseStatus || Ignition_Timer_1_UsingFixedFunction)
 667:Generated_Source\PSoC5/Ignition_Timer_1.c **** 
 668:Generated_Source\PSoC5/Ignition_Timer_1.c **** 
 669:Generated_Source\PSoC5/Ignition_Timer_1.c ****     /*******************************************************************************
 670:Generated_Source\PSoC5/Ignition_Timer_1.c ****     * Function Name: Ignition_Timer_1_SetInterruptMode
 671:Generated_Source\PSoC5/Ignition_Timer_1.c ****     ********************************************************************************
ARM GAS  C:\Users\Bruger\AppData\Local\Temp\ccusA8cR.s 			page 60


 672:Generated_Source\PSoC5/Ignition_Timer_1.c ****     *
 673:Generated_Source\PSoC5/Ignition_Timer_1.c ****     * Summary:
 674:Generated_Source\PSoC5/Ignition_Timer_1.c ****     *  This function configures the interrupts mask control of theinterrupt
 675:Generated_Source\PSoC5/Ignition_Timer_1.c ****     *  source status register.
 676:Generated_Source\PSoC5/Ignition_Timer_1.c ****     *
 677:Generated_Source\PSoC5/Ignition_Timer_1.c ****     * Parameters:
 678:Generated_Source\PSoC5/Ignition_Timer_1.c ****     *  uint8 interruptMode: Bit field containing the interrupt sources enabled
 679:Generated_Source\PSoC5/Ignition_Timer_1.c ****     *
 680:Generated_Source\PSoC5/Ignition_Timer_1.c ****     * Return:
 681:Generated_Source\PSoC5/Ignition_Timer_1.c ****     *  None
 682:Generated_Source\PSoC5/Ignition_Timer_1.c ****     *
 683:Generated_Source\PSoC5/Ignition_Timer_1.c ****     *******************************************************************************/
 684:Generated_Source\PSoC5/Ignition_Timer_1.c ****     void Ignition_Timer_1_SetInterruptMode(uint8 interruptMode) 
 685:Generated_Source\PSoC5/Ignition_Timer_1.c ****     {
 686:Generated_Source\PSoC5/Ignition_Timer_1.c ****         CY_SET_REG8(Ignition_Timer_1_STATUS_MASK_PTR, interruptMode);
 715              		.loc 1 686 0
 716 0052 00F80F3C 		strb	r3, [r0, #-15]
 717              	.LBE59:
 718              	.LBE58:
 167:Generated_Source\PSoC5/Ignition_Timer_1.c ****             /* Use the interrupt output of the status register for IRQ output */
 719              		.loc 1 167 0
 720 0056 FFF7FEFF 		bl	CyEnterCriticalSection
 721              	.LVL6:
 169:Generated_Source\PSoC5/Ignition_Timer_1.c **** 
 722              		.loc 1 169 0
 723 005a 2B78     		ldrb	r3, [r5]	@ zero_extendqisi2
 724 005c 43F01003 		orr	r3, r3, #16
 725 0060 2B70     		strb	r3, [r5]
 172:Generated_Source\PSoC5/Ignition_Timer_1.c **** 
 726              		.loc 1 172 0
 727 0062 FFF7FEFF 		bl	CyExitCriticalSection
 728              	.LVL7:
 729              	.LBB60:
 730              	.LBB61:
 731              	.LBB62:
 732              	.LBB63:
 687:Generated_Source\PSoC5/Ignition_Timer_1.c ****     }
 688:Generated_Source\PSoC5/Ignition_Timer_1.c **** 
 689:Generated_Source\PSoC5/Ignition_Timer_1.c **** 
 690:Generated_Source\PSoC5/Ignition_Timer_1.c ****     /*******************************************************************************
 691:Generated_Source\PSoC5/Ignition_Timer_1.c ****     * Function Name: Ignition_Timer_1_ReadStatusRegister
 692:Generated_Source\PSoC5/Ignition_Timer_1.c ****     ********************************************************************************
 693:Generated_Source\PSoC5/Ignition_Timer_1.c ****     *
 694:Generated_Source\PSoC5/Ignition_Timer_1.c ****     * Summary:
 695:Generated_Source\PSoC5/Ignition_Timer_1.c ****     *  This function returns the current state of the status register.
 696:Generated_Source\PSoC5/Ignition_Timer_1.c ****     *
 697:Generated_Source\PSoC5/Ignition_Timer_1.c ****     * Parameters:
 698:Generated_Source\PSoC5/Ignition_Timer_1.c ****     *  None
 699:Generated_Source\PSoC5/Ignition_Timer_1.c ****     *
 700:Generated_Source\PSoC5/Ignition_Timer_1.c ****     * Return:
 701:Generated_Source\PSoC5/Ignition_Timer_1.c ****     *  uint8 : Current status register value. The status register bits are:
 702:Generated_Source\PSoC5/Ignition_Timer_1.c ****     *  [7:6] : Unused(0)
 703:Generated_Source\PSoC5/Ignition_Timer_1.c ****     *  [5]   : Kill event output
 704:Generated_Source\PSoC5/Ignition_Timer_1.c ****     *  [4]   : FIFO not empty
 705:Generated_Source\PSoC5/Ignition_Timer_1.c ****     *  [3]   : FIFO full
 706:Generated_Source\PSoC5/Ignition_Timer_1.c ****     *  [2]   : Terminal count
 707:Generated_Source\PSoC5/Ignition_Timer_1.c ****     *  [1]   : Compare output 2
ARM GAS  C:\Users\Bruger\AppData\Local\Temp\ccusA8cR.s 			page 61


 708:Generated_Source\PSoC5/Ignition_Timer_1.c ****     *  [0]   : Compare output 1
 709:Generated_Source\PSoC5/Ignition_Timer_1.c ****     *
 710:Generated_Source\PSoC5/Ignition_Timer_1.c ****     *******************************************************************************/
 711:Generated_Source\PSoC5/Ignition_Timer_1.c ****     uint8 Ignition_Timer_1_ReadStatusRegister(void) 
 712:Generated_Source\PSoC5/Ignition_Timer_1.c ****     {
 713:Generated_Source\PSoC5/Ignition_Timer_1.c ****         return (CY_GET_REG8(Ignition_Timer_1_STATUS_PTR));
 733              		.loc 1 713 0
 734 0066 0A4A     		ldr	r2, .L13+16
 735 0068 1378     		ldrb	r3, [r2]	@ zero_extendqisi2
 736              	.LBE63:
 737              	.LBE62:
 455:Generated_Source\PSoC5/Ignition_Timer_1.c ****             {
 738              		.loc 1 455 0
 739 006a D906     		lsls	r1, r3, #27
 740 006c 04D5     		bpl	.L3
 741              	.LBB65:
 742              	.LBB66:
 714:Generated_Source\PSoC5/Ignition_Timer_1.c ****     }
 715:Generated_Source\PSoC5/Ignition_Timer_1.c **** 
 716:Generated_Source\PSoC5/Ignition_Timer_1.c **** #endif /* (Ignition_Timer_1_UseStatus || Ignition_Timer_1_UsingFixedFunction) */
 717:Generated_Source\PSoC5/Ignition_Timer_1.c **** 
 718:Generated_Source\PSoC5/Ignition_Timer_1.c **** 
 719:Generated_Source\PSoC5/Ignition_Timer_1.c **** #if (Ignition_Timer_1_UseControl)
 720:Generated_Source\PSoC5/Ignition_Timer_1.c **** 
 721:Generated_Source\PSoC5/Ignition_Timer_1.c **** 
 722:Generated_Source\PSoC5/Ignition_Timer_1.c ****     /*******************************************************************************
 723:Generated_Source\PSoC5/Ignition_Timer_1.c ****     * Function Name: Ignition_Timer_1_ReadControlRegister
 724:Generated_Source\PSoC5/Ignition_Timer_1.c ****     ********************************************************************************
 725:Generated_Source\PSoC5/Ignition_Timer_1.c ****     *
 726:Generated_Source\PSoC5/Ignition_Timer_1.c ****     * Summary:
 727:Generated_Source\PSoC5/Ignition_Timer_1.c ****     *  Returns the current state of the control register. This API is available
 728:Generated_Source\PSoC5/Ignition_Timer_1.c ****     *  only if the control register is not removed.
 729:Generated_Source\PSoC5/Ignition_Timer_1.c ****     *
 730:Generated_Source\PSoC5/Ignition_Timer_1.c ****     * Parameters:
 731:Generated_Source\PSoC5/Ignition_Timer_1.c ****     *  None
 732:Generated_Source\PSoC5/Ignition_Timer_1.c ****     *
 733:Generated_Source\PSoC5/Ignition_Timer_1.c ****     * Return:
 734:Generated_Source\PSoC5/Ignition_Timer_1.c ****     *  uint8 : Current control register value
 735:Generated_Source\PSoC5/Ignition_Timer_1.c ****     *
 736:Generated_Source\PSoC5/Ignition_Timer_1.c ****     *******************************************************************************/
 737:Generated_Source\PSoC5/Ignition_Timer_1.c ****     uint8 Ignition_Timer_1_ReadControlRegister(void) 
 738:Generated_Source\PSoC5/Ignition_Timer_1.c ****     {
 739:Generated_Source\PSoC5/Ignition_Timer_1.c ****         uint8 result;
 740:Generated_Source\PSoC5/Ignition_Timer_1.c **** 
 741:Generated_Source\PSoC5/Ignition_Timer_1.c ****         result = CY_GET_REG8(Ignition_Timer_1_CONTROL_PTR);
 742:Generated_Source\PSoC5/Ignition_Timer_1.c ****         return (result);
 743:Generated_Source\PSoC5/Ignition_Timer_1.c ****     }
 744:Generated_Source\PSoC5/Ignition_Timer_1.c **** 
 745:Generated_Source\PSoC5/Ignition_Timer_1.c **** 
 746:Generated_Source\PSoC5/Ignition_Timer_1.c ****     /*******************************************************************************
 747:Generated_Source\PSoC5/Ignition_Timer_1.c ****     * Function Name: Ignition_Timer_1_WriteControlRegister
 748:Generated_Source\PSoC5/Ignition_Timer_1.c ****     ********************************************************************************
 749:Generated_Source\PSoC5/Ignition_Timer_1.c ****     *
 750:Generated_Source\PSoC5/Ignition_Timer_1.c ****     * Summary:
 751:Generated_Source\PSoC5/Ignition_Timer_1.c ****     *  Sets the bit field of the control register. This API is available only if
 752:Generated_Source\PSoC5/Ignition_Timer_1.c ****     *  the control register is not removed.
 753:Generated_Source\PSoC5/Ignition_Timer_1.c ****     *
ARM GAS  C:\Users\Bruger\AppData\Local\Temp\ccusA8cR.s 			page 62


 754:Generated_Source\PSoC5/Ignition_Timer_1.c ****     * Parameters:
 755:Generated_Source\PSoC5/Ignition_Timer_1.c ****     *  uint8 control: Control register bit field, The status register bits are:
 756:Generated_Source\PSoC5/Ignition_Timer_1.c ****     *  [7]   : PWM Enable
 757:Generated_Source\PSoC5/Ignition_Timer_1.c ****     *  [6]   : Reset
 758:Generated_Source\PSoC5/Ignition_Timer_1.c ****     *  [5:3] : Compare Mode2
 759:Generated_Source\PSoC5/Ignition_Timer_1.c ****     *  [2:0] : Compare Mode2
 760:Generated_Source\PSoC5/Ignition_Timer_1.c ****     *
 761:Generated_Source\PSoC5/Ignition_Timer_1.c ****     * Return:
 762:Generated_Source\PSoC5/Ignition_Timer_1.c ****     *  None
 763:Generated_Source\PSoC5/Ignition_Timer_1.c ****     *
 764:Generated_Source\PSoC5/Ignition_Timer_1.c ****     *******************************************************************************/
 765:Generated_Source\PSoC5/Ignition_Timer_1.c ****     void Ignition_Timer_1_WriteControlRegister(uint8 control) 
 766:Generated_Source\PSoC5/Ignition_Timer_1.c ****     {
 767:Generated_Source\PSoC5/Ignition_Timer_1.c ****         CY_SET_REG8(Ignition_Timer_1_CONTROL_PTR, control);
 768:Generated_Source\PSoC5/Ignition_Timer_1.c ****     }
 769:Generated_Source\PSoC5/Ignition_Timer_1.c **** 
 770:Generated_Source\PSoC5/Ignition_Timer_1.c **** #endif /* (Ignition_Timer_1_UseControl) */
 771:Generated_Source\PSoC5/Ignition_Timer_1.c **** 
 772:Generated_Source\PSoC5/Ignition_Timer_1.c **** 
 773:Generated_Source\PSoC5/Ignition_Timer_1.c **** #if (!Ignition_Timer_1_UsingFixedFunction)
 774:Generated_Source\PSoC5/Ignition_Timer_1.c **** 
 775:Generated_Source\PSoC5/Ignition_Timer_1.c **** 
 776:Generated_Source\PSoC5/Ignition_Timer_1.c ****     /*******************************************************************************
 777:Generated_Source\PSoC5/Ignition_Timer_1.c ****     * Function Name: Ignition_Timer_1_ReadCapture
 778:Generated_Source\PSoC5/Ignition_Timer_1.c ****     ********************************************************************************
 779:Generated_Source\PSoC5/Ignition_Timer_1.c ****     *
 780:Generated_Source\PSoC5/Ignition_Timer_1.c ****     * Summary:
 781:Generated_Source\PSoC5/Ignition_Timer_1.c ****     *  Reads the capture value from the capture FIFO.
 782:Generated_Source\PSoC5/Ignition_Timer_1.c ****     *
 783:Generated_Source\PSoC5/Ignition_Timer_1.c ****     * Parameters:
 784:Generated_Source\PSoC5/Ignition_Timer_1.c ****     *  None
 785:Generated_Source\PSoC5/Ignition_Timer_1.c ****     *
 786:Generated_Source\PSoC5/Ignition_Timer_1.c ****     * Return:
 787:Generated_Source\PSoC5/Ignition_Timer_1.c ****     *  uint8/uint16: The current capture value
 788:Generated_Source\PSoC5/Ignition_Timer_1.c ****     *
 789:Generated_Source\PSoC5/Ignition_Timer_1.c ****     *******************************************************************************/
 790:Generated_Source\PSoC5/Ignition_Timer_1.c ****     uint16 Ignition_Timer_1_ReadCapture(void) 
 791:Generated_Source\PSoC5/Ignition_Timer_1.c ****     {
 792:Generated_Source\PSoC5/Ignition_Timer_1.c ****         return (CY_GET_REG16(Ignition_Timer_1_CAPTURE_LSB_PTR));
 743              		.loc 1 792 0
 744 006e 0949     		ldr	r1, .L13+20
 745              	.L7:
 746 0070 0B88     		ldrh	r3, [r1]
 747              	.LBE66:
 748              	.LBE65:
 749              	.LBB67:
 750              	.LBB64:
 713:Generated_Source\PSoC5/Ignition_Timer_1.c ****     }
 751              		.loc 1 713 0
 752 0072 1378     		ldrb	r3, [r2]	@ zero_extendqisi2
 753              	.LBE64:
 754              	.LBE67:
 455:Generated_Source\PSoC5/Ignition_Timer_1.c ****             {
 755              		.loc 1 455 0
 756 0074 DB06     		lsls	r3, r3, #27
 757 0076 FBD4     		bmi	.L7
 758              	.L3:
ARM GAS  C:\Users\Bruger\AppData\Local\Temp\ccusA8cR.s 			page 63


 759              	.LBE61:
 760              	.LBE60:
 761              	.LBE43:
 762              	.LBE42:
  61:Generated_Source\PSoC5/Ignition_Timer_1.c ****     }
 763              		.loc 1 61 0
 764 0078 0123     		movs	r3, #1
 765 007a 2370     		strb	r3, [r4]
 766 007c C4E7     		b	.L2
 767              	.L14:
 768 007e 00BF     		.align	2
 769              	.L13:
 770 0080 00000000 		.word	.LANCHOR0
 771 0084 7F640040 		.word	1073767551
 772 0088 9E640040 		.word	1073767582
 773 008c 9F640040 		.word	1073767583
 774 0090 6F640040 		.word	1073767535
 775 0094 BC680040 		.word	1073768636
 776 0098 1C680040 		.word	1073768476
 777 009c 9C680040 		.word	1073768604
 778              		.cfi_endproc
 779              	.LFE0:
 780              		.size	Ignition_Timer_1_Start, .-Ignition_Timer_1_Start
 781              		.section	.text.Ignition_Timer_1_Init,"ax",%progbits
 782              		.align	2
 783              		.global	Ignition_Timer_1_Init
 784              		.thumb
 785              		.thumb_func
 786              		.type	Ignition_Timer_1_Init, %function
 787              	Ignition_Timer_1_Init:
 788              	.LFB1:
  85:Generated_Source\PSoC5/Ignition_Timer_1.c ****     #if (Ignition_Timer_1_UsingFixedFunction || Ignition_Timer_1_UseControl)
 789              		.loc 1 85 0
 790              		.cfi_startproc
 791              		@ args = 0, pretend = 0, frame = 0
 792              		@ frame_needed = 0, uses_anonymous_args = 0
 793              	.LBB68:
 794              	.LBB69:
 406:Generated_Source\PSoC5/Ignition_Timer_1.c ****     }
 795              		.loc 1 406 0
 796 0000 4AF6C872 		movw	r2, #45000
 797              	.LBE69:
 798              	.LBE68:
  85:Generated_Source\PSoC5/Ignition_Timer_1.c ****     #if (Ignition_Timer_1_UsingFixedFunction || Ignition_Timer_1_UseControl)
 799              		.loc 1 85 0
 800 0004 F8B5     		push	{r3, r4, r5, r6, r7, lr}
 801              		.cfi_def_cfa_offset 24
 802              		.cfi_offset 3, -24
 803              		.cfi_offset 4, -20
 804              		.cfi_offset 5, -16
 805              		.cfi_offset 6, -12
 806              		.cfi_offset 7, -8
 807              		.cfi_offset 14, -4
 117:Generated_Source\PSoC5/Ignition_Timer_1.c ****                 ((uint8)(~Ignition_Timer_1_CTRL_CMPMODE1_MASK));
 808              		.loc 1 117 0
 809 0006 1848     		ldr	r0, .L24
 129:Generated_Source\PSoC5/Ignition_Timer_1.c ****             Ignition_Timer_1_AUX_CONTROLDP1 |= (Ignition_Timer_1_AUX_CTRL_FIFO0_CLR);
ARM GAS  C:\Users\Bruger\AppData\Local\Temp\ccusA8cR.s 			page 64


 810              		.loc 1 129 0
 811 0008 1849     		ldr	r1, .L24+4
 117:Generated_Source\PSoC5/Ignition_Timer_1.c ****                 ((uint8)(~Ignition_Timer_1_CTRL_CMPMODE1_MASK));
 812              		.loc 1 117 0
 813 000a 0378     		ldrb	r3, [r0]	@ zero_extendqisi2
 814              	.LVL8:
 130:Generated_Source\PSoC5/Ignition_Timer_1.c ****         #endif /* (Ignition_Timer_1_Resolution == 8) */
 815              		.loc 1 130 0
 816 000c 184C     		ldr	r4, .L24+8
 117:Generated_Source\PSoC5/Ignition_Timer_1.c ****                 ((uint8)(~Ignition_Timer_1_CTRL_CMPMODE1_MASK));
 817              		.loc 1 117 0
 818 000e 03F0C003 		and	r3, r3, #192
 819              	.LVL9:
 119:Generated_Source\PSoC5/Ignition_Timer_1.c ****                                    Ignition_Timer_1_DEFAULT_COMPARE1_MODE;
 820              		.loc 1 119 0
 821 0012 43F00903 		orr	r3, r3, #9
 822 0016 0370     		strb	r3, [r0]
 129:Generated_Source\PSoC5/Ignition_Timer_1.c ****             Ignition_Timer_1_AUX_CONTROLDP1 |= (Ignition_Timer_1_AUX_CTRL_FIFO0_CLR);
 823              		.loc 1 129 0
 824 0018 0B78     		ldrb	r3, [r1]	@ zero_extendqisi2
 825              	.LBB72:
 826              	.LBB70:
 406:Generated_Source\PSoC5/Ignition_Timer_1.c ****     }
 827              		.loc 1 406 0
 828 001a DFF868E0 		ldr	lr, .L24+28
 829              	.LBE70:
 830              	.LBE72:
 129:Generated_Source\PSoC5/Ignition_Timer_1.c ****             Ignition_Timer_1_AUX_CONTROLDP1 |= (Ignition_Timer_1_AUX_CTRL_FIFO0_CLR);
 831              		.loc 1 129 0
 832 001e 43F00103 		orr	r3, r3, #1
 833 0022 0B70     		strb	r3, [r1]
 130:Generated_Source\PSoC5/Ignition_Timer_1.c ****         #endif /* (Ignition_Timer_1_Resolution == 8) */
 834              		.loc 1 130 0
 835 0024 2378     		ldrb	r3, [r4]	@ zero_extendqisi2
 836              	.LBB73:
 837              	.LBB74:
 487:Generated_Source\PSoC5/Ignition_Timer_1.c ****     #endif /* (Ignition_Timer_1_UsingFixedFunction) */
 838              		.loc 1 487 0
 839 0026 134F     		ldr	r7, .L24+12
 840              	.LBE74:
 841              	.LBE73:
 842              	.LBB76:
 843              	.LBB77:
 522:Generated_Source\PSoC5/Ignition_Timer_1.c ****         #endif /* (Ignition_Timer_1_UsingFixedFunction) */
 844              		.loc 1 522 0
 845 0028 134D     		ldr	r5, .L24+16
 846              	.LBE77:
 847              	.LBE76:
 130:Generated_Source\PSoC5/Ignition_Timer_1.c ****         #endif /* (Ignition_Timer_1_Resolution == 8) */
 848              		.loc 1 130 0
 849 002a 43F00103 		orr	r3, r3, #1
 850              	.LBB80:
 851              	.LBB81:
 686:Generated_Source\PSoC5/Ignition_Timer_1.c ****     }
 852              		.loc 1 686 0
 853 002e 0020     		movs	r0, #0
 854              	.LBE81:
ARM GAS  C:\Users\Bruger\AppData\Local\Temp\ccusA8cR.s 			page 65


 855              	.LBE80:
 856              	.LBB83:
 857              	.LBB78:
 522:Generated_Source\PSoC5/Ignition_Timer_1.c ****         #endif /* (Ignition_Timer_1_UsingFixedFunction) */
 858              		.loc 1 522 0
 859 0030 4FF4FA46 		mov	r6, #32000
 860              	.LBE78:
 861              	.LBE83:
 130:Generated_Source\PSoC5/Ignition_Timer_1.c ****         #endif /* (Ignition_Timer_1_Resolution == 8) */
 862              		.loc 1 130 0
 863 0034 2370     		strb	r3, [r4]
 864              	.LVL10:
 865              	.LBB84:
 866              	.LBB71:
 406:Generated_Source\PSoC5/Ignition_Timer_1.c ****     }
 867              		.loc 1 406 0
 868 0036 AEF80020 		strh	r2, [lr]	@ movhi
 869              	.LVL11:
 870              	.LBE71:
 871              	.LBE84:
 872              	.LBB85:
 873              	.LBB75:
 487:Generated_Source\PSoC5/Ignition_Timer_1.c ****     #endif /* (Ignition_Timer_1_UsingFixedFunction) */
 874              		.loc 1 487 0
 875 003a 3A80     		strh	r2, [r7]	@ movhi
 876              	.LVL12:
 877              	.LBE75:
 878              	.LBE85:
 879              	.LBB86:
 880              	.LBB79:
 522:Generated_Source\PSoC5/Ignition_Timer_1.c ****         #endif /* (Ignition_Timer_1_UsingFixedFunction) */
 881              		.loc 1 522 0
 882 003c 2E80     		strh	r6, [r5]	@ movhi
 883              	.LVL13:
 884              	.LBE79:
 885              	.LBE86:
 886              	.LBB87:
 887              	.LBB82:
 686:Generated_Source\PSoC5/Ignition_Timer_1.c ****     }
 888              		.loc 1 686 0
 889 003e 01F80F0C 		strb	r0, [r1, #-15]
 890              	.LBE82:
 891              	.LBE87:
 167:Generated_Source\PSoC5/Ignition_Timer_1.c ****             /* Use the interrupt output of the status register for IRQ output */
 892              		.loc 1 167 0
 893 0042 FFF7FEFF 		bl	CyEnterCriticalSection
 894              	.LVL14:
 169:Generated_Source\PSoC5/Ignition_Timer_1.c **** 
 895              		.loc 1 169 0
 896 0046 2378     		ldrb	r3, [r4]	@ zero_extendqisi2
 897 0048 43F01003 		orr	r3, r3, #16
 898 004c 2370     		strb	r3, [r4]
 172:Generated_Source\PSoC5/Ignition_Timer_1.c **** 
 899              		.loc 1 172 0
 900 004e FFF7FEFF 		bl	CyExitCriticalSection
 901              	.LVL15:
 902              	.LBB88:
ARM GAS  C:\Users\Bruger\AppData\Local\Temp\ccusA8cR.s 			page 66


 903              	.LBB89:
 904              	.LBB90:
 905              	.LBB91:
 713:Generated_Source\PSoC5/Ignition_Timer_1.c ****     }
 906              		.loc 1 713 0
 907 0052 0A4A     		ldr	r2, .L24+20
 908 0054 1378     		ldrb	r3, [r2]	@ zero_extendqisi2
 909              	.LBE91:
 910              	.LBE90:
 455:Generated_Source\PSoC5/Ignition_Timer_1.c ****             {
 911              		.loc 1 455 0
 912 0056 D906     		lsls	r1, r3, #27
 913 0058 04D5     		bpl	.L15
 914              	.LBB93:
 915              	.LBB94:
 916              		.loc 1 792 0
 917 005a 0949     		ldr	r1, .L24+24
 918              	.L20:
 919 005c 0B88     		ldrh	r3, [r1]
 920              	.LBE94:
 921              	.LBE93:
 922              	.LBB95:
 923              	.LBB92:
 713:Generated_Source\PSoC5/Ignition_Timer_1.c ****     }
 924              		.loc 1 713 0
 925 005e 1378     		ldrb	r3, [r2]	@ zero_extendqisi2
 926              	.LBE92:
 927              	.LBE95:
 455:Generated_Source\PSoC5/Ignition_Timer_1.c ****             {
 928              		.loc 1 455 0
 929 0060 DB06     		lsls	r3, r3, #27
 930 0062 FBD4     		bmi	.L20
 931              	.L15:
 932 0064 F8BD     		pop	{r3, r4, r5, r6, r7, pc}
 933              	.L25:
 934 0066 00BF     		.align	2
 935              	.L24:
 936 0068 7F640040 		.word	1073767551
 937 006c 9E640040 		.word	1073767582
 938 0070 9F640040 		.word	1073767583
 939 0074 9C680040 		.word	1073768604
 940 0078 5C680040 		.word	1073768540
 941 007c 6F640040 		.word	1073767535
 942 0080 BC680040 		.word	1073768636
 943 0084 1C680040 		.word	1073768476
 944              	.LBE89:
 945              	.LBE88:
 946              		.cfi_endproc
 947              	.LFE1:
 948              		.size	Ignition_Timer_1_Init, .-Ignition_Timer_1_Init
 949              		.section	.text.Ignition_Timer_1_Enable,"ax",%progbits
 950              		.align	2
 951              		.global	Ignition_Timer_1_Enable
 952              		.thumb
 953              		.thumb_func
 954              		.type	Ignition_Timer_1_Enable, %function
 955              	Ignition_Timer_1_Enable:
ARM GAS  C:\Users\Bruger\AppData\Local\Temp\ccusA8cR.s 			page 67


 956              	.LFB2:
 200:Generated_Source\PSoC5/Ignition_Timer_1.c ****     /* Globally Enable the Fixed Function Block chosen */
 957              		.loc 1 200 0
 958              		.cfi_startproc
 959              		@ args = 0, pretend = 0, frame = 0
 960              		@ frame_needed = 0, uses_anonymous_args = 0
 961              		@ link register save eliminated.
 209:Generated_Source\PSoC5/Ignition_Timer_1.c ****     #endif /* (Ignition_Timer_1_UseControl || Ignition_Timer_1_UsingFixedFunction) */
 962              		.loc 1 209 0
 963 0000 024A     		ldr	r2, .L27
 964 0002 1378     		ldrb	r3, [r2]	@ zero_extendqisi2
 965 0004 43F08003 		orr	r3, r3, #128
 966 0008 1370     		strb	r3, [r2]
 967 000a 7047     		bx	lr
 968              	.L28:
 969              		.align	2
 970              	.L27:
 971 000c 7F640040 		.word	1073767551
 972              		.cfi_endproc
 973              	.LFE2:
 974              		.size	Ignition_Timer_1_Enable, .-Ignition_Timer_1_Enable
 975              		.section	.text.Ignition_Timer_1_Stop,"ax",%progbits
 976              		.align	2
 977              		.global	Ignition_Timer_1_Stop
 978              		.thumb
 979              		.thumb_func
 980              		.type	Ignition_Timer_1_Stop, %function
 981              	Ignition_Timer_1_Stop:
 982              	.LFB3:
 234:Generated_Source\PSoC5/Ignition_Timer_1.c ****     #if (Ignition_Timer_1_UseControl || Ignition_Timer_1_UsingFixedFunction)
 983              		.loc 1 234 0
 984              		.cfi_startproc
 985              		@ args = 0, pretend = 0, frame = 0
 986              		@ frame_needed = 0, uses_anonymous_args = 0
 987              		@ link register save eliminated.
 236:Generated_Source\PSoC5/Ignition_Timer_1.c ****     #endif /* (Ignition_Timer_1_UseControl || Ignition_Timer_1_UsingFixedFunction) */
 988              		.loc 1 236 0
 989 0000 024A     		ldr	r2, .L30
 990 0002 1378     		ldrb	r3, [r2]	@ zero_extendqisi2
 991 0004 03F07F03 		and	r3, r3, #127
 992 0008 1370     		strb	r3, [r2]
 993 000a 7047     		bx	lr
 994              	.L31:
 995              		.align	2
 996              	.L30:
 997 000c 7F640040 		.word	1073767551
 998              		.cfi_endproc
 999              	.LFE3:
 1000              		.size	Ignition_Timer_1_Stop, .-Ignition_Timer_1_Stop
 1001              		.section	.text.Ignition_Timer_1_WriteCounter,"ax",%progbits
 1002              		.align	2
 1003              		.global	Ignition_Timer_1_WriteCounter
 1004              		.thumb
 1005              		.thumb_func
 1006              		.type	Ignition_Timer_1_WriteCounter, %function
 1007              	Ignition_Timer_1_WriteCounter:
 1008              	.LFB4:
ARM GAS  C:\Users\Bruger\AppData\Local\Temp\ccusA8cR.s 			page 68


 405:Generated_Source\PSoC5/Ignition_Timer_1.c ****         CY_SET_REG16(Ignition_Timer_1_COUNTER_LSB_PTR, counter);
 1009              		.loc 1 405 0
 1010              		.cfi_startproc
 1011              		@ args = 0, pretend = 0, frame = 0
 1012              		@ frame_needed = 0, uses_anonymous_args = 0
 1013              		@ link register save eliminated.
 1014              	.LVL16:
 406:Generated_Source\PSoC5/Ignition_Timer_1.c ****     }
 1015              		.loc 1 406 0
 1016 0000 014B     		ldr	r3, .L33
 1017 0002 1880     		strh	r0, [r3]	@ movhi
 1018 0004 7047     		bx	lr
 1019              	.L34:
 1020 0006 00BF     		.align	2
 1021              	.L33:
 1022 0008 1C680040 		.word	1073768476
 1023              		.cfi_endproc
 1024              	.LFE4:
 1025              		.size	Ignition_Timer_1_WriteCounter, .-Ignition_Timer_1_WriteCounter
 1026              		.section	.text.Ignition_Timer_1_ReadCounter,"ax",%progbits
 1027              		.align	2
 1028              		.global	Ignition_Timer_1_ReadCounter
 1029              		.thumb
 1030              		.thumb_func
 1031              		.type	Ignition_Timer_1_ReadCounter, %function
 1032              	Ignition_Timer_1_ReadCounter:
 1033              	.LFB5:
 426:Generated_Source\PSoC5/Ignition_Timer_1.c ****         /* Force capture by reading Accumulator */
 1034              		.loc 1 426 0
 1035              		.cfi_startproc
 1036              		@ args = 0, pretend = 0, frame = 0
 1037              		@ frame_needed = 0, uses_anonymous_args = 0
 1038              		@ link register save eliminated.
 433:Generated_Source\PSoC5/Ignition_Timer_1.c ****     }
 1039              		.loc 1 433 0
 1040 0000 024B     		ldr	r3, .L36
 430:Generated_Source\PSoC5/Ignition_Timer_1.c **** 
 1041              		.loc 1 430 0
 1042 0002 034A     		ldr	r2, .L36+4
 1043 0004 1278     		ldrb	r2, [r2]	@ zero_extendqisi2
 433:Generated_Source\PSoC5/Ignition_Timer_1.c ****     }
 1044              		.loc 1 433 0
 1045 0006 1888     		ldrh	r0, [r3]
 434:Generated_Source\PSoC5/Ignition_Timer_1.c **** 
 1046              		.loc 1 434 0
 1047 0008 80B2     		uxth	r0, r0
 1048 000a 7047     		bx	lr
 1049              	.L37:
 1050              		.align	2
 1051              	.L36:
 1052 000c BC680040 		.word	1073768636
 1053 0010 1E640040 		.word	1073767454
 1054              		.cfi_endproc
 1055              	.LFE5:
 1056              		.size	Ignition_Timer_1_ReadCounter, .-Ignition_Timer_1_ReadCounter
 1057              		.section	.text.Ignition_Timer_1_ClearFIFO,"ax",%progbits
 1058              		.align	2
ARM GAS  C:\Users\Bruger\AppData\Local\Temp\ccusA8cR.s 			page 69


 1059              		.global	Ignition_Timer_1_ClearFIFO
 1060              		.thumb
 1061              		.thumb_func
 1062              		.type	Ignition_Timer_1_ClearFIFO, %function
 1063              	Ignition_Timer_1_ClearFIFO:
 1064              	.LFB6:
 454:Generated_Source\PSoC5/Ignition_Timer_1.c ****             while(0u != (Ignition_Timer_1_ReadStatusRegister() & Ignition_Timer_1_STATUS_FIFONEMPTY
 1065              		.loc 1 454 0
 1066              		.cfi_startproc
 1067              		@ args = 0, pretend = 0, frame = 0
 1068              		@ frame_needed = 0, uses_anonymous_args = 0
 1069              		@ link register save eliminated.
 1070              	.LBB96:
 1071              	.LBB97:
 713:Generated_Source\PSoC5/Ignition_Timer_1.c ****     }
 1072              		.loc 1 713 0
 1073 0000 044A     		ldr	r2, .L46
 1074 0002 1378     		ldrb	r3, [r2]	@ zero_extendqisi2
 1075              	.LBE97:
 1076              	.LBE96:
 455:Generated_Source\PSoC5/Ignition_Timer_1.c ****             {
 1077              		.loc 1 455 0
 1078 0004 D906     		lsls	r1, r3, #27
 1079 0006 04D5     		bpl	.L38
 1080              	.LBB99:
 1081              	.LBB100:
 1082              		.loc 1 792 0
 1083 0008 0349     		ldr	r1, .L46+4
 1084              	.L43:
 1085 000a 0B88     		ldrh	r3, [r1]
 1086              	.LBE100:
 1087              	.LBE99:
 1088              	.LBB101:
 1089              	.LBB98:
 713:Generated_Source\PSoC5/Ignition_Timer_1.c ****     }
 1090              		.loc 1 713 0
 1091 000c 1378     		ldrb	r3, [r2]	@ zero_extendqisi2
 1092              	.LBE98:
 1093              	.LBE101:
 455:Generated_Source\PSoC5/Ignition_Timer_1.c ****             {
 1094              		.loc 1 455 0
 1095 000e DB06     		lsls	r3, r3, #27
 1096 0010 FBD4     		bmi	.L43
 1097              	.L38:
 1098 0012 7047     		bx	lr
 1099              	.L47:
 1100              		.align	2
 1101              	.L46:
 1102 0014 6F640040 		.word	1073767535
 1103 0018 BC680040 		.word	1073768636
 1104              		.cfi_endproc
 1105              	.LFE6:
 1106              		.size	Ignition_Timer_1_ClearFIFO, .-Ignition_Timer_1_ClearFIFO
 1107              		.section	.text.Ignition_Timer_1_WritePeriod,"ax",%progbits
 1108              		.align	2
 1109              		.global	Ignition_Timer_1_WritePeriod
 1110              		.thumb
ARM GAS  C:\Users\Bruger\AppData\Local\Temp\ccusA8cR.s 			page 70


 1111              		.thumb_func
 1112              		.type	Ignition_Timer_1_WritePeriod, %function
 1113              	Ignition_Timer_1_WritePeriod:
 1114              	.LFB7:
 483:Generated_Source\PSoC5/Ignition_Timer_1.c ****     #if(Ignition_Timer_1_UsingFixedFunction)
 1115              		.loc 1 483 0
 1116              		.cfi_startproc
 1117              		@ args = 0, pretend = 0, frame = 0
 1118              		@ frame_needed = 0, uses_anonymous_args = 0
 1119              		@ link register save eliminated.
 1120              	.LVL17:
 487:Generated_Source\PSoC5/Ignition_Timer_1.c ****     #endif /* (Ignition_Timer_1_UsingFixedFunction) */
 1121              		.loc 1 487 0
 1122 0000 014B     		ldr	r3, .L49
 1123 0002 1880     		strh	r0, [r3]	@ movhi
 1124 0004 7047     		bx	lr
 1125              	.L50:
 1126 0006 00BF     		.align	2
 1127              	.L49:
 1128 0008 9C680040 		.word	1073768604
 1129              		.cfi_endproc
 1130              	.LFE7:
 1131              		.size	Ignition_Timer_1_WritePeriod, .-Ignition_Timer_1_WritePeriod
 1132              		.section	.text.Ignition_Timer_1_WriteCompare,"ax",%progbits
 1133              		.align	2
 1134              		.global	Ignition_Timer_1_WriteCompare
 1135              		.thumb
 1136              		.thumb_func
 1137              		.type	Ignition_Timer_1_WriteCompare, %function
 1138              	Ignition_Timer_1_WriteCompare:
 1139              	.LFB8:
 518:Generated_Source\PSoC5/Ignition_Timer_1.c ****         #if(Ignition_Timer_1_UsingFixedFunction)
 1140              		.loc 1 518 0
 1141              		.cfi_startproc
 1142              		@ args = 0, pretend = 0, frame = 0
 1143              		@ frame_needed = 0, uses_anonymous_args = 0
 1144              		@ link register save eliminated.
 1145              	.LVL18:
 522:Generated_Source\PSoC5/Ignition_Timer_1.c ****         #endif /* (Ignition_Timer_1_UsingFixedFunction) */
 1146              		.loc 1 522 0
 1147 0000 014B     		ldr	r3, .L52
 1148 0002 1880     		strh	r0, [r3]	@ movhi
 1149 0004 7047     		bx	lr
 1150              	.L53:
 1151 0006 00BF     		.align	2
 1152              	.L52:
 1153 0008 5C680040 		.word	1073768540
 1154              		.cfi_endproc
 1155              	.LFE8:
 1156              		.size	Ignition_Timer_1_WriteCompare, .-Ignition_Timer_1_WriteCompare
 1157              		.section	.text.Ignition_Timer_1_SetInterruptMode,"ax",%progbits
 1158              		.align	2
 1159              		.global	Ignition_Timer_1_SetInterruptMode
 1160              		.thumb
 1161              		.thumb_func
 1162              		.type	Ignition_Timer_1_SetInterruptMode, %function
 1163              	Ignition_Timer_1_SetInterruptMode:
ARM GAS  C:\Users\Bruger\AppData\Local\Temp\ccusA8cR.s 			page 71


 1164              	.LFB9:
 685:Generated_Source\PSoC5/Ignition_Timer_1.c ****         CY_SET_REG8(Ignition_Timer_1_STATUS_MASK_PTR, interruptMode);
 1165              		.loc 1 685 0
 1166              		.cfi_startproc
 1167              		@ args = 0, pretend = 0, frame = 0
 1168              		@ frame_needed = 0, uses_anonymous_args = 0
 1169              		@ link register save eliminated.
 1170              	.LVL19:
 686:Generated_Source\PSoC5/Ignition_Timer_1.c ****     }
 1171              		.loc 1 686 0
 1172 0000 014B     		ldr	r3, .L55
 1173 0002 1870     		strb	r0, [r3]
 1174 0004 7047     		bx	lr
 1175              	.L56:
 1176 0006 00BF     		.align	2
 1177              	.L55:
 1178 0008 8F640040 		.word	1073767567
 1179              		.cfi_endproc
 1180              	.LFE9:
 1181              		.size	Ignition_Timer_1_SetInterruptMode, .-Ignition_Timer_1_SetInterruptMode
 1182              		.section	.text.Ignition_Timer_1_ReadStatusRegister,"ax",%progbits
 1183              		.align	2
 1184              		.global	Ignition_Timer_1_ReadStatusRegister
 1185              		.thumb
 1186              		.thumb_func
 1187              		.type	Ignition_Timer_1_ReadStatusRegister, %function
 1188              	Ignition_Timer_1_ReadStatusRegister:
 1189              	.LFB10:
 712:Generated_Source\PSoC5/Ignition_Timer_1.c ****         return (CY_GET_REG8(Ignition_Timer_1_STATUS_PTR));
 1190              		.loc 1 712 0
 1191              		.cfi_startproc
 1192              		@ args = 0, pretend = 0, frame = 0
 1193              		@ frame_needed = 0, uses_anonymous_args = 0
 1194              		@ link register save eliminated.
 713:Generated_Source\PSoC5/Ignition_Timer_1.c ****     }
 1195              		.loc 1 713 0
 1196 0000 014B     		ldr	r3, .L58
 1197 0002 1878     		ldrb	r0, [r3]	@ zero_extendqisi2
 714:Generated_Source\PSoC5/Ignition_Timer_1.c **** 
 1198              		.loc 1 714 0
 1199 0004 7047     		bx	lr
 1200              	.L59:
 1201 0006 00BF     		.align	2
 1202              	.L58:
 1203 0008 6F640040 		.word	1073767535
 1204              		.cfi_endproc
 1205              	.LFE10:
 1206              		.size	Ignition_Timer_1_ReadStatusRegister, .-Ignition_Timer_1_ReadStatusRegister
 1207              		.section	.text.Ignition_Timer_1_ReadControlRegister,"ax",%progbits
 1208              		.align	2
 1209              		.global	Ignition_Timer_1_ReadControlRegister
 1210              		.thumb
 1211              		.thumb_func
 1212              		.type	Ignition_Timer_1_ReadControlRegister, %function
 1213              	Ignition_Timer_1_ReadControlRegister:
 1214              	.LFB11:
 738:Generated_Source\PSoC5/Ignition_Timer_1.c ****         uint8 result;
ARM GAS  C:\Users\Bruger\AppData\Local\Temp\ccusA8cR.s 			page 72


 1215              		.loc 1 738 0
 1216              		.cfi_startproc
 1217              		@ args = 0, pretend = 0, frame = 0
 1218              		@ frame_needed = 0, uses_anonymous_args = 0
 1219              		@ link register save eliminated.
 741:Generated_Source\PSoC5/Ignition_Timer_1.c ****         return (result);
 1220              		.loc 1 741 0
 1221 0000 014B     		ldr	r3, .L61
 1222 0002 1878     		ldrb	r0, [r3]	@ zero_extendqisi2
 1223              	.LVL20:
 743:Generated_Source\PSoC5/Ignition_Timer_1.c **** 
 1224              		.loc 1 743 0
 1225 0004 7047     		bx	lr
 1226              	.L62:
 1227 0006 00BF     		.align	2
 1228              	.L61:
 1229 0008 7F640040 		.word	1073767551
 1230              		.cfi_endproc
 1231              	.LFE11:
 1232              		.size	Ignition_Timer_1_ReadControlRegister, .-Ignition_Timer_1_ReadControlRegister
 1233              		.section	.text.Ignition_Timer_1_WriteControlRegister,"ax",%progbits
 1234              		.align	2
 1235              		.global	Ignition_Timer_1_WriteControlRegister
 1236              		.thumb
 1237              		.thumb_func
 1238              		.type	Ignition_Timer_1_WriteControlRegister, %function
 1239              	Ignition_Timer_1_WriteControlRegister:
 1240              	.LFB12:
 766:Generated_Source\PSoC5/Ignition_Timer_1.c ****         CY_SET_REG8(Ignition_Timer_1_CONTROL_PTR, control);
 1241              		.loc 1 766 0
 1242              		.cfi_startproc
 1243              		@ args = 0, pretend = 0, frame = 0
 1244              		@ frame_needed = 0, uses_anonymous_args = 0
 1245              		@ link register save eliminated.
 1246              	.LVL21:
 767:Generated_Source\PSoC5/Ignition_Timer_1.c ****     }
 1247              		.loc 1 767 0
 1248 0000 014B     		ldr	r3, .L64
 1249 0002 1870     		strb	r0, [r3]
 1250 0004 7047     		bx	lr
 1251              	.L65:
 1252 0006 00BF     		.align	2
 1253              	.L64:
 1254 0008 7F640040 		.word	1073767551
 1255              		.cfi_endproc
 1256              	.LFE12:
 1257              		.size	Ignition_Timer_1_WriteControlRegister, .-Ignition_Timer_1_WriteControlRegister
 1258              		.section	.text.Ignition_Timer_1_ReadCapture,"ax",%progbits
 1259              		.align	2
 1260              		.global	Ignition_Timer_1_ReadCapture
 1261              		.thumb
 1262              		.thumb_func
 1263              		.type	Ignition_Timer_1_ReadCapture, %function
 1264              	Ignition_Timer_1_ReadCapture:
 1265              	.LFB13:
 791:Generated_Source\PSoC5/Ignition_Timer_1.c ****         return (CY_GET_REG16(Ignition_Timer_1_CAPTURE_LSB_PTR));
 1266              		.loc 1 791 0
ARM GAS  C:\Users\Bruger\AppData\Local\Temp\ccusA8cR.s 			page 73


 1267              		.cfi_startproc
 1268              		@ args = 0, pretend = 0, frame = 0
 1269              		@ frame_needed = 0, uses_anonymous_args = 0
 1270              		@ link register save eliminated.
 1271              		.loc 1 792 0
 1272 0000 014B     		ldr	r3, .L67
 1273 0002 1888     		ldrh	r0, [r3]
 793:Generated_Source\PSoC5/Ignition_Timer_1.c ****     }
 1274              		.loc 1 793 0
 1275 0004 80B2     		uxth	r0, r0
 1276 0006 7047     		bx	lr
 1277              	.L68:
 1278              		.align	2
 1279              	.L67:
 1280 0008 BC680040 		.word	1073768636
 1281              		.cfi_endproc
 1282              	.LFE13:
 1283              		.size	Ignition_Timer_1_ReadCapture, .-Ignition_Timer_1_ReadCapture
 1284              		.section	.text.Ignition_Timer_1_ReadCompare,"ax",%progbits
 1285              		.align	2
 1286              		.global	Ignition_Timer_1_ReadCompare
 1287              		.thumb
 1288              		.thumb_func
 1289              		.type	Ignition_Timer_1_ReadCompare, %function
 1290              	Ignition_Timer_1_ReadCompare:
 1291              	.LFB14:
 794:Generated_Source\PSoC5/Ignition_Timer_1.c **** 
 795:Generated_Source\PSoC5/Ignition_Timer_1.c **** #endif /* (!Ignition_Timer_1_UsingFixedFunction) */
 796:Generated_Source\PSoC5/Ignition_Timer_1.c **** 
 797:Generated_Source\PSoC5/Ignition_Timer_1.c **** 
 798:Generated_Source\PSoC5/Ignition_Timer_1.c **** #if (Ignition_Timer_1_UseOneCompareMode)
 799:Generated_Source\PSoC5/Ignition_Timer_1.c **** 
 800:Generated_Source\PSoC5/Ignition_Timer_1.c **** 
 801:Generated_Source\PSoC5/Ignition_Timer_1.c ****     /*******************************************************************************
 802:Generated_Source\PSoC5/Ignition_Timer_1.c ****     * Function Name: Ignition_Timer_1_ReadCompare
 803:Generated_Source\PSoC5/Ignition_Timer_1.c ****     ********************************************************************************
 804:Generated_Source\PSoC5/Ignition_Timer_1.c ****     *
 805:Generated_Source\PSoC5/Ignition_Timer_1.c ****     * Summary:
 806:Generated_Source\PSoC5/Ignition_Timer_1.c ****     *  Reads the compare value for the compare output when the PWM Mode parameter is
 807:Generated_Source\PSoC5/Ignition_Timer_1.c ****     *  set to Dither mode, Center Aligned mode, or One Output mode.
 808:Generated_Source\PSoC5/Ignition_Timer_1.c ****     *
 809:Generated_Source\PSoC5/Ignition_Timer_1.c ****     * Parameters:
 810:Generated_Source\PSoC5/Ignition_Timer_1.c ****     *  None
 811:Generated_Source\PSoC5/Ignition_Timer_1.c ****     *
 812:Generated_Source\PSoC5/Ignition_Timer_1.c ****     * Return:
 813:Generated_Source\PSoC5/Ignition_Timer_1.c ****     *  uint8/uint16: Current compare value
 814:Generated_Source\PSoC5/Ignition_Timer_1.c ****     *
 815:Generated_Source\PSoC5/Ignition_Timer_1.c ****     *******************************************************************************/
 816:Generated_Source\PSoC5/Ignition_Timer_1.c ****     uint16 Ignition_Timer_1_ReadCompare(void) 
 817:Generated_Source\PSoC5/Ignition_Timer_1.c ****     {
 1292              		.loc 1 817 0
 1293              		.cfi_startproc
 1294              		@ args = 0, pretend = 0, frame = 0
 1295              		@ frame_needed = 0, uses_anonymous_args = 0
 1296              		@ link register save eliminated.
 818:Generated_Source\PSoC5/Ignition_Timer_1.c ****         #if(Ignition_Timer_1_UsingFixedFunction)
 819:Generated_Source\PSoC5/Ignition_Timer_1.c ****             return ((uint16)CY_GET_REG16(Ignition_Timer_1_COMPARE1_LSB_PTR));
ARM GAS  C:\Users\Bruger\AppData\Local\Temp\ccusA8cR.s 			page 74


 820:Generated_Source\PSoC5/Ignition_Timer_1.c ****         #else
 821:Generated_Source\PSoC5/Ignition_Timer_1.c ****             return (CY_GET_REG16(Ignition_Timer_1_COMPARE1_LSB_PTR));
 1297              		.loc 1 821 0
 1298 0000 014B     		ldr	r3, .L70
 1299 0002 1888     		ldrh	r0, [r3]
 822:Generated_Source\PSoC5/Ignition_Timer_1.c ****         #endif /* (Ignition_Timer_1_UsingFixedFunction) */
 823:Generated_Source\PSoC5/Ignition_Timer_1.c ****     }
 1300              		.loc 1 823 0
 1301 0004 80B2     		uxth	r0, r0
 1302 0006 7047     		bx	lr
 1303              	.L71:
 1304              		.align	2
 1305              	.L70:
 1306 0008 5C680040 		.word	1073768540
 1307              		.cfi_endproc
 1308              	.LFE14:
 1309              		.size	Ignition_Timer_1_ReadCompare, .-Ignition_Timer_1_ReadCompare
 1310              		.section	.text.Ignition_Timer_1_ReadPeriod,"ax",%progbits
 1311              		.align	2
 1312              		.global	Ignition_Timer_1_ReadPeriod
 1313              		.thumb
 1314              		.thumb_func
 1315              		.type	Ignition_Timer_1_ReadPeriod, %function
 1316              	Ignition_Timer_1_ReadPeriod:
 1317              	.LFB15:
 824:Generated_Source\PSoC5/Ignition_Timer_1.c **** 
 825:Generated_Source\PSoC5/Ignition_Timer_1.c **** #else
 826:Generated_Source\PSoC5/Ignition_Timer_1.c **** 
 827:Generated_Source\PSoC5/Ignition_Timer_1.c **** 
 828:Generated_Source\PSoC5/Ignition_Timer_1.c ****     /*******************************************************************************
 829:Generated_Source\PSoC5/Ignition_Timer_1.c ****     * Function Name: Ignition_Timer_1_ReadCompare1
 830:Generated_Source\PSoC5/Ignition_Timer_1.c ****     ********************************************************************************
 831:Generated_Source\PSoC5/Ignition_Timer_1.c ****     *
 832:Generated_Source\PSoC5/Ignition_Timer_1.c ****     * Summary:
 833:Generated_Source\PSoC5/Ignition_Timer_1.c ****     *  Reads the compare value for the compare1 output.
 834:Generated_Source\PSoC5/Ignition_Timer_1.c ****     *
 835:Generated_Source\PSoC5/Ignition_Timer_1.c ****     * Parameters:
 836:Generated_Source\PSoC5/Ignition_Timer_1.c ****     *  None
 837:Generated_Source\PSoC5/Ignition_Timer_1.c ****     *
 838:Generated_Source\PSoC5/Ignition_Timer_1.c ****     * Return:
 839:Generated_Source\PSoC5/Ignition_Timer_1.c ****     *  uint8/uint16: Current compare value.
 840:Generated_Source\PSoC5/Ignition_Timer_1.c ****     *
 841:Generated_Source\PSoC5/Ignition_Timer_1.c ****     *******************************************************************************/
 842:Generated_Source\PSoC5/Ignition_Timer_1.c ****     uint16 Ignition_Timer_1_ReadCompare1(void) 
 843:Generated_Source\PSoC5/Ignition_Timer_1.c ****     {
 844:Generated_Source\PSoC5/Ignition_Timer_1.c ****         return (CY_GET_REG16(Ignition_Timer_1_COMPARE1_LSB_PTR));
 845:Generated_Source\PSoC5/Ignition_Timer_1.c ****     }
 846:Generated_Source\PSoC5/Ignition_Timer_1.c **** 
 847:Generated_Source\PSoC5/Ignition_Timer_1.c **** 
 848:Generated_Source\PSoC5/Ignition_Timer_1.c ****     /*******************************************************************************
 849:Generated_Source\PSoC5/Ignition_Timer_1.c ****     * Function Name: Ignition_Timer_1_ReadCompare2
 850:Generated_Source\PSoC5/Ignition_Timer_1.c ****     ********************************************************************************
 851:Generated_Source\PSoC5/Ignition_Timer_1.c ****     *
 852:Generated_Source\PSoC5/Ignition_Timer_1.c ****     * Summary:
 853:Generated_Source\PSoC5/Ignition_Timer_1.c ****     *  Reads the compare value for the compare2 output.
 854:Generated_Source\PSoC5/Ignition_Timer_1.c ****     *
 855:Generated_Source\PSoC5/Ignition_Timer_1.c ****     * Parameters:
ARM GAS  C:\Users\Bruger\AppData\Local\Temp\ccusA8cR.s 			page 75


 856:Generated_Source\PSoC5/Ignition_Timer_1.c ****     *  None
 857:Generated_Source\PSoC5/Ignition_Timer_1.c ****     *
 858:Generated_Source\PSoC5/Ignition_Timer_1.c ****     * Return:
 859:Generated_Source\PSoC5/Ignition_Timer_1.c ****     *  uint8/uint16: Current compare value.
 860:Generated_Source\PSoC5/Ignition_Timer_1.c ****     *
 861:Generated_Source\PSoC5/Ignition_Timer_1.c ****     *******************************************************************************/
 862:Generated_Source\PSoC5/Ignition_Timer_1.c ****     uint16 Ignition_Timer_1_ReadCompare2(void) 
 863:Generated_Source\PSoC5/Ignition_Timer_1.c ****     {
 864:Generated_Source\PSoC5/Ignition_Timer_1.c ****         return (CY_GET_REG16(Ignition_Timer_1_COMPARE2_LSB_PTR));
 865:Generated_Source\PSoC5/Ignition_Timer_1.c ****     }
 866:Generated_Source\PSoC5/Ignition_Timer_1.c **** 
 867:Generated_Source\PSoC5/Ignition_Timer_1.c **** #endif /* (Ignition_Timer_1_UseOneCompareMode) */
 868:Generated_Source\PSoC5/Ignition_Timer_1.c **** 
 869:Generated_Source\PSoC5/Ignition_Timer_1.c **** 
 870:Generated_Source\PSoC5/Ignition_Timer_1.c **** /*******************************************************************************
 871:Generated_Source\PSoC5/Ignition_Timer_1.c **** * Function Name: Ignition_Timer_1_ReadPeriod
 872:Generated_Source\PSoC5/Ignition_Timer_1.c **** ********************************************************************************
 873:Generated_Source\PSoC5/Ignition_Timer_1.c **** *
 874:Generated_Source\PSoC5/Ignition_Timer_1.c **** * Summary:
 875:Generated_Source\PSoC5/Ignition_Timer_1.c **** *  Reads the period value used by the PWM hardware.
 876:Generated_Source\PSoC5/Ignition_Timer_1.c **** *
 877:Generated_Source\PSoC5/Ignition_Timer_1.c **** * Parameters:
 878:Generated_Source\PSoC5/Ignition_Timer_1.c **** *  None
 879:Generated_Source\PSoC5/Ignition_Timer_1.c **** *
 880:Generated_Source\PSoC5/Ignition_Timer_1.c **** * Return:
 881:Generated_Source\PSoC5/Ignition_Timer_1.c **** *  uint8/16: Period value
 882:Generated_Source\PSoC5/Ignition_Timer_1.c **** *
 883:Generated_Source\PSoC5/Ignition_Timer_1.c **** *******************************************************************************/
 884:Generated_Source\PSoC5/Ignition_Timer_1.c **** uint16 Ignition_Timer_1_ReadPeriod(void) 
 885:Generated_Source\PSoC5/Ignition_Timer_1.c **** {
 1318              		.loc 1 885 0
 1319              		.cfi_startproc
 1320              		@ args = 0, pretend = 0, frame = 0
 1321              		@ frame_needed = 0, uses_anonymous_args = 0
 1322              		@ link register save eliminated.
 886:Generated_Source\PSoC5/Ignition_Timer_1.c ****     #if(Ignition_Timer_1_UsingFixedFunction)
 887:Generated_Source\PSoC5/Ignition_Timer_1.c ****         return ((uint16)CY_GET_REG16(Ignition_Timer_1_PERIOD_LSB_PTR));
 888:Generated_Source\PSoC5/Ignition_Timer_1.c ****     #else
 889:Generated_Source\PSoC5/Ignition_Timer_1.c ****         return (CY_GET_REG16(Ignition_Timer_1_PERIOD_LSB_PTR));
 1323              		.loc 1 889 0
 1324 0000 014B     		ldr	r3, .L73
 1325 0002 1888     		ldrh	r0, [r3]
 890:Generated_Source\PSoC5/Ignition_Timer_1.c ****     #endif /* (Ignition_Timer_1_UsingFixedFunction) */
 891:Generated_Source\PSoC5/Ignition_Timer_1.c **** }
 1326              		.loc 1 891 0
 1327 0004 80B2     		uxth	r0, r0
 1328 0006 7047     		bx	lr
 1329              	.L74:
 1330              		.align	2
 1331              	.L73:
 1332 0008 9C680040 		.word	1073768604
 1333              		.cfi_endproc
 1334              	.LFE15:
 1335              		.size	Ignition_Timer_1_ReadPeriod, .-Ignition_Timer_1_ReadPeriod
 1336              		.global	Ignition_Timer_1_initVar
 1337              		.bss
 1338              		.set	.LANCHOR0,. + 0
ARM GAS  C:\Users\Bruger\AppData\Local\Temp\ccusA8cR.s 			page 76


 1339              		.type	Ignition_Timer_1_initVar, %object
 1340              		.size	Ignition_Timer_1_initVar, 1
 1341              	Ignition_Timer_1_initVar:
 1342 0000 00       		.space	1
 1343              		.text
 1344              	.Letext0:
 1345              		.file 2 "Generated_Source\\PSoC5\\cytypes.h"
 1346              		.file 3 "Generated_Source\\PSoC5\\CyLib.h"