ARM GAS  C:\Users\Bruger\AppData\Local\Temp\ccKZ2EN2.s 			page 1


   1              		.syntax unified
   2              		.cpu cortex-m3
   3              		.fpu softvfp
   4              		.eabi_attribute 20, 1
   5              		.eabi_attribute 21, 1
   6              		.eabi_attribute 23, 3
   7              		.eabi_attribute 24, 1
   8              		.eabi_attribute 25, 1
   9              		.eabi_attribute 26, 1
  10              		.eabi_attribute 30, 4
  11              		.eabi_attribute 34, 1
  12              		.eabi_attribute 18, 4
  13              		.thumb
  14              		.file	"IgnitionCounter_PM.c"
  15              		.text
  16              	.Ltext0:
  17              		.section	.gnu.lto_.profile.ebcf082d,"",%progbits
  18 0000 789C6366 		.ascii	"x\234cf```a\200\000F\206\014\031\000\001`\000\215"
  18      60606061 
  18      80004686 
  18      0C190001 
  18      60008D
  19              		.text
  20              		.section	.gnu.lto_.jmpfuncs.ebcf082d,"",%progbits
  21 0000 789C6366 		.ascii	"x\234cf\300\016\244\2404\013\230db``\004#f\204\030\000"
  21      C00EA4A0 
  21      340B9864 
  21      62606004 
  21      23668418 
  22 0015 0544002D 		.ascii	"\005D\000-"
  23              		.text
  24              		.section	.gnu.lto_.inline.ebcf082d,"",%progbits
  25 0000 789C6366 		.ascii	"x\234cf\300\016\252\2404\013\003\003\247\024#\003\023"
  25      C00EAAA0 
  25      340B0303 
  25      A7142303 
  25      13
  26 0011 CB027906 		.ascii	"\313\002y\006\266\005\362L 1&n8\201]\222q\202\037\224"
  26      B605F24C 
  26      2031266E 
  26      38815D92 
  26      71821F94 
  27 0025 6266E002 		.ascii	"bf\340\002)\340\332g\007W\300\310\005#X\0308\004\201"
  27      29E0DA67 
  27      0757C0C8 
  27      05235818 
  27      380481
  28 0038 926C1FF4 		.ascii	"\222l\037\364\260H2\000\000\232\325\012\004"
  28      B0483200 
  28      009AD50A 
  28      04
  29              		.text
  30              		.section	.gnu.lto_.pureconst.ebcf082d,"",%progbits
  31 0000 789C6366 		.ascii	"x\234cf``\340d\200\000\026\006\011&\011f)\026\011\000"
  31      6060E064 
  31      80001606 
  31      09260966 
ARM GAS  C:\Users\Bruger\AppData\Local\Temp\ccKZ2EN2.s 			page 2


  31      29160900 
  32 0014 02B7007C 		.ascii	"\002\267\000|"
  33              		.text
  34              		.section	.gnu.lto_IgnitionCounter_SaveConfig.ebcf082d,"",%progbits
  35 0000 789C7D90 		.ascii	"x\234}\220\275K\003A\020\305\347\355\231\3634\215X\346"
  35      BD4B0341 
  35      10C5E7ED 
  35      99F3348D 
  35      58E6
  36 0012 1F4863D2 		.ascii	"\037Hc\322Y\212E\012\021\021\002i\003A\342!ir\020\222"
  36      598A450A 
  36      11110269 
  36      0341E221 
  36      69721092 
  37 0026 32E44E53 		.ascii	"2\344NSXi\260\022\374(\0041\232/\265\027\316ZP$\205"
  37      5869B012 
  37      FC280431 
  37      9A2FB517 
  37      CE5A5024 
  38 003b 10451122 		.ascii	"\020E\021\"hg\014A\016\211q\366\2563\342\302\354\356"
  38      68670C41 
  38      0E8971F6 
  38      AE33E2C2 
  38      ECEE
  39 004d ECBC7DF3 		.ascii	"\354\274}\363\333Uhx\0048j \012\363\012\205 J\327D\226"
  39      DB556878 
  39      04386A20 
  39      0AF30A85 
  39      204AD744 
  40 0062 2600B921 		.ascii	"&\000\271!PA\240\2007\321\021(\331\225m\177\360\320"
  40      5041A080 
  40      37D11128 
  40      D9956D7F 
  40      F0D0
  41 0074 34CDF783 		.ascii	"4\315\367\203++j\303\021D]\341\371\340\010AbQ\247\330"
  41      2B2B6AC3 
  41      11445DE1 
  41      F9E00841 
  41      6251A7D8 
  42 0088 BFF3AB45 		.ascii	"\277\363\253E\026Mx5\224\241\262?5&ms0\350\326.[\320"
  42      164D7835 
  42      94A1B23F 
  42      35266D73 
  42      30E8D62E 
  43 009e 14720454 		.ascii	"\024r\004T\236X\320\346\220\255^8\341Uy\300\232}\321"
  43      9E58D0E6 
  43      90AD5E38 
  43      E15579C0 
  43      9A7DD1
  44 00b1 13F2DAA7 		.ascii	"\023\362\332\247P\330q\277\271Q\027\371/s\335\324\034"
  44      50D871BF 
  44      B95117F9 
  44      2F73DDD4 
  44      1C
  45 00c2 A174059B 		.ascii	"\241t\005\233\341\030y\276=B-\254n=\207\244\366\267"
  45      E11879BE 
  45      3D422DAC 
ARM GAS  C:\Users\Bruger\AppData\Local\Temp\ccKZ2EN2.s 			page 3


  45      6E3D87A4 
  45      F6B7
  46 00d4 D0D797CD 		.ascii	"\320\327\227\315\371\364\251}s\253\275\012>q\323\262"
  46      F9F4A97D 
  46      73ABBD0A 
  46      3E71D3B2 
  47 00e4 55DCC51E 		.ascii	"U\334\305\036v,S\252T\234 \217\012\002n\355\273\272"
  47      762C53AA 
  47      549C208F 
  47      0A026EED 
  47      BBBA
  48 00f6 79AE862A 		.ascii	"y\256\206*\314n\317:b\024U\026~\270\357C\015!\246!\011"
  48      CC6ECF3A 
  48      62145516 
  48      7EB8EF43 
  48      0D21A621 
  49 010b D7EC291E 		.ascii	"\327\354)\036\334PO\255+\037\204\272\0137\346\301\315"
  49      DC504FAD 
  49      2B1F84BA 
  49      0B37E6C1 
  49      CD
  50 011c FC0BF79B 		.ascii	"\374\013\367\233\246\3617\315\202#\306q\352\322\310"
  50      A6F137CD 
  50      8223C671 
  50      EAD2C8
  51 012b AFC499A4 		.ascii	"\257\304\231\244Q\351\021\226}\357\223\015$c\233k\374"
  51      51E91196 
  51      7DEF930D 
  51      24639B6B 
  51      FC
  52 013c 81EC3C35 		.ascii	"\201\354<5\247\247\365\314RV_N\304\214\\&\251\307\243"
  52      A7A7F5CC 
  52      52565F4E 
  52      C48C5C26 
  52      A9C7A3
  53 014f 3123321D 		.ascii	"1#2\035\237_I\247\262)#\0351r\351\254\236ID\027\303"
  53      9F5F49A7 
  53      B229231D 
  53      3172E9AC 
  53      9E494417 
  54 0164 49FA0132 		.ascii	"I\372\0012\002\251}"
  54      02A97D
  55              		.text
  56              		.section	.gnu.lto_IgnitionCounter_RestoreConfig.ebcf082d,"",%progbits
  57 0000 789C7D90 		.ascii	"x\234}\220\317K\002Q\020\307\347;\273m[^\242\223\370"
  57      CF4B0251 
  57      10C7E73B 
  57      BB6D5B5E 
  57      A293F8
  58 0013 0F7830BD 		.ascii	"\017x0\275\365\027\010E\207 \360*H\330\022^V\020=\212"
  58      F5170845 
  58      8720F02A 
  58      48D8125E 
  58      56103D8A 
  59 0027 BB61D0A9 		.ascii	"\273a\320\251\354\026\364\003\012\"K\323,\350\354?P"
  59      EC16F403 
  59      0A224BD3 
ARM GAS  C:\Users\Bruger\AppData\Local\Temp\ccKZ2EN2.s 			page 4


  59      2CE8EC3F 
  59      50
  60 0038 22054145 		.ascii	"\"\005AE]\014\352\226y\210%\314\336[;\331\217\007\363"
  60      5D0CEA96 
  60      798825CC 
  60      DE5B3BD9 
  60      8F07F3
  61 004b E6CDCCF7 		.ascii	"\346\315\314\367\315|\030\205~\036\237\260]\020\205"
  61      CD7C1885 
  61      7E1E9FB0 
  61      5D1085
  62 005a 848742E0 		.ascii	"\204\207B\340\302%\221\2553 \037\004\3121rx\3416\243"
  62      C22591AD 
  62      33201F04 
  62      CA317278 
  62      E136A3
  63 006d 502F6D78 		.ascii	"P/mx\374\373\226e\275\356\235y\227\275\016\023u\270"
  63      FCFB9665 
  63      BDEE9D79 
  63      97BD0E13 
  63      75B8
  64 007f DF0607F0 		.ascii	"\337\006\007\360\223\320\264\363\335\033\217\226\027"
  64      93D0B4F3 
  64      DD1B8F96 
  64      17
  65 008c 9AB17E0D 		.ascii	"\232\261~\015Eh\242=U\307\353V\257\327\271X/\006\240"
  65      4568A23D 
  65      55C7EB56 
  65      AFD7B958 
  65      2F06A0
  66 009f 31390C55 		.ascii	"19\014U\\B\321\022&G=\211@x\345\026K\347\265\206\255"
  66      5C42D112 
  66      26473D89 
  66      4078E516 
  66      4BE7B586 
  67 00b4 C88FEF2C 		.ascii	"\310\217\357,\347\356\\\255V8\373a\255X\272\303JWv\025"
  67      E7EE5CAD 
  67      5638FB61 
  67      AD58BAC3 
  67      4A577615 
  68 00c8 D9C756A3 		.ascii	"\331\307V\243\251?\263\310\270a\321\316oa\033\233\266"
  68      A93FB3C8 
  68      B861D1CE 
  68      6F611B9B 
  68      B6
  69 00d9 25552A0E 		.ascii	"%U*\016\221\305\021|n\355\263\274v\252\005\003\016\017"
  69      91C5117C 
  69      6EEDB3BC 
  69      76AA0503 
  69      0E0F
  70 00eb A124346F 		.ascii	"\241$4o.3\312\010\322=T9\207\006\247h\035\026\3208F"
  70      2E33CA08 
  70      D23D5439 
  70      8706A768 
  70      1D16D038 
  71 0100 960483C3 		.ascii	"\226\004\203\303\303$\261\332\327\315o,\365O\254A\216"
  71      C324B1DA 
ARM GAS  C:\Users\Bruger\AppData\Local\Temp\ccKZ2EN2.s 			page 5


  71      D7CD6F2C 
  71      F54FAC41 
  71      8E
  72 0111 CA6F1C3A 		.ascii	"\312o\034:\252.\207\\\014N\376\341\030\351\310\025\241"
  72      AA2E875C 
  72      0C4EFEE1 
  72      18E9C815 
  72      A1
  73 0122 E672A80E 		.ascii	"\346r\250\016\217\322\003\354\372\335\224+&\271<\310"
  73      8FD203EC 
  73      FADD942B 
  73      26B93CC8 
  74 0132 A509CDC4 		.ascii	"\245\011\315\304\264a\032\251\371\264\261\020\213$3"
  74      B4611AA9 
  74      F9B4B110 
  74      8B2433
  75 0141 A9B8119D 		.ascii	"\251\270\021\235\213$\303\223\321\231E3\221N$\315p2"
  75      8B24C393 
  75      D1994533 
  75      914E24CD 
  75      7032
  76 0153 63A68D54 		.ascii	"c\246\215Tln6\024\247/\232\342\237F"
  76      6C6E3614 
  76      A72F9AE2 
  76      9F46
  77              		.text
  78              		.section	.gnu.lto_IgnitionCounter_Sleep.ebcf082d,"",%progbits
  79 0000 789C8592 		.ascii	"x\234\205\222OH\024Q\034\307\177\337\337\233\231]\377"
  79      4F481451 
  79      1CC77FDF 
  79      DF9B995D 
  79      FF
  80 0011 64D1493C 		.ascii	"d\321I<v\361\222\336:\206\007\017Q\021\010^\005\011"
  80      76F192DE 
  80      3A86070F 
  80      5111085E 
  80      0509
  81 0023 1BC2CB6C 		.ascii	"\033\302\313l,\353q\361\215;Rt\250\255 \226j\273U[k"
  81      2CEB71F1 
  81      8D3B5274 
  81      A8AD2096 
  81      6ABB555B 
  82 0038 6ADA3FE8 		.ascii	"j\332?\3502\204PA\024\022!H\330E\241\240b7\305\034\304"
  82      32845041 
  82      14122148 
  82      D845A1A0 
  82      6237C51C 
  83 004d B6DF9BDD 		.ascii	"\266\337\233\335J\214j\340\315{\357\367>\357\373\375"
  83      4A8C6AE0 
  83      CD7BEFF7 
  83      3EEFFBFD 
  84 005d CE7BA3E8 		.ascii	"\316{\243\350\317\347\240\264SL\324-=\034\002\347_\021"
  84      CFE7A0B4 
  84      534CD42D 
  84      3D1C02E7 
  84      5F11
  85 006f F94966B5 		.ascii	"\371If\265\321F\272\331*\364\220nU\260\353e\353\347"
ARM GAS  C:\Users\Bruger\AppData\Local\Temp\ccKZ2EN2.s 			page 6


  85      D146BAD9 
  85      2AF4906E 
  85      55B0EB65 
  85      EBE7
  86 0081 C006CC80 		.ascii	"\300\006\314\200@\243\254,\033\243\370\310UF>,\027Z"
  86      40A3AC2C 
  86      1BA3F8C8 
  86      55463E2C 
  86      175A
  87 0093 3A6F68AD 		.ascii	":oh\255+\027\237\264\217\267G\242\274\312u'\334B'\011"
  87      2B179FB4 
  87      8FB747A2 
  87      BCCA7527 
  87      DC422709 
  88 00a7 530DB616 		.ascii	"S\015\266\026Z\234@\230=\3655\224\340@\372\251\275\241"
  88      5A9C4098 
  88      3DF53594 
  88      E040FAA9 
  88      BDA1
  89 00b9 AED5663F 		.ascii	"\256\325f?_(\355\343&E\021\303\222\227\020\313\322\214"
  89      5F28EDE3 
  89      264511C3 
  89      929710CB 
  89      D28C
  90 00cb DB8A4CA4 		.ascii	"\333\212L\244W\213x\272~\366K\3611\314\316o\254D\364"
  90      578B78BA 
  90      7EF64BF1 
  90      31CCCE6F 
  90      AC44F4
  91 00de 85FE34D7 		.ascii	"\205\3764\327\372\201#Vk\317}m\031\237\367\313\257\347"
  91      FA812356 
  91      6BCF7D6D 
  91      199FF7CB 
  91      AFE7
  92 00f0 937189CC 		.ascii	"\223q\211\314t|\341rM\025q\325\017\020\261\205\333\350"
  92      747CE172 
  92      4D1571D5 
  92      0F10B185 
  92      DBE8
  93 0102 C01D7488 		.ascii	"\300\035t\210{\031E\320\"\306\226N\317\331uAK4\351-"
  93      7B1945D0 
  93      22C6964E 
  93      CFD97541 
  93      4B34E92D 
  94 0116 829739AF 		.ascii	"\202\2279\257Q\330.'a0av\222I\244h\243M\002\215U\246"
  94      51D82E27 
  94      61306176 
  94      9249A468 
  94      A34D028D 
  95 012c D7AABB0C 		.ascii	"\327\252\273\014-\350\3657\347&9\273\251\317\350d\304"
  95      2DE8F537 
  95      E72639BB 
  95      A9CFE864 
  95      C4
  96 013d F696F9C6 		.ascii	"\366\226\371\306\355\002v<-\371\3015\230<\332P\016\356"
  96      ED02763C 
  96      2DF9C135 
ARM GAS  C:\Users\Bruger\AppData\Local\Temp\ccKZ2EN2.s 			page 7


  96      983CDA50 
  96      0EEE
  97 014f 228B4923 		.ascii	"\"\213I#+k\337'\316\3178]e9\242\360h\304\011L\011\370"
  97      2B6BDF27 
  97      CECF385D 
  97      6539A2F0 
  97      68C4094C 
  98 0165 353E464C 		.ascii	"5>FL\243K\200\371+7s\273\215V\002\204{q\230\025\266"
  98      A34B80F9 
  98      2B3773BB 
  98      8D560284 
  98      7B719815 
  99 017a A8D01347 		.ascii	"\250\320\023G\251\254\377'\312N\357\231\177x\317\376"
  99      A9ACFF27 
  99      CA4EEF99 
  99      7F78CFFE 
 100 018a F6BE1F7B 		.ascii	"\366\276\037{\377\372\216\204\224\0364\274\355\370b"
 100      FFFA8E84 
 100      941E34BC 
 100      EDF862
 101 0199 DE2117D6 		.ascii	"\336!\027\326\236\261\361\246\235\346\311U\226K\306"
 101      9EB1F1A6 
 101      9DE6C955 
 101      964BC6
 102 01a8 4364E552 		.ascii	"Cd\345R\233\310\240\371\346\277\221\346\214\0375\310"
 102      9BC8A0F9 
 102      E6BF91E6 
 102      8C1F35C8 
 103 01b8 25F8E1A5 		.ascii	"%\370\341\245#1I\346_\200\261\022`\377!\327s\323\307"
 103      233149E6 
 103      5F80B112 
 103      60FF21D7 
 103      73D3C7
 104 01cb 33EE89C1 		.ascii	"3\356\211\301\376\324Hz\310\035\350\353O\365\036\030"
 104      FED4487A 
 104      C81DE8EB 
 104      4FF51E18 
 105 01db 387CD21B 		.ascii	"8|\322\033\316\014\247\274\336\324\210\227q\323\203"
 105      CE0CA7BC 
 105      DED48897 
 105      71D383
 106 01ea 7DC7BA87 		.ascii	"}\307\272\207\350\007%\243\363\302"
 106      E80725A3 
 106      F3C2
 107              		.text
 108              		.section	.gnu.lto_IgnitionCounter_Wakeup.ebcf082d,"",%progbits
 109 0000 789C7550 		.ascii	"x\234uPKKBA\030\375\316w\247\213ed\264\222\376\200\213"
 109      4B4B4241 
 109      18FDCE77 
 109      A78B6564 
 109      B492FE80 
 110 0015 1E8BA26D 		.ascii	"\036\213\242m\033\027\021\021\004n\005\011\273D\233"
 110      1B171111 
 110      046E0509 
 110      BB449B
 111 0024 2B88B593 		.ascii	"+\210\265\223\3062hUR\233\240\307\"\210\354\245\324"
 111      C6326855 
ARM GAS  C:\Users\Bruger\AppData\Local\Temp\ccKZ2EN2.s 			page 8


 111      529BA0C7 
 111      2288ECA5 
 111      D4
 112 0035 A2B5AB02 		.ascii	"\242\265\253\002\027E\204\030\321\003\242\240v\231\213"
 112      17458418 
 112      D103A2A0 
 112      76998B
 113 0044 10299BB9 		.ascii	"\020)\233\271\006A\321\300\360\315\2349\017\316\030"
 113      0641D1C0 
 113      F0CD9C39 
 113      0FCE18
 114 0053 F477F5AA 		.ascii	"\364w\365\252=\005\242n5\321@\340\324\031Q\302\305l"
 114      3D05A26E 
 114      35D140E0 
 114      D41951C2 
 114      C56C
 115 0065 9C784836 		.ascii	"\234xH6\211|?\311f\003\242\016\013@\037\0104\315\206"
 115      897C3FC9 
 115      6603A20E 
 115      0B401F08 
 115      34CD86
 116 0078 C0345EB8 		.ascii	"\3004^\270\304H\345\366V\334\276-)\345\353C\301;\347"
 116      C448E5F6 
 116      56DCBE2D 
 116      29E5EB43 
 116      C13BE7
 117 008b AD305199 		.ascii	"\2550Q\231\353\376\330\206\217\024\247\224\374(\272"
 117      EBFED886 
 117      8F14A794 
 117      FC28BA
 118 009a CDA4E2B4 		.ascii	"\315\244\342\264\326\337\220\206\251r)\333\226\223\265"
 118      D6DF9086 
 118      A97229DB 
 118      9693B5
 119 00a9 5AB9B894 		.ascii	"Z\271\270\224\356aSP\205\025\370\250\010:\347\211YO"
 119      EE615350 
 119      8515F8A8 
 119      083AE789 
 119      594F
 120 00bb E306B3B9 		.ascii	"\343\006\263\271R\236\265D{m\\.d8^\225\363\322Ua.k\005"
 120      529EB544 
 120      7B6D5C2E 
 120      64385E95 
 120      F3D25561 
 121 00d2 7610575A 		.ascii	"v\020WZ\203\2561s|x\273\331\250\271\357,~\263\305\207"
 121      83AE3173 
 121      7C78BBD9 
 121      A8B9EF2C 
 121      7EB3C587 
 122 00e6 CE56E8FD 		.ascii	"\316V\350\375\343\371\205\353\231\025\342\\\323\211"
 122      E3F985EB 
 122      9915E25C 
 122      D389
 123 00f4 E41AD6B1 		.ascii	"\344\032\326\261\232\220\232\325\200]\304\261\207v\347"
 123      9A909AD5 
 123      805DC4B1 
 123      8776E7
ARM GAS  C:\Users\Bruger\AppData\Local\Temp\ccKZ2EN2.s 			page 9


 124 0103 ED737FF1 		.ascii	"\355s\177\361\310\354\352\250\260\211}\305ys\232\341"
 124      C8ECEAA8 
 124      B0897DC5 
 124      79739AE1 
 125 0113 005D5440 		.ascii	"\000]T@\362j\326\376\211:]\177>\022\332\024 d\264\234"
 125      F26AD6FE 
 125      893A5D7F 
 125      3E12DA14 
 125      2064B49C 
 126 0127 7409834E 		.ascii	"t\011\203N<N\207j\276\345\277\016\312\024\331\357\016"
 126      3C4E876A 
 126      BEE5BF0E 
 126      CA14D9EF 
 126      0E
 127 0138 5A239CE2 		.ascii	"Z#\234\342wH\344\226\207\034\015\351o\201F\025\265s"
 127      7748E496 
 127      871C0DE9 
 127      6F814615 
 127      B573
 128 014a C0B2ADE8 		.ascii	"\300\262\255\350h\314\032\013\005\"\223\321\260\025"
 128      68CC1A0B 
 128      052293D1 
 128      B015
 129 0158 1C0944FC 		.ascii	"\034\011D\374}\301\301q{\"6\021\261\375\221I;fEC#\303"
 129      7DC1C171 
 129      7B223611 
 129      B1FD9149 
 129      3B664543 
 130 016e DD61FA02 		.ascii	"\335a\372\002\220\251\226\307"
 130      90A996C7 
 131              		.text
 132              		.section	.gnu.lto_.symbol_nodes.ebcf082d,"",%progbits
 133 0000 789C55CF 		.ascii	"x\234U\317\301\015\3020\014F\341\027;m\223\316\300\256"
 133      C10DC230 
 133      0C46E117 
 133      3B6D93CE 
 133      C0AE
 134 0012 7F0F1D80 		.ascii	"\177\017\035\200\011P\205X\203[\317\314\000\2109\020"
 134      09508558 
 134      835BCFCC 
 134      00883910 
 135 0022 69E16072 		.ascii	"i\341`ry\372\354\213\343\300\223\337\263$8\336@\342"
 135      79FAEC8B 
 135      E3C093DF 
 135      B32438DE 
 135      40E2
 136 0034 B4143A58 		.ascii	"\264\024:XLn\246\024\307\346\262?gyt\352\225\277f\232"
 136      4C6EA614 
 136      C7E6B23F 
 136      677974EA 
 136      95BF669A 
 137 0048 1A3B7591 		.ascii	"\032;u\221E}\344\240!\262\252D\216\252\201N\317\345"
 137      457DE4A0 
 137      21B2AA44 
 137      8EAA814E 
 137      CFE5
 138 005a FE4EDE4E 		.ascii	"\376N\336N{m\265\302\272w`~\264ze\335\333~\2655\033"
ARM GAS  C:\Users\Bruger\AppData\Local\Temp\ccKZ2EN2.s 			page 10


 138      7B6DB5C2 
 138      BA77607E 
 138      B47A65DD 
 138      DB7EB535 
 139 006f E76D9F47 		.ascii	"\347m\237G\346\353\201\017I\340;G"
 139      E6EB810F 
 139      49E03B47 
 140              		.text
 141              		.section	.gnu.lto_.refs.ebcf082d,"",%progbits
 142 0000 789C25C7 		.ascii	"x\234%\307\301\021\000 \020\203@H\3166\354\277Lu\344"
 142      C1110020 
 142      10834048 
 142      CE36ECBF 
 142      4C75E4
 143 0013 B514D8FC 		.ascii	"\265\024\330\374\202F'\017\330\364\216.\007\303\001"
 143      8246270F 
 143      D8F48E2E 
 143      07C301
 144 0022 07DF0052 		.ascii	"\007\337\000R"
 145              		.text
 146              		.section	.gnu.lto_.decls.ebcf082d,"",%progbits
 147 0000 789C8D55 		.ascii	"x\234\215UkL\024W\024\236\273wY`\330nMm\261\241m\334"
 147      6B4C1457 
 147      149EBB77 
 147      5960D86E 
 147      4D6DB1A1 
 148 0016 62436A43 		.ascii	"bCjC\214\375\321\306\1775!\215}\244\015\225\230\376"
 148      8CFDD1C6 
 148      7F35218D 
 148      7DA40D95 
 148      98FE
 149 0028 A889419C 		.ascii	"\250\211A\234\"\321\260d]\332\370\253\003\210 *\"\365"
 149      22D1B064 
 149      5DDAF8AB 
 149      0388202A 
 149      22F5
 150 003a B1A06D50 		.ascii	"\261\240mP\260\274dy\210\012H\205\005\344!`[Ep\021p"
 150      B0BC6479 
 150      880A4885 
 150      05E42160 
 150      5B457011 
 151 004f 79681510 		.ascii	"yh\025\020\361\215\366\261=\367\314\014;\003l\333I\316"
 151      F18DF6B1 
 151      3DF7CC0C 
 151      3B036CDB 
 151      49CE
 152 0061 ECDCBBDF 		.ascii	"\354\334\273\337\371\316\371\316\271\017\312q\\\013"
 152      F9CEF9CE 
 152      B90FCA71 
 152      5C0B
 153 006f E1380F3C 		.ascii	"\3418\017<\306@\216[\244\3438?\230\213\344\274\017\017"
 153      C6408E5B 
 153      A4E3383F 
 153      988BE4BC 
 153      0F0F
 154 0081 7612CC01 		.ascii	"v\022\314\001V\001V\005V\007\326\004\326\012v\021\254"
 154      56015605 
ARM GAS  C:\Users\Bruger\AppData\Local\Temp\ccKZ2EN2.s 			page 11


 154      5607D604 
 154      D60A7611 
 154      AC
 155 0092 0BEC1218 		.ascii	"\013\354\022\030PqC\234\366a\276A2\247\031,\030\314"
 155      5071439C 
 155      F661BE41 
 155      32A7192C 
 155      18CC
 156 00a4 0DD60836 		.ascii	"\015\326\0106\0146\000\326\0006\002V\003v\006\014\322"
 156      0C3600D6 
 156      00360256 
 156      0376060C 
 156      D2
 157 00b5 E05C60D7 		.ascii	"\340\\`\327\300\250\314\321$\307](\206c\201\030j\356"
 157      C0A8CCD1 
 157      24C75D28 
 157      86638118 
 157      6AEE
 158 00c7 51B07699 		.ascii	"Q\260v\231{\214i^ \206C\326\322\352#F\205\\\213H\231"
 158      7B8C695E 
 158      208643D6 
 158      D2EA2346 
 158      855C8B48 
 159 00dc FF16D824 		.ascii	"\377\026\330$\330\270*\026\343\277\013V,s\364\312\334"
 159      D8B82A16 
 159      E3BF0B56 
 159      2C73F4CA 
 159      DC
 160 00ed 15728D4E 		.ascii	"\025r\215N\372\340f5\365Wq+\034j^5_\225\234\257\257"
 160      FAE06635 
 160      F557712B 
 160      1C6A5E35 
 160      5F959CAF 
 161 0102 9ADFD791 		.ascii	"\232\337\327\221\316\221\231\207\306\333:b\342\027\261"
 161      CE919987 
 161      C6DB3A62 
 161      E217B1
 162 0111 616EDFCD 		.ascii	"an\337\315G\024\206F^\307\206g\236=)7,9(\262'E\\\244"
 162      47148646 
 162      5EC78667 
 162      9E3D2937 
 162      2C3928B2 
 163 0129 2391C1A4 		.ascii	"#\221\301\244\220\204\220\"\022\002\214\305d\011\274"
 163      90849022 
 163      12028CC5 
 163      6409BC
 164 0138 BFD24B4C 		.ascii	"\277\322KL%W\213\332y\252#\354;\337>\334\303\207\227"
 164      25578BDA 
 164      79AA23EC 
 164      3BDF3EDC 
 164      C38797
 165 014b 8057BAD8 		.ascii	"\200W\272\330x\233z\303\335t\356}N\314?\212\356\212"
 165      789B7AC3 
 165      DD74EE7D 
 165      4ECC3F8A 
 165      EE8A
 166 015d E9AE6A97 		.ascii	"\351\256j\227Q,\022\033=\236\017\220\212\224\020JJI"
ARM GAS  C:\Users\Bruger\AppData\Local\Temp\ccKZ2EN2.s 			page 12


 166      512C121B 
 166      3D9E0F90 
 166      8A94104A 
 166      4A49
 167 016f 3843B26F 		.ascii	"8C\262ot!'\211\031\334&\355G\252\014\364\013\344\276"
 167      74212789 
 167      19DC26ED 
 167      47AA0CF4 
 167      0BE4BE
 168 0182 E7BE5EAA 		.ascii	"\347\276^\252G\212\274\334|\203D\200\376e*\3772\305"
 168      478ABCDC 
 168      7C834480 
 168      FE652AFF 
 168      32C5
 169 0194 DF81FEB5 		.ascii	"\337\201\376\265S\343G\010\265\240\377PM\3751\023\370"
 169      53E34708 
 169      B5A0FF50 
 169      4DFD3113 
 169      F8
 170 01a5 E755E4B9 		.ascii	"\347U\344\2714\376\345*\377r\305\277\002\375\037_N\036"
 170      34FEE52A 
 170      FF72C5BF 
 170      02FD1F5F 
 170      4E1E
 171 01b7 0CA0A904 		.ascii	"\014\240\251\004\011J\312N\034\322I\004\216\023j\202"
 171      094ACA4E 
 171      1CD24904 
 171      8E136A82 
 172 01c7 4A1541A5 		.ascii	"J\025A\245BP\205\004\275\015ii\001\364\250D\220\364"
 172      42508504 
 172      BD0D6969 
 172      01F4A844 
 172      90F4
 173 01d9 D3B93DFE 		.ascii	"\323\271=\376P\344`\036k\222\331\231\353\2448\364\260"
 173      50E4601E 
 173      6B92D999 
 173      EBA438F4 
 173      B0
 174 01ea BF752ED7 		.ascii	"\277u.\327\201g\224\360a\351\242\230,Ng\213\364U\216"
 174      816794F0 
 174      61E9A298 
 174      2C4E678B 
 174      F4558E
 175 01fd 848790E5 		.ascii	"\204\207\220\345!\0349K\302\000\206AH5\364\3414\364"
 175      211C394B 
 175      C2008641 
 175      4835F4E1 
 175      34F4
 176 020f A100AA3C 		.ascii	"\241\000\252<}1\365\374')\342jr\206\360\344\324l\032"
 176      7D31F5FC 
 176      2729E26A 
 176      7286F0E4 
 176      D46C1A
 177 0222 1841AE7C 		.ascii	"\030A\256|wi\307N\242n%\203z{Y\243\351\245\350:\270"
 177      7769C74E 
 177      A26E2583 
 177      7A7B59A3 
ARM GAS  C:\Users\Bruger\AppData\Local\Temp\ccKZ2EN2.s 			page 13


 177      E9A5E83A 
 178 0237 87A72D52 		.ascii	"\207\247-R\272{s\332\354\006Vpq\372Z\341\304\346\375"
 178      BA7B73DA 
 178      EC065670 
 178      71FA5AE1 
 178      C4E6FD
 179 024a 29590744 		.ascii	")Y\007D\267\307\263\024\235H\255Jt\255\"\272\016E\377"
 179      B7C7B314 
 179      9D48AD4A 
 179      74AD22BA 
 179      0E45FF
 180 025d F060AA3E 		.ascii	"\360`\252>\220f\3534\242\315\222\350\303\0233\325\001"
 180      9066EB34 
 180      A2CD92E8 
 180      C31333D5 
 180      01
 181 026e 38F47828 		.ascii	"8\364x(S\375\307\250\243\320@\302xI\316\011IN\003\344"
 181      53FDC7A8 
 181      A3D040C2 
 181      7849CE09 
 181      494E03E4 
 182 0282 78CE2BC7 		.ascii	"x\316+\307,\313\301\312\200\012\277\"\0237\253\201\234"
 182      2CCBC1CA 
 182      800ABF22 
 182      1337AB81 
 182      9C
 183 0293 87E298E5 		.ascii	"\207\342\230\345\342\324\303\344\3170\011\221v\355\313"
 183      E2D4C3E4 
 183      CF300991 
 183      76EDCB
 184 02a2 9EE1D5C2 		.ascii	"\236\341\325\302\0334\302\0335\302/\337\257\2356\320"
 184      1B34C21B 
 184      35C22FDF 
 184      AF9D36D0 
 185 02b2 1C7915DF 		.ascii	"\034y\025\337\313\355\321+\302\357}\244\022\016N\304"
 185      CBEDD12B 
 185      C2EF7DA4 
 185      120E4EC4 
 186 02c2 A912EE54 		.ascii	"\251\022\356T\2047\241\360\254Tg\226^\017'\007\026\031"
 186      8437A1F0 
 186      AC546796 
 186      5E0F2707 
 186      1619
 187 02d4 B861AEEB 		.ascii	"\270a\256\353\360\321\246 \237[\251\005\263h&r\032\247"
 187      F0D1A620 
 187      9F5BA905 
 187      B3682672 
 187      1AA7
 188 02e6 3A9E6412 		.ascii	":\236d\022zZJ\243\262i\362\271\037\246\341v\344\267"
 188      7A5A4AA3 
 188      B269F2B9 
 188      1FA6E176 
 188      E4B7
 189 02f8 19F3943D 		.ascii	"\031\363\224=\003>\344\202*\211\013J\022\255\230D}\301"
 189      033EE482 
 189      2A890B4A 
 189      12AD9844 
ARM GAS  C:\Users\Bruger\AppData\Local\Temp\ccKZ2EN2.s 			page 14


 189      7DC1
 190 030a F8541026 		.ascii	"\370T\020&\3210\233\304h\316\241v\223\317$\3321\211"
 190      D1309BC4 
 190      68CEA176 
 190      93CF24DA 
 190      3189
 191 031c 362589AB 		.ascii	"6%\211\253\373\232s\374i\277\224\204\263\276\264YZ\004"
 191      FB9A73FC 
 191      69BF9484 
 191      B3BEB459 
 191      5A04
 192 032e 7975F93B 		.ascii	"yu\371;\315\362\252\007\017\322\241J\241CI\341\"\246"
 192      CDF2AA07 
 192      0FD2A14A 
 192      A14349E1 
 192      22A6
 193 0340 905A5CFD 		.ascii	"\220Z\\\375-}*\367\277\260\241\203\227T\024\345\267"
 193      2D7D2AF7 
 193      BFB0A183 
 193      975414E5 
 193      B7
 194 0351 7A55B08D 		.ascii	"zU\260\215\323\251\242\350T(\272\220\242\357\354\201"
 194      D3A9A2E8 
 194      5428BA90 
 194      A2EFEC81 
 195 0361 BB01740F 		.ascii	"\273\001t\017E\216\261\201$\267I\342\270\323,4%\213"
 195      458EB181 
 195      24B749E2 
 195      B8D32C34 
 195      258B
 196 0373 7FB2C583 		.ascii	"\177\262\305\203\024\335*\212n\205\342\022R\334xz\243"
 196      14DD2A8A 
 196      6E85E212 
 196      52DC787A 
 196      A3
 197 0384 C91F8FB8 		.ascii	"\311\037\217\270\225\214$;\265\246\306\204G\234\201"
 197      958C243B 
 197      B5A6C684 
 197      479C81
 198 0393 0D1F1E17 		.ascii	"\015\037\036\027\233\203h\276\024`\344N\246\213\247"
 198      9B8368BE 
 198      1460E44E 
 198      A68BA7
 199 03a2 8DD220AB 		.ascii	"\215\322 \253\365a\232\201^\221\006)\005\003\177S:$"
 199      F5619A81 
 199      5E910629 
 199      05037F53 
 199      3A24
 200 03b4 0D6A1D8F 		.ascii	"\015j\035\217\272\203\220\321\014C\277g]\2715&\022\272"
 200      BA8390D1 
 200      0C43BF67 
 200      5DB93526 
 200      12BA
 201 03c6 3834342C 		.ascii	"844,\017V\246;c\2645H\264\257\304\346_\206\274\372\310"
 201      0F56A63B 
 201      63B43548 
 201      B4AFC4E6 
ARM GAS  C:\Users\Bruger\AppData\Local\Temp\ccKZ2EN2.s 			page 15


 201      5F86BCFA 
 202 03db 626503BF 		.ascii	"be\003\277\315\352\374\016\274\270\375\254\007Y\242"
 202      CDEAFC0E 
 202      BCB8FDAC 
 202      0759A2
 203 03ea B8DACA91 		.ascii	"\270\332\312\221_\240\005\277b\013\030\024d\220~X\313"
 203      5FA005BF 
 203      620B1814 
 203      64907E58 
 203      CB
 204 03fb BD2494B8 		.ascii	"\275$\224\270\300\256\221P\224\203\334\231\243m\263"
 204      C0AE9150 
 204      9483DC99 
 204      A36DB3
 205 040a DC3D0B70 		.ascii	"\334=\013p_e4\022twJ\032\034\260+\261\375Wd\350\354"
 205      5F653412 
 205      74774A1A 
 205      1CB02BB1 
 205      FD5764E8 
 206 041f 66417021 		.ascii	"fAp!\202\331\216s\247\347\033D\302 \234RF\345\344\320"
 206      82D98E73 
 206      A7E71B44 
 206      C2209C52 
 206      46E5E4D0 
 207 0433 B5961DDF 		.ascii	"\265\226\035\337\037H\302\026#.'\"\200\014\000\321o"
 207      1F48C216 
 207      232E2722 
 207      800C00D1 
 207      6F
 208 0444 DE5DC99C 		.ascii	"\336]\311\234\360YH\022\271\016J\376M\025\224s\352\351"
 208      F0594812 
 208      B90E4AFE 
 208      4D159473 
 208      EAE9
 209 0456 5F133C7D 		.ascii	"_\023<},\325v\257\253\241R\277\354\230(\346Mw\365W\353"
 209      2CD576AF 
 209      ABA152BF 
 209      EC9828E6 
 209      4D77F557 
 210 046b 92C4BC24 		.ascii	"\222\304\274$Qdk\015\303\016JaU\025\033\224\232M\206"
 210      51646B0D 
 210      C30E4A61 
 210      55151B94 
 210      9A4D86
 211 047e C832F0AE 		.ascii	"\3102\360\256\313n\267\033\260\271\270\336\323\006\273"
 211      CB6EB71B 
 211      B0B9B8DE 
 211      D306BB
 212 048d 73828C19 		.ascii	"s\202\214\031\354\270\310J\021\003\333M\270s\241F\344"
 212      ECB8C84A 
 212      1103DB4D 
 212      B873A146 
 212      E4
 213 049e 063ABB89 		.ascii	"\006:\273\211\021\235\341\227\335\205C;\012\365\032"
 213      119DE197 
 213      DD85433B 
 213      0AF51A
ARM GAS  C:\Users\Bruger\AppData\Local\Temp\ccKZ2EN2.s 			page 16


 214 04ad 340BE945 		.ascii	"4\013\351E\017\313\350aD\017\270\373zu\032t\215\206"
 214      0FCBE861 
 214      440FB8FB 
 214      7A751A74 
 214      8D86
 215 04bf 7B44468F 		.ascii	"{DF\217 \372\247\356\372zm&\355\032\364\250\214\036"
 215      20FAA7EE 
 215      FA7A6D26 
 215      ED1AF4A8 
 215      8C1E
 216 04d1 45F48EEF 		.ascii	"E\364\216\357\235\331\274\006\335\242A\217\311\3501"
 216      9DD9BC06 
 216      DDA2418F 
 216      C9E831
 217 04e0 86A6CE42 		.ascii	"\206\246\316Bg?OB\370\020;\\\2673K\311-\302\263#\022"
 217      673F4F42 
 217      F8103B5C 
 217      B7334BC9 
 217      2DC2B323 
 218 04f5 CED16491 		.ascii	"\316\321d\221\332M\312\355\301\341\037\034\371\035h"
 218      DA4DCAED 
 218      C1E11F1C 
 218      F91D68
 219 0504 6E028D1D 		.ascii	"n\002\215\035/g\217\347;\217\364\354\363G\000{\261+"
 219      2F678FE7 
 219      3B8FF4EC 
 219      F347007B 
 219      B12B
 220 0516 E0F0EE02 		.ascii	"\340\360\356\002\330xzl\312\351'\031\265/\360\351\354"
 220      D8787A6C 
 220      CAE92719 
 220      B52FF0E9 
 220      EC
 221 0527 D0F8EF0B 		.ascii	"\320\370\357\013\011\226L\317\245\214\336@\351\012\233"
 221      09964CCF 
 221      A58CDE40 
 221      E90A9B
 222 0536 EB31E1F3 		.ascii	"\3531\341\363\012\273\360\340\323\035p\346\217\303r"
 222      0ABBF0E0 
 222      D31D70E6 
 222      8FC372
 223 0545 BDED5D5D 		.ascii	"\275\355]]w\210\367\016\3335\222\333m\324\224\205\201"
 223      7788F70E 
 223      DB3592DB 
 223      6DD49485 
 223      81
 224 0556 BD659994 		.ascii	"\275e\231\224\3132\211E,-OM{Q\203.\326\024\361.1*A\340"
 224      CB328945 
 224      2C2D4F4D 
 224      7B51832E 
 224      D614F12E 
 225 056e 930BF938 		.ascii	"\223\013\37186>\316\026g\211\217\260$\306\333\004\353"
 225      363ECE16 
 225      67898FB0 
 225      24C6DB04 
 225      EB
 226 057f 86A8E86F 		.ascii	"\206\250\350o\204\010K\374\327q\261\2065\237\2573Gp"
ARM GAS  C:\Users\Bruger\AppData\Local\Temp\ccKZ2EN2.s 			page 17


 226      84084BFC 
 226      D771B186 
 226      359FAF33 
 226      4770
 227 0591 E16B8478 		.ascii	"\341k\204x\301\032m\0236m\210\262$Zc\204\365\221Q\226"
 227      C11A6D13 
 227      366D88B2 
 227      245A6384 
 227      F5915196 
 228 05a5 88F7D6CF 		.ascii	"\210\367\326\317u\214\374lE\014\367\306\334\331\265"
 228      758CFC6C 
 228      450CF7C6 
 228      DCD9B5
 229 05b4 C2369BC5 		.ascii	"\3026\233\305*3\2762/\330VAH\010\236;\373e\364\026!"
 229      2A33BE32 
 229      2FD85641 
 229      48089E3B 
 229      FB65F416 
 230 05c9 31C12F31 		.ascii	"1\301/1.\336\266\352M\037\321c\266\333\266'\010\333"
 230      2EDEB6EA 
 230      4D1FD163 
 230      B6DBB627 
 230      08DB
 231 05db 566CE696 		.ascii	"Vl\346\226\315\017\031\275\011\342\331\254\226\255k"
 231      CD0F19BD 
 231      09E2D9AC 
 231      96AD6B
 232 05ea 85D8B86D 		.ascii	"\205\330\270m0\267\374\377i\0006\003\213\372\356\373"
 232      30B7FCFF 
 232      69003603 
 232      8BFAEEFB 
 233 05fa AF2D4C8A 		.ascii	"\257-L\212\337o\315\313\327\032g\023\346D|\335\007\010"
 233      DF6FCDCB 
 233      D71A6713 
 233      E6447CDD 
 233      0708
 234 060c 072FCFAB 		.ascii	"\007/\317\253\203\3152\277\014\037\306Go\334*\314#\332"
 234      83CD32BF 
 234      0C1FC647 
 234      6FDC2ACC 
 234      23DA
 235 061e 181DB325 		.ascii	"\030\035\263%1!\312fM\214\261\275$OJ\320(\033(\344\345"
 235      3121CA66 
 235      4D8CB1BD 
 235      244F4AD0 
 235      281B28E4 
 236 0633 A9759B36 		.ascii	"\251u\2336\006\313\237sR\233\027Hb\324[\205\330U\377"
 236      06CB9F73 
 236      529B1748 
 236      62D45B85 
 236      D855FF
 237 0646 006BB6C6 		.ascii	"\000k\266\3060"
 237      30
 238              		.text
 239              		.section	.gnu.lto_.symtab.ebcf082d,"",%progbits
 240 0000 49676E69 		.ascii	"IgnitionCounter_SaveConfig\000\000\000\000\000\000\000"
 240      74696F6E 
ARM GAS  C:\Users\Bruger\AppData\Local\Temp\ccKZ2EN2.s 			page 18


 240      436F756E 
 240      7465725F 
 240      53617665 
 241 0021 00000000 		.ascii	"\000\000\000\000\000\254\000\000\000IgnitionCounter"
 241      00AC0000 
 241      0049676E 
 241      6974696F 
 241      6E436F75 
 242 0039 5F526573 		.ascii	"_RestoreConfig\000\000\000\000\000\000\000\000\000\000"
 242      746F7265 
 242      436F6E66 
 242      69670000 
 242      00000000 
 243 0051 0000AE00 		.ascii	"\000\000\256\000\000\000IgnitionCounter_Sleep\000\000"
 243      00004967 
 243      6E697469 
 243      6F6E436F 
 243      756E7465 
 244 006e 00000000 		.ascii	"\000\000\000\000\000\000\000\000\000\000\260\000\000"
 244      00000000 
 244      0000B000 
 244      00
 245 007b 0049676E 		.ascii	"\000IgnitionCounter_Wakeup\000\000\000\000\000\000\000"
 245      6974696F 
 245      6E436F75 
 245      6E746572 
 245      5F57616B 
 246 0099 00000000 		.ascii	"\000\000\000\000\000\262\000\000\000IgnitionCounter"
 246      00B20000 
 246      0049676E 
 246      6974696F 
 246      6E436F75 
 247 00b1 5F526561 		.ascii	"_ReadControlRegister\000\000\002\000\000\000\000\000"
 247      64436F6E 
 247      74726F6C 
 247      52656769 
 247      73746572 
 248 00cd 00000000 		.ascii	"\000\000\000\000\272\000\000\000IgnitionCounter_Rea"
 248      BA000000 
 248      49676E69 
 248      74696F6E 
 248      436F756E 
 249 00e8 64436F75 		.ascii	"dCounter\000\000\002\000\000\000\000\000\000\000\000"
 249      6E746572 
 249      00000200 
 249      00000000 
 249      000000
 250 00fb 00C20000 		.ascii	"\000\302\000\000\000IgnitionCounter_WriteControlReg"
 250      0049676E 
 250      6974696F 
 250      6E436F75 
 250      6E746572 
 251 011f 69737465 		.ascii	"ister\000\000\002\000\000\000\000\000\000\000\000\000"
 251      72000002 
 251      00000000 
 251      00000000 
 251      00
ARM GAS  C:\Users\Bruger\AppData\Local\Temp\ccKZ2EN2.s 			page 19


 252 0130 C6000000 		.ascii	"\306\000\000\000IgnitionCounter_WriteCounter\000\000"
 252      49676E69 
 252      74696F6E 
 252      436F756E 
 252      7465725F 
 253 0152 02000000 		.ascii	"\002\000\000\000\000\000\000\000\000\000\312\000\000"
 253      00000000 
 253      0000CA00 
 253      00
 254 015f 0049676E 		.ascii	"\000IgnitionCounter_Stop\000\000\002\000\000\000\000"
 254      6974696F 
 254      6E436F75 
 254      6E746572 
 254      5F53746F 
 255 017b 00000000 		.ascii	"\000\000\000\000\000\314\000\000\000IgnitionCounter"
 255      00CC0000 
 255      0049676E 
 255      6974696F 
 255      6E436F75 
 256 0193 5F456E61 		.ascii	"_Enable\000\000\002\000\000\000\000\000\000\000\000"
 256      626C6500 
 256      00020000 
 256      00000000 
 256      0000
 257 01a5 00CE0000 		.ascii	"\000\316\000\000\000"
 257      00
 258              		.text
 259              		.section	.gnu.lto_.opts,"",%progbits
 260 0000 272D666E 		.ascii	"'-fno-trapv' '-mcpu=cortex-m3' '-mthumb' '-g' '-Os'"
 260      6F2D7472 
 260      61707627 
 260      20272D6D 
 260      6370753D 
 261 0033 20272D66 		.ascii	" '-ffunction-sections' '-finline-functions' '-flto'"
 261      66756E63 
 261      74696F6E 
 261      2D736563 
 261      74696F6E 
 262 0066 20272D66 		.ascii	" '-ffat-lto-objects'\000"
 262      6661742D 
 262      6C746F2D 
 262      6F626A65 
 262      63747327 
 263              		.text
 264              		.cfi_sections	.debug_frame
 265              		.section	.text.IgnitionCounter_SaveConfig,"ax",%progbits
 266              		.align	1
 267              		.global	IgnitionCounter_SaveConfig
 268              		.thumb
 269              		.thumb_func
 270              		.type	IgnitionCounter_SaveConfig, %function
 271              	IgnitionCounter_SaveConfig:
 272              	.LFB0:
 273              		.file 1 "Generated_Source\\PSoC5\\IgnitionCounter_PM.c"
   1:Generated_Source\PSoC5/IgnitionCounter_PM.c **** /*******************************************************************************
   2:Generated_Source\PSoC5/IgnitionCounter_PM.c **** * File Name: IgnitionCounter_PM.c  
   3:Generated_Source\PSoC5/IgnitionCounter_PM.c **** * Version 3.0
ARM GAS  C:\Users\Bruger\AppData\Local\Temp\ccKZ2EN2.s 			page 20


   4:Generated_Source\PSoC5/IgnitionCounter_PM.c **** *
   5:Generated_Source\PSoC5/IgnitionCounter_PM.c **** *  Description:
   6:Generated_Source\PSoC5/IgnitionCounter_PM.c **** *    This file provides the power management source code to API for the
   7:Generated_Source\PSoC5/IgnitionCounter_PM.c **** *    Counter.  
   8:Generated_Source\PSoC5/IgnitionCounter_PM.c **** *
   9:Generated_Source\PSoC5/IgnitionCounter_PM.c **** *   Note:
  10:Generated_Source\PSoC5/IgnitionCounter_PM.c **** *     None
  11:Generated_Source\PSoC5/IgnitionCounter_PM.c **** *
  12:Generated_Source\PSoC5/IgnitionCounter_PM.c **** ********************************************************************************
  13:Generated_Source\PSoC5/IgnitionCounter_PM.c **** * Copyright 2008-2012, Cypress Semiconductor Corporation.  All rights reserved.
  14:Generated_Source\PSoC5/IgnitionCounter_PM.c **** * You may use this file only in accordance with the license, terms, conditions, 
  15:Generated_Source\PSoC5/IgnitionCounter_PM.c **** * disclaimers, and limitations in the end user license agreement accompanying 
  16:Generated_Source\PSoC5/IgnitionCounter_PM.c **** * the software package with which this file was provided.
  17:Generated_Source\PSoC5/IgnitionCounter_PM.c **** *******************************************************************************/
  18:Generated_Source\PSoC5/IgnitionCounter_PM.c **** 
  19:Generated_Source\PSoC5/IgnitionCounter_PM.c **** #include "IgnitionCounter.h"
  20:Generated_Source\PSoC5/IgnitionCounter_PM.c **** 
  21:Generated_Source\PSoC5/IgnitionCounter_PM.c **** static IgnitionCounter_backupStruct IgnitionCounter_backup;
  22:Generated_Source\PSoC5/IgnitionCounter_PM.c **** 
  23:Generated_Source\PSoC5/IgnitionCounter_PM.c **** 
  24:Generated_Source\PSoC5/IgnitionCounter_PM.c **** /*******************************************************************************
  25:Generated_Source\PSoC5/IgnitionCounter_PM.c **** * Function Name: IgnitionCounter_SaveConfig
  26:Generated_Source\PSoC5/IgnitionCounter_PM.c **** ********************************************************************************
  27:Generated_Source\PSoC5/IgnitionCounter_PM.c **** * Summary:
  28:Generated_Source\PSoC5/IgnitionCounter_PM.c **** *     Save the current user configuration
  29:Generated_Source\PSoC5/IgnitionCounter_PM.c **** *
  30:Generated_Source\PSoC5/IgnitionCounter_PM.c **** * Parameters:  
  31:Generated_Source\PSoC5/IgnitionCounter_PM.c **** *  void
  32:Generated_Source\PSoC5/IgnitionCounter_PM.c **** *
  33:Generated_Source\PSoC5/IgnitionCounter_PM.c **** * Return: 
  34:Generated_Source\PSoC5/IgnitionCounter_PM.c **** *  void
  35:Generated_Source\PSoC5/IgnitionCounter_PM.c **** *
  36:Generated_Source\PSoC5/IgnitionCounter_PM.c **** * Global variables:
  37:Generated_Source\PSoC5/IgnitionCounter_PM.c **** *  IgnitionCounter_backup:  Variables of this global structure are modified to 
  38:Generated_Source\PSoC5/IgnitionCounter_PM.c **** *  store the values of non retention configuration registers when Sleep() API is 
  39:Generated_Source\PSoC5/IgnitionCounter_PM.c **** *  called.
  40:Generated_Source\PSoC5/IgnitionCounter_PM.c **** *
  41:Generated_Source\PSoC5/IgnitionCounter_PM.c **** *******************************************************************************/
  42:Generated_Source\PSoC5/IgnitionCounter_PM.c **** void IgnitionCounter_SaveConfig(void) 
  43:Generated_Source\PSoC5/IgnitionCounter_PM.c **** {
 274              		.loc 1 43 0
 275              		.cfi_startproc
 276              		@ args = 0, pretend = 0, frame = 0
 277              		@ frame_needed = 0, uses_anonymous_args = 0
 278 0000 10B5     		push	{r4, lr}
 279              		.cfi_def_cfa_offset 8
 280              		.cfi_offset 4, -8
 281              		.cfi_offset 14, -4
  44:Generated_Source\PSoC5/IgnitionCounter_PM.c ****     #if (!IgnitionCounter_UsingFixedFunction)
  45:Generated_Source\PSoC5/IgnitionCounter_PM.c **** 
  46:Generated_Source\PSoC5/IgnitionCounter_PM.c ****         IgnitionCounter_backup.CounterUdb = IgnitionCounter_ReadCounter();
 282              		.loc 1 46 0
 283 0002 FFF7FEFF 		bl	IgnitionCounter_ReadCounter
 284              	.LVL0:
 285 0006 034C     		ldr	r4, .L2
 286 0008 6080     		strh	r0, [r4, #2]	@ movhi
  47:Generated_Source\PSoC5/IgnitionCounter_PM.c **** 
ARM GAS  C:\Users\Bruger\AppData\Local\Temp\ccKZ2EN2.s 			page 21


  48:Generated_Source\PSoC5/IgnitionCounter_PM.c ****         #if(!IgnitionCounter_ControlRegRemoved)
  49:Generated_Source\PSoC5/IgnitionCounter_PM.c ****             IgnitionCounter_backup.CounterControlRegister = IgnitionCounter_ReadControlRegister();
 287              		.loc 1 49 0
 288 000a FFF7FEFF 		bl	IgnitionCounter_ReadControlRegister
 289              	.LVL1:
 290 000e 2071     		strb	r0, [r4, #4]
 291 0010 10BD     		pop	{r4, pc}
 292              	.L3:
 293 0012 00BF     		.align	2
 294              	.L2:
 295 0014 00000000 		.word	.LANCHOR0
 296              		.cfi_endproc
 297              	.LFE0:
 298              		.size	IgnitionCounter_SaveConfig, .-IgnitionCounter_SaveConfig
 299              		.section	.text.IgnitionCounter_RestoreConfig,"ax",%progbits
 300              		.align	1
 301              		.global	IgnitionCounter_RestoreConfig
 302              		.thumb
 303              		.thumb_func
 304              		.type	IgnitionCounter_RestoreConfig, %function
 305              	IgnitionCounter_RestoreConfig:
 306              	.LFB1:
  50:Generated_Source\PSoC5/IgnitionCounter_PM.c ****         #endif /* (!IgnitionCounter_ControlRegRemoved) */
  51:Generated_Source\PSoC5/IgnitionCounter_PM.c **** 
  52:Generated_Source\PSoC5/IgnitionCounter_PM.c ****     #endif /* (!IgnitionCounter_UsingFixedFunction) */
  53:Generated_Source\PSoC5/IgnitionCounter_PM.c **** }
  54:Generated_Source\PSoC5/IgnitionCounter_PM.c **** 
  55:Generated_Source\PSoC5/IgnitionCounter_PM.c **** 
  56:Generated_Source\PSoC5/IgnitionCounter_PM.c **** /*******************************************************************************
  57:Generated_Source\PSoC5/IgnitionCounter_PM.c **** * Function Name: IgnitionCounter_RestoreConfig
  58:Generated_Source\PSoC5/IgnitionCounter_PM.c **** ********************************************************************************
  59:Generated_Source\PSoC5/IgnitionCounter_PM.c **** *
  60:Generated_Source\PSoC5/IgnitionCounter_PM.c **** * Summary:
  61:Generated_Source\PSoC5/IgnitionCounter_PM.c **** *  Restores the current user configuration.
  62:Generated_Source\PSoC5/IgnitionCounter_PM.c **** *
  63:Generated_Source\PSoC5/IgnitionCounter_PM.c **** * Parameters:  
  64:Generated_Source\PSoC5/IgnitionCounter_PM.c **** *  void
  65:Generated_Source\PSoC5/IgnitionCounter_PM.c **** *
  66:Generated_Source\PSoC5/IgnitionCounter_PM.c **** * Return: 
  67:Generated_Source\PSoC5/IgnitionCounter_PM.c **** *  void
  68:Generated_Source\PSoC5/IgnitionCounter_PM.c **** *
  69:Generated_Source\PSoC5/IgnitionCounter_PM.c **** * Global variables:
  70:Generated_Source\PSoC5/IgnitionCounter_PM.c **** *  IgnitionCounter_backup:  Variables of this global structure are used to 
  71:Generated_Source\PSoC5/IgnitionCounter_PM.c **** *  restore the values of non retention registers on wakeup from sleep mode.
  72:Generated_Source\PSoC5/IgnitionCounter_PM.c **** *
  73:Generated_Source\PSoC5/IgnitionCounter_PM.c **** *******************************************************************************/
  74:Generated_Source\PSoC5/IgnitionCounter_PM.c **** void IgnitionCounter_RestoreConfig(void) 
  75:Generated_Source\PSoC5/IgnitionCounter_PM.c **** {      
 307              		.loc 1 75 0
 308              		.cfi_startproc
 309              		@ args = 0, pretend = 0, frame = 0
 310              		@ frame_needed = 0, uses_anonymous_args = 0
 311 0000 10B5     		push	{r4, lr}
 312              		.cfi_def_cfa_offset 8
 313              		.cfi_offset 4, -8
 314              		.cfi_offset 14, -4
  76:Generated_Source\PSoC5/IgnitionCounter_PM.c ****     #if (!IgnitionCounter_UsingFixedFunction)
ARM GAS  C:\Users\Bruger\AppData\Local\Temp\ccKZ2EN2.s 			page 22


  77:Generated_Source\PSoC5/IgnitionCounter_PM.c **** 
  78:Generated_Source\PSoC5/IgnitionCounter_PM.c ****        IgnitionCounter_WriteCounter(IgnitionCounter_backup.CounterUdb);
 315              		.loc 1 78 0
 316 0002 044C     		ldr	r4, .L5
 317 0004 6088     		ldrh	r0, [r4, #2]
 318 0006 FFF7FEFF 		bl	IgnitionCounter_WriteCounter
 319              	.LVL2:
  79:Generated_Source\PSoC5/IgnitionCounter_PM.c **** 
  80:Generated_Source\PSoC5/IgnitionCounter_PM.c ****         #if(!IgnitionCounter_ControlRegRemoved)
  81:Generated_Source\PSoC5/IgnitionCounter_PM.c ****             IgnitionCounter_WriteControlRegister(IgnitionCounter_backup.CounterControlRegister);
 320              		.loc 1 81 0
 321 000a 2079     		ldrb	r0, [r4, #4]	@ zero_extendqisi2
  82:Generated_Source\PSoC5/IgnitionCounter_PM.c ****         #endif /* (!IgnitionCounter_ControlRegRemoved) */
  83:Generated_Source\PSoC5/IgnitionCounter_PM.c **** 
  84:Generated_Source\PSoC5/IgnitionCounter_PM.c ****     #endif /* (!IgnitionCounter_UsingFixedFunction) */
  85:Generated_Source\PSoC5/IgnitionCounter_PM.c **** }
 322              		.loc 1 85 0
 323 000c BDE81040 		pop	{r4, lr}
 324              		.cfi_restore 14
 325              		.cfi_restore 4
 326              		.cfi_def_cfa_offset 0
  81:Generated_Source\PSoC5/IgnitionCounter_PM.c ****         #endif /* (!IgnitionCounter_ControlRegRemoved) */
 327              		.loc 1 81 0
 328 0010 FFF7FEBF 		b	IgnitionCounter_WriteControlRegister
 329              	.LVL3:
 330              	.L6:
 331              		.align	2
 332              	.L5:
 333 0014 00000000 		.word	.LANCHOR0
 334              		.cfi_endproc
 335              	.LFE1:
 336              		.size	IgnitionCounter_RestoreConfig, .-IgnitionCounter_RestoreConfig
 337              		.section	.text.IgnitionCounter_Sleep,"ax",%progbits
 338              		.align	1
 339              		.global	IgnitionCounter_Sleep
 340              		.thumb
 341              		.thumb_func
 342              		.type	IgnitionCounter_Sleep, %function
 343              	IgnitionCounter_Sleep:
 344              	.LFB2:
  86:Generated_Source\PSoC5/IgnitionCounter_PM.c **** 
  87:Generated_Source\PSoC5/IgnitionCounter_PM.c **** 
  88:Generated_Source\PSoC5/IgnitionCounter_PM.c **** /*******************************************************************************
  89:Generated_Source\PSoC5/IgnitionCounter_PM.c **** * Function Name: IgnitionCounter_Sleep
  90:Generated_Source\PSoC5/IgnitionCounter_PM.c **** ********************************************************************************
  91:Generated_Source\PSoC5/IgnitionCounter_PM.c **** * Summary:
  92:Generated_Source\PSoC5/IgnitionCounter_PM.c **** *     Stop and Save the user configuration
  93:Generated_Source\PSoC5/IgnitionCounter_PM.c **** *
  94:Generated_Source\PSoC5/IgnitionCounter_PM.c **** * Parameters:  
  95:Generated_Source\PSoC5/IgnitionCounter_PM.c **** *  void
  96:Generated_Source\PSoC5/IgnitionCounter_PM.c **** *
  97:Generated_Source\PSoC5/IgnitionCounter_PM.c **** * Return: 
  98:Generated_Source\PSoC5/IgnitionCounter_PM.c **** *  void
  99:Generated_Source\PSoC5/IgnitionCounter_PM.c **** *
 100:Generated_Source\PSoC5/IgnitionCounter_PM.c **** * Global variables:
 101:Generated_Source\PSoC5/IgnitionCounter_PM.c **** *  IgnitionCounter_backup.enableState:  Is modified depending on the enable 
 102:Generated_Source\PSoC5/IgnitionCounter_PM.c **** *  state of the block before entering sleep mode.
ARM GAS  C:\Users\Bruger\AppData\Local\Temp\ccKZ2EN2.s 			page 23


 103:Generated_Source\PSoC5/IgnitionCounter_PM.c **** *
 104:Generated_Source\PSoC5/IgnitionCounter_PM.c **** *******************************************************************************/
 105:Generated_Source\PSoC5/IgnitionCounter_PM.c **** void IgnitionCounter_Sleep(void) 
 106:Generated_Source\PSoC5/IgnitionCounter_PM.c **** {
 345              		.loc 1 106 0
 346              		.cfi_startproc
 347              		@ args = 0, pretend = 0, frame = 0
 348              		@ frame_needed = 0, uses_anonymous_args = 0
 349 0000 08B5     		push	{r3, lr}
 350              		.cfi_def_cfa_offset 8
 351              		.cfi_offset 3, -8
 352              		.cfi_offset 14, -4
 107:Generated_Source\PSoC5/IgnitionCounter_PM.c ****     #if(!IgnitionCounter_ControlRegRemoved)
 108:Generated_Source\PSoC5/IgnitionCounter_PM.c ****         /* Save Counter's enable state */
 109:Generated_Source\PSoC5/IgnitionCounter_PM.c ****         if(IgnitionCounter_CTRL_ENABLE == (IgnitionCounter_CONTROL & IgnitionCounter_CTRL_ENABLE))
 353              		.loc 1 109 0
 354 0002 074B     		ldr	r3, .L11
 355 0004 1B78     		ldrb	r3, [r3]	@ zero_extendqisi2
 356 0006 13F0800F 		tst	r3, #128
 357 000a 064B     		ldr	r3, .L11+4
 110:Generated_Source\PSoC5/IgnitionCounter_PM.c ****         {
 111:Generated_Source\PSoC5/IgnitionCounter_PM.c ****             /* Counter is enabled */
 112:Generated_Source\PSoC5/IgnitionCounter_PM.c ****             IgnitionCounter_backup.CounterEnableState = 1u;
 358              		.loc 1 112 0
 359 000c 14BF     		ite	ne
 360 000e 0122     		movne	r2, #1
 113:Generated_Source\PSoC5/IgnitionCounter_PM.c ****         }
 114:Generated_Source\PSoC5/IgnitionCounter_PM.c ****         else
 115:Generated_Source\PSoC5/IgnitionCounter_PM.c ****         {
 116:Generated_Source\PSoC5/IgnitionCounter_PM.c ****             /* Counter is disabled */
 117:Generated_Source\PSoC5/IgnitionCounter_PM.c ****             IgnitionCounter_backup.CounterEnableState = 0u;
 361              		.loc 1 117 0
 362 0010 0022     		moveq	r2, #0
 363 0012 1A70     		strb	r2, [r3]
 118:Generated_Source\PSoC5/IgnitionCounter_PM.c ****         }
 119:Generated_Source\PSoC5/IgnitionCounter_PM.c ****     #else
 120:Generated_Source\PSoC5/IgnitionCounter_PM.c ****         IgnitionCounter_backup.CounterEnableState = 1u;
 121:Generated_Source\PSoC5/IgnitionCounter_PM.c ****         if(IgnitionCounter_backup.CounterEnableState != 0u)
 122:Generated_Source\PSoC5/IgnitionCounter_PM.c ****         {
 123:Generated_Source\PSoC5/IgnitionCounter_PM.c ****             IgnitionCounter_backup.CounterEnableState = 0u;
 124:Generated_Source\PSoC5/IgnitionCounter_PM.c ****         }
 125:Generated_Source\PSoC5/IgnitionCounter_PM.c ****     #endif /* (!IgnitionCounter_ControlRegRemoved) */
 126:Generated_Source\PSoC5/IgnitionCounter_PM.c ****     
 127:Generated_Source\PSoC5/IgnitionCounter_PM.c ****     IgnitionCounter_Stop();
 364              		.loc 1 127 0
 365 0014 FFF7FEFF 		bl	IgnitionCounter_Stop
 366              	.LVL4:
 128:Generated_Source\PSoC5/IgnitionCounter_PM.c ****     IgnitionCounter_SaveConfig();
 129:Generated_Source\PSoC5/IgnitionCounter_PM.c **** }
 367              		.loc 1 129 0
 368 0018 BDE80840 		pop	{r3, lr}
 369              		.cfi_restore 14
 370              		.cfi_restore 3
 371              		.cfi_def_cfa_offset 0
 128:Generated_Source\PSoC5/IgnitionCounter_PM.c ****     IgnitionCounter_SaveConfig();
 372              		.loc 1 128 0
 373 001c FFF7FEBF 		b	IgnitionCounter_SaveConfig
ARM GAS  C:\Users\Bruger\AppData\Local\Temp\ccKZ2EN2.s 			page 24


 374              	.LVL5:
 375              	.L12:
 376              		.align	2
 377              	.L11:
 378 0020 74640040 		.word	1073767540
 379 0024 00000000 		.word	.LANCHOR0
 380              		.cfi_endproc
 381              	.LFE2:
 382              		.size	IgnitionCounter_Sleep, .-IgnitionCounter_Sleep
 383              		.section	.text.IgnitionCounter_Wakeup,"ax",%progbits
 384              		.align	1
 385              		.global	IgnitionCounter_Wakeup
 386              		.thumb
 387              		.thumb_func
 388              		.type	IgnitionCounter_Wakeup, %function
 389              	IgnitionCounter_Wakeup:
 390              	.LFB3:
 130:Generated_Source\PSoC5/IgnitionCounter_PM.c **** 
 131:Generated_Source\PSoC5/IgnitionCounter_PM.c **** 
 132:Generated_Source\PSoC5/IgnitionCounter_PM.c **** /*******************************************************************************
 133:Generated_Source\PSoC5/IgnitionCounter_PM.c **** * Function Name: IgnitionCounter_Wakeup
 134:Generated_Source\PSoC5/IgnitionCounter_PM.c **** ********************************************************************************
 135:Generated_Source\PSoC5/IgnitionCounter_PM.c **** *
 136:Generated_Source\PSoC5/IgnitionCounter_PM.c **** * Summary:
 137:Generated_Source\PSoC5/IgnitionCounter_PM.c **** *  Restores and enables the user configuration
 138:Generated_Source\PSoC5/IgnitionCounter_PM.c **** *  
 139:Generated_Source\PSoC5/IgnitionCounter_PM.c **** * Parameters:  
 140:Generated_Source\PSoC5/IgnitionCounter_PM.c **** *  void
 141:Generated_Source\PSoC5/IgnitionCounter_PM.c **** *
 142:Generated_Source\PSoC5/IgnitionCounter_PM.c **** * Return: 
 143:Generated_Source\PSoC5/IgnitionCounter_PM.c **** *  void
 144:Generated_Source\PSoC5/IgnitionCounter_PM.c **** *
 145:Generated_Source\PSoC5/IgnitionCounter_PM.c **** * Global variables:
 146:Generated_Source\PSoC5/IgnitionCounter_PM.c **** *  IgnitionCounter_backup.enableState:  Is used to restore the enable state of 
 147:Generated_Source\PSoC5/IgnitionCounter_PM.c **** *  block on wakeup from sleep mode.
 148:Generated_Source\PSoC5/IgnitionCounter_PM.c **** *
 149:Generated_Source\PSoC5/IgnitionCounter_PM.c **** *******************************************************************************/
 150:Generated_Source\PSoC5/IgnitionCounter_PM.c **** void IgnitionCounter_Wakeup(void) 
 151:Generated_Source\PSoC5/IgnitionCounter_PM.c **** {
 391              		.loc 1 151 0
 392              		.cfi_startproc
 393              		@ args = 0, pretend = 0, frame = 0
 394              		@ frame_needed = 0, uses_anonymous_args = 0
 395 0000 08B5     		push	{r3, lr}
 396              		.cfi_def_cfa_offset 8
 397              		.cfi_offset 3, -8
 398              		.cfi_offset 14, -4
 152:Generated_Source\PSoC5/IgnitionCounter_PM.c ****     IgnitionCounter_RestoreConfig();
 399              		.loc 1 152 0
 400 0002 FFF7FEFF 		bl	IgnitionCounter_RestoreConfig
 401              	.LVL6:
 153:Generated_Source\PSoC5/IgnitionCounter_PM.c ****     #if(!IgnitionCounter_ControlRegRemoved)
 154:Generated_Source\PSoC5/IgnitionCounter_PM.c ****         if(IgnitionCounter_backup.CounterEnableState == 1u)
 402              		.loc 1 154 0
 403 0006 044B     		ldr	r3, .L16
 404 0008 1B78     		ldrb	r3, [r3]	@ zero_extendqisi2
 405 000a 012B     		cmp	r3, #1
ARM GAS  C:\Users\Bruger\AppData\Local\Temp\ccKZ2EN2.s 			page 25


 406 000c 03D1     		bne	.L13
 155:Generated_Source\PSoC5/IgnitionCounter_PM.c ****         {
 156:Generated_Source\PSoC5/IgnitionCounter_PM.c ****             /* Enable Counter's operation */
 157:Generated_Source\PSoC5/IgnitionCounter_PM.c ****             IgnitionCounter_Enable();
 158:Generated_Source\PSoC5/IgnitionCounter_PM.c ****         } /* Do nothing if Counter was disabled before */    
 159:Generated_Source\PSoC5/IgnitionCounter_PM.c ****     #endif /* (!IgnitionCounter_ControlRegRemoved) */
 160:Generated_Source\PSoC5/IgnitionCounter_PM.c ****     
 161:Generated_Source\PSoC5/IgnitionCounter_PM.c **** }
 407              		.loc 1 161 0
 408 000e BDE80840 		pop	{r3, lr}
 409              		.cfi_remember_state
 410              		.cfi_restore 14
 411              		.cfi_restore 3
 412              		.cfi_def_cfa_offset 0
 157:Generated_Source\PSoC5/IgnitionCounter_PM.c ****         } /* Do nothing if Counter was disabled before */    
 413              		.loc 1 157 0
 414 0012 FFF7FEBF 		b	IgnitionCounter_Enable
 415              	.LVL7:
 416              	.L13:
 417              		.cfi_restore_state
 418 0016 08BD     		pop	{r3, pc}
 419              	.L17:
 420              		.align	2
 421              	.L16:
 422 0018 00000000 		.word	.LANCHOR0
 423              		.cfi_endproc
 424              	.LFE3:
 425              		.size	IgnitionCounter_Wakeup, .-IgnitionCounter_Wakeup
 426              		.bss
 427              		.align	1
 428              		.set	.LANCHOR0,. + 0
 429              		.type	IgnitionCounter_backup, %object
 430              		.size	IgnitionCounter_backup, 6
 431              	IgnitionCounter_backup:
 432 0000 00000000 		.space	6
 432      0000
 433              		.text
 434              	.Letext0:
 435              		.file 2 "Generated_Source\\PSoC5\\cytypes.h"
 436              		.file 3 "Generated_Source\\PSoC5\\IgnitionCounter.h"