ARM GAS  C:\Users\Bruger\AppData\Local\Temp\cc3c8GDn.s 			page 1


   1              		.syntax unified
   2              		.cpu cortex-m3
   3              		.fpu softvfp
   4              		.eabi_attribute 20, 1
   5              		.eabi_attribute 21, 1
   6              		.eabi_attribute 23, 3
   7              		.eabi_attribute 24, 1
   8              		.eabi_attribute 25, 1
   9              		.eabi_attribute 26, 1
  10              		.eabi_attribute 30, 2
  11              		.eabi_attribute 34, 1
  12              		.eabi_attribute 18, 4
  13              		.thumb
  14              		.file	"IgnitionTimer_1.c"
  15              		.text
  16              	.Ltext0:
  17              		.section	.gnu.lto_.profile.24c1564d,"",%progbits
  18 0000 789C6366 		.ascii	"x\234cf```a\200\000F\206\022O\000\001\245\000\306"
  18      60606061 
  18      80004686 
  18      124F0001 
  18      A500C6
  19              		.text
  20              		.section	.gnu.lto_.jmpfuncs.24c1564d,"",%progbits
  21 0000 789C6D8B 		.ascii	"x\234m\213I\016\300 \014\003'b+\224\355K}\031_\207\250"
  21      490EC020 
  21      0C032762 
  21      2B94ED4B 
  21      7D195F87 
  22 0015 396269EC 		.ascii	"9bi\354\271\330q\317g;\017b8\360\020DdEH\360\250f\255"
  22      B9D871CF 
  22      673B0F62 
  22      38F01044 
  22      644548F0 
  23 002c A2F54285 		.ascii	"\242\365B\205\246\332a\374\347\015h\220\003f"
  23      A6DA61FC 
  23      E70D6890 
  23      0366
  24              		.text
  25              		.section	.gnu.lto_.inline.24c1564d,"",%progbits
  26 0000 789C6DCB 		.ascii	"x\234m\313\273\015\302@\020\004\320\271\337r\334\031"
  26      BB0DC240 
  26      1004D0B9 
  26      DF72DC19 
  27 0010 DB0D2037 		.ascii	"\333\015 7\200\310i\300\241\233\240\027bJp\025\324A"
  27      80C869C0 
  27      A19BA017 
  27      624A7015 
  27      D441
  28 0022 408C881D 		.ascii	"@\214\210\035\271\004\326B\332d\330`Fz\243\015\370\177"
  28      B904D642 
  28      DA64D860 
  28      467AA30D 
  28      F87F
  29 0034 A3FB750F 		.ascii	"\243\373u\017\034?p\360\247\333;C\346\301o\352+\340"
  29      1C3F70F0 
  29      A7DB3B43 
ARM GAS  C:\Users\Bruger\AppData\Local\Temp\cc3c8GDn.s 			page 2


  29      E6C16FEA 
  29      2BE0
  30 0046 EED356BA 		.ascii	"\356\323V\272\325F\367v\271\332\354\212F\200$uY\317"
  30      D546F776 
  30      B9DAEC8A 
  30      46802475 
  30      59CF
  31 0058 E6912921 		.ascii	"\346\221)!\006%\377\354\214\004)*\305y0\332!_\224\312"
  31      0625FFEC 
  31      8C04292A 
  31      C57930DA 
  31      215F94CA 
  32 006c E3256699 		.ascii	"\343%f\231?\367L\205\25125L\007\246\226\251c\352\231"
  32      3FF74C85 
  32      A932354C 
  32      07A696A9 
  32      63EA99
  33 007f F005135A 		.ascii	"\360\005\023Z \241"
  33      20A1
  34              		.text
  35              		.section	.gnu.lto_.pureconst.24c1564d,"",%progbits
  36 0000 789C25C1 		.ascii	"x\234%\3017\022\000 \014\004\261cL\216\256\267\343\377"
  36      37120020 
  36      0C04B163 
  36      4C8EAEB7 
  36      E3FF
  37 0012 9FA44032 		.ascii	"\237\244@2IW\237\213\200\021Id\012\225Fg0Yl\016\316"
  37      49579F8B 
  37      80114964 
  37      0A954667 
  37      30596C0E 
  38 0027 03282F02 		.ascii	"\003(/\002["
  38      5B
  39              		.text
  40              		.section	.gnu.lto_IgnitionTimer_1_Init.24c1564d,"",%progbits
  41 0000 789C8D96 		.ascii	"x\234\215\226[L[G\020\206w\366\034_0\330\346\322\207"
  41      5B4C5B47 
  41      108677F6 
  41      1C5F30D8 
  41      E6D287
  42 0013 04A9ED03 		.ascii	"\004\251\355\003\017i\244(R*\345%R\237\252\252\252\252"
  42      0F69A428 
  42      522AE525 
  42      529FAAAA 
  42      AAAA
  43 0025 4A48F4A1 		.ascii	"JH\364\241\017\251\020\002+Bj\000Y\3461\31216IKiB\021"
  43      0FA91002 
  43      2B426A00 
  43      59E631CA 
  43      3136494B 
  44 003c 100A85A4 		.ascii	"\020\012\205\244jH!\334J\200\204K\322\032hc\356\330"
  44      6A4821DC 
  44      4A80844B 
  44      D21A6863 
  44      EED8
  45 004e E11A205C 		.ascii	"\341\032 \\MC\323*\011\001\2258\\\334\331=\307\006\333"
  45      4D43D32A 
ARM GAS  C:\Users\Bruger\AppData\Local\Temp\cc3c8GDn.s 			page 3


  45      09019538 
  45      5CDCD93D 
  45      C706DB
  46 0061 A42A92D7 		.ascii	"\244*\222\327\347\254gf\377ovv\026\201\204\377}\200"
  46      E7AC6766 
  46      FF6F7676 
  46      168184FF 
  46      7D80
  47 0073 1F550421 		.ascii	"\037U\004!\026\374\0065\001Z0L\210UKA\224\037\004\371"
  47      16FC0635 
  47      015A304C 
  47      88554B41 
  47      941F04F9 
  48 0087 A14B2B52 		.ascii	"\241K+R!\337I\210\244S\3315D\212R\001\260y\002\344<"
  48      21DF4988 
  48      A453D935 
  48      448A5201 
  48      B07902E4 
  49 009c 1544159C 		.ascii	"\025D\025\234\247\242\034\360O\272F\241\300Q[\032y\244"
  49      A7A21CF0 
  49      4FBA46A1 
  49      C0515B1A 
  49      79A4
  50 00ae 4A92A4E7 		.ascii	"J\222\244\347\335\255\207r\017y)!\353T6\200\237\340"
  50      DDAD8772 
  50      0F792921 
  50      EB543680 
  50      9FE0
  51 00c0 08419B6D 		.ascii	"\010A\233m{\343\242Q8\006\354y\353z\236G\227\360\203"
  51      7BE3A251 
  51      3806EC79 
  51      EB7A9E47 
  51      97F083
  52 00d3 24E52C34 		.ascii	"$\345,4.;#\245R\311\276\340\363\275\355\245\000\325"
  52      2E3B23A5 
  52      52C9BEE0 
  52      F3BDEDA5 
  52      00D5
  53 00e5 20A0271C 		.ascii	" \240'\034\213\207\243\361\212ft\230Y\253\2325\012'"
  53      8B87A3F1 
  53      8A667498 
  53      59AB9A35 
  53      0A27
  54 00f7 B8B3F38E 		.ascii	"\270\263\363\216\267)Rv\276\267\334\037\344|\363@\347"
  54      B7295276 
  54      BEB7DC1F 
  54      E47CF340 
  54      E7
  55 0108 35FBCE64 		.ascii	"5\373\316d\244\332\216\352\242\241\006\022\240\026\022"
  55      A4DA8EEA 
  55      A2A10612 
  55      A01612
  56 0117 64755007 		.ascii	"duP\007j \204\372g\033c\035\222\317\267>\361\355\352"
  56      6A2084FA 
  56      671B631D 
  56      92CFB73E 
  56      F1EDEA
ARM GAS  C:\Users\Bruger\AppData\Local\Temp\cc3c8GDn.s 			page 4


  57 012a 297A9812 		.ascii	")z\230\022/\245\002a\277\211\354Q\315\006\015\033\""
  57      2FA50261 
  57      BF89EC51 
  57      CD060D1B 
  57      22
  58 013b D8A06383 		.ascii	"\330\240c\203\236\015\006\034\300\210\203\020CX\224"
  58      9E0D061C 
  58      C0888310 
  58      435894
  59 014a 583619C7 		.ascii	"X6\031\307\006B<\370\301\374\255\340\263]#LC\367?yO"
  59      06423CF8 
  59      C1FCADE0 
  59      B35D234C 
  59      43F73F79 
  60 015f 2B13D9BA 		.ascii	"+\023\331\272\233\224%n\241r\267X\263J\275T|\325k\225"
  60      9B94256E 
  60      A172B758 
  60      B34ABD54 
  60      7CD56B95 
  61 0173 44A676DE 		.ascii	"D\246v\3363\342\326\362).\276c\313y\321P\001\345V;x"
  61      33E2D6F2 
  61      292EBE63 
  61      CB79D150 
  61      01E5563B 
  62 0188 A90AEA21 		.ascii	"\251\012\352!\036\032\000\341\240\021*\200L\203\355"
  62      1E1A00E1 
  62      A0112A80 
  62      4C83ED
  63 0197 E5850D90 		.ascii	"\345\205\015\220\003\012r\314\372\346\316G\300\002\200"
  63      030A72CC 
  63      FAE6CE47 
  63      C00280
  64 01a6 0308FC8C 		.ascii	"\003\010\374\214\306\023@9*\242\240\025s\332\270\260"
  64      C6134039 
  64      2AA2A015 
  64      73DAB8B0 
  65 01b6 5B59A8B8 		.ascii	"[Y\250\270\2118\207nS\275WN2/\304\203&tB\261\262E\220"
  65      8938876E 
  65      53BD574E 
  65      322FC483 
  65      267442B1 
  66 01cd 08ABE370 		.ascii	"\010\253\343p\260\214[(\003c\020\3166\\\335\246\004"
  66      B08C5B28 
  66      036310CE 
  66      365CDDA6 
  66      04
  67 01de 655E2D5F 		.ascii	"e^-_-\316Dp\222\262>\005n\263\240\350\322>\232\346@"
  67      2DCE4470 
  67      92B23E05 
  67      6EB3A0E8 
  67      D23E9AE6 
  68 01f3 98168566 		.ascii	"\230\026\205fC-\373k\344\020\316\212\325[\"W\205(\255"
  68      432DFB6B 
  68      E410CE8A 
  68      D55B2257 
  68      8528AD
  69 0206 21AA5E1B 		.ascii	"!\252^\033\3546\327\244\2215=xG\216\030\201\036sK\337"
ARM GAS  C:\Users\Bruger\AppData\Local\Temp\cc3c8GDn.s 			page 5


  69      EC36D7A4 
  69      91353D78 
  69      478E1881 
  69      1E734BDF 
  70 021a 97A8B9A2 		.ascii	"\227\250\271\242r\277\242\277|\333\035\372\275 w\002"
  70      72BFA2BF 
  70      7CDB1DFA 
  70      BD207702 
  71 022a 41DA4214 		.ascii	"A\332B\024\3510D\230\204\327z\267s\011:\177\352\321"
  71      E9304498 
  71      84D77AB7 
  71      73093A7F 
  71      EAD1
  72 023c 74B8CF66 		.ascii	"t\270\317f\021\022y\005\017,\275\\\217b2\324\321\354"
  72      11127905 
  72      0F2CBD5C 
  72      8F6232D4 
  72      D1EC
  73 024e B56C7265 		.ascii	"\265lreC`\257\032\312^\253\362;\255z\271\276\353zR\034"
  73      4360AF1A 
  73      CA5EABF2 
  73      3BAD7AB9 
  73      BEEB7A52 
  74 0263 39D7A45D 		.ascii	"9\327\244]\237\017\303\013\320!\227w'\256r\027\374\005"
  74      9F0FC30B 
  74      D0219777 
  74      27AE7217 
  74      FC05
  75 0275 0EF72001 		.ascii	"\016\367 \001\275l\243\255>\036D\350\235G\233_d\241"
  75      BD6CA3AD 
  75      3E1E44E8 
  75      9D479B5F 
  75      64A1
  76 0287 254D9325 		.ascii	"%M\223%B\320\021p\224\351\230\007\257\375u\012!\347"
  76      42D01170 
  76      94E99807 
  76      AFFD750A 
  76      21E7
  77 0299 83C0AFD8 		.ascii	"\203\300\257\330\025\010V\016\223\274\342\262\026\363"
  77      1508560E 
  77      93BCE2B2 
  77      16F3
  78 02a7 74698B5C 		.ascii	"ti\213\\\241\325\251\345\325\371\342r\363\224\310\370"
  78      A1D5A9E5 
  78      D5F9E272 
  78      F394C8F8 
  79 02b7 8BAC5A2F 		.ascii	"\213\254Z/\346\247\013\245u\363\004\364`\002\270\212"
  79      E6A70BA5 
  79      75F304F4 
  79      6002B88A 
  80 02c7 09C8E194 		.ascii	"\011\310\341\224\276\3465\267F\370\214\257\230\353\031"
  80      BEE635B7 
  80      46F88CAF 
  80      98EB19
  81 02d6 AD511D88 		.ascii	"\255Q\035\210\370\333\201\210\277\343\371\364\023\255"
  81      F8DB8188 
  81      BFE3F9F4 
ARM GAS  C:\Users\Bruger\AppData\Local\Temp\cc3c8GDn.s 			page 6


  81      13AD
  82 02e4 3DBE1242 		.ascii	"=\276\022B\324\324O\231\205\202D\303\220\356s$'G\332"
  82      D4D44F99 
  82      858244C3 
  82      90EE7324 
  82      2747DA
  83 02f7 DE18F3A8 		.ascii	"\336\030\363\250d$\267\202\264\360\274\274Z\277\217"
  83      6424B782 
  83      B4F0BCBC 
  83      5ABF8F
  84 0306 A137C0D0 		.ascii	"\2417\300\320\027\312\340(\354s\351\205d\316\360\342"
  84      17CAE028 
  84      EC73E985 
  84      64CEF0E2 
  85 0316 FA93A7C6 		.ascii	"\372\223\247\306\003\031\372\017d\030\340\3334\342\262"
  85      0319FA0F 
  85      6418E0DB 
  85      34E2B2
  86 0325 35F0FC09 		.ascii	"5\360\374\011\322+,\351A\3776\015\225\236\012\206\272"
  86      D22B2CE9 
  86      41FF360D 
  86      959E0A86 
  86      BA
  87 0336 AD631E0A 		.ascii	"\255c\036\012\223\020\3064\304\231\2069S\311\262g\207"
  87      9310C634 
  87      C4998639 
  87      53C9B267 
  87      87
  88 0347 9F33ED98 		.ascii	"\2373\355\230\177\233\206\226\352\376\326\356c\032\011"
  88      7F9B8696 
  88      EAFED6EE 
  88      631A09
  89 0356 30B918D3 		.ascii	"0\271\030\323\340>\246\313\013;mj\341\014g\312\351\272"
  89      E03EA6CB 
  89      0B3B6D6A 
  89      E10C67CA 
  89      E9BA
  90 0368 561828BD 		.ascii	"V\030(\275\317\035V?\023\200;\274\263\302\003Nd\275"
  90      CF1D563F 
  90      13803BBC 
  90      B3C2034E 
  90      64BD
  91 037a D199CF5B 		.ascii	"\321\231\317[\030\266:\030\365\363<+{7\230gC\307\354"
  91      18B63A18 
  91      F5F33C2B 
  91      7B379867 
  91      43C7EC
  92 038d 151E318C 		.ascii	"\025\0361\214g\214\363\214s\236\246\334\241\367\370"
  92      678CF38C 
  92      739EA6DC 
  92      A1F7F8
  93 039c 21CDF31F 		.ascii	"!\315\363\037\322\274\212\357\236E\004pT0\0218g\223"
  93      D2BC8AEF 
  93      9E450470 
  93      54301138 
  93      6793
  94 03ae 0C87AD3A 		.ascii	"\014\207\255:\0136\307\325\257\217\313g5\006}*G/5\320"
ARM GAS  C:\Users\Bruger\AppData\Local\Temp\cc3c8GDn.s 			page 7


  94      0B36C7D5 
  94      AF8FCB67 
  94      35067D2A 
  94      472F35D0 
  95 03c2 735BD297 		.ascii	"s[\322\227\022\272\350\326\251\012\255\247\340\034\366"
  95      12BAE8D6 
  95      A90AADA7 
  95      E01CF6
  96 03d1 E5C84043 		.ascii	"\345\310@C\254e\0151F\351]\365\035J\357\212\375\257"
  96      AC650D31 
  96      46E95DF5 
  96      1D4AEF8A 
  96      FDAF
  97 03e3 DEF230A4 		.ascii	"\336\3620\244-\304\311\366\201#M\021f\372\3776\252\031"
  97      2DC4C9F6 
  97      81234D11 
  97      66FAFF36 
  97      AA19
  98 03f5 DE25E250 		.ascii	"\336%\342P\274\335\321>``\346$Tz\324:e\251\231E\351"
  98      BCDDD13E 
  98      6060E624 
  98      547AD43A 
  98      65A99945 
  99 040a A8D58B77 		.ascii	"\250\325\213w\016\301\373D x;\313\027\312\375\201\037"
  99      0EC1FB44 
  99      20783BCB 
  99      17CAFD81 
  99      1F
 100 041b D5C1B976 		.ascii	"\325\301\271v\017\030\224Dk\302\022\375\210%:\330\274"
 100      0F189444 
 100      6BC212FD 
 100      88253AD8 
 100      BC
 101 042c 79EE0D02 		.ascii	"y\356\015\002s\314\\\033f>\317\367e\201\221\032Y\277"
 101      73CC5C1B 
 101      663ECFF7 
 101      6581911A 
 101      59BF
 102 043e EBA9E195 		.ascii	"\353\251\341\225fhq\2076\004\003\017\353\252\376\346"
 102      66687187 
 102      3604030F 
 102      EBAAFEE6 
 103 044e EE5EE119 		.ascii	"\356^\341\031a\021Y\2278\3532K\034\223.\022\374OB\226"
 103      61115997 
 103      38EB324B 
 103      1C932E12 
 103      FC4F4296 
 104 0462 3EDC1E2A 		.ascii	">\334\036*\375j\345\233\212\226\2100-\036\256e\205i"
 104      FD6AE59B 
 104      8A968830 
 104      2D1EAE65 
 104      8569
 105 0474 31E06F83 		.ascii	"1\340o\203\027o\254R\266r\364\223\260\2733\232\213\031"
 105      176FAC52 
 105      B672F493 
 105      B0BB339A 
 105      8B19
ARM GAS  C:\Users\Bruger\AppData\Local\Temp\cc3c8GDn.s 			page 8


 106 0486 B71757AA 		.ascii	"\267\027W\252\002bb\340\017\024\363\230\213Y\335\273"
 106      026262E0 
 106      0F14F398 
 106      8B59DDBB 
 107 0496 3C295B6E 		.ascii	"<)[n\223\3521(\337\270q\260?\264\335\004e\226\327\026"
 107      93EA3128 
 107      DFB871B0 
 107      3FB4DD04 
 107      6596D716 
 108 04aa E1BA55EC 		.ascii	"\341\272U\354\012\237\003\253c\362c\276Q\204]\357\200"
 108      0A9F03AB 
 108      63F263BE 
 108      51845DEF 
 108      80
 109 04bb 9358F847 		.ascii	"\223X\370G?4e\230\314)\026SZrRf\2669\325t:1)\363\375"
 109      3F346598 
 109      CC291653 
 109      5A725266 
 109      B639D574 
 110 04d4 93A73F3A 		.ascii	"\223\247?:\223\221nI\317\314\3704\375\254\311\234|\342"
 110      93916E49 
 110      CFCCF834 
 110      FDACC99C 
 110      7CE2
 111 04e6 782A1153 		.ascii	"x*\021S-\346/\336\012\231ON\317\260\230\314\346\354"
 111      2DE62FDE 
 111      0A994F4E 
 111      CFB098CC 
 111      E6EC
 112 04f8 2C4B9205 		.ascii	",K\222\005\203hR3\263\331\204:\313dN\317L\303\327\263"
 112      83685233 
 112      B3D9843A 
 112      CB644ECF 
 112      4CC3D7B3 
 113 050c 59296693 		.ascii	"Y)f\223>`\365If\232\351_\017Z^\212"
 113      3E60F549 
 113      669AE95F 
 113      0F5A5E8A 
 114              		.text
 115              		.section	.gnu.lto_IgnitionTimer_1_Start.24c1564d,"",%progbits
 116 0000 789C7D91 		.ascii	"x\234}\221OHTQ\024\306\317w\357\363\3153\243Bh\343b"
 116      4F485451 
 116      14C6CF77 
 116      EFF3CD33 
 116      A34268E3 
 117 0015 B6224111 		.ascii	"\266\"A\021\321\246mP\271\023l)\210\330#g\341\014\014"
 117      D1A66D50 
 117      B9136C29 
 117      88D82367 
 117      E10C0C
 118 0028 B61CBCAF 		.ascii	"\266\034\274\257\031\"\"D\246\2040u\227Y\232\177+a2"
 118      19222244 
 118      A6843075 
 118      97599A7F 
 118      2B6132
 119 003b 79B58A20 		.ascii	"y\265\212 c\210\376 \321\037P\250M\214M\024S\330t\316"
 119      6388FE20 
ARM GAS  C:\Users\Bruger\AppData\Local\Temp\cc3c8GDn.s 			page 9


 119      D11F50A8 
 119      4D8C4D14 
 119      53D874CE 
 120 004f 7D513891 		.ascii	"}Q8\221\017\336\275\357\235\373\335\357\376\316w5\375"
 120      0FDEBDEF 
 120      9DFBDDEF 
 120      FECE7735 
 120      FD
 121 0060 FB1CE2B7 		.ascii	"\373\034\342\267G\021\355\343\031u\0045\270B\024xJ\351"
 121      4711EDE3 
 121      19750435 
 121      B8421478 
 121      4AE9
 122 0072 429CCC0E 		.ascii	"B\234\314\016\347\305\0012;5\234\250\354\000\362A\240"
 122      E7C50132 
 122      3B359CA8 
 122      EC00F241 
 122      A0
 123 0083 7EA51DF4 		.ascii	"~\245\035\364\343\243\332P\030\014'\25744_3\306\224"
 123      E3A3DA50 
 123      180C27AF 
 123      34345F33 
 123      C694
 124 0095 3E3F09DA 		.ascii	">?\011\332BT\330\260\254\242\003p\035\315\304\242\215"
 124      4254D8B0 
 124      ACA20370 
 124      1DCDC4A2 
 124      8D
 125 00a6 DCE6CB06 		.ascii	"\334\346\313\0067\307\242=\321\032&\340\202\347\231"
 125      37C7A23D 
 125      D11A26E0 
 125      82E799
 126 00b5 C6D054AB 		.ascii	"\306\320T\253\013K\017\362n\275\246\212BL\006O\006\242"
 126      0B4B0FF2 
 126      6EBDA68A 
 126      424C064F 
 126      06A2
 127 00c7 3556CA89 		.ascii	"5V\312\211\353J\311\254Wq6?w\377\204\354\375\2464\333"
 127      EB4AC9AC 
 127      5771363F 
 127      77FF84EC 
 127      FDA634DB 
 128 00db 8E3D1B98 		.ascii	"\216=\033\230V\231\037\346\274\361*Jm\2121W\337\256"
 128      56991FE6 
 128      BCF12A4A 
 128      6D8A3157 
 128      DFAE
 129 00ed 3D2D7A1F 		.ascii	"=-z\037\024W\354\357D\220\033\301(\256\006FT\0327\220"
 129      1457ECEF 
 129      44901BC1 
 129      28AE0646 
 129      541A3790 
 130 0101 C14D3431 		.ascii	"\301M41\303$\227\3519r\257\262\361\277\236\301\370\275"
 130      C32497E9 
 130      3972AFB2 
 130      F1BF9EC1 
 130      F8BD
ARM GAS  C:\Users\Bruger\AppData\Local\Temp\cc3c8GDn.s 			page 10


 131 0113 8B31D9CD 		.ascii	"\2131\331\315\000\230\022\035\011\201\246B\\\277F6\254"
 131      0098121D 
 131      0981A642 
 131      5CBF4636 
 131      AC
 132 0124 F8A2A5DA 		.ascii	"\370\242\245\332\323\235\262\335p\013\031f\257#F-\225"
 132      D39DB2DD 
 132      700B1966 
 132      AF23462D 
 132      95
 133 0135 965B45FA 		.ascii	"\226[E\372_\316Z\260\351?`3\\fAqx<\273[P4\010\263\026"
 133      5FCE5AB0 
 133      E93F6033 
 133      5C664171 
 133      783CBB5B 
 134 014e 655D39BF 		.ascii	"e]9\277\243x\370\365\302\343#[\242\015\253{m\256en\274"
 134      A378F8F5 
 134      C2E3235B 
 134      A20DAB7B 
 134      6DAE656E 
 135 0163 2673CC31 		.ascii	"&s\31412a^\232\214\361\332\273\261\237C\266I\367\373"
 135      32615E9A 
 135      8CF1DABB 
 135      B19F43B6 
 135      49F7FB
 136 0176 A3C0385B 		.ascii	"\243\3008[Rs-\334\247\345\367\305]\002w9`\270\030\026"
 136      52732DDC 
 136      A7E5F7C5 
 136      5D027739 
 136      60B81816 
 137 018a D084DB16 		.ascii	"\320\204\333\026\356\216\244\266\212\354\227s+\205<"
 137      EE8EA4B6 
 137      8AEC9773 
 137      2B853C
 138 0199 224F2FB2 		.ascii	"\"O/\262\035Z\032\311\327\333\354\014\023\337e9sF\232"
 138      1D5A1AC9 
 138      D7DBEC0C 
 138      13DF6539 
 138      73469A
 139 01ac 6D2D17D9 		.ascii	"m-\027\331\222M\350\015\202\360\3221\233/\311\365Cz"
 139      924DE80D 
 139      82F0D231 
 139      9B2FC9F5 
 139      437A
 140 01be E5B45A8E 		.ascii	"\345\264Z\216\373I?\335\325\347\237\352lO\235Iw\373"
 140      FB493FDD 
 140      D5E79FEA 
 140      6C4F9D49 
 140      77FB
 141 01d0 1D6DEDA9 		.ascii	"\035m\355\251\243\207;ZO'\023}\211T\362d\242\327Ow\036"
 141      A3873B5A 
 141      4F27137D 
 141      8954F264 
 141      A2D74F77 
 142 01e5 DCDF4DBF 		.ascii	"\334\337M\277\000\237\274\354\034"
 142      009FBCEC 
 142      1C
ARM GAS  C:\Users\Bruger\AppData\Local\Temp\cc3c8GDn.s 			page 11


 143              		.text
 144              		.section	.gnu.lto_IgnitionTimer_1_Enable.24c1564d,"",%progbits
 145 0000 789C6366 		.ascii	"x\234cf\300\004R@\254\306\310\300\240\015\244\031\231"
 145      C0045240 
 145      ACC6C8C0 
 145      A00DA419 
 145      99
 146 0011 19189926 		.ascii	"\031\030\231&\234c`h\344`bd\0041\030\030\031\352\231"
 146      9C636068 
 146      E4606264 
 146      04311818 
 146      19EA99
 147 0024 18EB195F 		.ascii	"\030\353\031_2}db\234p`\365\014n\365\245\015\015\015"
 147      327D6462 
 147      9C7060F5 
 147      0C6EF5A5 
 147      0D0D0D
 148 0037 1F3E7D94 		.ascii	"\037>}\224h\225\370\311\304\300\360\231\011b\014\343"
 148      6895F8C9 
 148      C4C0F099 
 148      09620CE3 
 149 0047 72467506 		.ascii	"rFu\006\240\232\217-\177\257s\263\265\000\325\010@\344"
 149      A09A8F2D 
 149      7FAF73B3 
 149      B500D508 
 149      40E4
 150 0059 185730B2 		.ascii	"\030W0\262\001\215gX/t\240\341\377\377\315g&\277\320"
 150      018D6758 
 150      2F74A0E1 
 150      FFFFCD67 
 150      26BFD0
 151 006c 62666562 		.ascii	"bfeb\370\311\004\264\014H00<\001\252\002Y\365\224\211"
 151      F8C904B4 
 151      0C483030 
 151      3C01AA02 
 151      59F59489 
 152 0080 094433DF 		.ascii	"\011D3\337b<\364\255\353\334\256I\214 \235\337\231@"
 152      623CF4AD 
 152      EBDCAE49 
 152      8C209DDF 
 152      9940
 153 0092 163F98F7 		.ascii	"\026?\230\367o*\373\013\246\237LL\277N46\260\200\354"
 153      6F2AFB0B 
 153      A69F4C4C 
 153      BF4E3436 
 153      B080EC
 154 00a5 B9FFE4FC 		.ascii	"\271\377\344\374E\016\260\020\003\210\273\353\367\361"
 154      450EB010 
 154      0388BBEB 
 154      F7F1
 155 00b3 76BEB98C 		.ascii	"v\276\271\214\263\033[\030\177213\256d\224b\\\305\010"
 155      B31B5B18 
 155      7F323133 
 155      AE649462 
 155      5CC508
 156 00c6 F41AE36A 		.ascii	"\364\032\343j\306\271\214\014\267\030\233\277\260A\214"
 156      C6B98C0C 
ARM GAS  C:\Users\Bruger\AppData\Local\Temp\cc3c8GDn.s 			page 12


 156      B7189BBF 
 156      B0418C
 157 00d5 63869838 		.ascii	"c\206\2308u\317\234I\234 \355\214\015\214\014\214k\200"
 157      75CF9C49 
 157      9C20ED8C 
 157      0D8C0C8C 
 157      6B80
 158 00e7 4A81D642 		.ascii	"J\201\326B\254\304g\332Z\240i@3\030\35616\036\270\356"
 158      ACC467DA 
 158      5AA06940 
 158      3318EE31 
 158      361EB8EE 
 159 00fb 07520DF2 		.ascii	"\007R\015\362\373\023\2407\200.\007\272D\323=5/\265"
 159      FB13A037 
 159      802E07BA 
 159      44D33D35 
 159      2FB5
 160 010d 28B12435 		.ascii	"(\261$5%>8\277\264(95& 8\337\3314\3063=/\263$3?/$37"
 160      253E38BF 
 160      B4283935 
 160      262038DF 
 160      D934C633 
 161 012b B528DE50 		.ascii	"\265(\336P/\231\001\000\370\344v\226"
 161      2F990100 
 161      F8E47696 
 162              		.text
 163              		.section	.gnu.lto_IgnitionTimer_1_Stop.24c1564d,"",%progbits
 164 0000 789C6366 		.ascii	"x\234cf\300\004R@\254\312\310\300\240\015\244\031\231"
 164      C0045240 
 164      ACCAC8C0 
 164      A00DA419 
 164      99
 165 0011 19189926 		.ascii	"\031\030\231&\234c`h\344`bd\0041\030\030\031\352\231"
 165      9C636068 
 165      E4606264 
 165      04311818 
 165      19EA99
 166 0024 18EB195F 		.ascii	"\030\353\031_2}db\234p`\365\014n\365\245\015\015\015"
 166      327D6462 
 166      9C7060F5 
 166      0C6EF5A5 
 166      0D0D0D
 167 0037 1F26FD96 		.ascii	"\037&\375\226h\225\370\311\304\300\360\231\011b\014"
 167      6895F8C9 
 167      C4C0F099 
 167      09620C
 168 0046 E3724675 		.ascii	"\343rFu\006\240\232\217-\177\257s\263\265\000\325\010"
 168      06A09A8F 
 168      2D7FAF73 
 168      B3B500D5 
 168      08
 169 0057 40E41857 		.ascii	"@\344\030W0\262\001\215gX/t\240\341\377\377\315o'wX"
 169      30B2018D 
 169      67582F74 
 169      A0E1FFFF 
 169      CD6F2777 
 170 006c 33B33231 		.ascii	"3\26321\374d\002Z\006$\030\030\236\000U\201\254z\312"
ARM GAS  C:\Users\Bruger\AppData\Local\Temp\cc3c8GDn.s 			page 13


 170      FC64025A 
 170      06241818 
 170      9E005581 
 170      AC7ACA
 171 007f C404A299 		.ascii	"\304\004\242\231o1\036\372\326\365l\357$F\220\316\357"
 171      6F311EFA 
 171      D6F56CEF 
 171      244690CE 
 171      EF
 172 0090 4C208B1F 		.ascii	"L \213\037\314\3737\225\375\005\323O&\246_'\032\033"
 172      CCFB3795 
 172      FD05D34F 
 172      26A65F27 
 172      1A1B
 173 00a2 5840F6DC 		.ascii	"X@\366\334\177r\376\"\007X\210\001\304\335\365\373x"
 173      7F72FE22 
 173      07588801 
 173      C4DDF5FB 
 173      78
 174 00b3 3BDF5CC6 		.ascii	";\337\\\306\331\215-\214?\231\230\031W2J1\256b\004z"
 174      D98D2D8C 
 174      3F999819 
 174      57324A31 
 174      AE62047A 
 175 00c7 8D7135E3 		.ascii	"\215q5\343\\F\206[\214\315?\330 \3061CL\234\377\362"
 175      5C46865B 
 175      8CCD3FD8 
 175      20C63143 
 175      4C9CFFF2 
 176 00db DF0B1690 		.ascii	"\337\013\026\220v\346z\006\3065@\225@[!6\3423l-\320"
 176      76E67A06 
 176      C6354095 
 176      405B2136 
 176      E2336C2D 
 177 00f0 30A0110C 		.ascii	"0\240\021\014\367\030\033\017\334\364\007\251\006y\375"
 177      F7181B0F 
 177      DCF407A9 
 177      0679FD
 178 00ff 09D01740 		.ascii	"\011\320\027@\207\003\035\242\351\236\232\227Z\224X"
 178      87031DA2 
 178      E99E9A97 
 178      5A9458
 179 010e 929A121F 		.ascii	"\222\232\022\037\234_Z\224\234\032\023\020\234\357l"
 179      9C5F5A94 
 179      9C1A1310 
 179      9CEF6C
 180 011d 1AE3999E 		.ascii	"\032\343\231\236\227Y\222\231\237\027\222\231\233Z\024"
 180      97599299 
 180      9F179299 
 180      9B5A14
 181 012c 6FA897CC 		.ascii	"o\250\227\314\000\000\230zw\035"
 181      0000987A 
 181      771D
 182              		.text
 183              		.section	.gnu.lto_IgnitionTimer_1_WriteCounter.24c1564d,"",%progbits
 184 0000 789C654F 		.ascii	"x\234eO\277KBQ\030\375\316}f\202A\322\350.\"E\020\321"
 184      BF4B4251 
ARM GAS  C:\Users\Bruger\AppData\Local\Temp\cc3c8GDn.s 			page 14


 184      18FDCE7D 
 184      668241D2 
 184      E82E2245 
 185 0016 1E34445B 		.ascii	"\0364D[`\243`a\217p\350=x\350\354}\345\037\340`\322"
 185      60A36061 
 185      8F70E83D 
 185      78E8EC7D 
 185      E51FE060 
 186 002b 0F6A89E8 		.ascii	"\017j\211\350\207\225\325\326R\257\266\210\314\206\024"
 186      8795D5D6 
 186      52AFB688 
 186      CC8614
 187 003a 1C1442C1 		.ascii	"\034\024B\301\266\304\240\034\302\276\233c\027.\337"
 187      B6C4A01C 
 187      C2BE9B63 
 187      172EDF
 188 0049 770EE79E 		.ascii	"w\016\347\236s\256F\377\217\237o\010D\223<\241\021D"
 188      73AE46FF 
 188      8F9F6F08 
 188      44933CA1 
 188      1144
 189 005b A648647B 		.ascii	"\246Hd{\004\240\026\002\245\004Rx\027m\201\214\223\337"
 189      04A01602 
 189      A5045278 
 189      176D818C 
 189      93DF
 190 006d F4060FA4 		.ascii	"\364\006\017\244\224\037W\257q\231]\354\012\242\216"
 190      941F57AF 
 190      71995DEC 
 190      0AA28E
 191 007c E8FBE010 		.ascii	"\350\373\340\020A\326\024\037\326\023\332\030\210\327"
 191      41D6141F 
 191      D613DA18 
 191      88D7
 192 008a C7B7EFCE 		.ascii	"\307\267\357\316PKt\005|\012nW\232\237\232\202B(x]\271"
 192      504B7405 
 192      7C0A6E57 
 192      9A9F9A82 
 192      4228785D 
 193 009f D91B0EEC 		.ascii	"\331\033\016\354K\271\346\324.\3444\363\032\216\240"
 193      4BB9E6D4 
 193      2EE434F3 
 193      1A8EA0
 194 00ae B11D8EE1 		.ascii	"\261\035\216\341\307\011\374\304\024!\217\200\222\267"
 194      C709FCC4 
 194      14218F80 
 194      92B7
 195 00bc D33F15AF 		.ascii	"\323?\025\257;\315\331\276~$N\341\346\332T\030qd\257"
 195      3BCDD9BE 
 195      7E244EE1 
 195      E6DA5418 
 195      7164AF
 196 00cf D729975B 		.ascii	"\327)\227[\243n\027\267Vzj\260B\325or\026O\255\212\373"
 196      A36E17B7 
 196      567A6AB0 
 196      42D56F72 
 196      164FAD8A 
ARM GAS  C:\Users\Bruger\AppData\Local\Temp\cc3c8GDn.s 			page 15


 197 00e4 DC6525A7 		.ascii	"\334e%\247\251Gl\326,\331\033nU\305\225-\331\322\245"
 197      A9476CD6 
 197      2CD91B6E 
 197      55C5952D 
 197      D9D2A5
 198 00f7 FCEB8DE7 		.ascii	"\374\353\215\347\027\317\037E\012\336n=\335a\027;v\032"
 198      17CF1F45 
 198      0ADE6E3D 
 198      DD61173B 
 198      761A
 199 0109 5D318033 		.ascii	"]1\2003nt\316\215\010\005f\277\330\265\006\333\251W"
 199      6E74CE8D 
 199      080566BF 
 199      D8B506DB 
 199      A957
 200 011b 853254BF 		.ascii	"\2052T\277o\010\250 \216\015\315\352\206n-%\364\345"
 200      6F08A820 
 200      8E0DCDEA 
 200      866E2D25 
 200      F4E5
 201 012d 68D84C5A 		.ascii	"h\330LZ1=2\0376g\246\"s+F<\0217\215\205\370\252nE'\306"
 201      313D321F 
 201      3667A622 
 201      732B463C 
 201      11378D85 
 202 0147 63341833 		.ascii	"c4\0303\223FB\267~\001\233d~\353"
 202      934642B7 
 202      7E019B64 
 202      7EEB
 203              		.text
 204              		.section	.gnu.lto_IgnitionTimer_1_ReadCounter.24c1564d,"",%progbits
 205 0000 789C658F 		.ascii	"x\234e\217\317K\002Q\020\307gfm\323\352 \035\375\007"
 205      CF4B0251 
 205      10C76766 
 205      6DD3EA20 
 205      1DFD07
 206 0013 4482A0A2 		.ascii	"D\202\240\242\016];D\207 \260\243`aKx\310%\261\263o"
 206      0E5D3B44 
 206      8720B0A3 
 206      60614B78 
 206      C825B1B3 
 207 0028 634F7589 		.ascii	"cOu\211\350\020\206\020D\230\3752\250[\027\251\213\020"
 207      E8108610 
 207      4498FD32 
 207      A85B17A9 
 207      8B10
 208 003a 585E120A 		.ascii	"X^\022\012\014DA\011+1\254=\204\275\331:\325\203a\336"
 208      0C444109 
 208      2B31AC3D 
 208      84BDD93A 
 208      D58361DE 
 209 004e F7BD99CF 		.ascii	"\367\275\231\317|G\201\377\307#c\032\001\006dF\005\220"
 209      7C4781FF 
 209      C723631A 
 209      01066446 
 209      0590
 210 0060 36F20086 		.ascii	"6\362\000\206\223\020\371\002\010q\3028\326\251IxS\376"
ARM GAS  C:\Users\Bruger\AppData\Local\Temp\cc3c8GDn.s 			page 16


 210      9310F902 
 210      0871C238 
 210      D6A94978 
 210      53FE
 211 0072 6CF5D5C8 		.ascii	"l\365\325\310\"p\203\224\211b\365]a\211\304\362\262"
 211      22708394 
 211      8962F55D 
 211      6189C4F2 
 211      B2
 212 0083 952FABDE 		.ascii	"\225/\253\336}!V\3376\037\227\267\267v\321\"\202\026"
 212      7D2156DF 
 212      361F97B7 
 212      B776D122 
 212      8216
 213 0095 01A6D083 		.ascii	"\001\246\320\203\007\310\2030\215^\256m\232_\305^\325"
 213      07C88330 
 213      8D5EAE6D 
 213      9A5FC55E 
 213      D5
 214 00a6 1442B8B9 		.ascii	"\024B\270\271B~\034\242*M@\246?+:\235\363\306}n\\u\020"
 214      427E1CA2 
 214      2A4D40A6 
 214      3F2B3A9D 
 214      F3C67D6E 
 215 00bd 58A428C0 		.ascii	"X\244(\300\030\250\310`CU)dV\036\360\252\275\326n\214"
 215      18A8C860 
 215      43552964 
 215      561EF0AA 
 215      BDD66E8C 
 216 00d1 71E307B1 		.ascii	"q\343\007\261\273\275Rj\216\3358\0229C8x\312S\345\266"
 216      BBBD526A 
 216      8EDD3812 
 216      39433878 
 216      CA53E5B6 
 217 00e5 E0B49F80 		.ascii	"\340\264\237\200\345z\315zu%q\3070\245\263.<\222\256"
 217      E57ACD7A 
 217      752571C7 
 217      30A5B32E 
 217      3C92AE
 218 00f8 8ED9159E 		.ascii	"\216\331\025\236`\022\301\006\346_\206\177\200\212\254"
 218      6012C106 
 218      E65F867F 
 218      808AAC
 219 0107 7FBE4EBB 		.ascii	"\177\276N\273\270[\275(\374\005\2526\260~g\266{l\240"
 219      B85BBD28 
 219      FC05AA36 
 219      B07E67B6 
 219      7B6CA0
 220 011a 91F559D4 		.ascii	"\221\365Y\324\215\247\022\231\261\221g\214,\241!F~y"
 220      8DA71299 
 220      B191678C 
 220      2CA12146 
 220      7E79
 221 012c C02B205B 		.ascii	"\300+ [\227\213\370&\265\210\026\235\217i\013A\277\276"
 221      978BF826 
 221      B588169D 
 221      8F690B41 
ARM GAS  C:\Users\Bruger\AppData\Local\Temp\cc3c8GDn.s 			page 17


 221      BFBE
 222 013e 120D6981 		.ascii	"\022\015i\201\031\277>1\032\230Z\214\204ca=2\033^\322"
 222      19BF3E31 
 222      1A985A8C 
 222      8463613D 
 222      321B5ED2 
 223 0152 A2C1A1C1 		.ascii	"\242\301\241\301\020|\003aR\215["
 223      107C0361 
 223      528D5B
 224              		.text
 225              		.section	.gnu.lto_IgnitionTimer_1_ClearFIFO.24c1564d,"",%progbits
 226 0000 789C6591 		.ascii	"x\234e\221\317+\004a\030\307\237\347ygf\007{\220\234"
 226      CF2B0461 
 226      18C79FE7 
 226      79676607 
 226      7B909C
 227 0013 94B324CA 		.ascii	"\224\263$\312\301_ \311MqT\210I{\260[\033\007'3\355"
 227      C15F20C9 
 227      4D715488 
 227      497BB05B 
 227      1B072733 
 228 0028 44897220 		.ascii	"D\211r J\313A\330\365\233U\022\207\305\201\"\277J\342"
 228      4ACB41D8 
 228      F59B5512 
 228      87C58122 
 228      BF4AE2
 229 003b B04AABFC 		.ascii	"\260J\253\374(\331V\330\203x\336\031)L\315\373\276\363"
 229      28D956D8 
 229      8378DE19 
 229      294CCDFB 
 229      BEF3
 230 004d BC9FBECF 		.ascii	"\274\237\276\317\347}G\300\377\247\212\337'\004(\341"
 230      E77D47C0 
 230      FFA78ADF 
 230      270428E1 
 231 005d 1935401A 		.ascii	"\0315@\032<\002\260tB\305]\010w\261\255+$\372\367\000"
 231      3C02B074 
 231      42C55D08 
 231      77B1AD2B 
 231      24FAF700 
 232 0071 CC6CD5F6 		.ascii	"\314l\325\366\200\351U\021e\035\020\272I(*v\223\342"
 232      80E95511 
 232      651D10BA 
 232      49282A76 
 232      93E2
 233 0083 06DE538A 		.ascii	"\006\336S\212p0>7\232S4e\232\346\363Y\252\313\034j\312"
 233      70303E37 
 233      9A533465 
 233      9AE6F359 
 233      AACB1C6A 
 234 0098 10409A5C 		.ascii	"\020@\232\\\002g\260\010\030J\331\037\0279\232\315P"
 234      0267B008 
 234      184AD91F 
 234      17399ACD 
 234      50
 235 00a9 AEBB8711 		.ascii	"\256\273\207\021\324X\005\226\362\342\346\347glo$T\332"
 235      D4580596 
ARM GAS  C:\Users\Bruger\AppData\Local\Temp\cc3c8GDn.s 			page 18


 235      F2E2E6E7 
 235      676C6F24 
 235      54DA
 236 00bb A509C8B0 		.ascii	"\245\011\310\260\014\017\244\362 \000\222\214\262B\222"
 236      0C0FA4F2 
 236      2000928C 
 236      B24292
 237 00ca 882771CB 		.ascii	"\210'q\313%\366\022W\270\363\332\267s ~\345\306c\211"
 237      25F61257 
 237      B8F3DAB7 
 237      73207EE5 
 237      C66389
 238 00dd 7C27354D 		.ascii	"|'5M\370\267#F\371\270\200\263\250\275\221\302{\217"
 238      F8B72346 
 238      F9B880B3 
 238      A8BD91C2 
 238      7B8F
 239 00ef BBD1AC3B 		.ascii	"\273\321\254;\312\220\262vj\231\212\244\257\223\307"
 239      CA90B276 
 239      6A998AA4 
 239      AF93C7
 240 00fe A7BA5302 		.ascii	"\247\272S\002\371y\022\031\330\322\3038f\015Yz\206T"
 240      F9791219 
 240      D8D2C338 
 240      660D597A 
 240      8654
 241 0110 9CC3029C 		.ascii	"\234\303\002\234\307\002\316X\300\260\324\276e\220\357"
 241      C702CE58 
 241      C0B0D4BE 
 241      6590EF
 242 011f C45539DA 		.ascii	"\304U9\332\230\324~\273L\214\027~\273\320?\227E\307"
 242      98D47EBB 
 242      4C8C177E 
 242      BBD03F97 
 242      45C7
 243 0131 6549BAC8 		.ascii	"eI\272\310\023\034\366N\337\221\354\254=\354\377\225"
 243      131CF64E 
 243      DF91ECAC 
 243      3DECFF95 
 244 0141 D11C9973 		.ascii	"\321\034\231s{x\\\375\221\361\3402\313\25482\253R\346"
 244      7B785CFD 
 244      91F1E032 
 244      CBAC3832 
 244      AB52E6
 245 0154 0A43EF3D 		.ascii	"\012C\357=/$\333\275\221\352\206\036\334\274\247\275"
 245      2F24DBBD 
 245      91EA861E 
 245      DCBCA7BD 
 246 0164 324170C3 		.ascii	"2Ap\303\030\263\347h_\206f\361\033b\302\232\336\354"
 246      18B3E768 
 246      5F8666F1 
 246      1B62C29A 
 246      DEEC
 247 0176 F73804E7 		.ascii	"\3678\004\347\254\3114\347T\252\274\347\004Z\361\365"
 247      ACC934E7 
 247      54AABCE7 
 247      045AF1F5 
ARM GAS  C:\Users\Bruger\AppData\Local\Temp\cc3c8GDn.s 			page 19


 248 0186 8457C2B2 		.ascii	"\204W\302\262\232\344\013\265=\374'\212\253\015\277"
 248      9AE40BB5 
 248      3DFC278A 
 248      AB0DBF
 249 0195 116CEE30 		.ascii	"\021l\3560Z\033\353\002\235\301\026\243\241\266.PY\321"
 249      5A1BEB02 
 249      9DC116A3 
 249      A1B62E50 
 249      59D1
 250 01a7 50D3E6F7 		.ascii	"P\323\346\367u\370\002\376z_\273\021l,/k\201/%z\305"
 250      75F802FE 
 250      7A5FBB11 
 250      6C2C2F6B 
 250      812F257A 
 251 01bc EB       		.ascii	"\353"
 252              		.text
 253              		.section	.gnu.lto_IgnitionTimer_1_WritePeriod.24c1564d,"",%progbits
 254 0000 789C654F 		.ascii	"x\234eOMH\002Q\030\374\346\255\177`\204t*\357bA\004"
 254      4D480251 
 254      18FCE6AD 
 254      7F608474 
 254      2AEF6241 
 255 0015 05750E3A 		.ascii	"\005u\016:D\267\300\216\202\204.\261\207\334X\354\354"
 255      44B7C08E 
 255      82842EB1 
 255      87DC58EC 
 255      EC
 256 0026 6EE831F0 		.ascii	"n\3501\360\020\031\205\020EdY\031x\253\313\3225(\204"
 256      10198510 
 256      45645919 
 256      78ABCBD2 
 256      352884
 257 0039 422A2808 		.ascii	"B*(\010\245\237S\213B\011\205}/\217=x|\337\014\363f"
 257      A59F538B 
 257      4209857D 
 257      2F8F3D78 
 257      7CDF0CF3 
 258 004e E629F4FF 		.ascii	"\346)\364\377\004\371\016\202h\214'\024\202\310]\021"
 258      04F90E82 
 258      688C2714 
 258      82C85D11 
 259 005e 593E01C8 		.ascii	"Y>\001\310\205@i\2014\336\204#\220\263K\033\376\360"
 259      85406981 
 259      34DE8423 
 259      90B34B1B 
 259      FEF0
 260 0070 9E699A1F 		.ascii	"\236i\232\037;\355\201l\177[\0205E\327\006\373\010\263"
 260      3BED816C 
 260      7F5B1035 
 260      45D706FB 
 260      08B3
 261 0082 A45371AA 		.ascii	"\244Sq\252^e\030\304\373\345\363W\263\347U\264\005\002"
 261      5E6518C4 
 261      FBE5F357 
 261      B3E755B4 
 261      0502
 262 0094 126ED61A 		.ascii	"\022n\326\032-EB!$\274}\177\330\366\205vMs\305\276;"
ARM GAS  C:\Users\Bruger\AppData\Local\Temp\cc3c8GDn.s 			page 20


 262      2D454221 
 262      24BC7D7F 
 262      D8F68576 
 262      4D73C5BE 
 263 00a9 35279957 		.ascii	"5'\231WP\204\302~8@\020\207\010\022S\204\022BR\356d"
 263      5084C27E 
 263      38401087 
 263      08125384 
 263      124252EE 
 264 00be 7E6A7E4F 		.ascii	"~j~O\206\263\003\335L\034\301\303\265\251\334g\233\235"
 264      86B303DD 
 264      4C1CC1C3 
 264      B5A9DC67 
 264      9B9D
 265 00d0 4EB3912F 		.ascii	"N\263\221/Nx]\334Z\352\251\316\012Y\277\301Y<\225{\\"
 265      4E785DDC 
 265      5AEAA9CE 
 265      0A59BFC1 
 265      593C957B 
 266 00e5 AC3B2F79 		.ascii	"\254;/yE>b\263\357\326M\335-\253\270\326\252\226\351"
 266      453E62B3 
 266      EFD64DDD 
 266      2DABB8D6 
 266      AA96E9
 267 00f8 92FE4FF5 		.ascii	"\222\376O\365\353\252\357\217\"\011W\317\263g\275\005"
 267      EBAAEF8F 
 267      220957CF 
 267      B367BD05 
 268 0108 6C5919B4 		.ascii	"lY\031\264\205\033\307\334\350\204\033\021\312(\340"
 268      851BC7DC 
 268      E8841B11 
 268      CA28E0
 269 0117 935D1F61 		.ascii	"\223]\037a\331\225\230\364\223\277\257\013\310\034N"
 269      D99598F4 
 269      93BFAF0B 
 269      C81C4E
 270 0126 1D9A5693 		.ascii	"\035\232V\223\2521\237R\023\261\210\276l\304\325\350"
 270      AA319F52 
 270      13B188BE 
 270      6CC4D5E8 
 271 0136 6C449F1A 		.ascii	"lD\237\032\217\316,$\265\224\246'\347\264E\325\210\215"
 271      8FCE2C24 
 271      B594A627 
 271      E7B445D5 
 271      888D
 272 0148 8EC4C9B3 		.ascii	"\216\304\311\263\244\032\232\236\370\005\305\201~V"
 272      A41A9A9E 
 272      F805C581 
 272      7E56
 273              		.text
 274              		.section	.gnu.lto_IgnitionTimer_1_WriteCompare.24c1564d,"",%progbits
 275 0000 789C654F 		.ascii	"x\234eO=HBQ\024>\347^3\313\004it\027\013\"\220hi\012"
 275      3D484251 
 275      143EE75E 
 275      33CB0469 
 275      74170B22 
 276 0018 1AA22DB0 		.ascii	"\032\242-\260Q0\261G8\350\213\207\315\336\027\322\340"
ARM GAS  C:\Users\Bruger\AppData\Local\Temp\cc3c8GDn.s 			page 21


 276      5130B147 
 276      38E88B87 
 276      CDDE17D2 
 276      E0
 277 0029 64112286 		.ascii	"d\021\"\206SI?V\366\2636<\\\"\242\262\010\244\006\003"
 277      53493F56 
 277      F6B3363C 
 277      5C22A2B2 
 277      08A40603 
 278 003d 7B425143 		.ascii	"{BQCbP\016b\347\346\330\205\3139\337\3079\337\367\035"
 278      62500E62 
 278      E7E6D885 
 278      CB39DFC7 
 278      39DFF71D 
 279 0051 0EFF9F8B 		.ascii	"\016\377\237\213\376\010\002\214QE\016\310R7\000\272"
 279      FE08028C 
 279      51450EC8 
 279      523700BA 
 280 0061 8D21CA06 		.ascii	"\215!\312\006\020\342\014\343\370\306\032\014SF!c\367"
 280      10E20CE3 
 280      F8C61A0C 
 280      53462163 
 280      F7
 281 0072 E485109F 		.ascii	"\344\205\020\237\245\265U\207\330\230o1\200&\353\012"
 281      A5B55587 
 281      D8986F31 
 281      8026EB0A 
 282 0082 E10E7A68 		.ascii	"\341\016zh\310X\277,;8)R\177U\373i\016\274\262\026C"
 282      C858BF2C 
 282      3B382952 
 282      7F55FB69 
 282      0EBCB216 
 283 0097 A784D94A 		.ascii	"\247\204\331J\375\213K\310\230\204\247\371\373\367~"
 283      FD8B4BC8 
 283      9884A7F9 
 283      FBF77E
 284 00a6 F796102B 		.ascii	"\367\226\020+F\365XL\022\317q\0279\351\341\036\272p"
 284      46F5584C 
 284      12CF7117 
 284      39E9E11E 
 284      BA70
 285 00b8 1F5D4014 		.ascii	"\037]@\024`\001\335r\274\221hW\354\326\004\271;\273"
 285      6001DD72 
 285      BC916857 
 285      ECD604B9 
 285      3BBB
 286 00ca 9E788056 		.ascii	"\236x\200V\012\016\305ACt:g\027\231\2447\311-\024\\"
 286      0A0EC541 
 286      43743A67 
 286      1799A437 
 286      C92D145C 
 287 00de 2E804923 		.ascii	".\200I#\362\202:\231Q\345OXJ\237\\g&\344\026\251\245"
 287      F2823A99 
 287      51E54F58 
 287      4A9F5C67 
 287      26E416A9 
 288 00f3 5FCC769F 		.ascii	"_\314v\237\314by(\353\302\"\015\236\315\333;\333\037"
ARM GAS  C:\Users\Bruger\AppData\Local\Temp\cc3c8GDn.s 			page 22


 288      CC627928 
 288      EBC2220D 
 288      9ECDDB3B 
 288      DB1F
 289 0105 05129E6F 		.ascii	"\005\022\236ow>x\0167\365\004\266X\017\036R\244#\212"
 289      773E780E 
 289      37F504B6 
 289      580F1E52 
 289      A4238A
 290 0118 0458C41C 		.ascii	"\004X\304\034~\223j\025u\343\2616$\005\345\375&CiD\266"
 290      7E936A15 
 290      75E3B136 
 290      2405E5FD 
 290      26436944 
 291 012d C3D34A54 		.ascii	"\303\323JT\321\2021e!\340S\227\265\220\342\237\365\251"
 291      D1823165 
 291      21E05397 
 291      B590E29F 
 291      F5A9
 292 013f 53E3FE99 		.ascii	"S\343\376\231\305h8\026V\243s\341\210\242\005\274\243"
 292      C5683816 
 292      56A373E1 
 292      88A205BC 
 292      A3
 293 0150 21E80DA9 		.ascii	"!\350\015\251\221\245\240\246\374\002\025k\200\212"
 293      91A5A0A6 
 293      FC02156B 
 293      808A
 294              		.text
 295              		.section	.gnu.lto_IgnitionTimer_1_SetInterruptMode.24c1564d,"",%progbits
 296 0000 789C6366 		.ascii	"x\234cf\300\004R@\314\315\310\300`\011\244\031\231\031"
 296      C0045240 
 296      CCCDC8C0 
 296      6009A419 
 296      9919
 297 0012 1899269C 		.ascii	"\030\231&\234c`h\344`bd\0041\030\030\031\352\231\030"
 297      636068E4 
 297      60626404 
 297      31181819 
 297      EA9918
 298 0025 EB195F32 		.ascii	"\353\031_2}db\234p`\365\014n\365\245\015\015\015\037"
 298      7D64629C 
 298      7060F50C 
 298      6EF5A50D 
 298      0D0D1F
 299 0038 0EDD6EE3 		.ascii	"\016\335n\343m\230\222\360\223\211\201\3413\023\304"
 299      6D9892F0 
 299      938981E1 
 299      3313C4
 300 0047 20C6E58C 		.ascii	" \306\345\214\352@E\375\017\376\356`c\326ad\000\262"
 300      EA4045FD 
 300      0FFEEE60 
 300      63D66164 
 300      00B2
 301 0059 4F7DFAF6 		.ascii	"O}\372\366\216IuqCC\323\201\227\353\032\034\030\177"
 301      8E497571 
 301      4343D381 
ARM GAS  C:\Users\Bruger\AppData\Local\Temp\cc3c8GDn.s 			page 23


 301      97EB1A1C 
 301      187F
 302 006b 024D5DC1 		.ascii	"\002M]\301\310\014\324\301\250#\305\250)\305\000\024"
 302      C80CD4C1 
 302      A823C5A8 
 302      29C50014 
 303 007b 60605CC9 		.ascii	"``\\\311\250\012R\374\261\345\357un\266\026\240\351"
 303      A80A52FC 
 303      B1E5EF75 
 303      6EB616A0 
 303      E9
 304 008c 02103319 		.ascii	"\002\0203\031W1\262\001\035\306\260^\350@\303\377\377"
 304      5731B201 
 304      1DC6B05E 
 304      E840C3FF 
 304      FF
 305 009d 9FDFCDEA 		.ascii	"\237\337\315\352\262]\313\314\0024\002\244\201\341\011"
 305      B25DCBCC 
 305      023402A4 
 305      81E109
 306 00ac 5009C885 		.ascii	"P\011\310\205O\231\230@4\363-\306C\3236\276\237e\004"
 306      4F999840 
 306      34F32DC6 
 306      43D336BE 
 306      9F6504
 307 00bf D205346D 		.ascii	"\322\0054mc\353Y\333\027L?\231\230\272N66\260\200\314"
 307      63EB59DB 
 307      174C3F99 
 307      98BA4E36 
 307      36B080CC 
 308 00d3 BFFFE4FC 		.ascii	"\277\377\344\374E\016\260\020\003\210\273\347\343\312"
 308      450EB010 
 308      0388BBE7 
 308      E3CA
 309 00e1 5FDC7319 		.ascii	"_\334s\031g7\266\000\235\305\314\270\232Q\212q\015#"
 309      6737B600 
 309      9DC5CCB8 
 309      9A518A71 
 309      0D23
 310 00f3 303018D7 		.ascii	"00\030\3272\316e\374\016Tt\217\261\361\300\376\327\032"
 310      32CE65FC 
 310      0E54748F 
 310      B1F1C0FE 
 310      D71A
 311 0105 20F340DE 		.ascii	" \363@\336{\002t*\320\036\240fM\367\324\274\324\242"
 311      7B02742A 
 311      D01EA066 
 311      4DF7D4BC 
 311      D4A2
 312 0117 C492D494 		.ascii	"\304\222\324\224\370\340\374\322\242\344\324\230\200"
 312      F8E0FCD2 
 312      A2E4D498 
 312      80
 313 0124 E07C67D3 		.ascii	"\340|g\323\030\317\364\274\314\222\314\374\274\220\314"
 313      18CFF4BC 
 313      CC92CCFC 
 313      BC90CC
ARM GAS  C:\Users\Bruger\AppData\Local\Temp\cc3c8GDn.s 			page 24


 314 0133 DCD4A278 		.ascii	"\334\324\242xC\275d\006\336\314\274\222\324\242\242"
 314      43BD6406 
 314      DECCBC92 
 314      D4A2A2
 315 0142 D28212DF 		.ascii	"\322\202\022\337\374\224T\000\007\027ur"
 315      FC945400 
 315      07177572 
 316              		.text
 317              		.section	.gnu.lto_IgnitionTimer_1_ReadStatusRegister.24c1564d,"",%progbits
 318 0000 789C6366 		.ascii	"x\234cf\300\004R@|\013\210\265\201\230\221\231\201\221"
 318      C0045240 
 318      7C0B88B5 
 318      81989199 
 318      8191
 319 0012 69C23906 		.ascii	"i\3029\006\206F\016&FF\020\203\201\221\241\236\211\261"
 319      86460E26 
 319      46461083 
 319      8191A19E 
 319      89B1
 320 0024 9EF125D3 		.ascii	"\236\361%\323G&\3063;\377]fT_\332\320\320\364\341\323"
 320      4726C633 
 320      3BFF5D66 
 320      545FDAD0 
 320      D0F4E1D3 
 321 0038 C763BCD3 		.ascii	"\307c\274\323\247$\374db`\370\314\304\300\250#\305\250"
 321      A724FC64 
 321      6260F8CC 
 321      C4C0A823 
 321      C5A8
 322 004a 09328871 		.ascii	"\0112\210q9\243:\003P\345\307\226\277\327\271\331Z\032"
 322      39A33A03 
 322      50E5C796 
 322      BFD7B9D9 
 322      5A1A
 323 005c 1A1A0440 		.ascii	"\032\032\004@\362@\211\025\214l\214@z\275\320\201\206"
 323      F2408915 
 323      8C6C8C40 
 323      7ABDD081 
 323      86
 324 006d FFFF379F 		.ascii	"\377\3777\237\231\335\245\271\223\231\231\211\001d\000"
 324      99DDA5B9 
 324      93999989 
 324      016400
 325 007c C3132001 		.ascii	"\303\023 \001\262\354)\023\023\210f\276\305x\350[\327"
 325      B2EC2913 
 325      138866BE 
 325      C578E85B 
 325      D7
 326 008d B99D8BD9 		.ascii	"\271\235\213\331@\272\2763\201\255n_\366\202\351\005"
 326      40BABE33 
 326      81AD6E5F 
 326      F682E905 
 327 009d D34F26C6 		.ascii	"\323O&\306W'\032\033X@v\334\177r\376\"\007X\210\001"
 327      57271A1B 
 327      584076DC 
 327      7F72FE22 
 327      07588801 
ARM GAS  C:\Users\Bruger\AppData\Local\Temp\cc3c8GDn.s 			page 25


 328 00b1 C46D59B9 		.ascii	"\304mY\271\274\207c.\343\354\306\226\306\003\232?\231"
 328      BC87632E 
 328      E3ECC696 
 328      C6039A3F 
 328      99
 329 00c2 98185732 		.ascii	"\230\030W2J1\256b\004\272\212q5\343\\F\206{\214\215"
 329      4A31AE62 
 329      04BA8A71 
 329      35E35C46 
 329      867B8C8D 
 330 00d6 0DC65003 		.ascii	"\015\306P\003\301v2\202\354\00225\335S\363R\213\022"
 330      C1763282 
 330      EC023235 
 330      DD53F352 
 330      8B12
 331 00e8 4B5253E2 		.ascii	"KRS\342\203\363K\213\222Sc\002\202\363\235Mc<\323\363"
 331      83F34B8B 
 331      92536302 
 331      82F39D4D 
 331      633CD3F3 
 332 00fc 324B32F3 		.ascii	"2K2\363\363B2sS\213\342\015\365\222\031\000,\300`N"
 332      F3423273 
 332      538BE20D 
 332      F5921900 
 332      2CC0604E 
 333              		.text
 334              		.section	.gnu.lto_IgnitionTimer_1_ReadControlRegister.24c1564d,"",%progbits
 335 0000 789C654F 		.ascii	"x\234eO=HBQ\024>\337}ab$\321\350\352 \206\004\005\216"
 335      3D484251 
 335      143EDF7D 
 335      616224D1 
 335      E8EA2086 
 336 0017 D1D0106D 		.ascii	"\321\320\020m\205\215\202\205=B(\205\227n\201\367\231"
 336      858D8285 
 336      3D422885 
 336      976E81F7 
 336      99
 337 0028 10384554 		.ascii	"\0208ET\016b\320 e?44D\341\360j(\241(\"(\210(\007\205"
 337      0E62D020 
 337      653F3434 
 337      44E1F06A 
 337      28A12822 
 338 0041 5A2A898A 		.ascii	"Z*\211\212W\244\335+\015A\007.\347\343\360\375]\205"
 338      57A4DD2B 
 338      0D41072E 
 338      E7E3F0FD 
 338      5D85
 339 0053 FE8F433C 		.ascii	"\376\217C</\210\272\305\206B`sgD\272\225\001\022\020"
 339      2F88BAC5 
 339      86426073 
 339      6744BA95 
 339      011210
 340 0066 28CE10C7 		.ascii	"(\316\020\307#\2532\234\356\325.\341\312q\236x\2317"
 340      23AB329C 
 340      EED52EE1 
 340      CA719E78 
 340      9937
ARM GAS  C:\Users\Bruger\AppData\Local\Temp\cc3c8GDn.s 			page 26


 341 0078 8F5AD30B 		.ascii	"\217Z\323\013#&#ze\004\217\003ni\204U\270H0\363\267"
 341      2326237A 
 341      65048F03 
 341      6E698455 
 341      B84830F3 
 342 008d 6F865DF1 		.ascii	"o\206]\361@\342\364An\311\346\\\021\252\322\311\356"
 342      40E2F441 
 342      6EC9E65C 
 342      11AAD2C9 
 342      EE
 343 009e 749A97F8 		.ascii	"t\232\227\370\034\257\327{!\264X\203\362W.G(\252\311"
 343      1CAFD77B 
 343      21B45883 
 343      F2572E47 
 343      28AAC9
 344 00b1 EFEB164B 		.ascii	"\357\353\026K\222s\336\206<\2342AX\257\303\"jB^\266"
 344      9273DE86 
 344      3C9C3241 
 344      58AFC322 
 344      6A425EB6 
 345 00c5 DB0D61B1 		.ascii	"\333\015a\261S\311\244z\012\212\"\014$\213\312\202&"
 345      53C9A47A 
 345      0A8A220C 
 345      248BCA82 
 345      26
 346 00d6 3B571893 		.ascii	";W\030\223[\271\301\341{\352\2510c\223\322\017&\177"
 346      5BB9C1E1 
 346      7BEAA930 
 346      6393D20F 
 346      267F
 347 00e8 505AAE2D 		.ascii	"PZ\256-6?0\223\341\263\250\363&\031v_>\277\2606N\215"
 347      363F3093 
 347      E1B3A8F3 
 347      2619765F 
 347      3EBFB036 
 348 00fe ECFDAFE3 		.ascii	"\354\375\257\343Y{\026\031=\251\033\035&c\330\200\003"
 348      597B1619 
 348      3DA91B1D 
 348      2663D880 
 348      03
 349 010f 9B10EDB0 		.ascii	"\233\020\355\260\205,\350\012\011>\324\350\"2\205)\335"
 349      852CE80A 
 349      093ED4E8 
 349      22328529 
 349      DD
 350 0120 4137B2CF 		.ascii	"A7\262\317E\374\206\220\354\001\231/\240\273_\015\253"
 350      45FC8690 
 350      EC01992F 
 350      A0BB5F0D 
 350      AB
 351 0131 DA68541D 		.ascii	"\332hT\035\013\370\"1-\250\372\007}\221>\257\177`<\034"
 351      0BF82231 
 351      2DA8FA07 
 351      7D913EAF 
 351      7F603C1C 
 352 0145 8A8622E1 		.ascii	"\212\206\"\341\341\320\244\252\005\272:\203d\321\324"
 352      E1D0A4AA 
ARM GAS  C:\Users\Bruger\AppData\Local\Temp\cc3c8GDn.s 			page 27


 352      05BA3A83 
 352      64D1D4
 353 0154 A9D844F4 		.ascii	"\251\330D\364\007\350\343\201\265"
 353      07E8E381 
 353      B5
 354              		.text
 355              		.section	.gnu.lto_IgnitionTimer_1_WriteControlRegister.24c1564d,"",%progbits
 356 0000 789C6366 		.ascii	"x\234cf\300\004R@\314\315\310\300`\014\244\031\231\031"
 356      C0045240 
 356      CCCDC8C0 
 356      600CA419 
 356      9919
 357 0012 1899269C 		.ascii	"\030\231&\234c`h\344`bd\0041\030\030\031\352\231\030"
 357      636068E4 
 357      60626404 
 357      31181819 
 357      EA9918
 358 0025 EB195F32 		.ascii	"\353\031_2}db\234p`\365\014n\365\245\015\015\015\037"
 358      7D64629C 
 358      7060F50C 
 358      6EF5A50D 
 358      0D0D1F
 359 0038 2EFD6FE3 		.ascii	".\375o\343m\230\222\360\223\211\201\3413\023\304 \306"
 359      6D9892F0 
 359      938981E1 
 359      3313C420 
 359      C6
 360 0049 E58CEA40 		.ascii	"\345\214\352@E\313\216\034\223b\326ad\0002\177m\236"
 360      45CB8E1C 
 360      9362D661 
 360      6400327F 
 360      6D9E
 361 005b B49A5375 		.ascii	"\264\232SuqCC\323\201\267\353\032\034\030\177\002\015"
 361      714343D3 
 361      81B7EB1A 
 361      1C187F02 
 361      0D
 362 006c 5DC1C80C 		.ascii	"]\301\310\014\324\300\250#\305\250)\305\000\024``\\"
 362      D4C0A823 
 362      C5A829C5 
 362      00146060 
 362      5C
 363 007d C9A80A52 		.ascii	"\311\250\012R\374\261\345\357un\266\026\240\341\002"
 363      FCB1E5EF 
 363      756EB616 
 363      A0E102
 364 008c 10231957 		.ascii	"\020#\031W1\262\001\335\305\260^\350@\303\377\377\233"
 364      31B201DD 
 364      C5B05EE8 
 364      40C3FFFF 
 364      9B
 365 009d FFCFEE52 		.ascii	"\377\317\356R<\301\314\0024\002\244\201\341\011P\011"
 365      3CC1CC02 
 365      3402A481 
 365      E1095009 
 366 00ad C8814F99 		.ascii	"\310\201O\231\230@4\363-\306C\323>\376\237m\004\322"
 366      984034F3 
ARM GAS  C:\Users\Bruger\AppData\Local\Temp\cc3c8GDn.s 			page 28


 366      2DC643D3 
 366      3EFE9F6D 
 366      04D2
 367 00bf 0534EDC1 		.ascii	"\0054\355\301\274\177S\331_0\375db\372u\242\261\201"
 367      BC7F53D9 
 367      5F30FD64 
 367      62FA75A2 
 367      B181
 368 00d1 0564C1FD 		.ascii	"\005d\301\375'\347/r\200\205\030@\334]\277\217\267\363"
 368      27E72F72 
 368      80851840 
 368      DC5DBF8F 
 368      B7F3
 369 00e3 CD659CDD 		.ascii	"\315e\234\335\330\002t\0273\343jF)\3065\214\300\300"
 369      D8027417 
 369      33E36A46 
 369      29C6358C 
 369      C0C0
 370 00f5 605CCB38 		.ascii	"`\\\3138\227\361;P\321=\306\306\003\023?i\200\014\004"
 370      97F13B50 
 370      D13DC6C6 
 370      03133F69 
 370      800C04
 371 0108 79EF09D0 		.ascii	"y\357\011\320\255@\213\200\2325\335S\363R\213\022KR"
 371      AD408B80 
 371      9A35DD53 
 371      F3528B12 
 371      4B52
 372 011a 53E283F3 		.ascii	"S\342\203\363K\213\222Sc\002\202\363\235Mc<\323\363"
 372      4B8B9253 
 372      630282F3 
 372      9D4D633C 
 372      D3F3
 373 012c 324B32F3 		.ascii	"2K2\363\363B2sS\213\342\015\365\222\031\330\223\363"
 373      F3423273 
 373      538BE20D 
 373      F59219D8 
 373      93F3
 374 013e F34A8AF2 		.ascii	"\363J\212\362s\000\243<r\226"
 374      7300A33C 
 374      7296
 375              		.text
 376              		.section	.gnu.lto_IgnitionTimer_1_ReadCapture.24c1564d,"",%progbits
 377 0000 789C6366 		.ascii	"x\234cf\300\004R@\374\013\210\265\201\230\221\231\201"
 377      C0045240 
 377      FC0B88B5 
 377      81989199 
 377      81
 378 0011 9169C239 		.ascii	"\221i\3029\006\206F\016&FF\020\203\201\221\241\236\211"
 378      0686460E 
 378      26464610 
 378      838191A1 
 378      9E89
 379 0023 B19EF125 		.ascii	"\261\236\361%\323G&\306\323\217~|\346y\301\364\223\211"
 379      D34726C6 
 379      D38F7E7C 
 379      E679C1F4 
ARM GAS  C:\Users\Bruger\AppData\Local\Temp\cc3c8GDn.s 			page 29


 379      9389
 380 0035 418001C8 		.ascii	"A\200\001\310\235u\375\351\027f\020\227\221\011\304"
 380      9D75FDE9 
 380      17661097 
 380      9109C4
 381 0044 DDFDF9DC 		.ascii	"\335\375\371\334#6\365\245\015\015M\037\036Mm\347\233"
 381      2336F5A5 
 381      0D0D4D1F 
 381      1E4D6DE7 
 381      9B
 382 0055 316501E3 		.ascii	"1e\001\343O&&\206\317L\014\214\313\031\245\030W0\202"
 382      4F262686 
 382      CF4C0C8C 
 382      CB19A518 
 382      573082
 383 0068 6C625CC9 		.ascii	"lb\\\311\250\016R\374\261\345\357un\266\226\206\206"
 383      A80E52FC 
 383      B1E5EF75 
 383      6EB69686 
 383      86
 384 0079 0601900A 		.ascii	"\006\001\220\012\240\304*F6F \275^\350@\303\377\377"
 384      A0C42A46 
 384      364620BD 
 384      5EE840C3 
 384      FFFF
 385 008b 9FAFCFE9 		.ascii	"\237\257\317\351R=\315\314\314\304\0002\202\341\011"
 385      523DCDCC 
 385      CCC40032 
 385      82E109
 386 009a 10835CF3 		.ascii	"\020\203\\\363\024\310\001\322\314\267\030\017}\353"
 386      14C801D2 
 386      CCB7180F 
 386      7DEB
 387 00a8 3A767A31 		.ascii	":vz1\033H\327w&\220\333^\037^\311\011r\013\363\226\213"
 387      1B48D777 
 387      2690DB5E 
 387      1F5EC909 
 387      720BF396 
 388 00bd 8D0D2C20 		.ascii	"\215\015, +\356?9\177\221\003,\304\000\342\276\274\320"
 388      2BEE3F39 
 388      7F91032C 
 388      C400E2BE 
 388      BCD0
 389 00cf F28D6B2E 		.ascii	"\362\215k.\343\354\306\226\306\003\232?\231X\030W\003"
 389      E3ECC696 
 389      C6039A3F 
 389      99581857 
 389      03
 390 00e0 1DB506E4 		.ascii	"\035\265\006\344(\306\265\214s\031\031\356166\030C\315"
 390      28C6B58C 
 390      731919EE 
 390      31363618 
 390      43CD
 391 00f2 630059C9 		.ascii	"c\000Y\311\010\262\012\310\324tO\315K-J,IM\211\017\316"
 391      08B20AC8 
 391      D4744FCD 
 391      4B2D4A2C 
ARM GAS  C:\Users\Bruger\AppData\Local\Temp\cc3c8GDn.s 			page 30


 391      494D890F 
 392 0107 2F2D4A4E 		.ascii	"/-JN\215\011\010\316w6\215\361L\317\313,\311\314\317"
 392      8D0908CE 
 392      77368DF1 
 392      4CCFCB2C 
 392      C9CCCF
 393 011a 0BC9CC4D 		.ascii	"\013\311\314M-\2127\324Kf\000\000\303\302nf"
 393      2D8A37D4 
 393      4B660000 
 393      C3C26E66 
 394              		.text
 395              		.section	.gnu.lto_IgnitionTimer_1_ReadCompare.24c1564d,"",%progbits
 396 0000 789C6366 		.ascii	"x\234cf\300\004R@\374\033\210\265\201\230\221\231\201"
 396      C0045240 
 396      FC1B88B5 
 396      81989199 
 396      81
 397 0011 9169C239 		.ascii	"\221i\3029\006\206F\016&FF\020\203\201\221\241\236\211"
 397      0686460E 
 397      26464610 
 397      838191A1 
 397      9E89
 398 0023 B19EF125 		.ascii	"\261\236\361%\323G&\306\323\217~|\346y\301\364\223\211"
 398      D34726C6 
 398      D38F7E7C 
 398      E679C1F4 
 398      9389
 399 0035 418001C8 		.ascii	"A\200\001\310\235u\375\351\027f\020\227\221\011\304"
 399      9D75FDE9 
 399      17661097 
 399      9109C4
 400 0044 DDFDF9DC 		.ascii	"\335\375\371\334#6\365\245\015\015M\037\232\346\266"
 400      2336F5A5 
 400      0D0D4D1F 
 400      9AE6B6
 401 0053 F3CD98B2 		.ascii	"\363\315\230\262\200\361'\023\023\303g&\006\306\345"
 401      80F12713 
 401      13C36726 
 401      06C6E5
 402 0062 8C528C2B 		.ascii	"\214R\214+\030A61\256dT\007)\376\330\362\367:7[KCC\203"
 402      18413631 
 402      AE645407 
 402      29FED8F2 
 402      F73A375B 
 403 007a 00480550 		.ascii	"\000H\005Pb\025#\033#\220^/t\240\341\377\377\317_\346"
 403      6215231B 
 403      23905E2F 
 403      74A0E1FF 
 403      FFCF5FE6 
 404 008e 74D99E63 		.ascii	"t\331\236cffb\000\031\301\360\004\210A\256y\012\344"
 404      66666200 
 404      19C1F004 
 404      8841AE79 
 404      0AE4
 405 00a0 0069E65B 		.ascii	"\000i\346[\214\207\276u\275;\267\230\035\244\353;\023"
 405      8C87BE75 
 405      BD3BB798 
ARM GAS  C:\Users\Bruger\AppData\Local\Temp\cc3c8GDn.s 			page 31


 405      1DA4EB3B 
 405      13
 406 00b1 C86DD31E 		.ascii	"\310m\323\036?\371\313\011r\014\363\225\013\215\015"
 406      3FF9CB09 
 406      720CF395 
 406      0B8D0D
 407 00c0 2C203BEE 		.ascii	", ;\356?9\177\221\003,\304\000\342\356Y\362\377\015"
 407      3F397F91 
 407      032CC400 
 407      E2EE59F2 
 407      FF0D
 408 00d2 F35CC6D9 		.ascii	"\363\\\306\331\215-\215\007t\1772\2610\256\006\272j"
 408      8D2D8D07 
 408      747F32B1 
 408      30AE06BA 
 408      6A
 409 00e3 0DC8558C 		.ascii	"\015\310U\214k\031\34722\334cll\260\206\032\310\000"
 409      6B19E732 
 409      32DC636C 
 409      6CB0861A 
 409      C800
 410 00f5 B2931164 		.ascii	"\262\223\021d\027\220\251\351\236\232\227Z\224X\222"
 410      1790A9E9 
 410      9E9A975A 
 410      945892
 411 0104 9A121F9C 		.ascii	"\232\022\037\234_Z\224\234\032\023\020\234\357l\032"
 411      5F5A949C 
 411      1A13109C 
 411      EF6C1A
 412 0113 E3999E97 		.ascii	"\343\231\236\227Y\222\231\237\027\222\231\233Z\024o"
 412      5992999F 
 412      1792999B 
 412      5A146F
 413 0122 A897CC00 		.ascii	"\250\227\314\000\000\216\206o\262"
 413      008E866F 
 413      B2
 414              		.text
 415              		.section	.gnu.lto_IgnitionTimer_1_ReadPeriod.24c1564d,"",%progbits
 416 0000 789C6366 		.ascii	"x\234cf\300\004R@\374\033\210\265\201\230\221\231\201"
 416      C0045240 
 416      FC1B88B5 
 416      81989199 
 416      81
 417 0011 9169C239 		.ascii	"\221i\3029\006\206F\016&FF\020\203\201\221\241\236\211"
 417      0686460E 
 417      26464610 
 417      838191A1 
 417      9E89
 418 0023 B19EF125 		.ascii	"\261\236\361%\323G&\306\323\217~|\346y\301\364\223\211"
 418      D34726C6 
 418      D38F7E7C 
 418      E679C1F4 
 418      9389
 419 0035 418001C8 		.ascii	"A\200\001\310\235u\375\351\027f\020\227\221\011\304"
 419      9D75FDE9 
 419      17661097 
 419      9109C4
ARM GAS  C:\Users\Bruger\AppData\Local\Temp\cc3c8GDn.s 			page 32


 420 0044 DDFDF9DC 		.ascii	"\335\375\371\334#6\365\245\015\015M\037\016\355m\347"
 420      2336F5A5 
 420      0D0D4D1F 
 420      0EED6DE7 
 421 0054 99316501 		.ascii	"\2311e\001\343O&&\206\317L\014\214\313\031\245\030W"
 421      E34F2626 
 421      86CF4C0C 
 421      8CCB19A5 
 421      1857
 422 0066 30826C62 		.ascii	"0\202lb\\\311\250\016R\374\261\345\357un\266\226\206"
 422      5CC9A80E 
 422      52FCB1E5 
 422      EF756EB6 
 422      9686
 423 0078 86060190 		.ascii	"\206\006\001\220\012\240\304*F6F \275^\350@\303\377"
 423      0AA0C42A 
 423      46364620 
 423      BD5EE840 
 423      C3FF
 424 008a FF9FBFCD 		.ascii	"\377\237\277\315m\322\275\317\314\314\304\0002\202\341"
 424      6DD2BDCF 
 424      CCCCC400 
 424      3282E1
 425 0099 0910835C 		.ascii	"\011\020\203\\\363\024\310\001\322\314\267\030\017}"
 425      F314C801 
 425      D2CCB718 
 425      0F7D
 426 00a7 EB3A777F 		.ascii	"\353:w\1771\033H\327w&\220\333\376|\271\362\204\025"
 426      311B48D7 
 426      772690DB 
 426      FE7CB9F2 
 426      8415
 427 00b9 E418E629 		.ascii	"\344\030\346)\027\033\033X@v\334\177r\376\"\007X\210"
 427      171B1B58 
 427      4076DC7F 
 427      72FE2207 
 427      5888
 428 00cb 01C4EDDD 		.ascii	"\001\304\355\335\335\272\213o.\343\354\306\226\306\003"
 428      DDBA8B6F 
 428      2EE3ECC6 
 428      96C603
 429 00da 9A3F9958 		.ascii	"\232?\231X\030W\003]\265\006\344*\306\265\214s\031\031"
 429      1857035D 
 429      B506E42A 
 429      C6B58C73 
 429      1919
 430 00ec EE313636 		.ascii	"\356166\030C\015d\000\331\311\010\262\013\310\324tO"
 430      18430D64 
 430      00D9C908 
 430      B20BC8D4 
 430      744F
 431 00fe CD4B2D4A 		.ascii	"\315K-J,IM\211\017\316/-JN\215\011\010\316w6\215\361"
 431      2C494D89 
 431      0FCE2F2D 
 431      4A4E8D09 
 431      08CE7736 
 432 0114 4CCFCB2C 		.ascii	"L\317\313,\311\314\317\013\311\314M-\2127\324Kf\000"
ARM GAS  C:\Users\Bruger\AppData\Local\Temp\cc3c8GDn.s 			page 33


 432      C9CCCF0B 
 432      C9CC4D2D 
 432      8A37D44B 
 432      6600
 433 0126 009C5F6F 		.ascii	"\000\234_oB"
 433      42
 434              		.text
 435              		.section	.gnu.lto_.symbol_nodes.24c1564d,"",%progbits
 436 0000 789C55D0 		.ascii	"x\234U\320\273\015\3020\030\004\340\363\3578q\336q\026"
 436      BB0DC230 
 436      1804E0F3 
 436      EF3871DE 
 436      7116
 437 0012 60096A56 		.ascii	"`\011jV\273\024tH\210\011\020H\214\300\034\014A\315"
 437      BB147448 
 437      88091048 
 437      8CC01C0C 
 437      41CD
 438 0024 10584AE3 		.ascii	"\020XJ\343\273\346\364IW\235\007pr\330cF\340\366\001"
 438      BBE6F449 
 438      579D0770 
 438      72D86346 
 438      E0F601
 439 0037 48DC1F11 		.ascii	"H\334\037\021\346\350J\007\340\231'\346i2\253\350\305"
 439      E6E84A07 
 439      E09927E6 
 439      6932ABE8 
 439      C5
 440 0048 8195B866 		.ascii	"\201\225\270f\0207\254\305\221\215\270e\024wl\305=;"
 440      1037ACC5 
 440      918DB865 
 440      14776CC5 
 440      3D3B
 441 005a F1C05E3C 		.ascii	"\361\300^<r\020O\034\3053'\361\302\271\264[\271\354"
 441      72104F1C 
 441      C53327F1 
 441      C2B9B45B 
 441      B9EC
 442 006c C6B66526 		.ascii	"\306\266e&\246\202\036+\316\227\337\301#\341u\315\235"
 442      A6821E2B 
 442      CE97DFC1 
 442      23E175CD 
 442      9D
 443 007d DFFBBE8F 		.ascii	"\337\373\276\217\370\003\305+Q\366"
 443      F803C52B 
 443      51F6
 444              		.text
 445              		.section	.gnu.lto_.refs.24c1564d,"",%progbits
 446 0000 789C6366 		.ascii	"x\234cf``\340d\200\000&F bdba\000\000\001*\000\032"
 446      6060E064 
 446      80002646 
 446      20626462 
 446      61000001 
 447              		.text
 448              		.section	.gnu.lto_.decls.24c1564d,"",%progbits
 449 0000 789C8D95 		.ascii	"x\234\215\225kL\024W\024\307\347\356]\026XV\264M\305"
 449      6B4C1457 
ARM GAS  C:\Users\Bruger\AppData\Local\Temp\cc3c8GDn.s 			page 34


 449      14C7E7EE 
 449      5D165856 
 449      B44DC5
 450 0013 D63691D6 		.ascii	"\3266\221\326\306\304\304\230\370\241\306o\232\020\265"
 450      C6C4C498 
 450      F8A1C66F 
 450      9A10B5
 451 0022 F649A48F 		.ascii	"\366I\244\217\017\332\332\025&\272\011\002Y\227\244"
 451      0FDADA15 
 451      26BA0902 
 451      5997A4
 452 0031 7E1B45E4 		.ascii	"~\033E\344\341\013\021+\322j\361A\025\025XP\213\310"
 452      E10B112B 
 452      D26AF141 
 452      15155850 
 452      8BC8
 453 0043 6B414084 		.ascii	"kA@\204\002\212+\212\213\262<EA\\\020\015\212\270=\367"
 453      028A2B8A 
 453      8BB23C45 
 453      415C100D 
 453      8AB83DF7 
 454 0057 DE197766 		.ascii	"\336\031wf\235U&9\260w\346\234\337y\334\377\235\301"
 454      9D552639 
 454      B077E69C 
 454      DF79DCFF 
 454      9DC1
 455 0069 1CC7456B 		.ascii	"\034\307Ek9\316\015\3276=\307eh8\356=\270\027\316y\256"
 455      39CE0DD7 
 455      363DC765 
 455      6838EE3D 
 455      B817CE79 
 456 007e F7C1CE82 		.ascii	"\367\301\316\202\345\203Y\301\212\300\312\301l`\325"
 456      E58359C1 
 456      8AC0CAC1 
 456      6C60D5
 457 008d 60356075 		.ascii	"`5`u`-`\255`v\2606\260\333`w\300:\300\356\2019\301\020"
 457      602D60AD 
 457      6076B036 
 457      B0DB6077 
 457      C03AC0EE 
 458 00a5 580FA7BC 		.ascii	"X\017\247\274\316\2129H\316\006\260\020\260\022\260"
 458      CE8A3948 
 458      CE06B010 
 458      B012B0
 459 00b4 01B07EB0 		.ascii	"\001\260~\260`0\003\330#\260!\260a\260k`\217\301\232"
 459      603003D8 
 459      23B021B0 
 459      61B06B60 
 459      8FC19A
 460 00c7 C046C05C 		.ascii	"\300F\300\\`O\300FE\246^\344\226{\325\347\024k\251\026"
 460      604FC046 
 460      45A65EE4 
 460      967BD5E7 
 460      146BA916 
 461 00db EB6BE5DE 		.ascii	"\353k\345\336\274H\237\001b=\244\2261\261\256\247`\271"
 461      BC489F01 
 461      623DA496 
ARM GAS  C:\Users\Bruger\AppData\Local\Temp\cc3c8GDn.s 			page 35


 461      31B1AEA7 
 461      60B9
 462 00ed B2BAC885 		.ascii	"\262\272\310\205E\377\263\342l\324\372#\367\2652\236"
 462      45FFB3E2 
 462      6CD4FA23 
 462      F7B5329E 
 463 00fd 3C1E89CF 		.ascii	"<\036\211\317\275\257\242w\304\024\251\304\220^ub\214"
 463      BDAFA277 
 463      C414A9C4 
 463      905E7562 
 463      8C
 464 010e 34333247 		.ascii	"432GinRl\271J\254M\354Y\036G\362J3\225f,1l*\214j\316"
 464      696E526C 
 464      B94AAC4D 
 464      EC591E47 
 464      F24A3395 
 465 012a 33B70619 		.ascii	"3\267\006\031Cm\1770\367\366=\250\231b/5*\261uS\214"
 465      436D7F30 
 465      F7F63DA8 
 465      99622F35 
 465      2AB17553 
 466 013f AD538925 		.ascii	"\255S\211%\032\221\346Nz\360\236{\213JL\253\330O\203"
 466      1A91E64E 
 466      7AF09E7B 
 466      8B4A4CAB 
 466      D84F83
 467 0152 578FC847 		.ascii	"W\217\310Go\366\267\370\333U\374\333\336QS\233J\014"
 467      6FF6B7F8 
 467      DB55FCDB 
 467      DE51539B 
 467      4A0C
 468 0164 99AB1FA7 		.ascii	"\231\253\037\247\354\337{\017o\253\304\335\231B\334"
 468      ECDF7B0F 
 468      6FABC4DD 
 468      9942DC
 469 0173 1D95B88E 		.ascii	"\035\225\270\216)\304u\250\304\215hPI\376XS\320\200"
 469      29C475A8 
 469      C48D6850 
 469      49FE5853 
 469      D080
 470 0185 0605EB43 		.ascii	"\006\005\353C\311\362Rz}\246\016\226\006\275\226,K'"
 470      C9F2527A 
 470      7DA60E96 
 470      06BD962C 
 470      4B27
 471 0197 BAEDDA59 		.ascii	"\272\355\332Y\007\004\270\322\022\204\031Z\024\036\202"
 471      0704B8D2 
 471      1284195A 
 471      141E82
 472 01a6 4EA2D9E8 		.ascii	"N\242\331\350\024\232\015\324\\4\013\376\256\3212R\363"
 472      149A0DD4 
 472      5C340BFE 
 472      AED13252 
 472      F3
 473 01b7 B1533BFD 		.ascii	"\261S;\375\261\006\221\337\3073\273\354\372\005\247"
 473      B10691DF 
 473      C733BBEC 
ARM GAS  C:\Users\Bruger\AppData\Local\Temp\cc3c8GDn.s 			page 36


 473      FA05A7
 474 01c6 212C59B0 		.ascii	"!,Y\260\215k<\351\262\236\037O\361\017=\"8\255\256\212"
 474      8D6B3CE9 
 474      B29E1F4F 
 474      F10F3D22 
 474      38ADAE8A 
 475 01da DB3BF021 		.ascii	"\333;\360!!{\233\360\312\355F\024\206N#\214\316\240"
 475      217B9BF0 
 475      CAED4614 
 475      864E238C 
 475      CEA0
 476 01ec 05B464F8 		.ascii	"\005\264d\370\315j?\213B!0)#\357\262\016\177I\351G\017"
 476      CD6A3F8B 
 476      42213029 
 476      23EFB20E 
 476      7F49E947 
 477 0201 F7EFD103 		.ascii	"\367\357\321\003$\333\232\375\270HX\266]x\351vc\012"
 477      24DB9AFD 
 477      B84858B6 
 477      5D78E976 
 477      630A
 478 0213 C89301F2 		.ascii	"\310\223\001\362$@>\005\234\267>\250\327\343_)\340X"
 478      24403E05 
 478      9CB73EA8 
 478      D7E35F29 
 478      E058
 479 0225 CFAB5E44 		.ascii	"\317\253^D\253\310\336{RW/\330\334\356J\001QB\201\214"
 479      ABC8DE7B 
 479      52572FD8 
 479      DCEE4A01 
 479      5142818C 
 480 0239 502011AC 		.ascii	"P \021\254\224P\2371\334\243\301\361\224\220\370\342"
 480      94509F31 
 480      DCA3C1F1 
 480      9490F8E2 
 481 0249 D2B83F2B 		.ascii	"\322\270?+\241]$,\245\361\205\262\370B)\276\210\306"
 481      A15D242C 
 481      A5F185B2 
 481      F84229BE 
 481      88C6
 482 025b 37768F3F 		.ascii	"7v\217?1\320Q\317\240\243\270\3257\206\351\2505dyxt"
 482      31D051CF 
 482      A0A3B8D5 
 482      3786E9A8 
 482      35647978 
 483 0270 B82C10A7 		.ascii	"\270,\020\247\"\212\337\372O\351.\177x\026\252\247S"
 483      228ADFFA 
 483      4FE92E7F 
 483      7816AAA7 
 483      53
 484 0281 3B38387E 		.ascii	";88~>\200.\241Q\270\241\231\350\311?\251C\363\364'`"
 484      3E802EA1 
 484      51B8A199 
 484      E8C93FA9 
 484      43F3F427 
 485 0296 C2AEDC9C 		.ascii	"\302\256\334\234\212\257\022\204e\250\004\351\321\205"
 485      8AAF1284 
ARM GAS  C:\Users\Bruger\AppData\Local\Temp\cc3c8GDn.s 			page 37


 485      65A804E9 
 485      D185
 486 02a4 D7E9692C 		.ascii	"\327\351i,\271\222\005a\233 $\010~\247\2029t\0166\357"
 486      B9920561 
 486      9B202408 
 486      7EA78239 
 486      740E36EF 
 487 02b8 3C6C1EBA 		.ascii	"<l\036\272\210\346\201\007\365E\377\302\315b\270\011"
 487      88E68107 
 487      F545FFC2 
 487      CD62B809 
 488 02c8 99CA4E3C 		.ascii	"\231\312N<\034\016\322\302\206Q\332\032*\202\316\013"
 488      1C0ED2C2 
 488      8651DA1A 
 488      2A82CE0B 
 489 02d8 CF8AF53E 		.ascii	"\317\212\365>EPJEp\011\211*h\275\333U\356\217\317\261"
 489      45504A45 
 489      7009892A 
 489      68BDDB55 
 489      EE8FCFB1 
 490 02ec 3632939F 		.ascii	"62\223\237O\004\212\273\335\2265\355\365nkH\024*\223"
 490      4F048ABB 
 490      DD9635ED 
 490      F56E6B48 
 490      142A93
 491 02ff 8DAA4C1A 		.ascii	"\215\252L\032U9\035\325\363\304\246N,OI\252\361\344"
 491      55391DD5 
 491      F3C4A64E 
 491      2C4F49AA 
 491      F1E4
 492 0311 AC50082F 		.ascii	"\254P\010/c\364J\245\006_c)\307\034\371\355\230n\214"
 492      63F44AA5 
 492      065F6329 
 492      C71CF9ED 
 492      986E8C
 493 0324 B37DF715 		.ascii	"\263}\367\025\203\300\266\206\206\240JY\302J)\241\215"
 493      83C0B686 
 493      86A04A59 
 493      C24A29A1 
 493      8D
 494 0335 262C3857 		.ascii	"&,8Wc\015\300C\214\321\233~})\255\332\271\273EB\200"
 494      630DC043 
 494      8CD19B7E 
 494      7D29ADDA 
 494      B9BB4542 
 495 034a 3E9846AB 		.ascii	">\230F\253d\220*\011RM!\377\324\244\364!\274\203\035"
 495      64902A09 
 495      524D21FF 
 495      D4A4F421 
 495      BC831D
 496 035d 81AADE47 		.ascii	"\201\252\336G#ZFih\341mT\244\011\001t^\350\262\214q"
 496      235A4669 
 496      68E16D54 
 496      A4090174 
 496      5EE8B28C 
 497 0372 5962D450 		.ascii	"Yb\324PF\335\213\312\246 |\2141:\372&\037\3701\306\256"
 497      46DD8BCA 
ARM GAS  C:\Users\Bruger\AppData\Local\Temp\cc3c8GDn.s 			page 38


 497      A6207C8C 
 497      313AFA26 
 497      1FF831C6 
 498 0387 C28D5EE3 		.ascii	"\302\215^\343\253\225Aj%H\035\205\264U&%\005\340J\215"
 498      AB95416A 
 498      25481D85 
 498      B4552625 
 498      05E04A8D 
 499 039b 424B214C 		.ascii	"BK!LK{\032\263\2520]\272\311cM{{\306s\214\364\363\250"
 499      4B7B1AB3 
 499      AA305DBA 
 499      C9634D7B 
 499      7BC6738C 
 500 03b2 4C5CE902 		.ascii	"L\\\351\002\376\220C\013f\243\371\240\221F\320H\210"
 500      FE90430B 
 500      66A3F9A0 
 500      9146D048 
 500      88
 501 03c3 A8917A18 		.ascii	"\250\221z\030\376U\030>S\\\"S\\\003\354\312\025\217"
 501      FE55183E 
 501      535C2253 
 501      5C03ECCA 
 501      158F
 502 03d5 E242F4AF 		.ascii	"\342B\364\257\317yZbU\232\226\352\250\341\265\216\236"
 502      CF795A62 
 502      559A96EA 
 502      A8E1B58E 
 502      9E
 503 03e6 BABB7234 		.ascii	"\272\273r4>u\324D\367\364?IG\007z&\355:\\\313ZHJL\312"
 503      3E75D444 
 503      F7F43F49 
 503      47077A26 
 503      ED3A5CCB 
 504 03ff D7893ABA 		.ascii	"\327\211:\2728\030\276/A8!8\335\3569\241$\0125\313\006"
 504      3818BE2F 
 504      41382138 
 504      DDEE39A1 
 504      240A35CB 
 505 0414 D12C0DA2 		.ascii	"\321,\015\242\205\016\"e\273U!\243\006\205\214\256)"
 505      850E2265 
 505      BB5521A3 
 505      06858CAE 
 505      29
 506 0425 6474A4AA 		.ascii	"dt\244\252r>\356g\011/8\322\331[\312\271\2678Z6w\210"
 506      723EEE67 
 506      092F38D2 
 506      D95BCAB9 
 506      B7385A36 
 507 043b 40D765E9 		.ascii	"@\327e\351\256K\351Zi\272\222Z{\202?N\301\224\321xy"
 507      AE4BE95A 
 507      69BA925A 
 507      7B823F4E 
 507      C194D178 
 508 0450 BC3788BD 		.ascii	"\2747\210\275\"\256\026G1\001`\232\024\335\220!nH\010"
 508      22AE1647 
 508      3101609A 
 508      14DD9021 
ARM GAS  C:\Users\Bruger\AppData\Local\Temp\cc3c8GDn.s 			page 39


 508      6E4808
 509 0463 3B53FE7D 		.ascii	";S\376}\373$\306y\014\221\225^pS\313\304<Y\274Q\366"
 509      FB24C679 
 509      0C91955E 
 509      7053CBC4 
 509      3C59BC51 
 510 0478 B2246DDF 		.ascii	"\262$m\337\224AnJ\2206\012\261\245\273\262\265\270\225"
 510      94416E4A 
 510      90360AB1 
 510      A5BBB2B5 
 510      B895
 511 048a 4126F39B 		.ascii	"A&\363\233JE\021\345\227\304\311\232!G\342\226\014r"
 511      4A4511E5 
 511      97C4C99A 
 511      2147E296 
 511      0C72
 512 049c 4B82DCA6 		.ascii	"K\202\334\246\020\307\316\201.\177<\314 c\005\211\215"
 512      10C7CE81 
 512      2E7F3CCC 
 512      20630589 
 512      8D
 513 04ad 81AC9981 		.ascii	"\201\254\231\201\022O3\004\321.C\264K\210;\354\215\371"
 513      124F3304 
 513      D12E43B4 
 513      4B883BEC 
 513      8DF9
 514 04bf 77DD3903 		.ascii	"w\3359\003N\325R\304\376\216\356B\261\231\241\322\337"
 514      4ED552C4 
 514      FE8EEE42 
 514      B199A1D2 
 514      DF
 515 04d0 64CD1088 		.ascii	"d\315\020\210C\006qH\220\016\012\031\312+\264\006\341"
 515      43067148 
 515      900E0A19 
 515      CA2BB406 
 515      E1
 516 04e1 1C06399E 		.ascii	"\034\0069\236V\346\240J\020\\\023\205/\247\377\221\220"
 516      56E6A04A 
 516      105C1385 
 516      2FA7FF91 
 516      90
 517 04f2 C694C046 		.ascii	"\306\224\300FrWF\271+Q\356QJ\313\303g\207\364\330\301"
 517      725746B9 
 517      2B51EE51 
 517      4ACBC367 
 517      87F4D8C1 
 518 0506 289D6772 		.ascii	"(\235gr\242)\304\371\252\207\257\226\357L\247\214\320"
 518      A229C4F9 
 518      AA87AF96 
 518      EF4CA78C 
 518      D0
 519 0517 29119C94 		.ascii	")\021\234\224\320\272\333\271-\000\2172\302+\207\265"
 519      D0BADBB9 
 519      2D008F32 
 519      C22B87B5 
 520 0527 987C2741 		.ascii	"\230|'APT<;/\026_\013\236{T\310>f\255H\373\305\266U"
 520      50543C3B 
ARM GAS  C:\Users\Bruger\AppData\Local\Temp\cc3c8GDn.s 			page 40


 520      2F165F0B 
 520      9E7B54C8 
 520      3E66AD48 
 521 053f A0BD51BD 		.ascii	"\240\275Q\275u1\244x\2508\262\206\277\335\344%\334\203"
 521      7531A478 
 521      A838B286 
 521      BFDDE425 
 521      DC83
 522 0551 E642AC70 		.ascii	"\346B\254pp\347\211\000\234\352\307\224\367,\265d\232"
 522      70E78900 
 522      9CEAC794 
 522      F72CB564 
 522      9A
 523 0562 3E99BCB0 		.ascii	">\231\274\260\337}\030\341\370\332\233S\333\002\331"
 523      DF7D18E1 
 523      F8DA9B53 
 523      DB02D9
 524 0571 F1F58EB8 		.ascii	"\361\365\216\270\357\363\370\326\216~\275\035\216o?"
 524      EFF3F8D6 
 524      8E7EBD1D 
 524      8E6F3F
 525 0580 54D7EB39 		.ascii	"T\327\3539\276}\310s~S\272\263\232\014\206T\362N\200"
 525      BE7DC873 
 525      7E53BAB3 
 525      9A0C8654 
 525      F24E80
 526 0593 9313581F 		.ascii	"\223\023X\037L\235=Gg\000\031\350h\340?\321}\263\343"
 526      4C9D3D47 
 526      670019E8 
 526      68E03FD1 
 526      7DB3E3
 527 05a6 1EC67B59 		.ascii	"\036\306{Y\007\256\344\335\203Z\326\301\024\277:\232"
 527      07AEE4DD 
 527      835AD6C1 
 527      14BF3A9A 
 528 05b6 837977B3 		.ascii	"\203yw\263\220\3709\313n\234\216\320\020${\340\251\354"
 528      90F839CB 
 528      6E9C8ED0 
 528      10247BE0 
 528      A9EC
 529 05c8 21F27CCB 		.ascii	"!\362|\313T\250\203\352\337\262\234}uX\321\302\220\242"
 529      54A883EA 
 529      DFB29C7D 
 529      7558D1C2 
 529      90A2
 530 05da 8547620B 		.ascii	"\205Gb\013\217h\013\343G\273\372\247+\274\211\034<\336"
 530      8F680BE3 
 530      47BBFAA7 
 530      2BBC891C 
 530      3CDE
 531 05ec C3A2F730 		.ascii	"\303\242\3670\365NK\377\263\"P\341\335\244\360~,z?\246"
 531      F54E4BFF 
 531      B32250E1 
 531      DDA4F07E 
 531      2C7A3FA6 
 532 0600 DEBB069E 		.ascii	"\336\273\006\236\036\017\222&\222<\245\332s\253K\376"
 532      1E0F9226 
ARM GAS  C:\Users\Bruger\AppData\Local\Temp\cc3c8GDn.s 			page 41


 532      923CA5DA 
 532      73AB4BFE 
 533 0610 0A522470 		.ascii	"\012R$p)\212\037\021\023\214\320\004]iue\201\222h\222"
 533      298A1F11 
 533      138CD004 
 533      5D697565 
 533      81926892 
 534 0624 DF2101F2 		.ascii	"\337!\001\362m\312\334\177z\232\202>\252\240?\021\351"
 534      6DCADC7F 
 534      7A9A823E 
 534      AAA03F11 
 534      E9
 535 0635 4F28FDE0 		.ascii	"O(\375\340\021\327\204\262Y\345ktL\364\036\243\336\367"
 535      11D784B2 
 535      59E56B74 
 535      4CF41EA3 
 535      DEF7
 536 0647 326DA95A 		.ascii	"2m\251Z\205w\256b4O\221A\332V\370\311}\260jC\214\311"
 536      8577AE62 
 536      344F9141 
 536      DA56F8C9 
 536      7DB06A43 
 537 065d 628A8DF9 		.ascii	"b\212\215\371\301\264\2117\257[\264n\025,u+\277\373"
 537      C1B48937 
 537      AF5BB46E 
 537      152C752B 
 537      BFFB
 538 066f 31348C9B 		.ascii	"14\214\233\277\222\217\341\315F\013\037\265.\"6\336"
 538      BF928FE1 
 538      CD460B1F 
 538      B52E2236 
 538      DE
 539 0680 1CC9AF0D 		.ascii	"\034\311\257\015\217\210\015\373b\255W\310\302Hn\246"
 539      8F880DFB 
 539      62AD57C8 
 539      C2486EA6 
 540 0690 3725C262 		.ascii	"7%\302b4[B\274\357.\2171\256\217\346\337H\031a\211\215"
 540      345B42BC 
 540      EF2E8F31 
 540      AE8FE6DF 
 540      48196189 
 541 06a5 D3C59B62 		.ascii	"\323\305\233b,\213\026\177\352#e\344\026\313\2268~\363"
 541      2C8B167F 
 541      EA2365E4 
 541      16CB9638 
 541      7EF3
 542 06b7 C28DDC27 		.ascii	"\302\215\334'\336\321?\233M\026>,6>\306\302\233?\366"
 542      DED13F9B 
 542      4D163E2C 
 542      363EC6C2 
 542      9B3FF6
 543 06ca 7EB89A37 		.ascii	"~\270\2327F\211\317>\362~\026\026\315\033\315+V\255"
 543      4689CF3E 
 543      F27E1616 
 543      CD1BCD2B 
 543      56AD
 544 06dc F8FE8D28 		.ascii	"\370\376\215(\212\014\347\315\246\330(_\3516\305\031"
ARM GAS  C:\Users\Bruger\AppData\Local\Temp\cc3c8GDn.s 			page 42


 544      8A0CE7CD 
 544      A6D8285F 
 544      E936C519 
 545 06ec CDBC1F29 		.ascii	"\315\274\037)zI\350\033\375\360\226U$\2439>\316\362"
 545      7A49E81B 
 545      FDF09655 
 545      24A3393E 
 545      CEF2
 546 06fe 6D6C14FF 		.ascii	"ml\024\377\231ZU0!K\374\346\325\374\006\323fp\235\253"
 546      995A5530 
 546      214BFCE6 
 546      D5FC06D3 
 546      66709DAB 
 547 0712 5E788CC5 		.ascii	"^x\214\305\034\033-\371|\356\243\024\205\223\372\004"
 547      1C1B2DF9 
 547      7CEEA314 
 547      8593FA04 
 548 0722 8C719678 		.ascii	"\214q\226x3\357c:\264\225\331j\317\330\010f\206mY\376"
 548      33EF633A 
 548      B495D96A 
 548      CFD80866 
 548      866D59FE 
 549 0736 BBC91206 		.ascii	"\273\311\022\006\331L\221\306\350\010>\222\370\315\361"
 549      D94C91C6 
 549      E8083E92 
 549      F8CDF1
 550 0745 B153615B 		.ascii	"\261Sa[\2761\255\207}\012\201(2\004\257\260Y\336yL\260"
 550      BE31AD87 
 550      7D0A8128 
 550      3204AFB0 
 550      59DE794C 
 551 075a FCC968D6 		.ascii	"\374\311h\326\232\371\015K\374\340\317\242\305\377\003"
 551      9AF90D4B 
 551      FCE0CFA2 
 551      C5FF03
 552 0769 3D9ABA85 		.ascii	"=\232\272\205"
 553              		.text
 554              		.section	.gnu.lto_.symtab.24c1564d,"",%progbits
 555 0000 49676E69 		.ascii	"IgnitionTimer_1_Init\000\000\000\000\000\000\000\000"
 555      74696F6E 
 555      54696D65 
 555      725F315F 
 555      496E6974 
 556 001c 00000000 		.ascii	"\000\000\000\000\254\000\000\000IgnitionTimer_1_Sta"
 556      AC000000 
 556      49676E69 
 556      74696F6E 
 556      54696D65 
 557 0037 72740000 		.ascii	"rt\000\000\000\000\000\000\000\000\000\000\000\000\256"
 557      00000000 
 557      00000000 
 557      0000AE
 558 0046 00000049 		.ascii	"\000\000\000IgnitionTimer_1_initVar\000\000\000\000"
 558      676E6974 
 558      696F6E54 
 558      696D6572 
 558      5F315F69 
ARM GAS  C:\Users\Bruger\AppData\Local\Temp\cc3c8GDn.s 			page 43


 559 0064 00000000 		.ascii	"\000\000\000\000\000\000\000\000\343\000\000\000Ign"
 559      00000000 
 559      E3000000 
 559      49676E
 560 0073 6974696F 		.ascii	"itionTimer_1_Enable\000\000\000\000\000\000\000\000"
 560      6E54696D 
 560      65725F31 
 560      5F456E61 
 560      626C6500 
 561 008e 00000000 		.ascii	"\000\000\000\000\260\000\000\000IgnitionTimer_1_Sto"
 561      B0000000 
 561      49676E69 
 561      74696F6E 
 561      54696D65 
 562 00a9 70000000 		.ascii	"p\000\000\000\000\000\000\000\000\000\000\000\000\262"
 562      00000000 
 562      00000000 
 562      00B2
 563 00b7 00000049 		.ascii	"\000\000\000IgnitionTimer_1_WriteCounter\000\000\000"
 563      676E6974 
 563      696F6E54 
 563      696D6572 
 563      5F315F57 
 564 00d9 00000000 		.ascii	"\000\000\000\000\000\000\000\000\000\275\000\000\000"
 564      00000000 
 564      00BD0000 
 564      00
 565 00e6 49676E69 		.ascii	"IgnitionTimer_1_ReadCounter\000\000\000\000\000\000"
 565      74696F6E 
 565      54696D65 
 565      725F315F 
 565      52656164 
 566 0107 00000000 		.ascii	"\000\000\000\000\000\000\300\000\000\000IgnitionTim"
 566      0000C000 
 566      00004967 
 566      6E697469 
 566      6F6E5469 
 567 011c 65725F31 		.ascii	"er_1_ClearFIFO\000\000\000\000\000\000\000\000\000\000"
 567      5F436C65 
 567      61724649 
 567      464F0000 
 567      00000000 
 568 0134 0000C200 		.ascii	"\000\000\302\000\000\000IgnitionTimer_1_WritePeriod"
 568      00004967 
 568      6E697469 
 568      6F6E5469 
 568      6D65725F 
 569 0155 00000000 		.ascii	"\000\000\000\000\000\000\000\000\000\000\000\000\304"
 569      00000000 
 569      00000000 
 569      C4
 570 0162 00000049 		.ascii	"\000\000\000IgnitionTimer_1_WriteCompare\000\000\000"
 570      676E6974 
 570      696F6E54 
 570      696D6572 
 570      5F315F57 
 571 0184 00000000 		.ascii	"\000\000\000\000\000\000\000\000\000\306\000\000\000"
ARM GAS  C:\Users\Bruger\AppData\Local\Temp\cc3c8GDn.s 			page 44


 571      00000000 
 571      00C60000 
 571      00
 572 0191 49676E69 		.ascii	"IgnitionTimer_1_SetInterruptMode\000\000\000\000\000"
 572      74696F6E 
 572      54696D65 
 572      725F315F 
 572      53657449 
 573 01b6 00000000 		.ascii	"\000\000\000\000\000\000\000\317\000\000\000Ignitio"
 573      000000CF 
 573      00000049 
 573      676E6974 
 573      696F
 574 01c8 6E54696D 		.ascii	"nTimer_1_ReadStatusRegister\000\000\000\000\000\000"
 574      65725F31 
 574      5F526561 
 574      64537461 
 574      74757352 
 575 01e9 00000000 		.ascii	"\000\000\000\000\000\000\322\000\000\000IgnitionTim"
 575      0000D200 
 575      00004967 
 575      6E697469 
 575      6F6E5469 
 576 01fe 65725F31 		.ascii	"er_1_ReadControlRegister\000\000\000\000\000\000\000"
 576      5F526561 
 576      64436F6E 
 576      74726F6C 
 576      52656769 
 577 021d 00000000 		.ascii	"\000\000\000\000\000\324\000\000\000IgnitionTimer_1"
 577      00D40000 
 577      0049676E 
 577      6974696F 
 577      6E54696D 
 578 0235 5F577269 		.ascii	"_WriteControlRegister\000\000\000\000\000\000\000\000"
 578      7465436F 
 578      6E74726F 
 578      6C526567 
 578      69737465 
 579 0252 00000000 		.ascii	"\000\000\000\000\326\000\000\000IgnitionTimer_1_Rea"
 579      D6000000 
 579      49676E69 
 579      74696F6E 
 579      54696D65 
 580 026d 64436170 		.ascii	"dCapture\000\000\000\000\000\000\000\000\000\000\000"
 580      74757265 
 580      00000000 
 580      00000000 
 580      000000
 581 0280 00D80000 		.ascii	"\000\330\000\000\000IgnitionTimer_1_ReadCompare\000"
 581      0049676E 
 581      6974696F 
 581      6E54696D 
 581      65725F31 
 582 02a1 00000000 		.ascii	"\000\000\000\000\000\000\000\000\000\000\000\332\000"
 582      00000000 
 582      000000DA 
 582      00
ARM GAS  C:\Users\Bruger\AppData\Local\Temp\cc3c8GDn.s 			page 45


 583 02ae 00004967 		.ascii	"\000\000IgnitionTimer_1_ReadPeriod\000\000\000\000\000"
 583      6E697469 
 583      6F6E5469 
 583      6D65725F 
 583      315F5265 
 584 02cf 00000000 		.ascii	"\000\000\000\000\000\000\000\334\000\000\000CyExitC"
 584      000000DC 
 584      00000043 
 584      79457869 
 584      7443
 585 02e1 72697469 		.ascii	"riticalSection\000\000\002\000\000\000\000\000\000\000"
 585      63616C53 
 585      65637469 
 585      6F6E0000 
 585      02000000 
 586 02f9 0000DE00 		.ascii	"\000\000\336\000\000\000CyEnterCriticalSection\000\000"
 586      00004379 
 586      456E7465 
 586      72437269 
 586      74696361 
 587 0317 02000000 		.ascii	"\002\000\000\000\000\000\000\000\000\000\340\000\000"
 587      00000000 
 587      0000E000 
 587      00
 588 0324 00       		.ascii	"\000"
 589              		.text
 590              		.section	.gnu.lto_.opts,"",%progbits
 591 0000 272D666E 		.ascii	"'-fno-trapv' '-mcpu=cortex-m3' '-mthumb' '-g' '-O3'"
 591      6F2D7472 
 591      61707627 
 591      20272D6D 
 591      6370753D 
 592 0033 20272D66 		.ascii	" '-ffunction-sections' '-finline-functions' '-flto'"
 592      66756E63 
 592      74696F6E 
 592      2D736563 
 592      74696F6E 
 593 0066 20272D66 		.ascii	" '-ffat-lto-objects'\000"
 593      6661742D 
 593      6C746F2D 
 593      6F626A65 
 593      63747327 
 594              		.text
 595              		.cfi_sections	.debug_frame
 596              		.section	.text.IgnitionTimer_1_Start,"ax",%progbits
 597              		.align	2
 598              		.global	IgnitionTimer_1_Start
 599              		.thumb
 600              		.thumb_func
 601              		.type	IgnitionTimer_1_Start, %function
 602              	IgnitionTimer_1_Start:
 603              	.LFB0:
 604              		.file 1 "Generated_Source\\PSoC5\\IgnitionTimer_1.c"
   1:Generated_Source\PSoC5/IgnitionTimer_1.c **** /*******************************************************************************
   2:Generated_Source\PSoC5/IgnitionTimer_1.c **** * File Name: IgnitionTimer_1.c
   3:Generated_Source\PSoC5/IgnitionTimer_1.c **** * Version 3.30
   4:Generated_Source\PSoC5/IgnitionTimer_1.c **** *
ARM GAS  C:\Users\Bruger\AppData\Local\Temp\cc3c8GDn.s 			page 46


   5:Generated_Source\PSoC5/IgnitionTimer_1.c **** * Description:
   6:Generated_Source\PSoC5/IgnitionTimer_1.c **** *  The PWM User Module consist of an 8 or 16-bit counter with two 8 or 16-bit
   7:Generated_Source\PSoC5/IgnitionTimer_1.c **** *  comparitors. Each instance of this user module is capable of generating
   8:Generated_Source\PSoC5/IgnitionTimer_1.c **** *  two PWM outputs with the same period. The pulse width is selectable between
   9:Generated_Source\PSoC5/IgnitionTimer_1.c **** *  1 and 255/65535. The period is selectable between 2 and 255/65536 clocks.
  10:Generated_Source\PSoC5/IgnitionTimer_1.c **** *  The compare value output may be configured to be active when the present
  11:Generated_Source\PSoC5/IgnitionTimer_1.c **** *  counter is less than or less than/equal to the compare value.
  12:Generated_Source\PSoC5/IgnitionTimer_1.c **** *  A terminal count output is also provided. It generates a pulse one clock
  13:Generated_Source\PSoC5/IgnitionTimer_1.c **** *  width wide when the counter is equal to zero.
  14:Generated_Source\PSoC5/IgnitionTimer_1.c **** *
  15:Generated_Source\PSoC5/IgnitionTimer_1.c **** * Note:
  16:Generated_Source\PSoC5/IgnitionTimer_1.c **** *
  17:Generated_Source\PSoC5/IgnitionTimer_1.c **** *******************************************************************************
  18:Generated_Source\PSoC5/IgnitionTimer_1.c **** * Copyright 2008-2014, Cypress Semiconductor Corporation.  All rights reserved.
  19:Generated_Source\PSoC5/IgnitionTimer_1.c **** * You may use this file only in accordance with the license, terms, conditions,
  20:Generated_Source\PSoC5/IgnitionTimer_1.c **** * disclaimers, and limitations in the end user license agreement accompanying
  21:Generated_Source\PSoC5/IgnitionTimer_1.c **** * the software package with which this file was provided.
  22:Generated_Source\PSoC5/IgnitionTimer_1.c **** ********************************************************************************/
  23:Generated_Source\PSoC5/IgnitionTimer_1.c **** 
  24:Generated_Source\PSoC5/IgnitionTimer_1.c **** #include "IgnitionTimer_1.h"
  25:Generated_Source\PSoC5/IgnitionTimer_1.c **** 
  26:Generated_Source\PSoC5/IgnitionTimer_1.c **** /* Error message for removed <resource> through optimization */
  27:Generated_Source\PSoC5/IgnitionTimer_1.c **** #ifdef IgnitionTimer_1_PWMUDB_genblk1_ctrlreg__REMOVED
  28:Generated_Source\PSoC5/IgnitionTimer_1.c ****     #error PWM_v3_30 detected with a constant 0 for the enable or \
  29:Generated_Source\PSoC5/IgnitionTimer_1.c ****          constant 1 for reset. This will prevent the component from operating.
  30:Generated_Source\PSoC5/IgnitionTimer_1.c **** #endif /* IgnitionTimer_1_PWMUDB_genblk1_ctrlreg__REMOVED */
  31:Generated_Source\PSoC5/IgnitionTimer_1.c **** 
  32:Generated_Source\PSoC5/IgnitionTimer_1.c **** uint8 IgnitionTimer_1_initVar = 0u;
  33:Generated_Source\PSoC5/IgnitionTimer_1.c **** 
  34:Generated_Source\PSoC5/IgnitionTimer_1.c **** 
  35:Generated_Source\PSoC5/IgnitionTimer_1.c **** /*******************************************************************************
  36:Generated_Source\PSoC5/IgnitionTimer_1.c **** * Function Name: IgnitionTimer_1_Start
  37:Generated_Source\PSoC5/IgnitionTimer_1.c **** ********************************************************************************
  38:Generated_Source\PSoC5/IgnitionTimer_1.c **** *
  39:Generated_Source\PSoC5/IgnitionTimer_1.c **** * Summary:
  40:Generated_Source\PSoC5/IgnitionTimer_1.c **** *  The start function initializes the pwm with the default values, the
  41:Generated_Source\PSoC5/IgnitionTimer_1.c **** *  enables the counter to begin counting.  It does not enable interrupts,
  42:Generated_Source\PSoC5/IgnitionTimer_1.c **** *  the EnableInt command should be called if interrupt generation is required.
  43:Generated_Source\PSoC5/IgnitionTimer_1.c **** *
  44:Generated_Source\PSoC5/IgnitionTimer_1.c **** * Parameters:
  45:Generated_Source\PSoC5/IgnitionTimer_1.c **** *  None
  46:Generated_Source\PSoC5/IgnitionTimer_1.c **** *
  47:Generated_Source\PSoC5/IgnitionTimer_1.c **** * Return:
  48:Generated_Source\PSoC5/IgnitionTimer_1.c **** *  None
  49:Generated_Source\PSoC5/IgnitionTimer_1.c **** *
  50:Generated_Source\PSoC5/IgnitionTimer_1.c **** * Global variables:
  51:Generated_Source\PSoC5/IgnitionTimer_1.c **** *  IgnitionTimer_1_initVar: Is modified when this function is called for the
  52:Generated_Source\PSoC5/IgnitionTimer_1.c **** *   first time. Is used to ensure that initialization happens only once.
  53:Generated_Source\PSoC5/IgnitionTimer_1.c **** *
  54:Generated_Source\PSoC5/IgnitionTimer_1.c **** *******************************************************************************/
  55:Generated_Source\PSoC5/IgnitionTimer_1.c **** void IgnitionTimer_1_Start(void) 
  56:Generated_Source\PSoC5/IgnitionTimer_1.c **** {
 605              		.loc 1 56 0
 606              		.cfi_startproc
 607              		@ args = 0, pretend = 0, frame = 0
 608              		@ frame_needed = 0, uses_anonymous_args = 0
 609 0000 2DE9F041 		push	{r4, r5, r6, r7, r8, lr}
ARM GAS  C:\Users\Bruger\AppData\Local\Temp\cc3c8GDn.s 			page 47


 610              		.cfi_def_cfa_offset 24
 611              		.cfi_offset 4, -24
 612              		.cfi_offset 5, -20
 613              		.cfi_offset 6, -16
 614              		.cfi_offset 7, -12
 615              		.cfi_offset 8, -8
 616              		.cfi_offset 14, -4
  57:Generated_Source\PSoC5/IgnitionTimer_1.c ****     /* If not Initialized then initialize all required hardware and software */
  58:Generated_Source\PSoC5/IgnitionTimer_1.c ****     if(IgnitionTimer_1_initVar == 0u)
 617              		.loc 1 58 0
 618 0004 1F4C     		ldr	r4, .L13
 619 0006 2378     		ldrb	r3, [r4]	@ zero_extendqisi2
 620 0008 33B1     		cbz	r3, .L12
 621              	.L2:
 622              	.LBB40:
 623              	.LBB41:
  59:Generated_Source\PSoC5/IgnitionTimer_1.c ****     {
  60:Generated_Source\PSoC5/IgnitionTimer_1.c ****         IgnitionTimer_1_Init();
  61:Generated_Source\PSoC5/IgnitionTimer_1.c ****         IgnitionTimer_1_initVar = 1u;
  62:Generated_Source\PSoC5/IgnitionTimer_1.c ****     }
  63:Generated_Source\PSoC5/IgnitionTimer_1.c ****     IgnitionTimer_1_Enable();
  64:Generated_Source\PSoC5/IgnitionTimer_1.c **** 
  65:Generated_Source\PSoC5/IgnitionTimer_1.c **** }
  66:Generated_Source\PSoC5/IgnitionTimer_1.c **** 
  67:Generated_Source\PSoC5/IgnitionTimer_1.c **** 
  68:Generated_Source\PSoC5/IgnitionTimer_1.c **** /*******************************************************************************
  69:Generated_Source\PSoC5/IgnitionTimer_1.c **** * Function Name: IgnitionTimer_1_Init
  70:Generated_Source\PSoC5/IgnitionTimer_1.c **** ********************************************************************************
  71:Generated_Source\PSoC5/IgnitionTimer_1.c **** *
  72:Generated_Source\PSoC5/IgnitionTimer_1.c **** * Summary:
  73:Generated_Source\PSoC5/IgnitionTimer_1.c **** *  Initialize component's parameters to the parameters set by user in the
  74:Generated_Source\PSoC5/IgnitionTimer_1.c **** *  customizer of the component placed onto schematic. Usually called in
  75:Generated_Source\PSoC5/IgnitionTimer_1.c **** *  IgnitionTimer_1_Start().
  76:Generated_Source\PSoC5/IgnitionTimer_1.c **** *
  77:Generated_Source\PSoC5/IgnitionTimer_1.c **** * Parameters:
  78:Generated_Source\PSoC5/IgnitionTimer_1.c **** *  None
  79:Generated_Source\PSoC5/IgnitionTimer_1.c **** *
  80:Generated_Source\PSoC5/IgnitionTimer_1.c **** * Return:
  81:Generated_Source\PSoC5/IgnitionTimer_1.c **** *  None
  82:Generated_Source\PSoC5/IgnitionTimer_1.c **** *
  83:Generated_Source\PSoC5/IgnitionTimer_1.c **** *******************************************************************************/
  84:Generated_Source\PSoC5/IgnitionTimer_1.c **** void IgnitionTimer_1_Init(void) 
  85:Generated_Source\PSoC5/IgnitionTimer_1.c **** {
  86:Generated_Source\PSoC5/IgnitionTimer_1.c ****     #if (IgnitionTimer_1_UsingFixedFunction || IgnitionTimer_1_UseControl)
  87:Generated_Source\PSoC5/IgnitionTimer_1.c ****         uint8 ctrl;
  88:Generated_Source\PSoC5/IgnitionTimer_1.c ****     #endif /* (IgnitionTimer_1_UsingFixedFunction || IgnitionTimer_1_UseControl) */
  89:Generated_Source\PSoC5/IgnitionTimer_1.c **** 
  90:Generated_Source\PSoC5/IgnitionTimer_1.c ****     #if(!IgnitionTimer_1_UsingFixedFunction)
  91:Generated_Source\PSoC5/IgnitionTimer_1.c ****         #if(IgnitionTimer_1_UseStatus)
  92:Generated_Source\PSoC5/IgnitionTimer_1.c ****             /* Interrupt State Backup for Critical Region*/
  93:Generated_Source\PSoC5/IgnitionTimer_1.c ****             uint8 IgnitionTimer_1_interruptState;
  94:Generated_Source\PSoC5/IgnitionTimer_1.c ****         #endif /* (IgnitionTimer_1_UseStatus) */
  95:Generated_Source\PSoC5/IgnitionTimer_1.c ****     #endif /* (!IgnitionTimer_1_UsingFixedFunction) */
  96:Generated_Source\PSoC5/IgnitionTimer_1.c **** 
  97:Generated_Source\PSoC5/IgnitionTimer_1.c ****     #if (IgnitionTimer_1_UsingFixedFunction)
  98:Generated_Source\PSoC5/IgnitionTimer_1.c ****         /* You are allowed to write the compare value (FF only) */
  99:Generated_Source\PSoC5/IgnitionTimer_1.c ****         IgnitionTimer_1_CONTROL |= IgnitionTimer_1_CFG0_MODE;
ARM GAS  C:\Users\Bruger\AppData\Local\Temp\cc3c8GDn.s 			page 48


 100:Generated_Source\PSoC5/IgnitionTimer_1.c ****         #if (IgnitionTimer_1_DeadBand2_4)
 101:Generated_Source\PSoC5/IgnitionTimer_1.c ****             IgnitionTimer_1_CONTROL |= IgnitionTimer_1_CFG0_DB;
 102:Generated_Source\PSoC5/IgnitionTimer_1.c ****         #endif /* (IgnitionTimer_1_DeadBand2_4) */
 103:Generated_Source\PSoC5/IgnitionTimer_1.c **** 
 104:Generated_Source\PSoC5/IgnitionTimer_1.c ****         ctrl = IgnitionTimer_1_CONTROL3 & ((uint8 )(~IgnitionTimer_1_CTRL_CMPMODE1_MASK));
 105:Generated_Source\PSoC5/IgnitionTimer_1.c ****         IgnitionTimer_1_CONTROL3 = ctrl | IgnitionTimer_1_DEFAULT_COMPARE1_MODE;
 106:Generated_Source\PSoC5/IgnitionTimer_1.c **** 
 107:Generated_Source\PSoC5/IgnitionTimer_1.c ****          /* Clear and Set SYNCTC and SYNCCMP bits of RT1 register */
 108:Generated_Source\PSoC5/IgnitionTimer_1.c ****         IgnitionTimer_1_RT1 &= ((uint8)(~IgnitionTimer_1_RT1_MASK));
 109:Generated_Source\PSoC5/IgnitionTimer_1.c ****         IgnitionTimer_1_RT1 |= IgnitionTimer_1_SYNC;
 110:Generated_Source\PSoC5/IgnitionTimer_1.c **** 
 111:Generated_Source\PSoC5/IgnitionTimer_1.c ****         /*Enable DSI Sync all all inputs of the PWM*/
 112:Generated_Source\PSoC5/IgnitionTimer_1.c ****         IgnitionTimer_1_RT1 &= ((uint8)(~IgnitionTimer_1_SYNCDSI_MASK));
 113:Generated_Source\PSoC5/IgnitionTimer_1.c ****         IgnitionTimer_1_RT1 |= IgnitionTimer_1_SYNCDSI_EN;
 114:Generated_Source\PSoC5/IgnitionTimer_1.c **** 
 115:Generated_Source\PSoC5/IgnitionTimer_1.c ****     #elif (IgnitionTimer_1_UseControl)
 116:Generated_Source\PSoC5/IgnitionTimer_1.c ****         /* Set the default compare mode defined in the parameter */
 117:Generated_Source\PSoC5/IgnitionTimer_1.c ****         ctrl = IgnitionTimer_1_CONTROL & ((uint8)(~IgnitionTimer_1_CTRL_CMPMODE2_MASK)) &
 118:Generated_Source\PSoC5/IgnitionTimer_1.c ****                 ((uint8)(~IgnitionTimer_1_CTRL_CMPMODE1_MASK));
 119:Generated_Source\PSoC5/IgnitionTimer_1.c ****         IgnitionTimer_1_CONTROL = ctrl | IgnitionTimer_1_DEFAULT_COMPARE2_MODE |
 120:Generated_Source\PSoC5/IgnitionTimer_1.c ****                                    IgnitionTimer_1_DEFAULT_COMPARE1_MODE;
 121:Generated_Source\PSoC5/IgnitionTimer_1.c ****     #endif /* (IgnitionTimer_1_UsingFixedFunction) */
 122:Generated_Source\PSoC5/IgnitionTimer_1.c **** 
 123:Generated_Source\PSoC5/IgnitionTimer_1.c ****     #if (!IgnitionTimer_1_UsingFixedFunction)
 124:Generated_Source\PSoC5/IgnitionTimer_1.c ****         #if (IgnitionTimer_1_Resolution == 8)
 125:Generated_Source\PSoC5/IgnitionTimer_1.c ****             /* Set FIFO 0 to 1 byte register for period*/
 126:Generated_Source\PSoC5/IgnitionTimer_1.c ****             IgnitionTimer_1_AUX_CONTROLDP0 |= (IgnitionTimer_1_AUX_CTRL_FIFO0_CLR);
 127:Generated_Source\PSoC5/IgnitionTimer_1.c ****         #else /* (IgnitionTimer_1_Resolution == 16)*/
 128:Generated_Source\PSoC5/IgnitionTimer_1.c ****             /* Set FIFO 0 to 1 byte register for period */
 129:Generated_Source\PSoC5/IgnitionTimer_1.c ****             IgnitionTimer_1_AUX_CONTROLDP0 |= (IgnitionTimer_1_AUX_CTRL_FIFO0_CLR);
 130:Generated_Source\PSoC5/IgnitionTimer_1.c ****             IgnitionTimer_1_AUX_CONTROLDP1 |= (IgnitionTimer_1_AUX_CTRL_FIFO0_CLR);
 131:Generated_Source\PSoC5/IgnitionTimer_1.c ****         #endif /* (IgnitionTimer_1_Resolution == 8) */
 132:Generated_Source\PSoC5/IgnitionTimer_1.c **** 
 133:Generated_Source\PSoC5/IgnitionTimer_1.c ****         IgnitionTimer_1_WriteCounter(IgnitionTimer_1_INIT_PERIOD_VALUE);
 134:Generated_Source\PSoC5/IgnitionTimer_1.c ****     #endif /* (!IgnitionTimer_1_UsingFixedFunction) */
 135:Generated_Source\PSoC5/IgnitionTimer_1.c **** 
 136:Generated_Source\PSoC5/IgnitionTimer_1.c ****     IgnitionTimer_1_WritePeriod(IgnitionTimer_1_INIT_PERIOD_VALUE);
 137:Generated_Source\PSoC5/IgnitionTimer_1.c **** 
 138:Generated_Source\PSoC5/IgnitionTimer_1.c ****         #if (IgnitionTimer_1_UseOneCompareMode)
 139:Generated_Source\PSoC5/IgnitionTimer_1.c ****             IgnitionTimer_1_WriteCompare(IgnitionTimer_1_INIT_COMPARE_VALUE1);
 140:Generated_Source\PSoC5/IgnitionTimer_1.c ****         #else
 141:Generated_Source\PSoC5/IgnitionTimer_1.c ****             IgnitionTimer_1_WriteCompare1(IgnitionTimer_1_INIT_COMPARE_VALUE1);
 142:Generated_Source\PSoC5/IgnitionTimer_1.c ****             IgnitionTimer_1_WriteCompare2(IgnitionTimer_1_INIT_COMPARE_VALUE2);
 143:Generated_Source\PSoC5/IgnitionTimer_1.c ****         #endif /* (IgnitionTimer_1_UseOneCompareMode) */
 144:Generated_Source\PSoC5/IgnitionTimer_1.c **** 
 145:Generated_Source\PSoC5/IgnitionTimer_1.c ****         #if (IgnitionTimer_1_KillModeMinTime)
 146:Generated_Source\PSoC5/IgnitionTimer_1.c ****             IgnitionTimer_1_WriteKillTime(IgnitionTimer_1_MinimumKillTime);
 147:Generated_Source\PSoC5/IgnitionTimer_1.c ****         #endif /* (IgnitionTimer_1_KillModeMinTime) */
 148:Generated_Source\PSoC5/IgnitionTimer_1.c **** 
 149:Generated_Source\PSoC5/IgnitionTimer_1.c ****         #if (IgnitionTimer_1_DeadBandUsed)
 150:Generated_Source\PSoC5/IgnitionTimer_1.c ****             IgnitionTimer_1_WriteDeadTime(IgnitionTimer_1_INIT_DEAD_TIME);
 151:Generated_Source\PSoC5/IgnitionTimer_1.c ****         #endif /* (IgnitionTimer_1_DeadBandUsed) */
 152:Generated_Source\PSoC5/IgnitionTimer_1.c **** 
 153:Generated_Source\PSoC5/IgnitionTimer_1.c ****     #if (IgnitionTimer_1_UseStatus || IgnitionTimer_1_UsingFixedFunction)
 154:Generated_Source\PSoC5/IgnitionTimer_1.c ****         IgnitionTimer_1_SetInterruptMode(IgnitionTimer_1_INIT_INTERRUPTS_MODE);
 155:Generated_Source\PSoC5/IgnitionTimer_1.c ****     #endif /* (IgnitionTimer_1_UseStatus || IgnitionTimer_1_UsingFixedFunction) */
 156:Generated_Source\PSoC5/IgnitionTimer_1.c **** 
ARM GAS  C:\Users\Bruger\AppData\Local\Temp\cc3c8GDn.s 			page 49


 157:Generated_Source\PSoC5/IgnitionTimer_1.c ****     #if (IgnitionTimer_1_UsingFixedFunction)
 158:Generated_Source\PSoC5/IgnitionTimer_1.c ****         /* Globally Enable the Fixed Function Block chosen */
 159:Generated_Source\PSoC5/IgnitionTimer_1.c ****         IgnitionTimer_1_GLOBAL_ENABLE |= IgnitionTimer_1_BLOCK_EN_MASK;
 160:Generated_Source\PSoC5/IgnitionTimer_1.c ****         /* Set the Interrupt source to come from the status register */
 161:Generated_Source\PSoC5/IgnitionTimer_1.c ****         IgnitionTimer_1_CONTROL2 |= IgnitionTimer_1_CTRL2_IRQ_SEL;
 162:Generated_Source\PSoC5/IgnitionTimer_1.c ****     #else
 163:Generated_Source\PSoC5/IgnitionTimer_1.c ****         #if(IgnitionTimer_1_UseStatus)
 164:Generated_Source\PSoC5/IgnitionTimer_1.c **** 
 165:Generated_Source\PSoC5/IgnitionTimer_1.c ****             /* CyEnterCriticalRegion and CyExitCriticalRegion are used to mark following region cri
 166:Generated_Source\PSoC5/IgnitionTimer_1.c ****             /* Enter Critical Region*/
 167:Generated_Source\PSoC5/IgnitionTimer_1.c ****             IgnitionTimer_1_interruptState = CyEnterCriticalSection();
 168:Generated_Source\PSoC5/IgnitionTimer_1.c ****             /* Use the interrupt output of the status register for IRQ output */
 169:Generated_Source\PSoC5/IgnitionTimer_1.c ****             IgnitionTimer_1_STATUS_AUX_CTRL |= IgnitionTimer_1_STATUS_ACTL_INT_EN_MASK;
 170:Generated_Source\PSoC5/IgnitionTimer_1.c **** 
 171:Generated_Source\PSoC5/IgnitionTimer_1.c ****              /* Exit Critical Region*/
 172:Generated_Source\PSoC5/IgnitionTimer_1.c ****             CyExitCriticalSection(IgnitionTimer_1_interruptState);
 173:Generated_Source\PSoC5/IgnitionTimer_1.c **** 
 174:Generated_Source\PSoC5/IgnitionTimer_1.c ****             /* Clear the FIFO to enable the IgnitionTimer_1_STATUS_FIFOFULL
 175:Generated_Source\PSoC5/IgnitionTimer_1.c ****                    bit to be set on FIFO full. */
 176:Generated_Source\PSoC5/IgnitionTimer_1.c ****             IgnitionTimer_1_ClearFIFO();
 177:Generated_Source\PSoC5/IgnitionTimer_1.c ****         #endif /* (IgnitionTimer_1_UseStatus) */
 178:Generated_Source\PSoC5/IgnitionTimer_1.c ****     #endif /* (IgnitionTimer_1_UsingFixedFunction) */
 179:Generated_Source\PSoC5/IgnitionTimer_1.c **** }
 180:Generated_Source\PSoC5/IgnitionTimer_1.c **** 
 181:Generated_Source\PSoC5/IgnitionTimer_1.c **** 
 182:Generated_Source\PSoC5/IgnitionTimer_1.c **** /*******************************************************************************
 183:Generated_Source\PSoC5/IgnitionTimer_1.c **** * Function Name: IgnitionTimer_1_Enable
 184:Generated_Source\PSoC5/IgnitionTimer_1.c **** ********************************************************************************
 185:Generated_Source\PSoC5/IgnitionTimer_1.c **** *
 186:Generated_Source\PSoC5/IgnitionTimer_1.c **** * Summary:
 187:Generated_Source\PSoC5/IgnitionTimer_1.c **** *  Enables the PWM block operation
 188:Generated_Source\PSoC5/IgnitionTimer_1.c **** *
 189:Generated_Source\PSoC5/IgnitionTimer_1.c **** * Parameters:
 190:Generated_Source\PSoC5/IgnitionTimer_1.c **** *  None
 191:Generated_Source\PSoC5/IgnitionTimer_1.c **** *
 192:Generated_Source\PSoC5/IgnitionTimer_1.c **** * Return:
 193:Generated_Source\PSoC5/IgnitionTimer_1.c **** *  None
 194:Generated_Source\PSoC5/IgnitionTimer_1.c **** *
 195:Generated_Source\PSoC5/IgnitionTimer_1.c **** * Side Effects:
 196:Generated_Source\PSoC5/IgnitionTimer_1.c **** *  This works only if software enable mode is chosen
 197:Generated_Source\PSoC5/IgnitionTimer_1.c **** *
 198:Generated_Source\PSoC5/IgnitionTimer_1.c **** *******************************************************************************/
 199:Generated_Source\PSoC5/IgnitionTimer_1.c **** void IgnitionTimer_1_Enable(void) 
 200:Generated_Source\PSoC5/IgnitionTimer_1.c **** {
 201:Generated_Source\PSoC5/IgnitionTimer_1.c ****     /* Globally Enable the Fixed Function Block chosen */
 202:Generated_Source\PSoC5/IgnitionTimer_1.c ****     #if (IgnitionTimer_1_UsingFixedFunction)
 203:Generated_Source\PSoC5/IgnitionTimer_1.c ****         IgnitionTimer_1_GLOBAL_ENABLE |= IgnitionTimer_1_BLOCK_EN_MASK;
 204:Generated_Source\PSoC5/IgnitionTimer_1.c ****         IgnitionTimer_1_GLOBAL_STBY_ENABLE |= IgnitionTimer_1_BLOCK_STBY_EN_MASK;
 205:Generated_Source\PSoC5/IgnitionTimer_1.c ****     #endif /* (IgnitionTimer_1_UsingFixedFunction) */
 206:Generated_Source\PSoC5/IgnitionTimer_1.c **** 
 207:Generated_Source\PSoC5/IgnitionTimer_1.c ****     /* Enable the PWM from the control register  */
 208:Generated_Source\PSoC5/IgnitionTimer_1.c ****     #if (IgnitionTimer_1_UseControl || IgnitionTimer_1_UsingFixedFunction)
 209:Generated_Source\PSoC5/IgnitionTimer_1.c ****         IgnitionTimer_1_CONTROL |= IgnitionTimer_1_CTRL_ENABLE;
 624              		.loc 1 209 0
 625 000a 1F4A     		ldr	r2, .L13+4
 626 000c 1378     		ldrb	r3, [r2]	@ zero_extendqisi2
 627 000e 43F08003 		orr	r3, r3, #128
ARM GAS  C:\Users\Bruger\AppData\Local\Temp\cc3c8GDn.s 			page 50


 628 0012 1370     		strb	r3, [r2]
 629 0014 BDE8F081 		pop	{r4, r5, r6, r7, r8, pc}
 630              	.L12:
 631              	.LBE41:
 632              	.LBE40:
 633              	.LBB42:
 634              	.LBB43:
 635              	.LBB44:
 636              	.LBB45:
 210:Generated_Source\PSoC5/IgnitionTimer_1.c ****     #endif /* (IgnitionTimer_1_UseControl || IgnitionTimer_1_UsingFixedFunction) */
 211:Generated_Source\PSoC5/IgnitionTimer_1.c **** }
 212:Generated_Source\PSoC5/IgnitionTimer_1.c **** 
 213:Generated_Source\PSoC5/IgnitionTimer_1.c **** 
 214:Generated_Source\PSoC5/IgnitionTimer_1.c **** /*******************************************************************************
 215:Generated_Source\PSoC5/IgnitionTimer_1.c **** * Function Name: IgnitionTimer_1_Stop
 216:Generated_Source\PSoC5/IgnitionTimer_1.c **** ********************************************************************************
 217:Generated_Source\PSoC5/IgnitionTimer_1.c **** *
 218:Generated_Source\PSoC5/IgnitionTimer_1.c **** * Summary:
 219:Generated_Source\PSoC5/IgnitionTimer_1.c **** *  The stop function halts the PWM, but does not change any modes or disable
 220:Generated_Source\PSoC5/IgnitionTimer_1.c **** *  interrupts.
 221:Generated_Source\PSoC5/IgnitionTimer_1.c **** *
 222:Generated_Source\PSoC5/IgnitionTimer_1.c **** * Parameters:
 223:Generated_Source\PSoC5/IgnitionTimer_1.c **** *  None
 224:Generated_Source\PSoC5/IgnitionTimer_1.c **** *
 225:Generated_Source\PSoC5/IgnitionTimer_1.c **** * Return:
 226:Generated_Source\PSoC5/IgnitionTimer_1.c **** *  None
 227:Generated_Source\PSoC5/IgnitionTimer_1.c **** *
 228:Generated_Source\PSoC5/IgnitionTimer_1.c **** * Side Effects:
 229:Generated_Source\PSoC5/IgnitionTimer_1.c **** *  If the Enable mode is set to Hardware only then this function
 230:Generated_Source\PSoC5/IgnitionTimer_1.c **** *  has no effect on the operation of the PWM
 231:Generated_Source\PSoC5/IgnitionTimer_1.c **** *
 232:Generated_Source\PSoC5/IgnitionTimer_1.c **** *******************************************************************************/
 233:Generated_Source\PSoC5/IgnitionTimer_1.c **** void IgnitionTimer_1_Stop(void) 
 234:Generated_Source\PSoC5/IgnitionTimer_1.c **** {
 235:Generated_Source\PSoC5/IgnitionTimer_1.c ****     #if (IgnitionTimer_1_UseControl || IgnitionTimer_1_UsingFixedFunction)
 236:Generated_Source\PSoC5/IgnitionTimer_1.c ****         IgnitionTimer_1_CONTROL &= ((uint8)(~IgnitionTimer_1_CTRL_ENABLE));
 237:Generated_Source\PSoC5/IgnitionTimer_1.c ****     #endif /* (IgnitionTimer_1_UseControl || IgnitionTimer_1_UsingFixedFunction) */
 238:Generated_Source\PSoC5/IgnitionTimer_1.c **** 
 239:Generated_Source\PSoC5/IgnitionTimer_1.c ****     /* Globally disable the Fixed Function Block chosen */
 240:Generated_Source\PSoC5/IgnitionTimer_1.c ****     #if (IgnitionTimer_1_UsingFixedFunction)
 241:Generated_Source\PSoC5/IgnitionTimer_1.c ****         IgnitionTimer_1_GLOBAL_ENABLE &= ((uint8)(~IgnitionTimer_1_BLOCK_EN_MASK));
 242:Generated_Source\PSoC5/IgnitionTimer_1.c ****         IgnitionTimer_1_GLOBAL_STBY_ENABLE &= ((uint8)(~IgnitionTimer_1_BLOCK_STBY_EN_MASK));
 243:Generated_Source\PSoC5/IgnitionTimer_1.c ****     #endif /* (IgnitionTimer_1_UsingFixedFunction) */
 244:Generated_Source\PSoC5/IgnitionTimer_1.c **** }
 245:Generated_Source\PSoC5/IgnitionTimer_1.c **** 
 246:Generated_Source\PSoC5/IgnitionTimer_1.c **** #if (IgnitionTimer_1_UseOneCompareMode)
 247:Generated_Source\PSoC5/IgnitionTimer_1.c ****     #if (IgnitionTimer_1_CompareMode1SW)
 248:Generated_Source\PSoC5/IgnitionTimer_1.c **** 
 249:Generated_Source\PSoC5/IgnitionTimer_1.c **** 
 250:Generated_Source\PSoC5/IgnitionTimer_1.c ****         /*******************************************************************************
 251:Generated_Source\PSoC5/IgnitionTimer_1.c ****         * Function Name: IgnitionTimer_1_SetCompareMode
 252:Generated_Source\PSoC5/IgnitionTimer_1.c ****         ********************************************************************************
 253:Generated_Source\PSoC5/IgnitionTimer_1.c ****         *
 254:Generated_Source\PSoC5/IgnitionTimer_1.c ****         * Summary:
 255:Generated_Source\PSoC5/IgnitionTimer_1.c ****         *  This function writes the Compare Mode for the pwm output when in Dither mode,
 256:Generated_Source\PSoC5/IgnitionTimer_1.c ****         *  Center Align Mode or One Output Mode.
 257:Generated_Source\PSoC5/IgnitionTimer_1.c ****         *
ARM GAS  C:\Users\Bruger\AppData\Local\Temp\cc3c8GDn.s 			page 51


 258:Generated_Source\PSoC5/IgnitionTimer_1.c ****         * Parameters:
 259:Generated_Source\PSoC5/IgnitionTimer_1.c ****         *  comparemode:  The new compare mode for the PWM output. Use the compare types
 260:Generated_Source\PSoC5/IgnitionTimer_1.c ****         *                defined in the H file as input arguments.
 261:Generated_Source\PSoC5/IgnitionTimer_1.c ****         *
 262:Generated_Source\PSoC5/IgnitionTimer_1.c ****         * Return:
 263:Generated_Source\PSoC5/IgnitionTimer_1.c ****         *  None
 264:Generated_Source\PSoC5/IgnitionTimer_1.c ****         *
 265:Generated_Source\PSoC5/IgnitionTimer_1.c ****         *******************************************************************************/
 266:Generated_Source\PSoC5/IgnitionTimer_1.c ****         void IgnitionTimer_1_SetCompareMode(uint8 comparemode) 
 267:Generated_Source\PSoC5/IgnitionTimer_1.c ****         {
 268:Generated_Source\PSoC5/IgnitionTimer_1.c ****             #if(IgnitionTimer_1_UsingFixedFunction)
 269:Generated_Source\PSoC5/IgnitionTimer_1.c **** 
 270:Generated_Source\PSoC5/IgnitionTimer_1.c ****                 #if(0 != IgnitionTimer_1_CTRL_CMPMODE1_SHIFT)
 271:Generated_Source\PSoC5/IgnitionTimer_1.c ****                     uint8 comparemodemasked = ((uint8)((uint8)comparemode << IgnitionTimer_1_CTRL_C
 272:Generated_Source\PSoC5/IgnitionTimer_1.c ****                 #else
 273:Generated_Source\PSoC5/IgnitionTimer_1.c ****                     uint8 comparemodemasked = comparemode;
 274:Generated_Source\PSoC5/IgnitionTimer_1.c ****                 #endif /* (0 != IgnitionTimer_1_CTRL_CMPMODE1_SHIFT) */
 275:Generated_Source\PSoC5/IgnitionTimer_1.c **** 
 276:Generated_Source\PSoC5/IgnitionTimer_1.c ****                 IgnitionTimer_1_CONTROL3 &= ((uint8)(~IgnitionTimer_1_CTRL_CMPMODE1_MASK)); /*Clear
 277:Generated_Source\PSoC5/IgnitionTimer_1.c ****                 IgnitionTimer_1_CONTROL3 |= comparemodemasked;
 278:Generated_Source\PSoC5/IgnitionTimer_1.c **** 
 279:Generated_Source\PSoC5/IgnitionTimer_1.c ****             #elif (IgnitionTimer_1_UseControl)
 280:Generated_Source\PSoC5/IgnitionTimer_1.c **** 
 281:Generated_Source\PSoC5/IgnitionTimer_1.c ****                 #if(0 != IgnitionTimer_1_CTRL_CMPMODE1_SHIFT)
 282:Generated_Source\PSoC5/IgnitionTimer_1.c ****                     uint8 comparemode1masked = ((uint8)((uint8)comparemode << IgnitionTimer_1_CTRL_
 283:Generated_Source\PSoC5/IgnitionTimer_1.c ****                                                 IgnitionTimer_1_CTRL_CMPMODE1_MASK;
 284:Generated_Source\PSoC5/IgnitionTimer_1.c ****                 #else
 285:Generated_Source\PSoC5/IgnitionTimer_1.c ****                     uint8 comparemode1masked = comparemode & IgnitionTimer_1_CTRL_CMPMODE1_MASK;
 286:Generated_Source\PSoC5/IgnitionTimer_1.c ****                 #endif /* (0 != IgnitionTimer_1_CTRL_CMPMODE1_SHIFT) */
 287:Generated_Source\PSoC5/IgnitionTimer_1.c **** 
 288:Generated_Source\PSoC5/IgnitionTimer_1.c ****                 #if(0 != IgnitionTimer_1_CTRL_CMPMODE2_SHIFT)
 289:Generated_Source\PSoC5/IgnitionTimer_1.c ****                     uint8 comparemode2masked = ((uint8)((uint8)comparemode << IgnitionTimer_1_CTRL_
 290:Generated_Source\PSoC5/IgnitionTimer_1.c ****                                                IgnitionTimer_1_CTRL_CMPMODE2_MASK;
 291:Generated_Source\PSoC5/IgnitionTimer_1.c ****                 #else
 292:Generated_Source\PSoC5/IgnitionTimer_1.c ****                     uint8 comparemode2masked = comparemode & IgnitionTimer_1_CTRL_CMPMODE2_MASK;
 293:Generated_Source\PSoC5/IgnitionTimer_1.c ****                 #endif /* (0 != IgnitionTimer_1_CTRL_CMPMODE2_SHIFT) */
 294:Generated_Source\PSoC5/IgnitionTimer_1.c **** 
 295:Generated_Source\PSoC5/IgnitionTimer_1.c ****                 /*Clear existing mode */
 296:Generated_Source\PSoC5/IgnitionTimer_1.c ****                 IgnitionTimer_1_CONTROL &= ((uint8)(~(IgnitionTimer_1_CTRL_CMPMODE1_MASK |
 297:Generated_Source\PSoC5/IgnitionTimer_1.c ****                                             IgnitionTimer_1_CTRL_CMPMODE2_MASK)));
 298:Generated_Source\PSoC5/IgnitionTimer_1.c ****                 IgnitionTimer_1_CONTROL |= (comparemode1masked | comparemode2masked);
 299:Generated_Source\PSoC5/IgnitionTimer_1.c **** 
 300:Generated_Source\PSoC5/IgnitionTimer_1.c ****             #else
 301:Generated_Source\PSoC5/IgnitionTimer_1.c ****                 uint8 temp = comparemode;
 302:Generated_Source\PSoC5/IgnitionTimer_1.c ****             #endif /* (IgnitionTimer_1_UsingFixedFunction) */
 303:Generated_Source\PSoC5/IgnitionTimer_1.c ****         }
 304:Generated_Source\PSoC5/IgnitionTimer_1.c ****     #endif /* IgnitionTimer_1_CompareMode1SW */
 305:Generated_Source\PSoC5/IgnitionTimer_1.c **** 
 306:Generated_Source\PSoC5/IgnitionTimer_1.c **** #else /* UseOneCompareMode */
 307:Generated_Source\PSoC5/IgnitionTimer_1.c **** 
 308:Generated_Source\PSoC5/IgnitionTimer_1.c ****     #if (IgnitionTimer_1_CompareMode1SW)
 309:Generated_Source\PSoC5/IgnitionTimer_1.c **** 
 310:Generated_Source\PSoC5/IgnitionTimer_1.c **** 
 311:Generated_Source\PSoC5/IgnitionTimer_1.c ****         /*******************************************************************************
 312:Generated_Source\PSoC5/IgnitionTimer_1.c ****         * Function Name: IgnitionTimer_1_SetCompareMode1
 313:Generated_Source\PSoC5/IgnitionTimer_1.c ****         ********************************************************************************
 314:Generated_Source\PSoC5/IgnitionTimer_1.c ****         *
ARM GAS  C:\Users\Bruger\AppData\Local\Temp\cc3c8GDn.s 			page 52


 315:Generated_Source\PSoC5/IgnitionTimer_1.c ****         * Summary:
 316:Generated_Source\PSoC5/IgnitionTimer_1.c ****         *  This function writes the Compare Mode for the pwm or pwm1 output
 317:Generated_Source\PSoC5/IgnitionTimer_1.c ****         *
 318:Generated_Source\PSoC5/IgnitionTimer_1.c ****         * Parameters:
 319:Generated_Source\PSoC5/IgnitionTimer_1.c ****         *  comparemode:  The new compare mode for the PWM output. Use the compare types
 320:Generated_Source\PSoC5/IgnitionTimer_1.c ****         *                defined in the H file as input arguments.
 321:Generated_Source\PSoC5/IgnitionTimer_1.c ****         *
 322:Generated_Source\PSoC5/IgnitionTimer_1.c ****         * Return:
 323:Generated_Source\PSoC5/IgnitionTimer_1.c ****         *  None
 324:Generated_Source\PSoC5/IgnitionTimer_1.c ****         *
 325:Generated_Source\PSoC5/IgnitionTimer_1.c ****         *******************************************************************************/
 326:Generated_Source\PSoC5/IgnitionTimer_1.c ****         void IgnitionTimer_1_SetCompareMode1(uint8 comparemode) 
 327:Generated_Source\PSoC5/IgnitionTimer_1.c ****         {
 328:Generated_Source\PSoC5/IgnitionTimer_1.c ****             #if(0 != IgnitionTimer_1_CTRL_CMPMODE1_SHIFT)
 329:Generated_Source\PSoC5/IgnitionTimer_1.c ****                 uint8 comparemodemasked = ((uint8)((uint8)comparemode << IgnitionTimer_1_CTRL_CMPMO
 330:Generated_Source\PSoC5/IgnitionTimer_1.c ****                                            IgnitionTimer_1_CTRL_CMPMODE1_MASK;
 331:Generated_Source\PSoC5/IgnitionTimer_1.c ****             #else
 332:Generated_Source\PSoC5/IgnitionTimer_1.c ****                 uint8 comparemodemasked = comparemode & IgnitionTimer_1_CTRL_CMPMODE1_MASK;
 333:Generated_Source\PSoC5/IgnitionTimer_1.c ****             #endif /* (0 != IgnitionTimer_1_CTRL_CMPMODE1_SHIFT) */
 334:Generated_Source\PSoC5/IgnitionTimer_1.c **** 
 335:Generated_Source\PSoC5/IgnitionTimer_1.c ****             #if (IgnitionTimer_1_UseControl)
 336:Generated_Source\PSoC5/IgnitionTimer_1.c ****                 IgnitionTimer_1_CONTROL &= ((uint8)(~IgnitionTimer_1_CTRL_CMPMODE1_MASK)); /*Clear 
 337:Generated_Source\PSoC5/IgnitionTimer_1.c ****                 IgnitionTimer_1_CONTROL |= comparemodemasked;
 338:Generated_Source\PSoC5/IgnitionTimer_1.c ****             #endif /* (IgnitionTimer_1_UseControl) */
 339:Generated_Source\PSoC5/IgnitionTimer_1.c ****         }
 340:Generated_Source\PSoC5/IgnitionTimer_1.c ****     #endif /* IgnitionTimer_1_CompareMode1SW */
 341:Generated_Source\PSoC5/IgnitionTimer_1.c **** 
 342:Generated_Source\PSoC5/IgnitionTimer_1.c **** #if (IgnitionTimer_1_CompareMode2SW)
 343:Generated_Source\PSoC5/IgnitionTimer_1.c **** 
 344:Generated_Source\PSoC5/IgnitionTimer_1.c **** 
 345:Generated_Source\PSoC5/IgnitionTimer_1.c ****     /*******************************************************************************
 346:Generated_Source\PSoC5/IgnitionTimer_1.c ****     * Function Name: IgnitionTimer_1_SetCompareMode2
 347:Generated_Source\PSoC5/IgnitionTimer_1.c ****     ********************************************************************************
 348:Generated_Source\PSoC5/IgnitionTimer_1.c ****     *
 349:Generated_Source\PSoC5/IgnitionTimer_1.c ****     * Summary:
 350:Generated_Source\PSoC5/IgnitionTimer_1.c ****     *  This function writes the Compare Mode for the pwm or pwm2 output
 351:Generated_Source\PSoC5/IgnitionTimer_1.c ****     *
 352:Generated_Source\PSoC5/IgnitionTimer_1.c ****     * Parameters:
 353:Generated_Source\PSoC5/IgnitionTimer_1.c ****     *  comparemode:  The new compare mode for the PWM output. Use the compare types
 354:Generated_Source\PSoC5/IgnitionTimer_1.c ****     *                defined in the H file as input arguments.
 355:Generated_Source\PSoC5/IgnitionTimer_1.c ****     *
 356:Generated_Source\PSoC5/IgnitionTimer_1.c ****     * Return:
 357:Generated_Source\PSoC5/IgnitionTimer_1.c ****     *  None
 358:Generated_Source\PSoC5/IgnitionTimer_1.c ****     *
 359:Generated_Source\PSoC5/IgnitionTimer_1.c ****     *******************************************************************************/
 360:Generated_Source\PSoC5/IgnitionTimer_1.c ****     void IgnitionTimer_1_SetCompareMode2(uint8 comparemode) 
 361:Generated_Source\PSoC5/IgnitionTimer_1.c ****     {
 362:Generated_Source\PSoC5/IgnitionTimer_1.c **** 
 363:Generated_Source\PSoC5/IgnitionTimer_1.c ****         #if(0 != IgnitionTimer_1_CTRL_CMPMODE2_SHIFT)
 364:Generated_Source\PSoC5/IgnitionTimer_1.c ****             uint8 comparemodemasked = ((uint8)((uint8)comparemode << IgnitionTimer_1_CTRL_CMPMODE2_
 365:Generated_Source\PSoC5/IgnitionTimer_1.c ****                                                  IgnitionTimer_1_CTRL_CMPMODE2_MASK;
 366:Generated_Source\PSoC5/IgnitionTimer_1.c ****         #else
 367:Generated_Source\PSoC5/IgnitionTimer_1.c ****             uint8 comparemodemasked = comparemode & IgnitionTimer_1_CTRL_CMPMODE2_MASK;
 368:Generated_Source\PSoC5/IgnitionTimer_1.c ****         #endif /* (0 != IgnitionTimer_1_CTRL_CMPMODE2_SHIFT) */
 369:Generated_Source\PSoC5/IgnitionTimer_1.c **** 
 370:Generated_Source\PSoC5/IgnitionTimer_1.c ****         #if (IgnitionTimer_1_UseControl)
 371:Generated_Source\PSoC5/IgnitionTimer_1.c ****             IgnitionTimer_1_CONTROL &= ((uint8)(~IgnitionTimer_1_CTRL_CMPMODE2_MASK)); /*Clear exis
ARM GAS  C:\Users\Bruger\AppData\Local\Temp\cc3c8GDn.s 			page 53


 372:Generated_Source\PSoC5/IgnitionTimer_1.c ****             IgnitionTimer_1_CONTROL |= comparemodemasked;
 373:Generated_Source\PSoC5/IgnitionTimer_1.c ****         #endif /* (IgnitionTimer_1_UseControl) */
 374:Generated_Source\PSoC5/IgnitionTimer_1.c ****     }
 375:Generated_Source\PSoC5/IgnitionTimer_1.c ****     #endif /*IgnitionTimer_1_CompareMode2SW */
 376:Generated_Source\PSoC5/IgnitionTimer_1.c **** 
 377:Generated_Source\PSoC5/IgnitionTimer_1.c **** #endif /* UseOneCompareMode */
 378:Generated_Source\PSoC5/IgnitionTimer_1.c **** 
 379:Generated_Source\PSoC5/IgnitionTimer_1.c **** 
 380:Generated_Source\PSoC5/IgnitionTimer_1.c **** #if (!IgnitionTimer_1_UsingFixedFunction)
 381:Generated_Source\PSoC5/IgnitionTimer_1.c **** 
 382:Generated_Source\PSoC5/IgnitionTimer_1.c **** 
 383:Generated_Source\PSoC5/IgnitionTimer_1.c ****     /*******************************************************************************
 384:Generated_Source\PSoC5/IgnitionTimer_1.c ****     * Function Name: IgnitionTimer_1_WriteCounter
 385:Generated_Source\PSoC5/IgnitionTimer_1.c ****     ********************************************************************************
 386:Generated_Source\PSoC5/IgnitionTimer_1.c ****     *
 387:Generated_Source\PSoC5/IgnitionTimer_1.c ****     * Summary:
 388:Generated_Source\PSoC5/IgnitionTimer_1.c ****     *  Writes a new counter value directly to the counter register. This will be
 389:Generated_Source\PSoC5/IgnitionTimer_1.c ****     *  implemented for that currently running period and only that period. This API
 390:Generated_Source\PSoC5/IgnitionTimer_1.c ****     *  is valid only for UDB implementation and not available for fixed function
 391:Generated_Source\PSoC5/IgnitionTimer_1.c ****     *  PWM implementation.
 392:Generated_Source\PSoC5/IgnitionTimer_1.c ****     *
 393:Generated_Source\PSoC5/IgnitionTimer_1.c ****     * Parameters:
 394:Generated_Source\PSoC5/IgnitionTimer_1.c ****     *  counter:  The period new period counter value.
 395:Generated_Source\PSoC5/IgnitionTimer_1.c ****     *
 396:Generated_Source\PSoC5/IgnitionTimer_1.c ****     * Return:
 397:Generated_Source\PSoC5/IgnitionTimer_1.c ****     *  None
 398:Generated_Source\PSoC5/IgnitionTimer_1.c ****     *
 399:Generated_Source\PSoC5/IgnitionTimer_1.c ****     * Side Effects:
 400:Generated_Source\PSoC5/IgnitionTimer_1.c ****     *  The PWM Period will be reloaded when a counter value will be a zero
 401:Generated_Source\PSoC5/IgnitionTimer_1.c ****     *
 402:Generated_Source\PSoC5/IgnitionTimer_1.c ****     *******************************************************************************/
 403:Generated_Source\PSoC5/IgnitionTimer_1.c ****     void IgnitionTimer_1_WriteCounter(uint16 counter) \
 404:Generated_Source\PSoC5/IgnitionTimer_1.c ****                                        
 405:Generated_Source\PSoC5/IgnitionTimer_1.c ****     {
 406:Generated_Source\PSoC5/IgnitionTimer_1.c ****         CY_SET_REG16(IgnitionTimer_1_COUNTER_LSB_PTR, counter);
 637              		.loc 1 406 0
 638 0018 4AF6C871 		movw	r1, #45000
 639              	.LBE45:
 640              	.LBE44:
 117:Generated_Source\PSoC5/IgnitionTimer_1.c ****                 ((uint8)(~IgnitionTimer_1_CTRL_CMPMODE1_MASK));
 641              		.loc 1 117 0
 642 001c 1A4E     		ldr	r6, .L13+4
 129:Generated_Source\PSoC5/IgnitionTimer_1.c ****             IgnitionTimer_1_AUX_CONTROLDP1 |= (IgnitionTimer_1_AUX_CTRL_FIFO0_CLR);
 643              		.loc 1 129 0
 644 001e 1B4D     		ldr	r5, .L13+8
 117:Generated_Source\PSoC5/IgnitionTimer_1.c ****                 ((uint8)(~IgnitionTimer_1_CTRL_CMPMODE1_MASK));
 645              		.loc 1 117 0
 646 0020 3278     		ldrb	r2, [r6]	@ zero_extendqisi2
 647              	.LVL0:
 130:Generated_Source\PSoC5/IgnitionTimer_1.c ****         #endif /* (IgnitionTimer_1_Resolution == 8) */
 648              		.loc 1 130 0
 649 0022 1B48     		ldr	r0, .L13+12
 117:Generated_Source\PSoC5/IgnitionTimer_1.c ****                 ((uint8)(~IgnitionTimer_1_CTRL_CMPMODE1_MASK));
 650              		.loc 1 117 0
 651 0024 02F0C002 		and	r2, r2, #192
 652              	.LVL1:
 119:Generated_Source\PSoC5/IgnitionTimer_1.c ****                                    IgnitionTimer_1_DEFAULT_COMPARE1_MODE;
ARM GAS  C:\Users\Bruger\AppData\Local\Temp\cc3c8GDn.s 			page 54


 653              		.loc 1 119 0
 654 0028 42F00902 		orr	r2, r2, #9
 655 002c 3270     		strb	r2, [r6]
 129:Generated_Source\PSoC5/IgnitionTimer_1.c ****             IgnitionTimer_1_AUX_CONTROLDP1 |= (IgnitionTimer_1_AUX_CTRL_FIFO0_CLR);
 656              		.loc 1 129 0
 657 002e 2A78     		ldrb	r2, [r5]	@ zero_extendqisi2
 658              	.LBB48:
 659              	.LBB49:
 407:Generated_Source\PSoC5/IgnitionTimer_1.c ****     }
 408:Generated_Source\PSoC5/IgnitionTimer_1.c **** 
 409:Generated_Source\PSoC5/IgnitionTimer_1.c **** 
 410:Generated_Source\PSoC5/IgnitionTimer_1.c ****     /*******************************************************************************
 411:Generated_Source\PSoC5/IgnitionTimer_1.c ****     * Function Name: IgnitionTimer_1_ReadCounter
 412:Generated_Source\PSoC5/IgnitionTimer_1.c ****     ********************************************************************************
 413:Generated_Source\PSoC5/IgnitionTimer_1.c ****     *
 414:Generated_Source\PSoC5/IgnitionTimer_1.c ****     * Summary:
 415:Generated_Source\PSoC5/IgnitionTimer_1.c ****     *  This function returns the current value of the counter.  It doesn't matter
 416:Generated_Source\PSoC5/IgnitionTimer_1.c ****     *  if the counter is enabled or running.
 417:Generated_Source\PSoC5/IgnitionTimer_1.c ****     *
 418:Generated_Source\PSoC5/IgnitionTimer_1.c ****     * Parameters:
 419:Generated_Source\PSoC5/IgnitionTimer_1.c ****     *  None
 420:Generated_Source\PSoC5/IgnitionTimer_1.c ****     *
 421:Generated_Source\PSoC5/IgnitionTimer_1.c ****     * Return:
 422:Generated_Source\PSoC5/IgnitionTimer_1.c ****     *  The current value of the counter.
 423:Generated_Source\PSoC5/IgnitionTimer_1.c ****     *
 424:Generated_Source\PSoC5/IgnitionTimer_1.c ****     *******************************************************************************/
 425:Generated_Source\PSoC5/IgnitionTimer_1.c ****     uint16 IgnitionTimer_1_ReadCounter(void) 
 426:Generated_Source\PSoC5/IgnitionTimer_1.c ****     {
 427:Generated_Source\PSoC5/IgnitionTimer_1.c ****         /* Force capture by reading Accumulator */
 428:Generated_Source\PSoC5/IgnitionTimer_1.c ****         /* Must first do a software capture to be able to read the counter */
 429:Generated_Source\PSoC5/IgnitionTimer_1.c ****         /* It is up to the user code to make sure there isn't already captured data in the FIFO */
 430:Generated_Source\PSoC5/IgnitionTimer_1.c ****           (void)CY_GET_REG8(IgnitionTimer_1_COUNTERCAP_LSB_PTR_8BIT);
 431:Generated_Source\PSoC5/IgnitionTimer_1.c **** 
 432:Generated_Source\PSoC5/IgnitionTimer_1.c ****         /* Read the data from the FIFO */
 433:Generated_Source\PSoC5/IgnitionTimer_1.c ****         return (CY_GET_REG16(IgnitionTimer_1_CAPTURE_LSB_PTR));
 434:Generated_Source\PSoC5/IgnitionTimer_1.c ****     }
 435:Generated_Source\PSoC5/IgnitionTimer_1.c **** 
 436:Generated_Source\PSoC5/IgnitionTimer_1.c ****     #if (IgnitionTimer_1_UseStatus)
 437:Generated_Source\PSoC5/IgnitionTimer_1.c **** 
 438:Generated_Source\PSoC5/IgnitionTimer_1.c **** 
 439:Generated_Source\PSoC5/IgnitionTimer_1.c ****         /*******************************************************************************
 440:Generated_Source\PSoC5/IgnitionTimer_1.c ****         * Function Name: IgnitionTimer_1_ClearFIFO
 441:Generated_Source\PSoC5/IgnitionTimer_1.c ****         ********************************************************************************
 442:Generated_Source\PSoC5/IgnitionTimer_1.c ****         *
 443:Generated_Source\PSoC5/IgnitionTimer_1.c ****         * Summary:
 444:Generated_Source\PSoC5/IgnitionTimer_1.c ****         *  This function clears all capture data from the capture FIFO
 445:Generated_Source\PSoC5/IgnitionTimer_1.c ****         *
 446:Generated_Source\PSoC5/IgnitionTimer_1.c ****         * Parameters:
 447:Generated_Source\PSoC5/IgnitionTimer_1.c ****         *  None
 448:Generated_Source\PSoC5/IgnitionTimer_1.c ****         *
 449:Generated_Source\PSoC5/IgnitionTimer_1.c ****         * Return:
 450:Generated_Source\PSoC5/IgnitionTimer_1.c ****         *  None
 451:Generated_Source\PSoC5/IgnitionTimer_1.c ****         *
 452:Generated_Source\PSoC5/IgnitionTimer_1.c ****         *******************************************************************************/
 453:Generated_Source\PSoC5/IgnitionTimer_1.c ****         void IgnitionTimer_1_ClearFIFO(void) 
 454:Generated_Source\PSoC5/IgnitionTimer_1.c ****         {
 455:Generated_Source\PSoC5/IgnitionTimer_1.c ****             while(0u != (IgnitionTimer_1_ReadStatusRegister() & IgnitionTimer_1_STATUS_FIFONEMPTY))
ARM GAS  C:\Users\Bruger\AppData\Local\Temp\cc3c8GDn.s 			page 55


 456:Generated_Source\PSoC5/IgnitionTimer_1.c ****             {
 457:Generated_Source\PSoC5/IgnitionTimer_1.c ****                 (void)IgnitionTimer_1_ReadCapture();
 458:Generated_Source\PSoC5/IgnitionTimer_1.c ****             }
 459:Generated_Source\PSoC5/IgnitionTimer_1.c ****         }
 460:Generated_Source\PSoC5/IgnitionTimer_1.c **** 
 461:Generated_Source\PSoC5/IgnitionTimer_1.c ****     #endif /* IgnitionTimer_1_UseStatus */
 462:Generated_Source\PSoC5/IgnitionTimer_1.c **** 
 463:Generated_Source\PSoC5/IgnitionTimer_1.c **** #endif /* !IgnitionTimer_1_UsingFixedFunction */
 464:Generated_Source\PSoC5/IgnitionTimer_1.c **** 
 465:Generated_Source\PSoC5/IgnitionTimer_1.c **** 
 466:Generated_Source\PSoC5/IgnitionTimer_1.c **** /*******************************************************************************
 467:Generated_Source\PSoC5/IgnitionTimer_1.c **** * Function Name: IgnitionTimer_1_WritePeriod
 468:Generated_Source\PSoC5/IgnitionTimer_1.c **** ********************************************************************************
 469:Generated_Source\PSoC5/IgnitionTimer_1.c **** *
 470:Generated_Source\PSoC5/IgnitionTimer_1.c **** * Summary:
 471:Generated_Source\PSoC5/IgnitionTimer_1.c **** *  This function is used to change the period of the counter.  The new period
 472:Generated_Source\PSoC5/IgnitionTimer_1.c **** *  will be loaded the next time terminal count is detected.
 473:Generated_Source\PSoC5/IgnitionTimer_1.c **** *
 474:Generated_Source\PSoC5/IgnitionTimer_1.c **** * Parameters:
 475:Generated_Source\PSoC5/IgnitionTimer_1.c **** *  period:  Period value. May be between 1 and (2^Resolution)-1.  A value of 0
 476:Generated_Source\PSoC5/IgnitionTimer_1.c **** *           will result in the counter remaining at zero.
 477:Generated_Source\PSoC5/IgnitionTimer_1.c **** *
 478:Generated_Source\PSoC5/IgnitionTimer_1.c **** * Return:
 479:Generated_Source\PSoC5/IgnitionTimer_1.c **** *  None
 480:Generated_Source\PSoC5/IgnitionTimer_1.c **** *
 481:Generated_Source\PSoC5/IgnitionTimer_1.c **** *******************************************************************************/
 482:Generated_Source\PSoC5/IgnitionTimer_1.c **** void IgnitionTimer_1_WritePeriod(uint16 period) 
 483:Generated_Source\PSoC5/IgnitionTimer_1.c **** {
 484:Generated_Source\PSoC5/IgnitionTimer_1.c ****     #if(IgnitionTimer_1_UsingFixedFunction)
 485:Generated_Source\PSoC5/IgnitionTimer_1.c ****         CY_SET_REG16(IgnitionTimer_1_PERIOD_LSB_PTR, (uint16)period);
 486:Generated_Source\PSoC5/IgnitionTimer_1.c ****     #else
 487:Generated_Source\PSoC5/IgnitionTimer_1.c ****         CY_SET_REG16(IgnitionTimer_1_PERIOD_LSB_PTR, period);
 660              		.loc 1 487 0
 661 0030 DFF86CC0 		ldr	ip, .L13+28
 662              	.LBE49:
 663              	.LBE48:
 129:Generated_Source\PSoC5/IgnitionTimer_1.c ****             IgnitionTimer_1_AUX_CONTROLDP1 |= (IgnitionTimer_1_AUX_CTRL_FIFO0_CLR);
 664              		.loc 1 129 0
 665 0034 42F00102 		orr	r2, r2, #1
 666 0038 2A70     		strb	r2, [r5]
 130:Generated_Source\PSoC5/IgnitionTimer_1.c ****         #endif /* (IgnitionTimer_1_Resolution == 8) */
 667              		.loc 1 130 0
 668 003a 0278     		ldrb	r2, [r0]	@ zero_extendqisi2
 669              	.LBB51:
 670              	.LBB46:
 406:Generated_Source\PSoC5/IgnitionTimer_1.c ****     }
 671              		.loc 1 406 0
 672 003c DFF86480 		ldr	r8, .L13+32
 673              	.LBE46:
 674              	.LBE51:
 675              	.LBB52:
 676              	.LBB53:
 488:Generated_Source\PSoC5/IgnitionTimer_1.c ****     #endif /* (IgnitionTimer_1_UsingFixedFunction) */
 489:Generated_Source\PSoC5/IgnitionTimer_1.c **** }
 490:Generated_Source\PSoC5/IgnitionTimer_1.c **** 
 491:Generated_Source\PSoC5/IgnitionTimer_1.c **** #if (IgnitionTimer_1_UseOneCompareMode)
 492:Generated_Source\PSoC5/IgnitionTimer_1.c **** 
ARM GAS  C:\Users\Bruger\AppData\Local\Temp\cc3c8GDn.s 			page 56


 493:Generated_Source\PSoC5/IgnitionTimer_1.c **** 
 494:Generated_Source\PSoC5/IgnitionTimer_1.c ****     /*******************************************************************************
 495:Generated_Source\PSoC5/IgnitionTimer_1.c ****     * Function Name: IgnitionTimer_1_WriteCompare
 496:Generated_Source\PSoC5/IgnitionTimer_1.c ****     ********************************************************************************
 497:Generated_Source\PSoC5/IgnitionTimer_1.c ****     *
 498:Generated_Source\PSoC5/IgnitionTimer_1.c ****     * Summary:
 499:Generated_Source\PSoC5/IgnitionTimer_1.c ****     *  This funtion is used to change the compare1 value when the PWM is in Dither
 500:Generated_Source\PSoC5/IgnitionTimer_1.c ****     *  mode. The compare output will reflect the new value on the next UDB clock.
 501:Generated_Source\PSoC5/IgnitionTimer_1.c ****     *  The compare output will be driven high when the present counter value is
 502:Generated_Source\PSoC5/IgnitionTimer_1.c ****     *  compared to the compare value based on the compare mode defined in
 503:Generated_Source\PSoC5/IgnitionTimer_1.c ****     *  Dither Mode.
 504:Generated_Source\PSoC5/IgnitionTimer_1.c ****     *
 505:Generated_Source\PSoC5/IgnitionTimer_1.c ****     * Parameters:
 506:Generated_Source\PSoC5/IgnitionTimer_1.c ****     *  compare:  New compare value.
 507:Generated_Source\PSoC5/IgnitionTimer_1.c ****     *
 508:Generated_Source\PSoC5/IgnitionTimer_1.c ****     * Return:
 509:Generated_Source\PSoC5/IgnitionTimer_1.c ****     *  None
 510:Generated_Source\PSoC5/IgnitionTimer_1.c ****     *
 511:Generated_Source\PSoC5/IgnitionTimer_1.c ****     * Side Effects:
 512:Generated_Source\PSoC5/IgnitionTimer_1.c ****     *  This function is only available if the PWM mode parameter is set to
 513:Generated_Source\PSoC5/IgnitionTimer_1.c ****     *  Dither Mode, Center Aligned Mode or One Output Mode
 514:Generated_Source\PSoC5/IgnitionTimer_1.c ****     *
 515:Generated_Source\PSoC5/IgnitionTimer_1.c ****     *******************************************************************************/
 516:Generated_Source\PSoC5/IgnitionTimer_1.c ****     void IgnitionTimer_1_WriteCompare(uint16 compare) \
 517:Generated_Source\PSoC5/IgnitionTimer_1.c ****                                        
 518:Generated_Source\PSoC5/IgnitionTimer_1.c ****     {
 519:Generated_Source\PSoC5/IgnitionTimer_1.c ****         #if(IgnitionTimer_1_UsingFixedFunction)
 520:Generated_Source\PSoC5/IgnitionTimer_1.c ****             CY_SET_REG16(IgnitionTimer_1_COMPARE1_LSB_PTR, (uint16)compare);
 521:Generated_Source\PSoC5/IgnitionTimer_1.c ****         #else
 522:Generated_Source\PSoC5/IgnitionTimer_1.c ****             CY_SET_REG16(IgnitionTimer_1_COMPARE1_LSB_PTR, compare);
 677              		.loc 1 522 0
 678 0040 144F     		ldr	r7, .L13+16
 679              	.LBE53:
 680              	.LBE52:
 130:Generated_Source\PSoC5/IgnitionTimer_1.c ****         #endif /* (IgnitionTimer_1_Resolution == 8) */
 681              		.loc 1 130 0
 682 0042 42F00102 		orr	r2, r2, #1
 683              	.LBB56:
 684              	.LBB54:
 685              		.loc 1 522 0
 686 0046 4FF4FA4E 		mov	lr, #32000
 687              	.LBE54:
 688              	.LBE56:
 130:Generated_Source\PSoC5/IgnitionTimer_1.c ****         #endif /* (IgnitionTimer_1_Resolution == 8) */
 689              		.loc 1 130 0
 690 004a 0270     		strb	r2, [r0]
 691              	.LVL2:
 692              	.LBB57:
 693              	.LBB47:
 406:Generated_Source\PSoC5/IgnitionTimer_1.c ****     }
 694              		.loc 1 406 0
 695 004c A8F80010 		strh	r1, [r8]	@ movhi
 696              	.LVL3:
 697              	.LBE47:
 698              	.LBE57:
 699              	.LBB58:
 700              	.LBB50:
ARM GAS  C:\Users\Bruger\AppData\Local\Temp\cc3c8GDn.s 			page 57


 487:Generated_Source\PSoC5/IgnitionTimer_1.c ****     #endif /* (IgnitionTimer_1_UsingFixedFunction) */
 701              		.loc 1 487 0
 702 0050 ACF80010 		strh	r1, [ip]	@ movhi
 703              	.LVL4:
 704              	.LBE50:
 705              	.LBE58:
 706              	.LBB59:
 707              	.LBB55:
 708              		.loc 1 522 0
 709 0054 A7F800E0 		strh	lr, [r7]	@ movhi
 710              	.LVL5:
 711              	.LBE55:
 712              	.LBE59:
 713              	.LBB60:
 714              	.LBB61:
 523:Generated_Source\PSoC5/IgnitionTimer_1.c ****         #endif /* (IgnitionTimer_1_UsingFixedFunction) */
 524:Generated_Source\PSoC5/IgnitionTimer_1.c **** 
 525:Generated_Source\PSoC5/IgnitionTimer_1.c ****         #if (IgnitionTimer_1_PWMMode == IgnitionTimer_1__B_PWM__DITHER)
 526:Generated_Source\PSoC5/IgnitionTimer_1.c ****             #if(IgnitionTimer_1_UsingFixedFunction)
 527:Generated_Source\PSoC5/IgnitionTimer_1.c ****                 CY_SET_REG16(IgnitionTimer_1_COMPARE2_LSB_PTR, (uint16)(compare + 1u));
 528:Generated_Source\PSoC5/IgnitionTimer_1.c ****             #else
 529:Generated_Source\PSoC5/IgnitionTimer_1.c ****                 CY_SET_REG16(IgnitionTimer_1_COMPARE2_LSB_PTR, (compare + 1u));
 530:Generated_Source\PSoC5/IgnitionTimer_1.c ****             #endif /* (IgnitionTimer_1_UsingFixedFunction) */
 531:Generated_Source\PSoC5/IgnitionTimer_1.c ****         #endif /* (IgnitionTimer_1_PWMMode == IgnitionTimer_1__B_PWM__DITHER) */
 532:Generated_Source\PSoC5/IgnitionTimer_1.c ****     }
 533:Generated_Source\PSoC5/IgnitionTimer_1.c **** 
 534:Generated_Source\PSoC5/IgnitionTimer_1.c **** 
 535:Generated_Source\PSoC5/IgnitionTimer_1.c **** #else
 536:Generated_Source\PSoC5/IgnitionTimer_1.c **** 
 537:Generated_Source\PSoC5/IgnitionTimer_1.c **** 
 538:Generated_Source\PSoC5/IgnitionTimer_1.c ****     /*******************************************************************************
 539:Generated_Source\PSoC5/IgnitionTimer_1.c ****     * Function Name: IgnitionTimer_1_WriteCompare1
 540:Generated_Source\PSoC5/IgnitionTimer_1.c ****     ********************************************************************************
 541:Generated_Source\PSoC5/IgnitionTimer_1.c ****     *
 542:Generated_Source\PSoC5/IgnitionTimer_1.c ****     * Summary:
 543:Generated_Source\PSoC5/IgnitionTimer_1.c ****     *  This funtion is used to change the compare1 value.  The compare output will
 544:Generated_Source\PSoC5/IgnitionTimer_1.c ****     *  reflect the new value on the next UDB clock.  The compare output will be
 545:Generated_Source\PSoC5/IgnitionTimer_1.c ****     *  driven high when the present counter value is less than or less than or
 546:Generated_Source\PSoC5/IgnitionTimer_1.c ****     *  equal to the compare register, depending on the mode.
 547:Generated_Source\PSoC5/IgnitionTimer_1.c ****     *
 548:Generated_Source\PSoC5/IgnitionTimer_1.c ****     * Parameters:
 549:Generated_Source\PSoC5/IgnitionTimer_1.c ****     *  compare:  New compare value.
 550:Generated_Source\PSoC5/IgnitionTimer_1.c ****     *
 551:Generated_Source\PSoC5/IgnitionTimer_1.c ****     * Return:
 552:Generated_Source\PSoC5/IgnitionTimer_1.c ****     *  None
 553:Generated_Source\PSoC5/IgnitionTimer_1.c ****     *
 554:Generated_Source\PSoC5/IgnitionTimer_1.c ****     *******************************************************************************/
 555:Generated_Source\PSoC5/IgnitionTimer_1.c ****     void IgnitionTimer_1_WriteCompare1(uint16 compare) \
 556:Generated_Source\PSoC5/IgnitionTimer_1.c ****                                         
 557:Generated_Source\PSoC5/IgnitionTimer_1.c ****     {
 558:Generated_Source\PSoC5/IgnitionTimer_1.c ****         #if(IgnitionTimer_1_UsingFixedFunction)
 559:Generated_Source\PSoC5/IgnitionTimer_1.c ****             CY_SET_REG16(IgnitionTimer_1_COMPARE1_LSB_PTR, (uint16)compare);
 560:Generated_Source\PSoC5/IgnitionTimer_1.c ****         #else
 561:Generated_Source\PSoC5/IgnitionTimer_1.c ****             CY_SET_REG16(IgnitionTimer_1_COMPARE1_LSB_PTR, compare);
 562:Generated_Source\PSoC5/IgnitionTimer_1.c ****         #endif /* (IgnitionTimer_1_UsingFixedFunction) */
 563:Generated_Source\PSoC5/IgnitionTimer_1.c ****     }
 564:Generated_Source\PSoC5/IgnitionTimer_1.c **** 
ARM GAS  C:\Users\Bruger\AppData\Local\Temp\cc3c8GDn.s 			page 58


 565:Generated_Source\PSoC5/IgnitionTimer_1.c **** 
 566:Generated_Source\PSoC5/IgnitionTimer_1.c ****     /*******************************************************************************
 567:Generated_Source\PSoC5/IgnitionTimer_1.c ****     * Function Name: IgnitionTimer_1_WriteCompare2
 568:Generated_Source\PSoC5/IgnitionTimer_1.c ****     ********************************************************************************
 569:Generated_Source\PSoC5/IgnitionTimer_1.c ****     *
 570:Generated_Source\PSoC5/IgnitionTimer_1.c ****     * Summary:
 571:Generated_Source\PSoC5/IgnitionTimer_1.c ****     *  This funtion is used to change the compare value, for compare1 output.
 572:Generated_Source\PSoC5/IgnitionTimer_1.c ****     *  The compare output will reflect the new value on the next UDB clock.
 573:Generated_Source\PSoC5/IgnitionTimer_1.c ****     *  The compare output will be driven high when the present counter value is
 574:Generated_Source\PSoC5/IgnitionTimer_1.c ****     *  less than or less than or equal to the compare register, depending on the
 575:Generated_Source\PSoC5/IgnitionTimer_1.c ****     *  mode.
 576:Generated_Source\PSoC5/IgnitionTimer_1.c ****     *
 577:Generated_Source\PSoC5/IgnitionTimer_1.c ****     * Parameters:
 578:Generated_Source\PSoC5/IgnitionTimer_1.c ****     *  compare:  New compare value.
 579:Generated_Source\PSoC5/IgnitionTimer_1.c ****     *
 580:Generated_Source\PSoC5/IgnitionTimer_1.c ****     * Return:
 581:Generated_Source\PSoC5/IgnitionTimer_1.c ****     *  None
 582:Generated_Source\PSoC5/IgnitionTimer_1.c ****     *
 583:Generated_Source\PSoC5/IgnitionTimer_1.c ****     *******************************************************************************/
 584:Generated_Source\PSoC5/IgnitionTimer_1.c ****     void IgnitionTimer_1_WriteCompare2(uint16 compare) \
 585:Generated_Source\PSoC5/IgnitionTimer_1.c ****                                         
 586:Generated_Source\PSoC5/IgnitionTimer_1.c ****     {
 587:Generated_Source\PSoC5/IgnitionTimer_1.c ****         #if(IgnitionTimer_1_UsingFixedFunction)
 588:Generated_Source\PSoC5/IgnitionTimer_1.c ****             CY_SET_REG16(IgnitionTimer_1_COMPARE2_LSB_PTR, compare);
 589:Generated_Source\PSoC5/IgnitionTimer_1.c ****         #else
 590:Generated_Source\PSoC5/IgnitionTimer_1.c ****             CY_SET_REG16(IgnitionTimer_1_COMPARE2_LSB_PTR, compare);
 591:Generated_Source\PSoC5/IgnitionTimer_1.c ****         #endif /* (IgnitionTimer_1_UsingFixedFunction) */
 592:Generated_Source\PSoC5/IgnitionTimer_1.c ****     }
 593:Generated_Source\PSoC5/IgnitionTimer_1.c **** #endif /* UseOneCompareMode */
 594:Generated_Source\PSoC5/IgnitionTimer_1.c **** 
 595:Generated_Source\PSoC5/IgnitionTimer_1.c **** #if (IgnitionTimer_1_DeadBandUsed)
 596:Generated_Source\PSoC5/IgnitionTimer_1.c **** 
 597:Generated_Source\PSoC5/IgnitionTimer_1.c **** 
 598:Generated_Source\PSoC5/IgnitionTimer_1.c ****     /*******************************************************************************
 599:Generated_Source\PSoC5/IgnitionTimer_1.c ****     * Function Name: IgnitionTimer_1_WriteDeadTime
 600:Generated_Source\PSoC5/IgnitionTimer_1.c ****     ********************************************************************************
 601:Generated_Source\PSoC5/IgnitionTimer_1.c ****     *
 602:Generated_Source\PSoC5/IgnitionTimer_1.c ****     * Summary:
 603:Generated_Source\PSoC5/IgnitionTimer_1.c ****     *  This function writes the dead-band counts to the corresponding register
 604:Generated_Source\PSoC5/IgnitionTimer_1.c ****     *
 605:Generated_Source\PSoC5/IgnitionTimer_1.c ****     * Parameters:
 606:Generated_Source\PSoC5/IgnitionTimer_1.c ****     *  deadtime:  Number of counts for dead time
 607:Generated_Source\PSoC5/IgnitionTimer_1.c ****     *
 608:Generated_Source\PSoC5/IgnitionTimer_1.c ****     * Return:
 609:Generated_Source\PSoC5/IgnitionTimer_1.c ****     *  None
 610:Generated_Source\PSoC5/IgnitionTimer_1.c ****     *
 611:Generated_Source\PSoC5/IgnitionTimer_1.c ****     *******************************************************************************/
 612:Generated_Source\PSoC5/IgnitionTimer_1.c ****     void IgnitionTimer_1_WriteDeadTime(uint8 deadtime) 
 613:Generated_Source\PSoC5/IgnitionTimer_1.c ****     {
 614:Generated_Source\PSoC5/IgnitionTimer_1.c ****         /* If using the Dead Band 1-255 mode then just write the register */
 615:Generated_Source\PSoC5/IgnitionTimer_1.c ****         #if(!IgnitionTimer_1_DeadBand2_4)
 616:Generated_Source\PSoC5/IgnitionTimer_1.c ****             CY_SET_REG8(IgnitionTimer_1_DEADBAND_COUNT_PTR, deadtime);
 617:Generated_Source\PSoC5/IgnitionTimer_1.c ****         #else
 618:Generated_Source\PSoC5/IgnitionTimer_1.c ****             /* Otherwise the data has to be masked and offset */
 619:Generated_Source\PSoC5/IgnitionTimer_1.c ****             /* Clear existing data */
 620:Generated_Source\PSoC5/IgnitionTimer_1.c ****             IgnitionTimer_1_DEADBAND_COUNT &= ((uint8)(~IgnitionTimer_1_DEADBAND_COUNT_MASK));
 621:Generated_Source\PSoC5/IgnitionTimer_1.c **** 
ARM GAS  C:\Users\Bruger\AppData\Local\Temp\cc3c8GDn.s 			page 59


 622:Generated_Source\PSoC5/IgnitionTimer_1.c ****             /* Set new dead time */
 623:Generated_Source\PSoC5/IgnitionTimer_1.c ****             #if(IgnitionTimer_1_DEADBAND_COUNT_SHIFT)
 624:Generated_Source\PSoC5/IgnitionTimer_1.c ****                 IgnitionTimer_1_DEADBAND_COUNT |= ((uint8)((uint8)deadtime << IgnitionTimer_1_DEADB
 625:Generated_Source\PSoC5/IgnitionTimer_1.c ****                                                     IgnitionTimer_1_DEADBAND_COUNT_MASK;
 626:Generated_Source\PSoC5/IgnitionTimer_1.c ****             #else
 627:Generated_Source\PSoC5/IgnitionTimer_1.c ****                 IgnitionTimer_1_DEADBAND_COUNT |= deadtime & IgnitionTimer_1_DEADBAND_COUNT_MASK;
 628:Generated_Source\PSoC5/IgnitionTimer_1.c ****             #endif /* (IgnitionTimer_1_DEADBAND_COUNT_SHIFT) */
 629:Generated_Source\PSoC5/IgnitionTimer_1.c **** 
 630:Generated_Source\PSoC5/IgnitionTimer_1.c ****         #endif /* (!IgnitionTimer_1_DeadBand2_4) */
 631:Generated_Source\PSoC5/IgnitionTimer_1.c ****     }
 632:Generated_Source\PSoC5/IgnitionTimer_1.c **** 
 633:Generated_Source\PSoC5/IgnitionTimer_1.c **** 
 634:Generated_Source\PSoC5/IgnitionTimer_1.c ****     /*******************************************************************************
 635:Generated_Source\PSoC5/IgnitionTimer_1.c ****     * Function Name: IgnitionTimer_1_ReadDeadTime
 636:Generated_Source\PSoC5/IgnitionTimer_1.c ****     ********************************************************************************
 637:Generated_Source\PSoC5/IgnitionTimer_1.c ****     *
 638:Generated_Source\PSoC5/IgnitionTimer_1.c ****     * Summary:
 639:Generated_Source\PSoC5/IgnitionTimer_1.c ****     *  This function reads the dead-band counts from the corresponding register
 640:Generated_Source\PSoC5/IgnitionTimer_1.c ****     *
 641:Generated_Source\PSoC5/IgnitionTimer_1.c ****     * Parameters:
 642:Generated_Source\PSoC5/IgnitionTimer_1.c ****     *  None
 643:Generated_Source\PSoC5/IgnitionTimer_1.c ****     *
 644:Generated_Source\PSoC5/IgnitionTimer_1.c ****     * Return:
 645:Generated_Source\PSoC5/IgnitionTimer_1.c ****     *  Dead Band Counts
 646:Generated_Source\PSoC5/IgnitionTimer_1.c ****     *
 647:Generated_Source\PSoC5/IgnitionTimer_1.c ****     *******************************************************************************/
 648:Generated_Source\PSoC5/IgnitionTimer_1.c ****     uint8 IgnitionTimer_1_ReadDeadTime(void) 
 649:Generated_Source\PSoC5/IgnitionTimer_1.c ****     {
 650:Generated_Source\PSoC5/IgnitionTimer_1.c ****         /* If using the Dead Band 1-255 mode then just read the register */
 651:Generated_Source\PSoC5/IgnitionTimer_1.c ****         #if(!IgnitionTimer_1_DeadBand2_4)
 652:Generated_Source\PSoC5/IgnitionTimer_1.c ****             return (CY_GET_REG8(IgnitionTimer_1_DEADBAND_COUNT_PTR));
 653:Generated_Source\PSoC5/IgnitionTimer_1.c ****         #else
 654:Generated_Source\PSoC5/IgnitionTimer_1.c **** 
 655:Generated_Source\PSoC5/IgnitionTimer_1.c ****             /* Otherwise the data has to be masked and offset */
 656:Generated_Source\PSoC5/IgnitionTimer_1.c ****             #if(IgnitionTimer_1_DEADBAND_COUNT_SHIFT)
 657:Generated_Source\PSoC5/IgnitionTimer_1.c ****                 return ((uint8)(((uint8)(IgnitionTimer_1_DEADBAND_COUNT & IgnitionTimer_1_DEADBAND_
 658:Generated_Source\PSoC5/IgnitionTimer_1.c ****                                                                            IgnitionTimer_1_DEADBAND
 659:Generated_Source\PSoC5/IgnitionTimer_1.c ****             #else
 660:Generated_Source\PSoC5/IgnitionTimer_1.c ****                 return (IgnitionTimer_1_DEADBAND_COUNT & IgnitionTimer_1_DEADBAND_COUNT_MASK);
 661:Generated_Source\PSoC5/IgnitionTimer_1.c ****             #endif /* (IgnitionTimer_1_DEADBAND_COUNT_SHIFT) */
 662:Generated_Source\PSoC5/IgnitionTimer_1.c ****         #endif /* (!IgnitionTimer_1_DeadBand2_4) */
 663:Generated_Source\PSoC5/IgnitionTimer_1.c ****     }
 664:Generated_Source\PSoC5/IgnitionTimer_1.c **** #endif /* DeadBandUsed */
 665:Generated_Source\PSoC5/IgnitionTimer_1.c **** 
 666:Generated_Source\PSoC5/IgnitionTimer_1.c **** #if (IgnitionTimer_1_UseStatus || IgnitionTimer_1_UsingFixedFunction)
 667:Generated_Source\PSoC5/IgnitionTimer_1.c **** 
 668:Generated_Source\PSoC5/IgnitionTimer_1.c **** 
 669:Generated_Source\PSoC5/IgnitionTimer_1.c ****     /*******************************************************************************
 670:Generated_Source\PSoC5/IgnitionTimer_1.c ****     * Function Name: IgnitionTimer_1_SetInterruptMode
 671:Generated_Source\PSoC5/IgnitionTimer_1.c ****     ********************************************************************************
 672:Generated_Source\PSoC5/IgnitionTimer_1.c ****     *
 673:Generated_Source\PSoC5/IgnitionTimer_1.c ****     * Summary:
 674:Generated_Source\PSoC5/IgnitionTimer_1.c ****     *  This function configures the interrupts mask control of theinterrupt
 675:Generated_Source\PSoC5/IgnitionTimer_1.c ****     *  source status register.
 676:Generated_Source\PSoC5/IgnitionTimer_1.c ****     *
 677:Generated_Source\PSoC5/IgnitionTimer_1.c ****     * Parameters:
 678:Generated_Source\PSoC5/IgnitionTimer_1.c ****     *  uint8 interruptMode: Bit field containing the interrupt sources enabled
ARM GAS  C:\Users\Bruger\AppData\Local\Temp\cc3c8GDn.s 			page 60


 679:Generated_Source\PSoC5/IgnitionTimer_1.c ****     *
 680:Generated_Source\PSoC5/IgnitionTimer_1.c ****     * Return:
 681:Generated_Source\PSoC5/IgnitionTimer_1.c ****     *  None
 682:Generated_Source\PSoC5/IgnitionTimer_1.c ****     *
 683:Generated_Source\PSoC5/IgnitionTimer_1.c ****     *******************************************************************************/
 684:Generated_Source\PSoC5/IgnitionTimer_1.c ****     void IgnitionTimer_1_SetInterruptMode(uint8 interruptMode) 
 685:Generated_Source\PSoC5/IgnitionTimer_1.c ****     {
 686:Generated_Source\PSoC5/IgnitionTimer_1.c ****         CY_SET_REG8(IgnitionTimer_1_STATUS_MASK_PTR, interruptMode);
 715              		.loc 1 686 0
 716 0058 3374     		strb	r3, [r6, #16]
 717              	.LBE61:
 718              	.LBE60:
 167:Generated_Source\PSoC5/IgnitionTimer_1.c ****             /* Use the interrupt output of the status register for IRQ output */
 719              		.loc 1 167 0
 720 005a FFF7FEFF 		bl	CyEnterCriticalSection
 721              	.LVL6:
 169:Generated_Source\PSoC5/IgnitionTimer_1.c **** 
 722              		.loc 1 169 0
 723 005e 2B78     		ldrb	r3, [r5]	@ zero_extendqisi2
 724 0060 43F01003 		orr	r3, r3, #16
 725 0064 2B70     		strb	r3, [r5]
 172:Generated_Source\PSoC5/IgnitionTimer_1.c **** 
 726              		.loc 1 172 0
 727 0066 FFF7FEFF 		bl	CyExitCriticalSection
 728              	.LVL7:
 729              	.LBB62:
 730              	.LBB63:
 731              	.LBB64:
 732              	.LBB65:
 687:Generated_Source\PSoC5/IgnitionTimer_1.c ****     }
 688:Generated_Source\PSoC5/IgnitionTimer_1.c **** 
 689:Generated_Source\PSoC5/IgnitionTimer_1.c **** 
 690:Generated_Source\PSoC5/IgnitionTimer_1.c ****     /*******************************************************************************
 691:Generated_Source\PSoC5/IgnitionTimer_1.c ****     * Function Name: IgnitionTimer_1_ReadStatusRegister
 692:Generated_Source\PSoC5/IgnitionTimer_1.c ****     ********************************************************************************
 693:Generated_Source\PSoC5/IgnitionTimer_1.c ****     *
 694:Generated_Source\PSoC5/IgnitionTimer_1.c ****     * Summary:
 695:Generated_Source\PSoC5/IgnitionTimer_1.c ****     *  This function returns the current state of the status register.
 696:Generated_Source\PSoC5/IgnitionTimer_1.c ****     *
 697:Generated_Source\PSoC5/IgnitionTimer_1.c ****     * Parameters:
 698:Generated_Source\PSoC5/IgnitionTimer_1.c ****     *  None
 699:Generated_Source\PSoC5/IgnitionTimer_1.c ****     *
 700:Generated_Source\PSoC5/IgnitionTimer_1.c ****     * Return:
 701:Generated_Source\PSoC5/IgnitionTimer_1.c ****     *  uint8 : Current status register value. The status register bits are:
 702:Generated_Source\PSoC5/IgnitionTimer_1.c ****     *  [7:6] : Unused(0)
 703:Generated_Source\PSoC5/IgnitionTimer_1.c ****     *  [5]   : Kill event output
 704:Generated_Source\PSoC5/IgnitionTimer_1.c ****     *  [4]   : FIFO not empty
 705:Generated_Source\PSoC5/IgnitionTimer_1.c ****     *  [3]   : FIFO full
 706:Generated_Source\PSoC5/IgnitionTimer_1.c ****     *  [2]   : Terminal count
 707:Generated_Source\PSoC5/IgnitionTimer_1.c ****     *  [1]   : Compare output 2
 708:Generated_Source\PSoC5/IgnitionTimer_1.c ****     *  [0]   : Compare output 1
 709:Generated_Source\PSoC5/IgnitionTimer_1.c ****     *
 710:Generated_Source\PSoC5/IgnitionTimer_1.c ****     *******************************************************************************/
 711:Generated_Source\PSoC5/IgnitionTimer_1.c ****     uint8 IgnitionTimer_1_ReadStatusRegister(void) 
 712:Generated_Source\PSoC5/IgnitionTimer_1.c ****     {
 713:Generated_Source\PSoC5/IgnitionTimer_1.c ****         return (CY_GET_REG8(IgnitionTimer_1_STATUS_PTR));
 733              		.loc 1 713 0
ARM GAS  C:\Users\Bruger\AppData\Local\Temp\cc3c8GDn.s 			page 61


 734 006a 0B4A     		ldr	r2, .L13+20
 735 006c 1378     		ldrb	r3, [r2]	@ zero_extendqisi2
 736              	.LBE65:
 737              	.LBE64:
 455:Generated_Source\PSoC5/IgnitionTimer_1.c ****             {
 738              		.loc 1 455 0
 739 006e D906     		lsls	r1, r3, #27
 740 0070 04D5     		bpl	.L3
 741              	.LBB67:
 742              	.LBB68:
 714:Generated_Source\PSoC5/IgnitionTimer_1.c ****     }
 715:Generated_Source\PSoC5/IgnitionTimer_1.c **** 
 716:Generated_Source\PSoC5/IgnitionTimer_1.c **** #endif /* (IgnitionTimer_1_UseStatus || IgnitionTimer_1_UsingFixedFunction) */
 717:Generated_Source\PSoC5/IgnitionTimer_1.c **** 
 718:Generated_Source\PSoC5/IgnitionTimer_1.c **** 
 719:Generated_Source\PSoC5/IgnitionTimer_1.c **** #if (IgnitionTimer_1_UseControl)
 720:Generated_Source\PSoC5/IgnitionTimer_1.c **** 
 721:Generated_Source\PSoC5/IgnitionTimer_1.c **** 
 722:Generated_Source\PSoC5/IgnitionTimer_1.c ****     /*******************************************************************************
 723:Generated_Source\PSoC5/IgnitionTimer_1.c ****     * Function Name: IgnitionTimer_1_ReadControlRegister
 724:Generated_Source\PSoC5/IgnitionTimer_1.c ****     ********************************************************************************
 725:Generated_Source\PSoC5/IgnitionTimer_1.c ****     *
 726:Generated_Source\PSoC5/IgnitionTimer_1.c ****     * Summary:
 727:Generated_Source\PSoC5/IgnitionTimer_1.c ****     *  Returns the current state of the control register. This API is available
 728:Generated_Source\PSoC5/IgnitionTimer_1.c ****     *  only if the control register is not removed.
 729:Generated_Source\PSoC5/IgnitionTimer_1.c ****     *
 730:Generated_Source\PSoC5/IgnitionTimer_1.c ****     * Parameters:
 731:Generated_Source\PSoC5/IgnitionTimer_1.c ****     *  None
 732:Generated_Source\PSoC5/IgnitionTimer_1.c ****     *
 733:Generated_Source\PSoC5/IgnitionTimer_1.c ****     * Return:
 734:Generated_Source\PSoC5/IgnitionTimer_1.c ****     *  uint8 : Current control register value
 735:Generated_Source\PSoC5/IgnitionTimer_1.c ****     *
 736:Generated_Source\PSoC5/IgnitionTimer_1.c ****     *******************************************************************************/
 737:Generated_Source\PSoC5/IgnitionTimer_1.c ****     uint8 IgnitionTimer_1_ReadControlRegister(void) 
 738:Generated_Source\PSoC5/IgnitionTimer_1.c ****     {
 739:Generated_Source\PSoC5/IgnitionTimer_1.c ****         uint8 result;
 740:Generated_Source\PSoC5/IgnitionTimer_1.c **** 
 741:Generated_Source\PSoC5/IgnitionTimer_1.c ****         result = CY_GET_REG8(IgnitionTimer_1_CONTROL_PTR);
 742:Generated_Source\PSoC5/IgnitionTimer_1.c ****         return (result);
 743:Generated_Source\PSoC5/IgnitionTimer_1.c ****     }
 744:Generated_Source\PSoC5/IgnitionTimer_1.c **** 
 745:Generated_Source\PSoC5/IgnitionTimer_1.c **** 
 746:Generated_Source\PSoC5/IgnitionTimer_1.c ****     /*******************************************************************************
 747:Generated_Source\PSoC5/IgnitionTimer_1.c ****     * Function Name: IgnitionTimer_1_WriteControlRegister
 748:Generated_Source\PSoC5/IgnitionTimer_1.c ****     ********************************************************************************
 749:Generated_Source\PSoC5/IgnitionTimer_1.c ****     *
 750:Generated_Source\PSoC5/IgnitionTimer_1.c ****     * Summary:
 751:Generated_Source\PSoC5/IgnitionTimer_1.c ****     *  Sets the bit field of the control register. This API is available only if
 752:Generated_Source\PSoC5/IgnitionTimer_1.c ****     *  the control register is not removed.
 753:Generated_Source\PSoC5/IgnitionTimer_1.c ****     *
 754:Generated_Source\PSoC5/IgnitionTimer_1.c ****     * Parameters:
 755:Generated_Source\PSoC5/IgnitionTimer_1.c ****     *  uint8 control: Control register bit field, The status register bits are:
 756:Generated_Source\PSoC5/IgnitionTimer_1.c ****     *  [7]   : PWM Enable
 757:Generated_Source\PSoC5/IgnitionTimer_1.c ****     *  [6]   : Reset
 758:Generated_Source\PSoC5/IgnitionTimer_1.c ****     *  [5:3] : Compare Mode2
 759:Generated_Source\PSoC5/IgnitionTimer_1.c ****     *  [2:0] : Compare Mode2
 760:Generated_Source\PSoC5/IgnitionTimer_1.c ****     *
ARM GAS  C:\Users\Bruger\AppData\Local\Temp\cc3c8GDn.s 			page 62


 761:Generated_Source\PSoC5/IgnitionTimer_1.c ****     * Return:
 762:Generated_Source\PSoC5/IgnitionTimer_1.c ****     *  None
 763:Generated_Source\PSoC5/IgnitionTimer_1.c ****     *
 764:Generated_Source\PSoC5/IgnitionTimer_1.c ****     *******************************************************************************/
 765:Generated_Source\PSoC5/IgnitionTimer_1.c ****     void IgnitionTimer_1_WriteControlRegister(uint8 control) 
 766:Generated_Source\PSoC5/IgnitionTimer_1.c ****     {
 767:Generated_Source\PSoC5/IgnitionTimer_1.c ****         CY_SET_REG8(IgnitionTimer_1_CONTROL_PTR, control);
 768:Generated_Source\PSoC5/IgnitionTimer_1.c ****     }
 769:Generated_Source\PSoC5/IgnitionTimer_1.c **** 
 770:Generated_Source\PSoC5/IgnitionTimer_1.c **** #endif /* (IgnitionTimer_1_UseControl) */
 771:Generated_Source\PSoC5/IgnitionTimer_1.c **** 
 772:Generated_Source\PSoC5/IgnitionTimer_1.c **** 
 773:Generated_Source\PSoC5/IgnitionTimer_1.c **** #if (!IgnitionTimer_1_UsingFixedFunction)
 774:Generated_Source\PSoC5/IgnitionTimer_1.c **** 
 775:Generated_Source\PSoC5/IgnitionTimer_1.c **** 
 776:Generated_Source\PSoC5/IgnitionTimer_1.c ****     /*******************************************************************************
 777:Generated_Source\PSoC5/IgnitionTimer_1.c ****     * Function Name: IgnitionTimer_1_ReadCapture
 778:Generated_Source\PSoC5/IgnitionTimer_1.c ****     ********************************************************************************
 779:Generated_Source\PSoC5/IgnitionTimer_1.c ****     *
 780:Generated_Source\PSoC5/IgnitionTimer_1.c ****     * Summary:
 781:Generated_Source\PSoC5/IgnitionTimer_1.c ****     *  Reads the capture value from the capture FIFO.
 782:Generated_Source\PSoC5/IgnitionTimer_1.c ****     *
 783:Generated_Source\PSoC5/IgnitionTimer_1.c ****     * Parameters:
 784:Generated_Source\PSoC5/IgnitionTimer_1.c ****     *  None
 785:Generated_Source\PSoC5/IgnitionTimer_1.c ****     *
 786:Generated_Source\PSoC5/IgnitionTimer_1.c ****     * Return:
 787:Generated_Source\PSoC5/IgnitionTimer_1.c ****     *  uint8/uint16: The current capture value
 788:Generated_Source\PSoC5/IgnitionTimer_1.c ****     *
 789:Generated_Source\PSoC5/IgnitionTimer_1.c ****     *******************************************************************************/
 790:Generated_Source\PSoC5/IgnitionTimer_1.c ****     uint16 IgnitionTimer_1_ReadCapture(void) 
 791:Generated_Source\PSoC5/IgnitionTimer_1.c ****     {
 792:Generated_Source\PSoC5/IgnitionTimer_1.c ****         return (CY_GET_REG16(IgnitionTimer_1_CAPTURE_LSB_PTR));
 743              		.loc 1 792 0
 744 0072 0A49     		ldr	r1, .L13+24
 745              	.L7:
 746 0074 0B88     		ldrh	r3, [r1]
 747              	.LBE68:
 748              	.LBE67:
 749              	.LBB69:
 750              	.LBB66:
 713:Generated_Source\PSoC5/IgnitionTimer_1.c ****     }
 751              		.loc 1 713 0
 752 0076 1378     		ldrb	r3, [r2]	@ zero_extendqisi2
 753              	.LBE66:
 754              	.LBE69:
 455:Generated_Source\PSoC5/IgnitionTimer_1.c ****             {
 755              		.loc 1 455 0
 756 0078 DB06     		lsls	r3, r3, #27
 757 007a FBD4     		bmi	.L7
 758              	.L3:
 759              	.LBE63:
 760              	.LBE62:
 761              	.LBE43:
 762              	.LBE42:
  61:Generated_Source\PSoC5/IgnitionTimer_1.c ****     }
 763              		.loc 1 61 0
 764 007c 0123     		movs	r3, #1
ARM GAS  C:\Users\Bruger\AppData\Local\Temp\cc3c8GDn.s 			page 63


 765 007e 2370     		strb	r3, [r4]
 766 0080 C3E7     		b	.L2
 767              	.L14:
 768 0082 00BF     		.align	2
 769              	.L13:
 770 0084 00000000 		.word	.LANCHOR0
 771 0088 7A640040 		.word	1073767546
 772 008c 9A640040 		.word	1073767578
 773 0090 9B640040 		.word	1073767579
 774 0094 54680040 		.word	1073768532
 775 0098 6A640040 		.word	1073767530
 776 009c B4680040 		.word	1073768628
 777 00a0 94680040 		.word	1073768596
 778 00a4 14680040 		.word	1073768468
 779              		.cfi_endproc
 780              	.LFE0:
 781              		.size	IgnitionTimer_1_Start, .-IgnitionTimer_1_Start
 782              		.section	.text.IgnitionTimer_1_Init,"ax",%progbits
 783              		.align	2
 784              		.global	IgnitionTimer_1_Init
 785              		.thumb
 786              		.thumb_func
 787              		.type	IgnitionTimer_1_Init, %function
 788              	IgnitionTimer_1_Init:
 789              	.LFB1:
  85:Generated_Source\PSoC5/IgnitionTimer_1.c ****     #if (IgnitionTimer_1_UsingFixedFunction || IgnitionTimer_1_UseControl)
 790              		.loc 1 85 0
 791              		.cfi_startproc
 792              		@ args = 0, pretend = 0, frame = 0
 793              		@ frame_needed = 0, uses_anonymous_args = 0
 794              	.LBB70:
 795              	.LBB71:
 406:Generated_Source\PSoC5/IgnitionTimer_1.c ****     }
 796              		.loc 1 406 0
 797 0000 4AF6C872 		movw	r2, #45000
 798              	.LBE71:
 799              	.LBE70:
  85:Generated_Source\PSoC5/IgnitionTimer_1.c ****     #if (IgnitionTimer_1_UsingFixedFunction || IgnitionTimer_1_UseControl)
 800              		.loc 1 85 0
 801 0004 F8B5     		push	{r3, r4, r5, r6, r7, lr}
 802              		.cfi_def_cfa_offset 24
 803              		.cfi_offset 3, -24
 804              		.cfi_offset 4, -20
 805              		.cfi_offset 5, -16
 806              		.cfi_offset 6, -12
 807              		.cfi_offset 7, -8
 808              		.cfi_offset 14, -4
 117:Generated_Source\PSoC5/IgnitionTimer_1.c ****                 ((uint8)(~IgnitionTimer_1_CTRL_CMPMODE1_MASK));
 809              		.loc 1 117 0
 810 0006 1848     		ldr	r0, .L24
 129:Generated_Source\PSoC5/IgnitionTimer_1.c ****             IgnitionTimer_1_AUX_CONTROLDP1 |= (IgnitionTimer_1_AUX_CTRL_FIFO0_CLR);
 811              		.loc 1 129 0
 812 0008 184C     		ldr	r4, .L24+4
 117:Generated_Source\PSoC5/IgnitionTimer_1.c ****                 ((uint8)(~IgnitionTimer_1_CTRL_CMPMODE1_MASK));
 813              		.loc 1 117 0
 814 000a 0378     		ldrb	r3, [r0]	@ zero_extendqisi2
 815              	.LVL8:
ARM GAS  C:\Users\Bruger\AppData\Local\Temp\cc3c8GDn.s 			page 64


 130:Generated_Source\PSoC5/IgnitionTimer_1.c ****         #endif /* (IgnitionTimer_1_Resolution == 8) */
 816              		.loc 1 130 0
 817 000c 1849     		ldr	r1, .L24+8
 117:Generated_Source\PSoC5/IgnitionTimer_1.c ****                 ((uint8)(~IgnitionTimer_1_CTRL_CMPMODE1_MASK));
 818              		.loc 1 117 0
 819 000e 03F0C003 		and	r3, r3, #192
 820              	.LVL9:
 119:Generated_Source\PSoC5/IgnitionTimer_1.c ****                                    IgnitionTimer_1_DEFAULT_COMPARE1_MODE;
 821              		.loc 1 119 0
 822 0012 43F00903 		orr	r3, r3, #9
 823 0016 0370     		strb	r3, [r0]
 129:Generated_Source\PSoC5/IgnitionTimer_1.c ****             IgnitionTimer_1_AUX_CONTROLDP1 |= (IgnitionTimer_1_AUX_CTRL_FIFO0_CLR);
 824              		.loc 1 129 0
 825 0018 2378     		ldrb	r3, [r4]	@ zero_extendqisi2
 826              	.LBB74:
 827              	.LBB72:
 406:Generated_Source\PSoC5/IgnitionTimer_1.c ****     }
 828              		.loc 1 406 0
 829 001a DFF864C0 		ldr	ip, .L24+24
 830              	.LBE72:
 831              	.LBE74:
 129:Generated_Source\PSoC5/IgnitionTimer_1.c ****             IgnitionTimer_1_AUX_CONTROLDP1 |= (IgnitionTimer_1_AUX_CTRL_FIFO0_CLR);
 832              		.loc 1 129 0
 833 001e 43F00103 		orr	r3, r3, #1
 834 0022 2370     		strb	r3, [r4]
 130:Generated_Source\PSoC5/IgnitionTimer_1.c ****         #endif /* (IgnitionTimer_1_Resolution == 8) */
 835              		.loc 1 130 0
 836 0024 0B78     		ldrb	r3, [r1]	@ zero_extendqisi2
 837              	.LBB75:
 838              	.LBB76:
 487:Generated_Source\PSoC5/IgnitionTimer_1.c ****     #endif /* (IgnitionTimer_1_UsingFixedFunction) */
 839              		.loc 1 487 0
 840 0026 DFF85CE0 		ldr	lr, .L24+28
 841              	.LBE76:
 842              	.LBE75:
 843              	.LBB78:
 844              	.LBB79:
 522:Generated_Source\PSoC5/IgnitionTimer_1.c ****         #endif /* (IgnitionTimer_1_UsingFixedFunction) */
 845              		.loc 1 522 0
 846 002a 124E     		ldr	r6, .L24+12
 847              	.LBE79:
 848              	.LBE78:
 130:Generated_Source\PSoC5/IgnitionTimer_1.c ****         #endif /* (IgnitionTimer_1_Resolution == 8) */
 849              		.loc 1 130 0
 850 002c 43F00103 		orr	r3, r3, #1
 851              	.LBB82:
 852              	.LBB80:
 522:Generated_Source\PSoC5/IgnitionTimer_1.c ****         #endif /* (IgnitionTimer_1_UsingFixedFunction) */
 853              		.loc 1 522 0
 854 0030 4FF4FA47 		mov	r7, #32000
 855              	.LBE80:
 856              	.LBE82:
 857              	.LBB83:
 858              	.LBB84:
 686:Generated_Source\PSoC5/IgnitionTimer_1.c ****     }
 859              		.loc 1 686 0
 860 0034 0025     		movs	r5, #0
ARM GAS  C:\Users\Bruger\AppData\Local\Temp\cc3c8GDn.s 			page 65


 861              	.LBE84:
 862              	.LBE83:
 130:Generated_Source\PSoC5/IgnitionTimer_1.c ****         #endif /* (IgnitionTimer_1_Resolution == 8) */
 863              		.loc 1 130 0
 864 0036 0B70     		strb	r3, [r1]
 865              	.LVL10:
 866              	.LBB86:
 867              	.LBB73:
 406:Generated_Source\PSoC5/IgnitionTimer_1.c ****     }
 868              		.loc 1 406 0
 869 0038 ACF80020 		strh	r2, [ip]	@ movhi
 870              	.LVL11:
 871              	.LBE73:
 872              	.LBE86:
 873              	.LBB87:
 874              	.LBB77:
 487:Generated_Source\PSoC5/IgnitionTimer_1.c ****     #endif /* (IgnitionTimer_1_UsingFixedFunction) */
 875              		.loc 1 487 0
 876 003c AEF80020 		strh	r2, [lr]	@ movhi
 877              	.LVL12:
 878              	.LBE77:
 879              	.LBE87:
 880              	.LBB88:
 881              	.LBB81:
 522:Generated_Source\PSoC5/IgnitionTimer_1.c ****         #endif /* (IgnitionTimer_1_UsingFixedFunction) */
 882              		.loc 1 522 0
 883 0040 3780     		strh	r7, [r6]	@ movhi
 884              	.LVL13:
 885              	.LBE81:
 886              	.LBE88:
 887              	.LBB89:
 888              	.LBB85:
 686:Generated_Source\PSoC5/IgnitionTimer_1.c ****     }
 889              		.loc 1 686 0
 890 0042 0574     		strb	r5, [r0, #16]
 891              	.LBE85:
 892              	.LBE89:
 167:Generated_Source\PSoC5/IgnitionTimer_1.c ****             /* Use the interrupt output of the status register for IRQ output */
 893              		.loc 1 167 0
 894 0044 FFF7FEFF 		bl	CyEnterCriticalSection
 895              	.LVL14:
 169:Generated_Source\PSoC5/IgnitionTimer_1.c **** 
 896              		.loc 1 169 0
 897 0048 2378     		ldrb	r3, [r4]	@ zero_extendqisi2
 898 004a 43F01003 		orr	r3, r3, #16
 899 004e 2370     		strb	r3, [r4]
 172:Generated_Source\PSoC5/IgnitionTimer_1.c **** 
 900              		.loc 1 172 0
 901 0050 FFF7FEFF 		bl	CyExitCriticalSection
 902              	.LVL15:
 903              	.LBB90:
 904              	.LBB91:
 905              	.LBB92:
 906              	.LBB93:
 713:Generated_Source\PSoC5/IgnitionTimer_1.c ****     }
 907              		.loc 1 713 0
 908 0054 084A     		ldr	r2, .L24+16
ARM GAS  C:\Users\Bruger\AppData\Local\Temp\cc3c8GDn.s 			page 66


 909 0056 1378     		ldrb	r3, [r2]	@ zero_extendqisi2
 910              	.LBE93:
 911              	.LBE92:
 455:Generated_Source\PSoC5/IgnitionTimer_1.c ****             {
 912              		.loc 1 455 0
 913 0058 D906     		lsls	r1, r3, #27
 914 005a 04D5     		bpl	.L15
 915              	.LBB95:
 916              	.LBB96:
 917              		.loc 1 792 0
 918 005c 0749     		ldr	r1, .L24+20
 919              	.L20:
 920 005e 0B88     		ldrh	r3, [r1]
 921              	.LBE96:
 922              	.LBE95:
 923              	.LBB97:
 924              	.LBB94:
 713:Generated_Source\PSoC5/IgnitionTimer_1.c ****     }
 925              		.loc 1 713 0
 926 0060 1378     		ldrb	r3, [r2]	@ zero_extendqisi2
 927              	.LBE94:
 928              	.LBE97:
 455:Generated_Source\PSoC5/IgnitionTimer_1.c ****             {
 929              		.loc 1 455 0
 930 0062 DB06     		lsls	r3, r3, #27
 931 0064 FBD4     		bmi	.L20
 932              	.L15:
 933 0066 F8BD     		pop	{r3, r4, r5, r6, r7, pc}
 934              	.L25:
 935              		.align	2
 936              	.L24:
 937 0068 7A640040 		.word	1073767546
 938 006c 9A640040 		.word	1073767578
 939 0070 9B640040 		.word	1073767579
 940 0074 54680040 		.word	1073768532
 941 0078 6A640040 		.word	1073767530
 942 007c B4680040 		.word	1073768628
 943 0080 14680040 		.word	1073768468
 944 0084 94680040 		.word	1073768596
 945              	.LBE91:
 946              	.LBE90:
 947              		.cfi_endproc
 948              	.LFE1:
 949              		.size	IgnitionTimer_1_Init, .-IgnitionTimer_1_Init
 950              		.section	.text.IgnitionTimer_1_Enable,"ax",%progbits
 951              		.align	2
 952              		.global	IgnitionTimer_1_Enable
 953              		.thumb
 954              		.thumb_func
 955              		.type	IgnitionTimer_1_Enable, %function
 956              	IgnitionTimer_1_Enable:
 957              	.LFB2:
 200:Generated_Source\PSoC5/IgnitionTimer_1.c ****     /* Globally Enable the Fixed Function Block chosen */
 958              		.loc 1 200 0
 959              		.cfi_startproc
 960              		@ args = 0, pretend = 0, frame = 0
 961              		@ frame_needed = 0, uses_anonymous_args = 0
ARM GAS  C:\Users\Bruger\AppData\Local\Temp\cc3c8GDn.s 			page 67


 962              		@ link register save eliminated.
 209:Generated_Source\PSoC5/IgnitionTimer_1.c ****     #endif /* (IgnitionTimer_1_UseControl || IgnitionTimer_1_UsingFixedFunction) */
 963              		.loc 1 209 0
 964 0000 024A     		ldr	r2, .L27
 965 0002 1378     		ldrb	r3, [r2]	@ zero_extendqisi2
 966 0004 43F08003 		orr	r3, r3, #128
 967 0008 1370     		strb	r3, [r2]
 968 000a 7047     		bx	lr
 969              	.L28:
 970              		.align	2
 971              	.L27:
 972 000c 7A640040 		.word	1073767546
 973              		.cfi_endproc
 974              	.LFE2:
 975              		.size	IgnitionTimer_1_Enable, .-IgnitionTimer_1_Enable
 976              		.section	.text.IgnitionTimer_1_Stop,"ax",%progbits
 977              		.align	2
 978              		.global	IgnitionTimer_1_Stop
 979              		.thumb
 980              		.thumb_func
 981              		.type	IgnitionTimer_1_Stop, %function
 982              	IgnitionTimer_1_Stop:
 983              	.LFB3:
 234:Generated_Source\PSoC5/IgnitionTimer_1.c ****     #if (IgnitionTimer_1_UseControl || IgnitionTimer_1_UsingFixedFunction)
 984              		.loc 1 234 0
 985              		.cfi_startproc
 986              		@ args = 0, pretend = 0, frame = 0
 987              		@ frame_needed = 0, uses_anonymous_args = 0
 988              		@ link register save eliminated.
 236:Generated_Source\PSoC5/IgnitionTimer_1.c ****     #endif /* (IgnitionTimer_1_UseControl || IgnitionTimer_1_UsingFixedFunction) */
 989              		.loc 1 236 0
 990 0000 024A     		ldr	r2, .L30
 991 0002 1378     		ldrb	r3, [r2]	@ zero_extendqisi2
 992 0004 03F07F03 		and	r3, r3, #127
 993 0008 1370     		strb	r3, [r2]
 994 000a 7047     		bx	lr
 995              	.L31:
 996              		.align	2
 997              	.L30:
 998 000c 7A640040 		.word	1073767546
 999              		.cfi_endproc
 1000              	.LFE3:
 1001              		.size	IgnitionTimer_1_Stop, .-IgnitionTimer_1_Stop
 1002              		.section	.text.IgnitionTimer_1_WriteCounter,"ax",%progbits
 1003              		.align	2
 1004              		.global	IgnitionTimer_1_WriteCounter
 1005              		.thumb
 1006              		.thumb_func
 1007              		.type	IgnitionTimer_1_WriteCounter, %function
 1008              	IgnitionTimer_1_WriteCounter:
 1009              	.LFB4:
 405:Generated_Source\PSoC5/IgnitionTimer_1.c ****         CY_SET_REG16(IgnitionTimer_1_COUNTER_LSB_PTR, counter);
 1010              		.loc 1 405 0
 1011              		.cfi_startproc
 1012              		@ args = 0, pretend = 0, frame = 0
 1013              		@ frame_needed = 0, uses_anonymous_args = 0
 1014              		@ link register save eliminated.
ARM GAS  C:\Users\Bruger\AppData\Local\Temp\cc3c8GDn.s 			page 68


 1015              	.LVL16:
 406:Generated_Source\PSoC5/IgnitionTimer_1.c ****     }
 1016              		.loc 1 406 0
 1017 0000 014B     		ldr	r3, .L33
 1018 0002 1880     		strh	r0, [r3]	@ movhi
 1019 0004 7047     		bx	lr
 1020              	.L34:
 1021 0006 00BF     		.align	2
 1022              	.L33:
 1023 0008 14680040 		.word	1073768468
 1024              		.cfi_endproc
 1025              	.LFE4:
 1026              		.size	IgnitionTimer_1_WriteCounter, .-IgnitionTimer_1_WriteCounter
 1027              		.section	.text.IgnitionTimer_1_ReadCounter,"ax",%progbits
 1028              		.align	2
 1029              		.global	IgnitionTimer_1_ReadCounter
 1030              		.thumb
 1031              		.thumb_func
 1032              		.type	IgnitionTimer_1_ReadCounter, %function
 1033              	IgnitionTimer_1_ReadCounter:
 1034              	.LFB5:
 426:Generated_Source\PSoC5/IgnitionTimer_1.c ****         /* Force capture by reading Accumulator */
 1035              		.loc 1 426 0
 1036              		.cfi_startproc
 1037              		@ args = 0, pretend = 0, frame = 0
 1038              		@ frame_needed = 0, uses_anonymous_args = 0
 1039              		@ link register save eliminated.
 433:Generated_Source\PSoC5/IgnitionTimer_1.c ****     }
 1040              		.loc 1 433 0
 1041 0000 024B     		ldr	r3, .L36
 430:Generated_Source\PSoC5/IgnitionTimer_1.c **** 
 1042              		.loc 1 430 0
 1043 0002 034A     		ldr	r2, .L36+4
 1044 0004 1278     		ldrb	r2, [r2]	@ zero_extendqisi2
 433:Generated_Source\PSoC5/IgnitionTimer_1.c ****     }
 1045              		.loc 1 433 0
 1046 0006 1888     		ldrh	r0, [r3]
 434:Generated_Source\PSoC5/IgnitionTimer_1.c **** 
 1047              		.loc 1 434 0
 1048 0008 80B2     		uxth	r0, r0
 1049 000a 7047     		bx	lr
 1050              	.L37:
 1051              		.align	2
 1052              	.L36:
 1053 000c B4680040 		.word	1073768628
 1054 0010 1A640040 		.word	1073767450
 1055              		.cfi_endproc
 1056              	.LFE5:
 1057              		.size	IgnitionTimer_1_ReadCounter, .-IgnitionTimer_1_ReadCounter
 1058              		.section	.text.IgnitionTimer_1_ClearFIFO,"ax",%progbits
 1059              		.align	2
 1060              		.global	IgnitionTimer_1_ClearFIFO
 1061              		.thumb
 1062              		.thumb_func
 1063              		.type	IgnitionTimer_1_ClearFIFO, %function
 1064              	IgnitionTimer_1_ClearFIFO:
 1065              	.LFB6:
ARM GAS  C:\Users\Bruger\AppData\Local\Temp\cc3c8GDn.s 			page 69


 454:Generated_Source\PSoC5/IgnitionTimer_1.c ****             while(0u != (IgnitionTimer_1_ReadStatusRegister() & IgnitionTimer_1_STATUS_FIFONEMPTY))
 1066              		.loc 1 454 0
 1067              		.cfi_startproc
 1068              		@ args = 0, pretend = 0, frame = 0
 1069              		@ frame_needed = 0, uses_anonymous_args = 0
 1070              		@ link register save eliminated.
 1071              	.LBB98:
 1072              	.LBB99:
 713:Generated_Source\PSoC5/IgnitionTimer_1.c ****     }
 1073              		.loc 1 713 0
 1074 0000 044A     		ldr	r2, .L46
 1075 0002 1378     		ldrb	r3, [r2]	@ zero_extendqisi2
 1076              	.LBE99:
 1077              	.LBE98:
 455:Generated_Source\PSoC5/IgnitionTimer_1.c ****             {
 1078              		.loc 1 455 0
 1079 0004 D906     		lsls	r1, r3, #27
 1080 0006 04D5     		bpl	.L38
 1081              	.LBB101:
 1082              	.LBB102:
 1083              		.loc 1 792 0
 1084 0008 0349     		ldr	r1, .L46+4
 1085              	.L43:
 1086 000a 0B88     		ldrh	r3, [r1]
 1087              	.LBE102:
 1088              	.LBE101:
 1089              	.LBB103:
 1090              	.LBB100:
 713:Generated_Source\PSoC5/IgnitionTimer_1.c ****     }
 1091              		.loc 1 713 0
 1092 000c 1378     		ldrb	r3, [r2]	@ zero_extendqisi2
 1093              	.LBE100:
 1094              	.LBE103:
 455:Generated_Source\PSoC5/IgnitionTimer_1.c ****             {
 1095              		.loc 1 455 0
 1096 000e DB06     		lsls	r3, r3, #27
 1097 0010 FBD4     		bmi	.L43
 1098              	.L38:
 1099 0012 7047     		bx	lr
 1100              	.L47:
 1101              		.align	2
 1102              	.L46:
 1103 0014 6A640040 		.word	1073767530
 1104 0018 B4680040 		.word	1073768628
 1105              		.cfi_endproc
 1106              	.LFE6:
 1107              		.size	IgnitionTimer_1_ClearFIFO, .-IgnitionTimer_1_ClearFIFO
 1108              		.section	.text.IgnitionTimer_1_WritePeriod,"ax",%progbits
 1109              		.align	2
 1110              		.global	IgnitionTimer_1_WritePeriod
 1111              		.thumb
 1112              		.thumb_func
 1113              		.type	IgnitionTimer_1_WritePeriod, %function
 1114              	IgnitionTimer_1_WritePeriod:
 1115              	.LFB7:
 483:Generated_Source\PSoC5/IgnitionTimer_1.c ****     #if(IgnitionTimer_1_UsingFixedFunction)
 1116              		.loc 1 483 0
ARM GAS  C:\Users\Bruger\AppData\Local\Temp\cc3c8GDn.s 			page 70


 1117              		.cfi_startproc
 1118              		@ args = 0, pretend = 0, frame = 0
 1119              		@ frame_needed = 0, uses_anonymous_args = 0
 1120              		@ link register save eliminated.
 1121              	.LVL17:
 487:Generated_Source\PSoC5/IgnitionTimer_1.c ****     #endif /* (IgnitionTimer_1_UsingFixedFunction) */
 1122              		.loc 1 487 0
 1123 0000 014B     		ldr	r3, .L49
 1124 0002 1880     		strh	r0, [r3]	@ movhi
 1125 0004 7047     		bx	lr
 1126              	.L50:
 1127 0006 00BF     		.align	2
 1128              	.L49:
 1129 0008 94680040 		.word	1073768596
 1130              		.cfi_endproc
 1131              	.LFE7:
 1132              		.size	IgnitionTimer_1_WritePeriod, .-IgnitionTimer_1_WritePeriod
 1133              		.section	.text.IgnitionTimer_1_WriteCompare,"ax",%progbits
 1134              		.align	2
 1135              		.global	IgnitionTimer_1_WriteCompare
 1136              		.thumb
 1137              		.thumb_func
 1138              		.type	IgnitionTimer_1_WriteCompare, %function
 1139              	IgnitionTimer_1_WriteCompare:
 1140              	.LFB8:
 518:Generated_Source\PSoC5/IgnitionTimer_1.c ****         #if(IgnitionTimer_1_UsingFixedFunction)
 1141              		.loc 1 518 0
 1142              		.cfi_startproc
 1143              		@ args = 0, pretend = 0, frame = 0
 1144              		@ frame_needed = 0, uses_anonymous_args = 0
 1145              		@ link register save eliminated.
 1146              	.LVL18:
 522:Generated_Source\PSoC5/IgnitionTimer_1.c ****         #endif /* (IgnitionTimer_1_UsingFixedFunction) */
 1147              		.loc 1 522 0
 1148 0000 014B     		ldr	r3, .L52
 1149 0002 1880     		strh	r0, [r3]	@ movhi
 1150 0004 7047     		bx	lr
 1151              	.L53:
 1152 0006 00BF     		.align	2
 1153              	.L52:
 1154 0008 54680040 		.word	1073768532
 1155              		.cfi_endproc
 1156              	.LFE8:
 1157              		.size	IgnitionTimer_1_WriteCompare, .-IgnitionTimer_1_WriteCompare
 1158              		.section	.text.IgnitionTimer_1_SetInterruptMode,"ax",%progbits
 1159              		.align	2
 1160              		.global	IgnitionTimer_1_SetInterruptMode
 1161              		.thumb
 1162              		.thumb_func
 1163              		.type	IgnitionTimer_1_SetInterruptMode, %function
 1164              	IgnitionTimer_1_SetInterruptMode:
 1165              	.LFB9:
 685:Generated_Source\PSoC5/IgnitionTimer_1.c ****         CY_SET_REG8(IgnitionTimer_1_STATUS_MASK_PTR, interruptMode);
 1166              		.loc 1 685 0
 1167              		.cfi_startproc
 1168              		@ args = 0, pretend = 0, frame = 0
 1169              		@ frame_needed = 0, uses_anonymous_args = 0
ARM GAS  C:\Users\Bruger\AppData\Local\Temp\cc3c8GDn.s 			page 71


 1170              		@ link register save eliminated.
 1171              	.LVL19:
 686:Generated_Source\PSoC5/IgnitionTimer_1.c ****     }
 1172              		.loc 1 686 0
 1173 0000 014B     		ldr	r3, .L55
 1174 0002 1870     		strb	r0, [r3]
 1175 0004 7047     		bx	lr
 1176              	.L56:
 1177 0006 00BF     		.align	2
 1178              	.L55:
 1179 0008 8A640040 		.word	1073767562
 1180              		.cfi_endproc
 1181              	.LFE9:
 1182              		.size	IgnitionTimer_1_SetInterruptMode, .-IgnitionTimer_1_SetInterruptMode
 1183              		.section	.text.IgnitionTimer_1_ReadStatusRegister,"ax",%progbits
 1184              		.align	2
 1185              		.global	IgnitionTimer_1_ReadStatusRegister
 1186              		.thumb
 1187              		.thumb_func
 1188              		.type	IgnitionTimer_1_ReadStatusRegister, %function
 1189              	IgnitionTimer_1_ReadStatusRegister:
 1190              	.LFB10:
 712:Generated_Source\PSoC5/IgnitionTimer_1.c ****         return (CY_GET_REG8(IgnitionTimer_1_STATUS_PTR));
 1191              		.loc 1 712 0
 1192              		.cfi_startproc
 1193              		@ args = 0, pretend = 0, frame = 0
 1194              		@ frame_needed = 0, uses_anonymous_args = 0
 1195              		@ link register save eliminated.
 713:Generated_Source\PSoC5/IgnitionTimer_1.c ****     }
 1196              		.loc 1 713 0
 1197 0000 014B     		ldr	r3, .L58
 1198 0002 1878     		ldrb	r0, [r3]	@ zero_extendqisi2
 714:Generated_Source\PSoC5/IgnitionTimer_1.c **** 
 1199              		.loc 1 714 0
 1200 0004 7047     		bx	lr
 1201              	.L59:
 1202 0006 00BF     		.align	2
 1203              	.L58:
 1204 0008 6A640040 		.word	1073767530
 1205              		.cfi_endproc
 1206              	.LFE10:
 1207              		.size	IgnitionTimer_1_ReadStatusRegister, .-IgnitionTimer_1_ReadStatusRegister
 1208              		.section	.text.IgnitionTimer_1_ReadControlRegister,"ax",%progbits
 1209              		.align	2
 1210              		.global	IgnitionTimer_1_ReadControlRegister
 1211              		.thumb
 1212              		.thumb_func
 1213              		.type	IgnitionTimer_1_ReadControlRegister, %function
 1214              	IgnitionTimer_1_ReadControlRegister:
 1215              	.LFB11:
 738:Generated_Source\PSoC5/IgnitionTimer_1.c ****         uint8 result;
 1216              		.loc 1 738 0
 1217              		.cfi_startproc
 1218              		@ args = 0, pretend = 0, frame = 0
 1219              		@ frame_needed = 0, uses_anonymous_args = 0
 1220              		@ link register save eliminated.
 741:Generated_Source\PSoC5/IgnitionTimer_1.c ****         return (result);
ARM GAS  C:\Users\Bruger\AppData\Local\Temp\cc3c8GDn.s 			page 72


 1221              		.loc 1 741 0
 1222 0000 014B     		ldr	r3, .L61
 1223 0002 1878     		ldrb	r0, [r3]	@ zero_extendqisi2
 1224              	.LVL20:
 743:Generated_Source\PSoC5/IgnitionTimer_1.c **** 
 1225              		.loc 1 743 0
 1226 0004 7047     		bx	lr
 1227              	.L62:
 1228 0006 00BF     		.align	2
 1229              	.L61:
 1230 0008 7A640040 		.word	1073767546
 1231              		.cfi_endproc
 1232              	.LFE11:
 1233              		.size	IgnitionTimer_1_ReadControlRegister, .-IgnitionTimer_1_ReadControlRegister
 1234              		.section	.text.IgnitionTimer_1_WriteControlRegister,"ax",%progbits
 1235              		.align	2
 1236              		.global	IgnitionTimer_1_WriteControlRegister
 1237              		.thumb
 1238              		.thumb_func
 1239              		.type	IgnitionTimer_1_WriteControlRegister, %function
 1240              	IgnitionTimer_1_WriteControlRegister:
 1241              	.LFB12:
 766:Generated_Source\PSoC5/IgnitionTimer_1.c ****         CY_SET_REG8(IgnitionTimer_1_CONTROL_PTR, control);
 1242              		.loc 1 766 0
 1243              		.cfi_startproc
 1244              		@ args = 0, pretend = 0, frame = 0
 1245              		@ frame_needed = 0, uses_anonymous_args = 0
 1246              		@ link register save eliminated.
 1247              	.LVL21:
 767:Generated_Source\PSoC5/IgnitionTimer_1.c ****     }
 1248              		.loc 1 767 0
 1249 0000 014B     		ldr	r3, .L64
 1250 0002 1870     		strb	r0, [r3]
 1251 0004 7047     		bx	lr
 1252              	.L65:
 1253 0006 00BF     		.align	2
 1254              	.L64:
 1255 0008 7A640040 		.word	1073767546
 1256              		.cfi_endproc
 1257              	.LFE12:
 1258              		.size	IgnitionTimer_1_WriteControlRegister, .-IgnitionTimer_1_WriteControlRegister
 1259              		.section	.text.IgnitionTimer_1_ReadCapture,"ax",%progbits
 1260              		.align	2
 1261              		.global	IgnitionTimer_1_ReadCapture
 1262              		.thumb
 1263              		.thumb_func
 1264              		.type	IgnitionTimer_1_ReadCapture, %function
 1265              	IgnitionTimer_1_ReadCapture:
 1266              	.LFB13:
 791:Generated_Source\PSoC5/IgnitionTimer_1.c ****         return (CY_GET_REG16(IgnitionTimer_1_CAPTURE_LSB_PTR));
 1267              		.loc 1 791 0
 1268              		.cfi_startproc
 1269              		@ args = 0, pretend = 0, frame = 0
 1270              		@ frame_needed = 0, uses_anonymous_args = 0
 1271              		@ link register save eliminated.
 1272              		.loc 1 792 0
 1273 0000 014B     		ldr	r3, .L67
ARM GAS  C:\Users\Bruger\AppData\Local\Temp\cc3c8GDn.s 			page 73


 1274 0002 1888     		ldrh	r0, [r3]
 793:Generated_Source\PSoC5/IgnitionTimer_1.c ****     }
 1275              		.loc 1 793 0
 1276 0004 80B2     		uxth	r0, r0
 1277 0006 7047     		bx	lr
 1278              	.L68:
 1279              		.align	2
 1280              	.L67:
 1281 0008 B4680040 		.word	1073768628
 1282              		.cfi_endproc
 1283              	.LFE13:
 1284              		.size	IgnitionTimer_1_ReadCapture, .-IgnitionTimer_1_ReadCapture
 1285              		.section	.text.IgnitionTimer_1_ReadCompare,"ax",%progbits
 1286              		.align	2
 1287              		.global	IgnitionTimer_1_ReadCompare
 1288              		.thumb
 1289              		.thumb_func
 1290              		.type	IgnitionTimer_1_ReadCompare, %function
 1291              	IgnitionTimer_1_ReadCompare:
 1292              	.LFB14:
 794:Generated_Source\PSoC5/IgnitionTimer_1.c **** 
 795:Generated_Source\PSoC5/IgnitionTimer_1.c **** #endif /* (!IgnitionTimer_1_UsingFixedFunction) */
 796:Generated_Source\PSoC5/IgnitionTimer_1.c **** 
 797:Generated_Source\PSoC5/IgnitionTimer_1.c **** 
 798:Generated_Source\PSoC5/IgnitionTimer_1.c **** #if (IgnitionTimer_1_UseOneCompareMode)
 799:Generated_Source\PSoC5/IgnitionTimer_1.c **** 
 800:Generated_Source\PSoC5/IgnitionTimer_1.c **** 
 801:Generated_Source\PSoC5/IgnitionTimer_1.c ****     /*******************************************************************************
 802:Generated_Source\PSoC5/IgnitionTimer_1.c ****     * Function Name: IgnitionTimer_1_ReadCompare
 803:Generated_Source\PSoC5/IgnitionTimer_1.c ****     ********************************************************************************
 804:Generated_Source\PSoC5/IgnitionTimer_1.c ****     *
 805:Generated_Source\PSoC5/IgnitionTimer_1.c ****     * Summary:
 806:Generated_Source\PSoC5/IgnitionTimer_1.c ****     *  Reads the compare value for the compare output when the PWM Mode parameter is
 807:Generated_Source\PSoC5/IgnitionTimer_1.c ****     *  set to Dither mode, Center Aligned mode, or One Output mode.
 808:Generated_Source\PSoC5/IgnitionTimer_1.c ****     *
 809:Generated_Source\PSoC5/IgnitionTimer_1.c ****     * Parameters:
 810:Generated_Source\PSoC5/IgnitionTimer_1.c ****     *  None
 811:Generated_Source\PSoC5/IgnitionTimer_1.c ****     *
 812:Generated_Source\PSoC5/IgnitionTimer_1.c ****     * Return:
 813:Generated_Source\PSoC5/IgnitionTimer_1.c ****     *  uint8/uint16: Current compare value
 814:Generated_Source\PSoC5/IgnitionTimer_1.c ****     *
 815:Generated_Source\PSoC5/IgnitionTimer_1.c ****     *******************************************************************************/
 816:Generated_Source\PSoC5/IgnitionTimer_1.c ****     uint16 IgnitionTimer_1_ReadCompare(void) 
 817:Generated_Source\PSoC5/IgnitionTimer_1.c ****     {
 1293              		.loc 1 817 0
 1294              		.cfi_startproc
 1295              		@ args = 0, pretend = 0, frame = 0
 1296              		@ frame_needed = 0, uses_anonymous_args = 0
 1297              		@ link register save eliminated.
 818:Generated_Source\PSoC5/IgnitionTimer_1.c ****         #if(IgnitionTimer_1_UsingFixedFunction)
 819:Generated_Source\PSoC5/IgnitionTimer_1.c ****             return ((uint16)CY_GET_REG16(IgnitionTimer_1_COMPARE1_LSB_PTR));
 820:Generated_Source\PSoC5/IgnitionTimer_1.c ****         #else
 821:Generated_Source\PSoC5/IgnitionTimer_1.c ****             return (CY_GET_REG16(IgnitionTimer_1_COMPARE1_LSB_PTR));
 1298              		.loc 1 821 0
 1299 0000 014B     		ldr	r3, .L70
 1300 0002 1888     		ldrh	r0, [r3]
 822:Generated_Source\PSoC5/IgnitionTimer_1.c ****         #endif /* (IgnitionTimer_1_UsingFixedFunction) */
ARM GAS  C:\Users\Bruger\AppData\Local\Temp\cc3c8GDn.s 			page 74


 823:Generated_Source\PSoC5/IgnitionTimer_1.c ****     }
 1301              		.loc 1 823 0
 1302 0004 80B2     		uxth	r0, r0
 1303 0006 7047     		bx	lr
 1304              	.L71:
 1305              		.align	2
 1306              	.L70:
 1307 0008 54680040 		.word	1073768532
 1308              		.cfi_endproc
 1309              	.LFE14:
 1310              		.size	IgnitionTimer_1_ReadCompare, .-IgnitionTimer_1_ReadCompare
 1311              		.section	.text.IgnitionTimer_1_ReadPeriod,"ax",%progbits
 1312              		.align	2
 1313              		.global	IgnitionTimer_1_ReadPeriod
 1314              		.thumb
 1315              		.thumb_func
 1316              		.type	IgnitionTimer_1_ReadPeriod, %function
 1317              	IgnitionTimer_1_ReadPeriod:
 1318              	.LFB15:
 824:Generated_Source\PSoC5/IgnitionTimer_1.c **** 
 825:Generated_Source\PSoC5/IgnitionTimer_1.c **** #else
 826:Generated_Source\PSoC5/IgnitionTimer_1.c **** 
 827:Generated_Source\PSoC5/IgnitionTimer_1.c **** 
 828:Generated_Source\PSoC5/IgnitionTimer_1.c ****     /*******************************************************************************
 829:Generated_Source\PSoC5/IgnitionTimer_1.c ****     * Function Name: IgnitionTimer_1_ReadCompare1
 830:Generated_Source\PSoC5/IgnitionTimer_1.c ****     ********************************************************************************
 831:Generated_Source\PSoC5/IgnitionTimer_1.c ****     *
 832:Generated_Source\PSoC5/IgnitionTimer_1.c ****     * Summary:
 833:Generated_Source\PSoC5/IgnitionTimer_1.c ****     *  Reads the compare value for the compare1 output.
 834:Generated_Source\PSoC5/IgnitionTimer_1.c ****     *
 835:Generated_Source\PSoC5/IgnitionTimer_1.c ****     * Parameters:
 836:Generated_Source\PSoC5/IgnitionTimer_1.c ****     *  None
 837:Generated_Source\PSoC5/IgnitionTimer_1.c ****     *
 838:Generated_Source\PSoC5/IgnitionTimer_1.c ****     * Return:
 839:Generated_Source\PSoC5/IgnitionTimer_1.c ****     *  uint8/uint16: Current compare value.
 840:Generated_Source\PSoC5/IgnitionTimer_1.c ****     *
 841:Generated_Source\PSoC5/IgnitionTimer_1.c ****     *******************************************************************************/
 842:Generated_Source\PSoC5/IgnitionTimer_1.c ****     uint16 IgnitionTimer_1_ReadCompare1(void) 
 843:Generated_Source\PSoC5/IgnitionTimer_1.c ****     {
 844:Generated_Source\PSoC5/IgnitionTimer_1.c ****         return (CY_GET_REG16(IgnitionTimer_1_COMPARE1_LSB_PTR));
 845:Generated_Source\PSoC5/IgnitionTimer_1.c ****     }
 846:Generated_Source\PSoC5/IgnitionTimer_1.c **** 
 847:Generated_Source\PSoC5/IgnitionTimer_1.c **** 
 848:Generated_Source\PSoC5/IgnitionTimer_1.c ****     /*******************************************************************************
 849:Generated_Source\PSoC5/IgnitionTimer_1.c ****     * Function Name: IgnitionTimer_1_ReadCompare2
 850:Generated_Source\PSoC5/IgnitionTimer_1.c ****     ********************************************************************************
 851:Generated_Source\PSoC5/IgnitionTimer_1.c ****     *
 852:Generated_Source\PSoC5/IgnitionTimer_1.c ****     * Summary:
 853:Generated_Source\PSoC5/IgnitionTimer_1.c ****     *  Reads the compare value for the compare2 output.
 854:Generated_Source\PSoC5/IgnitionTimer_1.c ****     *
 855:Generated_Source\PSoC5/IgnitionTimer_1.c ****     * Parameters:
 856:Generated_Source\PSoC5/IgnitionTimer_1.c ****     *  None
 857:Generated_Source\PSoC5/IgnitionTimer_1.c ****     *
 858:Generated_Source\PSoC5/IgnitionTimer_1.c ****     * Return:
 859:Generated_Source\PSoC5/IgnitionTimer_1.c ****     *  uint8/uint16: Current compare value.
 860:Generated_Source\PSoC5/IgnitionTimer_1.c ****     *
 861:Generated_Source\PSoC5/IgnitionTimer_1.c ****     *******************************************************************************/
ARM GAS  C:\Users\Bruger\AppData\Local\Temp\cc3c8GDn.s 			page 75


 862:Generated_Source\PSoC5/IgnitionTimer_1.c ****     uint16 IgnitionTimer_1_ReadCompare2(void) 
 863:Generated_Source\PSoC5/IgnitionTimer_1.c ****     {
 864:Generated_Source\PSoC5/IgnitionTimer_1.c ****         return (CY_GET_REG16(IgnitionTimer_1_COMPARE2_LSB_PTR));
 865:Generated_Source\PSoC5/IgnitionTimer_1.c ****     }
 866:Generated_Source\PSoC5/IgnitionTimer_1.c **** 
 867:Generated_Source\PSoC5/IgnitionTimer_1.c **** #endif /* (IgnitionTimer_1_UseOneCompareMode) */
 868:Generated_Source\PSoC5/IgnitionTimer_1.c **** 
 869:Generated_Source\PSoC5/IgnitionTimer_1.c **** 
 870:Generated_Source\PSoC5/IgnitionTimer_1.c **** /*******************************************************************************
 871:Generated_Source\PSoC5/IgnitionTimer_1.c **** * Function Name: IgnitionTimer_1_ReadPeriod
 872:Generated_Source\PSoC5/IgnitionTimer_1.c **** ********************************************************************************
 873:Generated_Source\PSoC5/IgnitionTimer_1.c **** *
 874:Generated_Source\PSoC5/IgnitionTimer_1.c **** * Summary:
 875:Generated_Source\PSoC5/IgnitionTimer_1.c **** *  Reads the period value used by the PWM hardware.
 876:Generated_Source\PSoC5/IgnitionTimer_1.c **** *
 877:Generated_Source\PSoC5/IgnitionTimer_1.c **** * Parameters:
 878:Generated_Source\PSoC5/IgnitionTimer_1.c **** *  None
 879:Generated_Source\PSoC5/IgnitionTimer_1.c **** *
 880:Generated_Source\PSoC5/IgnitionTimer_1.c **** * Return:
 881:Generated_Source\PSoC5/IgnitionTimer_1.c **** *  uint8/16: Period value
 882:Generated_Source\PSoC5/IgnitionTimer_1.c **** *
 883:Generated_Source\PSoC5/IgnitionTimer_1.c **** *******************************************************************************/
 884:Generated_Source\PSoC5/IgnitionTimer_1.c **** uint16 IgnitionTimer_1_ReadPeriod(void) 
 885:Generated_Source\PSoC5/IgnitionTimer_1.c **** {
 1319              		.loc 1 885 0
 1320              		.cfi_startproc
 1321              		@ args = 0, pretend = 0, frame = 0
 1322              		@ frame_needed = 0, uses_anonymous_args = 0
 1323              		@ link register save eliminated.
 886:Generated_Source\PSoC5/IgnitionTimer_1.c ****     #if(IgnitionTimer_1_UsingFixedFunction)
 887:Generated_Source\PSoC5/IgnitionTimer_1.c ****         return ((uint16)CY_GET_REG16(IgnitionTimer_1_PERIOD_LSB_PTR));
 888:Generated_Source\PSoC5/IgnitionTimer_1.c ****     #else
 889:Generated_Source\PSoC5/IgnitionTimer_1.c ****         return (CY_GET_REG16(IgnitionTimer_1_PERIOD_LSB_PTR));
 1324              		.loc 1 889 0
 1325 0000 014B     		ldr	r3, .L73
 1326 0002 1888     		ldrh	r0, [r3]
 890:Generated_Source\PSoC5/IgnitionTimer_1.c ****     #endif /* (IgnitionTimer_1_UsingFixedFunction) */
 891:Generated_Source\PSoC5/IgnitionTimer_1.c **** }
 1327              		.loc 1 891 0
 1328 0004 80B2     		uxth	r0, r0
 1329 0006 7047     		bx	lr
 1330              	.L74:
 1331              		.align	2
 1332              	.L73:
 1333 0008 94680040 		.word	1073768596
 1334              		.cfi_endproc
 1335              	.LFE15:
 1336              		.size	IgnitionTimer_1_ReadPeriod, .-IgnitionTimer_1_ReadPeriod
 1337              		.global	IgnitionTimer_1_initVar
 1338              		.bss
 1339              		.set	.LANCHOR0,. + 0
 1340              		.type	IgnitionTimer_1_initVar, %object
 1341              		.size	IgnitionTimer_1_initVar, 1
 1342              	IgnitionTimer_1_initVar:
 1343 0000 00       		.space	1
 1344              		.text
 1345              	.Letext0:
ARM GAS  C:\Users\Bruger\AppData\Local\Temp\cc3c8GDn.s 			page 76


 1346              		.file 2 "Generated_Source\\PSoC5\\cytypes.h"
 1347              		.file 3 "Generated_Source\\PSoC5\\CyLib.h"