ARM GAS  C:\Users\Bruger\AppData\Local\Temp\cc86a72P.s 			page 1


   1              		.syntax unified
   2              		.cpu cortex-m3
   3              		.fpu softvfp
   4              		.eabi_attribute 20, 1
   5              		.eabi_attribute 21, 1
   6              		.eabi_attribute 23, 3
   7              		.eabi_attribute 24, 1
   8              		.eabi_attribute 25, 1
   9              		.eabi_attribute 26, 1
  10              		.eabi_attribute 30, 4
  11              		.eabi_attribute 34, 1
  12              		.eabi_attribute 18, 4
  13              		.thumb
  14              		.file	"Inj1_PM.c"
  15              		.text
  16              	.Ltext0:
  17              		.section	.gnu.lto_.profile.ec4e3772,"",%progbits
  18 0000 789C6366 		.ascii	"x\234cf```e\200\000F\206\026F5\000\002>\000\265"
  18      60606065 
  18      80004686 
  18      16463500 
  18      023E00B5 
  19              		.text
  20              		.section	.gnu.lto_.jmpfuncs.ec4e3772,"",%progbits
  21 0000 789C6366 		.ascii	"x\234cf\300\016\344\2404\013\204bb``\204!f\2048\000"
  21      C00EE4A0 
  21      340B8462 
  21      62606084 
  21      21668438 
  22 0015 067E0032 		.ascii	"\006~\0002"
  23              		.text
  24              		.section	.gnu.lto_.inline.ec4e3772,"",%progbits
  25 0000 789C6366 		.ascii	"x\234cf\300\016\332\2404\013\003\003\237\006#\003\023"
  25      C00EDAA0 
  25      340B0303 
  25      9F062303 
  25      13
  26 0011 D7043F06 		.ascii	"\327\004?\006\266\005\362L 1&nT\002\273\012\306\011"
  26      B605F24C 
  26      2031266E 
  26      5402BB0A 
  26      C609
  27 0023 7EA81433 		.ascii	"~\250\0243\003\227\024H\335>;\270:F.\030\301\302\300"
  27      03971448 
  27      DD3E3BB8 
  27      3A462E18 
  27      C1C2C0
  28 0036 210C9464 		.ascii	"!\014\224d\373\240\207E\222\001\000C0\013{"
  28      FBA08745 
  28      92010043 
  28      300B7B
  29              		.text
  30              		.section	.gnu.lto_.pureconst.ec4e3772,"",%progbits
  31 0000 789C6366 		.ascii	"x\234cf``\340d\200\000\026\006)&)f)\026\011\000\002"
  31      6060E064 
  31      80001606 
  31      29262966 
ARM GAS  C:\Users\Bruger\AppData\Local\Temp\cc86a72P.s 			page 2


  31      29160900 
  32 0015 CF0080   		.ascii	"\317\000\200"
  33              		.text
  34              		.section	.gnu.lto_Inj1_SaveConfig.ec4e3772,"",%progbits
  35 0000 789C9D92 		.ascii	"x\234\235\222=H\034A\024\307\337\177\366\334\254n\004"
  35      3D481C41 
  35      14C7DF7F 
  35      F6DCAC6E 
  35      04
  36 0011 B1BC4208 		.ascii	"\261\274B\010\022l\324\220\"`\037P,\204\003[A\304\\"
  36      126CD490 
  36      22601F50 
  36      2C84035B 
  36      41C45C
  37 0024 9342414C 		.ascii	"\223BALy\270\233\034!Z\030c\341\007\032AA\3748\277\277"
  37      79B89B1C 
  37      215A1863 
  37      E1071A41 
  37      41FC38BF 
  38 0039 3F90ACB6 		.ascii	"?\220\254\266\007\212X\010!\030\204K\210\235z\240Y\202"
  38      078A5808 
  38      2118844B 
  38      889D7AA0 
  38      5982
  39 004b 31EFCD36 		.ascii	"1\357\3156z\032A\027ffg\346?\357\377{o\306\240\233_"
  39      7A1A4117 
  39      666667E6 
  39      3FEFFF7B 
  39      6FC6A09B 
  40 0060 98DB6F45 		.ascii	"\230\333oET\310#\014\202\352\330&r-\005\310\017\201"
  40      54C8230C 
  40      82EAD826 
  40      722D05C8 
  40      0F81
  41 0072 5A145A70 		.ascii	"Z\024Zp\244N\024:\274D\217]4\3548\316\361P\322\215x"
  41      A44E143A 
  41      BC448F5D 
  41      34EC38CE 
  41      F150D28D 
  42 0087 F0F95C5A 		.ascii	"\360\371\\Z\005q0\202\"b\321I\374b\3376\343,\312\013"
  42      05713082 
  42      2262D149 
  42      FC62DF36 
  42      E32CCA0B 
  43 009b F6300A13 		.ascii	"\3660\012\023<N\347{\316\345ezr\263\313\3145\310W0\245"
  43      3C4EE77B 
  43      CEE5657A 
  43      72B3CBCC 
  43      35C85730 
  44 00b0 B3B853B6 		.ascii	"\263\270S\266tD)nb\372\203'<\032\337\360\316\373\262"
  44      7444296E 
  44      62FA8327 
  44      3C1ADFF0 
  44      CEFBB2
  45 00c3 A824C0B9 		.ascii	"\250$\300\27128\366\300^\373\224\212\375q>8\226\257"
  45      3238F6C0 
  45      5EFB948A 
ARM GAS  C:\Users\Bruger\AppData\Local\Temp\cc86a72P.s 			page 3


  45      FD713E38 
  45      96AF
  46 00d5 8CB4E2B0 		.ascii	"\214\264\342\260\030C\214O\207\350+\336v\036>\025m\246"
  46      18438C4F 
  46      87E82BDE 
  46      761E3E15 
  46      6DA6
  47 00e7 30EB4230 		.ascii	"0\353B0x\365{jg\327\372\245xEOG\335x?>\243\317uDeb\034"
  47      78F57B6A 
  47      67D7FAA5 
  47      78454F47 
  47      DD783F3E 
  48 0102 312410D6 		.ascii	"1$\020\326{\177'>\316\231%\011\316\302+\363\325#L\260"
  48      7B7F273E 
  48      CE992509 
  48      CEC22BF3 
  48      D5234CB0 
  49 0116 F054678A 		.ascii	"\360Tg\212I\2240\015\011\334\236\217\000\356\206'\303"
  49      4994300D 
  49      09DC9E8F 
  49      00EE8627 
  49      C3
  50 0127 B11A5357 		.ascii	"\261\032SW\340\006\013\356\204\313\244\231\276\235\246"
  50      E0060BEE 
  50      84CBA499 
  50      BE9DA6
  51 0136 58686634 		.ascii	"Xhf4\215\024\025\263Bc\262\301\326Y\333\301O;\300\261"
  51      8D1415B3 
  51      4263B2C1 
  51      D659DBC1 
  51      4F3BC0B1 
  52 014a F8CC4C5F 		.ascii	"\370\314L_\353PH\222\265\332\222\256\023\272\226\277"
  52      EB504892 
  52      B5DA92AE 
  52      13BA96BF 
  53 015a A5A3267B 		.ascii	"\245\243&{\2176\262\3051\316\027\231\2159\2041/\206"
  53      8F36B2C5 
  53      31CE1799 
  53      8D398431 
  53      2F86
  54 016c 58E0F001 		.ascii	"X\340\360\001r\351\275\220\027\377[\300\034,id\375\036"
  54      72E9BD90 
  54      17FF5BC0 
  54      1C2C6964 
  54      FD1E
  55 017e 9605D9D2 		.ascii	"\226\005\331\322\005\374\364\376Y@lg\232\330i\2561a"
  55      05FCF4FE 
  55      59406C67 
  55      9AD869AE 
  55      3161
  56 0190 4517F0F1 		.ascii	"E\027\360\361ChV\357\240Y\3234\206\320\254\013\215M"
  56      436856EF 
  56      A059D334 
  56      86D0AC0B 
  56      8D4D
  57 01a2 0770BDEE 		.ascii	"\007p\275\356r1\220KNqq\371\005r\344'\025\321\206hS"
  57      7231904B 
ARM GAS  C:\Users\Bruger\AppData\Local\Temp\cc86a72P.s 			page 4


  57      4E7171F9 
  57      0572E427 
  57      15D18668 
  58 01b7 5D73F455 		.ascii	"]s\364Umu\343\233\246\372hM\244\272\361\345\213\232"
  58      6D75E39B 
  58      A6FA684D 
  58      A4BAF1E5 
  58      8B9A
  59 01c9 CA86D7CF 		.ascii	"\312\206\327\317k#U\245\365\364\017B\306\027\330"
  59      6B2355A5 
  59      F5F40F42 
  59      C617D8
  60              		.text
  61              		.section	.gnu.lto_Inj1_RestoreConfig.ec4e3772,"",%progbits
  62 0000 789C8D92 		.ascii	"x\234\215\222=H\034Q\020\307\347?\273n\366\274\024\301"
  62      3D481C51 
  62      10C7E73F 
  62      BB6EF6BC 
  62      14C1
  63 0012 EAB84E42 		.ascii	"\352\270NB\020\011\012)\322\244\265\020\013\301`+\210"
  63      10090A29 
  63      D2A4B510 
  63      0BC1602B 
  63      88
  64 0023 986B5228 		.ascii	"\230kR(\210)\017w\345\004M\341W\245\030\205\010\022"
  64      88290F77 
  64      E5044DE1 
  64      57A51885 
  64      0812
  65 0035 BFA29E49 		.ascii	"\277\242\236I\374D8lR\010\011G\010\021\021-\242\240"
  65      FC44386C 
  65      52080947 
  65      0811112D 
  65      A2A0
  66 0047 959E57C8 		.ascii	"\225\236W\310\022\214\316\274\305Bs\021\027\336\314"
  66      128CCEBC 
  66      C5427311 
  66      17DECC
  67 0056 CE7BFFFD 		.ascii	"\316{\377\375\317\217\331g\321\277O\\\326o&z,\031\026"
  67      CF8FD967 
  67      D1BF4F5C 
  67      D66F267A 
  67      2C1916
  68 0069 81FBBF11 		.ascii	"\201\373\277\021\371.\003\372B\240\016F\007\2169\307"
  68      F92E03FA 
  68      42A00E46 
  68      078E39C7 
  69 0079 E8CFCC0C 		.ascii	"\350\317\314\014E\313&<\317;\355\\\216u\305\002\371"
  69      45CB263C 
  69      CF3BED5C 
  69      8E75C502 
  69      F9
  70 008a 2CCFA10D 		.ascii	",\317\241\015>\240\214D\223K]\374\212:)\321<\012\317"
  70      3EA08C44 
  70      934B5DFC 
  70      8A3A29D1 
  70      3C0ACF
ARM GAS  C:\Users\Bruger\AppData\Local\Temp\cc86a72P.s 			page 5


  71 009d 30090792 		.ascii	"0\011\007\222\347K2\336\345e~w`\373\305\313b\246\200"
  71      E74B32DE 
  71      E5657E77 
  71      60FBC5CB 
  71      62A680
  72 00b0 616B7024 		.ascii	"akp$\260\253\201\350@\2266=\224B\262\265\203\316\245"
  72      B0AB81E8 
  72      4096363D 
  72      9442B2B5 
  72      83CEA5
  73 00c3 F4DE4091 		.ascii	"\364\336@\221Z\234\263\022\214\375\350\235\343\344\037"
  73      5A9CB312 
  73      8CFDE89D 
  73      E3E41F
  74 00d2 AFDB7303 		.ascii	"\257\333s\003\266.\324_v\367\017\276g\335#\226\035S"
  74      B62ED45F 
  74      76F70FBE 
  74      67DD2396 
  74      1D53
  75 00e4 4EFAA977 		.ascii	"N\372\251w\030\305\210\357\251\312\306\024\222\230F"
  75      18C588EF 
  75      A9CAC614 
  75      929846
  76 00f3 DC9CFD9D 		.ascii	"\334\234\375\235\355[t*\236\006\\\204\031\321\234\031"
  76      ED5B742A 
  76      9E065C84 
  76      19D19C19 
  77 0103 7ACCA282 		.ascii	"z\314\242\202vak\037\272\335\305\311\263\340\343#\222"
  77      76616B1F 
  77      BADDC5C9 
  77      B3E0E323 
  77      92
  78 0114 240C013F 		.ascii	"$\014\001? \305\312\355g\255\020\313\376/\326m\216\271"
  78      20C5CAED 
  78      67AD10CB 
  78      FE2FD66D 
  78      8EB9
  79 0126 C21CF386 		.ascii	"\302\034\363\206CG\204\205\2739\304\027i\303a_s\244"
  79      43478485 
  79      BB39C417 
  79      69C3615F 
  79      73A4
  80 0138 0F73D190 		.ascii	"\017s\321\220\303\2717\307b!\016\027\237\014\207\371"
  80      C3B937C7 
  80      62210E17 
  80      9F0C87F9 
  81 0148 659F8563 		.ascii	"e\237\205c\007\233\203\357\237\250\267\310\026Fz\306"
  81      079B83EF 
  81      9FA8B7C8 
  81      16467AC6 
  82 0158 6D9D70E4 		.ascii	"m\235p\344\355\226\357\3317\206\0361F[\303\307\033\021"
  82      ED96EFD9 
  82      37861E31 
  82      465BC3C7 
  82      1B11
  83 016a 6D92F233 		.ascii	"m\222\3623\345\001\027\343\013\342X\322.X\026c\3413"
  83      E50117E3 
ARM GAS  C:\Users\Bruger\AppData\Local\Temp\cc86a72P.s 			page 6


  83      0BE258D2 
  83      2E581663 
  83      E133
  84 017c BCD91384 		.ascii	"\274\331\023\204\270\356\275qW\012\343\256\032\\Kq\327"
  84      B8EEBD71 
  84      570AE3AE 
  84      1A5C4B71 
  84      D7
  85 018d EE185B34 		.ascii	"\356\030[4\257\032\254\233\261I\375\220\366\340g~~e"
  85      AF1AAC9B 
  85      B149FD90 
  85      F6E0677E 
  85      7E65
  86 019f A326BD74 		.ascii	"\243&\275t\320\313&\315K\253\023-\211\266\246\366\304"
  86      D0CB26CD 
  86      4BAB132D 
  86      89B6A6F6 
  86      C4
  87 01b0 ABC6FAD6 		.ascii	"\253\306\372\3267m\315\211\206\272\372\326\252\347\015"
  87      376DCD89 
  87      86BAFAD6 
  87      AAE70D
  88 01bf 352DAF9F 		.ascii	"5-\257\2375\326\325V6\323\025\007>\011\261"
  88      35D6D556 
  88      36D31507 
  88      3E09B1
  89              		.text
  90              		.section	.gnu.lto_Inj1_Sleep.ec4e3772,"",%progbits
  91 0000 789C8592 		.ascii	"x\234\205\222OHTQ\024\306\317w\356{oF',Z\211\273h\341"
  91      4F485451 
  91      14C6CF77 
  91      EE7B6F46 
  91      272C5A89 
  92 0017 CAA245D0 		.ascii	"\312\242E\320F\\\264\210\202@p+H\330lZ\214!\265\034"
  92      465CB488 
  92      8240702B 
  92      48D86C5A 
  92      8C21B51C 
  93 002b BC6FE685 		.ascii	"\274o\346\205\322\242\304\325\220\326\"\310?\215\251"
  93      D2A2C4D5 
  93      90D622C8 
  93      3F8DA9
  94 003a D9BFEDC3 		.ascii	"\331\277\355\303U\204%\"\022HL\033\245\202\212\231\006"
  94      55842522 
  94      12484C1B 
  94      A5828A99 
  94      06
  95 004b CC47F8E7 		.ascii	"\314G\370\347\2347S\211Q=\270\357\336{\356w\277\337"
  95      9C375389 
  95      513DB8EF 
  95      DE7BEE77 
  95      BFDF
  96 005d F7EE7D86 		.ascii	"\367\356}\206\376|\332\245]e\242\343\322\303#\360\360"
  96      FE7CDAA5 
  96      5D65A2E3 
  96      D2C323F0 
  96      F0
ARM GAS  C:\Users\Bruger\AppData\Local\Temp\cc86a72P.s 			page 7


  97 006e 1B223FC9 		.ascii	"\033\"?\311l\266\232\3106:\205\016\262\207\014\334Z"
  97      6CB69AC8 
  97      363A850E 
  97      B2870CDC 
  97      5A
  98 007f D9F93970 		.ascii	"\331\3719p\001\035\020h\200\215\343b\000\237\270\302"
  98      011D1068 
  98      808DE362 
  98      009FB8C2 
  99 008f 180E8B85 		.ascii	"\030\016\213\205T\353\003km9\267\322|\2439\022\347*"
  99      54EB036B 
  99      6D39B7D2 
  99      7CA33912 
  99      E72A
 100 00a1 D7489840 		.ascii	"\327H\230@+\211\246\022l\277My\201h\216\324\3260\011"
 100      2B89A612 
 100      6CBF4D79 
 100      81688ED4 
 100      D63009
 101 00b4 0FD2CF1E 		.ascii	"\017\322\317\036\015\355\356nuqd\350$7\030\212\030\216"
 101      0DEDEE6E 
 101      757164E8 
 101      2437188A 
 101      188E
 102 00c6 BC44B12E 		.ascii	"\274D\261.Mi\0332\221\336\254aa\363fij\004\272\363;"
 102      4D691B32 
 102      91DEAC61 
 102      61F36669 
 102      6A04BAF3 
 103 00db 1B31FDF2 		.ascii	"\0331\375\362\241t?\361\221#6;/}\353(\347\375\372\322"
 103      A1743FF1 
 103      9123363B 
 103      2F7DEB28 
 103      E7FDFAD2 
 104 00ef 72322E91 		.ascii	"r2.\221N\357}]x\215\273\030\365\003D\354`\012-x\210"
 104      4EEF7D5D 
 104      788DBB18 
 104      F50344EC 
 104      600A2D78 
 105 0104 16A117A5 		.ascii	"\026\241\027\245Jk\310\225\006?\233\232\241#\236\264"
 105      4A6BC895 
 105      063F9B9A 
 105      A1239EB4 
 106 0114 8A60319F 		.ascii	"\212`1\237\251\027\366\333I\030L\353N\322D\206\266\232"
 106      A917F6DB 
 106      49184CEB 
 106      4ED24486 
 106      B69A
 107 0126 2450AE3C 		.ascii	"$P\256<\267\224K\251ZQ+\267f8\373\303\016\331d\304\356"
 107      B7944BA9 
 107      5A512BB7 
 107      6638FBC3 
 107      0ED964C4 
 108 013b B67EE37E 		.ascii	"\266~\343~\0037\236N\372\301X\234\307\252\312\303#d"
 108      03379E4E 
 108      FAC1589C 
 108      C7AACAC3 
ARM GAS  C:\Users\Bruger\AppData\Local\Temp\cc86a72P.s 			page 8


 108      2364
 109 014d 31A3B6B2 		.ascii	"1\243\266\262\2663}{\336k+\312\021\205g\"N`V\204\337"
 109      B6337D7B 
 109      DE6B2BCA 
 109      11856722 
 109      4E605684 
 110 0162 E263C41C 		.ascii	"\342c\304\034\332D\260|g<\177X\275\022 <\216\303l\260"
 110      DA44B07C 
 110      673C7F58 
 110      BD12203C 
 110      8EC36CB0 
 111 0176 43858E38 		.ascii	"C\205\2168Jy\365?Q\016\262\347\377\301~\362\233\375"
 111      4A79F53F 
 111      510EB2E7 
 111      FFC17EF2 
 111      9BFD
 112 0188 3466FFFA 		.ascii	"4f\377\372\216\204\224\236\325\331n|1\357\220\017+\257"
 112      8E84949E 
 112      D5D96E7C 
 112      31EF900F 
 112      2BAF
 113 019a 58D97410 		.ascii	"X\331t\020\236\254\262\\2\236#+\227\332@*\335l\374\233"
 113      9EACB25C 
 113      329E232B 
 113      97DA402A 
 113      DD6CFC9B 
 114 01ae 52CFF845 		.ascii	"R\317\370E]Y\202\037F\027b%\351\277\000E\211\340\330"
 114      5D59821F 
 114      46176225 
 114      E9BF0045 
 114      89E0D8
 115 01c1 B97426DD 		.ascii	"\271t&\335\177\351Z\372rOW\337\365\376\336twgW\337\331"
 115      7FE95AFA 
 115      724F57DF 
 115      F5FEDE74 
 115      776757DF 
 116 01d6 D3DDE733 		.ascii	"\323\335\3473WN\365t^<\321K{Y\011\356\351"
 116      574EF574 
 116      5E3CD14B 
 116      7B5909EE 
 116      E9
 117              		.text
 118              		.section	.gnu.lto_Inj1_Wakeup.ec4e3772,"",%progbits
 119 0000 789C7550 		.ascii	"x\234uP=HBQ\024>\347\274\353K\322!\232\244A\210\006"
 119      3D484251 
 119      143EE7BC 
 119      EB4BD221 
 119      9AA44188 
 120 0015 87B08868 		.ascii	"\207\260\210hnh\210\210@p\025$\354-\015\012Rm\342}\371"
 120      6E688888 
 120      40701524 
 120      EC2D0D0A 
 120      526DE27D 
 121 002a 82862869 		.ascii	"\202\206(i\012\372\031\202\312\322\024\034\032lq\027"
 121      0AFA1982 
 121      CAD2141C 
 121      1A6C7117 
ARM GAS  C:\Users\Bruger\AppData\Local\Temp\cc86a72P.s 			page 9


 122 003a 8A888AFE 		.ascii	"\212\210\212\376\027\203\3322\021y\210\331\275\317 "
 122      1783DA32 
 122      117988D9 
 122      BDCF20
 123 0049 28BA7039 		.ascii	"(\272p9\367~\347\373\316w\277\253\300\3375,\366\002"
 123      F77EE7FB 
 123      CE77BFAB 
 123      C0DF352C 
 123      F602
 124 005b 02F4898A 		.ascii	"\002\364\211\2126@J\236\001\350v\"\245\340\006\336\311"
 124      36404A9E 
 124      01E87622 
 124      A5E006DE 
 124      C9
 125 006c AE07813B 		.ascii	"\256\007\201;\025dm\230!\312\003 \304Ia\030\3077\252"
 125      15646D98 
 125      21CA0320 
 125      C4496118 
 125      C737AA
 126 007f 10268BE9 		.ascii	"\020&\213\351\015\207g\217s\376\276\373\350Zr\231\004"
 126      0D87678F 
 126      73FEBEFB 
 126      E85A7299 
 126      04
 127 0090 50A5F67C 		.ascii	"P\245\366|<@\017\010N\305h\3368TCp\272\332=L\241*|!"
 127      3C400F08 
 127      4EC568DE 
 127      38544370 
 127      BADA3D4C 
 128 00a8 D75DE4AD 		.ascii	"\327]\344\255V\265\266\236\032%\225\201I\002,\013\202"
 128      56B5B69E 
 128      1A259581 
 128      49022C0B 
 128      82
 129 00b9 F4792192 		.ascii	"\364y!\222Uy\300D\361\276DR\"g\355\\\256f)\326\340\313"
 129      5579C044 
 129      F1BE4452 
 129      2267ED5C 
 129      AE6629D6 
 130 00cf DC6E1255 		.ascii	"\334n\022U\245\002\0171&\264\012\334\341\342I\245\236"
 130      A5020F31 
 130      26B40ADC 
 130      E1E249A5 
 130      9E
 131 00e0 B7496E9D 		.ascii	"\267In\235\330o6kJo\201>\227\317/\354\257$\020\353\232"
 131      D86F366B 
 131      4A6F813E 
 131      97CF2FEC 
 131      AF2410EB 
 132 00f5 D28D2DDC 		.ascii	"\322\215-\334\306M\235K\226\015\2170\206i\354\261z\237"
 132      C64D9D4B 
 132      960D8F30 
 132      8669ECB1 
 132      7A9F
 133 0107 99B5BCEA 		.ascii	"\231\265\274\352\3557I\305\214\340|X\311\360\030\275"
 133      ED3749C5 
 133      8CE07C58 
ARM GAS  C:\Users\Bruger\AppData\Local\Temp\cc86a72P.s 			page 10


 133      C9F018BD 
 134 0117 7085C66D 		.ascii	"p\205\306m\302\375c\245\357\237\256t\310\241\362EY)"
 134      C2FD63A5 
 134      EF9FAE74 
 134      C8A1F245 
 134      5929
 135 0129 07194281 		.ascii	"\007\031B\201\202\333\312P+9\377\313 \206b\356;\203"
 135      82DBCA50 
 135      2B39FFCB 
 135      208662EE 
 135      3B83
 136 013b D4302BF8 		.ascii	"\3240+\370\023\352\305\306\244\245\001\371-(QA\355\035"
 136      13EAC5C6 
 136      A4A501F9 
 136      2D285141 
 136      ED1D
 137 014d D7C25A74 		.ascii	"\327\302ZtzN\233\011\372#\363\321\220\026\360\371#c"
 137      7A4E9B09 
 137      FA23F3D1 
 137      9016F0F9 
 137      2363
 138 015f 238189F0 		.ascii	"#\201\211\360\354P\32075\020\202/\326\025\221\255"
 138      EC50D037 
 138      3510822F 
 138      D61591AD 
 139              		.text
 140              		.section	.gnu.lto_.symbol_nodes.ec4e3772,"",%progbits
 141 0000 789C55CA 		.ascii	"x\234U\312\261\015\3020\020\205\341\347;;v\342\024l"
 141      B10DC230 
 141      1085E1E7 
 141      3B3B76E2 
 141      146C
 142 0012 C012ECF7 		.ascii	"\300\022\354\367RX\324L\200\"\304\012l\220\232\031\000"
 142      5258D44C 
 142      8022C40A 
 142      6C909A19 
 142      00
 143 0023 A5CC0C88 		.ascii	"\245\314\014\2108i\216k~}O\247\000\016\016\373\211#"
 143      38698E6B 
 143      7E7D4FA7 
 143      000E0EFB 
 143      8923
 144 0035 70790224 		.ascii	"py\002$\256cB\000F\241\212\320\331Y\224\362gO\265v\221"
 144      AE634200 
 144      46A18AD0 
 144      D95994F2 
 144      674FB576 
 145 004a 7E378661 		.ascii	"~7\206ae\303`\031\330Xv\214\226-\223ebk\231\331Y\366"
 145      65C36019 
 145      D858768C 
 145      962D9365 
 145      626B99D9 
 146 0060 CC868A88 		.ascii	"\314\206\212\210\373\353\353\024\015\346\255\001\363"
 146      FBEBEB14 
 146      0DE6AD01 
 146      F3
 147 006d 7BAD7498 		.ascii	"{\255t\230\252\245E\331\234P\316\313Q5c\252V\340S\353"
ARM GAS  C:\Users\Bruger\AppData\Local\Temp\cc86a72P.s 			page 11


 147      AAA545D9 
 147      9C50CECB 
 147      513563AA 
 147      56E053EB 
 148 0081 05B7FAE7 		.ascii	"\005\267\372\347{\224\307\011?\177fFt"
 148      7B94C709 
 148      3F7F6646 
 148      74
 149              		.text
 150              		.section	.gnu.lto_.refs.ec4e3772,"",%progbits
 151 0000 789C258A 		.ascii	"x\234%\212\311\015\000 \014\200\240\255\307,\356?\240"
 151      C90D0020 
 151      0C80A0AD 
 151      C72CEE3F 
 151      A0
 152 0011 8DF22390 		.ascii	"\215\362#\220\300\341Shh\351\324]\321\212\211\003W\344"
 152      C0E15368 
 152      68E9D45D 
 152      D18A8903 
 152      57E4
 153 0023 0BC39E82 		.ascii	"\013\303\236\202\013\0205\000\202"
 153      0B103500 
 153      82
 154              		.text
 155              		.section	.gnu.lto_.decls.ec4e3772,"",%progbits
 156 0000 789C8D56 		.ascii	"x\234\215VmL\024G\030\336\271\201;\330;\017\252\211"
 156      6D4C1447 
 156      18DEB981 
 156      3BD83B0F 
 156      AA89
 157 0012 5AD2D4AB 		.ascii	"Z\322\324\253&\244m\214\321&mH\372\243&\306\230\266"
 157      26A46D8C 
 157      D1266D48 
 157      FAA326C6 
 157      98B6
 158 0024 D1108935 		.ascii	"\321\020\2115\246&\006ak\251\004\350y4\361WWQ\017\245"
 158      A6260661 
 158      6BA904E8 
 158      7934F157 
 158      57510FA5 
 159 0038 2AE20707 		.ascii	"*\342\007\007Z{\010'\312\267V\250\010\362\251'\002\207"
 159      5A7B0827 
 159      CAB756A8 
 159      08F2A927 
 159      0287
 160 004a 881645FC 		.ascii	"\210\026E\3748D\024E\361@\004E\353\365\235\231]n\327"
 160      38441445 
 160      F1400445 
 160      EBF59D99 
 160      5D6ED7
 161 005d 1CB69B3C 		.ascii	"\034\266\233<\262\263\373>\317\373<3\263sb\216\343F"
 161      B2B3FB3E 
 161      CFFB3C33 
 161      B373628E 
 161      E346
 162 006f 10C779E1 		.ascii	"\020\307y\341\372\214\347\270cp\037\010\317\"9\337e"
 162      FA8CE7B8 
ARM GAS  C:\Users\Bruger\AppData\Local\Temp\cc86a72P.s 			page 12


 162      63701F08 
 162      CF2239DF 
 162      65
 163 0080 0014014A 		.ascii	"\000\024\001J\000e\200\223\2003\200\006\3009@\023\240"
 163      00658093 
 163      80338006 
 163      C0394013 
 163      A0
 164 0091 15D00668 		.ascii	"\025\320\006h\007t\000@\206\353\347\324\027\321\230"
 164      07740040 
 164      86EBE7D4 
 164      17D198
 165 00a0 22699B00 		.ascii	"\"i\233\000\323\001\217\000u\200\001\300}@-\300\003"
 165      D3018F00 
 165      758001C0 
 165      7D402DC0 
 165      03
 166 00b1 18045400 		.ascii	"\030\004T\000\206\000\247\001\001\200;\200\273\0007"
 166      8600A701 
 166      01803B80 
 166      BB0037
 167 00c0 E0B6F4AC 		.ascii	"\340\266\364\254H\362\320 y\362\327\267\304O_e\277a"
 167      48F2D020 
 167      79F2D7B7 
 167      C44F5F65 
 167      BF61
 168 00d2 40B3D44F 		.ascii	"@\263\324O\356\375\014\340|G\337\022)o\253\224\337_"
 168      EEFD0CE0 
 168      7C47DF12 
 168      296FAB94 
 168      DF5F
 169 00e4 5F3257BC 		.ascii	"_2W\274\324\227\364|\256\320\227\373\223\236c\200\343"
 169      D497F47C 
 169      AED097FB 
 169      939E6380 
 169      E3
 170 00f5 92460F00 		.ascii	"\222F\017\000K\334v)\237?m\262\006:\205\266\254\241"
 170      4BDC7629 
 170      9F3F6DB2 
 170      063A85B6 
 170      ACA1
 171 0107 D455EA9D 		.ascii	"\324U\352\235\224<O\2666C\032\324r\367\3053C\277\006"
 171      943C4FB6 
 171      36431AD4 
 171      72F7C533 
 171      43BF06
 172 011a 19F95032 		.ascii	"\031\371P2\314\276\3267\202ah\3405dX\361r\264T;c\277"
 172      CCBED637 
 172      826168E0 
 172      356458F1 
 172      72B4543B 
 173 0130 48AE1431 		.ascii	"H\256\0241T\203\"\247\243|\024\206\216\2410P<\216f\300"
 173      548322A7 
 173      A37C1486 
 173      8EA13050 
 173      3C8E66C0 
 174 0144 BFDF0730 		.ascii	"\277\337\0070\245\322n\373\037F\254A\344>\327\326s\225"
ARM GAS  C:\Users\Bruger\AppData\Local\Temp\cc86a72P.s 			page 13


 174      A5D26EFB 
 174      1F46AC41 
 174      E43ED7D6 
 174      7395
 175 0156 9F5B00AC 		.ascii	"\237[\000\254T\261\256]\343k7Z\230\262-\304tXt\227y"
 175      54B1AE5D 
 175      E36B375A 
 175      98B22DC4 
 175      74587497 
 176 016b 2A4F7519 		.ascii	"*Ou\031\304cb\235\327\373\025\225B\005\010\243B4\227"
 176      C463629D 
 176      D7FB1595 
 176      420508A3 
 176      423497
 177 017e 54927B4A 		.ascii	"T\222{JAE\310\0044\367n\357\036-\376\222j{\366_Je\022"
 177      4145C804 
 177      34F76EEF 
 177      1E2DFE92 
 177      6A7BF65F 
 178 0195 F6D3B95A 		.ascii	"\366\323\271Z&@\371\305\012~\261\314/\241\374\264\241"
 178      2640F9C5 
 178      0A7EB1CC 
 178      2FA1FCB4 
 178      A1
 179 01a6 BD8778BC 		.ascii	"\275\207x\274\214\362\275\351\2662\035\360\355ev\233"
 179      8CF2BDE9 
 179      B6321DF0 
 179      ED65769B 
 180 01b6 43C92F55 		.ascii	"C\311/U\360Ke~\031\345?\376'\315\256\303\253(\277\250"
 180      F04B657E 
 180      19E53FFE 
 180      27CDAEC3 
 180      AB28BFA8 
 181 01ca C7792E90 		.ascii	"\307y.\220\361\037\251\370'\024\374\0232\377$\345w\326"
 181      F11FA9F8 
 181      2714FC13 
 181      32FF24E5 
 181      77D6
 182 01dc 5AAD4158 		.ascii	"Z\255AX\240\374MG\253~\323\301\024O\347\351\214\354"
 182      A0FC4D47 
 182      AB7ED3C1 
 182      144FE7E9 
 182      8CEC
 183 01ee 6AC9AEC7 		.ascii	"j\311\256\307t\350%\2575]]\373^b\304\207\247\212\342"
 183      74E825AF 
 183      355D5DFB 
 183      5E62C487 
 183      A78AE2
 184 0201 66D19321 		.ascii	"f\321\223!\342\231\034\232\033\206>\011\343\320_(\034"
 184      E2991C9A 
 184      1B863E09 
 184      E3D05F28 
 184      1C
 185 0212 CA680F74 		.ascii	"\312h\017t\012V\241\034V!\017\346\330\323\235R\363M"
 185      0A56A11C 
 185      56210FE6 
 185      D8D39D52 
ARM GAS  C:\Users\Bruger\AppData\Local\Temp\cc86a72P.s 			page 14


 185      F34D
 186 0224 8AB81055 		.ascii	"\212\270\020U \036\3759\341\202v\220\346\335Uxq\033"
 186      201EFD39 
 186      E1827690 
 186      E6DD5578 
 186      711B
 187 0236 522E2429 		.ascii	"R.$)\365\255\344i\325J\336\357\310l\016\302;\021\265"
 187      F5ADE469 
 187      D54ADEEF 
 187      C86C0EC2 
 187      3B11B5
 188 0249 9B33DEBC 		.ascii	"\2333\336\274\200\314\266\350is\224\256\332\223\222"
 188      80CCB6E8 
 188      697394AE 
 188      DA9392
 189 0258 BE4F747B 		.ascii	"\276Ot{\275\263(\007U*\"W\312\221\317\320\310\277\017"
 189      BDB32807 
 189      552A2257 
 189      CA91CFD0 
 189      C8BF0F
 190 026b 0F5607E3 		.ascii	"\017V\007\343\363H\225\331\3042g\016\2748\025D\207^"
 190      F34895D9 
 190      C432670E 
 190      BC381544 
 190      875E
 191 027d 2F26A15F 		.ascii	"/&\241_\365\226\344kQ8\317\322\344\2624\265`\261\312"
 191      F596E46B 
 191      5138CFD2 
 191      E4B234B5 
 191      60B1CA
 192 0290 97C624A5 		.ascii	"\227\306$\245\241\023\003!\002\217\031\271\211\010\250"
 192      A1130321 
 192      028F19B9 
 192      8908A8
 193 029f 06E6C624 		.ascii	"\006\346\306$\315M5<<\013\017\241\323\366\335\031/x"
 193      CD4D353C 
 193      3C0B0FA1 
 193      D3F6DD19 
 193      2F78
 194 02b1 65EE5A55 		.ascii	"e\356ZU\356:U\356\226W\305\242\026\2672\313\343\217"
 194      EE3A55EE 
 194      9657C5A2 
 194      16B732CB 
 194      E38F
 195 02c3 6BAA83A4 		.ascii	"k\252\203\244\340}g~V\004\007\022\252W\004\257\227\203"
 195      E07D677E 
 195      56040712 
 195      AA5704AF 
 195      9783
 196 02d5 37D0E0E7 		.ascii	"7\320\340\347\363_\366c|\213\251<\357(+\347\251\212"
 196      F35FF663 
 196      7C8BA93C 
 196      EF282BE7 
 196      A98A
 197 02e7 3BD5EA34 		.ascii	";\325\3524\330\345\375N4\032\025\032\215\262\3069\252"
 197      D8E5FD4E 
 197      341A151A 
ARM GAS  C:\Users\Bruger\AppData\Local\Temp\cc86a72P.s 			page 15


 197      8DB2C639 
 197      AA
 198 02f8 91BEB53E 		.ascii	"\221\276\265>= \000\276\033\272N\340\017\236\265f\036"
 198      3D2000BE 
 198      1BBA4EE0 
 198      0F9EB566 
 198      1E
 199 0309 6AD04FFA 		.ascii	"j\320O\372-:i\222\363H\212b\335;\3460\340'\314DqA\323"
 199      2D3A6992 
 199      F3488A62 
 199      DD3BE630 
 199      E027CC44 
 200 0320 F50066A2 		.ascii	"\365\000f\242\246Oa\0028\350\202\302\304\005\331D\023"
 200      A64F6102 
 200      38E882C2 
 200      C405D944 
 200      13
 201 0331 35519DF7 		.ascii	"5Q\235\367hPOM\324N\230\350\315:\320d\234\324D35qQ6"
 201      68504F4D 
 201      D44E98E8 
 201      CD3AD064 
 201      9CD44433 
 202 0349 91995362 		.ascii	"\221\231Sb\235\202\255\354H\350\332\351\215`\036\306"
 202      9D82ADEC 
 202      48E8DAE9 
 202      8D601EC6 
 203 0359 1D177C1E 		.ascii	"\035\027|\036\200\202Z\024\036Zd\017\255\324\203\323"
 203      80825A14 
 203      1E5A640F 
 203      ADD483D3 
 204 0369 3D5CA5C3 		.ascii	"=\\\245\303YL\"\273\300Yh`\032o\034N\265\206K\241\341"
 204      594C22BB 
 204      C0596860 
 204      1A6F1C4E 
 204      B5864BA1 
 205 037e 9235DAA8 		.ascii	"\2225\332\250\306\345#\215\0271.`\032\225G\355\303\301"
 205      C6E5238D 
 205      17312E60 
 205      1A9547ED 
 205      C3C1
 206 0390 54C35EE8 		.ascii	"T\303^\350\330fR|\276\227\024\012\227d\205v\2520\276"
 206      D866527C 
 206      BE97140A 
 206      97648576 
 206      AA30BE
 207 03a3 EBE1F620 		.ascii	"\353\341\366 |\212)\344\270\356}\300LT]\020\0326\213"
 207      7C8A29E4 
 207      B8EE7DC0 
 207      4C545D10 
 207      1A368B
 208 03b6 AFC91EA6 		.ascii	"\257\311\036\246\012\227\025\012\227e\205\016\252p2"
 208      0A97150A 
 208      9765850E 
 208      AA7032
 209 03c5 D751114C 		.ascii	"\327Q\021L\217\331\205D#o\377\201\242@z\314\006\321"
 209      8FD98544 
 209      236FFF81 
ARM GAS  C:\Users\Bruger\AppData\Local\Temp\cc86a72P.s 			page 16


 209      A2407ACC 
 209      06D1
 210 03d7 61D66B07 		.ascii	"a\326k\007\302uL\177\337\225\362j=\356`\203\266\242"
 210      C2754C7F 
 210      DF95F26A 
 210      3DEE6083 
 210      B6A2
 211 03e9 4EAF1EF7 		.ascii	"N\257\036\367\260\301\275\241\374#:rV\320 %#.=U4\221"
 211      B0C1BDA1 
 211      FC233A72 
 211      56D02025 
 211      232E3D55 
 212 03ff E196B347 		.ascii	"\341\226\263G\323ux\230\275\2733v\247AG\337\315'\303"
 212      D3757898 
 212      BDBB3376 
 212      A74147DF 
 212      CD27C3
 213 0412 D437AEB2 		.ascii	"\3247\256\262\000\274\025\263O\261\256\370\012{\027"
 213      00BC15B3 
 213      4FB1AEF8 
 213      0A7B17
 214 0421 01435D73 		.ascii	"\001C]sQ\356\033\035\232M\256i\341v\370\264\334\273"
 214      51EE1B1D 
 214      9A4DAE69 
 214      E176F8B4 
 214      DCBB
 215 0433 FA9AF5A2 		.ascii	"\372\232\365\242m>\335y7!Q/\232&\037@\037\223E\276E"
 215      6D3EDD79 
 215      3721512F 
 215      9A261F40 
 215      1F9345BE 
 216 0448 969AA3A5 		.ascii	"\226\232\243\245\003)ip\204\317\247\373\343\272T:\361"
 216      03296970 
 216      84CFA7FB 
 216      E3BA543A 
 216      F1
 217 0459 45D2E22E 		.ascii	"E\322\342._\361`\257O\367\206\037\335n_\351\355^\347"
 217      5FF160AF 
 217      4FF7861F 
 217      DD6E5FE9 
 217      ED5EE7
 218 046c 4469A79F 		.ascii	"Di\247\237\322O'*\037\246\354\230pp\315\257\203|*\273"
 218      D24F272A 
 218      1FA6EC98 
 218      7070CDAF 
 218      837C2ABB 
 219 0480 876CD874 		.ascii	"\207l\330t\273\270\320\314\241+\360\376*\335\257\244"
 219      BBB8D0CC 
 219      A12BF0FE 
 219      2ADDAFA4 
 220 0490 1A160CDD 		.ascii	"\032\026\014\335\203\303\243\007\315Fw\001w\000n\300"
 220      83C3A307 
 220      CD467701 
 220      77006EC0 
 221 04a0 6D349B2E 		.ascii	"m4\233. 9\222\334\335\271Z\021\221rN^`\371d\325\224"
 221      203992DC 
 221      DDB95A11 
ARM GAS  C:\Users\Bruger\AppData\Local\Temp\cc86a72P.s 			page 17


 221      91724E5E 
 221      60F964D5 
 222 04b5 DBDB9F1A 		.ascii	"\333\333\237\032Q\3704Zwpq\020\272\017\242\177\373\216"
 222      51F8345A 
 222      77707110 
 222      BA0FA27F 
 222      FB8E
 223 04c7 2D42A297 		.ascii	"-B\242\227?\013\250\017:\377\037\027\344\223>\270\267"
 223      3F0BA80F 
 223      3AFF1F17 
 223      E4933EB8 
 223      B7
 224 04d8 578B6D6C 		.ascii	"W\213ml\025=\207k\037\030\347\344\210\242\335Sy\275"
 224      153D876B 
 224      1F18E7E4 
 224      88A2DD53 
 224      79BD
 225 04ea 1F6D12ED 		.ascii	"\037m\022\355\233D\221\354d\332\376\001k\257H\372\200"
 225      9B4491EC 
 225      64DAFE01 
 225      6BAF48FA 
 225      80
 226 04fb 6D47D48F 		.ascii	"mG\324\217\346\000\373LF\223MK\267\037\375\250\255\267"
 226      E600FB4C 
 226      46934D4B 
 226      B71FFDA8 
 226      ADB7
 227 050d 5C597AC3 		.ascii	"\\Yz\303\016r\256\246\247\210\301MFz<\301\322\241\207"
 227      0E72AEA6 
 227      A788C14D 
 227      467A3CC1 
 227      D2A187
 228 0520 94FC0819 		.ascii	"\224\374\010\031(\031\376Bu\177\227{T\243\252&-}\325"
 228      2819FE42 
 228      757F977B 
 228      54A3AA26 
 228      2D7DD5
 229 0533 0352F500 		.ascii	"\003R\365\000\255\0263\323\362\202p\036s]>\272\243r"
 229      AD1633D3 
 229      F282701E 
 229      735D3EBA 
 229      A372
 230 0545 0A9F4A8E 		.ascii	"\012\237J\216\216\377\376e\203\271\275\332\266\2433"
 230      8EFFFE65 
 230      83B9BDDA 
 230      B6A333
 231 0554 98FD16BE 		.ascii	"\230\375\026\276\315x:\351oa\343\360\267[\340\327c\020"
 231      CD783AE9 
 231      6F61E3F0 
 231      B75BE0D7 
 231      6310
 232 0566 76C463DF 		.ascii	"v\304c\3372<A\276\037\303\355w\263]\006U\002R\354K\340"
 232      323C41BE 
 232      1FC3ED77 
 232      B35D0655 
 232      0252EC4B 
 233 057b 91127868 		.ascii	"\221\022xh\202\233\356k\235\352\274\247U\2633$U\017"
ARM GAS  C:\Users\Bruger\AppData\Local\Temp\cc86a72P.s 			page 18


 233      829BEE6B 
 233      9DEABCA7 
 233      55B33324 
 233      550F
 234 058d D1EAA3AE 		.ascii	"\321\352\243\256\352j\365\\6\253\252\207\245\352aZ\275"
 234      EA6AF55C 
 234      36ABAA87 
 234      A5EA615A 
 234      BD
 235 059e 656F7D06 		.ascii	"eo}\006\257\252v\252\252\237I\325\317H5\256\317\257"
 235      AFAA76AA 
 235      AA9F49D5 
 235      CF4835AE 
 235      CFAF
 236 05b0 BFC1A330 		.ascii	"\277\301\2430>\314\006\377\255z1\013=\207L\251dWy6\213"
 236      3ECC06FF 
 236      AD7A310B 
 236      3D874CA9 
 236      64577936 
 237 05c5 D86694E7 		.ascii	"\330f\224\347\206\243/84\0122# C\252\353\372\275\336"
 237      86A32F38 
 237      340A3223 
 237      2043AAEB 
 237      FABDDE
 238 05d8 5FBDECDA 		.ascii	"_\275\354\332\255\243\005\344\037\260PX\272\325\032"
 238      ADA305E4 
 238      1FB05058 
 238      BAD51A
 239 05e7 A2B2705C 		.ascii	"\242\262p\\ea\014\031\3449\204[.\344\353\204\237\026"
 239      65610C19 
 239      E439845B 
 239      2EE4EB84 
 239      9F16
 240 05f9 AC898AFE 		.ascii	"\254\211\212\376EX\224\230\360C\334:\355\222e+L\213"
 240      45589498 
 240      F043DC3A 
 240      ED92652B 
 240      4C8B
 241 060b B88F9608 		.ascii	"\270\217\226\010\011\2029\332\"\304\256\211JL6\307\010"
 241      098239DA 
 241      22C4AE89 
 241      4A4C36C7 
 241      08
 242 061c AB23A312 		.ascii	"\253#\243\022\027}\276\232VG.\235\027\303M\245\267\313"
 242      177DBE9A 
 242      56472E9D 
 242      17C34DA5 
 242      B7CB
 243 062e 850D9644 		.ascii	"\205\015\226D\263\304\345\231V\274 $\351\351\355\312"
 243      B3C4E599 
 243      56BC2024 
 243      E9E9EDCA 
 244 063e E8F54272 		.ascii	"\350\365BrR`r\\\202%b2\305\230\215\226\215I\302\206"
 244      5260725C 
 244      82256232 
 244      C5988D96 
 244      8D49C286 
ARM GAS  C:\Users\Bruger\AppData\Local\Temp\cc86a72P.s 			page 19


 245 0652 793F7233 		.ascii	"y?r3%\305\350X\220\263\230\023\343\227\013\353\3426"
 245      25C5E858 
 245      90B39813 
 245      E3970BEB 
 245      E236
 246 0664 5804F387 		.ascii	"X\004\363\207\3570\003<-\321_\360E\250\202\236\234\000"
 246      EF30033C 
 246      2DD15FF0 
 246      45A8829E 
 246      9C00
 247 0676 B4908907 		.ascii	"\264\220\211\007\221\2029.1\366}\346\311\034g\021\336"
 247      9182392E 
 247      31F67DE6 
 247      C91C6711 
 247      DE
 248 0687 6AF09EF2 		.ascii	"j\360\236\362\015\345\206\372\2360r0\313fI\224\242-"
 248      0DE586FA 
 248      9E307230 
 248      CB664994 
 248      A22D
 249 0699 4E885E1B 		.ascii	"N\210^\033/0\342\332\350\230\365\311IQ\026sr\214\305"
 249      2F30E2DA 
 249      E898F5C9 
 249      49511673 
 249      728CC5
 250 06ac 18B97229 		.ascii	"\030\271r){\027e\001\307Z\030\256\210]\033\014\177\230"
 250      7B176501 
 250      C75A18AE 
 250      885D1B0C 
 250      7F98
 251 06be 0E4C1BC8 		.ascii	"\016L\033\310\233\223\223,K\2437\254\377.:>Y\230\012"
 251      9B93932C 
 251      4BA337AC 
 251      FF2E3A3E 
 251      59980A
 252 06d1 2FDF32A4 		.ascii	"/\3372\244W\350\006\230\205u\021\377\002\240\022\377"
 252      57E80698 
 252      857511FF 
 252      02A012FF 
 253 06e1 DA       		.ascii	"\332"
 254              		.text
 255              		.section	.gnu.lto_.symtab.ec4e3772,"",%progbits
 256 0000 496E6A31 		.ascii	"Inj1_SaveConfig\000\000\000\000\000\000\000\000\000"
 256      5F536176 
 256      65436F6E 
 256      66696700 
 256      00000000 
 257 0018 000000AC 		.ascii	"\000\000\000\254\000\000\000Inj1_RestoreConfig\000\000"
 257      00000049 
 257      6E6A315F 
 257      52657374 
 257      6F726543 
 258 0033 00000000 		.ascii	"\000\000\000\000\000\000\000\000\000\000\256\000\000"
 258      00000000 
 258      0000AE00 
 258      00
 259 0040 00496E6A 		.ascii	"\000Inj1_Sleep\000\000\000\000\000\000\000\000\000\000"
ARM GAS  C:\Users\Bruger\AppData\Local\Temp\cc86a72P.s 			page 20


 259      315F536C 
 259      65657000 
 259      00000000 
 259      00000000 
 260 0055 0000B000 		.ascii	"\000\000\260\000\000\000Inj1_Wakeup\000\000\000\000"
 260      0000496E 
 260      6A315F57 
 260      616B6575 
 260      70000000 
 261 006a 00000000 		.ascii	"\000\000\000\000\000\000\000\000\262\000\000\000Inj"
 261      00000000 
 261      B2000000 
 261      496E6A
 262 0079 315F5265 		.ascii	"1_ReadControlRegister\000\000\002\000\000\000\000\000"
 262      6164436F 
 262      6E74726F 
 262      6C526567 
 262      69737465 
 263 0096 00000000 		.ascii	"\000\000\000\000\272\000\000\000Inj1_ReadCounter\000"
 263      BA000000 
 263      496E6A31 
 263      5F526561 
 263      64436F75 
 264 00af 00020000 		.ascii	"\000\002\000\000\000\000\000\000\000\000\000\302\000"
 264      00000000 
 264      000000C2 
 264      00
 265 00bc 0000496E 		.ascii	"\000\000Inj1_ReadPeriod\000\000\002\000\000\000\000"
 265      6A315F52 
 265      65616450 
 265      6572696F 
 265      64000002 
 266 00d4 00000000 		.ascii	"\000\000\000\000\000\304\000\000\000Inj1_WriteContr"
 266      00C40000 
 266      00496E6A 
 266      315F5772 
 266      69746543 
 267 00ec 6F6C5265 		.ascii	"olRegister\000\000\002\000\000\000\000\000\000\000\000"
 267      67697374 
 267      65720000 
 267      02000000 
 267      00000000 
 268 0101 00C80000 		.ascii	"\000\310\000\000\000Inj1_WriteCounter\000\000\002\000"
 268      00496E6A 
 268      315F5772 
 268      69746543 
 268      6F756E74 
 269 011b 00000000 		.ascii	"\000\000\000\000\000\000\000\000\314\000\000\000Inj"
 269      00000000 
 269      CC000000 
 269      496E6A
 270 012a 315F5772 		.ascii	"1_WritePeriod\000\000\002\000\000\000\000\000\000\000"
 270      69746550 
 270      6572696F 
 270      64000002 
 270      00000000 
 271 0141 0000CE00 		.ascii	"\000\000\316\000\000\000Inj1_Stop\000\000\002\000\000"
ARM GAS  C:\Users\Bruger\AppData\Local\Temp\cc86a72P.s 			page 21


 271      0000496E 
 271      6A315F53 
 271      746F7000 
 271      00020000 
 272 0155 00000000 		.ascii	"\000\000\000\000\000\000\000\320\000\000\000Inj1_En"
 272      000000D0 
 272      00000049 
 272      6E6A315F 
 272      456E
 273 0167 61626C65 		.ascii	"able\000\000\002\000\000\000\000\000\000\000\000\000"
 273      00000200 
 273      00000000 
 273      00000000 
 274 0177 D2000000 		.ascii	"\322\000\000\000"
 275              		.text
 276              		.section	.gnu.lto_.opts,"",%progbits
 277 0000 272D666E 		.ascii	"'-fno-trapv' '-mcpu=cortex-m3' '-mthumb' '-g' '-Os'"
 277      6F2D7472 
 277      61707627 
 277      20272D6D 
 277      6370753D 
 278 0033 20272D66 		.ascii	" '-ffunction-sections' '-finline-functions' '-flto'"
 278      66756E63 
 278      74696F6E 
 278      2D736563 
 278      74696F6E 
 279 0066 20272D66 		.ascii	" '-ffat-lto-objects'\000"
 279      6661742D 
 279      6C746F2D 
 279      6F626A65 
 279      63747327 
 280              		.text
 281              		.cfi_sections	.debug_frame
 282              		.section	.text.Inj1_SaveConfig,"ax",%progbits
 283              		.align	1
 284              		.global	Inj1_SaveConfig
 285              		.thumb
 286              		.thumb_func
 287              		.type	Inj1_SaveConfig, %function
 288              	Inj1_SaveConfig:
 289              	.LFB0:
 290              		.file 1 "Generated_Source\\PSoC5\\Inj1_PM.c"
   1:Generated_Source\PSoC5/Inj1_PM.c **** /*******************************************************************************
   2:Generated_Source\PSoC5/Inj1_PM.c **** * File Name: Inj1_PM.c
   3:Generated_Source\PSoC5/Inj1_PM.c **** * Version 3.30
   4:Generated_Source\PSoC5/Inj1_PM.c **** *
   5:Generated_Source\PSoC5/Inj1_PM.c **** * Description:
   6:Generated_Source\PSoC5/Inj1_PM.c **** *  This file provides the power management source code to API for the
   7:Generated_Source\PSoC5/Inj1_PM.c **** *  PWM.
   8:Generated_Source\PSoC5/Inj1_PM.c **** *
   9:Generated_Source\PSoC5/Inj1_PM.c **** * Note:
  10:Generated_Source\PSoC5/Inj1_PM.c **** *
  11:Generated_Source\PSoC5/Inj1_PM.c **** ********************************************************************************
  12:Generated_Source\PSoC5/Inj1_PM.c **** * Copyright 2008-2014, Cypress Semiconductor Corporation.  All rights reserved.
  13:Generated_Source\PSoC5/Inj1_PM.c **** * You may use this file only in accordance with the license, terms, conditions,
  14:Generated_Source\PSoC5/Inj1_PM.c **** * disclaimers, and limitations in the end user license agreement accompanying
  15:Generated_Source\PSoC5/Inj1_PM.c **** * the software package with which this file was provided.
ARM GAS  C:\Users\Bruger\AppData\Local\Temp\cc86a72P.s 			page 22


  16:Generated_Source\PSoC5/Inj1_PM.c **** *******************************************************************************/
  17:Generated_Source\PSoC5/Inj1_PM.c **** 
  18:Generated_Source\PSoC5/Inj1_PM.c **** #include "Inj1.h"
  19:Generated_Source\PSoC5/Inj1_PM.c **** 
  20:Generated_Source\PSoC5/Inj1_PM.c **** static Inj1_backupStruct Inj1_backup;
  21:Generated_Source\PSoC5/Inj1_PM.c **** 
  22:Generated_Source\PSoC5/Inj1_PM.c **** 
  23:Generated_Source\PSoC5/Inj1_PM.c **** /*******************************************************************************
  24:Generated_Source\PSoC5/Inj1_PM.c **** * Function Name: Inj1_SaveConfig
  25:Generated_Source\PSoC5/Inj1_PM.c **** ********************************************************************************
  26:Generated_Source\PSoC5/Inj1_PM.c **** *
  27:Generated_Source\PSoC5/Inj1_PM.c **** * Summary:
  28:Generated_Source\PSoC5/Inj1_PM.c **** *  Saves the current user configuration of the component.
  29:Generated_Source\PSoC5/Inj1_PM.c **** *
  30:Generated_Source\PSoC5/Inj1_PM.c **** * Parameters:
  31:Generated_Source\PSoC5/Inj1_PM.c **** *  None
  32:Generated_Source\PSoC5/Inj1_PM.c **** *
  33:Generated_Source\PSoC5/Inj1_PM.c **** * Return:
  34:Generated_Source\PSoC5/Inj1_PM.c **** *  None
  35:Generated_Source\PSoC5/Inj1_PM.c **** *
  36:Generated_Source\PSoC5/Inj1_PM.c **** * Global variables:
  37:Generated_Source\PSoC5/Inj1_PM.c **** *  Inj1_backup:  Variables of this global structure are modified to
  38:Generated_Source\PSoC5/Inj1_PM.c **** *  store the values of non retention configuration registers when Sleep() API is
  39:Generated_Source\PSoC5/Inj1_PM.c **** *  called.
  40:Generated_Source\PSoC5/Inj1_PM.c **** *
  41:Generated_Source\PSoC5/Inj1_PM.c **** *******************************************************************************/
  42:Generated_Source\PSoC5/Inj1_PM.c **** void Inj1_SaveConfig(void) 
  43:Generated_Source\PSoC5/Inj1_PM.c **** {
 291              		.loc 1 43 0
 292              		.cfi_startproc
 293              		@ args = 0, pretend = 0, frame = 0
 294              		@ frame_needed = 0, uses_anonymous_args = 0
 295 0000 10B5     		push	{r4, lr}
 296              		.cfi_def_cfa_offset 8
 297              		.cfi_offset 4, -8
 298              		.cfi_offset 14, -4
  44:Generated_Source\PSoC5/Inj1_PM.c **** 
  45:Generated_Source\PSoC5/Inj1_PM.c ****     #if(!Inj1_UsingFixedFunction)
  46:Generated_Source\PSoC5/Inj1_PM.c ****         #if(!Inj1_PWMModeIsCenterAligned)
  47:Generated_Source\PSoC5/Inj1_PM.c ****             Inj1_backup.PWMPeriod = Inj1_ReadPeriod();
 299              		.loc 1 47 0
 300 0002 FFF7FEFF 		bl	Inj1_ReadPeriod
 301              	.LVL0:
 302 0006 064C     		ldr	r4, .L2
 303 0008 A080     		strh	r0, [r4, #4]	@ movhi
  48:Generated_Source\PSoC5/Inj1_PM.c ****         #endif /* (!Inj1_PWMModeIsCenterAligned) */
  49:Generated_Source\PSoC5/Inj1_PM.c ****         Inj1_backup.PWMUdb = Inj1_ReadCounter();
 304              		.loc 1 49 0
 305 000a FFF7FEFF 		bl	Inj1_ReadCounter
 306              	.LVL1:
  50:Generated_Source\PSoC5/Inj1_PM.c ****         #if (Inj1_UseStatus)
  51:Generated_Source\PSoC5/Inj1_PM.c ****             Inj1_backup.InterruptMaskValue = Inj1_STATUS_MASK;
 307              		.loc 1 51 0
 308 000e 054B     		ldr	r3, .L2+4
  49:Generated_Source\PSoC5/Inj1_PM.c ****         #if (Inj1_UseStatus)
 309              		.loc 1 49 0
 310 0010 6080     		strh	r0, [r4, #2]	@ movhi
ARM GAS  C:\Users\Bruger\AppData\Local\Temp\cc86a72P.s 			page 23


 311              		.loc 1 51 0
 312 0012 1B78     		ldrb	r3, [r3]	@ zero_extendqisi2
 313 0014 A371     		strb	r3, [r4, #6]
  52:Generated_Source\PSoC5/Inj1_PM.c ****         #endif /* (Inj1_UseStatus) */
  53:Generated_Source\PSoC5/Inj1_PM.c **** 
  54:Generated_Source\PSoC5/Inj1_PM.c ****         #if(Inj1_DeadBandMode == Inj1__B_PWM__DBM_256_CLOCKS || \
  55:Generated_Source\PSoC5/Inj1_PM.c ****             Inj1_DeadBandMode == Inj1__B_PWM__DBM_2_4_CLOCKS)
  56:Generated_Source\PSoC5/Inj1_PM.c ****             Inj1_backup.PWMdeadBandValue = Inj1_ReadDeadTime();
  57:Generated_Source\PSoC5/Inj1_PM.c ****         #endif /*  deadband count is either 2-4 clocks or 256 clocks */
  58:Generated_Source\PSoC5/Inj1_PM.c **** 
  59:Generated_Source\PSoC5/Inj1_PM.c ****         #if(Inj1_KillModeMinTime)
  60:Generated_Source\PSoC5/Inj1_PM.c ****              Inj1_backup.PWMKillCounterPeriod = Inj1_ReadKillTime();
  61:Generated_Source\PSoC5/Inj1_PM.c ****         #endif /* (Inj1_KillModeMinTime) */
  62:Generated_Source\PSoC5/Inj1_PM.c **** 
  63:Generated_Source\PSoC5/Inj1_PM.c ****         #if(Inj1_UseControl)
  64:Generated_Source\PSoC5/Inj1_PM.c ****             Inj1_backup.PWMControlRegister = Inj1_ReadControlRegister();
 314              		.loc 1 64 0
 315 0016 FFF7FEFF 		bl	Inj1_ReadControlRegister
 316              	.LVL2:
 317 001a E071     		strb	r0, [r4, #7]
 318 001c 10BD     		pop	{r4, pc}
 319              	.L3:
 320 001e 00BF     		.align	2
 321              	.L2:
 322 0020 00000000 		.word	.LANCHOR0
 323 0024 8A650040 		.word	1073767818
 324              		.cfi_endproc
 325              	.LFE0:
 326              		.size	Inj1_SaveConfig, .-Inj1_SaveConfig
 327              		.section	.text.Inj1_RestoreConfig,"ax",%progbits
 328              		.align	1
 329              		.global	Inj1_RestoreConfig
 330              		.thumb
 331              		.thumb_func
 332              		.type	Inj1_RestoreConfig, %function
 333              	Inj1_RestoreConfig:
 334              	.LFB1:
  65:Generated_Source\PSoC5/Inj1_PM.c ****         #endif /* (Inj1_UseControl) */
  66:Generated_Source\PSoC5/Inj1_PM.c ****     #endif  /* (!Inj1_UsingFixedFunction) */
  67:Generated_Source\PSoC5/Inj1_PM.c **** }
  68:Generated_Source\PSoC5/Inj1_PM.c **** 
  69:Generated_Source\PSoC5/Inj1_PM.c **** 
  70:Generated_Source\PSoC5/Inj1_PM.c **** /*******************************************************************************
  71:Generated_Source\PSoC5/Inj1_PM.c **** * Function Name: Inj1_RestoreConfig
  72:Generated_Source\PSoC5/Inj1_PM.c **** ********************************************************************************
  73:Generated_Source\PSoC5/Inj1_PM.c **** *
  74:Generated_Source\PSoC5/Inj1_PM.c **** * Summary:
  75:Generated_Source\PSoC5/Inj1_PM.c **** *  Restores the current user configuration of the component.
  76:Generated_Source\PSoC5/Inj1_PM.c **** *
  77:Generated_Source\PSoC5/Inj1_PM.c **** * Parameters:
  78:Generated_Source\PSoC5/Inj1_PM.c **** *  None
  79:Generated_Source\PSoC5/Inj1_PM.c **** *
  80:Generated_Source\PSoC5/Inj1_PM.c **** * Return:
  81:Generated_Source\PSoC5/Inj1_PM.c **** *  None
  82:Generated_Source\PSoC5/Inj1_PM.c **** *
  83:Generated_Source\PSoC5/Inj1_PM.c **** * Global variables:
  84:Generated_Source\PSoC5/Inj1_PM.c **** *  Inj1_backup:  Variables of this global structure are used to
ARM GAS  C:\Users\Bruger\AppData\Local\Temp\cc86a72P.s 			page 24


  85:Generated_Source\PSoC5/Inj1_PM.c **** *  restore the values of non retention registers on wakeup from sleep mode.
  86:Generated_Source\PSoC5/Inj1_PM.c **** *
  87:Generated_Source\PSoC5/Inj1_PM.c **** *******************************************************************************/
  88:Generated_Source\PSoC5/Inj1_PM.c **** void Inj1_RestoreConfig(void) 
  89:Generated_Source\PSoC5/Inj1_PM.c **** {
 335              		.loc 1 89 0
 336              		.cfi_startproc
 337              		@ args = 0, pretend = 0, frame = 0
 338              		@ frame_needed = 0, uses_anonymous_args = 0
 339 0000 10B5     		push	{r4, lr}
 340              		.cfi_def_cfa_offset 8
 341              		.cfi_offset 4, -8
 342              		.cfi_offset 14, -4
  90:Generated_Source\PSoC5/Inj1_PM.c ****         #if(!Inj1_UsingFixedFunction)
  91:Generated_Source\PSoC5/Inj1_PM.c ****             #if(!Inj1_PWMModeIsCenterAligned)
  92:Generated_Source\PSoC5/Inj1_PM.c ****                 Inj1_WritePeriod(Inj1_backup.PWMPeriod);
 343              		.loc 1 92 0
 344 0002 074C     		ldr	r4, .L5
 345 0004 A088     		ldrh	r0, [r4, #4]
 346 0006 FFF7FEFF 		bl	Inj1_WritePeriod
 347              	.LVL3:
  93:Generated_Source\PSoC5/Inj1_PM.c ****             #endif /* (!Inj1_PWMModeIsCenterAligned) */
  94:Generated_Source\PSoC5/Inj1_PM.c **** 
  95:Generated_Source\PSoC5/Inj1_PM.c ****             Inj1_WriteCounter(Inj1_backup.PWMUdb);
 348              		.loc 1 95 0
 349 000a 6088     		ldrh	r0, [r4, #2]
 350 000c FFF7FEFF 		bl	Inj1_WriteCounter
 351              	.LVL4:
  96:Generated_Source\PSoC5/Inj1_PM.c **** 
  97:Generated_Source\PSoC5/Inj1_PM.c ****             #if (Inj1_UseStatus)
  98:Generated_Source\PSoC5/Inj1_PM.c ****                 Inj1_STATUS_MASK = Inj1_backup.InterruptMaskValue;
 352              		.loc 1 98 0
 353 0010 A279     		ldrb	r2, [r4, #6]	@ zero_extendqisi2
 354 0012 044B     		ldr	r3, .L5+4
 355 0014 1A70     		strb	r2, [r3]
  99:Generated_Source\PSoC5/Inj1_PM.c ****             #endif /* (Inj1_UseStatus) */
 100:Generated_Source\PSoC5/Inj1_PM.c **** 
 101:Generated_Source\PSoC5/Inj1_PM.c ****             #if(Inj1_DeadBandMode == Inj1__B_PWM__DBM_256_CLOCKS || \
 102:Generated_Source\PSoC5/Inj1_PM.c ****                 Inj1_DeadBandMode == Inj1__B_PWM__DBM_2_4_CLOCKS)
 103:Generated_Source\PSoC5/Inj1_PM.c ****                 Inj1_WriteDeadTime(Inj1_backup.PWMdeadBandValue);
 104:Generated_Source\PSoC5/Inj1_PM.c ****             #endif /* deadband count is either 2-4 clocks or 256 clocks */
 105:Generated_Source\PSoC5/Inj1_PM.c **** 
 106:Generated_Source\PSoC5/Inj1_PM.c ****             #if(Inj1_KillModeMinTime)
 107:Generated_Source\PSoC5/Inj1_PM.c ****                 Inj1_WriteKillTime(Inj1_backup.PWMKillCounterPeriod);
 108:Generated_Source\PSoC5/Inj1_PM.c ****             #endif /* (Inj1_KillModeMinTime) */
 109:Generated_Source\PSoC5/Inj1_PM.c **** 
 110:Generated_Source\PSoC5/Inj1_PM.c ****             #if(Inj1_UseControl)
 111:Generated_Source\PSoC5/Inj1_PM.c ****                 Inj1_WriteControlRegister(Inj1_backup.PWMControlRegister);
 356              		.loc 1 111 0
 357 0016 E079     		ldrb	r0, [r4, #7]	@ zero_extendqisi2
 112:Generated_Source\PSoC5/Inj1_PM.c ****             #endif /* (Inj1_UseControl) */
 113:Generated_Source\PSoC5/Inj1_PM.c ****         #endif  /* (!Inj1_UsingFixedFunction) */
 114:Generated_Source\PSoC5/Inj1_PM.c ****     }
 358              		.loc 1 114 0
 359 0018 BDE81040 		pop	{r4, lr}
 360              		.cfi_restore 14
 361              		.cfi_restore 4
ARM GAS  C:\Users\Bruger\AppData\Local\Temp\cc86a72P.s 			page 25


 362              		.cfi_def_cfa_offset 0
 111:Generated_Source\PSoC5/Inj1_PM.c ****             #endif /* (Inj1_UseControl) */
 363              		.loc 1 111 0
 364 001c FFF7FEBF 		b	Inj1_WriteControlRegister
 365              	.LVL5:
 366              	.L6:
 367              		.align	2
 368              	.L5:
 369 0020 00000000 		.word	.LANCHOR0
 370 0024 8A650040 		.word	1073767818
 371              		.cfi_endproc
 372              	.LFE1:
 373              		.size	Inj1_RestoreConfig, .-Inj1_RestoreConfig
 374              		.section	.text.Inj1_Sleep,"ax",%progbits
 375              		.align	1
 376              		.global	Inj1_Sleep
 377              		.thumb
 378              		.thumb_func
 379              		.type	Inj1_Sleep, %function
 380              	Inj1_Sleep:
 381              	.LFB2:
 115:Generated_Source\PSoC5/Inj1_PM.c **** 
 116:Generated_Source\PSoC5/Inj1_PM.c **** 
 117:Generated_Source\PSoC5/Inj1_PM.c **** /*******************************************************************************
 118:Generated_Source\PSoC5/Inj1_PM.c **** * Function Name: Inj1_Sleep
 119:Generated_Source\PSoC5/Inj1_PM.c **** ********************************************************************************
 120:Generated_Source\PSoC5/Inj1_PM.c **** *
 121:Generated_Source\PSoC5/Inj1_PM.c **** * Summary:
 122:Generated_Source\PSoC5/Inj1_PM.c **** *  Disables block's operation and saves the user configuration. Should be called
 123:Generated_Source\PSoC5/Inj1_PM.c **** *  just prior to entering sleep.
 124:Generated_Source\PSoC5/Inj1_PM.c **** *
 125:Generated_Source\PSoC5/Inj1_PM.c **** * Parameters:
 126:Generated_Source\PSoC5/Inj1_PM.c **** *  None
 127:Generated_Source\PSoC5/Inj1_PM.c **** *
 128:Generated_Source\PSoC5/Inj1_PM.c **** * Return:
 129:Generated_Source\PSoC5/Inj1_PM.c **** *  None
 130:Generated_Source\PSoC5/Inj1_PM.c **** *
 131:Generated_Source\PSoC5/Inj1_PM.c **** * Global variables:
 132:Generated_Source\PSoC5/Inj1_PM.c **** *  Inj1_backup.PWMEnableState:  Is modified depending on the enable
 133:Generated_Source\PSoC5/Inj1_PM.c **** *  state of the block before entering sleep mode.
 134:Generated_Source\PSoC5/Inj1_PM.c **** *
 135:Generated_Source\PSoC5/Inj1_PM.c **** *******************************************************************************/
 136:Generated_Source\PSoC5/Inj1_PM.c **** void Inj1_Sleep(void) 
 137:Generated_Source\PSoC5/Inj1_PM.c **** {
 382              		.loc 1 137 0
 383              		.cfi_startproc
 384              		@ args = 0, pretend = 0, frame = 0
 385              		@ frame_needed = 0, uses_anonymous_args = 0
 386 0000 08B5     		push	{r3, lr}
 387              		.cfi_def_cfa_offset 8
 388              		.cfi_offset 3, -8
 389              		.cfi_offset 14, -4
 138:Generated_Source\PSoC5/Inj1_PM.c ****     #if(Inj1_UseControl)
 139:Generated_Source\PSoC5/Inj1_PM.c ****         if(Inj1_CTRL_ENABLE == (Inj1_CONTROL & Inj1_CTRL_ENABLE))
 390              		.loc 1 139 0
 391 0002 074B     		ldr	r3, .L11
 392 0004 1B78     		ldrb	r3, [r3]	@ zero_extendqisi2
ARM GAS  C:\Users\Bruger\AppData\Local\Temp\cc86a72P.s 			page 26


 393 0006 13F0800F 		tst	r3, #128
 394 000a 064B     		ldr	r3, .L11+4
 140:Generated_Source\PSoC5/Inj1_PM.c ****         {
 141:Generated_Source\PSoC5/Inj1_PM.c ****             /*Component is enabled */
 142:Generated_Source\PSoC5/Inj1_PM.c ****             Inj1_backup.PWMEnableState = 1u;
 395              		.loc 1 142 0
 396 000c 14BF     		ite	ne
 397 000e 0122     		movne	r2, #1
 143:Generated_Source\PSoC5/Inj1_PM.c ****         }
 144:Generated_Source\PSoC5/Inj1_PM.c ****         else
 145:Generated_Source\PSoC5/Inj1_PM.c ****         {
 146:Generated_Source\PSoC5/Inj1_PM.c ****             /* Component is disabled */
 147:Generated_Source\PSoC5/Inj1_PM.c ****             Inj1_backup.PWMEnableState = 0u;
 398              		.loc 1 147 0
 399 0010 0022     		moveq	r2, #0
 400 0012 1A70     		strb	r2, [r3]
 148:Generated_Source\PSoC5/Inj1_PM.c ****         }
 149:Generated_Source\PSoC5/Inj1_PM.c ****     #endif /* (Inj1_UseControl) */
 150:Generated_Source\PSoC5/Inj1_PM.c **** 
 151:Generated_Source\PSoC5/Inj1_PM.c ****     /* Stop component */
 152:Generated_Source\PSoC5/Inj1_PM.c ****     Inj1_Stop();
 401              		.loc 1 152 0
 402 0014 FFF7FEFF 		bl	Inj1_Stop
 403              	.LVL6:
 153:Generated_Source\PSoC5/Inj1_PM.c **** 
 154:Generated_Source\PSoC5/Inj1_PM.c ****     /* Save registers configuration */
 155:Generated_Source\PSoC5/Inj1_PM.c ****     Inj1_SaveConfig();
 156:Generated_Source\PSoC5/Inj1_PM.c **** }
 404              		.loc 1 156 0
 405 0018 BDE80840 		pop	{r3, lr}
 406              		.cfi_restore 14
 407              		.cfi_restore 3
 408              		.cfi_def_cfa_offset 0
 155:Generated_Source\PSoC5/Inj1_PM.c **** }
 409              		.loc 1 155 0
 410 001c FFF7FEBF 		b	Inj1_SaveConfig
 411              	.LVL7:
 412              	.L12:
 413              		.align	2
 414              	.L11:
 415 0020 7E640040 		.word	1073767550
 416 0024 00000000 		.word	.LANCHOR0
 417              		.cfi_endproc
 418              	.LFE2:
 419              		.size	Inj1_Sleep, .-Inj1_Sleep
 420              		.section	.text.Inj1_Wakeup,"ax",%progbits
 421              		.align	1
 422              		.global	Inj1_Wakeup
 423              		.thumb
 424              		.thumb_func
 425              		.type	Inj1_Wakeup, %function
 426              	Inj1_Wakeup:
 427              	.LFB3:
 157:Generated_Source\PSoC5/Inj1_PM.c **** 
 158:Generated_Source\PSoC5/Inj1_PM.c **** 
 159:Generated_Source\PSoC5/Inj1_PM.c **** /*******************************************************************************
 160:Generated_Source\PSoC5/Inj1_PM.c **** * Function Name: Inj1_Wakeup
ARM GAS  C:\Users\Bruger\AppData\Local\Temp\cc86a72P.s 			page 27


 161:Generated_Source\PSoC5/Inj1_PM.c **** ********************************************************************************
 162:Generated_Source\PSoC5/Inj1_PM.c **** *
 163:Generated_Source\PSoC5/Inj1_PM.c **** * Summary:
 164:Generated_Source\PSoC5/Inj1_PM.c **** *  Restores and enables the user configuration. Should be called just after
 165:Generated_Source\PSoC5/Inj1_PM.c **** *  awaking from sleep.
 166:Generated_Source\PSoC5/Inj1_PM.c **** *
 167:Generated_Source\PSoC5/Inj1_PM.c **** * Parameters:
 168:Generated_Source\PSoC5/Inj1_PM.c **** *  None
 169:Generated_Source\PSoC5/Inj1_PM.c **** *
 170:Generated_Source\PSoC5/Inj1_PM.c **** * Return:
 171:Generated_Source\PSoC5/Inj1_PM.c **** *  None
 172:Generated_Source\PSoC5/Inj1_PM.c **** *
 173:Generated_Source\PSoC5/Inj1_PM.c **** * Global variables:
 174:Generated_Source\PSoC5/Inj1_PM.c **** *  Inj1_backup.pwmEnable:  Is used to restore the enable state of
 175:Generated_Source\PSoC5/Inj1_PM.c **** *  block on wakeup from sleep mode.
 176:Generated_Source\PSoC5/Inj1_PM.c **** *
 177:Generated_Source\PSoC5/Inj1_PM.c **** *******************************************************************************/
 178:Generated_Source\PSoC5/Inj1_PM.c **** void Inj1_Wakeup(void) 
 179:Generated_Source\PSoC5/Inj1_PM.c **** {
 428              		.loc 1 179 0
 429              		.cfi_startproc
 430              		@ args = 0, pretend = 0, frame = 0
 431              		@ frame_needed = 0, uses_anonymous_args = 0
 432 0000 08B5     		push	{r3, lr}
 433              		.cfi_def_cfa_offset 8
 434              		.cfi_offset 3, -8
 435              		.cfi_offset 14, -4
 180:Generated_Source\PSoC5/Inj1_PM.c ****      /* Restore registers values */
 181:Generated_Source\PSoC5/Inj1_PM.c ****     Inj1_RestoreConfig();
 436              		.loc 1 181 0
 437 0002 FFF7FEFF 		bl	Inj1_RestoreConfig
 438              	.LVL8:
 182:Generated_Source\PSoC5/Inj1_PM.c **** 
 183:Generated_Source\PSoC5/Inj1_PM.c ****     if(Inj1_backup.PWMEnableState != 0u)
 439              		.loc 1 183 0
 440 0006 044B     		ldr	r3, .L16
 441 0008 1B78     		ldrb	r3, [r3]	@ zero_extendqisi2
 442 000a 1BB1     		cbz	r3, .L13
 184:Generated_Source\PSoC5/Inj1_PM.c ****     {
 185:Generated_Source\PSoC5/Inj1_PM.c ****         /* Enable component's operation */
 186:Generated_Source\PSoC5/Inj1_PM.c ****         Inj1_Enable();
 187:Generated_Source\PSoC5/Inj1_PM.c ****     } /* Do nothing if component's block was disabled before */
 188:Generated_Source\PSoC5/Inj1_PM.c **** 
 189:Generated_Source\PSoC5/Inj1_PM.c **** }
 443              		.loc 1 189 0
 444 000c BDE80840 		pop	{r3, lr}
 445              		.cfi_remember_state
 446              		.cfi_restore 14
 447              		.cfi_restore 3
 448              		.cfi_def_cfa_offset 0
 186:Generated_Source\PSoC5/Inj1_PM.c ****     } /* Do nothing if component's block was disabled before */
 449              		.loc 1 186 0
 450 0010 FFF7FEBF 		b	Inj1_Enable
 451              	.LVL9:
 452              	.L13:
 453              		.cfi_restore_state
 454 0014 08BD     		pop	{r3, pc}
ARM GAS  C:\Users\Bruger\AppData\Local\Temp\cc86a72P.s 			page 28


 455              	.L17:
 456 0016 00BF     		.align	2
 457              	.L16:
 458 0018 00000000 		.word	.LANCHOR0
 459              		.cfi_endproc
 460              	.LFE3:
 461              		.size	Inj1_Wakeup, .-Inj1_Wakeup
 462              		.bss
 463              		.align	1
 464              		.set	.LANCHOR0,. + 0
 465              		.type	Inj1_backup, %object
 466              		.size	Inj1_backup, 8
 467              	Inj1_backup:
 468 0000 00000000 		.space	8
 468      00000000 
 469              		.text
 470              	.Letext0:
 471              		.file 2 "Generated_Source\\PSoC5\\cytypes.h"
 472              		.file 3 "Generated_Source\\PSoC5\\Inj1.h"