ARM GAS  C:\Users\Bruger\AppData\Local\Temp\ccBPSPB6.s 			page 1


   1              		.syntax unified
   2              		.cpu cortex-m3
   3              		.fpu softvfp
   4              		.eabi_attribute 20, 1
   5              		.eabi_attribute 21, 1
   6              		.eabi_attribute 23, 3
   7              		.eabi_attribute 24, 1
   8              		.eabi_attribute 25, 1
   9              		.eabi_attribute 26, 1
  10              		.eabi_attribute 30, 4
  11              		.eabi_attribute 34, 1
  12              		.eabi_attribute 18, 4
  13              		.thumb
  14              		.file	"InjectionCounter_PM.c"
  15              		.text
  16              	.Ltext0:
  17              		.section	.gnu.lto_.profile.ebcf3d26,"",%progbits
  18 0000 789C6366 		.ascii	"x\234cf```a\200\000F\206\014\031\000\001`\000\215"
  18      60606061 
  18      80004686 
  18      0C190001 
  18      60008D
  19              		.text
  20              		.section	.gnu.lto_.jmpfuncs.ebcf3d26,"",%progbits
  21 0000 789C6366 		.ascii	"x\234cf\300\016\244\2404\013\230db``\004#f\204\030\000"
  21      C00EA4A0 
  21      340B9864 
  21      62606004 
  21      23668418 
  22 0015 0544002D 		.ascii	"\005D\000-"
  23              		.text
  24              		.section	.gnu.lto_.inline.ebcf3d26,"",%progbits
  25 0000 789C6366 		.ascii	"x\234cf\300\016\252\2404\013\003\003\247\024#\003\023"
  25      C00EAAA0 
  25      340B0303 
  25      A7142303 
  25      13
  26 0011 CB027906 		.ascii	"\313\002y\006\266\005\362L 1&n8\201]\222q\202\037\224"
  26      B605F24C 
  26      2031266E 
  26      38815D92 
  26      71821F94 
  27 0025 6266E002 		.ascii	"bf\340\002)\340\332g\007W\300\310\005#X\0308\004\201"
  27      29E0DA67 
  27      0757C0C8 
  27      05235818 
  27      380481
  28 0038 926C1FF4 		.ascii	"\222l\037\364\260H2\000\000\232\325\012\004"
  28      B0483200 
  28      009AD50A 
  28      04
  29              		.text
  30              		.section	.gnu.lto_.pureconst.ebcf3d26,"",%progbits
  31 0000 789C6366 		.ascii	"x\234cf``\340d\200\000\026\006\011&\011f)\026\011\000"
  31      6060E064 
  31      80001606 
  31      09260966 
ARM GAS  C:\Users\Bruger\AppData\Local\Temp\ccBPSPB6.s 			page 2


  31      29160900 
  32 0014 02B7007C 		.ascii	"\002\267\000|"
  33              		.text
  34              		.section	.gnu.lto_InjectionCounter_SaveConfig.ebcf3d26,"",%progbits
  35 0000 789C7D90 		.ascii	"x\234}\220\275K\003A\020\305\347\355\231\3634\215X\346"
  35      BD4B0341 
  35      10C5E7ED 
  35      99F3348D 
  35      58E6
  36 0012 1F489558 		.ascii	"\037H\225X\331\332\244PA!\2206\020$^\241\305\035\204"
  36      D9DAA450 
  36      41219036 
  36      10245EA1 
  36      C51D84
  37 0025 A40CB9D3 		.ascii	"\244\014\271\323\024V\032\254\004?@A\214\346K\355\205"
  37      14561AAC 
  37      043F4041 
  37      8CE64BED 
  37      85
  38 0036 B3161449 		.ascii	"\263\026\024I!D\321&\202v\306+\344\220\030g/]\".\314"
  38      2144D126 
  38      8276C62B 
  38      E4901867 
  38      2F5D222E 
  39 004b EECECEDB 		.ascii	"\356\316\316\3337\277]\205\206G\210\243\006\242)^\241"
  39      37BF5D85 
  39      864788A3 
  39      06A2295E 
  39      A1
  40 005c 1044E996 		.ascii	"\020D\351\226\310\326\004 7\004*\010\024\360.:\002%"
  40      C8D60420 
  40      37042A08 
  40      14F02E3A 
  40      0225
  41 006e A7B2130C 		.ascii	"\247\262\023\014\037[\226\365qtc\307\035x\202\310\025"
  41      1F5B96F5 
  41      717463C7 
  41      1D7882C8 
  41      15
  42 007f 7D1F9C20 		.ascii	"}\037\234 L,\352\024\273\017A\265\310\242\211~\015e"
  42      4C2CEA14 
  42      BB0F41B5 
  42      C8A2897E 
  42      0D65
  43 0091 A8EC4F8D 		.ascii	"\250\354O\215I\307\352\365\334\332u\013\232B\236\200"
  43      49C7EAF5 
  43      DCDA750B 
  43      9A429E80 
  44 00a1 CA130BDA 		.ascii	"\312\023\013\332\034\262\325+'\274*OXw\256\270\314\327"
  44      1CB2D52B 
  44      27BC2A4F 
  44      5877AEB8 
  44      CCD7
  45 00b3 BE84C28E 		.ascii	"\276\204\302\216\007\315\315\272\310\177[\033\226\346"
  45      07CDCDBA 
  45      C87F5B1B 
  45      96E6
ARM GAS  C:\Users\Bruger\AppData\Local\Temp\ccBPSPB6.s 			page 3


  46 00c1 09C5156C 		.ascii	"\011\305\025l\206S\344\371\366\010\265\260\266}\030"
  46      8653E4F9 
  46      F608B5B0 
  46      B67D18
  47 00d0 95DA4161 		.ascii	"\225\332Aa\240+\233\363\351K\373\356^{\023|\342\247"
  47      A02B9BF3 
  47      E94BFBEE 
  47      5E7B137C 
  47      E2A7
  48 00e2 65BBB887 		.ascii	"e\273\270\207}\354\332\226T\2518C\036\025\204\374\332"
  48      7DECDA96 
  48      54A93843 
  48      1E1584FC 
  48      DA
  49 00f3 4F75EB52 		.ascii	"Ou\353R\215T\230\335\231\363\304(\252,\374\364\337\207"
  49      8D5498DD 
  49      99F3C428 
  49      AA2CFCF4 
  49      DF87
  50 0105 1A224C43 		.ascii	"\032\"LC\022\256\351)}\270\241\236\232+\037\204\272"
  50      12AEE929 
  50      7DB8A19E 
  50      9A2B1F84 
  50      BA
  51 0116 0F37D687 		.ascii	"\0177\326\207\233\371\027n\220\246\3617\315\202'\306"
  51      9BF9176E 
  51      90A6F137 
  51      CD8227C6 
  52 0126 71EED3C8 		.ascii	"q\356\323\310\257\304\205\244Q\351\031\266\363\030\220"
  52      AFC485A4 
  52      51E919B6 
  52      F31890
  53 0135 0D24639B 		.ascii	"\015$c\233k\374\201\354\034\231\325\015=\263\224\325"
  53      6BFC81EC 
  53      1C99D50D 
  53      3DB394D5 
  54 0145 97530933 		.ascii	"\227S\0113\227I\353\311x\302\214M'\347\215U=\235]1\215"
  54      9749EBC9 
  54      78C28C4D 
  54      27E78D55 
  54      3D9D5D31 
  55 015a 989933B2 		.ascii	"\230\2313\262z&\025_\214\246\351\027y\032\251u"
  55      7A26155F 
  55      8CA6E917 
  55      791AA975 
  56              		.text
  57              		.section	.gnu.lto_InjectionCounter_RestoreConfig.ebcf3d26,"",%progbits
  58 0000 789C7D90 		.ascii	"x\234}\220\317K\002Q\020\307\347;\273m[^\242\223\370"
  58      CF4B0251 
  58      10C7E73B 
  58      BB6D5B5E 
  58      A293F8
  59 0013 0F7810EB 		.ascii	"\017x\020\353\324_ \024\035\202\300\253 a{\250\303\012"
  59      D45F2014 
  59      1D82C0AB 
  59      20617BA8 
  59      C30A
ARM GAS  C:\Users\Bruger\AppData\Local\Temp\ccBPSPB6.s 			page 4


  60 0025 A2477137 		.ascii	"\242Gq7\014:\225\335\202~@Adi\232\005\235\375\007J\244"
  60      0C3A95DD 
  60      827E4041 
  60      64699A05 
  60      9DFD074A 
  61 003a 20A8A88B 		.ascii	" \250\250\213A\335\262=\304\022f\357\255\235\354\307"
  61      41DDB23D 
  61      C41266EF 
  61      AD9DECC7 
  62 004a 8379F366 		.ascii	"\203y\363f\346\373f>\214B?O@\330.\210\306\205\207B\340"
  62      E6FB663E 
  62      8C423F4F 
  62      40D82E88 
  62      C6858742 
  63 005f C22591AD 		.ascii	"\302%\221\2553 \037\004\3121rx\3416\243P/m\370\202\373"
  63      33201F04 
  63      CA317278 
  63      E136A350 
  63      2F6DF882 
  64 0074 9665BDEE 		.ascii	"\226e\275\356\235\371\227\375.\0239\334k\203\003\004"
  64      9DF997FD 
  64      2E1339DC 
  64      6B830304 
  65 0084 4968DAF9 		.ascii	"Ih\332\371\316\215O\313\013\315H\257\206\"4\321\236"
  65      CE8D4FCB 
  65      0BCD48AF 
  65      862234D1 
  65      9E
  66 0095 AAA375AB 		.ascii	"\252\243u\253\333u.\326\213!hL.C\025\227P\264\204\311"
  66      DB752ED6 
  66      8B21684C 
  66      2E431597 
  66      50B484C9 
  67 00a9 514F2210 		.ascii	"QO\"\020^\271\305\322y\255a+\362\343;\313\271;W\253"
  67      5EB9C5D2 
  67      79AD612B 
  67      F2E33BCB 
  67      B93B57AB 
  68 00bd 15CE7E58 		.ascii	"\025\316~X+\226\356\262\322\221]E\366\261\325h\352\317"
  68      2B96EEB2 
  68      D2915D45 
  68      F6B1D568 
  68      EACF
  69 00cf 2C325E58 		.ascii	",2^X\264\363[\330\306\246mI\225\212Cdq\204\200W\373"
  69      B4F35BD8 
  69      C6A66D49 
  69      958A4364 
  69      71848057 
  70 00e4 2CAF9D6A 		.ascii	",\257\235j\341\220\313\003(\011\315\233\307\2142\302"
  70      E190CB03 
  70      2809CD9B 
  70      C78C32C2 
  71 00f4 740F55CE 		.ascii	"t\017U\316\241\376)\232\303\002\032\307\310\222`py\220"
  71      A1FE299A 
  71      C3021AC7 
  71      C8926070 
  71      7990
ARM GAS  C:\Users\Bruger\AppData\Local\Temp\ccBPSPB6.s 			page 5


  72 0106 2456FBBA 		.ascii	"$V\373\272\371\215\245\376\211\325\317Q\371\215CG\325"
  72      F98DA5FE 
  72      89D5CF51 
  72      F98D4347 
  72      D5
  73 0117 E3908BC1 		.ascii	"\343\220\213\301\311?\034C\216\\\021j\036\207\352\362"
  73      C93F1C43 
  73      8E5C116A 
  73      1E87EAF2 
  74 0127 303DC0AE 		.ascii	"0=\300\256\337Mzb\222\313\203\\\232\320\204\247\014"
  74      DF4D7A62 
  74      92CB835C 
  74      9AD084A7 
  74      0C
  75 0138 D348CDA5 		.ascii	"\323H\315\245\215\371x4\231I%\214\330l4\031\231\210"
  75      8DF97834 
  75      9949258C 
  75      D86C3419 
  75      9988
  76 014a 4D9B8B46 		.ascii	"M\233\213F\"\275\2204#\311\214\2316R\361\331\231\261"
  76      22BD9034 
  76      23C98C99 
  76      3652F1D9 
  76      99B1
  77 015c 047D013D 		.ascii	"\004}\001=\031\237\252"
  77      199FAA
  78              		.text
  79              		.section	.gnu.lto_InjectionCounter_Sleep.ebcf3d26,"",%progbits
  80 0000 789C8592 		.ascii	"x\234\205\222OH\024Q\034\307\177\337\337\374[54:\211"
  80      4F481451 
  80      1CC77FDF 
  80      DFFC5B35 
  80      343A89
  81 0013 C72E9EB6 		.ascii	"\307.\236\266N\035\303\203\207(\012\004\257\202\304"
  81      4E1DC383 
  81      87280A04 
  81      AF82C4
  82 0022 36873ACC 		.ascii	"6\207:\314\306\262\036\027\337\270\023E\207\332\352"
  82      C6B21E17 
  82      DFB81345 
  82      87DAEA
  83 0031 B294DBCD 		.ascii	"\262\224\333\315\332\\S\3232\250\313\320\305\002)$\""
  83      DA5C53D3 
  83      32A8CBD0 
  83      C5022924 
  83      22
  84 0042 90B00E4A 		.ascii	"\220\260\016Ju(\3266\314)l\373\275\331\255D)\007\336"
  84      7528D636 
  84      CC296CFB 
  84      BDD9AD44 
  84      2907DE
  85 0055 BCF77EEF 		.ascii	"\274\367~\357\363\276\337\357\2747\006\355|\016K;\313"
  85      F3BEDFEF 
  85      BC3706ED 
  85      7C0E4B3B 
  85      CB
  86 0066 4407A587 		.ascii	"D\007\245\207M\340\302s\"?\301ll\264\223j5\213=\244"
ARM GAS  C:\Users\Bruger\AppData\Local\Temp\ccBPSPB6.s 			page 6


  86      4DE0C273 
  86      223FC16C 
  86      6CB4936A 
  86      358B3DA4 
  87 007a F618B01A 		.ascii	"\366\030\260\032e\363\367\300\002\364\200@\303l\230"
  87      65F3F7C0 
  87      02F48040 
  87      C36C98
  88 0089 1686F191 		.ascii	"\026\206\361\221\327\030\205\260Rl\353\036SJU\257>\356"
  88      D71885B0 
  88      526CEB1E 
  88      534A55AF 
  88      3EEE
  89 009b 3CD71989 		.ascii	"<\327\031\211r\215\033N\270\215n\022f-\330|\335f\007"
  89      728D1B4E 
  89      B88D6E12 
  89      662DD87C 
  89      DD6607
  90 00ae C2EC6DAC 		.ascii	"\302\354m\254\241\014\033\322O\355\013U\275>\373\351"
  90      A10C1BD2 
  90      4FED0B55 
  90      BD3EFBE9 
  91 00be 4A793FB7 		.ascii	"Jy?\267\030\0241Ly\011\261\"M\273\255\312Dzc\011O\326"
  91      1814314C 
  91      7909B122 
  91      4DBBADCA 
  91      447A6309 
  92 00d4 2F7E2E3D 		.ascii	"/~.=\202\336\371\215\015\021\315\277\233{\346|\340\210"
  92      82DEF98D 
  92      0D11CDBF 
  92      9B7BE67C 
  92      E088
  93 00e6 8DDA535F 		.ascii	"\215\332S_\231\332\347\355\312\213\305D\\\"=\035\377"
  93      99DAE7ED 
  93      CA8BC544 
  93      5C223D1D 
  93      FF
  94 00f7 3EFFDE29 		.ascii	">\377\336)\341\206\037 b\023w\320\205qt\211{\005%\320"
  94      E1861F20 
  94      621377D0 
  94      85717489 
  94      7B0525D0 
  95 010b 124696CF 		.ascii	"\022F\226\317/X\015AS4\351\025\202\205\274\327,l\225"
  95      2F580D41 
  95      5334E915 
  95      8285BCD7 
  95      2C6C95
  96 011e 933098D0 		.ascii	"\2230\230\320;I'2h\243]\002\215T\247\277\372\035\232"
  96      3B492732 
  96      68A35D02 
  96      8D54A7BF 
  96      FA1D9A
  97 0131 16F4E6CB 		.ascii	"\026\364\346\313K\223\234\373\241.\250D\304\326\246"
  97      4B939CFB 
  97      A12EA844 
  97      C4D6A6
  98 0140 FEC6AD02 		.ascii	"\376\306\255\002V<-\373\301(t\036\245)\033w\221\303"
ARM GAS  C:\Users\Bruger\AppData\Local\Temp\ccBPSPB6.s 			page 7


  98      563C2DFB 
  98      C128741E 
  98      A5291B77 
  98      91C3
  99 0152 A49695B5 		.ascii	"\244\226\225\265\237\023\227g\354dE\216(<\036\261\203"
  99      9F139767 
  99      EC64458E 
  99      283C1EB1 
  99      83
 100 0163 2901BFC4 		.ascii	")\001\277\304\307\210i$\005X\274~+\337\241\265\034\020"
 100      C7886924 
 100      0558BC7E 
 100      2BDFA1B5 
 100      1C10
 101 0175 EEC56156 		.ascii	"\356\305aV\331\244bO\034\245\272\276K\224\355\3363\377"
 101      D9A4624F 
 101      1CA5BABE 
 101      4B94EDDE 
 101      33FF
 102 0187 F19EFDEB 		.ascii	"\361\236\375\353}?\366\376\363\035\216\224\0364\275"
 102      7D3FF6FE 
 102      F31D8E94 
 102      1E34BD
 103 0196 ADF862DE 		.ascii	"\255\370b\336 \037\326\347Y{\323v\363D\215\345\2221"
 103      201FD6E7 
 103      597BD376 
 103      F3448DE5 
 103      9231
 104 01a8 879C5C6A 		.ascii	"\207\234\\j\013i\264\320\372/R\237\361\303&\271\014"
 104      0B69B4D0 
 104      FA2F529F 
 104      F1C326B9 
 104      0C
 105 01b9 3FBC762C 		.ascii	"?\274v,&I\377\013\320V\002$\217\270\236\2339\231uO\015"
 105      2649FF0B 
 105      D0560224 
 105      8FB89E9B 
 105      3999754F 
 106 01ce F6A78732 		.ascii	"\366\247\2072)w\240\257?\335{h\340\250w\306MeO\247\275"
 106      2977A0AF 
 106      3FDD7B68 
 106      E0A877C6 
 106      4D654FA7 
 107 01e3 DEF49097 		.ascii	"\336\364\220\227u3\203}'\016\244\350\027\226\375\363"
 107      7533837D 
 107      270EA4E8 
 107      1796FDF3 
 108 01f3 9E       		.ascii	"\236"
 109              		.text
 110              		.section	.gnu.lto_InjectionCounter_Wakeup.ebcf3d26,"",%progbits
 111 0000 789C7550 		.ascii	"x\234uP\275K\202A\034\376=\277\367|\261\214\212&\351"
 111      BD4B8241 
 111      1CFE3DBF 
 111      F77CB18C 
 111      8A26E9
 112 0013 1F68080B 		.ascii	"\037h\010\013\212\326\026\207\210\010\004WA\302\336"
 112      8AD61687 
ARM GAS  C:\Users\Bruger\AppData\Local\Temp\ccBPSPB6.s 			page 8


 112      88080457 
 112      41C2DE
 113 0022 A1865710 		.ascii	"\241\206W\020m\223\3162h*\251%(\333\"\373&\207f\247"
 113      6D93CE32 
 113      682AA925 
 113      28DB22FB 
 113      268766A7 
 114 0036 02872222 		.ascii	"\002\207\"\"\212\350\003\302\240\266\314!D\312\356^"
 114      8AE803C2 
 114      A0B6CC21 
 114      44CAEE5E 
 115 0046 83A0E8E0 		.ascii	"\203\240\350\340\370\335=\367|\360\234A\177W\277\332"
 115      F8DD3DF7 
 115      7CF09C41 
 115      7F57BFDA 
 116 0056 5320EA55 		.ascii	"S \352U\023.\002gN\211Rnf\343\270\215d\263(\016\222"
 116      132E0267 
 116      4E89526E 
 116      66E3B88D 
 116      64B3280E 
 117 006b 6C31201A 		.ascii	"l1 \032\260\000\364\201@\323l\010L\343\205\313\214L"
 117      B000F481 
 117      40D36C08 
 117      4CE385CB 
 117      8C4C
 118 007d 6167C5D3 		.ascii	"ag\305\323\265!\245|}\274\364\316y\253LT\341\206?6\321"
 118      B521A57C 
 118      7DBCF4CE 
 118      79AB4C54 
 118      E1863F36 
 119 0092 458A534E 		.ascii	"E\212SN\177\\y\314\264\342\2647\336\220\203\251r\351"
 119      7F5C79CC 
 119      B4E2B437 
 119      DE9083A9 
 119      72E9
 120 00a4 A0A320EB 		.ascii	"\240\243 \353\365\312\325R\256\217MAUV`I\021t\316\023"
 120      F5CAD552 
 120      AE8F4D41 
 120      55566049 
 120      1174CE13 
 121 00b8 B39EC62D 		.ascii	"\263\236\306-f\013\345\"k\211\366Z\277X\330\347dM\316"
 121      660BE522 
 121      6B89F65A 
 121      BF58D8E7 
 121      644DCE
 122 00cb 4B7795B9 		.ascii	"Kw\225\271\242\025\330BRi\015\272\301\314\321\341]\276"
 122      A215D842 
 122      52690DBA 
 122      C1CCD1E1 
 122      5DBE
 123 00dd 4973DF59 		.ascii	"Is\337Y\374f\213\017\235\255\320\207\322\331\271\373"
 123      FC668B0F 
 123      9DADD087 
 123      D2D9B9FB 
 124 00ed 9915E25C 		.ascii	"\231\025\342\\s\251\364\032\262XMI\315ra\033I\354\240"
 124      73A9F41A 
 124      B2584D49 
ARM GAS  C:\Users\Bruger\AppData\Local\Temp\ccBPSPB6.s 			page 9


 124      CD72611B 
 124      49ECA0
 125 0100 D379FBDC 		.ascii	"\323y\373\334]\314\233\276\356*\233\330U\2347\247\031"
 125      5DCC9BBE 
 125      EE2A9BD8 
 125      559C37A7 
 125      19
 126 0111 F6E0A34B 		.ascii	"\366\340\243K\244\257g\355\237\250\223\354s^hS\200\260"
 126      A4AF67ED 
 126      9FA893EC 
 126      735E6853 
 126      80B0
 127 0123 AFE5A44B 		.ascii	"\257\345\244K\030t\334\346t\250\025[\377\353\240Lq\360"
 127      1874DCE6 
 127      74A8155B 
 127      FFEBA04C 
 127      71F0
 128 0135 DD416B84 		.ascii	"\335Ak\204S\374\036\251\302\362\210\243!\375-\320\250"
 128      53FC1EA9 
 128      C2F288A3 
 128      21FD2DD0 
 128      A8
 129 0146 A2FA862C 		.ascii	"\242\372\206,\333\212\215\305\255\361p0\232\210E\254"
 129      DB8A8DC5 
 129      ADF17030 
 129      9A8845AC 
 130 0156 502018F5 		.ascii	"P \030\365\017\204\206\355I+\022\237\210\332\376h\302"
 130      0F8486ED 
 130      492B129F 
 130      88DAFE68 
 130      C2
 131 0167 8E5BB170 		.ascii	"\216[\261p`\264'B_;/\227;"
 131      60B42742 
 131      5F3B2F97 
 131      3B
 132              		.text
 133              		.section	.gnu.lto_.symbol_nodes.ebcf3d26,"",%progbits
 134 0000 789C55CF 		.ascii	"x\234U\317\301\015\3020\014F\341\027;m\223\316\300\256"
 134      C10DC230 
 134      0C46E117 
 134      3B6D93CE 
 134      C0AE
 135 0012 7F0F1D80 		.ascii	"\177\017\035\200\011P\205X\203[\317\314\000\2109\020"
 135      09508558 
 135      835BCFCC 
 135      00883910 
 136 0022 69E16072 		.ascii	"i\341`ry\372\354\213\343\300\223\337\263$8\336@\342"
 136      79FAEC8B 
 136      E3C093DF 
 136      B32438DE 
 136      40E2
 137 0034 B4143A58 		.ascii	"\264\024:XLn\246\024\307\346\262?gyt\352\225\277f\232"
 137      4C6EA614 
 137      C7E6B23F 
 137      677974EA 
 137      95BF669A 
 138 0048 1A3B7591 		.ascii	"\032;u\221E}\344\240!\262\252D\216\252\201N\317\345"
ARM GAS  C:\Users\Bruger\AppData\Local\Temp\ccBPSPB6.s 			page 10


 138      457DE4A0 
 138      21B2AA44 
 138      8EAA814E 
 138      CFE5
 139 005a FE4EDE4E 		.ascii	"\376N\336N{m\265\302\272w`~\264ze\335\333~\2655\033"
 139      7B6DB5C2 
 139      BA77607E 
 139      B47A65DD 
 139      DB7EB535 
 140 006f E76D9F47 		.ascii	"\347m\237G\346\353\201\017I\340;G"
 140      E6EB810F 
 140      49E03B47 
 141              		.text
 142              		.section	.gnu.lto_.refs.ebcf3d26,"",%progbits
 143 0000 789C25C7 		.ascii	"x\234%\307\301\021\000 \020\203@H\3166\354\277Lu\344"
 143      C1110020 
 143      10834048 
 143      CE36ECBF 
 143      4C75E4
 144 0013 B514D8FC 		.ascii	"\265\024\330\374\202F'\017\330\364\216.\007\303\001"
 144      8246270F 
 144      D8F48E2E 
 144      07C301
 145 0022 07DF0052 		.ascii	"\007\337\000R"
 146              		.text
 147              		.section	.gnu.lto_.decls.ebcf3d26,"",%progbits
 148 0000 789C8D55 		.ascii	"x\234\215UmLSW\030\276\247\247\024\270\255\305\314\014"
 148      6D4C5357 
 148      18BEA7A7 
 148      14B8ADC5 
 148      CC0C
 149 0012 17B66987 		.ascii	"\027\266i\207\033\331\2143\356\307\026\377\315\214,"
 149      1BD98C33 
 149      EEC716FF 
 149      CD8C2C
 150 0021 EE235B88 		.ascii	"\356#[\210\304\354\307L\014\342\2352\015%\265,\361\327"
 150      C4ECC74C 
 150      0CE29D32 
 150      0D25B52C 
 150      F1D7
 151 0033 2E542CE0 		.ascii	".T,\340Td:\240\363\243\016&(X*CV\020\345C(E(\272\315"
 151      54643AA0 
 151      F3A30E26 
 151      28582A43 
 151      5610E543 
 152 004c 81281F85 		.ascii	"\201(\037\205*CPW?\246\030\267u\3579\367^z\257\245\333"
 152      2A435057 
 152      3FA618B7 
 152      75EF39F7 
 152      5E7AAFA5 
 153 0061 6EF2967B 		.ascii	"n\362\226{\016\317\373\274\317\363\236\217\213\031\206"
 153      0ECFFBBC 
 153      CFF39E8F 
 153      8B1986
 154 0070 E9400C13 		.ascii	"\351@\014\023\204\207\215e\230E*\206\211\202\271\024"
 154      84878D65 
 154      98452A86 
ARM GAS  C:\Users\Bruger\AppData\Local\Temp\ccBPSPB6.s 			page 11


 154      8982B914 
 155 0080 26F4B010 		.ascii	"&\364\260\0205\020\016\010'D\035D\023D;\204\033\342"
 155      35100E08 
 155      27441D44 
 155      13443B84 
 155      1BE2
 156 0092 02442F44 		.ascii	"\002D/D\037\004P1#\214\362!\271Z\221\323\000\021\017"
 156      1F045031 
 156      238CF221 
 156      B95A91D3 
 156      00110F
 157 00a5 E1836885 		.ascii	"\341\203h\205\030\203\030\202h\201\030\207pA4@\200\014"
 157      18831882 
 157      68811887 
 157      70413440 
 157      800C
 158 00b7 6610E20A 		.ascii	"f\020\342\012\004\0269\332\305\272s\325p\314QC\316\355"
 158      041639DA 
 158      C5BA73D5 
 158      70CC5143 
 158      CEED
 159 00c9 87F088DC 		.ascii	"\207\360\210\334\327\211\3479j8D/\356\0105\234b/RD\376"
 159      D789E739 
 159      6A38442F 
 159      EE08359C 
 159      622F5244 
 160 00de 09885B10 		.ascii	"\011\210[\020S\262Z\204\3776\304q\221\243_\344v\212"
 160      53B25A84 
 160      FF36C471 
 160      91A35FE4 
 160      768A
 161 00f0 3DAA89C0 		.ascii	"=\252\211\300Mz\032-\343\2268\344\274r\276:Qo\244\236"
 161      4D7A1A2D 
 161      E39638E4 
 161      BC72BE3A 
 161      516FA49E 
 162 0104 DF55A19E 		.ascii	"\337U\241\236\361\231\373\272I\025\322\263\363\311\320"
 162      F199FBBA 
 162      4915D2B3 
 162      F3C9D0
 163 0113 3670E301 		.ascii	"6p\343\001\206\241\216U\221a\303\343\207\265\232\205"
 163      86A18E55 
 163      9161C3E3 
 163      87B59A85 
 164 0123 0778F258 		.ascii	"\007x\362X\370\371*\224\022\217*Q\002\252B\011\300x"
 164      F8F92A94 
 164      128F2A51 
 164      02AA4209 
 164      C078
 165 0135 1C2D84DF 		.ascii	"\034-\204\337O\325\002\323\001G\377\003-V!\362^^:v\231"
 165      4FD502D3 
 165      0147FF03 
 165      2D5621F2 
 165      5E5E3A76 
 166 014a 5D7602B2 		.ascii	"]v\002\262\362\371\326\000\016\225\353\2738\323\024"
 166      F2F9D600 
 166      0E95EBBB 
ARM GAS  C:\Users\Bruger\AppData\Local\Temp\ccBPSPB6.s 			page 12


 166      38D314
 167 0159 6338CCFB 		.ascii	"c8\314\373\234\001o\375\240\216\257\342[\203\301\267"
 167      9C016FFD 
 167      A08EAFE2 
 167      5B83C1B7 
 168 0169 29153A81 		.ascii	")\025:\2010\252F\313\010\222\274\323\024T\203\014\220"
 168      30AA46CB 
 168      0892BCD3 
 168      1454830C 
 168      90
 169 017a 3651E3FF 		.ascii	"6Q\343\377+\026\247R\356?\254c6-\245\260\333\3125\002"
 169      2B16A752 
 169      EE3FAC63 
 169      362DA5B0 
 169      DBCA3502 
 170 018e 01CD3F29 		.ascii	"\001\315?)\313?)\345;h\376\356\211\021O\0246\321\374"
 170      CB3F29E5 
 170      3B68FEEE 
 170      89114F14 
 170      36D1FC
 171 01a1 865DD52D 		.ascii	"\206]\325-\363 \337\356\264\017*\362ke\371\265R\276"
 171      F320DFEE 
 171      B40F2AF2 
 171      6B65F9B5 
 171      52BE
 172 01b3 93E65704 		.ascii	"\223\346W\004\036}\247\306\005\210\022\034\365\324["
 172      1E7DA7C6 
 172      0588121C 
 172      F5D45B
 173 01c2 620502C7 		.ascii	"b\005\002\307\367r\202S2\202S\022A\035%\350o\261Zc\360"
 173      F7728253 
 173      32825312 
 173      411D25E8 
 173      6FB15A63 
 174 01d7 518120E7 		.ascii	"Q\201 \347\330\231\257\242\241\311\361,\355\311\236"
 174      D899AFA2 
 174      A1C9F12C 
 174      EDC99E
 175 01e6 1E5B1BA6 		.ascii	"\036[\033\246\303 \371\267jpp\377c\214\330\244|\236"
 175      C320F9B7 
 175      6A7070FF 
 175      638CD8A4 
 175      7C9E
 176 01f8 CFE503C5 		.ascii	"\317\345\003\305<~\216A\313\022\320k\011\014\372\021"
 176      3C7E8E41 
 176      CB12D06B 
 176      090CFA11 
 177 0208 25018C16 		.ascii	"%\001\214\026A\365\260\016\247a\035*\240\313\201\213"
 177      41F5B00E 
 177      A7611D2A 
 177      A0CB818B 
 178 0218 79E73EB0 		.ascii	"y\347>\260\360\253P\003b\321\017\2632h\005\261\363\336"
 178      F0AB5003 
 178      62D10FB3 
 178      326805B1 
 178      F3DE
 179 022a EAEE9D48 		.ascii	"\352\356\235H\276\224\004\032ZK\227b-{G\317\036\211"
ARM GAS  C:\Users\Bruger\AppData\Local\Temp\ccBPSPB6.s 			page 13


 179      BE94041A 
 179      5A4B9762 
 179      2D7B47CF 
 179      1E89
 180 023c C3DD82DC 		.ascii	"\303\335\202\334\033\207\235uz\322p>0R9\275y\237\245"
 180      1B879D75 
 180      7AD2703E 
 180      305239BD 
 180      799FA5
 181 024f 683FEF0B 		.ascii	"h?\357\013\006\027\323$\324(3\335(\231n\242\246\017"
 181      0617D324 
 181      D42833DD 
 181      28996EA2 
 181      A60F
 182 0261 DDBBD31C 		.ascii	"\335\273\323\034\213\313T\012\323\006\301t\311\364L"
 182      8BCB540A 
 182      D306C174 
 182      C9F44C
 183 0270 7D0C1D06 		.ascii	"}\014\035\006\203\230\270~\342wTjP\022+\330\371^\260"
 183      8398B87E 
 183      E277546A 
 183      50122BD8 
 183      F95EB0
 184 0283 D3021ACF 		.ascii	"\323\002\032\317\204\354\030D;\2643\340\"\252J\317\314"
 184      84EC1844 
 184      3BB433E0 
 184      22AA4ACF 
 184      CC
 185 0294 7A40E7A0 		.ascii	"z@\347\2409\006\2619\3150y\026&\241R\301\336\342\031"
 185      3906B139 
 185      CD307916 
 185      26A152C1 
 185      DEE219
 186 02a7 566EBC45 		.ascii	"Vn\274Ea\274Ua\274\251\371h/\306vA\262\253\350\222/"
 186      61BC5561 
 186      BCA9F968 
 186      2FC67641 
 186      B2ABE892 
 187 02bc 4E32FEFB 		.ascii	"N2\376\373{2\343\220\204\332d\306\333$\343\355\324x"
 187      7B32E390 
 187      84DA64C6 
 187      DB24E3ED 
 187      D478
 188 02ce 515E5B91 		.ascii	"Q^[\221Z\0157\007m2p\223\226\226\034l\327F<J\035T\305"
 188      5A0D3707 
 188      6D327093 
 188      96961C6C 
 188      D7463C4A 
 189 02e5 7924CA28 		.ascii	"y$\312(\010t\336U\343\263\202\214\262#\365p\012\210"
 189      0874DE55 
 189      E3B3828C 
 189      B223F570 
 189      0A88
 190 02f7 0C9FA3BC 		.ascii	"\014\237\243\274Kg\227\316\014\344\240N\231\210NI\204"
 190      4B6797CE 
 190      0CE4A04E 
 190      99884E49 
ARM GAS  C:\Users\Bruger\AppData\Local\Temp\ccBPSPB6.s 			page 14


 190      84
 191 0308 9B8A68AE 		.ascii	"\233\212h\256\230\272\243\245\"ZfE\370\313\276\361\350"
 191      98BAA3A5 
 191      225A6645 
 191      F8CBBEF1 
 191      E8
 192 0319 238AF050 		.ascii	"#\212\360P\021]\222\210V\313@\335<\354\027D|\353.|\207"
 192      115D9288 
 192      56CB40DD 
 192      3CEC1744 
 192      7CEB2E7C 
 193 032e 6AB03795 		.ascii	"j\2607\225\3574\210\233\036\022P\267LA\267\244\340\002"
 193      EF34889B 
 193      1E1250B7 
 193      4C41B7A4 
 193      E002
 194 0340 55B0DFEA 		.ascii	"U\260\337\352\274\246\3079\230\022\324_\350?\244\026"
 194      BCA6C739 
 194      9812D45F 
 194      E83FA416 
 195 0350 5C5495BB 		.ascii	"\\T\225\273C.\310\301\351\221q\364H\034\275\224c4ox"
 195      432EC8C1 
 195      E99171F4 
 195      481CBD94 
 195      63346F78 
 196 0364 380E9708 		.ascii	"8\016\227\010\034\273\335\271\207\242\005\216\233\347"
 196      1CBBDDB9 
 196      87A2058E 
 196      9BE7
 197 0372 B9F65CFE 		.ascii	"\271\366\\\376O\262y(\205WF\341\225(\372\004\212G\243"
 197      4FB27928 
 197      855746E1 
 197      9528FA04 
 197      8A47A3
 198 0385 EDD1F48A 		.ascii	"\355\321\364\212[AH\212\363\\.=\275\3424d\370\304\026"
 198      5B41488A 
 198      F35C2E3D 
 198      BDE23464 
 198      F8C416
 199 0398 9C8CC6B5 		.ascii	"\234\214\306\265B\201\361\233{\006Y\354\025\006E\356"
 199      4281F19B 
 199      7B0659EC 
 199      150645EE 
 200 03a8 FB560DF6 		.ascii	"\373V\015\366\011\003K\305\320\337\030O\013\203F\307"
 200      09034BC5 
 200      D0DF184F 
 200      0B8346C7 
 201 03b8 03AF9632 		.ascii	"\003\257\2262\032`\030\365\270\327\346\322\243\304\005"
 201      1A6018F5 
 201      B8D7E6D2 
 201      A3C405
 202 03c7 89894976 		.ascii	"\211\211Iv\330\231\276B\277[\313\227\256\240\213\377"
 202      D899BE42 
 202      BF5BCB97 
 202      AEA08BFF 
 203 03d7 33E81A40 		.ascii	"3\350\032@\013\244\003\374*\351\363R\370a\366\2215("
 203      0BA403FC 
ARM GAS  C:\Users\Bruger\AppData\Local\Temp\ccBPSPB6.s 			page 15


 203      2AE9F352 
 203      F861F691 
 203      3528
 204 03e9 E2F95526 		.ascii	"\342\371U&\006]\204%\270D\227\200@\301\006\272\012{"
 204      065D8425 
 204      B8449780 
 204      40C106BA 
 204      0A7B
 205 03fb B91F25A2 		.ascii	"\271\037%\242A\210+(\221\332\241\334{\374]\263\334\227"
 205      41882B28 
 205      91DAA1DC 
 205      7BFC5DB3 
 205      DC97
 206 040d E7E0FE95 		.ascii	"\347\340\376\225\320\010\320]\026+\\\260+\350\362\377"
 206      D008D05D 
 206      162B5CB0 
 206      2BE8F2FF 
 207 041d 2242670F 		.ascii	"\"Bg\017\013\005WR09q\276\374r\015\217\010\204\221\332"
 207      0B055752 
 207      303971BE 
 207      FC720D8F 
 207      088491DA 
 208 0431 28DD1CAA 		.ascii	"(\335\034\252#':\362\342P\322\002\212+K\216AC@\364S"
 208      23273AF2 
 208      E250D202 
 208      8A2B4B8E 
 208      414340F4 
 209 0446 E8549224 		.ascii	"\350T\222$\372\314e\011]\003'\377\346\212l\264<\353"
 209      FACC6509 
 209      5D0327FF 
 209      E68A6CB4 
 209      3CEB
 210 0458 432DCE55 		.ascii	"C-\316U\323\336N\355\2534-9\312\363\366\200\367\252"
 210      D3DE4EED 
 210      AB342D39 
 210      CAF3F680 
 210      F7AA
 211 046a 4B95C3DB 		.ascii	"K\225\303\333sx\236\3545ZuX\250*k\330\260\260\326h\004"
 211      73789EEC 
 211      355A7558 
 211      A82A6BD8 
 211      B0B0D668 
 212 047f 2D21C7B7 		.ascii	"-!\307\267\330S\252\241kK\267\273u\330[\246\325\025"
 212      D853AAA1 
 212      6B4BB7BB 
 212      75D85BA6 
 212      D515
 213 0491 92DBA2C8 		.ascii	"\222\333\242\310\302\307z\364\364\340B\213\320(M\366"
 213      C2C77AF4 
 213      F4E0428B 
 213      D0284DF6 
 214 04a1 211D4D86 		.ascii	"!\035M\206\277\200>\270\263k\255\002L*\206\300c\"x\214"
 214      BF803EB8 
 214      B36BAD02 
 214      4C2A86C0 
 214      6322788C 
 215 04b5 82877C03 		.ascii	"\202\207|\003\375*\005\332\245\240\036\027\321\343\024"
ARM GAS  C:\Users\Bruger\AppData\Local\Temp\ccBPSPB6.s 			page 16


 215      FD2A05DA 
 215      A5A01E17 
 215      D1E314
 216 04c4 7DCCDBDC 		.ascii	"}\314\333\334\254\024\342Q\240\375\"\332O\321;\276n"
 216      AC14E251 
 216      A0FD22DA 
 216      4FD13BBE 
 216      6E
 217 04d5 2B6615E8 		.ascii	"+f\025\350\016\005\372\272\210\276N\320\270\255\262"
 217      0E05FABA 
 217      88BE4ED0 
 217      B8ADB2
 218 04e4 ED2A8B12 		.ascii	"\355*\213\022\330\204R\370\330\316,F\023\210%\027$\334"
 218      D88452F8 
 218      D8CE2C46 
 218      13882517 
 218      24DC
 219 04f6 A2B93C2E 		.ascii	"\242\271<.\325K\337\016\206\376\203A\277\001\315\015"
 219      D54BDF0E 
 219      86FE8341 
 219      BF01CD0D 
 220 0506 A021E8D6 		.ascii	"\240!\350\326\311`\360\313\240\360\354\215\246\000\362"
 220      C960F0CB 
 220      A0F0EC8D 
 220      A600F2
 221 0515 0312F892 		.ascii	"\003\022\370\222]\0251\330&,\311\351\207\205\215\363"
 221      5D1531D8 
 221      262CC9E9 
 221      87858DF3 
 222 0525 D87C7265 		.ascii	"\330|re\374\367\347\0106\314\345\276\302\376X\341\003"
 222      FCF7E708 
 222      36CCE5BE 
 222      C2FE58E1 
 222      03
 223 0536 F674C674 		.ascii	"\366t\306t\304\017X\347\275\017w\300\215?\005\233u2"
 223      C40F58E7 
 223      BD0F77C0 
 223      8D3F059B 
 223      7532
 224 0548 B4B76EA2 		.ascii	"\264\267n\242\320\027\254`\334\346\325)\332B\300\241"
 224      D017AC60 
 224      DCE6D529 
 224      DA42C0A1 
 225 0558 B6DC12DB 		.ascii	"\266\334\022\333r\2136\261\2726\317\032\247@\037W4\361"
 225      728B36B1 
 225      BA36CF1A 
 225      A7401F57 
 225      34F1
 226 056a 36D24945 		.ascii	"6\322IE\340\225y\376\375\314\317\271ts\20613\331\230"
 226      E09579FE 
 226      FDCCCFB9 
 226      74738631 
 226      33D998
 227 057d 9D69E64C 		.ascii	"\235i\346L\353S\323\276\340\222\215\231\237el\322\254"
 227      EB53D3BE 
 227      E0928D99 
 227      9F656CD2 
ARM GAS  C:\Users\Bruger\AppData\Local\Temp\ccBPSPB6.s 			page 17


 227      AC
 228 058e FE78AD21 		.ascii	"\376x\255!\231y}5\227\311\231\322\314\334\306\365\251"
 228      99797D35 
 228      97C999D2 
 228      CCDCC6F5 
 228      A9
 229 059f C66C533A 		.ascii	"\306lS:\267.%\325\230\374\346\272\260\314\224\217\226"
 229      B72E25D5 
 229      98FCE6BA 
 229      B0CC948F 
 229      96
 230 05b0 A7338BC2 		.ascii	"\2473\213\302\246\327p\333\314F\223\310\031\037^o+\307"
 230      A6D770DB 
 230      CC4693C8 
 230      191F5E6F 
 230      2BC7
 231 05c2 652D0C9B 		.ascii	"e-\014\233\376$m\013\227\235\025\225\235\221i^\371R"
 231      FE246D0B 
 231      979D1595 
 231      9D91695E 
 231      F952
 232 05d4 0405E9DB 		.ascii	"\004\005\351\333\315\333\263\270m\31373/\317Q5m#\224"
 232      CDDBB3B8 
 232      6DCB3733 
 232      2FCF5135 
 232      6D2394
 233 05e7 349B8C5B 		.ascii	"4\233\214[\327p\2332\266\301\334\322\377i\004\3704\244"
 233      D7709B32 
 233      B6C1DCD2 
 233      FF6904F8 
 233      34A4
 234 05f9 EE1B6FBD 		.ascii	"\356\033o\275\020\201\226\276\277\022\256\331\224a\346"
 234      108196BE 
 234      BF12AED9 
 234      9461E6
 235 0608 9E2AFA62 		.ascii	"\236*\372b$\024\035<\033\336\016\263q\216n\274\233\231"
 235      24141D3C 
 235      1BDE0EB3 
 235      718E6EBC 
 235      9B99
 236 061a B6612B17 		.ascii	"\266a+\027\316\265!-}KvV\252\331\224\235n~F\234\024"
 236      CEB5212D 
 236      7D4B7656 
 236      AAD9949D 
 236      6E7E469C 
 237 062f B0A96630 		.ascii	"\260\251f0\312\212Sk7n\210\027_\237\222\027^J\240T\233"
 237      CA8A536B 
 237      376E8817 
 237      5F9F9217 
 237      5E4AA054 
 238 0644 B84D2BFF 		.ascii	"\270M+\377\001\322\200\311\205"
 238      01D280C9 
 238      85
 239              		.text
 240              		.section	.gnu.lto_.symtab.ebcf3d26,"",%progbits
 241 0000 496E6A65 		.ascii	"InjectionCounter_SaveConfig\000\000\000\000\000\000"
 241      6374696F 
ARM GAS  C:\Users\Bruger\AppData\Local\Temp\ccBPSPB6.s 			page 18


 241      6E436F75 
 241      6E746572 
 241      5F536176 
 242 0021 00000000 		.ascii	"\000\000\000\000\000\000\254\000\000\000InjectionCo"
 242      0000AC00 
 242      0000496E 
 242      6A656374 
 242      696F6E43 
 243 0036 756E7465 		.ascii	"unter_RestoreConfig\000\000\000\000\000\000\000\000"
 243      725F5265 
 243      73746F72 
 243      65436F6E 
 243      66696700 
 244 0051 00000000 		.ascii	"\000\000\000\000\256\000\000\000InjectionCounter_Sl"
 244      AE000000 
 244      496E6A65 
 244      6374696F 
 244      6E436F75 
 245 006c 65657000 		.ascii	"eep\000\000\000\000\000\000\000\000\000\000\000\000"
 245      00000000 
 245      00000000 
 245      000000
 246 007b B0000000 		.ascii	"\260\000\000\000InjectionCounter_Wakeup\000\000\000"
 246      496E6A65 
 246      6374696F 
 246      6E436F75 
 246      6E746572 
 247 0099 00000000 		.ascii	"\000\000\000\000\000\000\000\000\000\262\000\000\000"
 247      00000000 
 247      00B20000 
 247      00
 248 00a6 496E6A65 		.ascii	"InjectionCounter_ReadControlRegister\000\000\002\000"
 248      6374696F 
 248      6E436F75 
 248      6E746572 
 248      5F526561 
 249 00ce 00000000 		.ascii	"\000\000\000\000\000\000\000\000\272\000\000\000Inj"
 249      00000000 
 249      BA000000 
 249      496E6A
 250 00dd 65637469 		.ascii	"ectionCounter_ReadCounter\000\000\002\000\000\000\000"
 250      6F6E436F 
 250      756E7465 
 250      725F5265 
 250      6164436F 
 251 00fd 00000000 		.ascii	"\000\000\000\000\000\302\000\000\000InjectionCounte"
 251      00C20000 
 251      00496E6A 
 251      65637469 
 251      6F6E436F 
 252 0115 725F5772 		.ascii	"r_WriteControlRegister\000\000\002\000\000\000\000\000"
 252      69746543 
 252      6F6E7472 
 252      6F6C5265 
 252      67697374 
 253 0133 00000000 		.ascii	"\000\000\000\000\306\000\000\000InjectionCounter_Wr"
 253      C6000000 
ARM GAS  C:\Users\Bruger\AppData\Local\Temp\ccBPSPB6.s 			page 19


 253      496E6A65 
 253      6374696F 
 253      6E436F75 
 254 014e 69746543 		.ascii	"iteCounter\000\000\002\000\000\000\000\000\000\000\000"
 254      6F756E74 
 254      65720000 
 254      02000000 
 254      00000000 
 255 0163 00CA0000 		.ascii	"\000\312\000\000\000InjectionCounter_Stop\000\000\002"
 255      00496E6A 
 255      65637469 
 255      6F6E436F 
 255      756E7465 
 256 0180 00000000 		.ascii	"\000\000\000\000\000\000\000\000\000\314\000\000\000"
 256      00000000 
 256      00CC0000 
 256      00
 257 018d 496E6A65 		.ascii	"InjectionCounter_Enable\000\000\002\000\000\000\000"
 257      6374696F 
 257      6E436F75 
 257      6E746572 
 257      5F456E61 
 258 01ab 00000000 		.ascii	"\000\000\000\000\000\316\000\000\000"
 258      00CE0000 
 258      00
 259              		.text
 260              		.section	.gnu.lto_.opts,"",%progbits
 261 0000 272D666E 		.ascii	"'-fno-trapv' '-mcpu=cortex-m3' '-mthumb' '-g' '-Os'"
 261      6F2D7472 
 261      61707627 
 261      20272D6D 
 261      6370753D 
 262 0033 20272D66 		.ascii	" '-ffunction-sections' '-finline-functions' '-flto'"
 262      66756E63 
 262      74696F6E 
 262      2D736563 
 262      74696F6E 
 263 0066 20272D66 		.ascii	" '-ffat-lto-objects'\000"
 263      6661742D 
 263      6C746F2D 
 263      6F626A65 
 263      63747327 
 264              		.text
 265              		.cfi_sections	.debug_frame
 266              		.section	.text.InjectionCounter_SaveConfig,"ax",%progbits
 267              		.align	1
 268              		.global	InjectionCounter_SaveConfig
 269              		.thumb
 270              		.thumb_func
 271              		.type	InjectionCounter_SaveConfig, %function
 272              	InjectionCounter_SaveConfig:
 273              	.LFB0:
 274              		.file 1 "Generated_Source\\PSoC5\\InjectionCounter_PM.c"
   1:Generated_Source\PSoC5/InjectionCounter_PM.c **** /*******************************************************************************
   2:Generated_Source\PSoC5/InjectionCounter_PM.c **** * File Name: InjectionCounter_PM.c  
   3:Generated_Source\PSoC5/InjectionCounter_PM.c **** * Version 3.0
   4:Generated_Source\PSoC5/InjectionCounter_PM.c **** *
ARM GAS  C:\Users\Bruger\AppData\Local\Temp\ccBPSPB6.s 			page 20


   5:Generated_Source\PSoC5/InjectionCounter_PM.c **** *  Description:
   6:Generated_Source\PSoC5/InjectionCounter_PM.c **** *    This file provides the power management source code to API for the
   7:Generated_Source\PSoC5/InjectionCounter_PM.c **** *    Counter.  
   8:Generated_Source\PSoC5/InjectionCounter_PM.c **** *
   9:Generated_Source\PSoC5/InjectionCounter_PM.c **** *   Note:
  10:Generated_Source\PSoC5/InjectionCounter_PM.c **** *     None
  11:Generated_Source\PSoC5/InjectionCounter_PM.c **** *
  12:Generated_Source\PSoC5/InjectionCounter_PM.c **** ********************************************************************************
  13:Generated_Source\PSoC5/InjectionCounter_PM.c **** * Copyright 2008-2012, Cypress Semiconductor Corporation.  All rights reserved.
  14:Generated_Source\PSoC5/InjectionCounter_PM.c **** * You may use this file only in accordance with the license, terms, conditions, 
  15:Generated_Source\PSoC5/InjectionCounter_PM.c **** * disclaimers, and limitations in the end user license agreement accompanying 
  16:Generated_Source\PSoC5/InjectionCounter_PM.c **** * the software package with which this file was provided.
  17:Generated_Source\PSoC5/InjectionCounter_PM.c **** *******************************************************************************/
  18:Generated_Source\PSoC5/InjectionCounter_PM.c **** 
  19:Generated_Source\PSoC5/InjectionCounter_PM.c **** #include "InjectionCounter.h"
  20:Generated_Source\PSoC5/InjectionCounter_PM.c **** 
  21:Generated_Source\PSoC5/InjectionCounter_PM.c **** static InjectionCounter_backupStruct InjectionCounter_backup;
  22:Generated_Source\PSoC5/InjectionCounter_PM.c **** 
  23:Generated_Source\PSoC5/InjectionCounter_PM.c **** 
  24:Generated_Source\PSoC5/InjectionCounter_PM.c **** /*******************************************************************************
  25:Generated_Source\PSoC5/InjectionCounter_PM.c **** * Function Name: InjectionCounter_SaveConfig
  26:Generated_Source\PSoC5/InjectionCounter_PM.c **** ********************************************************************************
  27:Generated_Source\PSoC5/InjectionCounter_PM.c **** * Summary:
  28:Generated_Source\PSoC5/InjectionCounter_PM.c **** *     Save the current user configuration
  29:Generated_Source\PSoC5/InjectionCounter_PM.c **** *
  30:Generated_Source\PSoC5/InjectionCounter_PM.c **** * Parameters:  
  31:Generated_Source\PSoC5/InjectionCounter_PM.c **** *  void
  32:Generated_Source\PSoC5/InjectionCounter_PM.c **** *
  33:Generated_Source\PSoC5/InjectionCounter_PM.c **** * Return: 
  34:Generated_Source\PSoC5/InjectionCounter_PM.c **** *  void
  35:Generated_Source\PSoC5/InjectionCounter_PM.c **** *
  36:Generated_Source\PSoC5/InjectionCounter_PM.c **** * Global variables:
  37:Generated_Source\PSoC5/InjectionCounter_PM.c **** *  InjectionCounter_backup:  Variables of this global structure are modified to 
  38:Generated_Source\PSoC5/InjectionCounter_PM.c **** *  store the values of non retention configuration registers when Sleep() API is 
  39:Generated_Source\PSoC5/InjectionCounter_PM.c **** *  called.
  40:Generated_Source\PSoC5/InjectionCounter_PM.c **** *
  41:Generated_Source\PSoC5/InjectionCounter_PM.c **** *******************************************************************************/
  42:Generated_Source\PSoC5/InjectionCounter_PM.c **** void InjectionCounter_SaveConfig(void) 
  43:Generated_Source\PSoC5/InjectionCounter_PM.c **** {
 275              		.loc 1 43 0
 276              		.cfi_startproc
 277              		@ args = 0, pretend = 0, frame = 0
 278              		@ frame_needed = 0, uses_anonymous_args = 0
 279 0000 10B5     		push	{r4, lr}
 280              		.cfi_def_cfa_offset 8
 281              		.cfi_offset 4, -8
 282              		.cfi_offset 14, -4
  44:Generated_Source\PSoC5/InjectionCounter_PM.c ****     #if (!InjectionCounter_UsingFixedFunction)
  45:Generated_Source\PSoC5/InjectionCounter_PM.c **** 
  46:Generated_Source\PSoC5/InjectionCounter_PM.c ****         InjectionCounter_backup.CounterUdb = InjectionCounter_ReadCounter();
 283              		.loc 1 46 0
 284 0002 FFF7FEFF 		bl	InjectionCounter_ReadCounter
 285              	.LVL0:
 286 0006 034C     		ldr	r4, .L2
 287 0008 6080     		strh	r0, [r4, #2]	@ movhi
  47:Generated_Source\PSoC5/InjectionCounter_PM.c **** 
  48:Generated_Source\PSoC5/InjectionCounter_PM.c ****         #if(!InjectionCounter_ControlRegRemoved)
ARM GAS  C:\Users\Bruger\AppData\Local\Temp\ccBPSPB6.s 			page 21


  49:Generated_Source\PSoC5/InjectionCounter_PM.c ****             InjectionCounter_backup.CounterControlRegister = InjectionCounter_ReadControlRegister()
 288              		.loc 1 49 0
 289 000a FFF7FEFF 		bl	InjectionCounter_ReadControlRegister
 290              	.LVL1:
 291 000e 2071     		strb	r0, [r4, #4]
 292 0010 10BD     		pop	{r4, pc}
 293              	.L3:
 294 0012 00BF     		.align	2
 295              	.L2:
 296 0014 00000000 		.word	.LANCHOR0
 297              		.cfi_endproc
 298              	.LFE0:
 299              		.size	InjectionCounter_SaveConfig, .-InjectionCounter_SaveConfig
 300              		.section	.text.InjectionCounter_RestoreConfig,"ax",%progbits
 301              		.align	1
 302              		.global	InjectionCounter_RestoreConfig
 303              		.thumb
 304              		.thumb_func
 305              		.type	InjectionCounter_RestoreConfig, %function
 306              	InjectionCounter_RestoreConfig:
 307              	.LFB1:
  50:Generated_Source\PSoC5/InjectionCounter_PM.c ****         #endif /* (!InjectionCounter_ControlRegRemoved) */
  51:Generated_Source\PSoC5/InjectionCounter_PM.c **** 
  52:Generated_Source\PSoC5/InjectionCounter_PM.c ****     #endif /* (!InjectionCounter_UsingFixedFunction) */
  53:Generated_Source\PSoC5/InjectionCounter_PM.c **** }
  54:Generated_Source\PSoC5/InjectionCounter_PM.c **** 
  55:Generated_Source\PSoC5/InjectionCounter_PM.c **** 
  56:Generated_Source\PSoC5/InjectionCounter_PM.c **** /*******************************************************************************
  57:Generated_Source\PSoC5/InjectionCounter_PM.c **** * Function Name: InjectionCounter_RestoreConfig
  58:Generated_Source\PSoC5/InjectionCounter_PM.c **** ********************************************************************************
  59:Generated_Source\PSoC5/InjectionCounter_PM.c **** *
  60:Generated_Source\PSoC5/InjectionCounter_PM.c **** * Summary:
  61:Generated_Source\PSoC5/InjectionCounter_PM.c **** *  Restores the current user configuration.
  62:Generated_Source\PSoC5/InjectionCounter_PM.c **** *
  63:Generated_Source\PSoC5/InjectionCounter_PM.c **** * Parameters:  
  64:Generated_Source\PSoC5/InjectionCounter_PM.c **** *  void
  65:Generated_Source\PSoC5/InjectionCounter_PM.c **** *
  66:Generated_Source\PSoC5/InjectionCounter_PM.c **** * Return: 
  67:Generated_Source\PSoC5/InjectionCounter_PM.c **** *  void
  68:Generated_Source\PSoC5/InjectionCounter_PM.c **** *
  69:Generated_Source\PSoC5/InjectionCounter_PM.c **** * Global variables:
  70:Generated_Source\PSoC5/InjectionCounter_PM.c **** *  InjectionCounter_backup:  Variables of this global structure are used to 
  71:Generated_Source\PSoC5/InjectionCounter_PM.c **** *  restore the values of non retention registers on wakeup from sleep mode.
  72:Generated_Source\PSoC5/InjectionCounter_PM.c **** *
  73:Generated_Source\PSoC5/InjectionCounter_PM.c **** *******************************************************************************/
  74:Generated_Source\PSoC5/InjectionCounter_PM.c **** void InjectionCounter_RestoreConfig(void) 
  75:Generated_Source\PSoC5/InjectionCounter_PM.c **** {      
 308              		.loc 1 75 0
 309              		.cfi_startproc
 310              		@ args = 0, pretend = 0, frame = 0
 311              		@ frame_needed = 0, uses_anonymous_args = 0
 312 0000 10B5     		push	{r4, lr}
 313              		.cfi_def_cfa_offset 8
 314              		.cfi_offset 4, -8
 315              		.cfi_offset 14, -4
  76:Generated_Source\PSoC5/InjectionCounter_PM.c ****     #if (!InjectionCounter_UsingFixedFunction)
  77:Generated_Source\PSoC5/InjectionCounter_PM.c **** 
ARM GAS  C:\Users\Bruger\AppData\Local\Temp\ccBPSPB6.s 			page 22


  78:Generated_Source\PSoC5/InjectionCounter_PM.c ****        InjectionCounter_WriteCounter(InjectionCounter_backup.CounterUdb);
 316              		.loc 1 78 0
 317 0002 044C     		ldr	r4, .L5
 318 0004 6088     		ldrh	r0, [r4, #2]
 319 0006 FFF7FEFF 		bl	InjectionCounter_WriteCounter
 320              	.LVL2:
  79:Generated_Source\PSoC5/InjectionCounter_PM.c **** 
  80:Generated_Source\PSoC5/InjectionCounter_PM.c ****         #if(!InjectionCounter_ControlRegRemoved)
  81:Generated_Source\PSoC5/InjectionCounter_PM.c ****             InjectionCounter_WriteControlRegister(InjectionCounter_backup.CounterControlRegister);
 321              		.loc 1 81 0
 322 000a 2079     		ldrb	r0, [r4, #4]	@ zero_extendqisi2
  82:Generated_Source\PSoC5/InjectionCounter_PM.c ****         #endif /* (!InjectionCounter_ControlRegRemoved) */
  83:Generated_Source\PSoC5/InjectionCounter_PM.c **** 
  84:Generated_Source\PSoC5/InjectionCounter_PM.c ****     #endif /* (!InjectionCounter_UsingFixedFunction) */
  85:Generated_Source\PSoC5/InjectionCounter_PM.c **** }
 323              		.loc 1 85 0
 324 000c BDE81040 		pop	{r4, lr}
 325              		.cfi_restore 14
 326              		.cfi_restore 4
 327              		.cfi_def_cfa_offset 0
  81:Generated_Source\PSoC5/InjectionCounter_PM.c ****         #endif /* (!InjectionCounter_ControlRegRemoved) */
 328              		.loc 1 81 0
 329 0010 FFF7FEBF 		b	InjectionCounter_WriteControlRegister
 330              	.LVL3:
 331              	.L6:
 332              		.align	2
 333              	.L5:
 334 0014 00000000 		.word	.LANCHOR0
 335              		.cfi_endproc
 336              	.LFE1:
 337              		.size	InjectionCounter_RestoreConfig, .-InjectionCounter_RestoreConfig
 338              		.section	.text.InjectionCounter_Sleep,"ax",%progbits
 339              		.align	1
 340              		.global	InjectionCounter_Sleep
 341              		.thumb
 342              		.thumb_func
 343              		.type	InjectionCounter_Sleep, %function
 344              	InjectionCounter_Sleep:
 345              	.LFB2:
  86:Generated_Source\PSoC5/InjectionCounter_PM.c **** 
  87:Generated_Source\PSoC5/InjectionCounter_PM.c **** 
  88:Generated_Source\PSoC5/InjectionCounter_PM.c **** /*******************************************************************************
  89:Generated_Source\PSoC5/InjectionCounter_PM.c **** * Function Name: InjectionCounter_Sleep
  90:Generated_Source\PSoC5/InjectionCounter_PM.c **** ********************************************************************************
  91:Generated_Source\PSoC5/InjectionCounter_PM.c **** * Summary:
  92:Generated_Source\PSoC5/InjectionCounter_PM.c **** *     Stop and Save the user configuration
  93:Generated_Source\PSoC5/InjectionCounter_PM.c **** *
  94:Generated_Source\PSoC5/InjectionCounter_PM.c **** * Parameters:  
  95:Generated_Source\PSoC5/InjectionCounter_PM.c **** *  void
  96:Generated_Source\PSoC5/InjectionCounter_PM.c **** *
  97:Generated_Source\PSoC5/InjectionCounter_PM.c **** * Return: 
  98:Generated_Source\PSoC5/InjectionCounter_PM.c **** *  void
  99:Generated_Source\PSoC5/InjectionCounter_PM.c **** *
 100:Generated_Source\PSoC5/InjectionCounter_PM.c **** * Global variables:
 101:Generated_Source\PSoC5/InjectionCounter_PM.c **** *  InjectionCounter_backup.enableState:  Is modified depending on the enable 
 102:Generated_Source\PSoC5/InjectionCounter_PM.c **** *  state of the block before entering sleep mode.
 103:Generated_Source\PSoC5/InjectionCounter_PM.c **** *
ARM GAS  C:\Users\Bruger\AppData\Local\Temp\ccBPSPB6.s 			page 23


 104:Generated_Source\PSoC5/InjectionCounter_PM.c **** *******************************************************************************/
 105:Generated_Source\PSoC5/InjectionCounter_PM.c **** void InjectionCounter_Sleep(void) 
 106:Generated_Source\PSoC5/InjectionCounter_PM.c **** {
 346              		.loc 1 106 0
 347              		.cfi_startproc
 348              		@ args = 0, pretend = 0, frame = 0
 349              		@ frame_needed = 0, uses_anonymous_args = 0
 350 0000 08B5     		push	{r3, lr}
 351              		.cfi_def_cfa_offset 8
 352              		.cfi_offset 3, -8
 353              		.cfi_offset 14, -4
 107:Generated_Source\PSoC5/InjectionCounter_PM.c ****     #if(!InjectionCounter_ControlRegRemoved)
 108:Generated_Source\PSoC5/InjectionCounter_PM.c ****         /* Save Counter's enable state */
 109:Generated_Source\PSoC5/InjectionCounter_PM.c ****         if(InjectionCounter_CTRL_ENABLE == (InjectionCounter_CONTROL & InjectionCounter_CTRL_ENABLE
 354              		.loc 1 109 0
 355 0002 074B     		ldr	r3, .L11
 356 0004 1B78     		ldrb	r3, [r3]	@ zero_extendqisi2
 357 0006 13F0800F 		tst	r3, #128
 358 000a 064B     		ldr	r3, .L11+4
 110:Generated_Source\PSoC5/InjectionCounter_PM.c ****         {
 111:Generated_Source\PSoC5/InjectionCounter_PM.c ****             /* Counter is enabled */
 112:Generated_Source\PSoC5/InjectionCounter_PM.c ****             InjectionCounter_backup.CounterEnableState = 1u;
 359              		.loc 1 112 0
 360 000c 14BF     		ite	ne
 361 000e 0122     		movne	r2, #1
 113:Generated_Source\PSoC5/InjectionCounter_PM.c ****         }
 114:Generated_Source\PSoC5/InjectionCounter_PM.c ****         else
 115:Generated_Source\PSoC5/InjectionCounter_PM.c ****         {
 116:Generated_Source\PSoC5/InjectionCounter_PM.c ****             /* Counter is disabled */
 117:Generated_Source\PSoC5/InjectionCounter_PM.c ****             InjectionCounter_backup.CounterEnableState = 0u;
 362              		.loc 1 117 0
 363 0010 0022     		moveq	r2, #0
 364 0012 1A70     		strb	r2, [r3]
 118:Generated_Source\PSoC5/InjectionCounter_PM.c ****         }
 119:Generated_Source\PSoC5/InjectionCounter_PM.c ****     #else
 120:Generated_Source\PSoC5/InjectionCounter_PM.c ****         InjectionCounter_backup.CounterEnableState = 1u;
 121:Generated_Source\PSoC5/InjectionCounter_PM.c ****         if(InjectionCounter_backup.CounterEnableState != 0u)
 122:Generated_Source\PSoC5/InjectionCounter_PM.c ****         {
 123:Generated_Source\PSoC5/InjectionCounter_PM.c ****             InjectionCounter_backup.CounterEnableState = 0u;
 124:Generated_Source\PSoC5/InjectionCounter_PM.c ****         }
 125:Generated_Source\PSoC5/InjectionCounter_PM.c ****     #endif /* (!InjectionCounter_ControlRegRemoved) */
 126:Generated_Source\PSoC5/InjectionCounter_PM.c ****     
 127:Generated_Source\PSoC5/InjectionCounter_PM.c ****     InjectionCounter_Stop();
 365              		.loc 1 127 0
 366 0014 FFF7FEFF 		bl	InjectionCounter_Stop
 367              	.LVL4:
 128:Generated_Source\PSoC5/InjectionCounter_PM.c ****     InjectionCounter_SaveConfig();
 129:Generated_Source\PSoC5/InjectionCounter_PM.c **** }
 368              		.loc 1 129 0
 369 0018 BDE80840 		pop	{r3, lr}
 370              		.cfi_restore 14
 371              		.cfi_restore 3
 372              		.cfi_def_cfa_offset 0
 128:Generated_Source\PSoC5/InjectionCounter_PM.c ****     InjectionCounter_SaveConfig();
 373              		.loc 1 128 0
 374 001c FFF7FEBF 		b	InjectionCounter_SaveConfig
 375              	.LVL5:
ARM GAS  C:\Users\Bruger\AppData\Local\Temp\ccBPSPB6.s 			page 24


 376              	.L12:
 377              		.align	2
 378              	.L11:
 379 0020 73640040 		.word	1073767539
 380 0024 00000000 		.word	.LANCHOR0
 381              		.cfi_endproc
 382              	.LFE2:
 383              		.size	InjectionCounter_Sleep, .-InjectionCounter_Sleep
 384              		.section	.text.InjectionCounter_Wakeup,"ax",%progbits
 385              		.align	1
 386              		.global	InjectionCounter_Wakeup
 387              		.thumb
 388              		.thumb_func
 389              		.type	InjectionCounter_Wakeup, %function
 390              	InjectionCounter_Wakeup:
 391              	.LFB3:
 130:Generated_Source\PSoC5/InjectionCounter_PM.c **** 
 131:Generated_Source\PSoC5/InjectionCounter_PM.c **** 
 132:Generated_Source\PSoC5/InjectionCounter_PM.c **** /*******************************************************************************
 133:Generated_Source\PSoC5/InjectionCounter_PM.c **** * Function Name: InjectionCounter_Wakeup
 134:Generated_Source\PSoC5/InjectionCounter_PM.c **** ********************************************************************************
 135:Generated_Source\PSoC5/InjectionCounter_PM.c **** *
 136:Generated_Source\PSoC5/InjectionCounter_PM.c **** * Summary:
 137:Generated_Source\PSoC5/InjectionCounter_PM.c **** *  Restores and enables the user configuration
 138:Generated_Source\PSoC5/InjectionCounter_PM.c **** *  
 139:Generated_Source\PSoC5/InjectionCounter_PM.c **** * Parameters:  
 140:Generated_Source\PSoC5/InjectionCounter_PM.c **** *  void
 141:Generated_Source\PSoC5/InjectionCounter_PM.c **** *
 142:Generated_Source\PSoC5/InjectionCounter_PM.c **** * Return: 
 143:Generated_Source\PSoC5/InjectionCounter_PM.c **** *  void
 144:Generated_Source\PSoC5/InjectionCounter_PM.c **** *
 145:Generated_Source\PSoC5/InjectionCounter_PM.c **** * Global variables:
 146:Generated_Source\PSoC5/InjectionCounter_PM.c **** *  InjectionCounter_backup.enableState:  Is used to restore the enable state of 
 147:Generated_Source\PSoC5/InjectionCounter_PM.c **** *  block on wakeup from sleep mode.
 148:Generated_Source\PSoC5/InjectionCounter_PM.c **** *
 149:Generated_Source\PSoC5/InjectionCounter_PM.c **** *******************************************************************************/
 150:Generated_Source\PSoC5/InjectionCounter_PM.c **** void InjectionCounter_Wakeup(void) 
 151:Generated_Source\PSoC5/InjectionCounter_PM.c **** {
 392              		.loc 1 151 0
 393              		.cfi_startproc
 394              		@ args = 0, pretend = 0, frame = 0
 395              		@ frame_needed = 0, uses_anonymous_args = 0
 396 0000 08B5     		push	{r3, lr}
 397              		.cfi_def_cfa_offset 8
 398              		.cfi_offset 3, -8
 399              		.cfi_offset 14, -4
 152:Generated_Source\PSoC5/InjectionCounter_PM.c ****     InjectionCounter_RestoreConfig();
 400              		.loc 1 152 0
 401 0002 FFF7FEFF 		bl	InjectionCounter_RestoreConfig
 402              	.LVL6:
 153:Generated_Source\PSoC5/InjectionCounter_PM.c ****     #if(!InjectionCounter_ControlRegRemoved)
 154:Generated_Source\PSoC5/InjectionCounter_PM.c ****         if(InjectionCounter_backup.CounterEnableState == 1u)
 403              		.loc 1 154 0
 404 0006 044B     		ldr	r3, .L16
 405 0008 1B78     		ldrb	r3, [r3]	@ zero_extendqisi2
 406 000a 012B     		cmp	r3, #1
 407 000c 03D1     		bne	.L13
ARM GAS  C:\Users\Bruger\AppData\Local\Temp\ccBPSPB6.s 			page 25


 155:Generated_Source\PSoC5/InjectionCounter_PM.c ****         {
 156:Generated_Source\PSoC5/InjectionCounter_PM.c ****             /* Enable Counter's operation */
 157:Generated_Source\PSoC5/InjectionCounter_PM.c ****             InjectionCounter_Enable();
 158:Generated_Source\PSoC5/InjectionCounter_PM.c ****         } /* Do nothing if Counter was disabled before */    
 159:Generated_Source\PSoC5/InjectionCounter_PM.c ****     #endif /* (!InjectionCounter_ControlRegRemoved) */
 160:Generated_Source\PSoC5/InjectionCounter_PM.c ****     
 161:Generated_Source\PSoC5/InjectionCounter_PM.c **** }
 408              		.loc 1 161 0
 409 000e BDE80840 		pop	{r3, lr}
 410              		.cfi_remember_state
 411              		.cfi_restore 14
 412              		.cfi_restore 3
 413              		.cfi_def_cfa_offset 0
 157:Generated_Source\PSoC5/InjectionCounter_PM.c ****         } /* Do nothing if Counter was disabled before */    
 414              		.loc 1 157 0
 415 0012 FFF7FEBF 		b	InjectionCounter_Enable
 416              	.LVL7:
 417              	.L13:
 418              		.cfi_restore_state
 419 0016 08BD     		pop	{r3, pc}
 420              	.L17:
 421              		.align	2
 422              	.L16:
 423 0018 00000000 		.word	.LANCHOR0
 424              		.cfi_endproc
 425              	.LFE3:
 426              		.size	InjectionCounter_Wakeup, .-InjectionCounter_Wakeup
 427              		.bss
 428              		.align	1
 429              		.set	.LANCHOR0,. + 0
 430              		.type	InjectionCounter_backup, %object
 431              		.size	InjectionCounter_backup, 6
 432              	InjectionCounter_backup:
 433 0000 00000000 		.space	6
 433      0000
 434              		.text
 435              	.Letext0:
 436              		.file 2 "Generated_Source\\PSoC5\\cytypes.h"
 437              		.file 3 "Generated_Source\\PSoC5\\InjectionCounter.h"