ARM GAS  C:\Users\Bruger\AppData\Local\Temp\ccPhhSKd.s 			page 1


   1              		.syntax unified
   2              		.cpu cortex-m3
   3              		.fpu softvfp
   4              		.eabi_attribute 20, 1
   5              		.eabi_attribute 21, 1
   6              		.eabi_attribute 23, 3
   7              		.eabi_attribute 24, 1
   8              		.eabi_attribute 25, 1
   9              		.eabi_attribute 26, 1
  10              		.eabi_attribute 30, 2
  11              		.eabi_attribute 34, 1
  12              		.eabi_attribute 18, 4
  13              		.thumb
  14              		.file	"Injection_1.c"
  15              		.text
  16              	.Ltext0:
  17              		.section	.gnu.lto_.profile.71da27ae,"",%progbits
  18 0000 789C6366 		.ascii	"x\234cf```a\200\000F\206\022O\000\001\245\000\306"
  18      60606061 
  18      80004686 
  18      124F0001 
  18      A500C6
  19              		.text
  20              		.section	.gnu.lto_.jmpfuncs.71da27ae,"",%progbits
  21 0000 789C6D8B 		.ascii	"x\234m\213I\016\300 \014\003'b+\224\355K}\031_\207\250"
  21      490EC020 
  21      0C032762 
  21      2B94ED4B 
  21      7D195F87 
  22 0015 396269EC 		.ascii	"9bi\354\271\330q\317g;\017b8\360\020DdEH\360\250f\255"
  22      B9D871CF 
  22      673B0F62 
  22      38F01044 
  22      644548F0 
  23 002c A2F54285 		.ascii	"\242\365B\205\246\332a\374\347\015h\220\003f"
  23      A6DA61FC 
  23      E70D6890 
  23      0366
  24              		.text
  25              		.section	.gnu.lto_.inline.71da27ae,"",%progbits
  26 0000 789C6DCB 		.ascii	"x\234m\313\273\015\302@\020\004\320\271\337r\334\031"
  26      BB0DC240 
  26      1004D0B9 
  26      DF72DC19 
  27 0010 DB0D2037 		.ascii	"\333\015 7\200\310i\300\241\233\240\027bJp\025\324A"
  27      80C869C0 
  27      A19BA017 
  27      624A7015 
  27      D441
  28 0022 408C881D 		.ascii	"@\214\210\035\271\004\326B\332d\330`Fz\243\015\370\177"
  28      B904D642 
  28      DA64D860 
  28      467AA30D 
  28      F87F
  29 0034 A3FB750F 		.ascii	"\243\373u\017\034?p\360\247\333;C\346\301o\352+\340"
  29      1C3F70F0 
  29      A7DB3B43 
ARM GAS  C:\Users\Bruger\AppData\Local\Temp\ccPhhSKd.s 			page 2


  29      E6C16FEA 
  29      2BE0
  30 0046 EED356BA 		.ascii	"\356\323V\272\325F\367v\271\332\354\212F\200$uY\317"
  30      D546F776 
  30      B9DAEC8A 
  30      46802475 
  30      59CF
  31 0058 E6912921 		.ascii	"\346\221)!\006%\377\354\214\004)*\305y0\332!_\224\312"
  31      0625FFEC 
  31      8C04292A 
  31      C57930DA 
  31      215F94CA 
  32 006c E3256699 		.ascii	"\343%f\231?\367L\205\25125L\007\246\226\251c\352\231"
  32      3FF74C85 
  32      A932354C 
  32      07A696A9 
  32      63EA99
  33 007f F005135A 		.ascii	"\360\005\023Z \241"
  33      20A1
  34              		.text
  35              		.section	.gnu.lto_.pureconst.71da27ae,"",%progbits
  36 0000 789C25C1 		.ascii	"x\234%\3017\022\000 \014\004\261cL\216\256\267\343\377"
  36      37120020 
  36      0C04B163 
  36      4C8EAEB7 
  36      E3FF
  37 0012 9FA44032 		.ascii	"\237\244@2IW\237\213\200\021Id\012\225Fg0Yl\016\316"
  37      49579F8B 
  37      80114964 
  37      0A954667 
  37      30596C0E 
  38 0027 03282F02 		.ascii	"\003(/\002["
  38      5B
  39              		.text
  40              		.section	.gnu.lto_Injection_1_Init.71da27ae,"",%progbits
  41 0000 789C8D96 		.ascii	"x\234\215\226]L\\E\024\307\347\314\275\373\301\362\261"
  41      5D4C5C45 
  41      14C7E7CC 
  41      BDFBC1F2 
  41      B1
  42 0011 7CF8D092 		.ascii	"|\370\320\222\030\037\210iM\252\211&}\351\2531j\214"
  42      181F8869 
  42      4DAA8926 
  42      7DE9AB31 
  42      6A8C
  43 0023 09090FBE 		.ascii	"\011\011\017\276\324\020\002\373\200\251,\331,/&M\357"
  43      D41002FB 
  43      80A92CD9 
  43      2C2F264D 
  43      EF
  44 0034 B24BDB54 		.ascii	"\262K\333TZ\013!\200\030\240\215\224\226oX\204\026\001"
  44      5A0B2180 
  44      18A08D94 
  44      966F5884 
  44      1601
  45 0046 B940E59B 		.ascii	"\271@\345\233\205-\005Z\344\253\005\0044\202tQ\272\255"
  45      852D055A 
ARM GAS  C:\Users\Bruger\AppData\Local\Temp\ccPhhSKd.s 			page 3


  45      E4AB0504 
  45      34827451 
  45      BAAD
  46 0058 ED7A66EE 		.ascii	"\355zf\356\335\205\335\245F\222\235\275w\366\2343\377"
  46      DD85DDA5 
  46      46929DBD 
  46      77F69C33 
  46      FF
  47 0069 DF993367 		.ascii	"\337\2313g\020H\370\337\007\370\321D\020r\006\277AK"
  47      1048F8DF 
  47      07F8D144 
  47      107206BF 
  47      414B
  48 007b 805E7511 		.ascii	"\200^u\021b\323S\020\225\007Ay\350\325\213T\310\037"
  48      62D35310 
  48      95074179 
  48      E8D58B54 
  48      C81F
  49 008d 24443268 		.ascii	"$D2h\034:\"Ei\000\330<\001r\216\012\242\006\316QQ\011"
  49      1C3A2245 
  49      6900D83C 
  49      01728E0A 
  49      A206CE51 
  50 00a3 B8497728 		.ascii	"\270Iw(\\\225\353J#\217\335\220$\351\317\276\266#yG"
  50      5C95EB4A 
  50      238FDD90 
  50      24E9CFBE 
  50      B6237947 
  51 00b7 BC94100F 		.ascii	"\274\224\020\017U\014\340&\034#h\363\217\243\351\221"
  51      550CE026 
  51      1C2368F3 
  51      8FA3E991 
  52 00c7 51380EEC 		.ascii	"Q8\016\354\371y\325\245UC\322uI\312]nZ\031\214\224J"
  52      F979D5A5 
  52      5543D275 
  52      49CA5D6E 
  52      5A198C94 
  53 00dc 25C7B2CF 		.ascii	"%\307\262\317\367\206\227\002\334\002\001=\341D\"\274"
  53      F7869702 
  53      DC02013D 
  53      E14422BC 
  54 00ec 95A86A46 		.ascii	"\225\250jF\207\337=\013N\215\3606w\236z6\356\214T\234"
  54      87DF3D0B 
  54      4E8DF036 
  54      779E7A36 
  54      EE8C549C 
  55 0100 BB574682 		.ascii	"\273WF\202\234k\017u\336q\274\230\215\324:P],\324@\022"
  55      9C6B0F75 
  55      DE71BC98 
  55      8DD43A50 
  55      5D2CD440 
  56 0115 D44192A2 		.ascii	"\324A\222\242\016\352A\013\204P\377lS\274,\371|\236"
  56      0EEA410B 
  56      8450FF6C 
  56      53BC2CF9 
  56      7C9E
  57 0127 99828D53 		.ascii	"\231\202\215S\364(%^J\005\302~\023\331\243\226\015:"
ARM GAS  C:\Users\Bruger\AppData\Local\Temp\ccPhhSKd.s 			page 4


  57      F428255E 
  57      4A05C27E 
  57      13D9A396 
  57      0D3A
  58 0139 3644B0C1 		.ascii	"6D\260\301\300\206h6\304\340\000F\034\2048\302\242\304"
  58      C0866836 
  58      C4E00046 
  58      1C8438C2 
  58      A2C4
  59 014b B3C90436 		.ascii	"\263\311\0046\020\262\212\037\314\337\032>;t\302\034"
  59      10B28A1F 
  59      CCDF1A3E 
  59      3B74C21C 
  60 015b F4FD7D69 		.ascii	"\364\375}i\253\"\231\255\273GY\342.:VF`\203z\251\270"
  60      AB2299AD 
  60      BB4759E2 
  60      2E3A5646 
  60      60837AA9 
  61 0170 37649344 		.ascii	"7d\223D\246viu\302\255\347S\\|\265O\356\211(\207\357"
  61      A6766975 
  61      C2ADE753 
  61      5C7CB54F 
  61      EE892887 
  62 0185 6C0EF052 		.ascii	"l\016\360R\0154@\"4\002\302A\023\224\003\231\003\373"
  62      0D344022 
  62      3402C241 
  62      13940399 
  62      03FB
  63 0197 D3F3BBA0 		.ascii	"\323\363\273\240\004\024\224\230\015\255\235\013<&\310"
  63      04149498 
  63      0DAD9D0B 
  63      3C26C8
  64 01a6 40A0198D 		.ascii	"@\240\031\215g\200rTDA+\346\264{\376e\305W\212\227\210"
  64      67807254 
  64      44412BE6 
  64      B47BFE65 
  64      C5578A97 
  65 01bb 53E8F560 		.ascii	"S\350\365`\250\344$sB:hA\037\324Z\310\343\006i\260\311"
  65      A8E42473 
  65      423A6841 
  65      1FD45AC8 
  65      E30669B0 
  66 01d0 47835538 		.ascii	"G\203U8Q\005\306 \034\315u\253Y\225\302\274\272\007"
  66      5105C620 
  66      1CCD75AB 
  66      5995C2BC 
  66      BA07
  67 01e2 3627A239 		.ascii	"6'\2429H\361\260\312\226\367\355\364e\272\017\323\032"
  67      48F1B0CA 
  67      96F7EDF4 
  67      65BA0FD3 
  67      1A
  68 01f3 08F3830A 		.ascii	"\010\363\203\012\263\253U\374uJ\210\301\362\015\247"
  68      B3AB55FC 
  68      754A88C1 
  68      F20DA7
  69 0202 C8552149 		.ascii	"\310U!I[\210\252W\006k\347\232t\212\246{\307\225\210"
ARM GAS  C:\Users\Bruger\AppData\Local\Temp\ccPhhSKd.s 			page 5


  69      5B88AA57 
  69      066BE79A 
  69      748AA67B 
  69      C79588
  70 0215 112C5CF5 		.ascii	"\021,\\\365\220l\344\212J\374\212z\2345\336\003An\007"
  70      906CE48A 
  70      4AFC8A7A 
  70      9C35DE03 
  70      416E07
  71 0228 82DC0951 		.ascii	"\202\334\011Qd\300\020a\022^\351\335\301%\030\374\231"
  71      64C01061 
  71      125EE9DD 
  71      C12518FC 
  71      99
  72 0239 4753D7B0 		.ascii	"GS\327\260\335*|\304\013x\364\361SO\024\223\241\215"
  72      DD2A7CC4 
  72      0B78F4F1 
  72      534F1493 
  72      A18D
  73 024b 65AF65B3 		.ascii	"e\257e\263k\273\002{\325Q\366z#\277\323\026\255\224"
  73      6BBB027B 
  73      D551F67A 
  73      23BFD316 
  73      AD94
  74 025d 777D7F9A 		.ascii	"w}\177\232\234{Mz\351\363ax\001~T\252\273\023W\351\002"
  74      9C7B4D7A 
  74      E9F36178 
  74      017E54AA 
  74      BB1357E9 
  75 0272 7F7D4337 		.ascii	"\177}C7$\241\227}\252\315\307\203\010CKh\363\223\"\264"
  75      24A1977D 
  75      AACDC783 
  75      08434B68 
  75      F39322B4 
  76 0286 B865B658 		.ascii	"\270e\266X\010:\001r\231\201y\360\322\367P\0109\036"
  76      083A0172 
  76      998179F0 
  76      D2F75008 
  76      391E
  77 0298 047AB029 		.ascii	"\004z\260)\020,\034&\271\340\266\253X\307b\352\363'"
  77      102C1C26 
  77      B9E0B6AB 
  77      58C762EA 
  77      F327
  78 02aa 438B53CF 		.ascii	"C\213S\317\213s\333]\260\245g\374E6\275\027\363\323"
  78      8B73DB5D 
  78      B0A567FC 
  78      4536BD17 
  78      F3D3
  79 02bc 8BD2FA78 		.ascii	"\213\322\372x\002\3721\001\\\305\014\344rJ_\353\216"
  79      02FA3101 
  79      5CC50CE4 
  79      724A5FEB 
  79      8E
  80 02cd 5B2724F3 		.ascii	"['$\363\025\363V\247j4\207\"\336=\024\361g<\236~\242"
  80      15F356A7 
  80      6A348722 
ARM GAS  C:\Users\Bruger\AppData\Local\Temp\ccPhhSKd.s 			page 6


  80      DE3D14F1 
  80      673C9E7E 
  81 02e2 9DF59210 		.ascii	"\235\365\222\020\242\226\021\312,T$\032\2064\300\221"
  81      A29611CA 
  81      2C54241A 
  81      8634C091 
  82 02f2 06395297 		.ascii	"\0069R\227\255\353\257H\005\311\255\"-\2726\237h\016"
  82      ADEBAF48 
  82      05C9AD22 
  82      2DBA369F 
  82      680E
  83 0304 300C0518 		.ascii	"0\014\005\030\206C\031\344\302\341\311h\3413\316\360"
  83      864319E4 
  83      C2E1C968 
  83      E133CEF0 
  84 0314 A4EAB72D 		.ascii	"\244\352\267-\343\241\014#\2072\214\362m\232\230\264"
  84      E3A10C23 
  84      87328CF2 
  84      6D9A98B4 
  85 0324 37F2FC09 		.ascii	"7\362\374\011\3223,\3511\3776\215\227\236\012\206j7"
  85      D2332CE9 
  85      31FF368D 
  85      979E0A86 
  85      6A37
  86 0336 300F9549 		.ascii	"0\017\225I\010c\032\347L.\316T\334\\$+\3334\346\337"
  86      08631AE7 
  86      4C2ECE54 
  86      DC5C242B 
  86      DB34E6DF 
  87 034a A6DAFBF3 		.ascii	"\246\332\373\363\027\264\007\230&\002L\223\214i\354"
  87      17B40798 
  87      26024C93 
  87      8C69EC
  88 0359 00D337CB 		.ascii	"\000\3237\313/\356h\205T\316\224\333{\2550Pz\237\313"
  88      2FEE6885 
  88      54CE94DB 
  88      7BAD3050 
  88      7A9FCB
  89 036c 363F1380 		.ascii	"6?\023\200;\274\261\302=Nd\253\356\314\347\253c\247"
  89      3BBCB1C2 
  89      3D4E64AB 
  89      EECCE7AB 
  89      63A7
  90 037e 83293FCF 		.ascii	"\203)?\317v\331{\301<\273\006f\257\362\210a<\3679\317"
  90      76D97BC1 
  90      3CBB0666 
  90      AFF28861 
  90      3CF739CF 
  91 0392 34E769AF 		.ascii	"4\347i\257\251\262\360Cz\301\177H\307sov\356o\221\006"
  91      A9B2F043 
  91      7AC17F48 
  91      C7736F76 
  91      EE6F9106 
  92 03a6 6602E76C 		.ascii	"f\002\347l\226\341\260U\347\301.W~}B9\253q\350S1u\245"
  92      96E1B055 
  92      E7C12E57 
  92      7E7D4239 
ARM GAS  C:\Users\Bruger\AppData\Local\Temp\ccPhhSKd.s 			page 7


  92      AB71E853 
  93 03bd 919E7D2E 		.ascii	"\221\236}.]\224\320\305\340\241\032\264~\000g\261-G"
  93      5D94D0C5 
  93      E0A11AB4 
  93      7E0067B1 
  93      2D47
  94 03cf 06FA611D 		.ascii	"\006\372a\035\353\207qj\357jp\252\275+\376\277\016\366"
  94      EB87716A 
  94      EF6A70AA 
  94      BD2BFEBF 
  94      0EF6
  95 03e1 C390B690 		.ascii	"\303\220\266\220\240\330\007\2164E\230\271\377\333%"
  95      A0D8078E 
  95      344598B9 
  95      FFDB25
  96 03f0 7EE15D22 		.ascii	"~\341]\"\001\305;\344\216\321\030fNB\245Gy(K\315<JG"
  96      01C53BE4 
  96      8ED11866 
  96      4E42A547 
  96      79284BCD 
  97 0407 AD5EBC72 		.ascii	"\255^\274r\010^'\002\301\313Y\271O\006F\277\327\006"
  97      085E2702 
  97      C1CB59B9 
  97      4F0646BF 
  97      D706
  98 0419 E7DA3D1A 		.ascii	"\347\332=\032\243&Z\027\226\350\005\226\350`\363\326"
  98      A3265A17 
  98      96E80596 
  98      E860F3D6 
  99 0429 C5D7082C 		.ascii	"\305\327\010,2s}\230\371\022\337\227eFj\304\337\306"
  99      32737D98 
  99      F912DF97 
  99      65466AC4 
  99      DFC6
 100 043b B62BAF68 		.ascii	"\266+\257h\031fL\275;\264#\304\360\270\213Us\227\305"
 100      19664CBD 
 100      3BB423C4 
 100      F0B88B55 
 100      7397C5
 101 044e C05619E1 		.ascii	"\300V\031\341\021\302>\346\260+,sL\273H\360?\011E\273"
 101      11C23EE6 
 101      B02B2C73 
 101      4CBB48F0 
 101      3F0945BB 
 102 0462 AB23547B 		.ascii	"\253#T{e\305\353\252\230\21001\253\\\314\032\023\023"
 102      65C5EBAA 
 102      98883031 
 102      AB5CCC1A 
 102      1313
 103 0474 83BFF577 		.ascii	"\203\277\365w\\\037\343\335<v=\354\356\214\345b\244"
 103      5C1FE3DD 
 103      3C763DEC 
 103      EE8CE562 
 103      A4
 104 0485 3FEA8B8C 		.ascii	"?\352\213\214\0011q\360+\212Y\347b6\366/O\312\226\333"
 104      013171F0 
 104      2B8A59E7 
ARM GAS  C:\Users\Bruger\AppData\Local\Temp\ccPhhSKd.s 			page 8


 104      6236F62F 
 104      4FCA96DB 
 105 0499 A3D11894 		.ascii	"\243\321\030\224\357\33448\036\332kA\235\345\305E\270"
 105      EFDC3438 
 105      1EDA6B41 
 105      9DE5C545 
 105      B8
 106 04aa 6E0DBBC2 		.ascii	"n\015\273\302\027\301&\317~\302w\212\260\353\035p\022"
 106      17C126CF 
 106      7EC2778A 
 106      B0EB1D70 
 106      12
 107 04bb 2BFFCD0F 		.ascii	"+\377\315\017MY&K\232\325\224\221\232b\316\261\244\233"
 107      4D59264B 
 107      9AD59491 
 107      9A62CEB1 
 107      A49B
 108 04cd 4E27A798 		.ascii	"N'\247\230\337?y\372\343\254/L\351\326LsV\352\273\357"
 108      DF3F79FA 
 108      E3AC2F4C 
 108      E9D64C73 
 108      56EABBEF 
 109 04e1 A41331DD 		.ascii	"\244\0231\335j9\223x`.53\313j\262Xr\262\255)Vt\326\245"
 109      6A399378 
 109      602E3533 
 109      CB6AB258 
 109      72B2AD29 
 110 04f9 9B73D884 		.ascii	"\233s\330\2046\333d\3114g\340\353\227\331i\026St\300"
 110      36DB64C9 
 110      3467E0EB 
 110      97D96916 
 110      5374C0
 111 050c EA537386 		.ascii	"\352Ss\206\351_\310&Z\024"
 111      E95FC826 
 111      5A14
 112              		.text
 113              		.section	.gnu.lto_Injection_1_Start.71da27ae,"",%progbits
 114 0000 789C7D91 		.ascii	"x\234}\221OH\024Q\034\307\177\337\337\033g\307\014\212"
 114      4F481451 
 114      1CC77FDF 
 114      DF1B67C7 
 114      0C8A
 115 0012 A08B87BD 		.ascii	"\240\213\207\275\305\336\212\210.Q\247\240\350&x\025"
 115      C5DE8A88 
 115      2E51A7A0 
 115      E8267815 
 116 0022 24B621EA 		.ascii	"$\266!\352\260\013b\227`\361M;\204D\204l\005\222\346"
 116      B00B6297 
 116      60F14D3B 
 116      8444846C 
 116      0592E6
 117 0035 4DB32CCD 		.ascii	"M\263,\315\264\202\315b\352R\010\031\022\375A\302\016"
 117      B482CD62 
 117      EA520819 
 117      12FD41C2 
 117      0E
 118 0046 B950B7B5 		.ascii	"\271P\267\265\215d\011\331~\277\2310\\\251\201yo\346"
ARM GAS  C:\Users\Bruger\AppData\Local\Temp\ccPhhSKd.s 			page 9


 118      8D6409D9 
 118      7EBF9930 
 118      5CA98179 
 118      6FE6
 119 0058 F7BEBFEF 		.ascii	"\367\276\277\357\373\274\3573\264\3659 \357i&\312\310"
 119      FBBCEF33 
 119      B4F53920 
 119      EF6926CA 
 119      C8
 120 0069 8C16020F 		.ascii	"\214\026\002\017,\020\005\036\263)\247\311ns\336\357"
 120      2C10051E 
 120      B329A7C9 
 120      6E73DEEF 
 121 0079 23BBDDC0 		.ascii	"#\273\335\300I\312\016\240\037\004\352c\343\240\017"
 121      49CA0EA0 
 121      1F04EA63 
 121      E3A00F
 122 0088 DF789531 		.ascii	"\337x\2251\020M\014\266eF\255\265\325\357\257\203\216"
 122      104D0CB6 
 122      6546ADB5 
 122      D5EFAF83 
 122      8E
 123 0099 087531AC 		.ascii	"\010u1\254q\262\001n!C\"Z\015\327?\264\271\241\210v"
 123      71B2016E 
 123      2143225A 
 123      0DD73FB4 
 123      B9A18876 
 124 00ad 266B1887 		.ascii	"&k\030\207\013\231\247vE\266\321\230\231{^r[\015\325"
 124      0B99A776 
 124      45B6D198 
 124      997B5E72 
 124      5B0DD5
 125 00c0 19291D3C 		.ascii	"\031)\035<\035\210VD\251;V\230u6K\270P\232~zX{\327\330"
 125      1D885644 
 125      A93B5698 
 125      75364BB8 
 125      509A7E7A 
 126 00d8 88EDC8DB 		.ascii	"\210\355\310\333+\223\\\370e\373\255Wg^Wc\251~^y\263"
 126      2B935CF8 
 126      65FBAD57 
 126      675E5763 
 126      A97E5E79 
 127 00ed E87D65A9 		.ascii	"\350}e\251\304\277\343A8\214\233\030\012\254\252\014"
 127      C4BFE341 
 127      388C9B18 
 127      0AACAA0C 
 128 00fd 6EA3803B 		.ascii	"n\243\200;h\027\206\011)\323;\204\037\213\351\277\236"
 128      68178609 
 128      29D33B84 
 128      1F8BE9BF 
 128      9E
 129 010e C1D893CB 		.ascii	"\301\330\223\313)\355\026\000\334U\035)\201\241r\332"
 129      29ED1600 
 129      DC551D29 
 129      81A172DA 
 130 011e 7C4231AA 		.ascii	"|B1\252\373\252\245\346\335\235Z\334p\017\005ao!A\255"
 130      FBAAA5E6 
ARM GAS  C:\Users\Bruger\AppData\Local\Temp\ccPhhSKd.s 			page 10


 130      DD9D5ADC 
 130      700F0561 
 130      6F2141AD 
 131 0132 569F1D51 		.ascii	"V\237\035Q\351?9\233\301&7\300\246\244,\202\305\033"
 131      E93F399B 
 131      C12637C0 
 131      A6A42C82 
 131      C51B
 132 0144 63C51D8A 		.ascii	"c\305\035\212b@\270\037\243T\330\371\023\305\213\237"
 132      6240B81F 
 132      A354D8F9 
 132      13C58B9F 
 133 0154 97E60F6D 		.ascii	"\227\346\017m\2126j\354\216s\255\311\301\2332\307\264"
 133      8A366AEC 
 133      8E73ADC9 
 133      C19B32C7 
 133      B4
 134 0165 20131EE8 		.ascii	" \023\036\350!S\262\326\037~\231\207:\273k\257\002\353"
 134      2153B2D6 
 134      1F7E9987 
 134      3ABB6BAF 
 134      02EB
 135 0177 6C4ACD8D 		.ascii	"lJ\315\215\341*/\227g\035\205\273\026\010\\\0123h\307"
 135      E12A2F97 
 135      671D85BB 
 135      16085C0A 
 135      3368C7
 136 018a 6C0CF750 		.ascii	"l\014\367PS[B\361\307\305\205\362\371\304\322K\\\257"
 136      535B42F1 
 136      C7C585F2 
 136      F9C4D24B 
 136      5CAF
 137 019c CF0D975A 		.ascii	"\317\015\227Z\343\350\254\000?\022\265`\226\240\232"
 137      E3E8AC00 
 137      3F12B560 
 137      96A09A
 138 01ab FF3A3E16 		.ascii	"\377:>\026G1\241e\004\321\325cq\274\244\267\017=\252"
 138      4731A165 
 138      04D1D563 
 138      71BCA4B7 
 138      0F3DAA
 139 01be 84B5E7B8 		.ascii	"\204\265\347\270\237\363{N\366\372\247\272;\363\347"
 139      9FF37B4E 
 139      F6FAA7BA 
 139      3BF3E7
 140 01cd 7AB27E57 		.ascii	"z\262~WGg\376\350\301\256\023\271\263~\266\367L>\327"
 140      4767FEE8 
 140      C1AE13B9 
 140      B37EB6F7 
 140      4C3ED7
 141 01e0 BD7F6F96 		.ascii	"\275\177o\226~\003l\242\351\216"
 141      7E036CA2 
 141      E98E
 142              		.text
 143              		.section	.gnu.lto_Injection_1_Enable.71da27ae,"",%progbits
 144 0000 789C6366 		.ascii	"x\234cf\300\004R@\254\312\310\300\240\016\244\031\231"
 144      C0045240 
ARM GAS  C:\Users\Bruger\AppData\Local\Temp\ccPhhSKd.s 			page 11


 144      ACCAC8C0 
 144      A00EA419 
 144      99
 145 0011 19189926 		.ascii	"\031\030\231&\234c`h\344`bd\0041\030\030\031\352\231"
 145      9C636068 
 145      E4606264 
 145      04311818 
 145      19EA99
 146 0024 18EB195F 		.ascii	"\030\353\031_2}db\234p`\365\014n\365\245\015\015\015"
 146      327D6462 
 146      9C7060F5 
 146      0C6EF5A5 
 146      0D0D0D
 147 0037 1F3E7D94 		.ascii	"\037>}\224h\225\370\311\304\300\360\231\011b\014\343"
 147      6895F8C9 
 147      C4C0F099 
 147      09620CE3 
 148 0047 72467506 		.ascii	"rFu\006\240\232\217-\177\257s\263\265\000\325\010@\344"
 148      A09A8F2D 
 148      7FAF73B3 
 148      B500D508 
 148      40E4
 149 0059 185730B2 		.ascii	"\030W0\262\001\215gX/t\240\341\377\377\315g&\277\320"
 149      018D6758 
 149      2F74A0E1 
 149      FFFFCD67 
 149      26BFD0
 150 006c 62666562 		.ascii	"bfeb\370\311\004\264\014H00<\001\252\002Y\365\224\211"
 150      F8C904B4 
 150      0C483030 
 150      3C01AA02 
 150      59F59489 
 151 0080 094433DF 		.ascii	"\011D3\337b<\364\255\353\334\256*\220\306\357L {;Z\036"
 151      623CF4AD 
 151      EBDCAE2A 
 151      90C6EF4C 
 151      207B3B5A 
 152 0095 9F627CC1 		.ascii	"\237b|\301\364\223\211\351\373\211\306\006\026\2205"
 152      F49389E9 
 152      FB89C606 
 152      169035
 153 00a4 F79F9CBF 		.ascii	"\367\237\234\277\310\001\026b\000q\227\375?\260\237"
 153      C8011662 
 153      007197FD 
 153      3FB09F
 154 00b3 732EE3EC 		.ascii	"s.\343\354\306\026\306\237L\314\214+\031\245\030W1\002"
 154      C616C69F 
 154      4CCC8C2B 
 154      19A51857 
 154      3102
 155 00c5 7DC6B89A 		.ascii	"}\306\270\232q.#\303-\306\346/l\020\343\230!&N\3353"
 155      712E23C3 
 155      2DC6E62F 
 155      6C10E398 
 155      21264EDD 
 156 00da 67122748 		.ascii	"g\022'H;c\003#\003\343\032\240R\240\255\223\030Aj\360"
 156      3B630323 
ARM GAS  C:\Users\Bruger\AppData\Local\Temp\ccPhhSKd.s 			page 12


 156      03E31AA0 
 156      52A0AD93 
 156      18416AF0 
 157 00ee 99B61668 		.ascii	"\231\266\026h\032\320\014\206{\214\215\007\256\373\201"
 157      1AD00C86 
 157      7B8C8D07 
 157      AEFB81
 158 00fd 5483BCFE 		.ascii	"T\203\274\376\004\350\013\240\303\201.QuO\315K-J,IM"
 158      04E80BA0 
 158      C3812E51 
 158      754FCD4B 
 158      2D4A2C49 
 159 0112 890FCE2F 		.ascii	"\211\017\316/-JN\215\011\010\316w6\215\361\314\313J"
 159      2D4A4E8D 
 159      0908CE77 
 159      368DF1CC 
 159      CB4A
 160 0124 4D2EC9CC 		.ascii	"M.\311\314\317\2137\324Kf\000\000\241<t\254"
 160      CF8B37D4 
 160      4B660000 
 160      A13C74AC 
 161              		.text
 162              		.section	.gnu.lto_Injection_1_Stop.71da27ae,"",%progbits
 163 0000 789C6366 		.ascii	"x\234cf\300\004R@\254\302\310\300\240\016\244\031\231"
 163      C0045240 
 163      ACC2C8C0 
 163      A00EA419 
 163      99
 164 0011 19189926 		.ascii	"\031\030\231&\234c`h\344`bd\0041\030\030\031\352\231"
 164      9C636068 
 164      E4606264 
 164      04311818 
 164      19EA99
 165 0024 18EB195F 		.ascii	"\030\353\031_2}db\234p`\365\014n\365\245\015\015\015"
 165      327D6462 
 165      9C7060F5 
 165      0C6EF5A5 
 165      0D0D0D
 166 0037 1F26FD96 		.ascii	"\037&\375\226h\225\370\311\304\300\360\231\011b\014"
 166      6895F8C9 
 166      C4C0F099 
 166      09620C
 167 0046 E3724675 		.ascii	"\343rFu\006\240\232\217-\177\257s\263\265\000\325\010"
 167      06A09A8F 
 167      2D7FAF73 
 167      B3B500D5 
 167      08
 168 0057 40E41857 		.ascii	"@\344\030W0\262\001\215gX/t\240\341\377\377\315o'wX"
 168      30B2018D 
 168      67582F74 
 168      A0E1FFFF 
 168      CD6F2777 
 169 006c 33B33231 		.ascii	"3\26321\374d\002Z\006$\030\030\236\000U\201\254z\312"
 169      FC64025A 
 169      06241818 
 169      9E005581 
 169      AC7ACA
ARM GAS  C:\Users\Bruger\AppData\Local\Temp\ccPhhSKd.s 			page 13


 170 007f C404A299 		.ascii	"\304\004\242\231o1\036\372\326\365lo\025H\343w&\220"
 170      6F311EFA 
 170      D6F56C6F 
 170      1548E377 
 170      2690
 171 0091 BD1D2D8F 		.ascii	"\275\035-\217O1\276`\372\311\304\364\375Dc\003\013\310"
 171      4F31BE60 
 171      FAC9C4F4 
 171      FD446303 
 171      0BC8
 172 00a3 9AFB4FCE 		.ascii	"\232\373O\316_\344\000\0131\200\270\313\376\037\330"
 172      5FE4000B 
 172      3180B8CB 
 172      FE1FD8
 173 00b2 CF399771 		.ascii	"\3179\227qvc\013\343O&f\306\225\214R\214\253\030\201"
 173      76630BE3 
 173      4F2666C6 
 173      958C528C 
 173      AB1881
 174 00c5 3E635CCD 		.ascii	">c\\\3158\227\221\341\026c\363\0176\210q\314\020\023"
 174      389791E1 
 174      1663F30F 
 174      368871CC 
 174      1013
 175 00d7 E7BFFCF7 		.ascii	"\347\277\374\367\202\005\244\235\271\236\201q\015P%"
 175      8205A49D 
 175      B99E8171 
 175      0D5025
 176 00e6 D0D2498C 		.ascii	"\320\322I\214 %\370\014[\0134\014h\004\303=\306\306"
 176      2025F80C 
 176      5B0B340C 
 176      6804C33D 
 176      C6C6
 177 00f8 0337FD41 		.ascii	"\0037\375A\252A>\177\002\364\004\320\335@\207\250\272"
 177      AA413E7F 
 177      02F404D0 
 177      DD4087A8 
 177      BA
 178 0109 A7E6A516 		.ascii	"\247\346\245\026%\226\244\246\304\007\347\227\026%\247"
 178      2596A4A6 
 178      C407E797 
 178      1625A7
 179 0118 C60404E7 		.ascii	"\306\004\004\347;\233\306x\346e\245&\227d\346\347\305"
 179      3B9BC678 
 179      E665A526 
 179      9764E6E7 
 179      C5
 180 0129 1BEA2533 		.ascii	"\033\352%3\000\000?\203u3"
 180      00003F83 
 180      7533
 181              		.text
 182              		.section	.gnu.lto_Injection_1_WriteCounter.71da27ae,"",%progbits
 183 0000 789C654F 		.ascii	"x\234eO=HBQ\030\375\316}\246\202A\322\350.\026A\321"
 183      3D484251 
 183      18FDCE7D 
 183      A68241D2 
 183      E82E1641 
ARM GAS  C:\Users\Bruger\AppData\Local\Temp\ccPhhSKd.s 			page 14


 184 0015 D01E3444 		.ascii	"\320\0364D[\340\032X\274\336`\203\017\3449{_9E\203A"
 184      5BE01A58 
 184      BCDE6083 
 184      0FE4397B 
 184      5F394583 
 185 002a 3CA2B025 		.ascii	"<\242\260%\242\037+\253%Z\342\321T\004VC>pH\010\005"
 185      A21F2BAB 
 185      255AE2D1 
 185      54045643 
 185      3E704808 
 186 003f DB120373 		.ascii	"\333\022\003s\010\373n\216]\270|\3379\234{\316\271\032"
 186      08FB6E8E 
 186      5DB87CDF 
 186      399C7BCE 
 186      B91A
 187 0051 FD3F11BE 		.ascii	"\375?\021\276\243 \232\340\011\215 \362e\";(\000\265"
 187      A3209AE0 
 187      098D20F2 
 187      65223B28 
 187      00B5
 188 0063 10282B90 		.ascii	"\020(+\220\305\207h\011\344\335\342v(v \245\374\274"
 188      C5876809 
 188      E4DDE276 
 188      287620A5 
 188      FCBC
 189 0075 7A4DCAAD 		.ascii	"zM\312\255\305\256 j\213\276\017\016\021cM\371a\315"
 189      C5AE206A 
 189      8BBE0F0E 
 189      11634DF9 
 189      61CD
 190 0087 D24640BC 		.ascii	"\322F@\274>\276\177\267\007\233\242+\020Vp\307k|i\012"
 190      3EBE7FB7 
 190      079BA22B 
 190      105670C7 
 190      6B7C690A 
 191 009b 0AA1E08D 		.ascii	"\012\241\340\215w\2737\024\335\227r\325\255^\310i\346"
 191      77BB3714 
 191      DD9772D5 
 191      AD5EC869 
 191      E6
 192 00ac 351C4163 		.ascii	"5\034Ac;\034#\202\023D\210)B\021Q%o\345~\274\220?\307"
 192      3B1C2382 
 192      13448829 
 192      42115125 
 192      6FE57EBC 
 193 00c3 D9E17E24 		.ascii	"\331\341~$N\341\347\332T\032ve\257\327\256T\232c~\037"
 193      4EE1E7DA 
 193      541A7665 
 193      AFD7AE54 
 193      9A637E1F 
 194 00d7 B7567AAA 		.ascii	"\267Vz\252\263B\325op\026O\255\212;\347\322s4\365\210"
 194      B342D56F 
 194      70164FAD 
 194      8A3BE7D2 
 194      7334F588 
 195 00eb CD36AFCB 		.ascii	"\3156\257\313N@U\361m<\333\322\247\374k\365\247\227"
 195      4E4055F1 
ARM GAS  C:\Users\Bruger\AppData\Local\Temp\ccPhhSKd.s 			page 15


 195      6D3CDBD2 
 195      A7FC6BF5 
 195      A797
 196 00fd E01F450A 		.ascii	"\340\037E\012:\353\367\235`\001\273v\016]1\2003nt\316"
 196      3AEBF79D 
 196      6001BB76 
 196      0E5D3180 
 196      336E74CE 
 197 0111 8D082514 		.ascii	"\215\010%\024\320a\3277\330n\255*\224\241\372}]@\005"
 197      D061D737 
 197      D86EAD2A 
 197      94A1FA7D 
 197      5D4005
 198 0124 716C74D6 		.ascii	"qlt\326H\031\351%\313XN\304\315LZ7\026\346\343\346\314"
 198      4819E925 
 198      CB584EC4 
 198      CD4C5A37 
 198      16E6E3E6 
 199 0139 D4C25C6A 		.ascii	"\324\302\\j\305\320\255\244\231JL\216\353\024\320\315"
 199      C5D0ADA4 
 199      994A4C8E 
 199      EB14D0CD 
 200 0149 4CCA32D2 		.ascii	"L\3122\322\277y\034}\026"
 200      BF791C7D 
 200      16
 201              		.text
 202              		.section	.gnu.lto_Injection_1_ReadCounter.71da27ae,"",%progbits
 203 0000 789C658F 		.ascii	"x\234e\217=HBQ\024\307\3179WoF\015\322\350\036\322\022"
 203      3D484251 
 203      14C7CF39 
 203      576F460D 
 203      D2E81ED2 
 204 0015 54D4D0DA 		.ascii	"T\324\320\332\020M\005\255\202\204\275\241\006%\261"
 204      104D05AD 
 204      8284BDA1 
 204      0625B1
 205 0024 D9FBE24D 		.ascii	"\331\373\342M\005\021\021\021\205\324\022}Y\006\215"
 205      05111111 
 205      85D4127D 
 205      59068D
 206 0033 2D528B50 		.ascii	"-R\213P\030.\331\007\025\210BA\226bXo\020\273\347\325"
 206      182ED907 
 206      15884241 
 206      9662586F 
 206      10BBE7D5 
 207 0047 54170EE7 		.ascii	"T\027\016\347\376\357=\347w\376G\300\377\343\3231\212"
 207      FEEF3DE7 
 207      77FE47C0 
 207      FFE3D331 
 207      8A
 208 0058 007E9D51 		.ascii	"\000~\235Q\000\322R\026\300\364\020\"_\000!N\030\307"
 208      00D25216 
 208      C0F41022 
 208      5F00214E 
 208      18C7
 209 006a 17AA125E 		.ascii	"\027\252\022^\024\276j\355\317d\023xA\313\365|\351C"
 209      14BE6AED 
ARM GAS  C:\Users\Bruger\AppData\Local\Temp\ccPhhSKd.s 			page 16


 209      CF641378 
 209      41CBF57C 
 209      E943
 210 007c B0446279 		.ascii	"\260DbyZ\313\026\244\177[\251\271\312\362\375\314\332"
 210      5ACB16A4 
 210      7F5BA9B9 
 210      CAF2FDCC 
 210      DA
 211 008d CA16DA44 		.ascii	"\312\026\332DP#\300\035\364\341.\362 \334C?\327V\255"
 211      5023C01D 
 211      F4E12EF2 
 211      20DC433F 
 211      D756AD
 212 00a0 46BE4D5A 		.ascii	"F\276MZJ)/W\350\217}\224\332\004\244:\322\252\331<)"
 212      4A292F57 
 212      E88F7D94 
 212      DA04A43A 
 212      D2AAD93C 
 213 00b5 5F6706A5 		.ascii	"_g\006\245\213\300&!\2001P\324\301\206JZ\350,\356\360"
 213      8BC02621 
 213      803150D4 
 213      C1864A5A 
 213      E82CEEF0 
 214 00c9 AC3E5F2F 		.ascii	"\254>_/\017p\343'\261\273\372\302\215\345f;\256\325"
 214      0F70E327 
 214      B1BBFAC2 
 214      8DE5663B 
 214      AED5
 215 00db 8CA95C3C 		.ascii	"\214\251\\<\346\251x\225\3638O\300\262\324\270=w'p\303"
 215      E6A97895 
 215      F3384FC0 
 215      B2D4B83D 
 215      772770C3 
 216 00ef B4B43537 		.ascii	"\264\26457\036h[I\266\205\207\230@p\210\331\267\336"
 216      1E685B49 
 216      B6858798 
 216      407088D9 
 216      B7DE
 217 0101 1FA2D0F5 		.ascii	"\037\242\320\365\227\357\233\213\222\333e2\367\227("
 217      97EF9B8B 
 217      92DB6532 
 217      F79728
 218 0110 1DE26BA2 		.ascii	"\035\342k\242\362\320\352\020\315t\227M-x\244\231)\207"
 218      F2D0EA10 
 218      CD74974D 
 218      2D78A499 
 218      2987
 219 0122 79CCCC47 		.ascii	"y\314\314G4U\337/\020x\011d\363z\225\316a#lD'b\306d"
 219      3455DF2F 
 219      10780964 
 219      F37A95CE 
 219      61236C44 
 220 013a 703C321B 		.ascii	"p<2\033\015\031\201\261\361\310P\177`$<m\204bS\221p"
 220      0D1981B1 
 220      F1C8507F 
 220      60243C6D 
 220      84625391 
ARM GAS  C:\Users\Bruger\AppData\Local\Temp\ccPhhSKd.s 			page 17


 221 014f B0A73B04 		.ascii	"\260\247;\004\337v8\214\323"
 221      DF76388C 
 221      D3
 222              		.text
 223              		.section	.gnu.lto_Injection_1_ClearFIFO.71da27ae,"",%progbits
 224 0000 789C6591 		.ascii	"x\234e\221\277K#A\024\307\337{\263;\011\032\360\020"
 224      BF4B2341 
 224      14C7DF7B 
 224      B33B091A 
 224      F010
 225 0012 2BC15252 		.ascii	"+\301RR)X\334_ r\\'\330\012*\271-\264H@\264H\345,Y,"
 225      2958DC5F 
 225      20725C27 
 225      D80A2AB9 
 225      2DB44840 
 226 002c C43B2C02 		.ascii	"\304;,\002\012\242\"w\376\316\0315\202\004\233\030\213"
 226      0AA22277 
 226      FECE1935 
 226      82049B18 
 226      8B
 227 003d 08114541 		.ascii	"\010\021EA\016SD\220\210Z\034^\310q\232\342\3207\273"
 227      0E534490 
 227      885A1C5E 
 227      C8719AE2 
 227      D037BB
 228 0050 22A80B3B 		.ascii	"\"\250\013;3\373\346\303\367}fV\300\373\247\203\337"
 228      33FBE6C3 
 228      F77D6656 
 228      C0FBA783 
 228      DF
 229 0061 3B0408F2 		.ascii	";\004\010\362\214\022\220&\216\000l?\241\341-\204\267"
 229      8C129026 
 229      8E006C3F 
 229      A1E12D84 
 229      B7
 230 0072 D8F31B24 		.ascii	"\330\363\033$\306s\000\252\306t|\240\002&\242\256\003"
 230      C67300AA 
 230      C6747CA0 
 230      0226A2AE 
 230      03
 231 0083 C20809C3 		.ascii	"\302\010\011\303\304\0212\274\300[*\023Nd\326\246j\203"
 231      C41132BC 
 231      C05B2A13 
 231      4E64D6A6 
 231      6A83
 232 0095 0B4AA93F 		.ascii	"\013J\251?\247\345\250\212\367V\011\240B\036\201K\030"
 232      A7E5A88A 
 232      F75609A0 
 232      421E814B 
 232      18
 233 00a6 0486CACE 		.ascii	"\004\206\312\316\377_\265\322a\350\203\267\207\313("
 233      FF5FB5D2 
 233      61E883B7 
 233      87CB28
 234 00b5 590592F5 		.ascii	"Y\005\222\365\031\365\370\230\312M\306Z\242R@\225ex"
 234      19F5F898 
 234      CA4DC65A 
ARM GAS  C:\Users\Bruger\AppData\Local\Temp\ccPhhSKd.s 			page 18


 234      A2524095 
 234      6578
 235 00c7 20930701 		.ascii	" \223\007\001Pb\224\025JD<\211+.\261\227(`\366\337X"
 235      50629415 
 235      4A443C89 
 235      2B2EB197 
 235      2860F6DF 
 236 00dc 362F5EE5 		.ascii	"6/^\345fR\305\0067\265B\370\266#\256\360q\001WQ\336"
 236      6652C506 
 236      37B542F8 
 236      B623AEF0 
 236      71015751 
 237 00f1 93C17B87 		.ascii	"\223\301{\207ws\337\344\015U\311H\234\330\312\320\370"
 237      7773DFE4 
 237      0D55C948 
 237      9CD8CAD0 
 237      F8
 238 0102 45E9F8C4 		.ascii	"E\351\370\304\357\226@\177\026\177\024\276\03238m\307"
 238      EF96407F 
 238      167F14BE 
 238      1A33386D 
 238      C7
 239 0113 6D7F954C 		.ascii	"m\177\225L\\\303FL`#\207\374\304\031\355}\305 _\212"
 239      5CC3464C 
 239      602387FC 
 239      C419ED7D 
 239      C5205F8A 
 240 0127 E77294FE 		.ascii	"\347r\224\376._\313\314\3156=\313\320;\231uW&\251e\364"
 240      2E5FCBCC 
 240      CD363DCB 
 240      D03B9975 
 240      5726A965 
 241 013c 11F6D3F3 		.ascii	"\021\366\323\363\207u\272\263\274>x+#]\031\365;\021"
 241      8775BAB3 
 241      BC3E782B 
 241      235D19F5 
 241      3B11
 242 014e AF7B91F1 		.ascii	"\257{\221\361\341\006\313l\2722[Z\246\200\261\207\321"
 242      E106CB6C 
 242      BA325B5A 
 242      A680B187 
 242      D1
 243 015f BFA4DBDD 		.ascii	"\277\244\333\335\223\351\205\346/\037*\001\235 \270"
 243      93E985E6 
 243      2F1F2A01 
 243      9D20B8
 244 016e 618AD933 		.ascii	"a\212\3313t\316c\253\370\0141a/\356\216\373\\\202s\266"
 244      74CE63AB 
 244      F80C3161 
 244      2FEE8EFB 
 244      5C8273B6 
 245 0182 759A7B2A 		.ascii	"u\232{*S_t\021\355\314N1\240a]-\361\215:>\376\025\315"
 245      535F7411 
 245      EDCC4E31 
 245      A0615D2D 
 245      F18D3A3E 
 246 0199 9FACB035 		.ascii	"\237\254\2605\3307d}\351\351\212\014\017\206\254\356"
ARM GAS  C:\Users\Bruger\AppData\Local\Temp\ccPhhSKd.s 			page 19


 246      D837647D 
 246      E9E98A0C 
 246      0F86ACEE 
 247 01a9 CEAE48FB 		.ascii	"\316\256H\373\307\356\317\341\001+4\324\037\011\367"
 247      C7EECFE1 
 247      012B34D4 
 247      1F09F7
 248 01b8 B4B586E0 		.ascii	"\264\265\206\340\011`H\305,"
 248      096048C5 
 248      2C
 249              		.text
 250              		.section	.gnu.lto_Injection_1_WritePeriod.71da27ae,"",%progbits
 251 0000 789C654F 		.ascii	"x\234eO1HBQ\024\275\347=S\301\002i*w\261Ih\2509h\210"
 251      31484251 
 251      14BDE73D 
 251      53C10269 
 251      2A77B149 
 252 0019 B6C05590 		.ascii	"\266\300U\220\320?\330\340\017\261\331\367\303\232\032"
 252      D03FD8E0 
 252      0FB1D9F7 
 252      C39A1A
 253 0028 9C320A21 		.ascii	"\2342\012!\212\310\2622phq\370\270F\205C\010\005\005"
 253      8AC8B232 
 253      706871F8 
 253      B8468543 
 253      080505
 254 003b A1544E7D 		.ascii	"\241TN},\352\017a\367\325\330\203\307\275\347p\3369"
 254      2CEA0F61 
 254      F7D5D883 
 254      C7BDE770 
 254      DE39
 255 004d E749FA7F 		.ascii	"\347I\372\177B|'@\024\345\011I\020\305k\"\313/\000\275"
 255      427C2740 
 255      14E50949 
 255      10C56B22 
 255      CB2F00BD 
 256 0061 10282F90 		.ascii	"\020(/\220\307\253p\004\212vu+\0209PJ\275\355\271\343"
 256      C7AB7004 
 256      8A76752B 
 256      1039504A 
 256      BDEDB9E3 
 257 0075 6B63AE20 		.ascii	"kc\256 \352\213?\033\034\"\302\222A\335i\371$\373\361"
 257      EA8B3F1B 
 257      1C22C292 
 257      41DD69F9 
 257      24FBF1
 258 0088 7EF9F4D5 		.ascii	"~\371\364\325\037~\021\256@P\303\355v\367]j(\204\206"
 258      1F7E11AE 
 258      4050C3ED 
 258      76F75D6A 
 258      288486
 259 009b B7BDFB5D 		.ascii	"\267\275\373]\177x_\251U\373\352\\\3150/Q\201d?\034"
 259      7F785FA9 
 259      55FBEA5C 
 259      CD302F51 
 259      81643F1C 
 260 00af 21846384 		.ascii	"!\204c\204\210)B\025a-w\012\337\355\200\267\300\331"
ARM GAS  C:\Users\Bruger\AppData\Local\Temp\ccPhhSKd.s 			page 20


 260      88294215 
 260      612D770A 
 260      DFED80B7 
 260      C0D9
 261 00c1 C1BF4C9C 		.ascii	"\301\277L\234\300\313\265\2516j\253\301\240\337-U\246"
 261      C0CBB5A9 
 261      366AABC1 
 261      A0DF2D55 
 261      A6
 262 00d2 7D1E6EAD 		.ascii	"}\036n\255\365\324a\205\256\337\345,\236\362\016\315"
 262      F5D46185 
 262      AEDFE52C 
 262      9EF20ECD 
 263 00e2 4DE7B924 		.ascii	"M\347\271$\365#6kX\215\217\200\256\342\331hY\312\243"
 263      F523366B 
 263      588D8F80 
 263      AEE2D968 
 263      59CAA3
 264 00f5 FD1F3B37 		.ascii	"\375\037;7-\377/E\032^\2547{#e\354X\005\270b\010\247"
 264      2DFF2F45 
 264      1A5EAC37 
 264      7B2365EC 
 264      5805B862 
 265 010b DCE88C1B 		.ascii	"\334\350\214\033\021j(\343\223]\037`\331\365\204\366"
 265      116A28E3 
 265      935D1F60 
 265      D9F584F6 
 266 011b D3BFEF08 		.ascii	"\323\277\357\010\350\034N\015\317\031\031#\273\2303"
 266      E81C4E0D 
 266      CF191923 
 266      BB9833
 267 012a 528998B9 		.ascii	"R\211\230\271\222M\032\361\205\2309;\025\237\317,\031"
 267      924D1AF1 
 267      8598393B 
 267      159FCF2C 
 267      19
 268 013b C95CDACC 		.ascii	"\311\\\332\314$&\243I\362.\033\331\264\231\372\001u"
 268      2426A349 
 268      F22E1BD9 
 268      B499FA01 
 268      75
 269 014c 7E7C44   		.ascii	"~|D"
 270              		.text
 271              		.section	.gnu.lto_Injection_1_WriteCompare.71da27ae,"",%progbits
 272 0000 789C654F 		.ascii	"x\234eO\277K\202Q\024\275\347}\246\222\011\322\350."
 272      BF4B8251 
 272      14BDE77D 
 272      A69209D2 
 272      E82E
 273 0012 3A44E1D0 		.ascii	":D\341\320\322\0244D[\340*\230\3307\024\244!6\373\276"
 273      D2143444 
 273      5BE02A98 
 273      D83714A4 
 273      2136FBBE 
 274 0026 9006270B 		.ascii	"\220\006'\013\011)\234B\372a\245\325?\360\341\022\321"
 274      09299C42 
 274      FA61A5D5 
ARM GAS  C:\Users\Bruger\AppData\Local\Temp\ccPhhSKd.s 			page 21


 274      3FF0E112 
 274      D1
 275 0037 2F6B4812 		.ascii	"/kH\022*\020\205\242%1(\207\260\373r\354\301\343\336"
 275      2A1085A2 
 275      25312887 
 275      B0FB72EC 
 275      C1E3DE
 276 004a 73B8F79C 		.ascii	"s\270\367\234s5\372\377\334\374G@4\306\025\032Adn\210"
 276      7335FAFF 
 276      DCFC4740 
 276      34C6151A 
 276      41646E88 
 277 005e 0CBB0054 		.ascii	"\014\273\000TC\240\244@\022o\242-\2201\2139\207\267"
 277      43A0A440 
 277      126FA22D 
 277      90318B39 
 277      87B7
 278 0070 20A5FCA8 		.ascii	" \245\374\250\254\2579ev\256+\210:\242/\204]xy\310\334"
 278      ACAF3965 
 278      76AE2B88 
 278      3AA22F84 
 278      5D7879C8 
 279 0085 B8A83A35 		.ascii	"\270\250:5\037\210\373\313\306wg\350Ut\005\\\012n\325"
 279      1F88FBCB 
 279      C67767E8 
 279      5574055C 
 279      0A6ED5
 280 0098 5A9F9A82 		.ascii	"Z\237\232\202B(xZ\270\177\037\364\354H\271j\326\313"
 280      4228785A 
 280      B87F1FF4 
 280      EC48B96A 
 280      D6CB
 281 00aa 7292790D 		.ascii	"r\222y\015{\320X\017\373p\343\000nb\212P\204G\215\267"
 281      7BD0580F 
 281      FB70E300 
 281      6E628A50 
 281      84478DB7 
 282 00be 533F3587 		.ascii	"S?5\2075\305\356\256\276'\016a\345\340T\0326e\257wv"
 282      35C5EEAE 
 282      BE270E61 
 282      E5E0541A 
 282      3665AF77 
 283 00d3 9E4BFBD3 		.ascii	"\236K\373\323\232\205\203\253\005j\362\210\272\240\305"
 283      9A8583AB 
 283      056AF288 
 283      BAA0C5
 284 00e2 665CB53A 		.ascii	"f\\\265:*\233'\327\271\011\265\305j\233\345\254iSY,"
 284      2A9B27D7 
 284      B909B5C5 
 284      6A9BE5AC 
 284      6953592C 
 285 00f6 5755435A 		.ascii	"WUCZ\224\301K\363\366\316\376G\221\202\017O\371\236"
 285      94C14BF3 
 285      F6CEFE47 
 285      91820F4F 
 285      F99E
 286 0108 2D8F6D23 		.ascii	"-\217m#\205\256\030\300\021G:\346H\204\022\362\370b"
ARM GAS  C:\Users\Bruger\AppData\Local\Temp\ccPhhSKd.s 			page 22


 286      85AE18C0 
 286      11473AE6 
 286      488412F2 
 286      F862
 287 011a D56718E6 		.ascii	"\325g\030\346c\303\247\004\325\375M\001e\304\266\236"
 287      63C3A704 
 287      D5FD4D01 
 287      65C4B69E 
 288 012a 693DAAC7 		.ascii	"i=\252\307\303\011}>\024\210\255\304#zp6\020\233\032"
 288      C3097D3E 
 288      1488ADC4 
 288      237A7036 
 288      109B1A
 289 013d 0FCE4417 		.ascii	"\017\316D\027\365Hb!\026\015\371G#d\213\304\226\226"
 289      F5486221 
 289      160DF947 
 289      23648BC4 
 289      9696
 290 014f C371FD17 		.ascii	"\303q\375\027\231\371~\031"
 290      99F97E19 
 291              		.text
 292              		.section	.gnu.lto_Injection_1_SetInterruptMode.71da27ae,"",%progbits
 293 0000 789C6366 		.ascii	"x\234cf\300\004R@\314\315\310\300`\012\244\031\231\031"
 293      C0045240 
 293      CCCDC8C0 
 293      600AA419 
 293      9919
 294 0012 1899269C 		.ascii	"\030\231&\234c`h\344`bd\0041\030\030\031\352\231\030"
 294      636068E4 
 294      60626404 
 294      31181819 
 294      EA9918
 295 0025 EB195F32 		.ascii	"\353\031_2}db\234p`\365\014n\365\245\015\015\015\037"
 295      7D64629C 
 295      7060F50C 
 295      6EF5A50D 
 295      0D0D1F
 296 0038 0EDD6EE3 		.ascii	"\016\335n\343m\230\222\360\223\211\201\3413\023\304"
 296      6D9892F0 
 296      938981E1 
 296      3313C4
 297 0047 20C6E58C 		.ascii	" \306\345\214\352@E\375\017\376\356`c\326`d\000\262"
 297      EA4045FD 
 297      0FFEEE60 
 297      63D66064 
 297      00B2
 298 0059 4F7DFAF6 		.ascii	"O}\372\366\216IuqCC\323\201\273\353\032\034\030\177"
 298      8E497571 
 298      4343D381 
 298      BBEB1A1C 
 298      187F
 299 006b 024D5DC1 		.ascii	"\002M]\301\310\014\324\301\250#\305\250)\305\000\024"
 299      C80CD4C1 
 299      A823C5A8 
 299      29C50014 
 300 007b 60605CC9 		.ascii	"``\\\311\250\012R\374\261\345\357un\266\026\240\351"
 300      A80A52FC 
ARM GAS  C:\Users\Bruger\AppData\Local\Temp\ccPhhSKd.s 			page 23


 300      B1E5EF75 
 300      6EB616A0 
 300      E9
 301 008c 02103319 		.ascii	"\002\0203\031W1\262\001\035\306\260^\350@\303\377\377"
 301      5731B201 
 301      1DC6B05E 
 301      E840C3FF 
 301      FF
 302 009d 9FDFCDEA 		.ascii	"\237\337\315\352\262]\313\314\0024\002\244\201\341\011"
 302      B25DCBCC 
 302      023402A4 
 302      81E109
 303 00ac 5009C885 		.ascii	"P\011\310\205O\231\230@4\363-\306C\3236\276\237e\004"
 303      4F999840 
 303      34F32DC6 
 303      43D336BE 
 303      9F6504
 304 00bf D205346D 		.ascii	"\322\0054m\333\312%E/\230~21\265\237ll`\001\231\177"
 304      DBCA2545 
 304      2F987E32 
 304      31B59F6C 
 304      6C600199 
 305 00d4 FFC9F98B 		.ascii	"\377\311\371\213\034`!\006\020\267\241\267\377\020\353"
 305      1C602106 
 305      10B7A1B7 
 305      FF10EB
 306 00e3 5CC6D98D 		.ascii	"\\\306\331\215-@g13\256f\224b\\\303\010\014\014\306"
 306      2D406731 
 306      33AE6694 
 306      625CC308 
 306      0C0CC6
 307 00f6 B58C7319 		.ascii	"\265\214s\031\277\003\025\335cl<\260\377\265\006\310"
 307      BF0315DD 
 307      636C3CB0 
 307      FFB506C8 
 308 0106 3C90F79E 		.ascii	"<\220\367\236\000\235\012\264\007\250Y\325=5/\265(\261"
 308      009D0AB4 
 308      07A859D5 
 308      3D352FB5 
 308      28B1
 309 0118 2435253E 		.ascii	"$5%>8\277\264(95& 8\337\3314\3063/+5\271$3?/\336P/\231"
 309      38BFB428 
 309      39352620 
 309      38DFD934 
 309      C6332F2B 
 310 0136 813733AF 		.ascii	"\20173\257$\265\250\250\264\240\3047?%\025\000\313+"
 310      24B5A8A8 
 310      B4A0C437 
 310      3F251500 
 310      CB2B
 311 0148 72F5     		.ascii	"r\365"
 312              		.text
 313              		.section	.gnu.lto_Injection_1_ReadStatusRegister.71da27ae,"",%progbits
 314 0000 789C6366 		.ascii	"x\234cf\300\004R@|\013\210\325\201\230\221\231\201\221"
 314      C0045240 
 314      7C0B88D5 
 314      81989199 
ARM GAS  C:\Users\Bruger\AppData\Local\Temp\ccPhhSKd.s 			page 24


 314      8191
 315 0012 69C23906 		.ascii	"i\3029\006\206F\016&FF\020\203\201\221\241\236\211\261"
 315      86460E26 
 315      46461083 
 315      8191A19E 
 315      89B1
 316 0024 9EF125D3 		.ascii	"\236\361%\323G&\3063;\377]fT_\332\320\320\364\341\323"
 316      4726C633 
 316      3BFF5D66 
 316      545FDAD0 
 316      D0F4E1D3 
 317 0038 C763BCD3 		.ascii	"\307c\274\323\247$\374db`\370\314\304\300\250#\305\250"
 317      A724FC64 
 317      6260F8CC 
 317      C4C0A823 
 317      C5A8
 318 004a 09328871 		.ascii	"\0112\210q9\243:\003P\345\307\226\277\327\271\331Z\032"
 318      39A33A03 
 318      50E5C796 
 318      BFD7B9D9 
 318      5A1A
 319 005c 1A1A0440 		.ascii	"\032\032\004@\362@\211\025\214l\214@z\275\320\201\206"
 319      F2408915 
 319      8C6C8C40 
 319      7ABDD081 
 319      86
 320 006d FFFF379F 		.ascii	"\377\3777\237\231\335\245\271\223\231\231\211\001d\000"
 320      99DDA5B9 
 320      93999989 
 320      016400
 321 007c C3132001 		.ascii	"\303\023 \001\262\354)\023\023\210f\276\305x\350[\327"
 321      B2EC2913 
 321      138866BE 
 321      C578E85B 
 321      D7
 322 008d B99D8BD9 		.ascii	"\271\235\213\331@\272\2763\201\254>\274s\341\031\376"
 322      40BABE33 
 322      81AC3EBC 
 322      73E119FE 
 323 009d 174C3F99 		.ascii	"\027L?\231\030\237\237hl`\001\331q\377\311\371\213\034"
 323      189F9F68 
 323      6C6001D9 
 323      71FFC9F9 
 323      8B1C
 324 00af 60210610 		.ascii	"`!\006\020w\343\245\253\377Y\3462\316nli<\240\371\223"
 324      77E3A5AB 
 324      FF59E632 
 324      CE6E6C69 
 324      3CA0F993 
 325 00c3 89897125 		.ascii	"\211\211q%\243\024\343*F\240\253\030W3\316ed\270\307"
 325      A314E32A 
 325      46A0AB18 
 325      5733CE65 
 325      64B8C7
 326 00d6 D8D8600C 		.ascii	"\330\330`\0145\020l'#\310. S\325=5/\265(\261$5%>8\277"
 326      35106C27 
 326      23C82E20 
ARM GAS  C:\Users\Bruger\AppData\Local\Temp\ccPhhSKd.s 			page 25


 326      53D53D35 
 326      2FB528B1 
 327 00f0 B4283935 		.ascii	"\264(95& 8\337\3314\3063/+5\271$3?/\336P/\231\001\000"
 327      262038DF 
 327      D934C633 
 327      2F2B35B9 
 327      24333F2F 
 328 010a 06C75FAC 		.ascii	"\006\307_\254"
 329              		.text
 330              		.section	.gnu.lto_Injection_1_ReadControlRegister.71da27ae,"",%progbits
 331 0000 789C654F 		.ascii	"x\234eO=HBQ\024>\337}!e\024\321\350*aE\010\015\216\321"
 331      3D484251 
 331      143EDF7D 
 331      216514D1 
 331      E82A6145 
 332 0018 D0106D85 		.ascii	"\320\020m\205\253`ao(B\301t\013\274\317\034\302I\"r"
 332      AB60616F 
 332      2842C174 
 332      0BBCCF1C 
 332      C2492272 
 333 002c 1087062B 		.ascii	"\020\207\006+\373\241\241!\002\241WCHE\021AAD\011)\324"
 333      FBA1A121 
 333      02A15743 
 333      48451141 
 333      41440929 
 334 0041 524994BC 		.ascii	"RI\224\274\241\354\\i\010:p9\037\207\357\357j\364\177"
 334      A1EC5C69 
 334      083A7039 
 334      1F87EFEF 
 334      6AF47F
 335 0054 1CFC3C20 		.ascii	"\034\374< r\363\206F\020\251s\"\243Y\000\012\020(&\020"
 335      72F38646 
 335      10A97322 
 335      A359000A 
 335      10282610 
 336 0068 C3B3A80A 		.ascii	"\303\263\250\012\234\355\177_\301\225\2232\376\266h"
 336      9CED7F5F 
 336      C1959332 
 336      FEB668
 337 0077 1DB7A597 		.ascii	"\035\267\245\227\306-A\364.\010}\016\364(#\254\301E"
 337      C62D41F4 
 337      2E087D0E 
 337      F42823AC 
 337      C145
 338 0089 CCCCDF7D 		.ascii	"\314\314\337}\230\355Z7\024N\037\346\226\355\316\025"
 338      98ED5A37 
 338      144E1FE6 
 338      96EDCE15 
 339 0099 56954EF7 		.ascii	"V\225N\367\346\322\262$S\262^\037\004k\261\016\355\257"
 339      E6D2B224 
 339      53B25E1F 
 339      046BB10E 
 339      EDAF
 340 00ab 5C0D2BAA 		.ascii	"\\\015+\252\211\257\233V[BJ\331\201<\234*\201\2557`"
 340      89AF9B56 
 340      5B424AD9 
 340      813C9C2A 
ARM GAS  C:\Users\Bruger\AppData\Local\Temp\ccPhhSKd.s 			page 26


 340      81AD3760 
 341 00bf E39A5097 		.ascii	"\343\232P\227\235N\223-v+\231\344@A\323\330@\261\250"
 341      9D4E932D 
 341      762B99E4 
 341      4041D3D8 
 341      40B1A8
 342 00d2 CC34D5B9 		.ascii	"\3144\325\271\"\204\332\332-\216>\223/\205y\273\222"
 342      2284DADA 
 342      2D8E3E93 
 342      2F8579BB 
 342      92
 343 00e3 D684FAC1 		.ascii	"\326\204\372\301B\342\361\004O\302\022\250\025\015\331"
 343      42E2F104 
 343      4FC212A8 
 343      150DD9
 344 00f2 A4C21ECA 		.ascii	"\244\302\036\312\027\227\315\215S#{\265n\036\264d\221"
 344      1797CD8D 
 344      53237BB5 
 344      6E1EB464 
 344      91
 345 0103 311286D9 		.ascii	"1\022\206\331k\011\201M8\260\005n\207mdA\327\210\313"
 345      6B09814D 
 345      38B0056E 
 345      876D6441 
 345      D788CB
 346 0116 B14617CE 		.ascii	"\261F\027\316dS\272\207af_\213\370\015!\325\003*\237"
 346      6453BA87 
 346      61665F8B 
 346      F80D21D5 
 346      032A9F
 347 0129 61D7B01E 		.ascii	"a\327\260\036\324\303\023\021}\322\357\015E\303\001"
 347      D4C31311 
 347      7DD2EF0D 
 347      45C301
 348 0138 DD37EA0D 		.ascii	"\3357\352\015\015y|#\301i=\020\231\012\005\375\375\356"
 348      0D797C23 
 348      C1693D10 
 348      990A05FD 
 348      FDEE
 349 014a 00D9C2FA 		.ascii	"\000\331\302\372lt&\362\003\2460\177\305"
 349      6C7426F2 
 349      03A6307F 
 349      C5
 350              		.text
 351              		.section	.gnu.lto_Injection_1_WriteControlRegister.71da27ae,"",%progbits
 352 0000 789C6590 		.ascii	"x\234e\220\275K\003A\020\305\347\355\206\230\020\004"
 352      BD4B0341 
 352      10C5E7ED 
 352      86981004 
 353 0010 B1BCCE22 		.ascii	"\261\274\316\"$\202(\012\366\202\205\330\011i\003Q\316"
 353      2482280A 
 353      F68285D8 
 353      09690351 
 353      CE
 354 0021 2B14B983 		.ascii	"+\024\271\203\020\353\354\311!b\025ED\010\251$\361\343"
 354      10EBECC9 
 354      21621545 
ARM GAS  C:\Users\Bruger\AppData\Local\Temp\ccPhhSKd.s 			page 27


 354      4408A924 
 354      F1E3
 355 0033 FC28F207 		.ascii	"\374(\362\007x\210H\260P\264\021,\2640\202\351\214\026"
 355      788848B0 
 355      50B4112C 
 355      B43082E9 
 355      8C16
 356 0045 21829CB3 		.ascii	"!\202\234\263\246ta\231\331\345\275\337\274]I\377\227"
 356      A6746199 
 356      D9E5BDDF 
 356      BC5D49FF 
 356      97
 357 0056 C13B01A2 		.ascii	"\301;\001\2421\256\220\004Q\272%rc\002\320\015\201\212"
 357      31AE9004 
 357      51BA2572 
 357      6302D00D 
 357      818A
 358 0068 0245B444 		.ascii	"\002E\264D[\240\024\370{\211TU)\365\361\020\256\367"
 358      5BA014F8 
 358      7B895455 
 358      29F5F110 
 358      AEF7
 359 007a AB9DF9AE 		.ascii	"\253\235\371\256 \372\022=\020\016\220bQ\355\352\332"
 359      20FA123D 
 359      100E9062 
 359      51EDEADA 
 360 008a 906910B7 		.ascii	"\220i\020\267\337\365m?\236\334Wj-h\235\251)t\031z\010"
 360      DFF56D3F 
 360      9EDC576A 
 360      2D689DA9 
 360      2974197A 
 361 009f C9068C18 		.ascii	"\311\006\214\030\0306\210/\010GHjq\333\373yLD=\206\017"
 361      1836882F 
 361      0847486A 
 361      71DBFB79 
 361      4C443D86 
 362 00b4 F4903846 		.ascii	"\364\2208F\224s\321\371`\240\302\260\036\2267\207\032"
 362      9473D1F9 
 362      60A0C2B0 
 362      1E963787 
 362      1A
 363 00c5 32C2086D 		.ascii	"2\302\010m\240&Kt\3007!t\225O\270\334m\207\345\011\355"
 363      A0264B74 
 363      C0372174 
 363      954FB8DC 
 363      6D87E509 
 364 00da 62DA86F7 		.ascii	"b\332\206\367z\203w\321\025\242\323pUD\017xi\336\335"
 364      7A8377D1 
 364      15A2D370 
 364      55440F78 
 364      69DEDD
 365 00ed C7FEAE48 		.ascii	"\307\376\256H\037kap\021\257\240\354z\234K\302\207\201"
 365      1F6B6170 
 365      11AFA0EC 
 365      7A9C4BC2 
 365      8781
 366 00ff 13F067E0 		.ascii	"\023\360g\340\024\025tX\364\0147\330\372Lk\240~^\223"
ARM GAS  C:\Users\Bruger\AppData\Local\Temp\ccPhhSKd.s 			page 28


 366      14157458 
 366      F40C37D8 
 366      FA4C6BA0 
 366      7E5E93
 367 0112 B3F22036 		.ascii	"\263\362 6'g,\333\312/\024\254\305\\\306Y\315\233Vv"
 367      27672CDB 
 367      CA2F14AC 
 367      C55CC659 
 367      CD9B5676 
 368 0126 2EE34C4F 		.ascii	".\343LOfg\355e\313,,9vn|\324\244>\323\261\013yg\345"
 368      6667ED65 
 368      CB2C2C39 
 368      766E7CD4 
 368      A43ED3B1 
 369 013e 179F1070 		.ascii	"\027\237\020p\242"
 369      A2
 370              		.text
 371              		.section	.gnu.lto_Injection_1_ReadCapture.71da27ae,"",%progbits
 372 0000 789C6366 		.ascii	"x\234cf\300\004R@\374\033\210\325\201\230\221\231\201"
 372      C0045240 
 372      FC1B88D5 
 372      81989199 
 372      81
 373 0011 9169C239 		.ascii	"\221i\3029\006\206F\016&FF\020\203\201\221\241\236\211"
 373      0686460E 
 373      26464610 
 373      838191A1 
 373      9E89
 374 0023 B19EF125 		.ascii	"\261\236\361%\323G&\306\323\217~|\346y\301\364\223\211"
 374      D34726C6 
 374      D38F7E7C 
 374      E679C1F4 
 374      9389
 375 0035 418001C8 		.ascii	"A\200\001\310\235u\375\351\027f\020\227\221\011\304"
 375      9D75FDE9 
 375      17661097 
 375      9109C4
 376 0044 DDFDF9DC 		.ascii	"\335\375\371\334#6\365\245\015\015M\037\036Mm\347\233"
 376      2336F5A5 
 376      0D0D4D1F 
 376      1E4D6DE7 
 376      9B
 377 0055 316501E3 		.ascii	"1e\001\343O&&\206\317L\014\214\313\031\245\030W0\202"
 377      4F262686 
 377      CF4C0C8C 
 377      CB19A518 
 377      573082
 378 0068 6C625CC9 		.ascii	"lb\\\311\250\016R\374\261\345\357un\266\226\206\206"
 378      A80E52FC 
 378      B1E5EF75 
 378      6EB69686 
 378      86
 379 0079 0601900A 		.ascii	"\006\001\220\012\240\304*F6F \275^\350@\303\377\377"
 379      A0C42A46 
 379      364620BD 
 379      5EE840C3 
 379      FFFF
ARM GAS  C:\Users\Bruger\AppData\Local\Temp\ccPhhSKd.s 			page 29


 380 008b 9FAFCFE9 		.ascii	"\237\257\317\351R=\315\314\314\304\0002\202\341\011"
 380      523DCDCC 
 380      CCC40032 
 380      82E109
 381 009a 10835CF3 		.ascii	"\020\203\\\363\024\310\001\322\314\267\030\017}\353"
 381      14C801D2 
 381      CCB7180F 
 381      7DEB
 382 00a8 3A767A31 		.ascii	":vz1\033H\327w&\220\333\316\274\237\337\307\006r\014"
 382      1B48D777 
 382      2690DBCE 
 382      BC9FDFC7 
 382      06720C
 383 00bb F39A8B8D 		.ascii	"\363\232\213\215\015, ;\356?9\177\221\003,\304\000\342"
 383      0D2C203B 
 383      EE3F397F 
 383      91032CC4 
 383      00E2
 384 00cd BE99FBE1 		.ascii	"\276\231\373\341.\347\\\306\331\215-\215\0074\1772\261"
 384      2EE75CC6 
 384      D98D2D8D 
 384      07347F32 
 384      B1
 385 00de 30AE06BA 		.ascii	"0\256\006\272j\015\310U\214k\031\34722\334cll0\206\032"
 385      6A0DC855 
 385      8C6B19E7 
 385      3232DC63 
 385      6C6C3086 
 386 00f3 C800B293 		.ascii	"\310\000\262\223\021d\027\220\251\352\236\232\227Z\224"
 386      11641790 
 386      A9EA9E9A 
 386      975A94
 387 0102 58929A12 		.ascii	"X\222\232\022\037\234_Z\224\234\032\023\020\234\357"
 387      1F9C5F5A 
 387      949C1A13 
 387      109CEF
 388 0111 6C1AE399 		.ascii	"l\032\343\231\227\225\232\\\222\231\237\027o\250\227"
 388      97959A5C 
 388      92999F17 
 388      6FA897
 389 0120 CC000095 		.ascii	"\314\000\000\225\306mh"
 389      C66D68
 390              		.text
 391              		.section	.gnu.lto_Injection_1_ReadCompare.71da27ae,"",%progbits
 392 0000 789C6366 		.ascii	"x\234cf\300\004R@\374\033\210\325\201\230\221\231\201"
 392      C0045240 
 392      FC1B88D5 
 392      81989199 
 392      81
 393 0011 9169C239 		.ascii	"\221i\3029\006\206F\016&FF\020\203\201\221\241\236\211"
 393      0686460E 
 393      26464610 
 393      838191A1 
 393      9E89
 394 0023 B19EF125 		.ascii	"\261\236\361%\323G&\306\323\217~|\346y\301\364\223\211"
 394      D34726C6 
 394      D38F7E7C 
ARM GAS  C:\Users\Bruger\AppData\Local\Temp\ccPhhSKd.s 			page 30


 394      E679C1F4 
 394      9389
 395 0035 418001C8 		.ascii	"A\200\001\310\235u\375\351\027f\020\227\221\011\304"
 395      9D75FDE9 
 395      17661097 
 395      9109C4
 396 0044 DDFDF9DC 		.ascii	"\335\375\371\334#6\365\245\015\015M\037\232\346\266"
 396      2336F5A5 
 396      0D0D4D1F 
 396      9AE6B6
 397 0053 F3CD98B2 		.ascii	"\363\315\230\262\200\361'\023\023\303g&\006\306\345"
 397      80F12713 
 397      13C36726 
 397      06C6E5
 398 0062 8C528C2B 		.ascii	"\214R\214+\030A61\256dT\007)\376\330\362\367:7[KCC\203"
 398      18413631 
 398      AE645407 
 398      29FED8F2 
 398      F73A375B 
 399 007a 00480550 		.ascii	"\000H\005Pb\025#\033#\220^/t\240\341\377\377\317_\346"
 399      6215231B 
 399      23905E2F 
 399      74A0E1FF 
 399      FFCF5FE6 
 400 008e 74D99E63 		.ascii	"t\331\236cffb\000\031\301\360\004\210A\256y\012\344"
 400      66666200 
 400      19C1F004 
 400      8841AE79 
 400      0AE4
 401 00a0 0069E65B 		.ascii	"\000i\346[\214\207\276u\275;\267\230\035\244\353;\023"
 401      8C87BE75 
 401      BD3BB798 
 401      1DA4EB3B 
 401      13
 402 00b1 C86DD336 		.ascii	"\310m\3236L9\300\016r\014\363\231\013\215\015, ;\356"
 402      4C39C00E 
 402      720CF399 
 402      0B8D0D2C 
 402      203BEE
 403 00c4 3F397F91 		.ascii	"?9\177\221\003,\304\000\342^\273;\367?\373\\\306\331"
 403      032CC400 
 403      E25EBB3B 
 403      F73FFB5C 
 403      C6D9
 404 00d6 8D2D8D07 		.ascii	"\215-\215\007t\1772\2610\256\006\272j\015\310U\214k"
 404      747F32B1 
 404      30AE06BA 
 404      6A0DC855 
 404      8C6B
 405 00e8 19E73232 		.ascii	"\031\34722\334cll\260\206\032\310\000\262\223\021d\027"
 405      DC636C6C 
 405      B0861AC8 
 405      00B29311 
 405      6417
 406 00fa 90A9EA9E 		.ascii	"\220\251\352\236\232\227Z\224X\222\232\022\037\234_"
 406      9A975A94 
 406      58929A12 
ARM GAS  C:\Users\Bruger\AppData\Local\Temp\ccPhhSKd.s 			page 31


 406      1F9C5F
 407 0109 5A949C1A 		.ascii	"Z\224\234\032\023\020\234\357l\032\343\231\227\225\232"
 407      13109CEF 
 407      6C1AE399 
 407      97959A
 408 0118 5C92999F 		.ascii	"\\\222\231\237\027o\250\227\314\000\000h5mI"
 408      176FA897 
 408      CC000068 
 408      356D49
 409              		.text
 410              		.section	.gnu.lto_Injection_1_ReadPeriod.71da27ae,"",%progbits
 411 0000 789C6366 		.ascii	"x\234cf\300\004R@\374\033\210\325\201\230\221\231\201"
 411      C0045240 
 411      FC1B88D5 
 411      81989199 
 411      81
 412 0011 9169C239 		.ascii	"\221i\3029\006\206F\016&FF\020\203\201\221\241\236\211"
 412      0686460E 
 412      26464610 
 412      838191A1 
 412      9E89
 413 0023 B19EF125 		.ascii	"\261\236\361%\323G&\306\323\217~|\346y\301\364\223\211"
 413      D34726C6 
 413      D38F7E7C 
 413      E679C1F4 
 413      9389
 414 0035 418001C8 		.ascii	"A\200\001\310\235u\375\351\027f\020\227\221\011\304"
 414      9D75FDE9 
 414      17661097 
 414      9109C4
 415 0044 DDFDF9DC 		.ascii	"\335\375\371\334#6\365\245\015\015M\037\016\355m\347"
 415      2336F5A5 
 415      0D0D4D1F 
 415      0EED6DE7 
 416 0054 99316501 		.ascii	"\2311e\001\343O&&\206\317L\014\214\313\031\245\030W"
 416      E34F2626 
 416      86CF4C0C 
 416      8CCB19A5 
 416      1857
 417 0066 30826C62 		.ascii	"0\202lb\\\311\250\016R\374\261\345\357un\266\226\206"
 417      5CC9A80E 
 417      52FCB1E5 
 417      EF756EB6 
 417      9686
 418 0078 86060190 		.ascii	"\206\006\001\220\012\240\304*F6F \275^\350@\303\377"
 418      0AA0C42A 
 418      46364620 
 418      BD5EE840 
 418      C3FF
 419 008a FF9FBFCD 		.ascii	"\377\237\277\315m\322\275\317\314\314\304\0002\202\341"
 419      6DD2BDCF 
 419      CCCCC400 
 419      3282E1
 420 0099 0910835C 		.ascii	"\011\020\203\\\363\024\310\001\322\314\267\030\017}"
 420      F314C801 
 420      D2CCB718 
 420      0F7D
ARM GAS  C:\Users\Bruger\AppData\Local\Temp\ccPhhSKd.s 			page 32


 421 00a7 EB3A777F 		.ascii	"\353:w\1771\033H\327w&\220\333\3664\356\371\312\015"
 421      311B48D7 
 421      772690DB 
 421      F634EEF9 
 421      CA0D
 422 00b9 720C73CF 		.ascii	"r\014s\317\305\306\006\026\220\035\367\237\234\277\310"
 422      C5C60616 
 422      901DF79F 
 422      9CBFC8
 423 00c8 01166200 		.ascii	"\001\026b\000q\267\267\035z\305;\227qvcK\343\001\315"
 423      71B7B71D 
 423      7AC53B97 
 423      7176634B 
 423      E301CD
 424 00db 9F4C2C8C 		.ascii	"\237L,\214\253\201\256Z\003r\025\343Z\306\271\214\014"
 424      AB81AE5A 
 424      037215E3 
 424      5AC6B98C 
 424      0C
 425 00ec F7181B1B 		.ascii	"\367\030\033\033\214\241\0062\200\354d\004\331\005d"
 425      8CA10632 
 425      80EC6404 
 425      D90564
 426 00fb AABAA7E6 		.ascii	"\252\272\247\346\245\026%\226\244\246\304\007\347\227"
 426      A5162596 
 426      A4A6C407 
 426      E797
 427 0109 1625A7C6 		.ascii	"\026%\247\306\004\004\347;\233\306x\346e\245&\227d\346"
 427      0404E73B 
 427      9BC678E6 
 427      65A52697 
 427      64E6
 428 011b E7C51BEA 		.ascii	"\347\305\033\352%3\000\000\235\226m@"
 428      25330000 
 428      9D966D40 
 429              		.text
 430              		.section	.gnu.lto_.symbol_nodes.71da27ae,"",%progbits
 431 0000 789C55D0 		.ascii	"x\234U\320\273\015\3020\030\004\340\363\3578q\336q\026"
 431      BB0DC230 
 431      1804E0F3 
 431      EF3871DE 
 431      7116
 432 0012 60096A56 		.ascii	"`\011jV\273\024tH\210\011\020H\214\300\034\014A\315"
 432      BB147448 
 432      88091048 
 432      8CC01C0C 
 432      41CD
 433 0024 10584AE3 		.ascii	"\020XJ\343\273\346\364IW\235\007pr\330cF\340\366\001"
 433      BBE6F449 
 433      579D0770 
 433      72D86346 
 433      E0F601
 434 0037 48DC1F11 		.ascii	"H\334\037\021\346\350J\007\340\231'\346i2\253\350\305"
 434      E6E84A07 
 434      E09927E6 
 434      6932ABE8 
 434      C5
ARM GAS  C:\Users\Bruger\AppData\Local\Temp\ccPhhSKd.s 			page 33


 435 0048 8195B866 		.ascii	"\201\225\270f\0207\254\305\221\215\270e\024wl\305=;"
 435      1037ACC5 
 435      918DB865 
 435      14776CC5 
 435      3D3B
 436 005a F1C05E3C 		.ascii	"\361\300^<r\020O\034\3053'\361\302\271\264[\271\354"
 436      72104F1C 
 436      C53327F1 
 436      C2B9B45B 
 436      B9EC
 437 006c C6B66526 		.ascii	"\306\266e&\246\202\036+\316\227\337\301#\341u\315\235"
 437      A6821E2B 
 437      CE97DFC1 
 437      23E175CD 
 437      9D
 438 007d DFFBBE8F 		.ascii	"\337\373\276\217\370\003\305+Q\366"
 438      F803C52B 
 438      51F6
 439              		.text
 440              		.section	.gnu.lto_.refs.71da27ae,"",%progbits
 441 0000 789C6366 		.ascii	"x\234cf``\340d\200\000&F bdba\000\000\001*\000\032"
 441      6060E064 
 441      80002646 
 441      20626462 
 441      61000001 
 442              		.text
 443              		.section	.gnu.lto_.decls.71da27ae,"",%progbits
 444 0000 789C8D96 		.ascii	"x\234\215\226kL\024W\024\307\347\356]\020f\021\320\246"
 444      6B4C1457 
 444      14C7E7EE 
 444      5D106611 
 444      D0A6
 445 0012 684D5369 		.ascii	"hMSi\232\232\230\030S?\324\364[MH\333\330'\321\264\375"
 445      9A9A9818 
 445      533FD4F4 
 445      5B4D48DB 
 445      D827D1B4 
 446 0027 601BBB85 		.ascii	"`\033\273\205\211nC\201\254KS\277\215\005+\305\027j"
 446      896E4381 
 446      AC4B53BF 
 446      8D052BC5 
 446      176A
 447 0039 1B10ABA2 		.ascii	"\033\020\253\242\240(\010]\251\224\247\262,\210\270"
 447      A028085D 
 447      A994A7B2 
 447      2C88B8
 448 0048 16A1942E 		.ascii	"\026\241\224.oX\260\"U\204E\300hQ\266\347\336;\343\336"
 448      6F58B022 
 448      558445C0 
 448      6851B6E7 
 448      DE3BE3DE 
 449 005c 5987CA24 		.ascii	"Y\207\312$\377e\347\3169\277\363\270\347\316\202\005"
 449      FF65E7CE 
 449      39BFF3B8 
 449      E7CE8205 
 450 006c 4148300A 		.ascii	"AH0\012\202\017\256\035\242 \274o\020\204E\260\026+"
 450      820FAE1D 
ARM GAS  C:\Users\Bruger\AppData\Local\Temp\ccPhhSKd.s 			page 34


 450      A220BC6F 
 450      108445B0 
 450      162B
 451 007e F8AFC5A0 		.ascii	"\370\257\305\240s\240\022\220\035T\012\272\010r\200"
 451      73A01290 
 451      1D540ABA 
 451      087280
 452 008d 9CA00650 		.ascii	"\234\240\006P#\250\005\324\006j\007\271A\235\240nP/"
 452      23A805D4 
 452      066A07B9 
 452      419DA06E 
 452      502F
 453 009f A81FE401 		.ascii	"\250\037\344\001!\320\015A{\235Sb\220\230.P\024\250"
 453      21D00D41 
 453      7B9D5362 
 453      90982E50 
 453      14A8
 454 00b1 1234021A 		.ascii	"\0224\002\032\006\205\203\302@wA\243\2401P+h\034\324"
 454      068583C2 
 454      407741A3 
 454      A031502B 
 454      681CD4
 455 00c4 0C9A0079 		.ascii	"\014\232\000yA\223\240{\012ST\270\027\003\362\363(\271"
 455      4193A07B 
 455      0A5354B8 
 455      1703F2F3 
 455      28B9
 456 00d6 3895FCDA 		.ascii	"8\225\374\332\204\247/Rg\210\222\017\311eJ\311k\032"
 456      84A72F52 
 456      6788920F 
 456      C9654AC9 
 456      6B1A
 457 00e8 7496CB8B 		.ascii	"t\226\313\213\\X\261?\247\364F\257>\262n\344x\274?R"
 457      5C58B13F 
 457      A7F446AF 
 457      3EB26EE4 
 457      78BC3F52 
 458 00fc 9E075EA5 		.ascii	"\236\007^\245\317\360)\325\361!\265\006+>j\317H\037"
 458      CFF029D5 
 458      F121B506 
 458      2B3E6ACF 
 458      481F
 459 010e D5BEA9BE 		.ascii	"\325\276\251\276\027u|\035J\315\274\037\211\253\366"
 459      17757C1D 
 459      4ACDBC1F 
 459      89ABF6
 460 011d 54EDB1CA 		.ascii	"T\355\261\312p\3500\234\202\277o.\216\241\267?X\370"
 460      70E8309C 
 460      82BF6F2E 
 460      8EA1B73F 
 460      58F8
 461 012f FF3D6898 		.ascii	"\377=h\230g-\015:\276\215\363\364m\324\361%3\242\366"
 461      672D0D3A 
 461      BE8DF3F4 
 461      6DD4F125 
 461      33A2F6
 462 0142 9DD410D8 		.ascii	"\235\324\020\330\367\026\035\2376\245\036W@\215h\216"
ARM GAS  C:\Users\Bruger\AppData\Local\Temp\ccPhhSKd.s 			page 35


 462      F7161D9F 
 462      36A51E57 
 462      408D688E 
 463 0152 DADAFFC7 		.ascii	"\332\332\377\307\276]\307\336\375\214\234\334:>\244"
 463      BE5DC7DE 
 463      FD8C9CDC 
 463      3A3EA4
 464 0161 AF4182B6 		.ascii	"\257A\202\266\376\300=\354\324\361\353\236\207_\267"
 464      FEC03DEC 
 464      D4F1EB9E 
 464      875FB7
 465 0170 8E5FEF3C 		.ascii	"\216_\357<\374zu\374&\014\250\262d\252\3314b@\341b4"
 465      FC7A75FC 
 465      260CA8B2 
 465      64AAD934 
 465      6240E162 
 466 0185 B9AD3AD8 		.ascii	"\271\255:\330\224\035\014\267a\242\221\334V\317\014"
 466      941D0CB7 
 466      61A291DC 
 466      56CF0C
 467 0194 B51B97FC 		.ascii	"\265\033\227\374$\303\225\231*G\032Ql\024*@\313\320"
 467      24C39599 
 467      2A471A51 
 467      6C142A40 
 467      CBD0
 468 01a6 19B40CA8 		.ascii	"\031\264\014\250g\321\022\370\334dd\244\323\307\213"
 468      67D112F8 
 468      DC6464A4 
 468      D3C78B
 469 01b5 8A43B101 		.ascii	"\212C\261\001\221\357y\331\203\355\342\252BpK\227\035"
 469      91EF79D9 
 469      83EDE2AA 
 469      42704B97 
 469      1D
 470 01c6 9D067FB8 		.ascii	"\235\006\177\270\302\237N7ED\037\223=voU\347\367\370"
 470      C29F4E37 
 470      45441F93 
 470      3D766F55 
 470      E7F7F8
 471 01d9 B09CFB9D 		.ascii	"\260\234\373\235<\353\363!\012C\205\010\243\"\264\212"
 471      3CEBF321 
 471      0A438508 
 471      A322B48A 
 472 01e9 A60CDF59 		.ascii	"\246\014\337Y\356\347P48\016\334\277pb\001^G\351{<\316"
 472      EEE75034 
 472      380EDCBF 
 472      7062015E 
 472      47E97B3C 
 473 01fe 420C905C 		.ascii	"B\014\220\\{\356x\251\274.M~\344\363a\012(\346\000\305"
 473      7BEE78A9 
 473      BC2E4D7E 
 473      E4F3610A 
 473      28E600C5 
 474 0212 2AA08402 		.ascii	"*\240\204\002N\326\272\017\231\360\006\012\2705\332"
 474      4ED6BA0F 
 474      99F0060A 
 474      B835DA
ARM GAS  C:\Users\Bruger\AppData\Local\Temp\ccPhhSKd.s 			page 36


 475 0221 3A1B4EB3 		.ascii	":\033N\263\310\335_\020\334$;|\276Z\031Q\302/\034\341"
 475      C8DD5F10 
 475      DC243B7C 
 475      BE5A1951 
 475      C22F1CE1 
 476 0235 179560A7 		.ascii	"\027\225`\247\204\214\202K?\213X\242\204\264\256\254"
 476      848C824B 
 476      3F8B58A2 
 476      84B4AEAC 
 477 0245 9A109642 		.ascii	"\232\020\226B\227Bx\223\372\237\347\374\317\253\376"
 477      97427893 
 477      FA9FE7FC 
 477      CFABFE
 478 0254 A5D4FFDA 		.ascii	"\245\324\377\332\320\203\3110\332\352H\202\310\351\270"
 478      D083C930 
 478      DAEA4882 
 478      C8E9B8
 479 0263 398569AB 		.ascii	"9\205i\253\015\344\366\350\275\261\232P\374\015\245"
 479      0DE4F6E8 
 479      BDB19A50 
 479      FC0DA5
 480 0272 EF385DBD 		.ascii	"\3578]\275g\001<\212\026i\323\262\356<\270\020Bo\241"
 480      67013C8A 
 480      1669D3B2 
 480      EE3CB810 
 480      426FA1
 481 0285 4E5830CC 		.ascii	"NX0\314\334()\010F+\304|h\260\367q\336\245wS\345u\250"
 481      DC282908 
 481      462BC47C 
 481      68B0F771 
 481      DEA57753 
 482 029c 1289A8EC 		.ascii	"\022\211\250\354It\352K\256tY\376N\226S\345\2403\341"
 482      4974EA4B 
 482      AE7459FE 
 482      4E9653E5 
 482      A033E1
 483 02af 02FA15F6 		.ascii	"\002\372\025\366\356\002\354\035\252@+\300\202\332\242"
 483      EE02EC1D 
 483      AA402BC0 
 483      82DAA2
 484 02be DF60B11C 		.ascii	"\337`\261\034\026!RM\376\3551\223\021\366\213\3226\321"
 484      1621524D 
 484      FEED3193 
 484      11F68BD2 
 484      36D1
 485 02d0 191828BB 		.ascii	"\031\030(\273_.\3169\003\325t\006\252\2202\004?~\237"
 485      5F2ECE39 
 485      03D57406 
 485      AA903204 
 485      3F7E9F
 486 02e3 5384F171 		.ascii	"S\204\361qD\313p\036H\253\014U6\333\235\263\360\311"
 486      44CB701E 
 486      48AB0C55 
 486      36DB9DB3 
 486      F0C9
 487 02f5 661B8817 		.ascii	"f\033\210\027\252\341:U\243v\352\"\355\324\303\235\315"
 487      AAE13A55 
ARM GAS  C:\Users\Bruger\AppData\Local\Temp\ccPhhSKd.s 			page 37


 487      A376EA22 
 487      EDD4C39D 
 487      CD
 488 0306 03980F49 		.ascii	"\003\230\017I\262\361\307\274\244\231\273\206\242+\336"
 488      B2F1C7BC 
 488      A499BB86 
 488      A22BDE
 489 0315 105CC142 		.ascii	"\020\\\301B\026\034\274\371p!\335\027O\327\336+a2\333"
 489      161CBCF9 
 489      7021DD17 
 489      4FD7DE2B 
 489      6132DB
 490 0328 19EA826A 		.ascii	"\031\352\202j\271\200\265j@\007\015X\264;\273\317\204"
 490      B980B56A 
 490      40070D58 
 490      B43BBBCF 
 490      84
 491 0339 5B1963D7 		.ascii	"[\031c\327-w\207\211\246\355\331\333\2422`>\330\214"
 491      2D778789 
 491      A6EDD9DB 
 491      A232603E 
 491      D88C
 492 034b D671943A 		.ascii	"\326q\224:\225\342\244\224\037r:\006\202\3600\243\034"
 492      95E2A494 
 492      1F723A06 
 492      82F030A3 
 492      1C
 493 035c 3AD6F177 		.ascii	":\326\361w\020\243\270Z$\007\035\322\324\020\3320T\317"
 493      10A3B85A 
 493      24071DD2 
 493      D410DA30 
 493      54CF
 494 036e 31EA5546 		.ascii	"1\352UF\003eT\215\325\257\304\263\014q\274p\354\210"
 494      0365548D 
 494      D5AFC4B3 
 494      0C71BC70 
 494      EC88
 495 0380 C8107BCE 		.ascii	"\310\020{\316o\015h\337e\216qYe4R\206\273v\327\256\020"
 495      6F0D68DF 
 495      658E7159 
 495      65345286 
 495      BB76D7AE 
 496 0395 9C65D0CC 		.ascii	"\234e\320\314R\024\233\245}\327r\3520\275\365\221\307"
 496      52149BA5 
 496      7DD772EA 
 496      30BDF591 
 496      C7
 497 03a6 86AEAE1F 		.ascii	"\206\256\256\037\037b$\256\240c\342=(\343\245\002Z\265"
 497      1F6224AE 
 497      A063E23D 
 497      28E3A502 
 497      5AB5
 498 03b8 0CAD8419 		.ascii	"\014\255\204\031\271\0063\022\245\314H\0234\377*4\237"
 498      B9063312 
 498      A5CC4813 
 498      34FF2A34 
 498      9F
ARM GAS  C:\Users\Bruger\AppData\Local\Temp\ccPhhSKd.s 			page 38


 499 03c9 4D5C2A9B 		.ascii	"M\\*\2338\027\354\312\025\377\304E\211O\216y\346\316"
 499      3817ECCA 
 499      15FFC445 
 499      894F8E79 
 499      E6CE
 500 03db BA4C239D 		.ascii	"\272L#\235#\327\2239\232\366\015\2362\3149G\315tO\177"
 500      23D79339 
 500      9AF60D9E 
 500      32CC3947 
 500      CD744F7F 
 501 03ef 57E7A8FA 		.ascii	"W\347\250\372\321\356\316\010|\224\225`\237*\375WT\346"
 501      D1EECE08 
 501      7C949560 
 501      9F2AFD57 
 501      54E6
 502 0401 A8E24EEC 		.ascii	"\250\342N\354\201T9_\366\370|\313\243\211\027\272\316"
 502      8154395F 
 502      F6F87CCB 
 502      A38917BA 
 502      CE
 503 0412 35E2BADA 		.ascii	"5\342\272\332\210\026\266!iv\315\030\2714c\324\252\031"
 503      8816B621 
 503      6976CD18 
 503      B93463D4 
 503      AA19
 504 0424 A3CE9D59 		.ascii	"\243\316\235Ym\010W\261\210\217\377\315\313\300\254"
 504      6D0857B1 
 504      888FFFCD 
 504      CBC0AC
 505 0433 F3FBCB13 		.ascii	"\363\373\313\023\270\316\203\017\372\203\013\370\207"
 505      B8CE830F 
 505      FA830BF8 
 505      87
 506 0440 1AB08D06 		.ascii	"\032\260\215\006\034\032~t$\034w1H\353\316\3137\203"
 506      1C1A7E74 
 506      241C7731 
 506      48EBCECB 
 506      3783
 507 0452 D83BE26A 		.ascii	"\330;\342jy<\233\000L\303\242?9\304\237*\242\235\"r"
 507      793C9B00 
 507      4CC3A23F 
 507      39C49F2A 
 507      A29D2272 
 508 0466 EBBB25FC 		.ascii	"\353\273%\374\220\021\366\225\375Z!\262i~\\\276\225"
 508      9011F695 
 508      FD5A21B2 
 508      697E5CBE 
 508      95
 509 0477 7B5992BA 		.ascii	"{Y\222\272\377\342\030\177\251\0147;?\0233\236P\234"
 509      FFE2187F 
 509      A90C373B 
 509      3F13339E 
 509      509C
 510 0489 8329E4F0 		.ascii	"\203)\344\360t\366\2442E%\225\311\\-\344Ltp\220\016"
 510      74F6A432 
 510      452595C9 
 510      5C2DE44C 
ARM GAS  C:\Users\Bruger\AppData\Local\Temp\ccPhhSKd.s 			page 39


 510      7470900E 
 511 049d 15D24921 		.ascii	"\025\322I!\256\336\376F\023.e\220\036\373\376|#\253"
 511      AEDEFE46 
 511      132E6590 
 511      1EFBFE7C 
 511      23AB
 512 04af 65A4D25F 		.ascii	"e\244\322_\013Atq\210.\025\321M\021\365}-}\"v1Da\331"
 512      0B417471 
 512      882E15D1 
 512      4D11F57D 
 512      2D7D2276 
 513 04c7 C917582D 		.ascii	"\311\027X-\243\325_p\265\020F\017\307\350Q\031\275\224"
 513      A3D55F70 
 513      B510460F 
 513      C7E85119 
 513      BD94
 514 04d9 315A7CDE 		.ascii	"1Z|\336n\302\203\214\221\227Y\323\023Lj\221\275\343"
 514      6EC2838C 
 514      919759D3 
 514      134C6A91 
 514      BDE3
 515 04eb E3BED70E 		.ascii	"\343\276\327\016\313'\370\216\364q\224>\225\322O)-\267"
 515      CB27F88E 
 515      F471943E 
 515      95D24F29 
 515      2DB7
 516 04fd EF1F1671 		.ascii	"\357\037\026q\226\221R\006\212N%P\210g\366\206\344\344"
 516      96915206 
 516      8A4E2550 
 516      8867F686 
 516      E4E4
 517 050f F7658023 		.ascii	"\367e\200#\014\250\004\017%\224\037o\236A\270\204\021"
 517      0CA8040F 
 517      25941F6F 
 517      9E41B884 
 517      11
 518 0520 667BECE5 		.ascii	"f{\354\345\344g\022\006\212\016O\177\355\031w\304+'"
 518      E4671206 
 518      8A0E4F7F 
 518      ED1977C4 
 518      2B27
 519 0532 E4DC93F6 		.ascii	"\344\334\223\366\252\314\317\035;d\232\025\235\267A"
 519      AACCCF1D 
 519      3B649A15 
 519      9DB741
 520 0541 86540E95 		.ascii	"\206T\016\225@\356\341s\210\274\204o\240W\300W\316\332"
 520      40EEE173 
 520      88BC846F 
 520      A057C057 
 520      CEDA
 521 0553 9D1F829D 		.ascii	"\235\037\202\235\014\\v?\243r\241\230N^\330\317>\214"
 521      0C5C763F 
 521      A372A198 
 521      4E5ED8CF 
 521      3E8C
 522 0565 707CDBAF 		.ascii	"p|\333\257g\270C\331\361\015\364\2705\347\361\255\277"
 522      67B843D9 
ARM GAS  C:\Users\Bruger\AppData\Local\Temp\ccPhhSKd.s 			page 40


 522      F10DF4B8 
 522      35E7F1AD 
 522      BF
 523 0576 F75E1A1C 		.ascii	"\367^\032\034\337a\310\356o\377\361\275\211\374\347"
 523      DF61C8EE 
 523      6FFFF1BD 
 523      89FCE7
 524 0585 F787A19C 		.ascii	"\367\207\241\234\346\260\260\014\362N\200\223\023\332"
 524      E6B0B00C 
 524      F24E8093 
 524      13DA
 525 0593 144E8DFD 		.ascii	"\024N\215\375Gg\004\205\321\326\300_\362?\304\365\236"
 525      47670485 
 525      D1D6C05F 
 525      F23FC4F5 
 525      9E
 526 05a4 7E8CAFB0 		.ascii	"~\214\257\260\012\274\351{\357\030Y\005\363\374\325"
 526      0ABCE97B 
 526      EF185905 
 526      F3FCD5
 527 05b3 316415F7 		.ascii	"1d\025\367\345 \345\347,\367Z\004B\243\020\354\037\177"
 527      E520E5E7 
 527      2CF75A04 
 527      42A310EC 
 527      1F7F
 528 05c5 66B791FF 		.ascii	"f\267\221\377\267L\207zG\377\267\354\324\201F\254)a"
 528      B74C877A 
 528      47FFB7EC 
 528      D48146AC 
 528      2961
 529 05d7 5453C25D 		.ascii	"TS\302]\245\204\273\264\204\007'\006\207#4\326d\034"
 529      A584BBB4 
 529      84072706 
 529      872334D6 
 529      641C
 530 05e9 FCD6638A 		.ascii	"\374\326c\212\365\030\265\316<x\344R\250\306\272Yc="
 530      F518B5CE 
 530      3C78E452 
 530      A8C6BA59 
 530      633D
 531 05fb AE588F53 		.ascii	"\256X\217S\353=#\323y&\265#\351\363\312\375\254\263"
 531      EB3D23D3 
 531      7926B523 
 531      E9F3CAFD 
 531      ACB3
 532 060d F2679326 		.ascii	"\362g\223&\200W\223\374\204\022`\202\006\030\314l\254"
 532      805793FC 
 532      84126082 
 532      0618CC6C 
 532      AC
 533 061e 09558726 		.ascii	"\011U\207&\375\031#\000\366u\331\207\012\027j\350\367"
 533      FD192300 
 533      F675D987 
 533      0A176AE8 
 533      F7
 534 062f 34F44985 		.ascii	"4\364I\205>I\351Y\307\2743\332b\265\257\321)\305z\212"
 534      3E49E959 
ARM GAS  C:\Users\Bruger\AppData\Local\Temp\ccPhhSKd.s 			page 41


 534      C7BC33DA 
 534      62B5AFD1 
 534      29C57A8A 
 535 0643 5AF7673B 		.ascii	"Z\367g;2\214\032\353\263\232\326L\2430u[\341\253\020"
 535      328C1AEB 
 535      B39AD64C 
 535      A330755B 
 535      E1AB10
 536 0656 B93EF12B 		.ascii	"\271>\361+)\316fIJ\334\274f\363\372D\213-\370\235\017"
 536      29CE6649 
 536      4ADCBC66 
 536      F3FA448B 
 536      2DF89D0F 
 537 066a 3F8E8E11 		.ascii	"?\216\216\021^}GJ\224\254f\233\024\277ycR\2125N\372"
 537      5E7D474A 
 537      94AC669B 
 537      14BF7963 
 537      528A354E 
 538 067f 2C766352 		.ascii	",vcR\314\353\237q\346\253\343\204E\274\367F\233\331"
 538      CCEB9F71 
 538      E6ABE384 
 538      45BCF746 
 538      9BD9
 539 0691 6A5BCCAF 		.ascii	"j[\314\257\274\225h\3762A\212\324\032%%\007\247X\022"
 539      BC9568FE 
 539      32418AD4 
 539      1A252507 
 539      A75812
 540 06a4 6D6BD6BE 		.ascii	"mk\326\276<G\210\270\355\266\355\311\322\266\325[\205"
 540      3C4788B8 
 540      EDB6EDC9 
 540      D2B6D55B 
 540      85
 541 06b5 A5BCE7A7 		.ascii	"\245\274\347\247V\213M\212IJI\264I\326%\374\203\015"
 541      568B4D8A 
 541      494A49B4 
 541      49D625FC 
 541      830D
 542 06c7 92395E59 		.ascii	"\2229^Y\177\236_\217I\220\314\326\267\327\277\375\321"
 542      7F9E5F8F 
 542      4990CCD6 
 542      B7D7BFFD 
 542      D1
 543 06d8 92A730B1 		.ascii	"\222\2470\261\222\325\222\024\257\207\377:\331l\225"
 543      92D59214 
 543      AF87FF3A 
 543      D96C95
 544 06e7 8248826F 		.ascii	"\202H\202o\274\250\311[\262\255'\021\254)\311\266\017"
 544      BCA8C95B 
 544      B2AD2711 
 544      AC29C9B6 
 544      0F
 545 06f8 92E2A597 		.ascii	"\222\342\245\227\0023\200\352m)\3336H[,\333\300l\371"
 545      023380EA 
 545      6D29DB36 
 545      485B2CDB 
 545      C06CF9
ARM GAS  C:\Users\Bruger\AppData\Local\Temp\ccPhhSKd.s 			page 42


 546 070b D30926DA 		.ascii	"\323\011&\332\254I\011\352\363h\235\320\032\203\247"
 546      AC4909EA 
 546      F3689DD0 
 546      1A83A7
 547 071a 2B3427DB 		.ascii	"+4'\333R\254\222N\3454\345\250\300uV\342\3631\333\337"
 547      52AC924E 
 547      E534E5A8 
 547      C07556E2 
 547      F331DBDF 
 548 072e FAD6628B 		.ascii	"\372\326b\213\201\010\2268s\302Ff\262|\216\316\307l"
 548      81089638 
 548      73C24666 
 548      B27C8ECE 
 548      C76C
 549 0740 7FDFF225 		.ascii	"\177\337\362%\364=\012\274H\261\001n\317\3611,0+\237"
 549      F43D0ABC 
 549      48B1016E 
 549      CFF1312C 
 549      302B9F
 550 0753 98AD46AB 		.ascii	"\230\255F\253\264\345\215 \370X\263\366?\250;\234\314"
 550      B4E58D20 
 550      F858B3F6 
 550      3FA83B9C 
 550      CC
 551              		.text
 552              		.section	.gnu.lto_.symtab.71da27ae,"",%progbits
 553 0000 496E6A65 		.ascii	"Injection_1_Init\000\000\000\000\000\000\000\000\000"
 553      6374696F 
 553      6E5F315F 
 553      496E6974 
 553      00000000 
 554 0019 000000AC 		.ascii	"\000\000\000\254\000\000\000Injection_1_Start\000\000"
 554      00000049 
 554      6E6A6563 
 554      74696F6E 
 554      5F315F53 
 555 0033 00000000 		.ascii	"\000\000\000\000\000\000\000\000\000\000\256\000\000"
 555      00000000 
 555      0000AE00 
 555      00
 556 0040 00496E6A 		.ascii	"\000Injection_1_initVar\000\000\000\000\000\000\000"
 556      65637469 
 556      6F6E5F31 
 556      5F696E69 
 556      74566172 
 557 005b 00000000 		.ascii	"\000\000\000\000\000\343\000\000\000Injection_1_Ena"
 557      00E30000 
 557      00496E6A 
 557      65637469 
 557      6F6E5F31 
 558 0073 626C6500 		.ascii	"ble\000\000\000\000\000\000\000\000\000\000\000\000"
 558      00000000 
 558      00000000 
 558      000000
 559 0082 B0000000 		.ascii	"\260\000\000\000Injection_1_Stop\000\000\000\000\000"
 559      496E6A65 
 559      6374696F 
ARM GAS  C:\Users\Bruger\AppData\Local\Temp\ccPhhSKd.s 			page 43


 559      6E5F315F 
 559      53746F70 
 560 009b 00000000 		.ascii	"\000\000\000\000\000\000\000\262\000\000\000Injecti"
 560      000000B2 
 560      00000049 
 560      6E6A6563 
 560      7469
 561 00ad 6F6E5F31 		.ascii	"on_1_WriteCounter\000\000\000\000\000\000\000\000\000"
 561      5F577269 
 561      7465436F 
 561      756E7465 
 561      72000000 
 562 00c7 000000BD 		.ascii	"\000\000\000\275\000\000\000Injection_1_ReadCounter"
 562      00000049 
 562      6E6A6563 
 562      74696F6E 
 562      5F315F52 
 563 00e5 00000000 		.ascii	"\000\000\000\000\000\000\000\000\000\000\000\000\300"
 563      00000000 
 563      00000000 
 563      C0
 564 00f2 00000049 		.ascii	"\000\000\000Injection_1_ClearFIFO\000\000\000\000\000"
 564      6E6A6563 
 564      74696F6E 
 564      5F315F43 
 564      6C656172 
 565 010f 00000000 		.ascii	"\000\000\000\000\000\000\000\302\000\000\000Injecti"
 565      000000C2 
 565      00000049 
 565      6E6A6563 
 565      7469
 566 0121 6F6E5F31 		.ascii	"on_1_WritePeriod\000\000\000\000\000\000\000\000\000"
 566      5F577269 
 566      74655065 
 566      72696F64 
 566      00000000 
 567 013a 000000C4 		.ascii	"\000\000\000\304\000\000\000Injection_1_WriteCompar"
 567      00000049 
 567      6E6A6563 
 567      74696F6E 
 567      5F315F57 
 568 0158 65000000 		.ascii	"e\000\000\000\000\000\000\000\000\000\000\000\000\306"
 568      00000000 
 568      00000000 
 568      00C6
 569 0166 00000049 		.ascii	"\000\000\000Injection_1_SetInterruptMode\000\000\000"
 569      6E6A6563 
 569      74696F6E 
 569      5F315F53 
 569      6574496E 
 570 0188 00000000 		.ascii	"\000\000\000\000\000\000\000\000\000\317\000\000\000"
 570      00000000 
 570      00CF0000 
 570      00
 571 0195 496E6A65 		.ascii	"Injection_1_ReadStatusRegister\000\000\000\000\000\000"
 571      6374696F 
 571      6E5F315F 
ARM GAS  C:\Users\Bruger\AppData\Local\Temp\ccPhhSKd.s 			page 44


 571      52656164 
 571      53746174 
 572 01b9 00000000 		.ascii	"\000\000\000\000\000\000\322\000\000\000Injection_1"
 572      0000D200 
 572      0000496E 
 572      6A656374 
 572      696F6E5F 
 573 01ce 5F526561 		.ascii	"_ReadControlRegister\000\000\000\000\000\000\000\000"
 573      64436F6E 
 573      74726F6C 
 573      52656769 
 573      73746572 
 574 01ea 00000000 		.ascii	"\000\000\000\000\324\000\000\000Injection_1_WriteCo"
 574      D4000000 
 574      496E6A65 
 574      6374696F 
 574      6E5F315F 
 575 0205 6E74726F 		.ascii	"ntrolRegister\000\000\000\000\000\000\000\000\000\000"
 575      6C526567 
 575      69737465 
 575      72000000 
 575      00000000 
 576 021c 0000D600 		.ascii	"\000\000\326\000\000\000Injection_1_ReadCapture\000"
 576      0000496E 
 576      6A656374 
 576      696F6E5F 
 576      315F5265 
 577 023a 00000000 		.ascii	"\000\000\000\000\000\000\000\000\000\000\000\330\000"
 577      00000000 
 577      000000D8 
 577      00
 578 0247 0000496E 		.ascii	"\000\000Injection_1_ReadCompare\000\000\000\000\000"
 578      6A656374 
 578      696F6E5F 
 578      315F5265 
 578      6164436F 
 579 0265 00000000 		.ascii	"\000\000\000\000\000\000\000\332\000\000\000Injecti"
 579      000000DA 
 579      00000049 
 579      6E6A6563 
 579      7469
 580 0277 6F6E5F31 		.ascii	"on_1_ReadPeriod\000\000\000\000\000\000\000\000\000"
 580      5F526561 
 580      64506572 
 580      696F6400 
 580      00000000 
 581 028f 000000DC 		.ascii	"\000\000\000\334\000\000\000CyExitCriticalSection\000"
 581      00000043 
 581      79457869 
 581      74437269 
 581      74696361 
 582 02ac 00020000 		.ascii	"\000\002\000\000\000\000\000\000\000\000\000\336\000"
 582      00000000 
 582      000000DE 
 582      00
 583 02b9 00004379 		.ascii	"\000\000CyEnterCriticalSection\000\000\002\000\000\000"
 583      456E7465 
ARM GAS  C:\Users\Bruger\AppData\Local\Temp\ccPhhSKd.s 			page 45


 583      72437269 
 583      74696361 
 583      6C536563 
 584 02d7 00000000 		.ascii	"\000\000\000\000\000\000\340\000\000\000"
 584      0000E000 
 584      0000
 585              		.text
 586              		.section	.gnu.lto_.opts,"",%progbits
 587 0000 272D666E 		.ascii	"'-fno-trapv' '-mcpu=cortex-m3' '-mthumb' '-g' '-O3'"
 587      6F2D7472 
 587      61707627 
 587      20272D6D 
 587      6370753D 
 588 0033 20272D66 		.ascii	" '-ffunction-sections' '-finline-functions' '-flto'"
 588      66756E63 
 588      74696F6E 
 588      2D736563 
 588      74696F6E 
 589 0066 20272D66 		.ascii	" '-ffat-lto-objects'\000"
 589      6661742D 
 589      6C746F2D 
 589      6F626A65 
 589      63747327 
 590              		.text
 591              		.cfi_sections	.debug_frame
 592              		.section	.text.Injection_1_Start,"ax",%progbits
 593              		.align	2
 594              		.global	Injection_1_Start
 595              		.thumb
 596              		.thumb_func
 597              		.type	Injection_1_Start, %function
 598              	Injection_1_Start:
 599              	.LFB0:
 600              		.file 1 "Generated_Source\\PSoC5\\Injection_1.c"
   1:Generated_Source\PSoC5/Injection_1.c **** /*******************************************************************************
   2:Generated_Source\PSoC5/Injection_1.c **** * File Name: Injection_1.c
   3:Generated_Source\PSoC5/Injection_1.c **** * Version 3.30
   4:Generated_Source\PSoC5/Injection_1.c **** *
   5:Generated_Source\PSoC5/Injection_1.c **** * Description:
   6:Generated_Source\PSoC5/Injection_1.c **** *  The PWM User Module consist of an 8 or 16-bit counter with two 8 or 16-bit
   7:Generated_Source\PSoC5/Injection_1.c **** *  comparitors. Each instance of this user module is capable of generating
   8:Generated_Source\PSoC5/Injection_1.c **** *  two PWM outputs with the same period. The pulse width is selectable between
   9:Generated_Source\PSoC5/Injection_1.c **** *  1 and 255/65535. The period is selectable between 2 and 255/65536 clocks.
  10:Generated_Source\PSoC5/Injection_1.c **** *  The compare value output may be configured to be active when the present
  11:Generated_Source\PSoC5/Injection_1.c **** *  counter is less than or less than/equal to the compare value.
  12:Generated_Source\PSoC5/Injection_1.c **** *  A terminal count output is also provided. It generates a pulse one clock
  13:Generated_Source\PSoC5/Injection_1.c **** *  width wide when the counter is equal to zero.
  14:Generated_Source\PSoC5/Injection_1.c **** *
  15:Generated_Source\PSoC5/Injection_1.c **** * Note:
  16:Generated_Source\PSoC5/Injection_1.c **** *
  17:Generated_Source\PSoC5/Injection_1.c **** *******************************************************************************
  18:Generated_Source\PSoC5/Injection_1.c **** * Copyright 2008-2014, Cypress Semiconductor Corporation.  All rights reserved.
  19:Generated_Source\PSoC5/Injection_1.c **** * You may use this file only in accordance with the license, terms, conditions,
  20:Generated_Source\PSoC5/Injection_1.c **** * disclaimers, and limitations in the end user license agreement accompanying
  21:Generated_Source\PSoC5/Injection_1.c **** * the software package with which this file was provided.
  22:Generated_Source\PSoC5/Injection_1.c **** ********************************************************************************/
  23:Generated_Source\PSoC5/Injection_1.c **** 
ARM GAS  C:\Users\Bruger\AppData\Local\Temp\ccPhhSKd.s 			page 46


  24:Generated_Source\PSoC5/Injection_1.c **** #include "Injection_1.h"
  25:Generated_Source\PSoC5/Injection_1.c **** 
  26:Generated_Source\PSoC5/Injection_1.c **** /* Error message for removed <resource> through optimization */
  27:Generated_Source\PSoC5/Injection_1.c **** #ifdef Injection_1_PWMUDB_genblk1_ctrlreg__REMOVED
  28:Generated_Source\PSoC5/Injection_1.c ****     #error PWM_v3_30 detected with a constant 0 for the enable or \
  29:Generated_Source\PSoC5/Injection_1.c ****          constant 1 for reset. This will prevent the component from operating.
  30:Generated_Source\PSoC5/Injection_1.c **** #endif /* Injection_1_PWMUDB_genblk1_ctrlreg__REMOVED */
  31:Generated_Source\PSoC5/Injection_1.c **** 
  32:Generated_Source\PSoC5/Injection_1.c **** uint8 Injection_1_initVar = 0u;
  33:Generated_Source\PSoC5/Injection_1.c **** 
  34:Generated_Source\PSoC5/Injection_1.c **** 
  35:Generated_Source\PSoC5/Injection_1.c **** /*******************************************************************************
  36:Generated_Source\PSoC5/Injection_1.c **** * Function Name: Injection_1_Start
  37:Generated_Source\PSoC5/Injection_1.c **** ********************************************************************************
  38:Generated_Source\PSoC5/Injection_1.c **** *
  39:Generated_Source\PSoC5/Injection_1.c **** * Summary:
  40:Generated_Source\PSoC5/Injection_1.c **** *  The start function initializes the pwm with the default values, the
  41:Generated_Source\PSoC5/Injection_1.c **** *  enables the counter to begin counting.  It does not enable interrupts,
  42:Generated_Source\PSoC5/Injection_1.c **** *  the EnableInt command should be called if interrupt generation is required.
  43:Generated_Source\PSoC5/Injection_1.c **** *
  44:Generated_Source\PSoC5/Injection_1.c **** * Parameters:
  45:Generated_Source\PSoC5/Injection_1.c **** *  None
  46:Generated_Source\PSoC5/Injection_1.c **** *
  47:Generated_Source\PSoC5/Injection_1.c **** * Return:
  48:Generated_Source\PSoC5/Injection_1.c **** *  None
  49:Generated_Source\PSoC5/Injection_1.c **** *
  50:Generated_Source\PSoC5/Injection_1.c **** * Global variables:
  51:Generated_Source\PSoC5/Injection_1.c **** *  Injection_1_initVar: Is modified when this function is called for the
  52:Generated_Source\PSoC5/Injection_1.c **** *   first time. Is used to ensure that initialization happens only once.
  53:Generated_Source\PSoC5/Injection_1.c **** *
  54:Generated_Source\PSoC5/Injection_1.c **** *******************************************************************************/
  55:Generated_Source\PSoC5/Injection_1.c **** void Injection_1_Start(void) 
  56:Generated_Source\PSoC5/Injection_1.c **** {
 601              		.loc 1 56 0
 602              		.cfi_startproc
 603              		@ args = 0, pretend = 0, frame = 0
 604              		@ frame_needed = 0, uses_anonymous_args = 0
 605 0000 F8B5     		push	{r3, r4, r5, r6, r7, lr}
 606              		.cfi_def_cfa_offset 24
 607              		.cfi_offset 3, -24
 608              		.cfi_offset 4, -20
 609              		.cfi_offset 5, -16
 610              		.cfi_offset 6, -12
 611              		.cfi_offset 7, -8
 612              		.cfi_offset 14, -4
  57:Generated_Source\PSoC5/Injection_1.c ****     /* If not Initialized then initialize all required hardware and software */
  58:Generated_Source\PSoC5/Injection_1.c ****     if(Injection_1_initVar == 0u)
 613              		.loc 1 58 0
 614 0002 1F4C     		ldr	r4, .L13
 615 0004 2378     		ldrb	r3, [r4]	@ zero_extendqisi2
 616 0006 2BB1     		cbz	r3, .L12
 617              	.L2:
 618              	.LBB40:
 619              	.LBB41:
  59:Generated_Source\PSoC5/Injection_1.c ****     {
  60:Generated_Source\PSoC5/Injection_1.c ****         Injection_1_Init();
  61:Generated_Source\PSoC5/Injection_1.c ****         Injection_1_initVar = 1u;
ARM GAS  C:\Users\Bruger\AppData\Local\Temp\ccPhhSKd.s 			page 47


  62:Generated_Source\PSoC5/Injection_1.c ****     }
  63:Generated_Source\PSoC5/Injection_1.c ****     Injection_1_Enable();
  64:Generated_Source\PSoC5/Injection_1.c **** 
  65:Generated_Source\PSoC5/Injection_1.c **** }
  66:Generated_Source\PSoC5/Injection_1.c **** 
  67:Generated_Source\PSoC5/Injection_1.c **** 
  68:Generated_Source\PSoC5/Injection_1.c **** /*******************************************************************************
  69:Generated_Source\PSoC5/Injection_1.c **** * Function Name: Injection_1_Init
  70:Generated_Source\PSoC5/Injection_1.c **** ********************************************************************************
  71:Generated_Source\PSoC5/Injection_1.c **** *
  72:Generated_Source\PSoC5/Injection_1.c **** * Summary:
  73:Generated_Source\PSoC5/Injection_1.c **** *  Initialize component's parameters to the parameters set by user in the
  74:Generated_Source\PSoC5/Injection_1.c **** *  customizer of the component placed onto schematic. Usually called in
  75:Generated_Source\PSoC5/Injection_1.c **** *  Injection_1_Start().
  76:Generated_Source\PSoC5/Injection_1.c **** *
  77:Generated_Source\PSoC5/Injection_1.c **** * Parameters:
  78:Generated_Source\PSoC5/Injection_1.c **** *  None
  79:Generated_Source\PSoC5/Injection_1.c **** *
  80:Generated_Source\PSoC5/Injection_1.c **** * Return:
  81:Generated_Source\PSoC5/Injection_1.c **** *  None
  82:Generated_Source\PSoC5/Injection_1.c **** *
  83:Generated_Source\PSoC5/Injection_1.c **** *******************************************************************************/
  84:Generated_Source\PSoC5/Injection_1.c **** void Injection_1_Init(void) 
  85:Generated_Source\PSoC5/Injection_1.c **** {
  86:Generated_Source\PSoC5/Injection_1.c ****     #if (Injection_1_UsingFixedFunction || Injection_1_UseControl)
  87:Generated_Source\PSoC5/Injection_1.c ****         uint8 ctrl;
  88:Generated_Source\PSoC5/Injection_1.c ****     #endif /* (Injection_1_UsingFixedFunction || Injection_1_UseControl) */
  89:Generated_Source\PSoC5/Injection_1.c **** 
  90:Generated_Source\PSoC5/Injection_1.c ****     #if(!Injection_1_UsingFixedFunction)
  91:Generated_Source\PSoC5/Injection_1.c ****         #if(Injection_1_UseStatus)
  92:Generated_Source\PSoC5/Injection_1.c ****             /* Interrupt State Backup for Critical Region*/
  93:Generated_Source\PSoC5/Injection_1.c ****             uint8 Injection_1_interruptState;
  94:Generated_Source\PSoC5/Injection_1.c ****         #endif /* (Injection_1_UseStatus) */
  95:Generated_Source\PSoC5/Injection_1.c ****     #endif /* (!Injection_1_UsingFixedFunction) */
  96:Generated_Source\PSoC5/Injection_1.c **** 
  97:Generated_Source\PSoC5/Injection_1.c ****     #if (Injection_1_UsingFixedFunction)
  98:Generated_Source\PSoC5/Injection_1.c ****         /* You are allowed to write the compare value (FF only) */
  99:Generated_Source\PSoC5/Injection_1.c ****         Injection_1_CONTROL |= Injection_1_CFG0_MODE;
 100:Generated_Source\PSoC5/Injection_1.c ****         #if (Injection_1_DeadBand2_4)
 101:Generated_Source\PSoC5/Injection_1.c ****             Injection_1_CONTROL |= Injection_1_CFG0_DB;
 102:Generated_Source\PSoC5/Injection_1.c ****         #endif /* (Injection_1_DeadBand2_4) */
 103:Generated_Source\PSoC5/Injection_1.c **** 
 104:Generated_Source\PSoC5/Injection_1.c ****         ctrl = Injection_1_CONTROL3 & ((uint8 )(~Injection_1_CTRL_CMPMODE1_MASK));
 105:Generated_Source\PSoC5/Injection_1.c ****         Injection_1_CONTROL3 = ctrl | Injection_1_DEFAULT_COMPARE1_MODE;
 106:Generated_Source\PSoC5/Injection_1.c **** 
 107:Generated_Source\PSoC5/Injection_1.c ****          /* Clear and Set SYNCTC and SYNCCMP bits of RT1 register */
 108:Generated_Source\PSoC5/Injection_1.c ****         Injection_1_RT1 &= ((uint8)(~Injection_1_RT1_MASK));
 109:Generated_Source\PSoC5/Injection_1.c ****         Injection_1_RT1 |= Injection_1_SYNC;
 110:Generated_Source\PSoC5/Injection_1.c **** 
 111:Generated_Source\PSoC5/Injection_1.c ****         /*Enable DSI Sync all all inputs of the PWM*/
 112:Generated_Source\PSoC5/Injection_1.c ****         Injection_1_RT1 &= ((uint8)(~Injection_1_SYNCDSI_MASK));
 113:Generated_Source\PSoC5/Injection_1.c ****         Injection_1_RT1 |= Injection_1_SYNCDSI_EN;
 114:Generated_Source\PSoC5/Injection_1.c **** 
 115:Generated_Source\PSoC5/Injection_1.c ****     #elif (Injection_1_UseControl)
 116:Generated_Source\PSoC5/Injection_1.c ****         /* Set the default compare mode defined in the parameter */
 117:Generated_Source\PSoC5/Injection_1.c ****         ctrl = Injection_1_CONTROL & ((uint8)(~Injection_1_CTRL_CMPMODE2_MASK)) &
 118:Generated_Source\PSoC5/Injection_1.c ****                 ((uint8)(~Injection_1_CTRL_CMPMODE1_MASK));
ARM GAS  C:\Users\Bruger\AppData\Local\Temp\ccPhhSKd.s 			page 48


 119:Generated_Source\PSoC5/Injection_1.c ****         Injection_1_CONTROL = ctrl | Injection_1_DEFAULT_COMPARE2_MODE |
 120:Generated_Source\PSoC5/Injection_1.c ****                                    Injection_1_DEFAULT_COMPARE1_MODE;
 121:Generated_Source\PSoC5/Injection_1.c ****     #endif /* (Injection_1_UsingFixedFunction) */
 122:Generated_Source\PSoC5/Injection_1.c **** 
 123:Generated_Source\PSoC5/Injection_1.c ****     #if (!Injection_1_UsingFixedFunction)
 124:Generated_Source\PSoC5/Injection_1.c ****         #if (Injection_1_Resolution == 8)
 125:Generated_Source\PSoC5/Injection_1.c ****             /* Set FIFO 0 to 1 byte register for period*/
 126:Generated_Source\PSoC5/Injection_1.c ****             Injection_1_AUX_CONTROLDP0 |= (Injection_1_AUX_CTRL_FIFO0_CLR);
 127:Generated_Source\PSoC5/Injection_1.c ****         #else /* (Injection_1_Resolution == 16)*/
 128:Generated_Source\PSoC5/Injection_1.c ****             /* Set FIFO 0 to 1 byte register for period */
 129:Generated_Source\PSoC5/Injection_1.c ****             Injection_1_AUX_CONTROLDP0 |= (Injection_1_AUX_CTRL_FIFO0_CLR);
 130:Generated_Source\PSoC5/Injection_1.c ****             Injection_1_AUX_CONTROLDP1 |= (Injection_1_AUX_CTRL_FIFO0_CLR);
 131:Generated_Source\PSoC5/Injection_1.c ****         #endif /* (Injection_1_Resolution == 8) */
 132:Generated_Source\PSoC5/Injection_1.c **** 
 133:Generated_Source\PSoC5/Injection_1.c ****         Injection_1_WriteCounter(Injection_1_INIT_PERIOD_VALUE);
 134:Generated_Source\PSoC5/Injection_1.c ****     #endif /* (!Injection_1_UsingFixedFunction) */
 135:Generated_Source\PSoC5/Injection_1.c **** 
 136:Generated_Source\PSoC5/Injection_1.c ****     Injection_1_WritePeriod(Injection_1_INIT_PERIOD_VALUE);
 137:Generated_Source\PSoC5/Injection_1.c **** 
 138:Generated_Source\PSoC5/Injection_1.c ****         #if (Injection_1_UseOneCompareMode)
 139:Generated_Source\PSoC5/Injection_1.c ****             Injection_1_WriteCompare(Injection_1_INIT_COMPARE_VALUE1);
 140:Generated_Source\PSoC5/Injection_1.c ****         #else
 141:Generated_Source\PSoC5/Injection_1.c ****             Injection_1_WriteCompare1(Injection_1_INIT_COMPARE_VALUE1);
 142:Generated_Source\PSoC5/Injection_1.c ****             Injection_1_WriteCompare2(Injection_1_INIT_COMPARE_VALUE2);
 143:Generated_Source\PSoC5/Injection_1.c ****         #endif /* (Injection_1_UseOneCompareMode) */
 144:Generated_Source\PSoC5/Injection_1.c **** 
 145:Generated_Source\PSoC5/Injection_1.c ****         #if (Injection_1_KillModeMinTime)
 146:Generated_Source\PSoC5/Injection_1.c ****             Injection_1_WriteKillTime(Injection_1_MinimumKillTime);
 147:Generated_Source\PSoC5/Injection_1.c ****         #endif /* (Injection_1_KillModeMinTime) */
 148:Generated_Source\PSoC5/Injection_1.c **** 
 149:Generated_Source\PSoC5/Injection_1.c ****         #if (Injection_1_DeadBandUsed)
 150:Generated_Source\PSoC5/Injection_1.c ****             Injection_1_WriteDeadTime(Injection_1_INIT_DEAD_TIME);
 151:Generated_Source\PSoC5/Injection_1.c ****         #endif /* (Injection_1_DeadBandUsed) */
 152:Generated_Source\PSoC5/Injection_1.c **** 
 153:Generated_Source\PSoC5/Injection_1.c ****     #if (Injection_1_UseStatus || Injection_1_UsingFixedFunction)
 154:Generated_Source\PSoC5/Injection_1.c ****         Injection_1_SetInterruptMode(Injection_1_INIT_INTERRUPTS_MODE);
 155:Generated_Source\PSoC5/Injection_1.c ****     #endif /* (Injection_1_UseStatus || Injection_1_UsingFixedFunction) */
 156:Generated_Source\PSoC5/Injection_1.c **** 
 157:Generated_Source\PSoC5/Injection_1.c ****     #if (Injection_1_UsingFixedFunction)
 158:Generated_Source\PSoC5/Injection_1.c ****         /* Globally Enable the Fixed Function Block chosen */
 159:Generated_Source\PSoC5/Injection_1.c ****         Injection_1_GLOBAL_ENABLE |= Injection_1_BLOCK_EN_MASK;
 160:Generated_Source\PSoC5/Injection_1.c ****         /* Set the Interrupt source to come from the status register */
 161:Generated_Source\PSoC5/Injection_1.c ****         Injection_1_CONTROL2 |= Injection_1_CTRL2_IRQ_SEL;
 162:Generated_Source\PSoC5/Injection_1.c ****     #else
 163:Generated_Source\PSoC5/Injection_1.c ****         #if(Injection_1_UseStatus)
 164:Generated_Source\PSoC5/Injection_1.c **** 
 165:Generated_Source\PSoC5/Injection_1.c ****             /* CyEnterCriticalRegion and CyExitCriticalRegion are used to mark following region cri
 166:Generated_Source\PSoC5/Injection_1.c ****             /* Enter Critical Region*/
 167:Generated_Source\PSoC5/Injection_1.c ****             Injection_1_interruptState = CyEnterCriticalSection();
 168:Generated_Source\PSoC5/Injection_1.c ****             /* Use the interrupt output of the status register for IRQ output */
 169:Generated_Source\PSoC5/Injection_1.c ****             Injection_1_STATUS_AUX_CTRL |= Injection_1_STATUS_ACTL_INT_EN_MASK;
 170:Generated_Source\PSoC5/Injection_1.c **** 
 171:Generated_Source\PSoC5/Injection_1.c ****              /* Exit Critical Region*/
 172:Generated_Source\PSoC5/Injection_1.c ****             CyExitCriticalSection(Injection_1_interruptState);
 173:Generated_Source\PSoC5/Injection_1.c **** 
 174:Generated_Source\PSoC5/Injection_1.c ****             /* Clear the FIFO to enable the Injection_1_STATUS_FIFOFULL
 175:Generated_Source\PSoC5/Injection_1.c ****                    bit to be set on FIFO full. */
ARM GAS  C:\Users\Bruger\AppData\Local\Temp\ccPhhSKd.s 			page 49


 176:Generated_Source\PSoC5/Injection_1.c ****             Injection_1_ClearFIFO();
 177:Generated_Source\PSoC5/Injection_1.c ****         #endif /* (Injection_1_UseStatus) */
 178:Generated_Source\PSoC5/Injection_1.c ****     #endif /* (Injection_1_UsingFixedFunction) */
 179:Generated_Source\PSoC5/Injection_1.c **** }
 180:Generated_Source\PSoC5/Injection_1.c **** 
 181:Generated_Source\PSoC5/Injection_1.c **** 
 182:Generated_Source\PSoC5/Injection_1.c **** /*******************************************************************************
 183:Generated_Source\PSoC5/Injection_1.c **** * Function Name: Injection_1_Enable
 184:Generated_Source\PSoC5/Injection_1.c **** ********************************************************************************
 185:Generated_Source\PSoC5/Injection_1.c **** *
 186:Generated_Source\PSoC5/Injection_1.c **** * Summary:
 187:Generated_Source\PSoC5/Injection_1.c **** *  Enables the PWM block operation
 188:Generated_Source\PSoC5/Injection_1.c **** *
 189:Generated_Source\PSoC5/Injection_1.c **** * Parameters:
 190:Generated_Source\PSoC5/Injection_1.c **** *  None
 191:Generated_Source\PSoC5/Injection_1.c **** *
 192:Generated_Source\PSoC5/Injection_1.c **** * Return:
 193:Generated_Source\PSoC5/Injection_1.c **** *  None
 194:Generated_Source\PSoC5/Injection_1.c **** *
 195:Generated_Source\PSoC5/Injection_1.c **** * Side Effects:
 196:Generated_Source\PSoC5/Injection_1.c **** *  This works only if software enable mode is chosen
 197:Generated_Source\PSoC5/Injection_1.c **** *
 198:Generated_Source\PSoC5/Injection_1.c **** *******************************************************************************/
 199:Generated_Source\PSoC5/Injection_1.c **** void Injection_1_Enable(void) 
 200:Generated_Source\PSoC5/Injection_1.c **** {
 201:Generated_Source\PSoC5/Injection_1.c ****     /* Globally Enable the Fixed Function Block chosen */
 202:Generated_Source\PSoC5/Injection_1.c ****     #if (Injection_1_UsingFixedFunction)
 203:Generated_Source\PSoC5/Injection_1.c ****         Injection_1_GLOBAL_ENABLE |= Injection_1_BLOCK_EN_MASK;
 204:Generated_Source\PSoC5/Injection_1.c ****         Injection_1_GLOBAL_STBY_ENABLE |= Injection_1_BLOCK_STBY_EN_MASK;
 205:Generated_Source\PSoC5/Injection_1.c ****     #endif /* (Injection_1_UsingFixedFunction) */
 206:Generated_Source\PSoC5/Injection_1.c **** 
 207:Generated_Source\PSoC5/Injection_1.c ****     /* Enable the PWM from the control register  */
 208:Generated_Source\PSoC5/Injection_1.c ****     #if (Injection_1_UseControl || Injection_1_UsingFixedFunction)
 209:Generated_Source\PSoC5/Injection_1.c ****         Injection_1_CONTROL |= Injection_1_CTRL_ENABLE;
 620              		.loc 1 209 0
 621 0008 1E4A     		ldr	r2, .L13+4
 622 000a 1378     		ldrb	r3, [r2]	@ zero_extendqisi2
 623 000c 43F08003 		orr	r3, r3, #128
 624 0010 1370     		strb	r3, [r2]
 625 0012 F8BD     		pop	{r3, r4, r5, r6, r7, pc}
 626              	.L12:
 627              	.LBE41:
 628              	.LBE40:
 629              	.LBB42:
 630              	.LBB43:
 631              	.LBB44:
 632              	.LBB45:
 210:Generated_Source\PSoC5/Injection_1.c ****     #endif /* (Injection_1_UseControl || Injection_1_UsingFixedFunction) */
 211:Generated_Source\PSoC5/Injection_1.c **** }
 212:Generated_Source\PSoC5/Injection_1.c **** 
 213:Generated_Source\PSoC5/Injection_1.c **** 
 214:Generated_Source\PSoC5/Injection_1.c **** /*******************************************************************************
 215:Generated_Source\PSoC5/Injection_1.c **** * Function Name: Injection_1_Stop
 216:Generated_Source\PSoC5/Injection_1.c **** ********************************************************************************
 217:Generated_Source\PSoC5/Injection_1.c **** *
 218:Generated_Source\PSoC5/Injection_1.c **** * Summary:
 219:Generated_Source\PSoC5/Injection_1.c **** *  The stop function halts the PWM, but does not change any modes or disable
ARM GAS  C:\Users\Bruger\AppData\Local\Temp\ccPhhSKd.s 			page 50


 220:Generated_Source\PSoC5/Injection_1.c **** *  interrupts.
 221:Generated_Source\PSoC5/Injection_1.c **** *
 222:Generated_Source\PSoC5/Injection_1.c **** * Parameters:
 223:Generated_Source\PSoC5/Injection_1.c **** *  None
 224:Generated_Source\PSoC5/Injection_1.c **** *
 225:Generated_Source\PSoC5/Injection_1.c **** * Return:
 226:Generated_Source\PSoC5/Injection_1.c **** *  None
 227:Generated_Source\PSoC5/Injection_1.c **** *
 228:Generated_Source\PSoC5/Injection_1.c **** * Side Effects:
 229:Generated_Source\PSoC5/Injection_1.c **** *  If the Enable mode is set to Hardware only then this function
 230:Generated_Source\PSoC5/Injection_1.c **** *  has no effect on the operation of the PWM
 231:Generated_Source\PSoC5/Injection_1.c **** *
 232:Generated_Source\PSoC5/Injection_1.c **** *******************************************************************************/
 233:Generated_Source\PSoC5/Injection_1.c **** void Injection_1_Stop(void) 
 234:Generated_Source\PSoC5/Injection_1.c **** {
 235:Generated_Source\PSoC5/Injection_1.c ****     #if (Injection_1_UseControl || Injection_1_UsingFixedFunction)
 236:Generated_Source\PSoC5/Injection_1.c ****         Injection_1_CONTROL &= ((uint8)(~Injection_1_CTRL_ENABLE));
 237:Generated_Source\PSoC5/Injection_1.c ****     #endif /* (Injection_1_UseControl || Injection_1_UsingFixedFunction) */
 238:Generated_Source\PSoC5/Injection_1.c **** 
 239:Generated_Source\PSoC5/Injection_1.c ****     /* Globally disable the Fixed Function Block chosen */
 240:Generated_Source\PSoC5/Injection_1.c ****     #if (Injection_1_UsingFixedFunction)
 241:Generated_Source\PSoC5/Injection_1.c ****         Injection_1_GLOBAL_ENABLE &= ((uint8)(~Injection_1_BLOCK_EN_MASK));
 242:Generated_Source\PSoC5/Injection_1.c ****         Injection_1_GLOBAL_STBY_ENABLE &= ((uint8)(~Injection_1_BLOCK_STBY_EN_MASK));
 243:Generated_Source\PSoC5/Injection_1.c ****     #endif /* (Injection_1_UsingFixedFunction) */
 244:Generated_Source\PSoC5/Injection_1.c **** }
 245:Generated_Source\PSoC5/Injection_1.c **** 
 246:Generated_Source\PSoC5/Injection_1.c **** #if (Injection_1_UseOneCompareMode)
 247:Generated_Source\PSoC5/Injection_1.c ****     #if (Injection_1_CompareMode1SW)
 248:Generated_Source\PSoC5/Injection_1.c **** 
 249:Generated_Source\PSoC5/Injection_1.c **** 
 250:Generated_Source\PSoC5/Injection_1.c ****         /*******************************************************************************
 251:Generated_Source\PSoC5/Injection_1.c ****         * Function Name: Injection_1_SetCompareMode
 252:Generated_Source\PSoC5/Injection_1.c ****         ********************************************************************************
 253:Generated_Source\PSoC5/Injection_1.c ****         *
 254:Generated_Source\PSoC5/Injection_1.c ****         * Summary:
 255:Generated_Source\PSoC5/Injection_1.c ****         *  This function writes the Compare Mode for the pwm output when in Dither mode,
 256:Generated_Source\PSoC5/Injection_1.c ****         *  Center Align Mode or One Output Mode.
 257:Generated_Source\PSoC5/Injection_1.c ****         *
 258:Generated_Source\PSoC5/Injection_1.c ****         * Parameters:
 259:Generated_Source\PSoC5/Injection_1.c ****         *  comparemode:  The new compare mode for the PWM output. Use the compare types
 260:Generated_Source\PSoC5/Injection_1.c ****         *                defined in the H file as input arguments.
 261:Generated_Source\PSoC5/Injection_1.c ****         *
 262:Generated_Source\PSoC5/Injection_1.c ****         * Return:
 263:Generated_Source\PSoC5/Injection_1.c ****         *  None
 264:Generated_Source\PSoC5/Injection_1.c ****         *
 265:Generated_Source\PSoC5/Injection_1.c ****         *******************************************************************************/
 266:Generated_Source\PSoC5/Injection_1.c ****         void Injection_1_SetCompareMode(uint8 comparemode) 
 267:Generated_Source\PSoC5/Injection_1.c ****         {
 268:Generated_Source\PSoC5/Injection_1.c ****             #if(Injection_1_UsingFixedFunction)
 269:Generated_Source\PSoC5/Injection_1.c **** 
 270:Generated_Source\PSoC5/Injection_1.c ****                 #if(0 != Injection_1_CTRL_CMPMODE1_SHIFT)
 271:Generated_Source\PSoC5/Injection_1.c ****                     uint8 comparemodemasked = ((uint8)((uint8)comparemode << Injection_1_CTRL_CMPMO
 272:Generated_Source\PSoC5/Injection_1.c ****                 #else
 273:Generated_Source\PSoC5/Injection_1.c ****                     uint8 comparemodemasked = comparemode;
 274:Generated_Source\PSoC5/Injection_1.c ****                 #endif /* (0 != Injection_1_CTRL_CMPMODE1_SHIFT) */
 275:Generated_Source\PSoC5/Injection_1.c **** 
 276:Generated_Source\PSoC5/Injection_1.c ****                 Injection_1_CONTROL3 &= ((uint8)(~Injection_1_CTRL_CMPMODE1_MASK)); /*Clear Existin
ARM GAS  C:\Users\Bruger\AppData\Local\Temp\ccPhhSKd.s 			page 51


 277:Generated_Source\PSoC5/Injection_1.c ****                 Injection_1_CONTROL3 |= comparemodemasked;
 278:Generated_Source\PSoC5/Injection_1.c **** 
 279:Generated_Source\PSoC5/Injection_1.c ****             #elif (Injection_1_UseControl)
 280:Generated_Source\PSoC5/Injection_1.c **** 
 281:Generated_Source\PSoC5/Injection_1.c ****                 #if(0 != Injection_1_CTRL_CMPMODE1_SHIFT)
 282:Generated_Source\PSoC5/Injection_1.c ****                     uint8 comparemode1masked = ((uint8)((uint8)comparemode << Injection_1_CTRL_CMPM
 283:Generated_Source\PSoC5/Injection_1.c ****                                                 Injection_1_CTRL_CMPMODE1_MASK;
 284:Generated_Source\PSoC5/Injection_1.c ****                 #else
 285:Generated_Source\PSoC5/Injection_1.c ****                     uint8 comparemode1masked = comparemode & Injection_1_CTRL_CMPMODE1_MASK;
 286:Generated_Source\PSoC5/Injection_1.c ****                 #endif /* (0 != Injection_1_CTRL_CMPMODE1_SHIFT) */
 287:Generated_Source\PSoC5/Injection_1.c **** 
 288:Generated_Source\PSoC5/Injection_1.c ****                 #if(0 != Injection_1_CTRL_CMPMODE2_SHIFT)
 289:Generated_Source\PSoC5/Injection_1.c ****                     uint8 comparemode2masked = ((uint8)((uint8)comparemode << Injection_1_CTRL_CMPM
 290:Generated_Source\PSoC5/Injection_1.c ****                                                Injection_1_CTRL_CMPMODE2_MASK;
 291:Generated_Source\PSoC5/Injection_1.c ****                 #else
 292:Generated_Source\PSoC5/Injection_1.c ****                     uint8 comparemode2masked = comparemode & Injection_1_CTRL_CMPMODE2_MASK;
 293:Generated_Source\PSoC5/Injection_1.c ****                 #endif /* (0 != Injection_1_CTRL_CMPMODE2_SHIFT) */
 294:Generated_Source\PSoC5/Injection_1.c **** 
 295:Generated_Source\PSoC5/Injection_1.c ****                 /*Clear existing mode */
 296:Generated_Source\PSoC5/Injection_1.c ****                 Injection_1_CONTROL &= ((uint8)(~(Injection_1_CTRL_CMPMODE1_MASK |
 297:Generated_Source\PSoC5/Injection_1.c ****                                             Injection_1_CTRL_CMPMODE2_MASK)));
 298:Generated_Source\PSoC5/Injection_1.c ****                 Injection_1_CONTROL |= (comparemode1masked | comparemode2masked);
 299:Generated_Source\PSoC5/Injection_1.c **** 
 300:Generated_Source\PSoC5/Injection_1.c ****             #else
 301:Generated_Source\PSoC5/Injection_1.c ****                 uint8 temp = comparemode;
 302:Generated_Source\PSoC5/Injection_1.c ****             #endif /* (Injection_1_UsingFixedFunction) */
 303:Generated_Source\PSoC5/Injection_1.c ****         }
 304:Generated_Source\PSoC5/Injection_1.c ****     #endif /* Injection_1_CompareMode1SW */
 305:Generated_Source\PSoC5/Injection_1.c **** 
 306:Generated_Source\PSoC5/Injection_1.c **** #else /* UseOneCompareMode */
 307:Generated_Source\PSoC5/Injection_1.c **** 
 308:Generated_Source\PSoC5/Injection_1.c ****     #if (Injection_1_CompareMode1SW)
 309:Generated_Source\PSoC5/Injection_1.c **** 
 310:Generated_Source\PSoC5/Injection_1.c **** 
 311:Generated_Source\PSoC5/Injection_1.c ****         /*******************************************************************************
 312:Generated_Source\PSoC5/Injection_1.c ****         * Function Name: Injection_1_SetCompareMode1
 313:Generated_Source\PSoC5/Injection_1.c ****         ********************************************************************************
 314:Generated_Source\PSoC5/Injection_1.c ****         *
 315:Generated_Source\PSoC5/Injection_1.c ****         * Summary:
 316:Generated_Source\PSoC5/Injection_1.c ****         *  This function writes the Compare Mode for the pwm or pwm1 output
 317:Generated_Source\PSoC5/Injection_1.c ****         *
 318:Generated_Source\PSoC5/Injection_1.c ****         * Parameters:
 319:Generated_Source\PSoC5/Injection_1.c ****         *  comparemode:  The new compare mode for the PWM output. Use the compare types
 320:Generated_Source\PSoC5/Injection_1.c ****         *                defined in the H file as input arguments.
 321:Generated_Source\PSoC5/Injection_1.c ****         *
 322:Generated_Source\PSoC5/Injection_1.c ****         * Return:
 323:Generated_Source\PSoC5/Injection_1.c ****         *  None
 324:Generated_Source\PSoC5/Injection_1.c ****         *
 325:Generated_Source\PSoC5/Injection_1.c ****         *******************************************************************************/
 326:Generated_Source\PSoC5/Injection_1.c ****         void Injection_1_SetCompareMode1(uint8 comparemode) 
 327:Generated_Source\PSoC5/Injection_1.c ****         {
 328:Generated_Source\PSoC5/Injection_1.c ****             #if(0 != Injection_1_CTRL_CMPMODE1_SHIFT)
 329:Generated_Source\PSoC5/Injection_1.c ****                 uint8 comparemodemasked = ((uint8)((uint8)comparemode << Injection_1_CTRL_CMPMODE1_
 330:Generated_Source\PSoC5/Injection_1.c ****                                            Injection_1_CTRL_CMPMODE1_MASK;
 331:Generated_Source\PSoC5/Injection_1.c ****             #else
 332:Generated_Source\PSoC5/Injection_1.c ****                 uint8 comparemodemasked = comparemode & Injection_1_CTRL_CMPMODE1_MASK;
 333:Generated_Source\PSoC5/Injection_1.c ****             #endif /* (0 != Injection_1_CTRL_CMPMODE1_SHIFT) */
ARM GAS  C:\Users\Bruger\AppData\Local\Temp\ccPhhSKd.s 			page 52


 334:Generated_Source\PSoC5/Injection_1.c **** 
 335:Generated_Source\PSoC5/Injection_1.c ****             #if (Injection_1_UseControl)
 336:Generated_Source\PSoC5/Injection_1.c ****                 Injection_1_CONTROL &= ((uint8)(~Injection_1_CTRL_CMPMODE1_MASK)); /*Clear existing
 337:Generated_Source\PSoC5/Injection_1.c ****                 Injection_1_CONTROL |= comparemodemasked;
 338:Generated_Source\PSoC5/Injection_1.c ****             #endif /* (Injection_1_UseControl) */
 339:Generated_Source\PSoC5/Injection_1.c ****         }
 340:Generated_Source\PSoC5/Injection_1.c ****     #endif /* Injection_1_CompareMode1SW */
 341:Generated_Source\PSoC5/Injection_1.c **** 
 342:Generated_Source\PSoC5/Injection_1.c **** #if (Injection_1_CompareMode2SW)
 343:Generated_Source\PSoC5/Injection_1.c **** 
 344:Generated_Source\PSoC5/Injection_1.c **** 
 345:Generated_Source\PSoC5/Injection_1.c ****     /*******************************************************************************
 346:Generated_Source\PSoC5/Injection_1.c ****     * Function Name: Injection_1_SetCompareMode2
 347:Generated_Source\PSoC5/Injection_1.c ****     ********************************************************************************
 348:Generated_Source\PSoC5/Injection_1.c ****     *
 349:Generated_Source\PSoC5/Injection_1.c ****     * Summary:
 350:Generated_Source\PSoC5/Injection_1.c ****     *  This function writes the Compare Mode for the pwm or pwm2 output
 351:Generated_Source\PSoC5/Injection_1.c ****     *
 352:Generated_Source\PSoC5/Injection_1.c ****     * Parameters:
 353:Generated_Source\PSoC5/Injection_1.c ****     *  comparemode:  The new compare mode for the PWM output. Use the compare types
 354:Generated_Source\PSoC5/Injection_1.c ****     *                defined in the H file as input arguments.
 355:Generated_Source\PSoC5/Injection_1.c ****     *
 356:Generated_Source\PSoC5/Injection_1.c ****     * Return:
 357:Generated_Source\PSoC5/Injection_1.c ****     *  None
 358:Generated_Source\PSoC5/Injection_1.c ****     *
 359:Generated_Source\PSoC5/Injection_1.c ****     *******************************************************************************/
 360:Generated_Source\PSoC5/Injection_1.c ****     void Injection_1_SetCompareMode2(uint8 comparemode) 
 361:Generated_Source\PSoC5/Injection_1.c ****     {
 362:Generated_Source\PSoC5/Injection_1.c **** 
 363:Generated_Source\PSoC5/Injection_1.c ****         #if(0 != Injection_1_CTRL_CMPMODE2_SHIFT)
 364:Generated_Source\PSoC5/Injection_1.c ****             uint8 comparemodemasked = ((uint8)((uint8)comparemode << Injection_1_CTRL_CMPMODE2_SHIF
 365:Generated_Source\PSoC5/Injection_1.c ****                                                  Injection_1_CTRL_CMPMODE2_MASK;
 366:Generated_Source\PSoC5/Injection_1.c ****         #else
 367:Generated_Source\PSoC5/Injection_1.c ****             uint8 comparemodemasked = comparemode & Injection_1_CTRL_CMPMODE2_MASK;
 368:Generated_Source\PSoC5/Injection_1.c ****         #endif /* (0 != Injection_1_CTRL_CMPMODE2_SHIFT) */
 369:Generated_Source\PSoC5/Injection_1.c **** 
 370:Generated_Source\PSoC5/Injection_1.c ****         #if (Injection_1_UseControl)
 371:Generated_Source\PSoC5/Injection_1.c ****             Injection_1_CONTROL &= ((uint8)(~Injection_1_CTRL_CMPMODE2_MASK)); /*Clear existing mod
 372:Generated_Source\PSoC5/Injection_1.c ****             Injection_1_CONTROL |= comparemodemasked;
 373:Generated_Source\PSoC5/Injection_1.c ****         #endif /* (Injection_1_UseControl) */
 374:Generated_Source\PSoC5/Injection_1.c ****     }
 375:Generated_Source\PSoC5/Injection_1.c ****     #endif /*Injection_1_CompareMode2SW */
 376:Generated_Source\PSoC5/Injection_1.c **** 
 377:Generated_Source\PSoC5/Injection_1.c **** #endif /* UseOneCompareMode */
 378:Generated_Source\PSoC5/Injection_1.c **** 
 379:Generated_Source\PSoC5/Injection_1.c **** 
 380:Generated_Source\PSoC5/Injection_1.c **** #if (!Injection_1_UsingFixedFunction)
 381:Generated_Source\PSoC5/Injection_1.c **** 
 382:Generated_Source\PSoC5/Injection_1.c **** 
 383:Generated_Source\PSoC5/Injection_1.c ****     /*******************************************************************************
 384:Generated_Source\PSoC5/Injection_1.c ****     * Function Name: Injection_1_WriteCounter
 385:Generated_Source\PSoC5/Injection_1.c ****     ********************************************************************************
 386:Generated_Source\PSoC5/Injection_1.c ****     *
 387:Generated_Source\PSoC5/Injection_1.c ****     * Summary:
 388:Generated_Source\PSoC5/Injection_1.c ****     *  Writes a new counter value directly to the counter register. This will be
 389:Generated_Source\PSoC5/Injection_1.c ****     *  implemented for that currently running period and only that period. This API
 390:Generated_Source\PSoC5/Injection_1.c ****     *  is valid only for UDB implementation and not available for fixed function
ARM GAS  C:\Users\Bruger\AppData\Local\Temp\ccPhhSKd.s 			page 53


 391:Generated_Source\PSoC5/Injection_1.c ****     *  PWM implementation.
 392:Generated_Source\PSoC5/Injection_1.c ****     *
 393:Generated_Source\PSoC5/Injection_1.c ****     * Parameters:
 394:Generated_Source\PSoC5/Injection_1.c ****     *  counter:  The period new period counter value.
 395:Generated_Source\PSoC5/Injection_1.c ****     *
 396:Generated_Source\PSoC5/Injection_1.c ****     * Return:
 397:Generated_Source\PSoC5/Injection_1.c ****     *  None
 398:Generated_Source\PSoC5/Injection_1.c ****     *
 399:Generated_Source\PSoC5/Injection_1.c ****     * Side Effects:
 400:Generated_Source\PSoC5/Injection_1.c ****     *  The PWM Period will be reloaded when a counter value will be a zero
 401:Generated_Source\PSoC5/Injection_1.c ****     *
 402:Generated_Source\PSoC5/Injection_1.c ****     *******************************************************************************/
 403:Generated_Source\PSoC5/Injection_1.c ****     void Injection_1_WriteCounter(uint16 counter) \
 404:Generated_Source\PSoC5/Injection_1.c ****                                        
 405:Generated_Source\PSoC5/Injection_1.c ****     {
 406:Generated_Source\PSoC5/Injection_1.c ****         CY_SET_REG16(Injection_1_COUNTER_LSB_PTR, counter);
 633              		.loc 1 406 0
 634 0014 4AF6C871 		movw	r1, #45000
 635              	.LBE45:
 636              	.LBE44:
 117:Generated_Source\PSoC5/Injection_1.c ****                 ((uint8)(~Injection_1_CTRL_CMPMODE1_MASK));
 637              		.loc 1 117 0
 638 0018 1A4E     		ldr	r6, .L13+4
 129:Generated_Source\PSoC5/Injection_1.c ****             Injection_1_AUX_CONTROLDP1 |= (Injection_1_AUX_CTRL_FIFO0_CLR);
 639              		.loc 1 129 0
 640 001a 1B48     		ldr	r0, .L13+8
 117:Generated_Source\PSoC5/Injection_1.c ****                 ((uint8)(~Injection_1_CTRL_CMPMODE1_MASK));
 641              		.loc 1 117 0
 642 001c 3278     		ldrb	r2, [r6]	@ zero_extendqisi2
 643              	.LVL0:
 130:Generated_Source\PSoC5/Injection_1.c ****         #endif /* (Injection_1_Resolution == 8) */
 644              		.loc 1 130 0
 645 001e 1B4D     		ldr	r5, .L13+12
 117:Generated_Source\PSoC5/Injection_1.c ****                 ((uint8)(~Injection_1_CTRL_CMPMODE1_MASK));
 646              		.loc 1 117 0
 647 0020 02F0C002 		and	r2, r2, #192
 648              	.LVL1:
 119:Generated_Source\PSoC5/Injection_1.c ****                                    Injection_1_DEFAULT_COMPARE1_MODE;
 649              		.loc 1 119 0
 650 0024 42F00902 		orr	r2, r2, #9
 651 0028 3270     		strb	r2, [r6]
 129:Generated_Source\PSoC5/Injection_1.c ****             Injection_1_AUX_CONTROLDP1 |= (Injection_1_AUX_CTRL_FIFO0_CLR);
 652              		.loc 1 129 0
 653 002a 0278     		ldrb	r2, [r0]	@ zero_extendqisi2
 654              	.LBB48:
 655              	.LBB46:
 656              		.loc 1 406 0
 657 002c DFF868C0 		ldr	ip, .L13+24
 658              	.LBE46:
 659              	.LBE48:
 129:Generated_Source\PSoC5/Injection_1.c ****             Injection_1_AUX_CONTROLDP1 |= (Injection_1_AUX_CTRL_FIFO0_CLR);
 660              		.loc 1 129 0
 661 0030 42F00102 		orr	r2, r2, #1
 662 0034 0270     		strb	r2, [r0]
 130:Generated_Source\PSoC5/Injection_1.c ****         #endif /* (Injection_1_Resolution == 8) */
 663              		.loc 1 130 0
 664 0036 2A78     		ldrb	r2, [r5]	@ zero_extendqisi2
ARM GAS  C:\Users\Bruger\AppData\Local\Temp\ccPhhSKd.s 			page 54


 665              	.LBB49:
 666              	.LBB50:
 407:Generated_Source\PSoC5/Injection_1.c ****     }
 408:Generated_Source\PSoC5/Injection_1.c **** 
 409:Generated_Source\PSoC5/Injection_1.c **** 
 410:Generated_Source\PSoC5/Injection_1.c ****     /*******************************************************************************
 411:Generated_Source\PSoC5/Injection_1.c ****     * Function Name: Injection_1_ReadCounter
 412:Generated_Source\PSoC5/Injection_1.c ****     ********************************************************************************
 413:Generated_Source\PSoC5/Injection_1.c ****     *
 414:Generated_Source\PSoC5/Injection_1.c ****     * Summary:
 415:Generated_Source\PSoC5/Injection_1.c ****     *  This function returns the current value of the counter.  It doesn't matter
 416:Generated_Source\PSoC5/Injection_1.c ****     *  if the counter is enabled or running.
 417:Generated_Source\PSoC5/Injection_1.c ****     *
 418:Generated_Source\PSoC5/Injection_1.c ****     * Parameters:
 419:Generated_Source\PSoC5/Injection_1.c ****     *  None
 420:Generated_Source\PSoC5/Injection_1.c ****     *
 421:Generated_Source\PSoC5/Injection_1.c ****     * Return:
 422:Generated_Source\PSoC5/Injection_1.c ****     *  The current value of the counter.
 423:Generated_Source\PSoC5/Injection_1.c ****     *
 424:Generated_Source\PSoC5/Injection_1.c ****     *******************************************************************************/
 425:Generated_Source\PSoC5/Injection_1.c ****     uint16 Injection_1_ReadCounter(void) 
 426:Generated_Source\PSoC5/Injection_1.c ****     {
 427:Generated_Source\PSoC5/Injection_1.c ****         /* Force capture by reading Accumulator */
 428:Generated_Source\PSoC5/Injection_1.c ****         /* Must first do a software capture to be able to read the counter */
 429:Generated_Source\PSoC5/Injection_1.c ****         /* It is up to the user code to make sure there isn't already captured data in the FIFO */
 430:Generated_Source\PSoC5/Injection_1.c ****           (void)CY_GET_REG8(Injection_1_COUNTERCAP_LSB_PTR_8BIT);
 431:Generated_Source\PSoC5/Injection_1.c **** 
 432:Generated_Source\PSoC5/Injection_1.c ****         /* Read the data from the FIFO */
 433:Generated_Source\PSoC5/Injection_1.c ****         return (CY_GET_REG16(Injection_1_CAPTURE_LSB_PTR));
 434:Generated_Source\PSoC5/Injection_1.c ****     }
 435:Generated_Source\PSoC5/Injection_1.c **** 
 436:Generated_Source\PSoC5/Injection_1.c ****     #if (Injection_1_UseStatus)
 437:Generated_Source\PSoC5/Injection_1.c **** 
 438:Generated_Source\PSoC5/Injection_1.c **** 
 439:Generated_Source\PSoC5/Injection_1.c ****         /*******************************************************************************
 440:Generated_Source\PSoC5/Injection_1.c ****         * Function Name: Injection_1_ClearFIFO
 441:Generated_Source\PSoC5/Injection_1.c ****         ********************************************************************************
 442:Generated_Source\PSoC5/Injection_1.c ****         *
 443:Generated_Source\PSoC5/Injection_1.c ****         * Summary:
 444:Generated_Source\PSoC5/Injection_1.c ****         *  This function clears all capture data from the capture FIFO
 445:Generated_Source\PSoC5/Injection_1.c ****         *
 446:Generated_Source\PSoC5/Injection_1.c ****         * Parameters:
 447:Generated_Source\PSoC5/Injection_1.c ****         *  None
 448:Generated_Source\PSoC5/Injection_1.c ****         *
 449:Generated_Source\PSoC5/Injection_1.c ****         * Return:
 450:Generated_Source\PSoC5/Injection_1.c ****         *  None
 451:Generated_Source\PSoC5/Injection_1.c ****         *
 452:Generated_Source\PSoC5/Injection_1.c ****         *******************************************************************************/
 453:Generated_Source\PSoC5/Injection_1.c ****         void Injection_1_ClearFIFO(void) 
 454:Generated_Source\PSoC5/Injection_1.c ****         {
 455:Generated_Source\PSoC5/Injection_1.c ****             while(0u != (Injection_1_ReadStatusRegister() & Injection_1_STATUS_FIFONEMPTY))
 456:Generated_Source\PSoC5/Injection_1.c ****             {
 457:Generated_Source\PSoC5/Injection_1.c ****                 (void)Injection_1_ReadCapture();
 458:Generated_Source\PSoC5/Injection_1.c ****             }
 459:Generated_Source\PSoC5/Injection_1.c ****         }
 460:Generated_Source\PSoC5/Injection_1.c **** 
 461:Generated_Source\PSoC5/Injection_1.c ****     #endif /* Injection_1_UseStatus */
ARM GAS  C:\Users\Bruger\AppData\Local\Temp\ccPhhSKd.s 			page 55


 462:Generated_Source\PSoC5/Injection_1.c **** 
 463:Generated_Source\PSoC5/Injection_1.c **** #endif /* !Injection_1_UsingFixedFunction */
 464:Generated_Source\PSoC5/Injection_1.c **** 
 465:Generated_Source\PSoC5/Injection_1.c **** 
 466:Generated_Source\PSoC5/Injection_1.c **** /*******************************************************************************
 467:Generated_Source\PSoC5/Injection_1.c **** * Function Name: Injection_1_WritePeriod
 468:Generated_Source\PSoC5/Injection_1.c **** ********************************************************************************
 469:Generated_Source\PSoC5/Injection_1.c **** *
 470:Generated_Source\PSoC5/Injection_1.c **** * Summary:
 471:Generated_Source\PSoC5/Injection_1.c **** *  This function is used to change the period of the counter.  The new period
 472:Generated_Source\PSoC5/Injection_1.c **** *  will be loaded the next time terminal count is detected.
 473:Generated_Source\PSoC5/Injection_1.c **** *
 474:Generated_Source\PSoC5/Injection_1.c **** * Parameters:
 475:Generated_Source\PSoC5/Injection_1.c **** *  period:  Period value. May be between 1 and (2^Resolution)-1.  A value of 0
 476:Generated_Source\PSoC5/Injection_1.c **** *           will result in the counter remaining at zero.
 477:Generated_Source\PSoC5/Injection_1.c **** *
 478:Generated_Source\PSoC5/Injection_1.c **** * Return:
 479:Generated_Source\PSoC5/Injection_1.c **** *  None
 480:Generated_Source\PSoC5/Injection_1.c **** *
 481:Generated_Source\PSoC5/Injection_1.c **** *******************************************************************************/
 482:Generated_Source\PSoC5/Injection_1.c **** void Injection_1_WritePeriod(uint16 period) 
 483:Generated_Source\PSoC5/Injection_1.c **** {
 484:Generated_Source\PSoC5/Injection_1.c ****     #if(Injection_1_UsingFixedFunction)
 485:Generated_Source\PSoC5/Injection_1.c ****         CY_SET_REG16(Injection_1_PERIOD_LSB_PTR, (uint16)period);
 486:Generated_Source\PSoC5/Injection_1.c ****     #else
 487:Generated_Source\PSoC5/Injection_1.c ****         CY_SET_REG16(Injection_1_PERIOD_LSB_PTR, period);
 667              		.loc 1 487 0
 668 0038 DFF860E0 		ldr	lr, .L13+28
 669              	.LBE50:
 670              	.LBE49:
 130:Generated_Source\PSoC5/Injection_1.c ****         #endif /* (Injection_1_Resolution == 8) */
 671              		.loc 1 130 0
 672 003c 42F00102 		orr	r2, r2, #1
 673              	.LBB52:
 674              	.LBB53:
 488:Generated_Source\PSoC5/Injection_1.c ****     #endif /* (Injection_1_UsingFixedFunction) */
 489:Generated_Source\PSoC5/Injection_1.c **** }
 490:Generated_Source\PSoC5/Injection_1.c **** 
 491:Generated_Source\PSoC5/Injection_1.c **** #if (Injection_1_UseOneCompareMode)
 492:Generated_Source\PSoC5/Injection_1.c **** 
 493:Generated_Source\PSoC5/Injection_1.c **** 
 494:Generated_Source\PSoC5/Injection_1.c ****     /*******************************************************************************
 495:Generated_Source\PSoC5/Injection_1.c ****     * Function Name: Injection_1_WriteCompare
 496:Generated_Source\PSoC5/Injection_1.c ****     ********************************************************************************
 497:Generated_Source\PSoC5/Injection_1.c ****     *
 498:Generated_Source\PSoC5/Injection_1.c ****     * Summary:
 499:Generated_Source\PSoC5/Injection_1.c ****     *  This funtion is used to change the compare1 value when the PWM is in Dither
 500:Generated_Source\PSoC5/Injection_1.c ****     *  mode. The compare output will reflect the new value on the next UDB clock.
 501:Generated_Source\PSoC5/Injection_1.c ****     *  The compare output will be driven high when the present counter value is
 502:Generated_Source\PSoC5/Injection_1.c ****     *  compared to the compare value based on the compare mode defined in
 503:Generated_Source\PSoC5/Injection_1.c ****     *  Dither Mode.
 504:Generated_Source\PSoC5/Injection_1.c ****     *
 505:Generated_Source\PSoC5/Injection_1.c ****     * Parameters:
 506:Generated_Source\PSoC5/Injection_1.c ****     *  compare:  New compare value.
 507:Generated_Source\PSoC5/Injection_1.c ****     *
 508:Generated_Source\PSoC5/Injection_1.c ****     * Return:
 509:Generated_Source\PSoC5/Injection_1.c ****     *  None
ARM GAS  C:\Users\Bruger\AppData\Local\Temp\ccPhhSKd.s 			page 56


 510:Generated_Source\PSoC5/Injection_1.c ****     *
 511:Generated_Source\PSoC5/Injection_1.c ****     * Side Effects:
 512:Generated_Source\PSoC5/Injection_1.c ****     *  This function is only available if the PWM mode parameter is set to
 513:Generated_Source\PSoC5/Injection_1.c ****     *  Dither Mode, Center Aligned Mode or One Output Mode
 514:Generated_Source\PSoC5/Injection_1.c ****     *
 515:Generated_Source\PSoC5/Injection_1.c ****     *******************************************************************************/
 516:Generated_Source\PSoC5/Injection_1.c ****     void Injection_1_WriteCompare(uint16 compare) \
 517:Generated_Source\PSoC5/Injection_1.c ****                                        
 518:Generated_Source\PSoC5/Injection_1.c ****     {
 519:Generated_Source\PSoC5/Injection_1.c ****         #if(Injection_1_UsingFixedFunction)
 520:Generated_Source\PSoC5/Injection_1.c ****             CY_SET_REG16(Injection_1_COMPARE1_LSB_PTR, (uint16)compare);
 521:Generated_Source\PSoC5/Injection_1.c ****         #else
 522:Generated_Source\PSoC5/Injection_1.c ****             CY_SET_REG16(Injection_1_COMPARE1_LSB_PTR, compare);
 675              		.loc 1 522 0
 676 0040 4FF4FA47 		mov	r7, #32000
 677              	.LBE53:
 678              	.LBE52:
 130:Generated_Source\PSoC5/Injection_1.c ****         #endif /* (Injection_1_Resolution == 8) */
 679              		.loc 1 130 0
 680 0044 2A70     		strb	r2, [r5]
 681              	.LVL2:
 682              	.LBB55:
 683              	.LBB47:
 406:Generated_Source\PSoC5/Injection_1.c ****     }
 684              		.loc 1 406 0
 685 0046 ACF80010 		strh	r1, [ip]	@ movhi
 686              	.LVL3:
 687              	.LBE47:
 688              	.LBE55:
 689              	.LBB56:
 690              	.LBB51:
 487:Generated_Source\PSoC5/Injection_1.c ****     #endif /* (Injection_1_UsingFixedFunction) */
 691              		.loc 1 487 0
 692 004a AEF80010 		strh	r1, [lr]	@ movhi
 693              	.LVL4:
 694              	.LBE51:
 695              	.LBE56:
 696              	.LBB57:
 697              	.LBB54:
 698              		.loc 1 522 0
 699 004e A6F8D573 		strh	r7, [r6, #981]	@ movhi
 700              	.LVL5:
 701              	.LBE54:
 702              	.LBE57:
 703              	.LBB58:
 704              	.LBB59:
 523:Generated_Source\PSoC5/Injection_1.c ****         #endif /* (Injection_1_UsingFixedFunction) */
 524:Generated_Source\PSoC5/Injection_1.c **** 
 525:Generated_Source\PSoC5/Injection_1.c ****         #if (Injection_1_PWMMode == Injection_1__B_PWM__DITHER)
 526:Generated_Source\PSoC5/Injection_1.c ****             #if(Injection_1_UsingFixedFunction)
 527:Generated_Source\PSoC5/Injection_1.c ****                 CY_SET_REG16(Injection_1_COMPARE2_LSB_PTR, (uint16)(compare + 1u));
 528:Generated_Source\PSoC5/Injection_1.c ****             #else
 529:Generated_Source\PSoC5/Injection_1.c ****                 CY_SET_REG16(Injection_1_COMPARE2_LSB_PTR, (compare + 1u));
 530:Generated_Source\PSoC5/Injection_1.c ****             #endif /* (Injection_1_UsingFixedFunction) */
 531:Generated_Source\PSoC5/Injection_1.c ****         #endif /* (Injection_1_PWMMode == Injection_1__B_PWM__DITHER) */
 532:Generated_Source\PSoC5/Injection_1.c ****     }
 533:Generated_Source\PSoC5/Injection_1.c **** 
ARM GAS  C:\Users\Bruger\AppData\Local\Temp\ccPhhSKd.s 			page 57


 534:Generated_Source\PSoC5/Injection_1.c **** 
 535:Generated_Source\PSoC5/Injection_1.c **** #else
 536:Generated_Source\PSoC5/Injection_1.c **** 
 537:Generated_Source\PSoC5/Injection_1.c **** 
 538:Generated_Source\PSoC5/Injection_1.c ****     /*******************************************************************************
 539:Generated_Source\PSoC5/Injection_1.c ****     * Function Name: Injection_1_WriteCompare1
 540:Generated_Source\PSoC5/Injection_1.c ****     ********************************************************************************
 541:Generated_Source\PSoC5/Injection_1.c ****     *
 542:Generated_Source\PSoC5/Injection_1.c ****     * Summary:
 543:Generated_Source\PSoC5/Injection_1.c ****     *  This funtion is used to change the compare1 value.  The compare output will
 544:Generated_Source\PSoC5/Injection_1.c ****     *  reflect the new value on the next UDB clock.  The compare output will be
 545:Generated_Source\PSoC5/Injection_1.c ****     *  driven high when the present counter value is less than or less than or
 546:Generated_Source\PSoC5/Injection_1.c ****     *  equal to the compare register, depending on the mode.
 547:Generated_Source\PSoC5/Injection_1.c ****     *
 548:Generated_Source\PSoC5/Injection_1.c ****     * Parameters:
 549:Generated_Source\PSoC5/Injection_1.c ****     *  compare:  New compare value.
 550:Generated_Source\PSoC5/Injection_1.c ****     *
 551:Generated_Source\PSoC5/Injection_1.c ****     * Return:
 552:Generated_Source\PSoC5/Injection_1.c ****     *  None
 553:Generated_Source\PSoC5/Injection_1.c ****     *
 554:Generated_Source\PSoC5/Injection_1.c ****     *******************************************************************************/
 555:Generated_Source\PSoC5/Injection_1.c ****     void Injection_1_WriteCompare1(uint16 compare) \
 556:Generated_Source\PSoC5/Injection_1.c ****                                         
 557:Generated_Source\PSoC5/Injection_1.c ****     {
 558:Generated_Source\PSoC5/Injection_1.c ****         #if(Injection_1_UsingFixedFunction)
 559:Generated_Source\PSoC5/Injection_1.c ****             CY_SET_REG16(Injection_1_COMPARE1_LSB_PTR, (uint16)compare);
 560:Generated_Source\PSoC5/Injection_1.c ****         #else
 561:Generated_Source\PSoC5/Injection_1.c ****             CY_SET_REG16(Injection_1_COMPARE1_LSB_PTR, compare);
 562:Generated_Source\PSoC5/Injection_1.c ****         #endif /* (Injection_1_UsingFixedFunction) */
 563:Generated_Source\PSoC5/Injection_1.c ****     }
 564:Generated_Source\PSoC5/Injection_1.c **** 
 565:Generated_Source\PSoC5/Injection_1.c **** 
 566:Generated_Source\PSoC5/Injection_1.c ****     /*******************************************************************************
 567:Generated_Source\PSoC5/Injection_1.c ****     * Function Name: Injection_1_WriteCompare2
 568:Generated_Source\PSoC5/Injection_1.c ****     ********************************************************************************
 569:Generated_Source\PSoC5/Injection_1.c ****     *
 570:Generated_Source\PSoC5/Injection_1.c ****     * Summary:
 571:Generated_Source\PSoC5/Injection_1.c ****     *  This funtion is used to change the compare value, for compare1 output.
 572:Generated_Source\PSoC5/Injection_1.c ****     *  The compare output will reflect the new value on the next UDB clock.
 573:Generated_Source\PSoC5/Injection_1.c ****     *  The compare output will be driven high when the present counter value is
 574:Generated_Source\PSoC5/Injection_1.c ****     *  less than or less than or equal to the compare register, depending on the
 575:Generated_Source\PSoC5/Injection_1.c ****     *  mode.
 576:Generated_Source\PSoC5/Injection_1.c ****     *
 577:Generated_Source\PSoC5/Injection_1.c ****     * Parameters:
 578:Generated_Source\PSoC5/Injection_1.c ****     *  compare:  New compare value.
 579:Generated_Source\PSoC5/Injection_1.c ****     *
 580:Generated_Source\PSoC5/Injection_1.c ****     * Return:
 581:Generated_Source\PSoC5/Injection_1.c ****     *  None
 582:Generated_Source\PSoC5/Injection_1.c ****     *
 583:Generated_Source\PSoC5/Injection_1.c ****     *******************************************************************************/
 584:Generated_Source\PSoC5/Injection_1.c ****     void Injection_1_WriteCompare2(uint16 compare) \
 585:Generated_Source\PSoC5/Injection_1.c ****                                         
 586:Generated_Source\PSoC5/Injection_1.c ****     {
 587:Generated_Source\PSoC5/Injection_1.c ****         #if(Injection_1_UsingFixedFunction)
 588:Generated_Source\PSoC5/Injection_1.c ****             CY_SET_REG16(Injection_1_COMPARE2_LSB_PTR, compare);
 589:Generated_Source\PSoC5/Injection_1.c ****         #else
 590:Generated_Source\PSoC5/Injection_1.c ****             CY_SET_REG16(Injection_1_COMPARE2_LSB_PTR, compare);
ARM GAS  C:\Users\Bruger\AppData\Local\Temp\ccPhhSKd.s 			page 58


 591:Generated_Source\PSoC5/Injection_1.c ****         #endif /* (Injection_1_UsingFixedFunction) */
 592:Generated_Source\PSoC5/Injection_1.c ****     }
 593:Generated_Source\PSoC5/Injection_1.c **** #endif /* UseOneCompareMode */
 594:Generated_Source\PSoC5/Injection_1.c **** 
 595:Generated_Source\PSoC5/Injection_1.c **** #if (Injection_1_DeadBandUsed)
 596:Generated_Source\PSoC5/Injection_1.c **** 
 597:Generated_Source\PSoC5/Injection_1.c **** 
 598:Generated_Source\PSoC5/Injection_1.c ****     /*******************************************************************************
 599:Generated_Source\PSoC5/Injection_1.c ****     * Function Name: Injection_1_WriteDeadTime
 600:Generated_Source\PSoC5/Injection_1.c ****     ********************************************************************************
 601:Generated_Source\PSoC5/Injection_1.c ****     *
 602:Generated_Source\PSoC5/Injection_1.c ****     * Summary:
 603:Generated_Source\PSoC5/Injection_1.c ****     *  This function writes the dead-band counts to the corresponding register
 604:Generated_Source\PSoC5/Injection_1.c ****     *
 605:Generated_Source\PSoC5/Injection_1.c ****     * Parameters:
 606:Generated_Source\PSoC5/Injection_1.c ****     *  deadtime:  Number of counts for dead time
 607:Generated_Source\PSoC5/Injection_1.c ****     *
 608:Generated_Source\PSoC5/Injection_1.c ****     * Return:
 609:Generated_Source\PSoC5/Injection_1.c ****     *  None
 610:Generated_Source\PSoC5/Injection_1.c ****     *
 611:Generated_Source\PSoC5/Injection_1.c ****     *******************************************************************************/
 612:Generated_Source\PSoC5/Injection_1.c ****     void Injection_1_WriteDeadTime(uint8 deadtime) 
 613:Generated_Source\PSoC5/Injection_1.c ****     {
 614:Generated_Source\PSoC5/Injection_1.c ****         /* If using the Dead Band 1-255 mode then just write the register */
 615:Generated_Source\PSoC5/Injection_1.c ****         #if(!Injection_1_DeadBand2_4)
 616:Generated_Source\PSoC5/Injection_1.c ****             CY_SET_REG8(Injection_1_DEADBAND_COUNT_PTR, deadtime);
 617:Generated_Source\PSoC5/Injection_1.c ****         #else
 618:Generated_Source\PSoC5/Injection_1.c ****             /* Otherwise the data has to be masked and offset */
 619:Generated_Source\PSoC5/Injection_1.c ****             /* Clear existing data */
 620:Generated_Source\PSoC5/Injection_1.c ****             Injection_1_DEADBAND_COUNT &= ((uint8)(~Injection_1_DEADBAND_COUNT_MASK));
 621:Generated_Source\PSoC5/Injection_1.c **** 
 622:Generated_Source\PSoC5/Injection_1.c ****             /* Set new dead time */
 623:Generated_Source\PSoC5/Injection_1.c ****             #if(Injection_1_DEADBAND_COUNT_SHIFT)
 624:Generated_Source\PSoC5/Injection_1.c ****                 Injection_1_DEADBAND_COUNT |= ((uint8)((uint8)deadtime << Injection_1_DEADBAND_COUN
 625:Generated_Source\PSoC5/Injection_1.c ****                                                     Injection_1_DEADBAND_COUNT_MASK;
 626:Generated_Source\PSoC5/Injection_1.c ****             #else
 627:Generated_Source\PSoC5/Injection_1.c ****                 Injection_1_DEADBAND_COUNT |= deadtime & Injection_1_DEADBAND_COUNT_MASK;
 628:Generated_Source\PSoC5/Injection_1.c ****             #endif /* (Injection_1_DEADBAND_COUNT_SHIFT) */
 629:Generated_Source\PSoC5/Injection_1.c **** 
 630:Generated_Source\PSoC5/Injection_1.c ****         #endif /* (!Injection_1_DeadBand2_4) */
 631:Generated_Source\PSoC5/Injection_1.c ****     }
 632:Generated_Source\PSoC5/Injection_1.c **** 
 633:Generated_Source\PSoC5/Injection_1.c **** 
 634:Generated_Source\PSoC5/Injection_1.c ****     /*******************************************************************************
 635:Generated_Source\PSoC5/Injection_1.c ****     * Function Name: Injection_1_ReadDeadTime
 636:Generated_Source\PSoC5/Injection_1.c ****     ********************************************************************************
 637:Generated_Source\PSoC5/Injection_1.c ****     *
 638:Generated_Source\PSoC5/Injection_1.c ****     * Summary:
 639:Generated_Source\PSoC5/Injection_1.c ****     *  This function reads the dead-band counts from the corresponding register
 640:Generated_Source\PSoC5/Injection_1.c ****     *
 641:Generated_Source\PSoC5/Injection_1.c ****     * Parameters:
 642:Generated_Source\PSoC5/Injection_1.c ****     *  None
 643:Generated_Source\PSoC5/Injection_1.c ****     *
 644:Generated_Source\PSoC5/Injection_1.c ****     * Return:
 645:Generated_Source\PSoC5/Injection_1.c ****     *  Dead Band Counts
 646:Generated_Source\PSoC5/Injection_1.c ****     *
 647:Generated_Source\PSoC5/Injection_1.c ****     *******************************************************************************/
ARM GAS  C:\Users\Bruger\AppData\Local\Temp\ccPhhSKd.s 			page 59


 648:Generated_Source\PSoC5/Injection_1.c ****     uint8 Injection_1_ReadDeadTime(void) 
 649:Generated_Source\PSoC5/Injection_1.c ****     {
 650:Generated_Source\PSoC5/Injection_1.c ****         /* If using the Dead Band 1-255 mode then just read the register */
 651:Generated_Source\PSoC5/Injection_1.c ****         #if(!Injection_1_DeadBand2_4)
 652:Generated_Source\PSoC5/Injection_1.c ****             return (CY_GET_REG8(Injection_1_DEADBAND_COUNT_PTR));
 653:Generated_Source\PSoC5/Injection_1.c ****         #else
 654:Generated_Source\PSoC5/Injection_1.c **** 
 655:Generated_Source\PSoC5/Injection_1.c ****             /* Otherwise the data has to be masked and offset */
 656:Generated_Source\PSoC5/Injection_1.c ****             #if(Injection_1_DEADBAND_COUNT_SHIFT)
 657:Generated_Source\PSoC5/Injection_1.c ****                 return ((uint8)(((uint8)(Injection_1_DEADBAND_COUNT & Injection_1_DEADBAND_COUNT_MA
 658:Generated_Source\PSoC5/Injection_1.c ****                                                                            Injection_1_DEADBAND_COU
 659:Generated_Source\PSoC5/Injection_1.c ****             #else
 660:Generated_Source\PSoC5/Injection_1.c ****                 return (Injection_1_DEADBAND_COUNT & Injection_1_DEADBAND_COUNT_MASK);
 661:Generated_Source\PSoC5/Injection_1.c ****             #endif /* (Injection_1_DEADBAND_COUNT_SHIFT) */
 662:Generated_Source\PSoC5/Injection_1.c ****         #endif /* (!Injection_1_DeadBand2_4) */
 663:Generated_Source\PSoC5/Injection_1.c ****     }
 664:Generated_Source\PSoC5/Injection_1.c **** #endif /* DeadBandUsed */
 665:Generated_Source\PSoC5/Injection_1.c **** 
 666:Generated_Source\PSoC5/Injection_1.c **** #if (Injection_1_UseStatus || Injection_1_UsingFixedFunction)
 667:Generated_Source\PSoC5/Injection_1.c **** 
 668:Generated_Source\PSoC5/Injection_1.c **** 
 669:Generated_Source\PSoC5/Injection_1.c ****     /*******************************************************************************
 670:Generated_Source\PSoC5/Injection_1.c ****     * Function Name: Injection_1_SetInterruptMode
 671:Generated_Source\PSoC5/Injection_1.c ****     ********************************************************************************
 672:Generated_Source\PSoC5/Injection_1.c ****     *
 673:Generated_Source\PSoC5/Injection_1.c ****     * Summary:
 674:Generated_Source\PSoC5/Injection_1.c ****     *  This function configures the interrupts mask control of theinterrupt
 675:Generated_Source\PSoC5/Injection_1.c ****     *  source status register.
 676:Generated_Source\PSoC5/Injection_1.c ****     *
 677:Generated_Source\PSoC5/Injection_1.c ****     * Parameters:
 678:Generated_Source\PSoC5/Injection_1.c ****     *  uint8 interruptMode: Bit field containing the interrupt sources enabled
 679:Generated_Source\PSoC5/Injection_1.c ****     *
 680:Generated_Source\PSoC5/Injection_1.c ****     * Return:
 681:Generated_Source\PSoC5/Injection_1.c ****     *  None
 682:Generated_Source\PSoC5/Injection_1.c ****     *
 683:Generated_Source\PSoC5/Injection_1.c ****     *******************************************************************************/
 684:Generated_Source\PSoC5/Injection_1.c ****     void Injection_1_SetInterruptMode(uint8 interruptMode) 
 685:Generated_Source\PSoC5/Injection_1.c ****     {
 686:Generated_Source\PSoC5/Injection_1.c ****         CY_SET_REG8(Injection_1_STATUS_MASK_PTR, interruptMode);
 705              		.loc 1 686 0
 706 0052 00F80F3C 		strb	r3, [r0, #-15]
 707              	.LBE59:
 708              	.LBE58:
 167:Generated_Source\PSoC5/Injection_1.c ****             /* Use the interrupt output of the status register for IRQ output */
 709              		.loc 1 167 0
 710 0056 FFF7FEFF 		bl	CyEnterCriticalSection
 711              	.LVL6:
 169:Generated_Source\PSoC5/Injection_1.c **** 
 712              		.loc 1 169 0
 713 005a 2B78     		ldrb	r3, [r5]	@ zero_extendqisi2
 714 005c 43F01003 		orr	r3, r3, #16
 715 0060 2B70     		strb	r3, [r5]
 172:Generated_Source\PSoC5/Injection_1.c **** 
 716              		.loc 1 172 0
 717 0062 FFF7FEFF 		bl	CyExitCriticalSection
 718              	.LVL7:
 719              	.LBB60:
ARM GAS  C:\Users\Bruger\AppData\Local\Temp\ccPhhSKd.s 			page 60


 720              	.LBB61:
 721              	.LBB62:
 722              	.LBB63:
 687:Generated_Source\PSoC5/Injection_1.c ****     }
 688:Generated_Source\PSoC5/Injection_1.c **** 
 689:Generated_Source\PSoC5/Injection_1.c **** 
 690:Generated_Source\PSoC5/Injection_1.c ****     /*******************************************************************************
 691:Generated_Source\PSoC5/Injection_1.c ****     * Function Name: Injection_1_ReadStatusRegister
 692:Generated_Source\PSoC5/Injection_1.c ****     ********************************************************************************
 693:Generated_Source\PSoC5/Injection_1.c ****     *
 694:Generated_Source\PSoC5/Injection_1.c ****     * Summary:
 695:Generated_Source\PSoC5/Injection_1.c ****     *  This function returns the current state of the status register.
 696:Generated_Source\PSoC5/Injection_1.c ****     *
 697:Generated_Source\PSoC5/Injection_1.c ****     * Parameters:
 698:Generated_Source\PSoC5/Injection_1.c ****     *  None
 699:Generated_Source\PSoC5/Injection_1.c ****     *
 700:Generated_Source\PSoC5/Injection_1.c ****     * Return:
 701:Generated_Source\PSoC5/Injection_1.c ****     *  uint8 : Current status register value. The status register bits are:
 702:Generated_Source\PSoC5/Injection_1.c ****     *  [7:6] : Unused(0)
 703:Generated_Source\PSoC5/Injection_1.c ****     *  [5]   : Kill event output
 704:Generated_Source\PSoC5/Injection_1.c ****     *  [4]   : FIFO not empty
 705:Generated_Source\PSoC5/Injection_1.c ****     *  [3]   : FIFO full
 706:Generated_Source\PSoC5/Injection_1.c ****     *  [2]   : Terminal count
 707:Generated_Source\PSoC5/Injection_1.c ****     *  [1]   : Compare output 2
 708:Generated_Source\PSoC5/Injection_1.c ****     *  [0]   : Compare output 1
 709:Generated_Source\PSoC5/Injection_1.c ****     *
 710:Generated_Source\PSoC5/Injection_1.c ****     *******************************************************************************/
 711:Generated_Source\PSoC5/Injection_1.c ****     uint8 Injection_1_ReadStatusRegister(void) 
 712:Generated_Source\PSoC5/Injection_1.c ****     {
 713:Generated_Source\PSoC5/Injection_1.c ****         return (CY_GET_REG8(Injection_1_STATUS_PTR));
 723              		.loc 1 713 0
 724 0066 0A4A     		ldr	r2, .L13+16
 725 0068 1378     		ldrb	r3, [r2]	@ zero_extendqisi2
 726              	.LBE63:
 727              	.LBE62:
 455:Generated_Source\PSoC5/Injection_1.c ****             {
 728              		.loc 1 455 0
 729 006a D906     		lsls	r1, r3, #27
 730 006c 04D5     		bpl	.L3
 731              	.LBB65:
 732              	.LBB66:
 714:Generated_Source\PSoC5/Injection_1.c ****     }
 715:Generated_Source\PSoC5/Injection_1.c **** 
 716:Generated_Source\PSoC5/Injection_1.c **** #endif /* (Injection_1_UseStatus || Injection_1_UsingFixedFunction) */
 717:Generated_Source\PSoC5/Injection_1.c **** 
 718:Generated_Source\PSoC5/Injection_1.c **** 
 719:Generated_Source\PSoC5/Injection_1.c **** #if (Injection_1_UseControl)
 720:Generated_Source\PSoC5/Injection_1.c **** 
 721:Generated_Source\PSoC5/Injection_1.c **** 
 722:Generated_Source\PSoC5/Injection_1.c ****     /*******************************************************************************
 723:Generated_Source\PSoC5/Injection_1.c ****     * Function Name: Injection_1_ReadControlRegister
 724:Generated_Source\PSoC5/Injection_1.c ****     ********************************************************************************
 725:Generated_Source\PSoC5/Injection_1.c ****     *
 726:Generated_Source\PSoC5/Injection_1.c ****     * Summary:
 727:Generated_Source\PSoC5/Injection_1.c ****     *  Returns the current state of the control register. This API is available
 728:Generated_Source\PSoC5/Injection_1.c ****     *  only if the control register is not removed.
 729:Generated_Source\PSoC5/Injection_1.c ****     *
ARM GAS  C:\Users\Bruger\AppData\Local\Temp\ccPhhSKd.s 			page 61


 730:Generated_Source\PSoC5/Injection_1.c ****     * Parameters:
 731:Generated_Source\PSoC5/Injection_1.c ****     *  None
 732:Generated_Source\PSoC5/Injection_1.c ****     *
 733:Generated_Source\PSoC5/Injection_1.c ****     * Return:
 734:Generated_Source\PSoC5/Injection_1.c ****     *  uint8 : Current control register value
 735:Generated_Source\PSoC5/Injection_1.c ****     *
 736:Generated_Source\PSoC5/Injection_1.c ****     *******************************************************************************/
 737:Generated_Source\PSoC5/Injection_1.c ****     uint8 Injection_1_ReadControlRegister(void) 
 738:Generated_Source\PSoC5/Injection_1.c ****     {
 739:Generated_Source\PSoC5/Injection_1.c ****         uint8 result;
 740:Generated_Source\PSoC5/Injection_1.c **** 
 741:Generated_Source\PSoC5/Injection_1.c ****         result = CY_GET_REG8(Injection_1_CONTROL_PTR);
 742:Generated_Source\PSoC5/Injection_1.c ****         return (result);
 743:Generated_Source\PSoC5/Injection_1.c ****     }
 744:Generated_Source\PSoC5/Injection_1.c **** 
 745:Generated_Source\PSoC5/Injection_1.c **** 
 746:Generated_Source\PSoC5/Injection_1.c ****     /*******************************************************************************
 747:Generated_Source\PSoC5/Injection_1.c ****     * Function Name: Injection_1_WriteControlRegister
 748:Generated_Source\PSoC5/Injection_1.c ****     ********************************************************************************
 749:Generated_Source\PSoC5/Injection_1.c ****     *
 750:Generated_Source\PSoC5/Injection_1.c ****     * Summary:
 751:Generated_Source\PSoC5/Injection_1.c ****     *  Sets the bit field of the control register. This API is available only if
 752:Generated_Source\PSoC5/Injection_1.c ****     *  the control register is not removed.
 753:Generated_Source\PSoC5/Injection_1.c ****     *
 754:Generated_Source\PSoC5/Injection_1.c ****     * Parameters:
 755:Generated_Source\PSoC5/Injection_1.c ****     *  uint8 control: Control register bit field, The status register bits are:
 756:Generated_Source\PSoC5/Injection_1.c ****     *  [7]   : PWM Enable
 757:Generated_Source\PSoC5/Injection_1.c ****     *  [6]   : Reset
 758:Generated_Source\PSoC5/Injection_1.c ****     *  [5:3] : Compare Mode2
 759:Generated_Source\PSoC5/Injection_1.c ****     *  [2:0] : Compare Mode2
 760:Generated_Source\PSoC5/Injection_1.c ****     *
 761:Generated_Source\PSoC5/Injection_1.c ****     * Return:
 762:Generated_Source\PSoC5/Injection_1.c ****     *  None
 763:Generated_Source\PSoC5/Injection_1.c ****     *
 764:Generated_Source\PSoC5/Injection_1.c ****     *******************************************************************************/
 765:Generated_Source\PSoC5/Injection_1.c ****     void Injection_1_WriteControlRegister(uint8 control) 
 766:Generated_Source\PSoC5/Injection_1.c ****     {
 767:Generated_Source\PSoC5/Injection_1.c ****         CY_SET_REG8(Injection_1_CONTROL_PTR, control);
 768:Generated_Source\PSoC5/Injection_1.c ****     }
 769:Generated_Source\PSoC5/Injection_1.c **** 
 770:Generated_Source\PSoC5/Injection_1.c **** #endif /* (Injection_1_UseControl) */
 771:Generated_Source\PSoC5/Injection_1.c **** 
 772:Generated_Source\PSoC5/Injection_1.c **** 
 773:Generated_Source\PSoC5/Injection_1.c **** #if (!Injection_1_UsingFixedFunction)
 774:Generated_Source\PSoC5/Injection_1.c **** 
 775:Generated_Source\PSoC5/Injection_1.c **** 
 776:Generated_Source\PSoC5/Injection_1.c ****     /*******************************************************************************
 777:Generated_Source\PSoC5/Injection_1.c ****     * Function Name: Injection_1_ReadCapture
 778:Generated_Source\PSoC5/Injection_1.c ****     ********************************************************************************
 779:Generated_Source\PSoC5/Injection_1.c ****     *
 780:Generated_Source\PSoC5/Injection_1.c ****     * Summary:
 781:Generated_Source\PSoC5/Injection_1.c ****     *  Reads the capture value from the capture FIFO.
 782:Generated_Source\PSoC5/Injection_1.c ****     *
 783:Generated_Source\PSoC5/Injection_1.c ****     * Parameters:
 784:Generated_Source\PSoC5/Injection_1.c ****     *  None
 785:Generated_Source\PSoC5/Injection_1.c ****     *
 786:Generated_Source\PSoC5/Injection_1.c ****     * Return:
ARM GAS  C:\Users\Bruger\AppData\Local\Temp\ccPhhSKd.s 			page 62


 787:Generated_Source\PSoC5/Injection_1.c ****     *  uint8/uint16: The current capture value
 788:Generated_Source\PSoC5/Injection_1.c ****     *
 789:Generated_Source\PSoC5/Injection_1.c ****     *******************************************************************************/
 790:Generated_Source\PSoC5/Injection_1.c ****     uint16 Injection_1_ReadCapture(void) 
 791:Generated_Source\PSoC5/Injection_1.c ****     {
 792:Generated_Source\PSoC5/Injection_1.c ****         return (CY_GET_REG16(Injection_1_CAPTURE_LSB_PTR));
 733              		.loc 1 792 0
 734 006e 0949     		ldr	r1, .L13+20
 735              	.L7:
 736 0070 0B88     		ldrh	r3, [r1]
 737              	.LBE66:
 738              	.LBE65:
 739              	.LBB67:
 740              	.LBB64:
 713:Generated_Source\PSoC5/Injection_1.c ****     }
 741              		.loc 1 713 0
 742 0072 1378     		ldrb	r3, [r2]	@ zero_extendqisi2
 743              	.LBE64:
 744              	.LBE67:
 455:Generated_Source\PSoC5/Injection_1.c ****             {
 745              		.loc 1 455 0
 746 0074 DB06     		lsls	r3, r3, #27
 747 0076 FBD4     		bmi	.L7
 748              	.L3:
 749              	.LBE61:
 750              	.LBE60:
 751              	.LBE43:
 752              	.LBE42:
  61:Generated_Source\PSoC5/Injection_1.c ****     }
 753              		.loc 1 61 0
 754 0078 0123     		movs	r3, #1
 755 007a 2370     		strb	r3, [r4]
 756 007c C4E7     		b	.L2
 757              	.L14:
 758 007e 00BF     		.align	2
 759              	.L13:
 760 0080 00000000 		.word	.LANCHOR0
 761 0084 77640040 		.word	1073767543
 762 0088 96640040 		.word	1073767574
 763 008c 97640040 		.word	1073767575
 764 0090 67640040 		.word	1073767527
 765 0094 AC680040 		.word	1073768620
 766 0098 0C680040 		.word	1073768460
 767 009c 8C680040 		.word	1073768588
 768              		.cfi_endproc
 769              	.LFE0:
 770              		.size	Injection_1_Start, .-Injection_1_Start
 771              		.section	.text.Injection_1_Init,"ax",%progbits
 772              		.align	2
 773              		.global	Injection_1_Init
 774              		.thumb
 775              		.thumb_func
 776              		.type	Injection_1_Init, %function
 777              	Injection_1_Init:
 778              	.LFB1:
  85:Generated_Source\PSoC5/Injection_1.c ****     #if (Injection_1_UsingFixedFunction || Injection_1_UseControl)
 779              		.loc 1 85 0
ARM GAS  C:\Users\Bruger\AppData\Local\Temp\ccPhhSKd.s 			page 63


 780              		.cfi_startproc
 781              		@ args = 0, pretend = 0, frame = 0
 782              		@ frame_needed = 0, uses_anonymous_args = 0
 783              	.LBB68:
 784              	.LBB69:
 406:Generated_Source\PSoC5/Injection_1.c ****     }
 785              		.loc 1 406 0
 786 0000 4AF6C872 		movw	r2, #45000
 787              	.LBE69:
 788              	.LBE68:
  85:Generated_Source\PSoC5/Injection_1.c ****     #if (Injection_1_UsingFixedFunction || Injection_1_UseControl)
 789              		.loc 1 85 0
 790 0004 F8B5     		push	{r3, r4, r5, r6, r7, lr}
 791              		.cfi_def_cfa_offset 24
 792              		.cfi_offset 3, -24
 793              		.cfi_offset 4, -20
 794              		.cfi_offset 5, -16
 795              		.cfi_offset 6, -12
 796              		.cfi_offset 7, -8
 797              		.cfi_offset 14, -4
 117:Generated_Source\PSoC5/Injection_1.c ****                 ((uint8)(~Injection_1_CTRL_CMPMODE1_MASK));
 798              		.loc 1 117 0
 799 0006 1848     		ldr	r0, .L24
 129:Generated_Source\PSoC5/Injection_1.c ****             Injection_1_AUX_CONTROLDP1 |= (Injection_1_AUX_CTRL_FIFO0_CLR);
 800              		.loc 1 129 0
 801 0008 1849     		ldr	r1, .L24+4
 117:Generated_Source\PSoC5/Injection_1.c ****                 ((uint8)(~Injection_1_CTRL_CMPMODE1_MASK));
 802              		.loc 1 117 0
 803 000a 0378     		ldrb	r3, [r0]	@ zero_extendqisi2
 804              	.LVL8:
 130:Generated_Source\PSoC5/Injection_1.c ****         #endif /* (Injection_1_Resolution == 8) */
 805              		.loc 1 130 0
 806 000c 184C     		ldr	r4, .L24+8
 117:Generated_Source\PSoC5/Injection_1.c ****                 ((uint8)(~Injection_1_CTRL_CMPMODE1_MASK));
 807              		.loc 1 117 0
 808 000e 03F0C003 		and	r3, r3, #192
 809              	.LVL9:
 119:Generated_Source\PSoC5/Injection_1.c ****                                    Injection_1_DEFAULT_COMPARE1_MODE;
 810              		.loc 1 119 0
 811 0012 43F00903 		orr	r3, r3, #9
 812 0016 0370     		strb	r3, [r0]
 129:Generated_Source\PSoC5/Injection_1.c ****             Injection_1_AUX_CONTROLDP1 |= (Injection_1_AUX_CTRL_FIFO0_CLR);
 813              		.loc 1 129 0
 814 0018 0B78     		ldrb	r3, [r1]	@ zero_extendqisi2
 815              	.LBB72:
 816              	.LBB70:
 406:Generated_Source\PSoC5/Injection_1.c ****     }
 817              		.loc 1 406 0
 818 001a DFF868E0 		ldr	lr, .L24+28
 819              	.LBE70:
 820              	.LBE72:
 129:Generated_Source\PSoC5/Injection_1.c ****             Injection_1_AUX_CONTROLDP1 |= (Injection_1_AUX_CTRL_FIFO0_CLR);
 821              		.loc 1 129 0
 822 001e 43F00103 		orr	r3, r3, #1
 823 0022 0B70     		strb	r3, [r1]
 130:Generated_Source\PSoC5/Injection_1.c ****         #endif /* (Injection_1_Resolution == 8) */
 824              		.loc 1 130 0
ARM GAS  C:\Users\Bruger\AppData\Local\Temp\ccPhhSKd.s 			page 64


 825 0024 2378     		ldrb	r3, [r4]	@ zero_extendqisi2
 826              	.LBB73:
 827              	.LBB74:
 487:Generated_Source\PSoC5/Injection_1.c ****     #endif /* (Injection_1_UsingFixedFunction) */
 828              		.loc 1 487 0
 829 0026 134F     		ldr	r7, .L24+12
 830              	.LBE74:
 831              	.LBE73:
 832              	.LBB76:
 833              	.LBB77:
 522:Generated_Source\PSoC5/Injection_1.c ****         #endif /* (Injection_1_UsingFixedFunction) */
 834              		.loc 1 522 0
 835 0028 134D     		ldr	r5, .L24+16
 836              	.LBE77:
 837              	.LBE76:
 130:Generated_Source\PSoC5/Injection_1.c ****         #endif /* (Injection_1_Resolution == 8) */
 838              		.loc 1 130 0
 839 002a 43F00103 		orr	r3, r3, #1
 840              	.LBB80:
 841              	.LBB81:
 686:Generated_Source\PSoC5/Injection_1.c ****     }
 842              		.loc 1 686 0
 843 002e 0020     		movs	r0, #0
 844              	.LBE81:
 845              	.LBE80:
 846              	.LBB83:
 847              	.LBB78:
 522:Generated_Source\PSoC5/Injection_1.c ****         #endif /* (Injection_1_UsingFixedFunction) */
 848              		.loc 1 522 0
 849 0030 4FF4FA46 		mov	r6, #32000
 850              	.LBE78:
 851              	.LBE83:
 130:Generated_Source\PSoC5/Injection_1.c ****         #endif /* (Injection_1_Resolution == 8) */
 852              		.loc 1 130 0
 853 0034 2370     		strb	r3, [r4]
 854              	.LVL10:
 855              	.LBB84:
 856              	.LBB71:
 406:Generated_Source\PSoC5/Injection_1.c ****     }
 857              		.loc 1 406 0
 858 0036 AEF80020 		strh	r2, [lr]	@ movhi
 859              	.LVL11:
 860              	.LBE71:
 861              	.LBE84:
 862              	.LBB85:
 863              	.LBB75:
 487:Generated_Source\PSoC5/Injection_1.c ****     #endif /* (Injection_1_UsingFixedFunction) */
 864              		.loc 1 487 0
 865 003a 3A80     		strh	r2, [r7]	@ movhi
 866              	.LVL12:
 867              	.LBE75:
 868              	.LBE85:
 869              	.LBB86:
 870              	.LBB79:
 522:Generated_Source\PSoC5/Injection_1.c ****         #endif /* (Injection_1_UsingFixedFunction) */
 871              		.loc 1 522 0
 872 003c 2E80     		strh	r6, [r5]	@ movhi
ARM GAS  C:\Users\Bruger\AppData\Local\Temp\ccPhhSKd.s 			page 65


 873              	.LVL13:
 874              	.LBE79:
 875              	.LBE86:
 876              	.LBB87:
 877              	.LBB82:
 686:Generated_Source\PSoC5/Injection_1.c ****     }
 878              		.loc 1 686 0
 879 003e 01F80F0C 		strb	r0, [r1, #-15]
 880              	.LBE82:
 881              	.LBE87:
 167:Generated_Source\PSoC5/Injection_1.c ****             /* Use the interrupt output of the status register for IRQ output */
 882              		.loc 1 167 0
 883 0042 FFF7FEFF 		bl	CyEnterCriticalSection
 884              	.LVL14:
 169:Generated_Source\PSoC5/Injection_1.c **** 
 885              		.loc 1 169 0
 886 0046 2378     		ldrb	r3, [r4]	@ zero_extendqisi2
 887 0048 43F01003 		orr	r3, r3, #16
 888 004c 2370     		strb	r3, [r4]
 172:Generated_Source\PSoC5/Injection_1.c **** 
 889              		.loc 1 172 0
 890 004e FFF7FEFF 		bl	CyExitCriticalSection
 891              	.LVL15:
 892              	.LBB88:
 893              	.LBB89:
 894              	.LBB90:
 895              	.LBB91:
 713:Generated_Source\PSoC5/Injection_1.c ****     }
 896              		.loc 1 713 0
 897 0052 0A4A     		ldr	r2, .L24+20
 898 0054 1378     		ldrb	r3, [r2]	@ zero_extendqisi2
 899              	.LBE91:
 900              	.LBE90:
 455:Generated_Source\PSoC5/Injection_1.c ****             {
 901              		.loc 1 455 0
 902 0056 D906     		lsls	r1, r3, #27
 903 0058 04D5     		bpl	.L15
 904              	.LBB93:
 905              	.LBB94:
 906              		.loc 1 792 0
 907 005a 0949     		ldr	r1, .L24+24
 908              	.L20:
 909 005c 0B88     		ldrh	r3, [r1]
 910              	.LBE94:
 911              	.LBE93:
 912              	.LBB95:
 913              	.LBB92:
 713:Generated_Source\PSoC5/Injection_1.c ****     }
 914              		.loc 1 713 0
 915 005e 1378     		ldrb	r3, [r2]	@ zero_extendqisi2
 916              	.LBE92:
 917              	.LBE95:
 455:Generated_Source\PSoC5/Injection_1.c ****             {
 918              		.loc 1 455 0
 919 0060 DB06     		lsls	r3, r3, #27
 920 0062 FBD4     		bmi	.L20
 921              	.L15:
ARM GAS  C:\Users\Bruger\AppData\Local\Temp\ccPhhSKd.s 			page 66


 922 0064 F8BD     		pop	{r3, r4, r5, r6, r7, pc}
 923              	.L25:
 924 0066 00BF     		.align	2
 925              	.L24:
 926 0068 77640040 		.word	1073767543
 927 006c 96640040 		.word	1073767574
 928 0070 97640040 		.word	1073767575
 929 0074 8C680040 		.word	1073768588
 930 0078 4C680040 		.word	1073768524
 931 007c 67640040 		.word	1073767527
 932 0080 AC680040 		.word	1073768620
 933 0084 0C680040 		.word	1073768460
 934              	.LBE89:
 935              	.LBE88:
 936              		.cfi_endproc
 937              	.LFE1:
 938              		.size	Injection_1_Init, .-Injection_1_Init
 939              		.section	.text.Injection_1_Enable,"ax",%progbits
 940              		.align	2
 941              		.global	Injection_1_Enable
 942              		.thumb
 943              		.thumb_func
 944              		.type	Injection_1_Enable, %function
 945              	Injection_1_Enable:
 946              	.LFB2:
 200:Generated_Source\PSoC5/Injection_1.c ****     /* Globally Enable the Fixed Function Block chosen */
 947              		.loc 1 200 0
 948              		.cfi_startproc
 949              		@ args = 0, pretend = 0, frame = 0
 950              		@ frame_needed = 0, uses_anonymous_args = 0
 951              		@ link register save eliminated.
 209:Generated_Source\PSoC5/Injection_1.c ****     #endif /* (Injection_1_UseControl || Injection_1_UsingFixedFunction) */
 952              		.loc 1 209 0
 953 0000 024A     		ldr	r2, .L27
 954 0002 1378     		ldrb	r3, [r2]	@ zero_extendqisi2
 955 0004 43F08003 		orr	r3, r3, #128
 956 0008 1370     		strb	r3, [r2]
 957 000a 7047     		bx	lr
 958              	.L28:
 959              		.align	2
 960              	.L27:
 961 000c 77640040 		.word	1073767543
 962              		.cfi_endproc
 963              	.LFE2:
 964              		.size	Injection_1_Enable, .-Injection_1_Enable
 965              		.section	.text.Injection_1_Stop,"ax",%progbits
 966              		.align	2
 967              		.global	Injection_1_Stop
 968              		.thumb
 969              		.thumb_func
 970              		.type	Injection_1_Stop, %function
 971              	Injection_1_Stop:
 972              	.LFB3:
 234:Generated_Source\PSoC5/Injection_1.c ****     #if (Injection_1_UseControl || Injection_1_UsingFixedFunction)
 973              		.loc 1 234 0
 974              		.cfi_startproc
 975              		@ args = 0, pretend = 0, frame = 0
ARM GAS  C:\Users\Bruger\AppData\Local\Temp\ccPhhSKd.s 			page 67


 976              		@ frame_needed = 0, uses_anonymous_args = 0
 977              		@ link register save eliminated.
 236:Generated_Source\PSoC5/Injection_1.c ****     #endif /* (Injection_1_UseControl || Injection_1_UsingFixedFunction) */
 978              		.loc 1 236 0
 979 0000 024A     		ldr	r2, .L30
 980 0002 1378     		ldrb	r3, [r2]	@ zero_extendqisi2
 981 0004 03F07F03 		and	r3, r3, #127
 982 0008 1370     		strb	r3, [r2]
 983 000a 7047     		bx	lr
 984              	.L31:
 985              		.align	2
 986              	.L30:
 987 000c 77640040 		.word	1073767543
 988              		.cfi_endproc
 989              	.LFE3:
 990              		.size	Injection_1_Stop, .-Injection_1_Stop
 991              		.section	.text.Injection_1_WriteCounter,"ax",%progbits
 992              		.align	2
 993              		.global	Injection_1_WriteCounter
 994              		.thumb
 995              		.thumb_func
 996              		.type	Injection_1_WriteCounter, %function
 997              	Injection_1_WriteCounter:
 998              	.LFB4:
 405:Generated_Source\PSoC5/Injection_1.c ****         CY_SET_REG16(Injection_1_COUNTER_LSB_PTR, counter);
 999              		.loc 1 405 0
 1000              		.cfi_startproc
 1001              		@ args = 0, pretend = 0, frame = 0
 1002              		@ frame_needed = 0, uses_anonymous_args = 0
 1003              		@ link register save eliminated.
 1004              	.LVL16:
 406:Generated_Source\PSoC5/Injection_1.c ****     }
 1005              		.loc 1 406 0
 1006 0000 014B     		ldr	r3, .L33
 1007 0002 1880     		strh	r0, [r3]	@ movhi
 1008 0004 7047     		bx	lr
 1009              	.L34:
 1010 0006 00BF     		.align	2
 1011              	.L33:
 1012 0008 0C680040 		.word	1073768460
 1013              		.cfi_endproc
 1014              	.LFE4:
 1015              		.size	Injection_1_WriteCounter, .-Injection_1_WriteCounter
 1016              		.section	.text.Injection_1_ReadCounter,"ax",%progbits
 1017              		.align	2
 1018              		.global	Injection_1_ReadCounter
 1019              		.thumb
 1020              		.thumb_func
 1021              		.type	Injection_1_ReadCounter, %function
 1022              	Injection_1_ReadCounter:
 1023              	.LFB5:
 426:Generated_Source\PSoC5/Injection_1.c ****         /* Force capture by reading Accumulator */
 1024              		.loc 1 426 0
 1025              		.cfi_startproc
 1026              		@ args = 0, pretend = 0, frame = 0
 1027              		@ frame_needed = 0, uses_anonymous_args = 0
 1028              		@ link register save eliminated.
ARM GAS  C:\Users\Bruger\AppData\Local\Temp\ccPhhSKd.s 			page 68


 433:Generated_Source\PSoC5/Injection_1.c ****     }
 1029              		.loc 1 433 0
 1030 0000 024B     		ldr	r3, .L36
 430:Generated_Source\PSoC5/Injection_1.c **** 
 1031              		.loc 1 430 0
 1032 0002 034A     		ldr	r2, .L36+4
 1033 0004 1278     		ldrb	r2, [r2]	@ zero_extendqisi2
 433:Generated_Source\PSoC5/Injection_1.c ****     }
 1034              		.loc 1 433 0
 1035 0006 1888     		ldrh	r0, [r3]
 434:Generated_Source\PSoC5/Injection_1.c **** 
 1036              		.loc 1 434 0
 1037 0008 80B2     		uxth	r0, r0
 1038 000a 7047     		bx	lr
 1039              	.L37:
 1040              		.align	2
 1041              	.L36:
 1042 000c AC680040 		.word	1073768620
 1043 0010 16640040 		.word	1073767446
 1044              		.cfi_endproc
 1045              	.LFE5:
 1046              		.size	Injection_1_ReadCounter, .-Injection_1_ReadCounter
 1047              		.section	.text.Injection_1_ClearFIFO,"ax",%progbits
 1048              		.align	2
 1049              		.global	Injection_1_ClearFIFO
 1050              		.thumb
 1051              		.thumb_func
 1052              		.type	Injection_1_ClearFIFO, %function
 1053              	Injection_1_ClearFIFO:
 1054              	.LFB6:
 454:Generated_Source\PSoC5/Injection_1.c ****             while(0u != (Injection_1_ReadStatusRegister() & Injection_1_STATUS_FIFONEMPTY))
 1055              		.loc 1 454 0
 1056              		.cfi_startproc
 1057              		@ args = 0, pretend = 0, frame = 0
 1058              		@ frame_needed = 0, uses_anonymous_args = 0
 1059              		@ link register save eliminated.
 1060              	.LBB96:
 1061              	.LBB97:
 713:Generated_Source\PSoC5/Injection_1.c ****     }
 1062              		.loc 1 713 0
 1063 0000 044A     		ldr	r2, .L46
 1064 0002 1378     		ldrb	r3, [r2]	@ zero_extendqisi2
 1065              	.LBE97:
 1066              	.LBE96:
 455:Generated_Source\PSoC5/Injection_1.c ****             {
 1067              		.loc 1 455 0
 1068 0004 D906     		lsls	r1, r3, #27
 1069 0006 04D5     		bpl	.L38
 1070              	.LBB99:
 1071              	.LBB100:
 1072              		.loc 1 792 0
 1073 0008 0349     		ldr	r1, .L46+4
 1074              	.L43:
 1075 000a 0B88     		ldrh	r3, [r1]
 1076              	.LBE100:
 1077              	.LBE99:
 1078              	.LBB101:
ARM GAS  C:\Users\Bruger\AppData\Local\Temp\ccPhhSKd.s 			page 69


 1079              	.LBB98:
 713:Generated_Source\PSoC5/Injection_1.c ****     }
 1080              		.loc 1 713 0
 1081 000c 1378     		ldrb	r3, [r2]	@ zero_extendqisi2
 1082              	.LBE98:
 1083              	.LBE101:
 455:Generated_Source\PSoC5/Injection_1.c ****             {
 1084              		.loc 1 455 0
 1085 000e DB06     		lsls	r3, r3, #27
 1086 0010 FBD4     		bmi	.L43
 1087              	.L38:
 1088 0012 7047     		bx	lr
 1089              	.L47:
 1090              		.align	2
 1091              	.L46:
 1092 0014 67640040 		.word	1073767527
 1093 0018 AC680040 		.word	1073768620
 1094              		.cfi_endproc
 1095              	.LFE6:
 1096              		.size	Injection_1_ClearFIFO, .-Injection_1_ClearFIFO
 1097              		.section	.text.Injection_1_WritePeriod,"ax",%progbits
 1098              		.align	2
 1099              		.global	Injection_1_WritePeriod
 1100              		.thumb
 1101              		.thumb_func
 1102              		.type	Injection_1_WritePeriod, %function
 1103              	Injection_1_WritePeriod:
 1104              	.LFB7:
 483:Generated_Source\PSoC5/Injection_1.c ****     #if(Injection_1_UsingFixedFunction)
 1105              		.loc 1 483 0
 1106              		.cfi_startproc
 1107              		@ args = 0, pretend = 0, frame = 0
 1108              		@ frame_needed = 0, uses_anonymous_args = 0
 1109              		@ link register save eliminated.
 1110              	.LVL17:
 487:Generated_Source\PSoC5/Injection_1.c ****     #endif /* (Injection_1_UsingFixedFunction) */
 1111              		.loc 1 487 0
 1112 0000 014B     		ldr	r3, .L49
 1113 0002 1880     		strh	r0, [r3]	@ movhi
 1114 0004 7047     		bx	lr
 1115              	.L50:
 1116 0006 00BF     		.align	2
 1117              	.L49:
 1118 0008 8C680040 		.word	1073768588
 1119              		.cfi_endproc
 1120              	.LFE7:
 1121              		.size	Injection_1_WritePeriod, .-Injection_1_WritePeriod
 1122              		.section	.text.Injection_1_WriteCompare,"ax",%progbits
 1123              		.align	2
 1124              		.global	Injection_1_WriteCompare
 1125              		.thumb
 1126              		.thumb_func
 1127              		.type	Injection_1_WriteCompare, %function
 1128              	Injection_1_WriteCompare:
 1129              	.LFB8:
 518:Generated_Source\PSoC5/Injection_1.c ****         #if(Injection_1_UsingFixedFunction)
 1130              		.loc 1 518 0
ARM GAS  C:\Users\Bruger\AppData\Local\Temp\ccPhhSKd.s 			page 70


 1131              		.cfi_startproc
 1132              		@ args = 0, pretend = 0, frame = 0
 1133              		@ frame_needed = 0, uses_anonymous_args = 0
 1134              		@ link register save eliminated.
 1135              	.LVL18:
 522:Generated_Source\PSoC5/Injection_1.c ****         #endif /* (Injection_1_UsingFixedFunction) */
 1136              		.loc 1 522 0
 1137 0000 014B     		ldr	r3, .L52
 1138 0002 1880     		strh	r0, [r3]	@ movhi
 1139 0004 7047     		bx	lr
 1140              	.L53:
 1141 0006 00BF     		.align	2
 1142              	.L52:
 1143 0008 4C680040 		.word	1073768524
 1144              		.cfi_endproc
 1145              	.LFE8:
 1146              		.size	Injection_1_WriteCompare, .-Injection_1_WriteCompare
 1147              		.section	.text.Injection_1_SetInterruptMode,"ax",%progbits
 1148              		.align	2
 1149              		.global	Injection_1_SetInterruptMode
 1150              		.thumb
 1151              		.thumb_func
 1152              		.type	Injection_1_SetInterruptMode, %function
 1153              	Injection_1_SetInterruptMode:
 1154              	.LFB9:
 685:Generated_Source\PSoC5/Injection_1.c ****         CY_SET_REG8(Injection_1_STATUS_MASK_PTR, interruptMode);
 1155              		.loc 1 685 0
 1156              		.cfi_startproc
 1157              		@ args = 0, pretend = 0, frame = 0
 1158              		@ frame_needed = 0, uses_anonymous_args = 0
 1159              		@ link register save eliminated.
 1160              	.LVL19:
 686:Generated_Source\PSoC5/Injection_1.c ****     }
 1161              		.loc 1 686 0
 1162 0000 014B     		ldr	r3, .L55
 1163 0002 1870     		strb	r0, [r3]
 1164 0004 7047     		bx	lr
 1165              	.L56:
 1166 0006 00BF     		.align	2
 1167              	.L55:
 1168 0008 87640040 		.word	1073767559
 1169              		.cfi_endproc
 1170              	.LFE9:
 1171              		.size	Injection_1_SetInterruptMode, .-Injection_1_SetInterruptMode
 1172              		.section	.text.Injection_1_ReadStatusRegister,"ax",%progbits
 1173              		.align	2
 1174              		.global	Injection_1_ReadStatusRegister
 1175              		.thumb
 1176              		.thumb_func
 1177              		.type	Injection_1_ReadStatusRegister, %function
 1178              	Injection_1_ReadStatusRegister:
 1179              	.LFB10:
 712:Generated_Source\PSoC5/Injection_1.c ****         return (CY_GET_REG8(Injection_1_STATUS_PTR));
 1180              		.loc 1 712 0
 1181              		.cfi_startproc
 1182              		@ args = 0, pretend = 0, frame = 0
 1183              		@ frame_needed = 0, uses_anonymous_args = 0
ARM GAS  C:\Users\Bruger\AppData\Local\Temp\ccPhhSKd.s 			page 71


 1184              		@ link register save eliminated.
 713:Generated_Source\PSoC5/Injection_1.c ****     }
 1185              		.loc 1 713 0
 1186 0000 014B     		ldr	r3, .L58
 1187 0002 1878     		ldrb	r0, [r3]	@ zero_extendqisi2
 714:Generated_Source\PSoC5/Injection_1.c **** 
 1188              		.loc 1 714 0
 1189 0004 7047     		bx	lr
 1190              	.L59:
 1191 0006 00BF     		.align	2
 1192              	.L58:
 1193 0008 67640040 		.word	1073767527
 1194              		.cfi_endproc
 1195              	.LFE10:
 1196              		.size	Injection_1_ReadStatusRegister, .-Injection_1_ReadStatusRegister
 1197              		.section	.text.Injection_1_ReadControlRegister,"ax",%progbits
 1198              		.align	2
 1199              		.global	Injection_1_ReadControlRegister
 1200              		.thumb
 1201              		.thumb_func
 1202              		.type	Injection_1_ReadControlRegister, %function
 1203              	Injection_1_ReadControlRegister:
 1204              	.LFB11:
 738:Generated_Source\PSoC5/Injection_1.c ****         uint8 result;
 1205              		.loc 1 738 0
 1206              		.cfi_startproc
 1207              		@ args = 0, pretend = 0, frame = 0
 1208              		@ frame_needed = 0, uses_anonymous_args = 0
 1209              		@ link register save eliminated.
 741:Generated_Source\PSoC5/Injection_1.c ****         return (result);
 1210              		.loc 1 741 0
 1211 0000 014B     		ldr	r3, .L61
 1212 0002 1878     		ldrb	r0, [r3]	@ zero_extendqisi2
 1213              	.LVL20:
 743:Generated_Source\PSoC5/Injection_1.c **** 
 1214              		.loc 1 743 0
 1215 0004 7047     		bx	lr
 1216              	.L62:
 1217 0006 00BF     		.align	2
 1218              	.L61:
 1219 0008 77640040 		.word	1073767543
 1220              		.cfi_endproc
 1221              	.LFE11:
 1222              		.size	Injection_1_ReadControlRegister, .-Injection_1_ReadControlRegister
 1223              		.section	.text.Injection_1_WriteControlRegister,"ax",%progbits
 1224              		.align	2
 1225              		.global	Injection_1_WriteControlRegister
 1226              		.thumb
 1227              		.thumb_func
 1228              		.type	Injection_1_WriteControlRegister, %function
 1229              	Injection_1_WriteControlRegister:
 1230              	.LFB12:
 766:Generated_Source\PSoC5/Injection_1.c ****         CY_SET_REG8(Injection_1_CONTROL_PTR, control);
 1231              		.loc 1 766 0
 1232              		.cfi_startproc
 1233              		@ args = 0, pretend = 0, frame = 0
 1234              		@ frame_needed = 0, uses_anonymous_args = 0
ARM GAS  C:\Users\Bruger\AppData\Local\Temp\ccPhhSKd.s 			page 72


 1235              		@ link register save eliminated.
 1236              	.LVL21:
 767:Generated_Source\PSoC5/Injection_1.c ****     }
 1237              		.loc 1 767 0
 1238 0000 014B     		ldr	r3, .L64
 1239 0002 1870     		strb	r0, [r3]
 1240 0004 7047     		bx	lr
 1241              	.L65:
 1242 0006 00BF     		.align	2
 1243              	.L64:
 1244 0008 77640040 		.word	1073767543
 1245              		.cfi_endproc
 1246              	.LFE12:
 1247              		.size	Injection_1_WriteControlRegister, .-Injection_1_WriteControlRegister
 1248              		.section	.text.Injection_1_ReadCapture,"ax",%progbits
 1249              		.align	2
 1250              		.global	Injection_1_ReadCapture
 1251              		.thumb
 1252              		.thumb_func
 1253              		.type	Injection_1_ReadCapture, %function
 1254              	Injection_1_ReadCapture:
 1255              	.LFB13:
 791:Generated_Source\PSoC5/Injection_1.c ****         return (CY_GET_REG16(Injection_1_CAPTURE_LSB_PTR));
 1256              		.loc 1 791 0
 1257              		.cfi_startproc
 1258              		@ args = 0, pretend = 0, frame = 0
 1259              		@ frame_needed = 0, uses_anonymous_args = 0
 1260              		@ link register save eliminated.
 1261              		.loc 1 792 0
 1262 0000 014B     		ldr	r3, .L67
 1263 0002 1888     		ldrh	r0, [r3]
 793:Generated_Source\PSoC5/Injection_1.c ****     }
 1264              		.loc 1 793 0
 1265 0004 80B2     		uxth	r0, r0
 1266 0006 7047     		bx	lr
 1267              	.L68:
 1268              		.align	2
 1269              	.L67:
 1270 0008 AC680040 		.word	1073768620
 1271              		.cfi_endproc
 1272              	.LFE13:
 1273              		.size	Injection_1_ReadCapture, .-Injection_1_ReadCapture
 1274              		.section	.text.Injection_1_ReadCompare,"ax",%progbits
 1275              		.align	2
 1276              		.global	Injection_1_ReadCompare
 1277              		.thumb
 1278              		.thumb_func
 1279              		.type	Injection_1_ReadCompare, %function
 1280              	Injection_1_ReadCompare:
 1281              	.LFB14:
 794:Generated_Source\PSoC5/Injection_1.c **** 
 795:Generated_Source\PSoC5/Injection_1.c **** #endif /* (!Injection_1_UsingFixedFunction) */
 796:Generated_Source\PSoC5/Injection_1.c **** 
 797:Generated_Source\PSoC5/Injection_1.c **** 
 798:Generated_Source\PSoC5/Injection_1.c **** #if (Injection_1_UseOneCompareMode)
 799:Generated_Source\PSoC5/Injection_1.c **** 
 800:Generated_Source\PSoC5/Injection_1.c **** 
ARM GAS  C:\Users\Bruger\AppData\Local\Temp\ccPhhSKd.s 			page 73


 801:Generated_Source\PSoC5/Injection_1.c ****     /*******************************************************************************
 802:Generated_Source\PSoC5/Injection_1.c ****     * Function Name: Injection_1_ReadCompare
 803:Generated_Source\PSoC5/Injection_1.c ****     ********************************************************************************
 804:Generated_Source\PSoC5/Injection_1.c ****     *
 805:Generated_Source\PSoC5/Injection_1.c ****     * Summary:
 806:Generated_Source\PSoC5/Injection_1.c ****     *  Reads the compare value for the compare output when the PWM Mode parameter is
 807:Generated_Source\PSoC5/Injection_1.c ****     *  set to Dither mode, Center Aligned mode, or One Output mode.
 808:Generated_Source\PSoC5/Injection_1.c ****     *
 809:Generated_Source\PSoC5/Injection_1.c ****     * Parameters:
 810:Generated_Source\PSoC5/Injection_1.c ****     *  None
 811:Generated_Source\PSoC5/Injection_1.c ****     *
 812:Generated_Source\PSoC5/Injection_1.c ****     * Return:
 813:Generated_Source\PSoC5/Injection_1.c ****     *  uint8/uint16: Current compare value
 814:Generated_Source\PSoC5/Injection_1.c ****     *
 815:Generated_Source\PSoC5/Injection_1.c ****     *******************************************************************************/
 816:Generated_Source\PSoC5/Injection_1.c ****     uint16 Injection_1_ReadCompare(void) 
 817:Generated_Source\PSoC5/Injection_1.c ****     {
 1282              		.loc 1 817 0
 1283              		.cfi_startproc
 1284              		@ args = 0, pretend = 0, frame = 0
 1285              		@ frame_needed = 0, uses_anonymous_args = 0
 1286              		@ link register save eliminated.
 818:Generated_Source\PSoC5/Injection_1.c ****         #if(Injection_1_UsingFixedFunction)
 819:Generated_Source\PSoC5/Injection_1.c ****             return ((uint16)CY_GET_REG16(Injection_1_COMPARE1_LSB_PTR));
 820:Generated_Source\PSoC5/Injection_1.c ****         #else
 821:Generated_Source\PSoC5/Injection_1.c ****             return (CY_GET_REG16(Injection_1_COMPARE1_LSB_PTR));
 1287              		.loc 1 821 0
 1288 0000 014B     		ldr	r3, .L70
 1289 0002 1888     		ldrh	r0, [r3]
 822:Generated_Source\PSoC5/Injection_1.c ****         #endif /* (Injection_1_UsingFixedFunction) */
 823:Generated_Source\PSoC5/Injection_1.c ****     }
 1290              		.loc 1 823 0
 1291 0004 80B2     		uxth	r0, r0
 1292 0006 7047     		bx	lr
 1293              	.L71:
 1294              		.align	2
 1295              	.L70:
 1296 0008 4C680040 		.word	1073768524
 1297              		.cfi_endproc
 1298              	.LFE14:
 1299              		.size	Injection_1_ReadCompare, .-Injection_1_ReadCompare
 1300              		.section	.text.Injection_1_ReadPeriod,"ax",%progbits
 1301              		.align	2
 1302              		.global	Injection_1_ReadPeriod
 1303              		.thumb
 1304              		.thumb_func
 1305              		.type	Injection_1_ReadPeriod, %function
 1306              	Injection_1_ReadPeriod:
 1307              	.LFB15:
 824:Generated_Source\PSoC5/Injection_1.c **** 
 825:Generated_Source\PSoC5/Injection_1.c **** #else
 826:Generated_Source\PSoC5/Injection_1.c **** 
 827:Generated_Source\PSoC5/Injection_1.c **** 
 828:Generated_Source\PSoC5/Injection_1.c ****     /*******************************************************************************
 829:Generated_Source\PSoC5/Injection_1.c ****     * Function Name: Injection_1_ReadCompare1
 830:Generated_Source\PSoC5/Injection_1.c ****     ********************************************************************************
 831:Generated_Source\PSoC5/Injection_1.c ****     *
ARM GAS  C:\Users\Bruger\AppData\Local\Temp\ccPhhSKd.s 			page 74


 832:Generated_Source\PSoC5/Injection_1.c ****     * Summary:
 833:Generated_Source\PSoC5/Injection_1.c ****     *  Reads the compare value for the compare1 output.
 834:Generated_Source\PSoC5/Injection_1.c ****     *
 835:Generated_Source\PSoC5/Injection_1.c ****     * Parameters:
 836:Generated_Source\PSoC5/Injection_1.c ****     *  None
 837:Generated_Source\PSoC5/Injection_1.c ****     *
 838:Generated_Source\PSoC5/Injection_1.c ****     * Return:
 839:Generated_Source\PSoC5/Injection_1.c ****     *  uint8/uint16: Current compare value.
 840:Generated_Source\PSoC5/Injection_1.c ****     *
 841:Generated_Source\PSoC5/Injection_1.c ****     *******************************************************************************/
 842:Generated_Source\PSoC5/Injection_1.c ****     uint16 Injection_1_ReadCompare1(void) 
 843:Generated_Source\PSoC5/Injection_1.c ****     {
 844:Generated_Source\PSoC5/Injection_1.c ****         return (CY_GET_REG16(Injection_1_COMPARE1_LSB_PTR));
 845:Generated_Source\PSoC5/Injection_1.c ****     }
 846:Generated_Source\PSoC5/Injection_1.c **** 
 847:Generated_Source\PSoC5/Injection_1.c **** 
 848:Generated_Source\PSoC5/Injection_1.c ****     /*******************************************************************************
 849:Generated_Source\PSoC5/Injection_1.c ****     * Function Name: Injection_1_ReadCompare2
 850:Generated_Source\PSoC5/Injection_1.c ****     ********************************************************************************
 851:Generated_Source\PSoC5/Injection_1.c ****     *
 852:Generated_Source\PSoC5/Injection_1.c ****     * Summary:
 853:Generated_Source\PSoC5/Injection_1.c ****     *  Reads the compare value for the compare2 output.
 854:Generated_Source\PSoC5/Injection_1.c ****     *
 855:Generated_Source\PSoC5/Injection_1.c ****     * Parameters:
 856:Generated_Source\PSoC5/Injection_1.c ****     *  None
 857:Generated_Source\PSoC5/Injection_1.c ****     *
 858:Generated_Source\PSoC5/Injection_1.c ****     * Return:
 859:Generated_Source\PSoC5/Injection_1.c ****     *  uint8/uint16: Current compare value.
 860:Generated_Source\PSoC5/Injection_1.c ****     *
 861:Generated_Source\PSoC5/Injection_1.c ****     *******************************************************************************/
 862:Generated_Source\PSoC5/Injection_1.c ****     uint16 Injection_1_ReadCompare2(void) 
 863:Generated_Source\PSoC5/Injection_1.c ****     {
 864:Generated_Source\PSoC5/Injection_1.c ****         return (CY_GET_REG16(Injection_1_COMPARE2_LSB_PTR));
 865:Generated_Source\PSoC5/Injection_1.c ****     }
 866:Generated_Source\PSoC5/Injection_1.c **** 
 867:Generated_Source\PSoC5/Injection_1.c **** #endif /* (Injection_1_UseOneCompareMode) */
 868:Generated_Source\PSoC5/Injection_1.c **** 
 869:Generated_Source\PSoC5/Injection_1.c **** 
 870:Generated_Source\PSoC5/Injection_1.c **** /*******************************************************************************
 871:Generated_Source\PSoC5/Injection_1.c **** * Function Name: Injection_1_ReadPeriod
 872:Generated_Source\PSoC5/Injection_1.c **** ********************************************************************************
 873:Generated_Source\PSoC5/Injection_1.c **** *
 874:Generated_Source\PSoC5/Injection_1.c **** * Summary:
 875:Generated_Source\PSoC5/Injection_1.c **** *  Reads the period value used by the PWM hardware.
 876:Generated_Source\PSoC5/Injection_1.c **** *
 877:Generated_Source\PSoC5/Injection_1.c **** * Parameters:
 878:Generated_Source\PSoC5/Injection_1.c **** *  None
 879:Generated_Source\PSoC5/Injection_1.c **** *
 880:Generated_Source\PSoC5/Injection_1.c **** * Return:
 881:Generated_Source\PSoC5/Injection_1.c **** *  uint8/16: Period value
 882:Generated_Source\PSoC5/Injection_1.c **** *
 883:Generated_Source\PSoC5/Injection_1.c **** *******************************************************************************/
 884:Generated_Source\PSoC5/Injection_1.c **** uint16 Injection_1_ReadPeriod(void) 
 885:Generated_Source\PSoC5/Injection_1.c **** {
 1308              		.loc 1 885 0
 1309              		.cfi_startproc
 1310              		@ args = 0, pretend = 0, frame = 0
ARM GAS  C:\Users\Bruger\AppData\Local\Temp\ccPhhSKd.s 			page 75


 1311              		@ frame_needed = 0, uses_anonymous_args = 0
 1312              		@ link register save eliminated.
 886:Generated_Source\PSoC5/Injection_1.c ****     #if(Injection_1_UsingFixedFunction)
 887:Generated_Source\PSoC5/Injection_1.c ****         return ((uint16)CY_GET_REG16(Injection_1_PERIOD_LSB_PTR));
 888:Generated_Source\PSoC5/Injection_1.c ****     #else
 889:Generated_Source\PSoC5/Injection_1.c ****         return (CY_GET_REG16(Injection_1_PERIOD_LSB_PTR));
 1313              		.loc 1 889 0
 1314 0000 014B     		ldr	r3, .L73
 1315 0002 1888     		ldrh	r0, [r3]
 890:Generated_Source\PSoC5/Injection_1.c ****     #endif /* (Injection_1_UsingFixedFunction) */
 891:Generated_Source\PSoC5/Injection_1.c **** }
 1316              		.loc 1 891 0
 1317 0004 80B2     		uxth	r0, r0
 1318 0006 7047     		bx	lr
 1319              	.L74:
 1320              		.align	2
 1321              	.L73:
 1322 0008 8C680040 		.word	1073768588
 1323              		.cfi_endproc
 1324              	.LFE15:
 1325              		.size	Injection_1_ReadPeriod, .-Injection_1_ReadPeriod
 1326              		.global	Injection_1_initVar
 1327              		.bss
 1328              		.set	.LANCHOR0,. + 0
 1329              		.type	Injection_1_initVar, %object
 1330              		.size	Injection_1_initVar, 1
 1331              	Injection_1_initVar:
 1332 0000 00       		.space	1
 1333              		.text
 1334              	.Letext0:
 1335              		.file 2 "Generated_Source\\PSoC5\\cytypes.h"
 1336              		.file 3 "Generated_Source\\PSoC5\\CyLib.h"