ARM GAS  C:\Users\Bruger\AppData\Local\Temp\cclE5rXE.s 			page 1


   1              		.syntax unified
   2              		.cpu cortex-m3
   3              		.fpu softvfp
   4              		.eabi_attribute 20, 1
   5              		.eabi_attribute 21, 1
   6              		.eabi_attribute 23, 3
   7              		.eabi_attribute 24, 1
   8              		.eabi_attribute 25, 1
   9              		.eabi_attribute 26, 1
  10              		.eabi_attribute 30, 2
  11              		.eabi_attribute 34, 1
  12              		.eabi_attribute 18, 4
  13              		.thumb
  14              		.file	"InjectionTimer_2.c"
  15              		.text
  16              	.Ltext0:
  17              		.section	.gnu.lto_.profile.24c16c5b,"",%progbits
  18 0000 789C6366 		.ascii	"x\234cf```a\200\000F\206\022O\000\001\245\000\306"
  18      60606061 
  18      80004686 
  18      124F0001 
  18      A500C6
  19              		.text
  20              		.section	.gnu.lto_.jmpfuncs.24c16c5b,"",%progbits
  21 0000 789C6D8B 		.ascii	"x\234m\213I\016\300 \014\003'b+\224\355K}\031_\207\250"
  21      490EC020 
  21      0C032762 
  21      2B94ED4B 
  21      7D195F87 
  22 0015 396269EC 		.ascii	"9bi\354\271\330q\317g;\017b8\360\020DdEH\360\250f\255"
  22      B9D871CF 
  22      673B0F62 
  22      38F01044 
  22      644548F0 
  23 002c A2F54285 		.ascii	"\242\365B\205\246\332a\374\347\015h\220\003f"
  23      A6DA61FC 
  23      E70D6890 
  23      0366
  24              		.text
  25              		.section	.gnu.lto_.inline.24c16c5b,"",%progbits
  26 0000 789C6DCB 		.ascii	"x\234m\313\273\015\302@\020\004\320\271\337r\334\031"
  26      BB0DC240 
  26      1004D0B9 
  26      DF72DC19 
  27 0010 DB0D2037 		.ascii	"\333\015 7\200\310i\300\241\233\240\027bJp\025\324A"
  27      80C869C0 
  27      A19BA017 
  27      624A7015 
  27      D441
  28 0022 408C881D 		.ascii	"@\214\210\035\271\004\326B\332d\330`Fz\243\015\370\177"
  28      B904D642 
  28      DA64D860 
  28      467AA30D 
  28      F87F
  29 0034 A3FB750F 		.ascii	"\243\373u\017\034?p\360\247\333;C\346\301o\352+\340"
  29      1C3F70F0 
  29      A7DB3B43 
ARM GAS  C:\Users\Bruger\AppData\Local\Temp\cclE5rXE.s 			page 2


  29      E6C16FEA 
  29      2BE0
  30 0046 EED356BA 		.ascii	"\356\323V\272\325F\367v\271\332\354\212F\200$uY\317"
  30      D546F776 
  30      B9DAEC8A 
  30      46802475 
  30      59CF
  31 0058 E6912921 		.ascii	"\346\221)!\006%\377\354\214\004)*\305y0\332!_\224\312"
  31      0625FFEC 
  31      8C04292A 
  31      C57930DA 
  31      215F94CA 
  32 006c E3256699 		.ascii	"\343%f\231?\367L\205\25125L\007\246\226\251c\352\231"
  32      3FF74C85 
  32      A932354C 
  32      07A696A9 
  32      63EA99
  33 007f F005135A 		.ascii	"\360\005\023Z \241"
  33      20A1
  34              		.text
  35              		.section	.gnu.lto_.pureconst.24c16c5b,"",%progbits
  36 0000 789C25C1 		.ascii	"x\234%\3017\022\000 \014\004\261cL\216\256\267\343\377"
  36      37120020 
  36      0C04B163 
  36      4C8EAEB7 
  36      E3FF
  37 0012 9FA44032 		.ascii	"\237\244@2IW\237\213\200\021Id\012\225Fg0Yl\016\316"
  37      49579F8B 
  37      80114964 
  37      0A954667 
  37      30596C0E 
  38 0027 03282F02 		.ascii	"\003(/\002["
  38      5B
  39              		.text
  40              		.section	.gnu.lto_InjectionTimer_2_Init.24c16c5b,"",%progbits
  41 0000 789C8D96 		.ascii	"x\234\215\226_LSW\034\307\317\357\334\333\336R\240\345"
  41      5F4C5357 
  41      1CC7CFEF 
  41      DCDBDE52 
  41      A0E5
  42 0012 CF1E9464 		.ascii	"\317\036\224d\361\201\007\267e\363\201\304\027_\227"
  42      F18107B7 
  42      65F381C4 
  42      175F97
  43 0021 65599625 		.ascii	"eY\226%f\354iq!\004\372\3002\2014eo\306[Z\310F\310D"
  43      66EC6971 
  43      2104FAC0 
  43      32813465 
  43      6FC65B5A 
  44 0039 6210D940 		.ascii	"b\020\331@'\250(\377DDAt\\`\362\257\312_\241\300\224"
  44      27A828FF 
  44      44444174 
  44      5C60F2AF 
  44      CA5FA1C0 
  45 004e 3F020397 		.ascii	"?\002\003\227\215\301\332\014\212\223\356w\316\275-"
  45      8DC1DA0C 
  45      8A93EE77 
ARM GAS  C:\Users\Bruger\AppData\Local\Temp\cclE5rXE.s 			page 3


  45      CEBD2D
  46 005d B4C56524 		.ascii	"\264\305e$=\275\367\364\367\373\235\357\347w~\347w\020"
  46      3DBDF7F4 
  46      F7FB9DEF 
  46      E7777EE7 
  46      7710
  47 006f 48E4DF07 		.ascii	"H\344\337\007\370\221\242\010\371\032\277AO\200\226"
  47      F891A208 
  47      F91ABF41 
  47      4F8096
  48 007e 0C116237 		.ascii	"\014\021b7P\020\325\007A}\3502\210T(\356#D6\352\234"
  48      5010D507 
  48      417DE832 
  48      885428EE 
  48      234436EA 
  49 0093 12916374 		.ascii	"\022\221ct\000l\236\0009M\005Q\007\247\251\250\006|"
  49      006C9E00 
  49      394D0551 
  49      07A7A9A8 
  49      067C
  50 00a5 41372894 		.ascii	"A7(\224(u\345\321\207\257\310\262\274\336\335z\240\340"
  50      2875E5D1 
  50      87AFC8B2 
  50      BCDEDD7A 
  50      A0E0
  51 00b7 808F12E2 		.ascii	"\200\217\022\342\241\252\001\\\203\303\004m\376q6-\230"
  51      A1AA015C 
  51      83C3046D 
  51      FE71362D 
  51      98
  52 00c8 85F7803D 		.ascii	"\205\367\200=\277\254)Z2&\377(\313\371\363M\213}\321"
  52      BFAC295A 
  52      3226FF28 
  52      CBF9F34D 
  52      8B7DD1
  53 00db 72B9EC9C 		.ascii	"r\271\354\234\367\373\017\371(@-\010\350\011\357&\301"
  53      F7FB0FF9 
  53      28402D08 
  53      E809EF26 
  53      C1
  54 00ec DB499A66 		.ascii	"\333I\232ft\350\254\230\2536\013)\334y\256zR1\251\316"
  54      74E8AC98 
  54      AB360B29 
  54      DC79AE7A 
  54      5231A9CE 
  55 0100 0F160743 		.ascii	"\017\026\007C\234o\354\353\274\341|\345\216\326;Q]\034"
  55      9C6FECEB 
  55      BCE17CE5 
  55      8ED63B51 
  55      5D1C
  56 0112 5C8764A8 		.ascii	"\\\207d\250\203dU\035\324\203\036\010\241\201\331\246"
  56      8364551D 
  56      D4831E08 
  56      A181D9A6 
  57 0122 0445F6FB 		.ascii	"\004E\366\373=\223gW\217\321\203\224\370(\025\010\373"
  57      3D936757 
  57      8FD18394 
ARM GAS  C:\Users\Bruger\AppData\Local\Temp\cclE5rXE.s 			page 4


  57      F8281508 
  57      FB
  58 0133 4D648F7A 		.ascii	"Md\217z6Hl\210b\203\221\015\261l0\341\000f\034\204x"
  58      36486C88 
  58      6283910D 
  58      B16C30E1 
  58      00661C84 
  59 0148 C2A224B0 		.ascii	"\302\242$\260\311D6\020\262\204\037\314\3372>;%a\006"
  59      C9443610 
  59      B2841FCC 
  59      DF323E3B 
  59      256106
  60 015b BAFF2E5A 		.ascii	"\272\377.Z\253:\316\326\335\244,q\363]\013w\243W\251"
  60      AB3ACED6 
  60      DDA42C71 
  60      F35D0B77 
  60      A357A9
  61 016e 8F8A9B83 		.ascii	"\217\212\233\203vY\344xK\303\243\006>\305\305\327*E"
  61      7659E478 
  61      4BC3A306 
  61      3EC5C5D7 
  61      2A45
  62 0180 B352257C 		.ascii	"\263R%|ow\202\217\352\240\001\222\240\021\020\016\232"
  62      6F77828F 
  62      EAA00192 
  62      A011100E 
  62      9A
  63 0191 A012C80C 		.ascii	"\240\022\310\0148\266\012\275\240\006\024\324\230\015"
  63      38B60ABD 
  63      A00614D4 
  63      980D
  64 019f 2D1DCF80 		.ascii	"-\035\317\200\005\000\005\010\334D\343I\240\034\025"
  64      05000508 
  64      DC44E349 
  64      A01C15
  65 01ae 51D08A39 		.ascii	"Q\320\2129y\013w\252\316in\"\316\241\333T\377\371\243"
  65      790B77AA 
  65      CE696E22 
  65      CEA1DB54 
  65      FFF9A3
  66 01c1 CC0BF1A0 		.ascii	"\314\013\361\240\031\235Pl)\267\010\021aW\016\206\312"
  66      199D506C 
  66      29B70811 
  66      61570E86 
  66      CA
  67 01d2 B8853230 		.ascii	"\270\20520\006\341lC\265\367\264\240\314\313\2750\271"
  67      06E16C43 
  67      B5F7B4A0 
  67      CCCBBD30 
  67      B9
  68 01e3 A992940F 		.ascii	"\251\222\224\017hp\005[\005\303\372]\232\226`\230\333"
  68      6870055B 
  68      05C3FA5D 
  68      9A966098 
  68      DB
  69 01f4 1A8D57AF 		.ascii	"\032\215W\257\372Kj\210\276\312\325[\"W\205(\255a\252"
  69      FA4B6A88 
ARM GAS  C:\Users\Bruger\AppData\Local\Temp\cclE5rXE.s 			page 5


  69      BECAD55B 
  69      22578528 
  69      AD61AA
  70 0207 5E1BEC0E 		.ascii	"^\033\354\016\327$\251\232\306\336R#F\241\307\345\225"
  70      D724A99A 
  70      C6DE5223 
  70      46A1C7E5 
  70      95
  71 0218 EA6D55D1 		.ascii	"\352mU\321\205\200\242a\327t\331\236 w\203A\332\302"
  71      8580A261 
  71      D774D99E 
  71      20778341 
  71      DAC2
  72 022a 14193144 		.ascii	"\024\0311D\204\204\327z\267s\011\306@\352\321th\300"
  72      8484D77A 
  72      B77309C6 
  72      40EAD174 
  72      68C0
  73 023c 61133EE5 		.ascii	"a\023>\345\025\354z\276\345\211a2\364q\354\265\302\275"
  73      15EC7ABE 
  73      E5896132 
  73      F471ECB5 
  73      C2BD
  74 024e EC15D8AB 		.ascii	"\354\025\330\253D\331\353\225\342\016{\254Z\337\365"
  74      44D9EB95 
  74      E20E7BAC 
  74      5ADFF5
  75 025d 3DE94AFE 		.ascii	"=\351J\376%y\307\357\307\360\002\334S\313\273\003W\271"
  75      2579C7EF 
  75      C7F002DC 
  75      53CBBB03 
  75      57B9
  76 026f 0F810287 		.ascii	"\017\201\002\207\007\220\214^\216\361V?\017\"\364\317"
  76      07908C5E 
  76      8EF1563F 
  76      0F22F4CF 
  77 027f A1CD4FAA 		.ascii	"\241\315O\252\320\262fw\231\020r\004\224\012#\363\340"
  77      D0B26677 
  77      99107204 
  77      940A23F3 
  77      E0
  78 0290 B5EFA110 		.ascii	"\265\357\241\020v>\010tbW X9L\362\331\346\207\227%\026"
  78      763E0874 
  78      62572058 
  78      394CF2D9 
  78      E6879725 
  79 02a5 D3503212 		.ascii	"\323P2\022^\235\006^\235\277oWU\003\343?g7\3700?](\255"
  79      5E9D065E 
  79      9DBF6F57 
  79      5503E33F 
  79      6737F830 
  80 02bd 9B27A007 		.ascii	"\233'\240\007\247\271\212I\310\347\224\376\226\215Q"
  80      A7B98A49 
  80      C8E794FE 
  80      968D51
  81 02cc 49F89CAF 		.ascii	"I\370\234\257X\2604~]\267/\342\317\373\">\304\363\031"
  81      58B0347E 
ARM GAS  C:\Users\Bruger\AppData\Local\Temp\cclE5rXE.s 			page 6


  81      5DB72FE2 
  81      CFFB223E 
  81      C4F319
  82 02df 20DA5839 		.ascii	" \332X9\037F\324<H\231\205\206D#\220z9R\037G\222w:\013"
  82      1F46D43C 
  82      48998586 
  82      4423907A 
  82      39521F47 
  83 02f7 45156954 		.ascii	"E\025iTC\352huL\230\3670\364\007\031\006\302\031\224"
  83      43EA6875 
  83      4C98F730 
  83      F4071906 
  83      C21994
  84 030a D2819158 		.ascii	"\322\201\221X!\2353\374U\363\333\232y_\206\301}\031"
  84      219D33FC 
  84      55F3DB9A 
  84      795F86C1 
  84      7D19
  85 031c 5C7C9B86 		.ascii	"\\|\233\206G\034\215<\177\202\274\215%\375(\260M\217"
  85      471C8D3C 
  85      7F82BC8D 
  85      25FD28B0 
  85      4D8F
  86 032e CB8F8542 		.ascii	"\313\217\205B\33512\017\215I\210`z\314\231\2068\323"
  86      DD31320F 
  86      8D498860 
  86      7ACC9986 
  86      38D3
  87 0340 585BC98C 		.ascii	"X[\311\214\2363\215\004\266\251\247\336{u\357\276\014"
  87      9E338D04 
  87      B6A9A7DE 
  87      7B75EFBE 
  87      0C
  88 0351 07994618 		.ascii	"\007\231F\030\323\243=Lg\346_\265\351\205,\316\224\337"
  88      D3A33D4C 
  88      67E65FB5 
  88      E9852CCE 
  88      94DF
  89 0363 75A93458 		.ascii	"u\2514Xz_(\366\000\023\300hdg\2051Nd\277\332Q\314\213"
  89      7A5F28F6 
  89      0013C068 
  89      64678531 
  89      4E64BFDA 
  90 037a 045B1D8C 		.ascii	"\004[\035\214\007x\376\254H\011\345\361\032\231\275"
  90      0778FEAC 
  90      4809E5F1 
  90      1A99BD
  91 0389 C62346F0 		.ascii	"\306#F\360<\341<\023\234\307~\373\314\000\347\021\277"
  91      3CE13C13 
  91      9CC77EFB 
  91      CC00E711 
  91      BF
  92 039a 0D9CD2B2 		.ascii	"\015\234\322\262\365\232k\261A\036\035L\006\017\232"
  92      F59A6BB1 
  92      411E1D4C 
  92      060F9A
  93 03a9 9BF1B065 		.ascii	"\233\361\260e\237\202C\271\350:\242\036\326x\364\251"
ARM GAS  C:\Users\Bruger\AppData\Local\Temp\cclE5rXE.s 			page 7


  93      9F8243B9 
  93      E83AA21E 
  93      D678F4A9 
  94 03b9 1AFFAE91 		.ascii	"\032\377\256\221\236z)\177#\243\213\321Cuh=\005\247"
  94      9E7A297F 
  94      23A38BD1 
  94      4375683D 
  94      05A7
  95 03cb B0314707 		.ascii	"\2601G\007;b\035\353\210\361Z\363j\270\2575\257\204"
  95      3B621DEB 
  95      88F15AF3 
  95      6AB8AF35 
  95      AF84
  96 03dd FF3AD9D3 		.ascii	"\377:\331\323a}!Q\265\017\236i\21243\377\267M\374\302"
  96      617D2151 
  96      B50F9E69 
  96      8A3433FF 
  96      B74DFCC2 
  97 03f1 DB44228A 		.ascii	"\333D\"\212w*\355.\0233'\341\322c<\224\345\346)JG\255"
  97      772AED2E 
  97      133327E1 
  97      D2633C94 
  97      E5E6294A 
  98 0407 3EBC7408 		.ascii	">\274t\010^(\002\301\353Y\275Qz]\325\372\320d\217\272"
  98      5E2802C1 
  98      EB59BD51 
  98      7A5DD5FA 
  98      D0648FBA 
  99 041b 4C5AA6A5 		.ascii	"LZ\246\245\210L?c\231\0165o\231}\203\300,37D\230\317"
  99      884C3F63 
  99      990E356F 
  99      997D83C0 
  99      2C333744 
 100 0431 F18D9967 		.ascii	"\361\215\231g\244f\326\253\376x0\305\353\327ts4\274"
 100      A466D6AB 
 100      FE7830C5 
 100      EBD77473 
 100      34BC
 101 0443 259878DC 		.ascii	"%\230x\334\013\353Km\273\307\311\014\013\010\373\234"
 101      0BEB4B6D 
 101      BBC7C90C 
 101      0B08FB9C 
 102 0453 C32EB2CC 		.ascii	"\303.\262\3141\355\"\301\377%T\355C\355\341\332/V\275"
 102      31ED22C1 
 102      FF2554ED 
 102      43EDE1DA 
 102      2F56BD
 103 0466 A989898A 		.ascii	"\251\211\211\212\020\263\304\305,31&\326R;\177\230\213"
 103      10B3C4C5 
 103      2C333126 
 103      D6523B7F 
 103      988B
 104 0478 622BC7BD 		.ascii	"b+\307\275\350\017\027\023\307\305\254\365V<\241A1\361"
 104      E80F1713 
 104      C7C5ACF5 
 104      563CA141 
 104      31F1
ARM GAS  C:\Users\Bruger\AppData\Local\Temp\cclE5rXE.s 			page 8


 105 048a F02B8A59 		.ascii	"\360+\212Y\341bVw\257O\312\226\333\244\261\030\224\357"
 105      E1625677 
 105      AF4FCA96 
 105      DBA4B118 
 105      94EF
 106 049c DC0438A7 		.ascii	"\334\0048\247\0357@\233\345\305E\270n\035\273\304g\301"
 106      1D37409B 
 106      E5C545B8 
 106      6E1DBBC4 
 106      67C1
 107 04ae AEB83FE6 		.ascii	"\256\270?\346;E\330\005\0178\211\245\377\316\207\226"
 107      3B45D805 
 107      0F3889A5 
 107      FFCE8796 
 108 04be 6C8B35DD 		.ascii	"l\2135\335f\311LK\315\311\263fXN\034O\315y\377\350\211"
 108      66C94C4B 
 108      CDC9B366 
 108      584E1C4F 
 108      CD79FFE8 
 109 04d3 8FB2BFB4 		.ascii	"\217\262\277\264d\330\262r\262?\313:i\261\246\245\034"
 109      64D8B272 
 109      B23FCB3A 
 109      69B1A6A5 
 109      1C
 110 04e4 C9206286 		.ascii	"\311 b\206\315\372\325\241\360\037\322\262\262m\026"
 110      CDFAD5A1 
 110      F01FD2B2 
 110      B26D16
 111 04f3 AB352FD7 		.ascii	"\2535/\327\226j\3030RFN\036\233\320\347Z\254Y9\231\370"
 111      966AC330 
 111      52464E1E 
 111      9BD0E75A 
 111      AC593999 
 112 0508 7A3237DD 		.ascii	"z27\335j\211\015Z}\222\223i\371\027Q\316_\310"
 112      6A890D5A 
 112      7D929369 
 112      F91751CE 
 112      5FC8
 113              		.text
 114              		.section	.gnu.lto_InjectionTimer_2_Start.24c16c5b,"",%progbits
 115 0000 789C7D91 		.ascii	"x\234}\221_H\024Q\024\306\317w\3578;\266Q\022\370\342"
 115      5F481451 
 115      14C6CF77 
 115      EF383BB6 
 115      5112F8E2 
 116 0014 C3BE0A11 		.ascii	"\303\276\012\021\005E/\275\006\205>\011\366(Hl\003\031"
 116      05452FBD 
 116      06853E09 
 116      F628486C 
 116      0319
 117 0026 B40B8B3D 		.ascii	"\264\013\213=.\336i\227\210\010\221I!J{\323,\313\315"
 117      2EDE6997 
 117      88089149 
 117      214A7BD3 
 117      2CCBCD
 118 0039 AC84CD62 		.ascii	"\254\204\315b\354Q\310\220\350\017\022\375\001\205\352"
 118      EC51C890 
ARM GAS  C:\Users\Bruger\AppData\Local\Temp\cclE5rXE.s 			page 9


 118      E80F12FD 
 118      0185EA
 119 0048 696D2359 		.ascii	"im#YB\266s\356D\341F\016\314\2753\347~\347\273\277\373"
 119      42B673EE 
 119      44E1460E 
 119      CCBD33E7 
 119      7EE7BBBF 
 120 005d 5D4DFF3E 		.ascii	"]M\377>\207\370=\255\210\366\361\214&\202\032Z\"\012"
 120      87F83DAD 
 120      88F6F18C 
 120      26821A5A 
 120      220A
 121 006f 3CA57439 		.ascii	"<\245t9Ef\207\363\372\000\231\235\032N\\v\000\371 \320"
 121      456687F3 
 121      FA00999D 
 121      1A4E5C76 
 121      00F920D0 
 122 0083 80D20E06 		.ascii	"\200\322\016\006\360E\255+\014ESW\223\355\343\306\230"
 122      F045AD2B 
 122      0C455357 
 122      93EDE3C6 
 122      98
 123 0094 CAB7E741 		.ascii	"\312\267\347AW\204\032\033VU\274\001n\242\235X\264^"
 123      57841A1B 
 123      5655BC01 
 123      6EA29D58 
 123      B45E
 124 00a6 DC7C9374 		.ascii	"\334|\223t\213,j\211\3270\011\027<\227\366D\246^\237"
 124      8B2C6A89 
 124      D7300917 
 124      3C97F644 
 124      A65E9F
 125 00b9 9D5F08DD 		.ascii	"\235_\010\335fM5\205\204\014\236\014D\253\254\224\035"
 125      664D3585 
 125      840C9E0C 
 125      44ABAC94 
 125      1D
 126 00ca D7949259 		.ascii	"\327\224\222Y\257\340|8\363\244Cz7\224f\333\033/\007"
 126      AFE07C38 
 126      F3A4437A 
 126      379466DB 
 126      1B2F07
 127 00dd A755FEA7 		.ascii	"\247U\376\247\271h\274\232R\233b\314\325\017\253/\226"
 127      B968BC9A 
 127      529B62CC 
 127      D50FAB2F 
 127      96
 128 00ee BDCF8A2B 		.ascii	"\275\317\212+\366w2(\216b\014\327\003#*\215[\310\343"
 128      F6773228 
 128      8E620CD7 
 128      03232A8D 
 128      5BC8E3
 129 0101 36DA9861 		.ascii	"6\332\230a\212\313\364\012\305\267\205\324_\317`\342"
 129      8ACBF40A 
 129      C5B785D4 
 129      5FCF60E2 
 130 0111 F1E58474 		.ascii	"\361\345\204t3\000\356\210\216\204@S9\245\337\241\020"
ARM GAS  C:\Users\Bruger\AppData\Local\Temp\cclE5rXE.s 			page 10


 130      3300EE88 
 130      8E844053 
 130      39A5DFA1 
 130      10
 131 0122 D57CD152 		.ascii	"\325|\321R\343\356N\3256\334E\236\331\233\210Q+\225"
 131      E3EE4ED5 
 131      36DC459E 
 131      D99B8851 
 131      2B95
 132 0134 A79D22FD 		.ascii	"\247\235\"\375/g#\330\364\037\260\022\227Y\260|m\242"
 132      2F6723D8 
 132      F41FB012 
 132      9759B07C 
 132      6DA2
 133 0146 B05B5034 		.ascii	"\260[P4\010\367,\312\232r~G\361\354\307\245\305#[\242"
 133      08F72CCA 
 133      9A727E47 
 133      F1ECC7A5 
 133      C5235BA2 
 134 015a 8DEAAD36 		.ascii	"\215\352\2556\327*\037\274!s\31402\341\276\0342\301"
 134      D72A1FBC 
 134      2173CC30 
 134      32E1BE1C 
 134      32C1
 135 016c 6B1F173E 		.ascii	"k\037\027>\315%\305\331\335X\014\214\263%5\327\302\225"
 135      CD25C5D9 
 135      DD580C8C 
 135      B32535D7 
 135      C295
 136 017e C2AF23BB 		.ascii	"\302\257#\273\004n8`\270\004f\321\206\007\026\356\241"
 136      046E3860 
 136      B80466D1 
 136      860716EE 
 136      A1
 137 018f A4B682C2 		.ascii	"\244\266\202\302\367\013K\345a\304\236^l;2?\0326\333"
 137      F70B4BE5 
 137      61C49E5E 
 137      6C3B323F 
 137      1A36DB
 138 01a2 EC0C133F 		.ascii	"\354\014\023?b9s\206V\263\255\345\034[\262\011\275G"
 138      62397386 
 138      56B3ADE5 
 138      1C5BB209 
 138      BD47
 139 01b4 105D3966 		.ascii	"\020]9f\363%\271~\310Y9\255\275\307\375\214\237;\331"
 139      F325B97E 
 139      C85939AD 
 139      BDC7FD8C 
 139      9F3BD9
 140 01c7 EF9FEAED 		.ascii	"\357\237\352\355\316\236\313\245\375\236\256\356\354"
 140      CE9ECBA5 
 140      FD9EAEEE 
 140      EC
 141 01d4 D1C33D1D 		.ascii	"\321\303=\035\2313~\272\277/\2339\321w\326\317\365\036"
 141      99337EBA 
 141      BF2F9B39 
 141      D177D6CF 
ARM GAS  C:\Users\Bruger\AppData\Local\Temp\cclE5rXE.s 			page 11


 141      F51E
 142 01e6 DC9FA65F 		.ascii	"\334\237\246_\012~\353t"
 142      0A7EEB74 
 143              		.text
 144              		.section	.gnu.lto_InjectionTimer_2_Enable.24c16c5b,"",%progbits
 145 0000 789C6366 		.ascii	"x\234cf\300\004R@\254\306\310\300\240\003\244\031\231"
 145      C0045240 
 145      ACC6C8C0 
 145      A003A419 
 145      99
 146 0011 19189926 		.ascii	"\031\030\231&\234c`h\344`bd\0041\030\030\031\352\231"
 146      9C636068 
 146      E4606264 
 146      04311818 
 146      19EA99
 147 0024 18EB195F 		.ascii	"\030\353\031_2}db\234p`\365\014n\365\245\015\015\015"
 147      327D6462 
 147      9C7060F5 
 147      0C6EF5A5 
 147      0D0D0D
 148 0037 1F3E7D94 		.ascii	"\037>}\224h\225\370\311\304\300\360\231\011b\014\343"
 148      6895F8C9 
 148      C4C0F099 
 148      09620CE3 
 149 0047 72467506 		.ascii	"rFu\006\240\232\217-\177\257s\263\265\000\325\010@\344"
 149      A09A8F2D 
 149      7FAF73B3 
 149      B500D508 
 149      40E4
 150 0059 185730B2 		.ascii	"\030W0\262\001\215gX/t\240\341\377\377\315g&\277\320"
 150      018D6758 
 150      2F74A0E1 
 150      FFFFCD67 
 150      26BFD0
 151 006c 62666562 		.ascii	"bfeb\370\311\004\264\014H00<\001\252\002Y\365\224\211"
 151      F8C904B4 
 151      0C483030 
 151      3C01AA02 
 151      59F59489 
 152 0080 094433DF 		.ascii	"\011D3\337b<\364\255\353\334\256)\214 \235\337\231@"
 152      623CF4AD 
 152      EBDCAE29 
 152      8C209DDF 
 152      9940
 153 0092 163F38F8 		.ascii	"\026?8\370p;\367\013\246\237LL\337O56\260\200\354\271"
 153      703BF70B 
 153      A69F4C4C 
 153      DF4F3536 
 153      B080ECB9 
 154 00a6 FFE4FC45 		.ascii	"\377\344\374E\016\260\020\003\210\273\342@\327=\366"
 154      0EB01003 
 154      88BBE240 
 154      D73DF6
 155 00b5 B98CB31B 		.ascii	"\271\214\263\033[\030\177213\256d\224b\\\305\010\364"
 155      5B187F32 
 155      3133AE64 
 155      94625CC5 
ARM GAS  C:\Users\Bruger\AppData\Local\Temp\cclE5rXE.s 			page 12


 155      08F4
 156 00c7 1AE36AC6 		.ascii	"\032\343j\306\271\214\014\267\030\233\277\260A\214c"
 156      B98C0CB7 
 156      189BBFB0 
 156      418C63
 157 00d6 86983875 		.ascii	"\206\2308u\317\234I\234 \355\214\015\214\014\214k\200"
 157      CF9C499C 
 157      20ED8C0D 
 157      8C0C8C6B 
 157      80
 158 00e7 4A81D64E 		.ascii	"J\201\326N\002[\211\317\264\265@\323\200f0\334cl<p\335"
 158      025B89CF 
 158      B4B540D3 
 158      806630DC 
 158      636C3C70 
 159 00fc 0FA41AE4 		.ascii	"\017\244\032\344\367'@o\000]\016t\211\226{j^jQbIjJ|"
 159      F727406F 
 159      005D0E74 
 159      89967B6A 
 159      5E6A5162 
 160 0114 707E6951 		.ascii	"p~iQrjL@p\276\263i\214g^VjrIf~^HfnjQ\274\221^2\003\000"
 160      726A4C40 
 160      70BEB369 
 160      8C675E56 
 160      6A724966 
 161 0135 57B476B4 		.ascii	"W\264v\264"
 162              		.text
 163              		.section	.gnu.lto_InjectionTimer_2_Stop.24c16c5b,"",%progbits
 164 0000 789C6366 		.ascii	"x\234cf\300\004R@\254\312\310\300\240\003\244\031\231"
 164      C0045240 
 164      ACCAC8C0 
 164      A003A419 
 164      99
 165 0011 19189926 		.ascii	"\031\030\231&\234c`h\344`bd\0041\030\030\031\352\231"
 165      9C636068 
 165      E4606264 
 165      04311818 
 165      19EA99
 166 0024 18EB195F 		.ascii	"\030\353\031_2}db\234p`\365\014n\365\245\015\015\015"
 166      327D6462 
 166      9C7060F5 
 166      0C6EF5A5 
 166      0D0D0D
 167 0037 1F26FD96 		.ascii	"\037&\375\226h\225\370\311\304\300\360\231\011b\014"
 167      6895F8C9 
 167      C4C0F099 
 167      09620C
 168 0046 E3724675 		.ascii	"\343rFu\006\240\232\217-\177\257s\263\265\000\325\010"
 168      06A09A8F 
 168      2D7FAF73 
 168      B3B500D5 
 168      08
 169 0057 40E41857 		.ascii	"@\344\030W0\262\001\215gX/t\240\341\377\377\315o'wX"
 169      30B2018D 
 169      67582F74 
 169      A0E1FFFF 
 169      CD6F2777 
ARM GAS  C:\Users\Bruger\AppData\Local\Temp\cclE5rXE.s 			page 13


 170 006c 33B33231 		.ascii	"3\26321\374d\002Z\006$\030\030\236\000U\201\254z\312"
 170      FC64025A 
 170      06241818 
 170      9E005581 
 170      AC7ACA
 171 007f C404A299 		.ascii	"\304\004\242\231o1\036\372\326\365l\357\024F\220\316"
 171      6F311EFA 
 171      D6F56CEF 
 171      144690CE 
 172 008f EF4C208B 		.ascii	"\357L \213\037\034|\270\235\373\005\323O&\246\357\247"
 172      1F1C7CB8 
 172      9DFB05D3 
 172      4F26A6EF 
 172      A7
 173 00a0 1A1B5840 		.ascii	"\032\033X@\366\334\177r\376\"\007X\210\001\304]q\240"
 173      F6DC7F72 
 173      FE220758 
 173      8801C45D 
 173      71A0
 174 00b2 EB1EFB5C 		.ascii	"\353\036\373\\\306\331\215-\214?\231\230\031W2J1\256"
 174      C6D98D2D 
 174      8C3F9998 
 174      1957324A 
 174      31AE
 175 00c4 62047A8D 		.ascii	"b\004z\215q5\343\\F\206[\214\315?\330 \3061CL\234\377"
 175      7135E35C 
 175      46865B8C 
 175      CD3FD820 
 175      C631434C 
 176 00da F2DF0B16 		.ascii	"\362\337\013\026\220v\346z\006\3065@\225@['\201m\304"
 176      9076E67A 
 176      06C63540 
 176      95405B27 
 176      816DC4
 177 00ed 67D85AA0 		.ascii	"g\330Z\240a@#\030\35616\036\270\351\017R\015\362\372"
 177      61402318 
 177      EE31361E 
 177      B8E90F52 
 177      0DF2FA
 178 0100 13A02F80 		.ascii	"\023\240/\200\016\007:D\313=5/\265(\261$5%>8\277\264"
 178      0E073A44 
 178      CB3D352F 
 178      B528B124 
 178      35253E38 
 179 0116 28393526 		.ascii	"(95& 8\337\3314\3063/+5\271$3?/$37\265(\336H/\231\001"
 179      2038DFD9 
 179      34C6332F 
 179      2B35B924 
 179      333F2F24 
 180 0133 00F7CE77 		.ascii	"\000\367\316w;"
 180      3B
 181              		.text
 182              		.section	.gnu.lto_InjectionTimer_2_WriteCounter.24c16c5b,"",%progbits
 183 0000 789C654F 		.ascii	"x\234eO\277KBQ\030\375\316}\246\202B\322\350.RQC\324"
 183      BF4B4251 
 183      18FDCE7D 
 183      A68242D2 
ARM GAS  C:\Users\Bruger\AppData\Local\Temp\cclE5rXE.s 			page 14


 183      E82E5251 
 184 0016 1E34445B 		.ascii	"\0364D[`\243`ao0\310\007\217\347\354\265\374\003\014"
 184      60A36061 
 184      6F30C807 
 184      8FE7ECB5 
 184      FC030C
 185 0029 42A4B0A1 		.ascii	"B\244\260\241\210~X\231m-\361\010\032$\320\032RpH\010"
 185      887E5899 
 185      6D2DF108 
 185      1A24D01A 
 185      52704808 
 186 003d 05DB1283 		.ascii	"\005\333\022\203r\010\373n\216]\270|\3379\234{\316\271"
 186      7208FB6E 
 186      8E5DB87C 
 186      DF399C7B 
 186      CEB9
 187 004f 1AFD3F7E 		.ascii	"\032\375?~\276\343 \232\345\011\215 2\025\242\224[\000"
 187      BEE3209A 
 187      E5098D20 
 187      3215A294 
 187      5B00
 188 0061 6A215052 		.ascii	"j!PR \211w\321\025\310\330\205\234'x,\245\374\270y\211"
 188      208977D1 
 188      15C8D885 
 188      9C27782C 
 188      A5FCB879 
 189 0076 C9DDD5BE 		.ascii	"\311\335\325\276 \352\211\241\017N\020dM\245\274miS"
 189      20EA89A1 
 189      0F4E1064 
 189      4DA5BC6D 
 189      6953
 190 0088 205E1FDF 		.ascii	" ^\037\337\276{\336\216\350\013\370\024\334\253\267"
 190      BE7BDE8E 
 190      E80BF814 
 190      DCABB7
 191 0097 3F350585 		.ascii	"?5\005\205P\360\266~w0\0328\222r\313n^\313y\3465\234"
 191      50F0B67E 
 191      77301A38 
 191      9272CB6E 
 191      5ECB79E6 
 192 00ad 42633B9C 		.ascii	"Bc;\234\301\217s\370\211)B\001\001%\357\246\177\352"
 192      C18F73F8 
 192      89294201 
 192      0125EFA6 
 192      7FEA
 193 00bf 1E679AB3 		.ascii	"\036g\232\263}\303H\\\300\311\265\2518f\313\301\240"
 193      7DC3485C 
 193      C0C9B5A9 
 193      3866CBC1 
 193      A0
 194 00d0 57AB7526 		.ascii	"W\253u&\235\016n\255\364\324b\205\252\337\346,\236Z"
 194      9D0E6EAD 
 194      F4D46285 
 194      AADFE62C 
 194      9E5A
 195 00e2 03F7D952 		.ascii	"\003\367\331R=\253\251Gl\266Sz8t\251*\216\314SJ:\224"
 195      3DABA947 
ARM GAS  C:\Users\Bruger\AppData\Local\Temp\cclE5rXE.s 			page 15


 195      6CB6537A 
 195      3874A92A 
 195      8ECC534A 
 196 00f8 7FB3557D 		.ascii	"\177\263U}v\377Q\244\240,Ws\336<\366Si\364\305\010."
 196      76FF51A4 
 196      A02C5773 
 196      DE3CF653 
 196      69F4C508 
 197 010d B9D11537 		.ascii	"\271\321\0257\"\024\221\307\027\273\276\"e7\033B\031"
 197      221491C7 
 197      17BBBE22 
 197      65371B42 
 197      19
 198 011e AADFB704 		.ascii	"\252\337\267\004T\020\307N,\352q\335\\\263\364\365H"
 198      5410C74E 
 198      2CEA71DD 
 198      5CB3F4F5 
 198      48
 199 012f C8489851 		.ascii	"\310H\230Q=\274\0342\026\346\302K\361\015=j\305\214"
 199      3DBC1C32 
 199      16E6C24B 
 199      F10D3D6A 
 199      C58C
 200 0141 F84A6C53 		.ascii	"\370JlS7#3\323QrE\215D\334\322\315_\367\341\177\002"
 200      372333D3 
 200      5172458D 
 200      44DCD2CD 
 200      5FF7E17F 
 201              		.text
 202              		.section	.gnu.lto_InjectionTimer_2_ReadCounter.24c16c5b,"",%progbits
 203 0000 789C658F 		.ascii	"x\234e\217\277KBQ\024\307\3179\327^F\015\322\350? E"
 203      BF4B4251 
 203      14C7CF39 
 203      D75E460D 
 203      D2E83F20 
 204 0015 341835B4 		.ascii	"4\0305\2646DK\0046\012\022\366\006\203\224\304f\357"
 204      36444B04 
 204      360A12F6 
 204      068394C4 
 204      66EF
 205 0027 0BA7A6A8 		.ascii	"\013\247\246\250\006)\244\226\264\337\012\215\022H\223"
 205      0629A496 
 205      B4DF0A8D 
 205      124893
 206 0036 10184264 		.ascii	"\020\030Bd?\240@\024jx\221\030\346#\302\356y5\325\205"
 206      3FA04014 
 206      6A789118 
 206      E623C2EE 
 206      7935D585 
 207 004a C3B9DF7B 		.ascii	"\303\271\337{\317\371\234\357\021\360\377\270UL#\300"
 207      CFF99CEF 
 207      11F0FFB8 
 207      554C23C0 
 208 005a 90CA2800 		.ascii	"\220\312(\000i\255\004`8\011\221/\200\020'\214\343\013"
 208      69AD0460 
 208      3809912F 
 208      8010278C 
ARM GAS  C:\Users\Bruger\AppData\Local\Temp\cclE5rXE.s 			page 16


 208      E30B
 209 006c 35082FAB 		.ascii	"5\010/\253\355f\3373Y\004.Pr\253R\177\027,\221X\346"
 209      ED66DF33 
 209      59042E50 
 209      72AB527F 
 209      172C9158 
 210 0081 9BA5AAE6 		.ascii	"\233\245\252\346\331\223r\345m\375a)\271\271\213\026"
 210      D99372E5 
 210      6DFD6129 
 210      B9B98B16 
 211 0091 11340930 		.ascii	"\0214\0110\203n\334G\036\204\007\350\341\332F\342\253"
 211      836EDC47 
 211      1E8407E8 
 211      E1DA46E2 
 211      AB
 212 00a2 D2AB25A4 		.ascii	"\322\253%\244\224.\256P\037\207\250)\023\220\355/\310"
 212      942EAE50 
 212      1F87A829 
 212      1390ED2F 
 212      C8
 213 00b3 4EE7CCBC 		.ascii	"N\347\314\274)\216k\016\002\213\204\000\306@M\005\033"
 213      298E6B0E 
 213      028B8400 
 213      C6404D05 
 213      1B
 214 00c4 AA2BA1B2 		.ascii	"\252+\241\262\270\307\213\326j\313\034\343\306\017b"
 214      B8C78BD6 
 214      6ACB1CE3 
 214      C60F62
 215 00d3 773B994F 		.ascii	"w;\231Ob7\216d\321\220\016\236\362T\273*;\355'`\231"
 215      62378E64 
 215      D1900E9E 
 215      F254BB2A 
 215      3BED2760 
 216 00e8 CE5F6FF4 		.ascii	"\316_o\364\244p\333H(g]x\244\\\035\263+<\301\024\202"
 216      A470DB48 
 216      28675D78 
 216      A45C1DB3 
 216      2B3CC114 
 217 00fd 0D2CBD7A 		.ascii	"\015,\275z\177\200\202\3673\317o\355v-W\376K\324l\242"
 217      7F8082F7 
 217      33CF6FED 
 217      762D57FE 
 217      4BD46CA2 
 218 0111 79D74E6B 		.ascii	"y\327Nk6\321(\014X\324\215\247\212\231\265\2319f>\242"
 218      36D1280C 
 218      58D48DA7 
 218      8A99B599 
 218      39663EA2 
 219 0125 21477E81 		.ascii	"!G~\201\300; {W\233\014N\352a=:\027\323\347\003\276"
 219      C03B207B 
 219      579B0C4E 
 219      EA613D3A 
 219      17D3E703 
 220 013a C87234A8 		.ascii	"\310r4\250\373g|\221\211Q\377TxA\017\306B\221\360lh"
 220      FB677C91 
 220      8951FF54 
ARM GAS  C:\Users\Bruger\AppData\Local\Temp\cclE5rXE.s 			page 17


 220      78410FC6 
 220      4291F06C 
 221 014f 518F06BC 		.ascii	"Q\217\006\274\303A\370\006&@\215\324"
 221      C341F806 
 221      26408DD4 
 222              		.text
 223              		.section	.gnu.lto_InjectionTimer_2_ClearFIFO.24c16c5b,"",%progbits
 224 0000 789C6591 		.ascii	"x\234e\221\317K\033A\024\307\337{\263\273Ik\300\"\236"
 224      CF4B1B41 
 224      14C7DF7B 
 224      B3BB496B 
 224      C0229E
 225 0013 04CF01B1 		.ascii	"\004\317\001\261=\010\376\005\245Ho\005{\014X\211{H"
 225      3D08FE05 
 225      A5486F05 
 225      7B0C5889 
 225      7B48
 226 0025 C104423C 		.ascii	"\301\004B<x\312.Yz\020\0179\004lmS\017\342\217\252m"
 226      78CA2E59 
 226      7A100F39 
 226      046C6D53 
 226      0FE28FAA 
 227 003a D2A6A045 		.ascii	"\322\246\240E\3044\207F\020R\024\245\325C\204\262\202"
 227      C4348746 
 227      105214A5 
 227      D54384B2 
 227      82
 228 004b 39541322 		.ascii	"9T\023\"j\016\305\276\331\015\202qagf\337|\370\276\317"
 228      6A0EC5BE 
 228      D90D8271 
 228      616766DF 
 228      7CF8BECF 
 229 005f CC0AB8FB 		.ascii	"\314\012\270\373<\341\367\014\001zyF\015\220\222%\000"
 229      3CE1F70C 
 229      017A7946 
 229      0D909225 
 229      00
 230 0070 D34BA8B8 		.ascii	"\323K\250\270\013\341.\276{\025\022\223E\000\343\276"
 230      0BE12EBE 
 230      7B151293 
 230      4500E3BE 
 231 0080 6A79C0F0 		.ascii	"jy\300\360\251\210\262\016\010q\022\212\212qR\334\300"
 231      A988B20E 
 231      0871128A 
 231      8A7152DC 
 231      C0
 232 0091 0AD50893 		.ascii	"\012\325\010\223\371\345\327m\3769\3030\252\273\265"
 232      F9E5D76D 
 232      FE39C330 
 232      AABBB5
 233 00a0 7123F5A2 		.ascii	"q#\365\242A\000ur\011\\@?0T\263\376\375j\323,\206\036"
 233      41007572 
 233      095C403F 
 233      3054B3FE 
 233      FD6AD32C 
 234 00b6 B87BB888 		.ascii	"\270{\270\210\032\253@\246#o\\_\347\212S\211\207\343"
 234      1AAB40A6 
ARM GAS  C:\Users\Bruger\AppData\Local\Temp\cclE5rXE.s 			page 18


 234      236F5C5F 
 234      E78A5389 
 234      87E3
 235 00c8 9A8006CB 		.ascii	"\232\200\006\313\360@*\017\002\300f\224\025l\"\236\304"
 235      F0402A0F 
 235      02C06694 
 235      156C229E 
 235      C4
 236 00d9 3197D84B 		.ascii	"1\227\330K\034b\341b\242\260-n\345\346s\345N'\265N\330"
 236      1C62E162 
 236      A2B02D6E 
 236      E5E673E5 
 236      4E27B54E 
 237 00ee DA113FF0 		.ascii	"\332\021?\360q\001\227P\273$\205\367\246\377n\374\366"
 237      71019750 
 237      BB2485F7 
 237      A6FF6EFC 
 237      F6
 238 00ff 9E508394 		.ascii	"\236P\203\224\354\216i(\022?\262\177\356\270%\220\237"
 238      EC8E6928 
 238      123FB27F 
 238      EEB82590 
 238      9F
 239 0110 6FAAF65A 		.ascii	"o\252\366Z{\032\337\232)\323\333 \025\227\261\013W\260"
 239      7B1ADF9A 
 239      29D3DB20 
 239      1597B10B 
 239      57B0
 240 0122 8B433E62 		.ascii	"\213C>bZz\0373\310\227\342\272\224\276\315j\267ef\336"
 240      5A7A1F33 
 240      C897E2BA 
 240      94BECD6A 
 240      B76566DE 
 241 0136 773765E8 		.ascii	"w7e\350\216\314'G&#e\344\021J\233\357\216\356\311\316"
 241      8ECC2747 
 241      262365E4 
 241      114A9BEF 
 241      8EEEC9CE 
 242 014a 5A65AB55 		.ascii	"Ze\253UFsdN\177L\357\321\215\214\007\263,\363\331\221"
 242      4673644E 
 242      7F4CEFD1 
 242      8D8C07B3 
 242      2CF3D991 
 243 015e F922650E 		.ascii	"\371\"e\0161q\365\352\234d\273KR\335\320\355?Wu\237"
 243      3171F5EA 
 243      9C64BB4B 
 243      52DDD0ED 
 243      3F57759F 
 244 0172 4C10DC30 		.ascii	"L\020\3340\307\354>Z\007\211%lBL\230\363\353\223\036"
 244      C7EC3E5A 
 244      0789256C 
 244      424C98F3 
 244      EB931E
 245 0185 87E09CAF 		.ascii	"\207\340\234\2572\3159\225*/\272\214f~\265\354\223\260"
 245      32CD3995 
 245      2A2FBA8C 
 245      667EB5EC 
ARM GAS  C:\Users\Bruger\AppData\Local\Temp\cclE5rXE.s 			page 19


 245      93B0
 246 0197 ACDA7CA3 		.ascii	"\254\332|\243\226\207\177E\317\200\036\326\243\3031"
 246      96877F45 
 246      CF801ED6 
 246      A3C331
 247 01a6 7D646830 		.ascii	"}dh02\026\015\352\201g\203\221\307\375\201\247\341\227"
 247      32160DEA 
 247      81678391 
 247      C7FD81A7 
 247      E197
 248 01b8 7A30168A 		.ascii	"z0\026\212\204\237\207F\365\350P\337\243 \374\007W\311"
 248      849F8746 
 248      F5E850DF 
 248      A320FC07 
 248      57C9
 249 01ca C83C     		.ascii	"\310<"
 250              		.text
 251              		.section	.gnu.lto_InjectionTimer_2_WritePeriod.24c16c5b,"",%progbits
 252 0000 789C654F 		.ascii	"x\234eO\277KBQ\030\375\316}/\025l\220\246r\027#\250"
 252      BF4B4251 
 252      18FDCE7D 
 252      2F156C90 
 252      A6721723 
 253 0015 A1A83968 		.ascii	"\241\2509h\210\266\300FAB\337`\220/\0366{_XkN\031E\020"
 253      88B6C046 
 253      4142DF60 
 253      902F1E36 
 253      7B5F586B 
 254 002d 45645919 		.ascii	"EdY\031\370\007\364hh\011\012\207\020\014\012B\351\307"
 254      F807F468 
 254      68090A87 
 254      100C0A42 
 254      E9C7
 255 003f D4C3A0DE 		.ascii	"\324\303\240\336P\366\335\034\273p\371\276s8\367\234"
 255      50F6DD1C 
 255      BB70F9BE 
 255      7338F79C 
 256 004f 7335FA7F 		.ascii	"s5\372\177\302|\007A4\306\023\032A\024n\210\354\200"
 256      C27C0741 
 256      34C6131A 
 256      41146E88 
 256      EC80
 257 0061 00D442A0 		.ascii	"\000\324B\240\234@\016\257\302\025(8\345\315`\364@J"
 257      9C400EAF 
 257      C2152838 
 257      E5CD60F4 
 257      404A
 258 0073 F9BEE70D 		.ascii	"\371\276\347\015\254\366{\202\250-\27268D\224%\235\252"
 258      ACF67B82 
 258      A82DBA36 
 258      38449425 
 258      9DAA
 259 0085 5BF36BC3 		.ascii	"[\363k\303 \336\257\237\276\332\275/\302\023\010)\270"
 259      20DEAF9F 
 259      BEDABD2F 
 259      C2130829 
 259      B8
ARM GAS  C:\Users\Bruger\AppData\Local\Temp\cclE5rXE.s 			page 20


 260 0096 556F7D68 		.ascii	"Uo}h\012\012\241\340\335\333\375n \262/\345\212\323"
 260      0A0AA1E0 
 260      DDDBFD6E 
 260      20B22FE5 
 260      8AD3
 261 00a8 389793CC 		.ascii	"8\227\223\314k(Ac?\034!\214c\204\211)B\031\021%w\363"
 261      6B284163 
 261      3F1C218C 
 261      63848929 
 261      42191125 
 262 00be DFF5A02F 		.ascii	"\337\365\240/\317\331\241n&N\340\343\332T\351sd\247"
 262      CFD9A16E 
 262      264EE0E3 
 262      DA54E973 
 262      64A7
 263 00d0 D36E154B 		.ascii	"\323n\025K\023~\235[+=5Y\241\352\2678\213\247\326\300"
 263      137E9D5B 
 263      2B3D3559 
 263      A1EAB738 
 263      8BA7D6C0 
 264 00e4 E586FB5C 		.ascii	"\345\206\373\\\324\324#6\223?\027k\272\252\242\027j"
 264      D4D42336 
 264      933F176B 
 264      BAAAA217 
 264      6A
 265 00f5 B6D495FF 		.ascii	"\266\324\225\377c\363\266\026\370\243HAo\335\275\302"
 265      63F3B616 
 265      F8A34841 
 265      6FDDBDC2 
 266 0105 0EB6ED3C 		.ascii	"\016\266\355<<\321\203Snt\306\215\010\025f?\331\365"
 266      3CD18353 
 266      6E74C68D 
 266      0815663F 
 266      D9F5
 267 0117 01B6534D 		.ascii	"\001\266SM(?\365\373\246\200\312\341\324\241i#cX\363"
 267      283FF5FB 
 267      A680CAE1 
 267      D4A16923 
 267      6358F3
 268 012a 59239588 		.ascii	"Y#\225\210\231\313V\322\210\317\306\314\251\361\370"
 268      99CB56D2 
 268      88CFC6CC 
 268      A9F1F8
 269 0139 4C66C148 		.ascii	"Lf\301Hf\323ff.\275hX\211\321\221$\371\226\014+m\246"
 269      66D36666 
 269      2EBD6858 
 269      89D19124 
 269      F9960C2B 
 270 014f 7E011038 		.ascii	"~\001\0208~~"
 270      7E7E
 271              		.text
 272              		.section	.gnu.lto_InjectionTimer_2_WriteCompare.24c16c5b,"",%progbits
 273 0000 789C654F 		.ascii	"x\234eO=H\202Q\024\275\347}f\222\011\322\350.FQP\324"
 273      3D488251 
 273      14BDE77D 
 273      669209D2 
 273      E82E4651 
ARM GAS  C:\Users\Bruger\AppData\Local\Temp\cclE5rXE.s 			page 21


 274 0016 D2143484 		.ascii	"\322\0244\204[`\243`b\337`\240\206\324\334\373B\032"
 274      5B60A360 
 274      62DF60A0 
 274      86D4DCFB 
 274      421A
 275 0028 9C2C22A4 		.ascii	"\234,\"\244p\012\351\307\312~\026\307\017\227\210\250"
 275      700AE9C7 
 275      CA7E16C7 
 275      0F9788A8 
 276 0038 CC45124A 		.ascii	"\314E\022J\020\203\242\2450(\207\260\373r\354\301\343"
 276      1083A2A5 
 276      302887B0 
 276      FB72ECC1 
 276      E3
 277 0049 DE73B8F7 		.ascii	"\336s\270\367\234s5\372\377\\\374\007A4\306\025\032"
 277      9C7335FA 
 277      FF5CFC07 
 277      4134C615 
 277      1A
 278 005a 41A46E89 		.ascii	"A\244n\211\014\233\000TC\240\025\201\025\274\212\017"
 278      0C9B0054 
 278      43A01581 
 278      15BC8A0F 
 279 006a 8194994B 		.ascii	"\201\224\231K\333=Y)\345{q}\315!7\347Z\202\250):B\330"
 279      DB3D5929 
 279      E57B717D 
 279      CD2137E7 
 279      5A82A829 
 280 0081 838787CC 		.ascii	"\203\207\207\314\215\253\222C\033\002q\177]\377n\366"
 280      8DAB9243 
 280      1B02717F 
 280      5DFF6EF6 
 281 0091 BE889680 		.ascii	"\276\210\226\200S\301\355\312\363\247\246\240\020\012"
 281      53C1EDCA 
 281      F3A7A6A0 
 281      100A
 282 009f 9E67CB6F 		.ascii	"\236g\313o=\356])W\315\332\251\234d^\303>4\326\303\001"
 282      3DEE5D29 
 282      57CDDAA9 
 282      9C645EC3 
 282      3E34D6C3 
 283 00b4 5C38848B 		.ascii	"\\8\204\213\230\"\344\340V\343\037\211\237\212\335\232"
 283      9822E4E0 
 283      56E31F89 
 283      9F8ADD9A 
 284 00c4 607767C7 		.ascii	"`wg\307\023G\260rp\312\367\231\262\335\276\270L'G\222"
 284      1347B072 
 284      70CAF799 
 284      B2DDBEB8 
 284      4C274792 
 285 00d8 9A8583AB 		.ascii	"\232\205\203\253\005j\360\210\272\340\231\315\270jU"
 285      056AF088 
 285      BAE099CD 
 285      B86A55
 286 00e7 14B7CE6E 		.ascii	"\024\267\316n\322\023j\213\325\312\205T\325\252\262"
 286      D2136A8B 
 286      D5CA8554 
ARM GAS  C:\Users\Bruger\AppData\Local\Temp\cclE5rXE.s 			page 22


 286      D5AAB2
 287 00f6 584A2543 		.ascii	"XJ%CZ\224A\255qwo\373\243H\301G\243\340\315`\307H\240"
 287      5A9441AD 
 287      71776FFB 
 287      A348C147 
 287      A3E0CD60 
 288 010d 25BA70CC 		.ascii	"%\272p\314\211N8\021!\217\014\276X\364\011\206\371P"
 288      894E3811 
 288      218F0CBE 
 288      58F40986 
 288      F950
 289 011f EF577AEA 		.ascii	"\357Wz\352\374\206\200\362a\327\201i=\252\307\203K\372"
 289      FC8680F2 
 289      61D78169 
 289      3DAAC783 
 289      4BFA
 290 0131 7CC0175B 		.ascii	"|\300\027[\216\207t\377\214/65\356\367F\027\364\320"
 290      8E8774FF 
 290      8C2F3635 
 290      EEF74617 
 290      F4D0
 291 0143 5238169D 		.ascii	"R8\026\235\015G\364x`t8D\335\241Xd1\030\327\177\001"
 291      0D47F478 
 291      60743844 
 291      DDA15864 
 291      3118D77F 
 292 0158 9BD47F94 		.ascii	"\233\324\177\224"
 293              		.text
 294              		.section	.gnu.lto_InjectionTimer_2_SetInterruptMode.24c16c5b,"",%progbits
 295 0000 789C6366 		.ascii	"x\234cf\300\004R@\314\303\310\300`\005\244\031\231\031"
 295      C0045240 
 295      CCC3C8C0 
 295      6005A419 
 295      9919
 296 0012 1899269C 		.ascii	"\030\231&\234c`h\344`bd\0041\030\030\031\352\231\030"
 296      636068E4 
 296      60626404 
 296      31181819 
 296      EA9918
 297 0025 EB195F32 		.ascii	"\353\031_2}db\234p`\365\014n\365\245\015\015\015\037"
 297      7D64629C 
 297      7060F50C 
 297      6EF5A50D 
 297      0D0D1F
 298 0038 0EDD6EE3 		.ascii	"\016\335n\343m\230\222\360\223\211\201\3413\023\304"
 298      6D9892F0 
 298      938981E1 
 298      3313C4
 299 0047 20C6E58C 		.ascii	" \306\345\214\352@E\375\017\376\356`c\326ed\000\262"
 299      EA4045FD 
 299      0FFEEE60 
 299      63D66564 
 299      00B2
 300 0059 4F7DFAF6 		.ascii	"O}\372\366\216IuqCC\323\201W\353\032\034\030\177\002"
 300      8E497571 
 300      4343D381 
 300      57EB1A1C 
ARM GAS  C:\Users\Bruger\AppData\Local\Temp\cclE5rXE.s 			page 23


 300      187F02
 301 006c 4D5DC1C8 		.ascii	"M]\301\310\014\324\301\250#\305\250)\305\000\024``\\"
 301      0CD4C1A8 
 301      23C5A829 
 301      C5001460 
 301      605C
 302 007e C9A80A52 		.ascii	"\311\250\012R\374\261\345\357un\266\026\240\351\002"
 302      FCB1E5EF 
 302      756EB616 
 302      A0E902
 303 008d 10331957 		.ascii	"\0203\031W1\262\001\035\306\260^\350@\303\377\377\237"
 303      31B2011D 
 303      C6B05EE8 
 303      40C3FFFF 
 303      9F
 304 009e DFCDEAB2 		.ascii	"\337\315\352\262]\313\314\0024\002\244\201\341\011P"
 304      5DCBCC02 
 304      3402A481 
 304      E10950
 305 00ad 09C8854F 		.ascii	"\011\310\205O\231\230@4\363-\306C\3236\276\237e\004"
 305      99984034 
 305      F32DC643 
 305      D336BE9F 
 305      6504
 306 00bf D20534AD 		.ascii	"\322\0054\255qK\377I\266\027L?\231\230:O66\260\200,"
 306      714BFF49 
 306      B6174C3F 
 306      99983A4F 
 306      3636B080 
 307 00d4 B8FFE4FC 		.ascii	"\270\377\344\374E\016\260\020\003\210\273\352\311\265"
 307      450EB010 
 307      0388BBEA 
 307      C9B5
 308 00e2 EDDC7319 		.ascii	"\355\334s\031g7\266\000\335\305\314\270\232Q\212q\015"
 308      6737B600 
 308      DDC5CCB8 
 308      9A518A71 
 308      0D
 309 00f3 23303418 		.ascii	"#04\030\3272\316e\374\016Tt\217\261\361\300\376\327"
 309      D732CE65 
 309      FC0E5474 
 309      8FB1F1C0 
 309      FED7
 310 0105 1A200341 		.ascii	"\032 \003A\376{\002t+\320\"\240f-\367\324\274\324\242"
 310      FE7B0274 
 310      2BD022A0 
 310      662DF7D4 
 310      BCD4A2
 311 0118 C492D494 		.ascii	"\304\222\324\224\370\340\374\322\242\344\324\230\200"
 311      F8E0FCD2 
 311      A2E4D498 
 311      80
 312 0125 E07C67D3 		.ascii	"\340|g\323\030\317\274\254\324\344\222\314\374\274\220"
 312      18CFBCAC 
 312      D4E492CC 
 312      FCBC90
 313 0134 CCDCD4A2 		.ascii	"\314\334\324\242x#\275d\006\336\314\274\222\324\242"
ARM GAS  C:\Users\Bruger\AppData\Local\Temp\cclE5rXE.s 			page 24


 313      7823BD64 
 313      06DECCBC 
 313      92D4A2
 314 0143 A2D28212 		.ascii	"\242\322\202\022\337\374\224T\000\335xu\367"
 314      DFFC9454 
 314      00DD7875 
 314      F7
 315              		.text
 316              		.section	.gnu.lto_InjectionTimer_2_ReadStatusRegister.24c16c5b,"",%progbits
 317 0000 789C6366 		.ascii	"x\234cf\300\004R@|\013\210u\200\230\221\231\201\221"
 317      C0045240 
 317      7C0B8875 
 317      80989199 
 317      8191
 318 0012 69C23906 		.ascii	"i\3029\006\206F\016&FF\020\203\201\221\241\236\211\261"
 318      86460E26 
 318      46461083 
 318      8191A19E 
 318      89B1
 319 0024 9EF125D3 		.ascii	"\236\361%\323G&\3063;\377]fT_\332\320\320\364\341\323"
 319      4726C633 
 319      3BFF5D66 
 319      545FDAD0 
 319      D0F4E1D3 
 320 0038 C763BCD3 		.ascii	"\307c\274\323\247$\374db`\370\314\304\300\250#\305\250"
 320      A724FC64 
 320      6260F8CC 
 320      C4C0A823 
 320      C5A8
 321 004a 09328871 		.ascii	"\0112\210q9\243:\003P\345\307\226\277\327\271\331Z\032"
 321      39A33A03 
 321      50E5C796 
 321      BFD7B9D9 
 321      5A1A
 322 005c 1A1A0440 		.ascii	"\032\032\004@\362@\211\025\214l\214@z\275\320\201\206"
 322      F2408915 
 322      8C6C8C40 
 322      7ABDD081 
 322      86
 323 006d FFFF379F 		.ascii	"\377\3777\237\231\335\245\271\223\231\231\211\001d\000"
 323      99DDA5B9 
 323      93999989 
 323      016400
 324 007c C3132001 		.ascii	"\303\023 \001\262\354)\023\023\210f\276\305x\350[\327"
 324      B2EC2913 
 324      138866BE 
 324      C578E85B 
 324      D7
 325 008d B99D8BD9 		.ascii	"\271\235\213\331@\272\2763\201\254>\267\177\316}\316"
 325      40BABE33 
 325      81AC3EB7 
 325      7FCE7DCE 
 326 009d 174C3F99 		.ascii	"\027L?\231\030_\236hl`\001\331q\377\311\371\213\034"
 326      185F9E68 
 326      6C6001D9 
 326      71FFC9F9 
 326      8B1C
ARM GAS  C:\Users\Bruger\AppData\Local\Temp\cclE5rXE.s 			page 25


 327 00af 60210610 		.ascii	"`!\006\020w\306\304)=,s\031g7\2664\036\320\374\311\304"
 327      77C6C429 
 327      3D2C7319 
 327      6737B634 
 327      1ED0FCC9 
 328 00c4 C4B89251 		.ascii	"\304\270\222Q\212q\025#\320U\214\253\031\34722\334c"
 328      8A711523 
 328      D0558CAB 
 328      19E73232 
 328      DC63
 329 00d6 6C6C3086 		.ascii	"ll0\206\032\010\266\223\021d\027\220\251\345\236\232"
 329      1A08B693 
 329      11641790 
 329      A9E59E9A 
 330 00e6 975A9458 		.ascii	"\227Z\224X\222\232\022\037\234_Z\224\234\032\023\020"
 330      929A121F 
 330      9C5F5A94 
 330      9C1A1310 
 331 00f6 9CEF6C1A 		.ascii	"\234\357l\032\343\231\227\225\232\\\222\231\237\027"
 331      E3999795 
 331      9A5C9299 
 331      9F17
 332 0104 92999B5A 		.ascii	"\222\231\233Z\024o\244\227\314\000\000\234\201`\305"
 332      146FA497 
 332      CC00009C 
 332      8160C5
 333              		.text
 334              		.section	.gnu.lto_InjectionTimer_2_ReadControlRegister.24c16c5b,"",%progbits
 335 0000 789C654F 		.ascii	"x\234eO=HBQ\024>\337}a\242\024\321\350\352 I5\024\216"
 335      3D484251 
 335      143EDF7D 
 335      61A214D1 
 335      E8EA2049 
 336 0017 D1D0106D 		.ascii	"\321\320\020m\211\215\202\205\275\301(\205\227n\201"
 336      898D8285 
 336      BDC12885 
 336      976E81
 337 0026 F7999393 		.ascii	"\367\231\223\223D\344 \016\015\222\366CC\203\004\016"
 337      44E4200E 
 337      0D92F643 
 337      4383040E 
 338 0036 CF86888A 		.ascii	"\317\206\210\212\"\202\202\0103P\250\245\222(yC\331"
 338      22828208 
 338      3350A8A5 
 338      92287943 
 338      D9
 339 0047 BDD21074 		.ascii	"\275\322\020t\340r>\016\337\337U\350\3778\304\363\200"
 339      E0723E0E 
 339      DFDF55E8 
 339      FF38C4F3 
 339      80
 340 0058 68546C28 		.ascii	"hTl(\004\226\276 \322\255\014\220\200@q\2068\236Y\223"
 340      0496BE20 
 340      D2AD0C90 
 340      80407186 
 340      389E5993 
 341 006c E1FCF0FB 		.ascii	"\341\374\360\373\032\256<\347\211\2675\363\270'\263"
ARM GAS  C:\Users\Bruger\AppData\Local\Temp\cclE5rXE.s 			page 26


 341      1AAE3CE7 
 341      89B735F3 
 341      B827B3
 342 007b 3E6B32A2 		.ascii	">k2\242wF\030t`@\032a\013.\022\314\342\375\207\321\253"
 342      77461874 
 342      60401A61 
 342      0B2E12CC 
 342      E2FD87D1 
 343 0090 0C41E24C 		.ascii	"\014A\342L%\277asn\012U\355\254\264\222\3415\236\346"
 343      25BF6173 
 343      6E0A55ED 
 343      ACB492E1 
 343      359EE6
 344 00a3 EDF63884 		.ascii	"\355\3668\204\026\005(\177\345r\204\242\231\374\272"
 344      1605287F 
 344      E57284A2 
 344      99FCBA
 345 00b2 B55B929C 		.ascii	"\265[\222\234\363>\024\341\224\011\302z\033\026Q\023"
 345      F33E14E1 
 345      9409C27A 
 345      1B165113 
 346 00c2 F2B2DF6F 		.ascii	"\362\262\337o\010\213\203F65VV\024a YT\0274\331\271"
 346      088B8346 
 346      36355656 
 346      14612059 
 346      541734D9 
 347 00d7 C198DCCA 		.ascii	"\301\230\334\312\035\216>S/\345U\233\224\266\230\374"
 347      1D8E3E53 
 347      2FE5559B 
 347      94B698FC 
 348 00e7 41ADF258 		.ascii	"A\255\362X\262?1\223\241u\252\363.\031\366P\277\274"
 348      B23F3193 
 348      A175AAF3 
 348      2E19F650 
 348      BFBC
 349 00f9 B2764E9D 		.ascii	"\262vN\235\354\202\221\252v\347\220\325\223\272\341"
 349      EC8291AA 
 349      76E790D5 
 349      93BAE1
 350 0108 3619C30E 		.ascii	"6\031\303\016\034\330\205h\207=\344@7Hpo\247\213\310"
 350      1CD88568 
 350      873DE440 
 350      3748706F 
 350      A78BC8
 351 011b 14A65485 		.ascii	"\024\246T\205n\344^O\360\033B\262\007d\276\200\356I"
 351      6EE45E4F 
 351      F01B42B2 
 351      0764BE80 
 351      EE49
 352 012d 35AC6A73 		.ascii	"5\254jsQu>\340\213\304\264\240\352\237\366E&<\376\251"
 352      51753EE0 
 352      8BC4B4A0 
 352      EA9FF645 
 352      263CFEA9 
 353 0141 F0821A8C 		.ascii	"\360\202\032\214\206\"\341\231\320\222\252\005F\206"
 353      8622E199 
 353      D092AA05 
ARM GAS  C:\Users\Bruger\AppData\Local\Temp\cclE5rXE.s 			page 27


 353      4686
 354 014f 8364D1D4 		.ascii	"\203d\321\324\345\330b\364\007lK\202\014"
 354      E5D862F4 
 354      076C4B82 
 354      0C
 355              		.text
 356              		.section	.gnu.lto_InjectionTimer_2_WriteControlRegister.24c16c5b,"",%progbits
 357 0000 789C6366 		.ascii	"x\234cf\300\004R@\314\315\310\300`\002\244\031\231\031"
 357      C0045240 
 357      CCCDC8C0 
 357      6002A419 
 357      9919
 358 0012 1899269C 		.ascii	"\030\231&\234c`h\344`bd\0041\030\030\031\352\231\030"
 358      636068E4 
 358      60626404 
 358      31181819 
 358      EA9918
 359 0025 EB195F32 		.ascii	"\353\031_2}db\234p`\365\014n\365\245\015\015\015\037"
 359      7D64629C 
 359      7060F50C 
 359      6EF5A50D 
 359      0D0D1F
 360 0038 2EFD6FE3 		.ascii	".\375o\343m\230\222\360\223\211\201\3413\023\304 \306"
 360      6D9892F0 
 360      938981E1 
 360      3313C420 
 360      C6
 361 0049 E58CEA40 		.ascii	"\345\214\352@E\313\216\034\223b\326ed\0002\177m\236"
 361      45CB8E1C 
 361      9362D665 
 361      6400327F 
 361      6D9E
 362 005b B49A5375 		.ascii	"\264\232SuqCC\323\201w\353\032\034\030\177\002\015]"
 362      714343D3 
 362      8177EB1A 
 362      1C187F02 
 362      0D5D
 363 006d C1C80CD4 		.ascii	"\301\310\014\324\300\250#\305\250)\305\000\024``\\\311"
 363      C0A823C5 
 363      A829C500 
 363      1460605C 
 363      C9
 364 007e A80A52FC 		.ascii	"\250\012R\374\261\345\357un\266\026\240\341\002\020"
 364      B1E5EF75 
 364      6EB616A0 
 364      E10210
 365 008d 23195731 		.ascii	"#\031W1\262\001\335\305\260^\350@\303\377\377\233\377"
 365      B201DDC5 
 365      B05EE840 
 365      C3FFFF9B 
 365      FF
 366 009e CFEE523C 		.ascii	"\317\356R<\301\314\0024\002\244\201\341\011P\011\310"
 366      C1CC0234 
 366      02A481E1 
 366      095009C8 
 367 00ae 814F9998 		.ascii	"\201O\231\230@4\363-\306C\323>\376\237m\004\322\005"
 367      4034F32D 
ARM GAS  C:\Users\Bruger\AppData\Local\Temp\cclE5rXE.s 			page 28


 367      C643D33E 
 367      FE9F6D04 
 367      D205
 368 00c0 34EDC1C1 		.ascii	"4\355\301\301\207\333\271_0\375db\372~\252\261\201\005"
 368      87DBB95F 
 368      30FD6462 
 368      FA7EAAB1 
 368      8105
 369 00d2 64C1FD27 		.ascii	"d\301\375'\347/r\200\205\030@\334\025\007\272\356\261"
 369      E72F7280 
 369      851840DC 
 369      1507BAEE 
 369      B1
 370 00e3 CF659CDD 		.ascii	"\317e\234\335\330\002t\0273\343jF)\3065\214\300\300"
 370      D8027417 
 370      33E36A46 
 370      29C6358C 
 370      C0C0
 371 00f5 605CCB38 		.ascii	"`\\\3138\227\361;P\321=\306\306\003\023?i\200\014\004"
 371      97F13B50 
 371      D13DC6C6 
 371      03133F69 
 371      800C04
 372 0108 79EF09D0 		.ascii	"y\357\011\320\255@\213\200\232\265\334S\363R\213\022"
 372      AD408B80 
 372      9AB5DC53 
 372      F3528B12 
 373 0118 4B5253E2 		.ascii	"KRS\342\203\363K\213\222Sc\002\202\363\235Mc<\363\262"
 373      83F34B8B 
 373      92536302 
 373      82F39D4D 
 373      633CF3B2 
 374 012c 52934B32 		.ascii	"R\223K2\363\363B2sS\213\342\215\364\222\031\330\223"
 374      F3F34232 
 374      73538BE2 
 374      8DF49219 
 374      D893
 375 013e F3F34A8A 		.ascii	"\363\363J\212\362s\000\031Gr\356"
 375      F2730019 
 375      4772EE
 376              		.text
 377              		.section	.gnu.lto_InjectionTimer_2_ReadCapture.24c16c5b,"",%progbits
 378 0000 789C6366 		.ascii	"x\234cf\300\004R@\374\033\210u\200\230\221\231\201\221"
 378      C0045240 
 378      FC1B8875 
 378      80989199 
 378      8191
 379 0012 69C23906 		.ascii	"i\3029\006\206F\016&FF\020\203\201\221\241\236\211\261"
 379      86460E26 
 379      46461083 
 379      8191A19E 
 379      89B1
 380 0024 9EF125D3 		.ascii	"\236\361%\323G&\306\323\217~|\346y\301\364\223\211A"
 380      4726C6D3 
 380      8F7E7CE6 
 380      79C1F493 
 380      8941
ARM GAS  C:\Users\Bruger\AppData\Local\Temp\cclE5rXE.s 			page 29


 381 0036 8001C89D 		.ascii	"\200\001\310\235u\375\351\027f\020\227\221\011\304\335"
 381      75FDE917 
 381      66109791 
 381      09C4DD
 382 0045 FDF9DC23 		.ascii	"\375\371\334#6\365\245\015\015M\037\036Mm\347\2331e"
 382      36F5A50D 
 382      0D4D1F1E 
 382      4D6DE79B 
 382      3165
 383 0057 01E34F26 		.ascii	"\001\343O&&\206\317L\014\214\313\031\245\030W0\202l"
 383      2686CF4C 
 383      0C8CCB19 
 383      A5185730 
 383      826C
 384 0069 625CC9A8 		.ascii	"b\\\311\250\016R\374\261\345\357un\266\226\206\206\006"
 384      0E52FCB1 
 384      E5EF756E 
 384      B6968686 
 384      06
 385 007a 01900AA0 		.ascii	"\001\220\012\240\304*F6F \275^\350@\303\377\377\237"
 385      C42A4636 
 385      4620BD5E 
 385      E840C3FF 
 385      FF9F
 386 008c AFCFE952 		.ascii	"\257\317\351R=\315\314\314\304\0002\202\341\011\020"
 386      3DCDCCCC 
 386      C4003282 
 386      E10910
 387 009b 835CF314 		.ascii	"\203\\\363\024\310\001\322\314\267\030\017}\353:vz1"
 387      C801D2CC 
 387      B7180F7D 
 387      EB3A767A 
 387      31
 388 00ac 1B48D777 		.ascii	"\033H\327w&\220\333f\275\335{\203\003\344\030\346\015"
 388      2690DB66 
 388      BDDD7B83 
 388      03E418E6 
 388      0D
 389 00bd 171B1B58 		.ascii	"\027\033\033X@v\334\177r\376\"D\210\001\304}{\363\307"
 389      4076DC7F 
 389      72FE2244 
 389      8801C47D 
 389      7BF3C7
 390 00d0 32B6B98C 		.ascii	"2\266\271\214\263\033[\032\017h\376dba\\\015t\325\032"
 390      B31B5B1A 
 390      0F68FE64 
 390      62615C0D 
 390      74D51A
 391 00e3 90AB18D7 		.ascii	"\220\253\030\3272\316ed\270\307\330\330`\0145\220\001"
 391      32CE6564 
 391      B8C7D8D8 
 391      600C3590 
 391      01
 392 00f4 642723C8 		.ascii	"d'#\310. S\313=5/\265(\261$5%>8\277\264(95& 8\337\331"
 392      2E2053CB 
 392      3D352FB5 
 392      28B12435 
ARM GAS  C:\Users\Bruger\AppData\Local\Temp\cclE5rXE.s 			page 30


 392      253E38BF 
 393 0111 34C6332F 		.ascii	"4\3063/+5\271$3?/$37\265(\336H/\231\001\000\354\020"
 393      2B35B924 
 393      333F2F24 
 393      3337B528 
 393      DE482F99 
 394 0129 6FB9     		.ascii	"o\271"
 395              		.text
 396              		.section	.gnu.lto_InjectionTimer_2_ReadCompare.24c16c5b,"",%progbits
 397 0000 789C6366 		.ascii	"x\234cf\300\004R@\374\013\210u\200\230\221\231\201\221"
 397      C0045240 
 397      FC0B8875 
 397      80989199 
 397      8191
 398 0012 69C23906 		.ascii	"i\3029\006\206F\016&FF\020\203\201\221\241\236\211\261"
 398      86460E26 
 398      46461083 
 398      8191A19E 
 398      89B1
 399 0024 9EF125D3 		.ascii	"\236\361%\323G&\306\323\217~|\346y\301\364\223\211A"
 399      4726C6D3 
 399      8F7E7CE6 
 399      79C1F493 
 399      8941
 400 0036 8001C89D 		.ascii	"\200\001\310\235u\375\351\027f\020\227\221\011\304\335"
 400      75FDE917 
 400      66109791 
 400      09C4DD
 401 0045 FDF9DC23 		.ascii	"\375\371\334#6\365\245\015\015M\037\232\346\266\363"
 401      36F5A50D 
 401      0D4D1F9A 
 401      E6B6F3
 402 0054 CD98B280 		.ascii	"\315\230\262\200\361'\023\023\303g&\006\306\345\214"
 402      F1271313 
 402      C3672606 
 402      C6E58C
 403 0063 528C2B18 		.ascii	"R\214+\030A61\256dT\007)\376\330\362\367:7[KCC\203\000"
 403      413631AE 
 403      64540729 
 403      FED8F2F7 
 403      3A375B4B 
 404 007b 48055062 		.ascii	"H\005Pb\025#\033#\220^/t\240\341\377\377\317_\346t\331"
 404      15231B23 
 404      905E2F74 
 404      A0E1FFFF 
 404      CF5FE674 
 405 0090 9E636666 		.ascii	"\236cffb\000\031\301\360\004\210A\256y\012\344\000i"
 405      620019C1 
 405      F0048841 
 405      AE790AE4 
 405      0069
 406 00a2 E65B8C87 		.ascii	"\346[\214\207\276u\275;\267\230\035\244\353;\023\310"
 406      BE75BD3B 
 406      B7981DA4 
 406      EB3B13C8 
 407 00b2 6D97764C 		.ascii	"m\227vL\270\305\006r\014\363\205\013\215\015, ;\356"
 407      B8C50672 
ARM GAS  C:\Users\Bruger\AppData\Local\Temp\cclE5rXE.s 			page 31


 407      0CF3850B 
 407      8D0D2C20 
 407      3BEE
 408 00c4 3F397F91 		.ascii	"?9\177\221\003,\304\000\342\336m\334\3419\227qvcK\343"
 408      032CC400 
 408      E2DE6DDC 
 408      E1399771 
 408      76634BE3 
 409 00d8 01DD9F4C 		.ascii	"\001\335\237L,\214\253\201\216Z\003r\024\343Z\306\271"
 409      2C8CAB81 
 409      8E5A0372 
 409      14E35AC6 
 409      B9
 410 00e9 8C0CF718 		.ascii	"\214\014\367\030\033\033\254\241\3461\200\254d\004Y"
 410      1B1BACA1 
 410      E63180AC 
 410      640459
 411 00f8 05646AB9 		.ascii	"\005dj\271\247\346\245\026%\226\244\246\304\007\347"
 411      A7E6A516 
 411      2596A4A6 
 411      C407E7
 412 0107 971625A7 		.ascii	"\227\026%\247\306\004\004\347;\233\306x\346e\245&\227"
 412      C60404E7 
 412      3B9BC678 
 412      E665A526 
 412      97
 413 0118 64E6E785 		.ascii	"d\346\347\205d\346\246\026\305\033\351%3\000\000\033"
 413      64E6A616 
 413      C51BE925 
 413      3300001B 
 414 0128 676EBA   		.ascii	"gn\272"
 415              		.text
 416              		.section	.gnu.lto_InjectionTimer_2_ReadPeriod.24c16c5b,"",%progbits
 417 0000 789C6366 		.ascii	"x\234cf\300\004R@\374\033\210u\200\230\221\231\201\221"
 417      C0045240 
 417      FC1B8875 
 417      80989199 
 417      8191
 418 0012 69C23906 		.ascii	"i\3029\006\206F\016&FF\020\203\201\221\241\236\211\261"
 418      86460E26 
 418      46461083 
 418      8191A19E 
 418      89B1
 419 0024 9EF125D3 		.ascii	"\236\361%\323G&\306\323\217~|\346y\301\364\223\211A"
 419      4726C6D3 
 419      8F7E7CE6 
 419      79C1F493 
 419      8941
 420 0036 8001C89D 		.ascii	"\200\001\310\235u\375\351\027f\020\227\221\011\304\335"
 420      75FDE917 
 420      66109791 
 420      09C4DD
 421 0045 FDF9DC23 		.ascii	"\375\371\334#6\365\245\015\015M\037\016\355m\347\231"
 421      36F5A50D 
 421      0D4D1F0E 
 421      ED6DE799 
 422 0055 316501E3 		.ascii	"1e\001\343O&&\206\317L\014\214\313\031\245\030W0\202"
ARM GAS  C:\Users\Bruger\AppData\Local\Temp\cclE5rXE.s 			page 32


 422      4F262686 
 422      CF4C0C8C 
 422      CB19A518 
 422      573082
 423 0068 6C625CC9 		.ascii	"lb\\\311\250\016R\374\261\345\357un\266\226\206\206"
 423      A80E52FC 
 423      B1E5EF75 
 423      6EB69686 
 423      86
 424 0079 0601900A 		.ascii	"\006\001\220\012\240\304*F6F \275^\350@\303\377\377"
 424      A0C42A46 
 424      364620BD 
 424      5EE840C3 
 424      FFFF
 425 008b 9FBFCD6D 		.ascii	"\237\277\315m\322\275\317\314\314\304\0002\202\341\011"
 425      D2BDCFCC 
 425      CCC40032 
 425      82E109
 426 009a 10835CF3 		.ascii	"\020\203\\\363\024\310\001\322\314\267\030\017}\353"
 426      14C801D2 
 426      CCB7180F 
 426      7DEB
 427 00a8 3A777F31 		.ascii	":w\1771\033H\327w&\220\333\032\376\355oc\0019\206y\302"
 427      1B48D777 
 427      2690DB1A 
 427      FEED6F63 
 427      01398679 
 428 00bd C5C60616 		.ascii	"\305\306\006\026\220\035\367\237\234\277\310\001\026"
 428      901DF79F 
 428      9CBFC801 
 428      16
 429 00ca 6200717F 		.ascii	"b\000q\177\366\177<\3068\227qvcK\343\001\315\237L,\214"
 429      F67F3CC6 
 429      38977176 
 429      634BE301 
 429      CD9F4C2C 
 430 00df AB81AE5A 		.ascii	"\253\201\256Z\003r\025\343Z\2408\303=\306\306\006c\250"
 430      037215E3 
 430      5AA038C3 
 430      3DC6C606 
 430      63A8
 431 00f1 810C203B 		.ascii	"\201\014 ;\031Av\001\231Z\356\251y\251E\211%\251)\361"
 431      19417601 
 431      995AEEA9 
 431      79A94589 
 431      25A929F1 
 432 0105 C1F9A545 		.ascii	"\301\371\245E\311\2511\001\301\371\316\2461\236yY\251"
 432      C9A93101 
 432      C1F9CEA6 
 432      319E7959 
 432      A9
 433 0116 C92599F9 		.ascii	"\311%\231\371y!\231\271\251E\361Fz\311\014\000\327\032"
 433      792199B9 
 433      A945F146 
 433      7AC90C00 
 433      D71A
 434 0128 6F68     		.ascii	"oh"
ARM GAS  C:\Users\Bruger\AppData\Local\Temp\cclE5rXE.s 			page 33


 435              		.text
 436              		.section	.gnu.lto_.symbol_nodes.24c16c5b,"",%progbits
 437 0000 789C55D0 		.ascii	"x\234U\320\273\015\3020\030\004\340\363\3578q\336q\026"
 437      BB0DC230 
 437      1804E0F3 
 437      EF3871DE 
 437      7116
 438 0012 60096A56 		.ascii	"`\011jV\273\024tH\210\011\020H\214\300\034\014A\315"
 438      BB147448 
 438      88091048 
 438      8CC01C0C 
 438      41CD
 439 0024 10584AE3 		.ascii	"\020XJ\343\273\346\364IW\235\007pr\330cF\340\366\001"
 439      BBE6F449 
 439      579D0770 
 439      72D86346 
 439      E0F601
 440 0037 48DC1F11 		.ascii	"H\334\037\021\346\350J\007\340\231'\346i2\253\350\305"
 440      E6E84A07 
 440      E09927E6 
 440      6932ABE8 
 440      C5
 441 0048 8195B866 		.ascii	"\201\225\270f\0207\254\305\221\215\270e\024wl\305=;"
 441      1037ACC5 
 441      918DB865 
 441      14776CC5 
 441      3D3B
 442 005a F1C05E3C 		.ascii	"\361\300^<r\020O\034\3053'\361\302\271\264[\271\354"
 442      72104F1C 
 442      C53327F1 
 442      C2B9B45B 
 442      B9EC
 443 006c C6B66526 		.ascii	"\306\266e&\246\202\036+\316\227\337\301#\341u\315\235"
 443      A6821E2B 
 443      CE97DFC1 
 443      23E175CD 
 443      9D
 444 007d DFFBBE8F 		.ascii	"\337\373\276\217\370\003\305+Q\366"
 444      F803C52B 
 444      51F6
 445              		.text
 446              		.section	.gnu.lto_.refs.24c16c5b,"",%progbits
 447 0000 789C6366 		.ascii	"x\234cf``\340d\200\000&F bdba\000\000\001*\000\032"
 447      6060E064 
 447      80002646 
 447      20626462 
 447      61000001 
 448              		.text
 449              		.section	.gnu.lto_.decls.24c16c5b,"",%progbits
 450 0000 789C8D96 		.ascii	"x\234\215\226kL\024W\024\307\347\356]V\230]\241m\"6"
 450      6B4C1457 
 450      14C7E7EE 
 450      5D56985D 
 450      A16D2236 
 451 0014 B68D34B6 		.ascii	"\266\2154\266&mL\023\233\324\230~i\023\3226\332\027"
 451      266D4C13 
 451      9BD4987E 
ARM GAS  C:\Users\Bruger\AppData\Local\Temp\cclE5rXE.s 			page 34


 451      6913D236 
 451      DA17
 452 0026 297D7CD0 		.ascii	")}|\320\306naR\267A \353\222\224oS\027+R\037[\254\012"
 452      C66E6152 
 452      B74120EB 
 452      92946F53 
 452      172B521F 
 453 003d 142956F0 		.ascii	"\024)V\360\001\212\013>\000\001YPQPD\021Q\036\302\""
 453      018A0B3E 
 453      00015950 
 453      51504411 
 453      511EC222 
 454 0051 62A93C5C 		.ascii	"b\251<\\\236>\353\366\334{g\334\231\335\331\312$g\231"
 454      9E3EEBF6 
 454      DC7B67DC 
 454      99DDD9CA 
 454      246799
 455 0064 C739BF73 		.ascii	"\3079\277s\316\377\236;\003\3468.A\317q^8\322x\216\333"
 455      CEFF9E3B 
 455      03E6382E 
 455      41CF715E 
 455      38D2788E 
 456 0079 ABE3B8E7 		.ascii	"\253\343\270\347\341^\014\347;^\000;\010V\002\346\004"
 456      E15E0CE7 
 456      3B5E003B 
 456      085602E6 
 456      04
 457 008a 2B03AB01 		.ascii	"+\003\253\001s\201\325\203\235\006k\000k\001k\005k\003"
 457      7381D583 
 457      9D066B00 
 457      6B016B05 
 457      6B03
 458 009c 6B07BB0E 		.ascii	"k\007\273\016\326\011\326\015\326\003\346\006C`\375"
 458      D609D60D 
 458      D603E606 
 458      4360FD
 459 00ab 9CFA3828 		.ascii	"\234\3728(\345 9\233\300\"\301*\301\006\301n\203\205"
 459      E520399B 
 459      C022C12A 
 459      C106C16E 
 459      8385
 460 00bd 8399C046 		.ascii	"\203\231\300F\300\206\301F\301.\201\335\005k\006\033"
 460      C086C146 
 460      C12E81DD 
 460      056B061B 
 461 00cd 03F3804D 		.ascii	"\003\363\200M\200\215KL^\342\326\370\325\347\226j\251"
 461      808D4B4C 
 461      5EE2D6F8 
 461      D5E7966A 
 461      A9
 462 00de 97EA6BE5 		.ascii	"\227\352k\345\002\017\322g\250T\017\251eR\252k\012\354"
 462      020FD267 
 462      A8540FA9 
 462      6552AA6B 
 462      0AEC
 463 00f0 80A22E72 		.ascii	"\200\242.r`\311\377\240\244\215V\177\344\276^\301S\306"
 463      60C9FFA0 
ARM GAS  C:\Users\Bruger\AppData\Local\Temp\cclE5rXE.s 			page 35


 463      A48D567F 
 463      E4BE5EC1 
 463      53C6
 464 0102 23E9B9FF 		.ascii	"#\351\271\377Q\366\214\2302\215\030\322\253A\212\221"
 464      51F68C98 
 464      328D18D2 
 464      AB418A91 
 465 0112 35233ACA 		.ascii	"5#:\312\272\311\2615\032\261.\251ge\034\311+k*k,3\\"
 465      BAC9B135 
 465      1AB12EA9 
 465      67651CC9 
 465      2B6B2A6B 
 466 0129 1A8C7ACE 		.ascii	"\032\214z\316\247[\223\202\241\265>\230\373\37758=\303"
 466      A75B9382 
 466      A1B53E98 
 466      FBFF3538 
 466      3DC3
 467 013b 5E4E6BC4 		.ascii	"^Nk\3046\3140\266A#\226\314\210\254;\351\301_\367\026"
 467      36CC30B6 
 467      412396CC 
 467      88AC3BE9 
 467      C15FF716 
 468 014f 8D9856A9 		.ascii	"\215\230V\251\237&\277\036Q\220\336\332\376\307\277"
 468      9F26BF1E 
 468      5190DEDA 
 468      FEC7BF
 469 015e 4DC3BFFD 		.ascii	"M\303\277\375\0315\265k\304\020]C8u\377\376kx]#\256"
 469      1935B56B 
 469      C4105D43 
 469      3875FFFE 
 469      6B785D23 
 470 0173 7306719D 		.ascii	"s\006q\235\032q\3353\210\353\326\210\033\323\241\312"
 470      1A71DD33 
 470      88EBD688 
 470      1BD3A1CA 
 471 0183 92C966E3 		.ascii	"\222\311f\343\240\016\205\363Q\344\362D\346\271,\003"
 471      A00E85F3 
 471      51E4F244 
 471      E6B92C03 
 472 0193 5C9A783D 		.ascii	"\\\232x=\271\254zt\263M?w\273\010\207\303.>\247G1\221"
 472      B9AC7A74 
 472      B34D3F77 
 472      BB0887C3 
 472      2E3EA747 
 473 01a9 681F9A87 		.ascii	"h\037\232\207\366\243y@=\200\346\302\357\012=#m\253"
 473      F6A37940 
 473      3D80E6C2 
 473      EF0A3D23 
 473      6DAB
 474 01bb 797C1B61 		.ascii	"y|\033a\035\"\347{\262\372\332\370EE\020\226.\272\\"
 474      1D22E77B 
 474      B2FADAF8 
 474      45451096 
 474      2EBA5C
 475 01ce D8976E57 		.ascii	"\330\227nW\307\326:\034\225'\272\235\236\332\353\277"
 475      C7D63A1C 
 475      9527BA9D 
ARM GAS  C:\Users\Bruger\AppData\Local\Temp\cclE5rXE.s 			page 36


 475      9EDAEBBF 
 476 01de E06C317F 		.ascii	"\340l1\177\235\370\304\353E\024\206\212\020F\305h\021"
 476      9DF8C4EB 
 476      4514868A 
 476      1046C568 
 476      11
 477 01ef 2D19CE59 		.ascii	"-\031\316Y\355\007Q\024\004\326\256\037\230\306x9\245"
 477      ED075114 
 477      04D6AE1F 
 477      98C67839 
 477      A5
 478 0200 6776F535 		.ascii	"gv\3655\207\001$\337\231\177\267L|?M|\354\365b\0128"
 478      870124DF 
 478      997FB74C 
 478      7C3F4D7C 
 478      ECF5620A 
 479 0215 A4001C92 		.ascii	"\244\000\034\222\001%\024p\257bcc\0046S@\371\255\354"
 479      01251470 
 479      AF626363 
 479      04365340 
 479      F9ADEC
 480 0228 229E5691 		.ascii	"\"\236V\221\277u\237\341\234\350\362zkED\011\207\025"
 480      BF759FE1 
 480      9CE8F27A 
 480      6B454409 
 480      8715
 481 023a 84C332C1 		.ascii	"\204\3032\301I\011\177>\2722d\300\251\224\220\273+\315"
 481      49097F3E 
 481      BA3264C0 
 481      A99490BB 
 481      2BCD
 482 024c 61642574 		.ascii	"ad%tH\204\367h|\251\"\276T\216/\243\361\347o\336\237"
 482      4884F768 
 482      7CA922BE 
 482      548E2FA3 
 482      F1E76FDE 
 483 0261 3051A99F 		.ascii	"0Q\251\237#\210\234k\003\223\230J\255\243\312\214\217"
 483      23889C6B 
 483      0393984A 
 483      ADA3CA8C 
 483      8F
 484 0272 5687E1AD 		.ascii	"V\207\341\255\210\342\177\336[\265i\026<\213\342\251"
 484      88E27FDE 
 484      5BB56916 
 484      3C8BE2A9 
 485 0282 6A3B87EE 		.ascii	"j;\207\356\037\015\245\227\320(\334\320=\352/\331g@"
 485      1F0DA597 
 485      D028DCD0 
 485      3DEA2FD9 
 485      6740
 486 0294 0BF90250 		.ascii	"\013\371\002P\330SRxr\271]|\037U\"\036\035{\232\236"
 486      D8535278 
 486      72B95D7C 
 486      1F55221E 
 486      1D7B9A9E 
 487 02a8 C692235D 		.ascii	"\306\222#]\024\327\211\242]\014\331\037\316\241#\260"
 487      14D789A2 
ARM GAS  C:\Users\Bruger\AppData\Local\Temp\cclE5rXE.s 			page 37


 487      5D0CD91F 
 487      CEA123B0 
 488 02b8 784761F1 		.ascii	"xGa\361P\005Z\010\036\324\027\035\207\233\345p\0232"
 488      50055A08 
 488      1ED4171D 
 488      879BE570 
 488      1332
 489 02ca 5517DC19 		.ascii	"U\027\334\0315\352\3413Di+\350\020\364\036\233.\347"
 489      35EAE133 
 489      44692BE8 
 489      10F41E9B 
 489      2EE7
 490 02dc 830E4115 		.ascii	"\203\016A\025\035\202\023H\232\202^\347\3300\302\025"
 490      1D821348 
 490      9A825EE7 
 490      D830C215 
 491 02ec AC8D2783 		.ascii	"\254\215'\203\353\216\317\222V\273=g\366\323\325\326"
 491      EB8ECF92 
 491      56BB3D67 
 491      F6D3D5D6 
 492 02fc 912854AD 		.ascii	"\221(T\255\220\252Z\226\252\206J\365`}s/V\246$\325\370"
 492      90AA5A96 
 492      AA864AF5 
 492      607D732F 
 492      56A624D5 
 493 0311 729E540D 		.ascii	"r\236T\015\336_;\\y\021\270\235\245,\031\331\3620\224"
 493      DE5F3B5C 
 493      7911B89D 
 493      A52C19D9 
 493      F23094
 494 0324 2E8CBB63 		.ascii	".\214\273c\363Y\223\310\226\206\206\240ZE\302Z9\241"
 494      F35993C8 
 494      968686A0 
 494      5A45C25A 
 494      39A1
 495 0336 8B262CCA 		.ascii	"\213&,\312\275\2207\033O0F\351\025Ow\010-\333\275\271"
 495      BD90371B 
 495      4F3046E9 
 495      154F7708 
 495      2DDBBDB9 
 496 034a 4566C080 		.ascii	"Ef\300\200\260!\255SP\352dJ=\245\024\330\305F#\336\302"
 496      B021AD53 
 496      50EA644A 
 496      3DA514D8 
 496      C54623DE 
 497 035f F6C05855 		.ascii	"\366\300XU\317t\004\2434\265\010.:\245\366P*\030:\245"
 497      CF7404A3 
 497      34B5082E 
 497      3AA5F650 
 497      2A183AA5 
 498 0373 609C9219 		.ascii	"`\234\222\031\247)c\254\361l1\217\213\031\243\363\330"
 498      A72963AC 
 498      F16C318F 
 498      8B19A3F3 
 498      D8
 499 0384 C076C418 		.ascii	"\300v\304\030\233JW\373\351wF\0019#C\032(\244\275v\303"
 499      9B4A57FB 
ARM GAS  C:\Users\Bruger\AppData\Local\Temp\cclE5rXE.s 			page 38


 499      E9774601 
 499      3923431A 
 499      28A4BD76 
 500 0399 8650DCA8 		.ascii	"\206P\334\250S\015S$\033\246-\347s\3520\275\364\222"
 500      530D5324 
 500      1BA62DE7 
 500      73EA30BD 
 500      F492
 501 03ab C7BA8E8E 		.ascii	"\307\272\216\216\337\037`\304/\244s\342\311\024\361"
 501      DF1F60C4 
 501      2FA473E2 
 501      C914F1
 502 03ba 8B1C5A34 		.ascii	"\213\034Z4\017\275\001Cr\036\206$R\032\222s\240~#\250"
 502      0FBD0143 
 502      721E8624 
 502      521A9273 
 502      A07E23A8 
 503 03ce CF466E3D 		.ascii	"\317Fn=\033\271&X\226\263\276\221\213\344\237nt\307"
 503      1BB92658 
 503      96B3BE91 
 503      8BE49F6E 
 503      74C7
 504 03e0 FA3A879E 		.ascii	"\372:\207\236\016R\323\323A\232\362\366\025\352\202"
 504      0E52D3D3 
 504      419AF2F6 
 504      15EA82
 505 03ef 0E52335D 		.ascii	"\016R3]\324\013\362 \035\316hi\345q\013k!w(\263\317"
 505      D40BF220 
 505      1DCE6869 
 505      E5710B6B 
 505      217728B3 
 506 0404 280D52C5 		.ascii	"(\015R\305P\314ov\261@t{\275\363\243H\024\272\250\020"
 506      50CC6F76 
 506      B140747B 
 506      BDF3A348 
 506      14BAA810 
 507 0418 E2A22C44 		.ascii	"\342\242,D\013\025bc\232S5GM\2529\272\244\232\243){"
 507      0B156263 
 507      9A533547 
 507      4DAA39BA 
 507      A49AA329 
 508 042d E155031E 		.ascii	"\341U\003\036c\031o\324\\-41\345\267\226'(\224\207\030"
 508      63196FD4 
 508      5C2D3431 
 508      E5B79627 
 508      28948718 
 509 0441 745991F0 		.ascii	"tY\221\360\262\234\260\225&|8\221\327\037\202\267c\012"
 509      B29CB095 
 509      267C3891 
 509      D71F82B7 
 509      630A
 510 0453 19E9BB75 		.ascii	"\031\351\273uI\307\336\022\215\345\361l\0040M\213\256"
 510      49C7DE12 
 510      8DE5F16C 
 510      04304D8B 
 510      AE
 511 0464 28105764 		.ascii	"(\020WdD\033Elo\230\330\027\216O0D\307\221\251\263\263"
ARM GAS  C:\Users\Bruger\AppData\Local\Temp\cclE5rXE.s 			page 39


 511      441B456C 
 511      6F98D817 
 511      8E4F3044 
 511      C791A9B3 
 512 0479 D83CFF5B 		.ascii	"\330<\377[\276Z\361\276$\215_U@\256\312\220v\012\031"
 512      BE5AF1BE 
 512      248D5F55 
 512      40AECA90 
 512      760A19
 513 048c BF93BDC5 		.ascii	"\277\223\275\305\200\335\0142\2657gP\307\232)\251LV"
 513      80DD0C32 
 513      B5376750 
 513      C79A29A9 
 513      4C56
 514 049e 344376C5 		.ascii	"4Cv\3055\005\344\232\014\271N!\033v\025g\353\361\277"
 514      3505E49A 
 514      0CB94E21 
 514      1B761567 
 514      EBF1BF
 515 04b1 0CD2BDFF 		.ascii	"\014\322\275\377\310\273\254\227\301J_/\204\320\241"
 515      C8BBAC97 
 515      C14A5F2F 
 515      84D0A1
 516 04c0 2074C884 		.ascii	" t\310\204NJ(\313w\325\352q\216\236\022\262\354\233"
 516      4E4A28CB 
 516      77D5EA71 
 516      8E9E12B2 
 516      EC9B
 517 04d2 763339DC 		.ascii	"v39\334\303U\337)z!\220.\005\244K\206tS\310\360\241"
 517      C355DF29 
 517      7A21902E 
 517      05A44B86 
 517      7453C8F0 
 518 04e7 52A7111F 		.ascii	"R\247\021\037g\220=\216\352.\003\351E\364\344\036y\034"
 518      67903D8E 
 518      EA2E03E9 
 518      45F4E41E 
 518      791C
 519 04f9 B1C3EE60 		.ascii	"\261\303\356`\243\300\024\271\241\240\334\220)=\224"
 519      A3C014B9 
 519      A1A0DC90 
 519      293D94
 520 0508 D272673A 		.ascii	"\322rg:\233\307\303\214\322[\\\230@!\356'\375B\275r"
 520      9BC7C38C 
 520      D25B5C98 
 520      4021EE27 
 520      FD42BD72 
 521 051c 617A1584 		.ascii	"az\025\204^\231\340\246\204\212\242\236{Fl\017a\357"
 521      5E99E0A6 
 521      848AA29E 
 521      7B466C0F 
 521      61EF
 522 052e B62E6739 		.ascii	"\266.g9\371R\302D\321\351)\3351\260\231_\260[\314\377"
 522      F952C244 
 522      D1E929DD 
 522      31B0995F 
 522      B05BCCFF 
ARM GAS  C:\Users\Bruger\AppData\Local\Temp\cclE5rXE.s 			page 40


 523 0542 CB59EBF8 		.ascii	"\313Y\353\370\326\365\263H{\243\003\327\307\220\322"
 523      D6F5B348 
 523      7BA303D7 
 523      C790D2
 524 0551 AEE2C835 		.ascii	"\256\342\3105\374\336$\257\341~\264\000b\305\235\277"
 524      FCDE24AF 
 524      E17EB400 
 524      62C59DBF 
 525 0561 1684E25C 		.ascii	"\026\204\342\\\006>6\235Q9\233O'\257\354g\357F\330\277"
 525      063E369D 
 525      51399B4F 
 525      27AFEC67 
 525      EF46D8BF 
 526 0575 6D1733DA 		.ascii	"m\0273\332\303\330\376\365\217\370;\350\376=3\376q\032"
 526      C3D8FEF5 
 526      8FF83BE8 
 526      FE3D33FE 
 526      711A
 527 0587 ECDFDB50 		.ascii	"\354\337\333P\335-\337\376\035@\276\015\274\361fN\263"
 527      DD2DDFFE 
 527      1D40BE0D 
 527      BCF1664E 
 527      B3
 528 0598 C994415E 		.ascii	"\311\224A^\012\260u\302\316\205Sg\337\336\031D&*\015"
 528      0AB075C2 
 528      CE855367 
 528      DFDE1944 
 528      262A0D
 529 05ab FC25FF46 		.ascii	"\374%\377F\\\354\352\301x7\353\300\223\276yH\317:\230"
 529      5CECEAC1 
 529      7837EBC0 
 529      93BE7948 
 529      CF3A98
 530 05be E17747B7 		.ascii	"\341wG\267\363\320\215\034$}\320\362\317G 4\014\311"
 530      F3D08D1C 
 530      247DD0F2 
 530      CF472034 
 530      0CC9
 531 05d0 FEF15576 		.ascii	"\376\361Uv\007\371\276f\032\324!\355\257Y\341o\015X"
 531      07F9BE66 
 531      1AD421ED 
 531      AF59E16F 
 531      0D58
 532 05e2 D5C2B0AA 		.ascii	"\325\302\260\252\205\021\251\205\021\332\302\375\335"
 532      8511A985 
 532      11DAC2FD 
 532      DD
 533 05ef 7DB72354 		.ascii	"}\267#T\336d\034|\336\243\222\367(\365vd\376q2L\345"
 533      DE641C7C 
 533      DEA392F7 
 533      28F57664 
 533      FE71324C 
 534 0604 DDACF2BE 		.ascii	"\335\254\362\276+y\337\245\336\233\006\247\366\030e"
 534      2B79DFA5 
 534      DE9B06A7 
 534      F61865
 535 0613 45D26754 		.ascii	"E\322gT\373\201\372\312\\\243*\201GU\374\230\224`\214"
ARM GAS  C:\Users\Bruger\AppData\Local\Temp\cclE5rXE.s 			page 41


 535      FB81FACA 
 535      5CA32A81 
 535      4755FC98 
 535      94608C
 536 0626 26E87334 		.ascii	"&\350s4T\207\311C\223\376\214\021\000\377\272\254mE"
 536      5487C943 
 536      93FE8C11 
 536      00FFBAAC 
 536      6D45
 537 0638 B355F471 		.ascii	"\263U\364q\025}B\242OP\372\316<\317#u\263\352\367\350"
 537      157D42A2 
 537      4F50FACE 
 537      3CCF2375 
 537      B3EAF7E8 
 538 064c A4E43D49 		.ascii	"\244\344=I\275{\262\\\031z\225\367\001\2254S\310$/+"
 538      BD7BB25C 
 538      197A95F7 
 538      01953453 
 538      C8242F2B 
 539 0660 9C727396 		.ascii	"\234rs\226%\376(\304\331,I\211_Z\326\010\326Uo\257Z"
 539      25FE28C4 
 539      D92C4989 
 539      5F5AD608 
 539      D6556FAF 
 540 0675 9668B119 		.ascii	"\226h\261\031>\372\354\253\250h\356\315\217\204D\301"
 540      3EFAECAB 
 540      A868EECD 
 540      8F8444C1 
 541 0685 6AB609F1 		.ascii	"j\266\011\361\253b\223R\254q\302\312\230\330\244\350"
 541      AB629352 
 541      AC71C2CA 
 541      98D8A4E8 
 542 0695 7756FAC7 		.ascii	"wV\372\307\274\025\307E\006pbmf\253mn\300\355\017\022"
 542      BC15C745 
 542      0670626D 
 542      66AB6D6E 
 542      C0ED0F12 
 543 06a9 CDDF2708 		.ascii	"\315\337'\010\201icmI\311\206\024K\242m\361\222W\203"
 543      8169636D 
 543      49C98614 
 543      4BA26DF1 
 543      925783
 544 06bc A48D4BB5 		.ascii	"\244\215K\265\245&\013k\337Z\315\275\022\020\376\215"
 544      A5260B6B 
 544      DF5ACDBD 
 544      1210FE8D 
 545 06cc D56213A2 		.ascii	"\325b\023\242\223R\022m\202\365\345\200\247_\010\346"
 545      9352126D 
 545      82F5E580 
 545      A75F08E6 
 546 06dc 78E9E1BC 		.ascii	"x\351\341\274\200\207\321\011\202\331\372\341\262\017"
 546      8087D109 
 546      82D9FAE1 
 546      B20F
 547 06ea 3F0F8CA3 		.ascii	"?\017\214\243\324\030\301jI\212\017\232rM\262\331*\204"
 547      D418C16A 
 547      498A0F9A 
ARM GAS  C:\Users\Bruger\AppData\Local\Temp\cclE5rXE.s 			page 42


 547      724DB2D9 
 547      2A84
 548 06fc 90CA97BE 		.ascii	"\220\312\227\276\032\330\225`[F\262ZS\222m\237&\305"
 548      1AD89560 
 548      5B46B25A 
 548      53926D9F 
 548      26C5
 549 070e 0B0B344B 		.ascii	"\013\0134K\003\251l)k\277\020~\260\254\005\337\327\202"
 549      03A96C29 
 549      6BBF107E 
 549      B0AC05DF 
 549      D782
 550 0720 949F68B3 		.ascii	"\224\237h\263&%\310N\257\007+G\345\025D\011s\262-\305"
 550      2625C84E 
 550      AF072B47 
 550      E5154409 
 550      73B22DC5 
 551 0734 2A049389 		.ascii	"*\004\223\2116\364\222\346C&\305\234\350\324\017~\262"
 551      36F492E6 
 551      4326C59C 
 551      E8D40F7E 
 551      B2
 552 0745 D8A221A1 		.ascii	"\330\242!\241%\316\234\020\313\374\346\007Y\265\350"
 552      25CE9C10 
 552      CBFCE607 
 552      59B5E8
 553 0754 D44F2CDF 		.ascii	"\324O,\337\303\232EB\024\221\302/\354\305\200D\026\030"
 553      C39A4542 
 553      1491C22F 
 553      ECC58044 
 553      1618
 554 0766 C0AFCD56 		.ascii	"\300\257\315V\275U\370ai\010\374,^\362\037\026\241\301"
 554      BD55F861 
 554      6908FC2C 
 554      5EF21F16 
 554      A1C1
 555 0778 C3       		.ascii	"\303"
 556              		.text
 557              		.section	.gnu.lto_.symtab.24c16c5b,"",%progbits
 558 0000 496E6A65 		.ascii	"InjectionTimer_2_Init\000\000\000\000\000\000\000\000"
 558      6374696F 
 558      6E54696D 
 558      65725F32 
 558      5F496E69 
 559 001d 00000000 		.ascii	"\000\000\000\000\254\000\000\000InjectionTimer_2_St"
 559      AC000000 
 559      496E6A65 
 559      6374696F 
 559      6E54696D 
 560 0038 61727400 		.ascii	"art\000\000\000\000\000\000\000\000\000\000\000\000"
 560      00000000 
 560      00000000 
 560      000000
 561 0047 AE000000 		.ascii	"\256\000\000\000InjectionTimer_2_initVar\000\000\000"
 561      496E6A65 
 561      6374696F 
 561      6E54696D 
ARM GAS  C:\Users\Bruger\AppData\Local\Temp\cclE5rXE.s 			page 43


 561      65725F32 
 562 0066 00000000 		.ascii	"\000\000\000\000\000\000\000\000\000\343\000\000\000"
 562      00000000 
 562      00E30000 
 562      00
 563 0073 496E6A65 		.ascii	"InjectionTimer_2_Enable\000\000\000\000\000\000\000"
 563      6374696F 
 563      6E54696D 
 563      65725F32 
 563      5F456E61 
 564 0091 00000000 		.ascii	"\000\000\000\000\000\260\000\000\000InjectionTimer_"
 564      00B00000 
 564      00496E6A 
 564      65637469 
 564      6F6E5469 
 565 00a9 325F5374 		.ascii	"2_Stop\000\000\000\000\000\000\000\000\000\000\000\000"
 565      6F700000 
 565      00000000 
 565      00000000 
 565      0000
 566 00bb B2000000 		.ascii	"\262\000\000\000InjectionTimer_2_WriteCounter\000\000"
 566      496E6A65 
 566      6374696F 
 566      6E54696D 
 566      65725F32 
 567 00de 00000000 		.ascii	"\000\000\000\000\000\000\000\000\000\000\275\000\000"
 567      00000000 
 567      0000BD00 
 567      00
 568 00eb 00496E6A 		.ascii	"\000InjectionTimer_2_ReadCounter\000\000\000\000\000"
 568      65637469 
 568      6F6E5469 
 568      6D65725F 
 568      325F5265 
 569 010d 00000000 		.ascii	"\000\000\000\000\000\000\000\300\000\000\000Injecti"
 569      000000C0 
 569      00000049 
 569      6E6A6563 
 569      7469
 570 011f 6F6E5469 		.ascii	"onTimer_2_ClearFIFO\000\000\000\000\000\000\000\000"
 570      6D65725F 
 570      325F436C 
 570      65617246 
 570      49464F00 
 571 013a 00000000 		.ascii	"\000\000\000\000\302\000\000\000InjectionTimer_2_Wr"
 571      C2000000 
 571      496E6A65 
 571      6374696F 
 571      6E54696D 
 572 0155 69746550 		.ascii	"itePeriod\000\000\000\000\000\000\000\000\000\000\000"
 572      6572696F 
 572      64000000 
 572      00000000 
 572      00000000 
 573 0169 00C40000 		.ascii	"\000\304\000\000\000InjectionTimer_2_WriteCompare\000"
 573      00496E6A 
 573      65637469 
ARM GAS  C:\Users\Bruger\AppData\Local\Temp\cclE5rXE.s 			page 44


 573      6F6E5469 
 573      6D65725F 
 574 018c 00000000 		.ascii	"\000\000\000\000\000\000\000\000\000\000\000\306\000"
 574      00000000 
 574      000000C6 
 574      00
 575 0199 0000496E 		.ascii	"\000\000InjectionTimer_2_SetInterruptMode\000\000\000"
 575      6A656374 
 575      696F6E54 
 575      696D6572 
 575      5F325F53 
 576 01bf 00000000 		.ascii	"\000\000\000\000\000\000\000\000\000\317\000\000\000"
 576      00000000 
 576      00CF0000 
 576      00
 577 01cc 496E6A65 		.ascii	"InjectionTimer_2_ReadStatusRegister\000\000\000\000"
 577      6374696F 
 577      6E54696D 
 577      65725F32 
 577      5F526561 
 578 01f3 00000000 		.ascii	"\000\000\000\000\000\000\000\000\322\000\000\000Inj"
 578      00000000 
 578      D2000000 
 578      496E6A
 579 0202 65637469 		.ascii	"ectionTimer_2_ReadControlRegister\000\000\000\000\000"
 579      6F6E5469 
 579      6D65725F 
 579      325F5265 
 579      6164436F 
 580 0228 00000000 		.ascii	"\000\000\000\000\000\000\000\324\000\000\000Injecti"
 580      000000D4 
 580      00000049 
 580      6E6A6563 
 580      7469
 581 023a 6F6E5469 		.ascii	"onTimer_2_WriteControlRegister\000\000\000\000\000\000"
 581      6D65725F 
 581      325F5772 
 581      69746543 
 581      6F6E7472 
 582 025e 00000000 		.ascii	"\000\000\000\000\000\000\326\000\000\000InjectionTi"
 582      0000D600 
 582      0000496E 
 582      6A656374 
 582      696F6E54 
 583 0273 6D65725F 		.ascii	"mer_2_ReadCapture\000\000\000\000\000\000\000\000\000"
 583      325F5265 
 583      61644361 
 583      70747572 
 583      65000000 
 584 028d 000000D8 		.ascii	"\000\000\000\330\000\000\000InjectionTimer_2_ReadCo"
 584      00000049 
 584      6E6A6563 
 584      74696F6E 
 584      54696D65 
 585 02ab 6D706172 		.ascii	"mpare\000\000\000\000\000\000\000\000\000\000\000\000"
 585      65000000 
 585      00000000 
ARM GAS  C:\Users\Bruger\AppData\Local\Temp\cclE5rXE.s 			page 45


 585      00000000 
 585      00
 586 02bc DA000000 		.ascii	"\332\000\000\000InjectionTimer_2_ReadPeriod\000\000"
 586      496E6A65 
 586      6374696F 
 586      6E54696D 
 586      65725F32 
 587 02dd 00000000 		.ascii	"\000\000\000\000\000\000\000\000\000\000\334\000\000"
 587      00000000 
 587      0000DC00 
 587      00
 588 02ea 00437945 		.ascii	"\000CyExitCriticalSection\000\000\002\000\000\000\000"
 588      78697443 
 588      72697469 
 588      63616C53 
 588      65637469 
 589 0307 00000000 		.ascii	"\000\000\000\000\000\336\000\000\000CyEnterCritical"
 589      00DE0000 
 589      00437945 
 589      6E746572 
 589      43726974 
 590 031f 53656374 		.ascii	"Section\000\000\002\000\000\000\000\000\000\000\000"
 590      696F6E00 
 590      00020000 
 590      00000000 
 590      0000
 591 0331 00E00000 		.ascii	"\000\340\000\000\000"
 591      00
 592              		.text
 593              		.section	.gnu.lto_.opts,"",%progbits
 594 0000 272D666E 		.ascii	"'-fno-trapv' '-mcpu=cortex-m3' '-mthumb' '-g' '-O3'"
 594      6F2D7472 
 594      61707627 
 594      20272D6D 
 594      6370753D 
 595 0033 20272D66 		.ascii	" '-ffunction-sections' '-finline-functions' '-flto'"
 595      66756E63 
 595      74696F6E 
 595      2D736563 
 595      74696F6E 
 596 0066 20272D66 		.ascii	" '-ffat-lto-objects'\000"
 596      6661742D 
 596      6C746F2D 
 596      6F626A65 
 596      63747327 
 597              		.text
 598              		.cfi_sections	.debug_frame
 599              		.section	.text.InjectionTimer_2_Start,"ax",%progbits
 600              		.align	2
 601              		.global	InjectionTimer_2_Start
 602              		.thumb
 603              		.thumb_func
 604              		.type	InjectionTimer_2_Start, %function
 605              	InjectionTimer_2_Start:
 606              	.LFB0:
 607              		.file 1 "Generated_Source\\PSoC5\\InjectionTimer_2.c"
   1:Generated_Source\PSoC5/InjectionTimer_2.c **** /*******************************************************************************
ARM GAS  C:\Users\Bruger\AppData\Local\Temp\cclE5rXE.s 			page 46


   2:Generated_Source\PSoC5/InjectionTimer_2.c **** * File Name: InjectionTimer_2.c
   3:Generated_Source\PSoC5/InjectionTimer_2.c **** * Version 3.30
   4:Generated_Source\PSoC5/InjectionTimer_2.c **** *
   5:Generated_Source\PSoC5/InjectionTimer_2.c **** * Description:
   6:Generated_Source\PSoC5/InjectionTimer_2.c **** *  The PWM User Module consist of an 8 or 16-bit counter with two 8 or 16-bit
   7:Generated_Source\PSoC5/InjectionTimer_2.c **** *  comparitors. Each instance of this user module is capable of generating
   8:Generated_Source\PSoC5/InjectionTimer_2.c **** *  two PWM outputs with the same period. The pulse width is selectable between
   9:Generated_Source\PSoC5/InjectionTimer_2.c **** *  1 and 255/65535. The period is selectable between 2 and 255/65536 clocks.
  10:Generated_Source\PSoC5/InjectionTimer_2.c **** *  The compare value output may be configured to be active when the present
  11:Generated_Source\PSoC5/InjectionTimer_2.c **** *  counter is less than or less than/equal to the compare value.
  12:Generated_Source\PSoC5/InjectionTimer_2.c **** *  A terminal count output is also provided. It generates a pulse one clock
  13:Generated_Source\PSoC5/InjectionTimer_2.c **** *  width wide when the counter is equal to zero.
  14:Generated_Source\PSoC5/InjectionTimer_2.c **** *
  15:Generated_Source\PSoC5/InjectionTimer_2.c **** * Note:
  16:Generated_Source\PSoC5/InjectionTimer_2.c **** *
  17:Generated_Source\PSoC5/InjectionTimer_2.c **** *******************************************************************************
  18:Generated_Source\PSoC5/InjectionTimer_2.c **** * Copyright 2008-2014, Cypress Semiconductor Corporation.  All rights reserved.
  19:Generated_Source\PSoC5/InjectionTimer_2.c **** * You may use this file only in accordance with the license, terms, conditions,
  20:Generated_Source\PSoC5/InjectionTimer_2.c **** * disclaimers, and limitations in the end user license agreement accompanying
  21:Generated_Source\PSoC5/InjectionTimer_2.c **** * the software package with which this file was provided.
  22:Generated_Source\PSoC5/InjectionTimer_2.c **** ********************************************************************************/
  23:Generated_Source\PSoC5/InjectionTimer_2.c **** 
  24:Generated_Source\PSoC5/InjectionTimer_2.c **** #include "InjectionTimer_2.h"
  25:Generated_Source\PSoC5/InjectionTimer_2.c **** 
  26:Generated_Source\PSoC5/InjectionTimer_2.c **** /* Error message for removed <resource> through optimization */
  27:Generated_Source\PSoC5/InjectionTimer_2.c **** #ifdef InjectionTimer_2_PWMUDB_genblk1_ctrlreg__REMOVED
  28:Generated_Source\PSoC5/InjectionTimer_2.c ****     #error PWM_v3_30 detected with a constant 0 for the enable or \
  29:Generated_Source\PSoC5/InjectionTimer_2.c ****          constant 1 for reset. This will prevent the component from operating.
  30:Generated_Source\PSoC5/InjectionTimer_2.c **** #endif /* InjectionTimer_2_PWMUDB_genblk1_ctrlreg__REMOVED */
  31:Generated_Source\PSoC5/InjectionTimer_2.c **** 
  32:Generated_Source\PSoC5/InjectionTimer_2.c **** uint8 InjectionTimer_2_initVar = 0u;
  33:Generated_Source\PSoC5/InjectionTimer_2.c **** 
  34:Generated_Source\PSoC5/InjectionTimer_2.c **** 
  35:Generated_Source\PSoC5/InjectionTimer_2.c **** /*******************************************************************************
  36:Generated_Source\PSoC5/InjectionTimer_2.c **** * Function Name: InjectionTimer_2_Start
  37:Generated_Source\PSoC5/InjectionTimer_2.c **** ********************************************************************************
  38:Generated_Source\PSoC5/InjectionTimer_2.c **** *
  39:Generated_Source\PSoC5/InjectionTimer_2.c **** * Summary:
  40:Generated_Source\PSoC5/InjectionTimer_2.c **** *  The start function initializes the pwm with the default values, the
  41:Generated_Source\PSoC5/InjectionTimer_2.c **** *  enables the counter to begin counting.  It does not enable interrupts,
  42:Generated_Source\PSoC5/InjectionTimer_2.c **** *  the EnableInt command should be called if interrupt generation is required.
  43:Generated_Source\PSoC5/InjectionTimer_2.c **** *
  44:Generated_Source\PSoC5/InjectionTimer_2.c **** * Parameters:
  45:Generated_Source\PSoC5/InjectionTimer_2.c **** *  None
  46:Generated_Source\PSoC5/InjectionTimer_2.c **** *
  47:Generated_Source\PSoC5/InjectionTimer_2.c **** * Return:
  48:Generated_Source\PSoC5/InjectionTimer_2.c **** *  None
  49:Generated_Source\PSoC5/InjectionTimer_2.c **** *
  50:Generated_Source\PSoC5/InjectionTimer_2.c **** * Global variables:
  51:Generated_Source\PSoC5/InjectionTimer_2.c **** *  InjectionTimer_2_initVar: Is modified when this function is called for the
  52:Generated_Source\PSoC5/InjectionTimer_2.c **** *   first time. Is used to ensure that initialization happens only once.
  53:Generated_Source\PSoC5/InjectionTimer_2.c **** *
  54:Generated_Source\PSoC5/InjectionTimer_2.c **** *******************************************************************************/
  55:Generated_Source\PSoC5/InjectionTimer_2.c **** void InjectionTimer_2_Start(void) 
  56:Generated_Source\PSoC5/InjectionTimer_2.c **** {
 608              		.loc 1 56 0
 609              		.cfi_startproc
ARM GAS  C:\Users\Bruger\AppData\Local\Temp\cclE5rXE.s 			page 47


 610              		@ args = 0, pretend = 0, frame = 0
 611              		@ frame_needed = 0, uses_anonymous_args = 0
 612 0000 F8B5     		push	{r3, r4, r5, r6, r7, lr}
 613              		.cfi_def_cfa_offset 24
 614              		.cfi_offset 3, -24
 615              		.cfi_offset 4, -20
 616              		.cfi_offset 5, -16
 617              		.cfi_offset 6, -12
 618              		.cfi_offset 7, -8
 619              		.cfi_offset 14, -4
  57:Generated_Source\PSoC5/InjectionTimer_2.c ****     /* If not Initialized then initialize all required hardware and software */
  58:Generated_Source\PSoC5/InjectionTimer_2.c ****     if(InjectionTimer_2_initVar == 0u)
 620              		.loc 1 58 0
 621 0002 1F4C     		ldr	r4, .L13
 622 0004 2378     		ldrb	r3, [r4]	@ zero_extendqisi2
 623 0006 2BB1     		cbz	r3, .L12
 624              	.L2:
 625              	.LBB40:
 626              	.LBB41:
  59:Generated_Source\PSoC5/InjectionTimer_2.c ****     {
  60:Generated_Source\PSoC5/InjectionTimer_2.c ****         InjectionTimer_2_Init();
  61:Generated_Source\PSoC5/InjectionTimer_2.c ****         InjectionTimer_2_initVar = 1u;
  62:Generated_Source\PSoC5/InjectionTimer_2.c ****     }
  63:Generated_Source\PSoC5/InjectionTimer_2.c ****     InjectionTimer_2_Enable();
  64:Generated_Source\PSoC5/InjectionTimer_2.c **** 
  65:Generated_Source\PSoC5/InjectionTimer_2.c **** }
  66:Generated_Source\PSoC5/InjectionTimer_2.c **** 
  67:Generated_Source\PSoC5/InjectionTimer_2.c **** 
  68:Generated_Source\PSoC5/InjectionTimer_2.c **** /*******************************************************************************
  69:Generated_Source\PSoC5/InjectionTimer_2.c **** * Function Name: InjectionTimer_2_Init
  70:Generated_Source\PSoC5/InjectionTimer_2.c **** ********************************************************************************
  71:Generated_Source\PSoC5/InjectionTimer_2.c **** *
  72:Generated_Source\PSoC5/InjectionTimer_2.c **** * Summary:
  73:Generated_Source\PSoC5/InjectionTimer_2.c **** *  Initialize component's parameters to the parameters set by user in the
  74:Generated_Source\PSoC5/InjectionTimer_2.c **** *  customizer of the component placed onto schematic. Usually called in
  75:Generated_Source\PSoC5/InjectionTimer_2.c **** *  InjectionTimer_2_Start().
  76:Generated_Source\PSoC5/InjectionTimer_2.c **** *
  77:Generated_Source\PSoC5/InjectionTimer_2.c **** * Parameters:
  78:Generated_Source\PSoC5/InjectionTimer_2.c **** *  None
  79:Generated_Source\PSoC5/InjectionTimer_2.c **** *
  80:Generated_Source\PSoC5/InjectionTimer_2.c **** * Return:
  81:Generated_Source\PSoC5/InjectionTimer_2.c **** *  None
  82:Generated_Source\PSoC5/InjectionTimer_2.c **** *
  83:Generated_Source\PSoC5/InjectionTimer_2.c **** *******************************************************************************/
  84:Generated_Source\PSoC5/InjectionTimer_2.c **** void InjectionTimer_2_Init(void) 
  85:Generated_Source\PSoC5/InjectionTimer_2.c **** {
  86:Generated_Source\PSoC5/InjectionTimer_2.c ****     #if (InjectionTimer_2_UsingFixedFunction || InjectionTimer_2_UseControl)
  87:Generated_Source\PSoC5/InjectionTimer_2.c ****         uint8 ctrl;
  88:Generated_Source\PSoC5/InjectionTimer_2.c ****     #endif /* (InjectionTimer_2_UsingFixedFunction || InjectionTimer_2_UseControl) */
  89:Generated_Source\PSoC5/InjectionTimer_2.c **** 
  90:Generated_Source\PSoC5/InjectionTimer_2.c ****     #if(!InjectionTimer_2_UsingFixedFunction)
  91:Generated_Source\PSoC5/InjectionTimer_2.c ****         #if(InjectionTimer_2_UseStatus)
  92:Generated_Source\PSoC5/InjectionTimer_2.c ****             /* Interrupt State Backup for Critical Region*/
  93:Generated_Source\PSoC5/InjectionTimer_2.c ****             uint8 InjectionTimer_2_interruptState;
  94:Generated_Source\PSoC5/InjectionTimer_2.c ****         #endif /* (InjectionTimer_2_UseStatus) */
  95:Generated_Source\PSoC5/InjectionTimer_2.c ****     #endif /* (!InjectionTimer_2_UsingFixedFunction) */
  96:Generated_Source\PSoC5/InjectionTimer_2.c **** 
ARM GAS  C:\Users\Bruger\AppData\Local\Temp\cclE5rXE.s 			page 48


  97:Generated_Source\PSoC5/InjectionTimer_2.c ****     #if (InjectionTimer_2_UsingFixedFunction)
  98:Generated_Source\PSoC5/InjectionTimer_2.c ****         /* You are allowed to write the compare value (FF only) */
  99:Generated_Source\PSoC5/InjectionTimer_2.c ****         InjectionTimer_2_CONTROL |= InjectionTimer_2_CFG0_MODE;
 100:Generated_Source\PSoC5/InjectionTimer_2.c ****         #if (InjectionTimer_2_DeadBand2_4)
 101:Generated_Source\PSoC5/InjectionTimer_2.c ****             InjectionTimer_2_CONTROL |= InjectionTimer_2_CFG0_DB;
 102:Generated_Source\PSoC5/InjectionTimer_2.c ****         #endif /* (InjectionTimer_2_DeadBand2_4) */
 103:Generated_Source\PSoC5/InjectionTimer_2.c **** 
 104:Generated_Source\PSoC5/InjectionTimer_2.c ****         ctrl = InjectionTimer_2_CONTROL3 & ((uint8 )(~InjectionTimer_2_CTRL_CMPMODE1_MASK));
 105:Generated_Source\PSoC5/InjectionTimer_2.c ****         InjectionTimer_2_CONTROL3 = ctrl | InjectionTimer_2_DEFAULT_COMPARE1_MODE;
 106:Generated_Source\PSoC5/InjectionTimer_2.c **** 
 107:Generated_Source\PSoC5/InjectionTimer_2.c ****          /* Clear and Set SYNCTC and SYNCCMP bits of RT1 register */
 108:Generated_Source\PSoC5/InjectionTimer_2.c ****         InjectionTimer_2_RT1 &= ((uint8)(~InjectionTimer_2_RT1_MASK));
 109:Generated_Source\PSoC5/InjectionTimer_2.c ****         InjectionTimer_2_RT1 |= InjectionTimer_2_SYNC;
 110:Generated_Source\PSoC5/InjectionTimer_2.c **** 
 111:Generated_Source\PSoC5/InjectionTimer_2.c ****         /*Enable DSI Sync all all inputs of the PWM*/
 112:Generated_Source\PSoC5/InjectionTimer_2.c ****         InjectionTimer_2_RT1 &= ((uint8)(~InjectionTimer_2_SYNCDSI_MASK));
 113:Generated_Source\PSoC5/InjectionTimer_2.c ****         InjectionTimer_2_RT1 |= InjectionTimer_2_SYNCDSI_EN;
 114:Generated_Source\PSoC5/InjectionTimer_2.c **** 
 115:Generated_Source\PSoC5/InjectionTimer_2.c ****     #elif (InjectionTimer_2_UseControl)
 116:Generated_Source\PSoC5/InjectionTimer_2.c ****         /* Set the default compare mode defined in the parameter */
 117:Generated_Source\PSoC5/InjectionTimer_2.c ****         ctrl = InjectionTimer_2_CONTROL & ((uint8)(~InjectionTimer_2_CTRL_CMPMODE2_MASK)) &
 118:Generated_Source\PSoC5/InjectionTimer_2.c ****                 ((uint8)(~InjectionTimer_2_CTRL_CMPMODE1_MASK));
 119:Generated_Source\PSoC5/InjectionTimer_2.c ****         InjectionTimer_2_CONTROL = ctrl | InjectionTimer_2_DEFAULT_COMPARE2_MODE |
 120:Generated_Source\PSoC5/InjectionTimer_2.c ****                                    InjectionTimer_2_DEFAULT_COMPARE1_MODE;
 121:Generated_Source\PSoC5/InjectionTimer_2.c ****     #endif /* (InjectionTimer_2_UsingFixedFunction) */
 122:Generated_Source\PSoC5/InjectionTimer_2.c **** 
 123:Generated_Source\PSoC5/InjectionTimer_2.c ****     #if (!InjectionTimer_2_UsingFixedFunction)
 124:Generated_Source\PSoC5/InjectionTimer_2.c ****         #if (InjectionTimer_2_Resolution == 8)
 125:Generated_Source\PSoC5/InjectionTimer_2.c ****             /* Set FIFO 0 to 1 byte register for period*/
 126:Generated_Source\PSoC5/InjectionTimer_2.c ****             InjectionTimer_2_AUX_CONTROLDP0 |= (InjectionTimer_2_AUX_CTRL_FIFO0_CLR);
 127:Generated_Source\PSoC5/InjectionTimer_2.c ****         #else /* (InjectionTimer_2_Resolution == 16)*/
 128:Generated_Source\PSoC5/InjectionTimer_2.c ****             /* Set FIFO 0 to 1 byte register for period */
 129:Generated_Source\PSoC5/InjectionTimer_2.c ****             InjectionTimer_2_AUX_CONTROLDP0 |= (InjectionTimer_2_AUX_CTRL_FIFO0_CLR);
 130:Generated_Source\PSoC5/InjectionTimer_2.c ****             InjectionTimer_2_AUX_CONTROLDP1 |= (InjectionTimer_2_AUX_CTRL_FIFO0_CLR);
 131:Generated_Source\PSoC5/InjectionTimer_2.c ****         #endif /* (InjectionTimer_2_Resolution == 8) */
 132:Generated_Source\PSoC5/InjectionTimer_2.c **** 
 133:Generated_Source\PSoC5/InjectionTimer_2.c ****         InjectionTimer_2_WriteCounter(InjectionTimer_2_INIT_PERIOD_VALUE);
 134:Generated_Source\PSoC5/InjectionTimer_2.c ****     #endif /* (!InjectionTimer_2_UsingFixedFunction) */
 135:Generated_Source\PSoC5/InjectionTimer_2.c **** 
 136:Generated_Source\PSoC5/InjectionTimer_2.c ****     InjectionTimer_2_WritePeriod(InjectionTimer_2_INIT_PERIOD_VALUE);
 137:Generated_Source\PSoC5/InjectionTimer_2.c **** 
 138:Generated_Source\PSoC5/InjectionTimer_2.c ****         #if (InjectionTimer_2_UseOneCompareMode)
 139:Generated_Source\PSoC5/InjectionTimer_2.c ****             InjectionTimer_2_WriteCompare(InjectionTimer_2_INIT_COMPARE_VALUE1);
 140:Generated_Source\PSoC5/InjectionTimer_2.c ****         #else
 141:Generated_Source\PSoC5/InjectionTimer_2.c ****             InjectionTimer_2_WriteCompare1(InjectionTimer_2_INIT_COMPARE_VALUE1);
 142:Generated_Source\PSoC5/InjectionTimer_2.c ****             InjectionTimer_2_WriteCompare2(InjectionTimer_2_INIT_COMPARE_VALUE2);
 143:Generated_Source\PSoC5/InjectionTimer_2.c ****         #endif /* (InjectionTimer_2_UseOneCompareMode) */
 144:Generated_Source\PSoC5/InjectionTimer_2.c **** 
 145:Generated_Source\PSoC5/InjectionTimer_2.c ****         #if (InjectionTimer_2_KillModeMinTime)
 146:Generated_Source\PSoC5/InjectionTimer_2.c ****             InjectionTimer_2_WriteKillTime(InjectionTimer_2_MinimumKillTime);
 147:Generated_Source\PSoC5/InjectionTimer_2.c ****         #endif /* (InjectionTimer_2_KillModeMinTime) */
 148:Generated_Source\PSoC5/InjectionTimer_2.c **** 
 149:Generated_Source\PSoC5/InjectionTimer_2.c ****         #if (InjectionTimer_2_DeadBandUsed)
 150:Generated_Source\PSoC5/InjectionTimer_2.c ****             InjectionTimer_2_WriteDeadTime(InjectionTimer_2_INIT_DEAD_TIME);
 151:Generated_Source\PSoC5/InjectionTimer_2.c ****         #endif /* (InjectionTimer_2_DeadBandUsed) */
 152:Generated_Source\PSoC5/InjectionTimer_2.c **** 
 153:Generated_Source\PSoC5/InjectionTimer_2.c ****     #if (InjectionTimer_2_UseStatus || InjectionTimer_2_UsingFixedFunction)
ARM GAS  C:\Users\Bruger\AppData\Local\Temp\cclE5rXE.s 			page 49


 154:Generated_Source\PSoC5/InjectionTimer_2.c ****         InjectionTimer_2_SetInterruptMode(InjectionTimer_2_INIT_INTERRUPTS_MODE);
 155:Generated_Source\PSoC5/InjectionTimer_2.c ****     #endif /* (InjectionTimer_2_UseStatus || InjectionTimer_2_UsingFixedFunction) */
 156:Generated_Source\PSoC5/InjectionTimer_2.c **** 
 157:Generated_Source\PSoC5/InjectionTimer_2.c ****     #if (InjectionTimer_2_UsingFixedFunction)
 158:Generated_Source\PSoC5/InjectionTimer_2.c ****         /* Globally Enable the Fixed Function Block chosen */
 159:Generated_Source\PSoC5/InjectionTimer_2.c ****         InjectionTimer_2_GLOBAL_ENABLE |= InjectionTimer_2_BLOCK_EN_MASK;
 160:Generated_Source\PSoC5/InjectionTimer_2.c ****         /* Set the Interrupt source to come from the status register */
 161:Generated_Source\PSoC5/InjectionTimer_2.c ****         InjectionTimer_2_CONTROL2 |= InjectionTimer_2_CTRL2_IRQ_SEL;
 162:Generated_Source\PSoC5/InjectionTimer_2.c ****     #else
 163:Generated_Source\PSoC5/InjectionTimer_2.c ****         #if(InjectionTimer_2_UseStatus)
 164:Generated_Source\PSoC5/InjectionTimer_2.c **** 
 165:Generated_Source\PSoC5/InjectionTimer_2.c ****             /* CyEnterCriticalRegion and CyExitCriticalRegion are used to mark following region cri
 166:Generated_Source\PSoC5/InjectionTimer_2.c ****             /* Enter Critical Region*/
 167:Generated_Source\PSoC5/InjectionTimer_2.c ****             InjectionTimer_2_interruptState = CyEnterCriticalSection();
 168:Generated_Source\PSoC5/InjectionTimer_2.c ****             /* Use the interrupt output of the status register for IRQ output */
 169:Generated_Source\PSoC5/InjectionTimer_2.c ****             InjectionTimer_2_STATUS_AUX_CTRL |= InjectionTimer_2_STATUS_ACTL_INT_EN_MASK;
 170:Generated_Source\PSoC5/InjectionTimer_2.c **** 
 171:Generated_Source\PSoC5/InjectionTimer_2.c ****              /* Exit Critical Region*/
 172:Generated_Source\PSoC5/InjectionTimer_2.c ****             CyExitCriticalSection(InjectionTimer_2_interruptState);
 173:Generated_Source\PSoC5/InjectionTimer_2.c **** 
 174:Generated_Source\PSoC5/InjectionTimer_2.c ****             /* Clear the FIFO to enable the InjectionTimer_2_STATUS_FIFOFULL
 175:Generated_Source\PSoC5/InjectionTimer_2.c ****                    bit to be set on FIFO full. */
 176:Generated_Source\PSoC5/InjectionTimer_2.c ****             InjectionTimer_2_ClearFIFO();
 177:Generated_Source\PSoC5/InjectionTimer_2.c ****         #endif /* (InjectionTimer_2_UseStatus) */
 178:Generated_Source\PSoC5/InjectionTimer_2.c ****     #endif /* (InjectionTimer_2_UsingFixedFunction) */
 179:Generated_Source\PSoC5/InjectionTimer_2.c **** }
 180:Generated_Source\PSoC5/InjectionTimer_2.c **** 
 181:Generated_Source\PSoC5/InjectionTimer_2.c **** 
 182:Generated_Source\PSoC5/InjectionTimer_2.c **** /*******************************************************************************
 183:Generated_Source\PSoC5/InjectionTimer_2.c **** * Function Name: InjectionTimer_2_Enable
 184:Generated_Source\PSoC5/InjectionTimer_2.c **** ********************************************************************************
 185:Generated_Source\PSoC5/InjectionTimer_2.c **** *
 186:Generated_Source\PSoC5/InjectionTimer_2.c **** * Summary:
 187:Generated_Source\PSoC5/InjectionTimer_2.c **** *  Enables the PWM block operation
 188:Generated_Source\PSoC5/InjectionTimer_2.c **** *
 189:Generated_Source\PSoC5/InjectionTimer_2.c **** * Parameters:
 190:Generated_Source\PSoC5/InjectionTimer_2.c **** *  None
 191:Generated_Source\PSoC5/InjectionTimer_2.c **** *
 192:Generated_Source\PSoC5/InjectionTimer_2.c **** * Return:
 193:Generated_Source\PSoC5/InjectionTimer_2.c **** *  None
 194:Generated_Source\PSoC5/InjectionTimer_2.c **** *
 195:Generated_Source\PSoC5/InjectionTimer_2.c **** * Side Effects:
 196:Generated_Source\PSoC5/InjectionTimer_2.c **** *  This works only if software enable mode is chosen
 197:Generated_Source\PSoC5/InjectionTimer_2.c **** *
 198:Generated_Source\PSoC5/InjectionTimer_2.c **** *******************************************************************************/
 199:Generated_Source\PSoC5/InjectionTimer_2.c **** void InjectionTimer_2_Enable(void) 
 200:Generated_Source\PSoC5/InjectionTimer_2.c **** {
 201:Generated_Source\PSoC5/InjectionTimer_2.c ****     /* Globally Enable the Fixed Function Block chosen */
 202:Generated_Source\PSoC5/InjectionTimer_2.c ****     #if (InjectionTimer_2_UsingFixedFunction)
 203:Generated_Source\PSoC5/InjectionTimer_2.c ****         InjectionTimer_2_GLOBAL_ENABLE |= InjectionTimer_2_BLOCK_EN_MASK;
 204:Generated_Source\PSoC5/InjectionTimer_2.c ****         InjectionTimer_2_GLOBAL_STBY_ENABLE |= InjectionTimer_2_BLOCK_STBY_EN_MASK;
 205:Generated_Source\PSoC5/InjectionTimer_2.c ****     #endif /* (InjectionTimer_2_UsingFixedFunction) */
 206:Generated_Source\PSoC5/InjectionTimer_2.c **** 
 207:Generated_Source\PSoC5/InjectionTimer_2.c ****     /* Enable the PWM from the control register  */
 208:Generated_Source\PSoC5/InjectionTimer_2.c ****     #if (InjectionTimer_2_UseControl || InjectionTimer_2_UsingFixedFunction)
 209:Generated_Source\PSoC5/InjectionTimer_2.c ****         InjectionTimer_2_CONTROL |= InjectionTimer_2_CTRL_ENABLE;
 627              		.loc 1 209 0
ARM GAS  C:\Users\Bruger\AppData\Local\Temp\cclE5rXE.s 			page 50


 628 0008 1E4A     		ldr	r2, .L13+4
 629 000a 1378     		ldrb	r3, [r2]	@ zero_extendqisi2
 630 000c 43F08003 		orr	r3, r3, #128
 631 0010 1370     		strb	r3, [r2]
 632 0012 F8BD     		pop	{r3, r4, r5, r6, r7, pc}
 633              	.L12:
 634              	.LBE41:
 635              	.LBE40:
 636              	.LBB42:
 637              	.LBB43:
 638              	.LBB44:
 639              	.LBB45:
 210:Generated_Source\PSoC5/InjectionTimer_2.c ****     #endif /* (InjectionTimer_2_UseControl || InjectionTimer_2_UsingFixedFunction) */
 211:Generated_Source\PSoC5/InjectionTimer_2.c **** }
 212:Generated_Source\PSoC5/InjectionTimer_2.c **** 
 213:Generated_Source\PSoC5/InjectionTimer_2.c **** 
 214:Generated_Source\PSoC5/InjectionTimer_2.c **** /*******************************************************************************
 215:Generated_Source\PSoC5/InjectionTimer_2.c **** * Function Name: InjectionTimer_2_Stop
 216:Generated_Source\PSoC5/InjectionTimer_2.c **** ********************************************************************************
 217:Generated_Source\PSoC5/InjectionTimer_2.c **** *
 218:Generated_Source\PSoC5/InjectionTimer_2.c **** * Summary:
 219:Generated_Source\PSoC5/InjectionTimer_2.c **** *  The stop function halts the PWM, but does not change any modes or disable
 220:Generated_Source\PSoC5/InjectionTimer_2.c **** *  interrupts.
 221:Generated_Source\PSoC5/InjectionTimer_2.c **** *
 222:Generated_Source\PSoC5/InjectionTimer_2.c **** * Parameters:
 223:Generated_Source\PSoC5/InjectionTimer_2.c **** *  None
 224:Generated_Source\PSoC5/InjectionTimer_2.c **** *
 225:Generated_Source\PSoC5/InjectionTimer_2.c **** * Return:
 226:Generated_Source\PSoC5/InjectionTimer_2.c **** *  None
 227:Generated_Source\PSoC5/InjectionTimer_2.c **** *
 228:Generated_Source\PSoC5/InjectionTimer_2.c **** * Side Effects:
 229:Generated_Source\PSoC5/InjectionTimer_2.c **** *  If the Enable mode is set to Hardware only then this function
 230:Generated_Source\PSoC5/InjectionTimer_2.c **** *  has no effect on the operation of the PWM
 231:Generated_Source\PSoC5/InjectionTimer_2.c **** *
 232:Generated_Source\PSoC5/InjectionTimer_2.c **** *******************************************************************************/
 233:Generated_Source\PSoC5/InjectionTimer_2.c **** void InjectionTimer_2_Stop(void) 
 234:Generated_Source\PSoC5/InjectionTimer_2.c **** {
 235:Generated_Source\PSoC5/InjectionTimer_2.c ****     #if (InjectionTimer_2_UseControl || InjectionTimer_2_UsingFixedFunction)
 236:Generated_Source\PSoC5/InjectionTimer_2.c ****         InjectionTimer_2_CONTROL &= ((uint8)(~InjectionTimer_2_CTRL_ENABLE));
 237:Generated_Source\PSoC5/InjectionTimer_2.c ****     #endif /* (InjectionTimer_2_UseControl || InjectionTimer_2_UsingFixedFunction) */
 238:Generated_Source\PSoC5/InjectionTimer_2.c **** 
 239:Generated_Source\PSoC5/InjectionTimer_2.c ****     /* Globally disable the Fixed Function Block chosen */
 240:Generated_Source\PSoC5/InjectionTimer_2.c ****     #if (InjectionTimer_2_UsingFixedFunction)
 241:Generated_Source\PSoC5/InjectionTimer_2.c ****         InjectionTimer_2_GLOBAL_ENABLE &= ((uint8)(~InjectionTimer_2_BLOCK_EN_MASK));
 242:Generated_Source\PSoC5/InjectionTimer_2.c ****         InjectionTimer_2_GLOBAL_STBY_ENABLE &= ((uint8)(~InjectionTimer_2_BLOCK_STBY_EN_MASK));
 243:Generated_Source\PSoC5/InjectionTimer_2.c ****     #endif /* (InjectionTimer_2_UsingFixedFunction) */
 244:Generated_Source\PSoC5/InjectionTimer_2.c **** }
 245:Generated_Source\PSoC5/InjectionTimer_2.c **** 
 246:Generated_Source\PSoC5/InjectionTimer_2.c **** #if (InjectionTimer_2_UseOneCompareMode)
 247:Generated_Source\PSoC5/InjectionTimer_2.c ****     #if (InjectionTimer_2_CompareMode1SW)
 248:Generated_Source\PSoC5/InjectionTimer_2.c **** 
 249:Generated_Source\PSoC5/InjectionTimer_2.c **** 
 250:Generated_Source\PSoC5/InjectionTimer_2.c ****         /*******************************************************************************
 251:Generated_Source\PSoC5/InjectionTimer_2.c ****         * Function Name: InjectionTimer_2_SetCompareMode
 252:Generated_Source\PSoC5/InjectionTimer_2.c ****         ********************************************************************************
 253:Generated_Source\PSoC5/InjectionTimer_2.c ****         *
 254:Generated_Source\PSoC5/InjectionTimer_2.c ****         * Summary:
ARM GAS  C:\Users\Bruger\AppData\Local\Temp\cclE5rXE.s 			page 51


 255:Generated_Source\PSoC5/InjectionTimer_2.c ****         *  This function writes the Compare Mode for the pwm output when in Dither mode,
 256:Generated_Source\PSoC5/InjectionTimer_2.c ****         *  Center Align Mode or One Output Mode.
 257:Generated_Source\PSoC5/InjectionTimer_2.c ****         *
 258:Generated_Source\PSoC5/InjectionTimer_2.c ****         * Parameters:
 259:Generated_Source\PSoC5/InjectionTimer_2.c ****         *  comparemode:  The new compare mode for the PWM output. Use the compare types
 260:Generated_Source\PSoC5/InjectionTimer_2.c ****         *                defined in the H file as input arguments.
 261:Generated_Source\PSoC5/InjectionTimer_2.c ****         *
 262:Generated_Source\PSoC5/InjectionTimer_2.c ****         * Return:
 263:Generated_Source\PSoC5/InjectionTimer_2.c ****         *  None
 264:Generated_Source\PSoC5/InjectionTimer_2.c ****         *
 265:Generated_Source\PSoC5/InjectionTimer_2.c ****         *******************************************************************************/
 266:Generated_Source\PSoC5/InjectionTimer_2.c ****         void InjectionTimer_2_SetCompareMode(uint8 comparemode) 
 267:Generated_Source\PSoC5/InjectionTimer_2.c ****         {
 268:Generated_Source\PSoC5/InjectionTimer_2.c ****             #if(InjectionTimer_2_UsingFixedFunction)
 269:Generated_Source\PSoC5/InjectionTimer_2.c **** 
 270:Generated_Source\PSoC5/InjectionTimer_2.c ****                 #if(0 != InjectionTimer_2_CTRL_CMPMODE1_SHIFT)
 271:Generated_Source\PSoC5/InjectionTimer_2.c ****                     uint8 comparemodemasked = ((uint8)((uint8)comparemode << InjectionTimer_2_CTRL_
 272:Generated_Source\PSoC5/InjectionTimer_2.c ****                 #else
 273:Generated_Source\PSoC5/InjectionTimer_2.c ****                     uint8 comparemodemasked = comparemode;
 274:Generated_Source\PSoC5/InjectionTimer_2.c ****                 #endif /* (0 != InjectionTimer_2_CTRL_CMPMODE1_SHIFT) */
 275:Generated_Source\PSoC5/InjectionTimer_2.c **** 
 276:Generated_Source\PSoC5/InjectionTimer_2.c ****                 InjectionTimer_2_CONTROL3 &= ((uint8)(~InjectionTimer_2_CTRL_CMPMODE1_MASK)); /*Cle
 277:Generated_Source\PSoC5/InjectionTimer_2.c ****                 InjectionTimer_2_CONTROL3 |= comparemodemasked;
 278:Generated_Source\PSoC5/InjectionTimer_2.c **** 
 279:Generated_Source\PSoC5/InjectionTimer_2.c ****             #elif (InjectionTimer_2_UseControl)
 280:Generated_Source\PSoC5/InjectionTimer_2.c **** 
 281:Generated_Source\PSoC5/InjectionTimer_2.c ****                 #if(0 != InjectionTimer_2_CTRL_CMPMODE1_SHIFT)
 282:Generated_Source\PSoC5/InjectionTimer_2.c ****                     uint8 comparemode1masked = ((uint8)((uint8)comparemode << InjectionTimer_2_CTRL
 283:Generated_Source\PSoC5/InjectionTimer_2.c ****                                                 InjectionTimer_2_CTRL_CMPMODE1_MASK;
 284:Generated_Source\PSoC5/InjectionTimer_2.c ****                 #else
 285:Generated_Source\PSoC5/InjectionTimer_2.c ****                     uint8 comparemode1masked = comparemode & InjectionTimer_2_CTRL_CMPMODE1_MASK;
 286:Generated_Source\PSoC5/InjectionTimer_2.c ****                 #endif /* (0 != InjectionTimer_2_CTRL_CMPMODE1_SHIFT) */
 287:Generated_Source\PSoC5/InjectionTimer_2.c **** 
 288:Generated_Source\PSoC5/InjectionTimer_2.c ****                 #if(0 != InjectionTimer_2_CTRL_CMPMODE2_SHIFT)
 289:Generated_Source\PSoC5/InjectionTimer_2.c ****                     uint8 comparemode2masked = ((uint8)((uint8)comparemode << InjectionTimer_2_CTRL
 290:Generated_Source\PSoC5/InjectionTimer_2.c ****                                                InjectionTimer_2_CTRL_CMPMODE2_MASK;
 291:Generated_Source\PSoC5/InjectionTimer_2.c ****                 #else
 292:Generated_Source\PSoC5/InjectionTimer_2.c ****                     uint8 comparemode2masked = comparemode & InjectionTimer_2_CTRL_CMPMODE2_MASK;
 293:Generated_Source\PSoC5/InjectionTimer_2.c ****                 #endif /* (0 != InjectionTimer_2_CTRL_CMPMODE2_SHIFT) */
 294:Generated_Source\PSoC5/InjectionTimer_2.c **** 
 295:Generated_Source\PSoC5/InjectionTimer_2.c ****                 /*Clear existing mode */
 296:Generated_Source\PSoC5/InjectionTimer_2.c ****                 InjectionTimer_2_CONTROL &= ((uint8)(~(InjectionTimer_2_CTRL_CMPMODE1_MASK |
 297:Generated_Source\PSoC5/InjectionTimer_2.c ****                                             InjectionTimer_2_CTRL_CMPMODE2_MASK)));
 298:Generated_Source\PSoC5/InjectionTimer_2.c ****                 InjectionTimer_2_CONTROL |= (comparemode1masked | comparemode2masked);
 299:Generated_Source\PSoC5/InjectionTimer_2.c **** 
 300:Generated_Source\PSoC5/InjectionTimer_2.c ****             #else
 301:Generated_Source\PSoC5/InjectionTimer_2.c ****                 uint8 temp = comparemode;
 302:Generated_Source\PSoC5/InjectionTimer_2.c ****             #endif /* (InjectionTimer_2_UsingFixedFunction) */
 303:Generated_Source\PSoC5/InjectionTimer_2.c ****         }
 304:Generated_Source\PSoC5/InjectionTimer_2.c ****     #endif /* InjectionTimer_2_CompareMode1SW */
 305:Generated_Source\PSoC5/InjectionTimer_2.c **** 
 306:Generated_Source\PSoC5/InjectionTimer_2.c **** #else /* UseOneCompareMode */
 307:Generated_Source\PSoC5/InjectionTimer_2.c **** 
 308:Generated_Source\PSoC5/InjectionTimer_2.c ****     #if (InjectionTimer_2_CompareMode1SW)
 309:Generated_Source\PSoC5/InjectionTimer_2.c **** 
 310:Generated_Source\PSoC5/InjectionTimer_2.c **** 
 311:Generated_Source\PSoC5/InjectionTimer_2.c ****         /*******************************************************************************
ARM GAS  C:\Users\Bruger\AppData\Local\Temp\cclE5rXE.s 			page 52


 312:Generated_Source\PSoC5/InjectionTimer_2.c ****         * Function Name: InjectionTimer_2_SetCompareMode1
 313:Generated_Source\PSoC5/InjectionTimer_2.c ****         ********************************************************************************
 314:Generated_Source\PSoC5/InjectionTimer_2.c ****         *
 315:Generated_Source\PSoC5/InjectionTimer_2.c ****         * Summary:
 316:Generated_Source\PSoC5/InjectionTimer_2.c ****         *  This function writes the Compare Mode for the pwm or pwm1 output
 317:Generated_Source\PSoC5/InjectionTimer_2.c ****         *
 318:Generated_Source\PSoC5/InjectionTimer_2.c ****         * Parameters:
 319:Generated_Source\PSoC5/InjectionTimer_2.c ****         *  comparemode:  The new compare mode for the PWM output. Use the compare types
 320:Generated_Source\PSoC5/InjectionTimer_2.c ****         *                defined in the H file as input arguments.
 321:Generated_Source\PSoC5/InjectionTimer_2.c ****         *
 322:Generated_Source\PSoC5/InjectionTimer_2.c ****         * Return:
 323:Generated_Source\PSoC5/InjectionTimer_2.c ****         *  None
 324:Generated_Source\PSoC5/InjectionTimer_2.c ****         *
 325:Generated_Source\PSoC5/InjectionTimer_2.c ****         *******************************************************************************/
 326:Generated_Source\PSoC5/InjectionTimer_2.c ****         void InjectionTimer_2_SetCompareMode1(uint8 comparemode) 
 327:Generated_Source\PSoC5/InjectionTimer_2.c ****         {
 328:Generated_Source\PSoC5/InjectionTimer_2.c ****             #if(0 != InjectionTimer_2_CTRL_CMPMODE1_SHIFT)
 329:Generated_Source\PSoC5/InjectionTimer_2.c ****                 uint8 comparemodemasked = ((uint8)((uint8)comparemode << InjectionTimer_2_CTRL_CMPM
 330:Generated_Source\PSoC5/InjectionTimer_2.c ****                                            InjectionTimer_2_CTRL_CMPMODE1_MASK;
 331:Generated_Source\PSoC5/InjectionTimer_2.c ****             #else
 332:Generated_Source\PSoC5/InjectionTimer_2.c ****                 uint8 comparemodemasked = comparemode & InjectionTimer_2_CTRL_CMPMODE1_MASK;
 333:Generated_Source\PSoC5/InjectionTimer_2.c ****             #endif /* (0 != InjectionTimer_2_CTRL_CMPMODE1_SHIFT) */
 334:Generated_Source\PSoC5/InjectionTimer_2.c **** 
 335:Generated_Source\PSoC5/InjectionTimer_2.c ****             #if (InjectionTimer_2_UseControl)
 336:Generated_Source\PSoC5/InjectionTimer_2.c ****                 InjectionTimer_2_CONTROL &= ((uint8)(~InjectionTimer_2_CTRL_CMPMODE1_MASK)); /*Clea
 337:Generated_Source\PSoC5/InjectionTimer_2.c ****                 InjectionTimer_2_CONTROL |= comparemodemasked;
 338:Generated_Source\PSoC5/InjectionTimer_2.c ****             #endif /* (InjectionTimer_2_UseControl) */
 339:Generated_Source\PSoC5/InjectionTimer_2.c ****         }
 340:Generated_Source\PSoC5/InjectionTimer_2.c ****     #endif /* InjectionTimer_2_CompareMode1SW */
 341:Generated_Source\PSoC5/InjectionTimer_2.c **** 
 342:Generated_Source\PSoC5/InjectionTimer_2.c **** #if (InjectionTimer_2_CompareMode2SW)
 343:Generated_Source\PSoC5/InjectionTimer_2.c **** 
 344:Generated_Source\PSoC5/InjectionTimer_2.c **** 
 345:Generated_Source\PSoC5/InjectionTimer_2.c ****     /*******************************************************************************
 346:Generated_Source\PSoC5/InjectionTimer_2.c ****     * Function Name: InjectionTimer_2_SetCompareMode2
 347:Generated_Source\PSoC5/InjectionTimer_2.c ****     ********************************************************************************
 348:Generated_Source\PSoC5/InjectionTimer_2.c ****     *
 349:Generated_Source\PSoC5/InjectionTimer_2.c ****     * Summary:
 350:Generated_Source\PSoC5/InjectionTimer_2.c ****     *  This function writes the Compare Mode for the pwm or pwm2 output
 351:Generated_Source\PSoC5/InjectionTimer_2.c ****     *
 352:Generated_Source\PSoC5/InjectionTimer_2.c ****     * Parameters:
 353:Generated_Source\PSoC5/InjectionTimer_2.c ****     *  comparemode:  The new compare mode for the PWM output. Use the compare types
 354:Generated_Source\PSoC5/InjectionTimer_2.c ****     *                defined in the H file as input arguments.
 355:Generated_Source\PSoC5/InjectionTimer_2.c ****     *
 356:Generated_Source\PSoC5/InjectionTimer_2.c ****     * Return:
 357:Generated_Source\PSoC5/InjectionTimer_2.c ****     *  None
 358:Generated_Source\PSoC5/InjectionTimer_2.c ****     *
 359:Generated_Source\PSoC5/InjectionTimer_2.c ****     *******************************************************************************/
 360:Generated_Source\PSoC5/InjectionTimer_2.c ****     void InjectionTimer_2_SetCompareMode2(uint8 comparemode) 
 361:Generated_Source\PSoC5/InjectionTimer_2.c ****     {
 362:Generated_Source\PSoC5/InjectionTimer_2.c **** 
 363:Generated_Source\PSoC5/InjectionTimer_2.c ****         #if(0 != InjectionTimer_2_CTRL_CMPMODE2_SHIFT)
 364:Generated_Source\PSoC5/InjectionTimer_2.c ****             uint8 comparemodemasked = ((uint8)((uint8)comparemode << InjectionTimer_2_CTRL_CMPMODE2
 365:Generated_Source\PSoC5/InjectionTimer_2.c ****                                                  InjectionTimer_2_CTRL_CMPMODE2_MASK;
 366:Generated_Source\PSoC5/InjectionTimer_2.c ****         #else
 367:Generated_Source\PSoC5/InjectionTimer_2.c ****             uint8 comparemodemasked = comparemode & InjectionTimer_2_CTRL_CMPMODE2_MASK;
 368:Generated_Source\PSoC5/InjectionTimer_2.c ****         #endif /* (0 != InjectionTimer_2_CTRL_CMPMODE2_SHIFT) */
ARM GAS  C:\Users\Bruger\AppData\Local\Temp\cclE5rXE.s 			page 53


 369:Generated_Source\PSoC5/InjectionTimer_2.c **** 
 370:Generated_Source\PSoC5/InjectionTimer_2.c ****         #if (InjectionTimer_2_UseControl)
 371:Generated_Source\PSoC5/InjectionTimer_2.c ****             InjectionTimer_2_CONTROL &= ((uint8)(~InjectionTimer_2_CTRL_CMPMODE2_MASK)); /*Clear ex
 372:Generated_Source\PSoC5/InjectionTimer_2.c ****             InjectionTimer_2_CONTROL |= comparemodemasked;
 373:Generated_Source\PSoC5/InjectionTimer_2.c ****         #endif /* (InjectionTimer_2_UseControl) */
 374:Generated_Source\PSoC5/InjectionTimer_2.c ****     }
 375:Generated_Source\PSoC5/InjectionTimer_2.c ****     #endif /*InjectionTimer_2_CompareMode2SW */
 376:Generated_Source\PSoC5/InjectionTimer_2.c **** 
 377:Generated_Source\PSoC5/InjectionTimer_2.c **** #endif /* UseOneCompareMode */
 378:Generated_Source\PSoC5/InjectionTimer_2.c **** 
 379:Generated_Source\PSoC5/InjectionTimer_2.c **** 
 380:Generated_Source\PSoC5/InjectionTimer_2.c **** #if (!InjectionTimer_2_UsingFixedFunction)
 381:Generated_Source\PSoC5/InjectionTimer_2.c **** 
 382:Generated_Source\PSoC5/InjectionTimer_2.c **** 
 383:Generated_Source\PSoC5/InjectionTimer_2.c ****     /*******************************************************************************
 384:Generated_Source\PSoC5/InjectionTimer_2.c ****     * Function Name: InjectionTimer_2_WriteCounter
 385:Generated_Source\PSoC5/InjectionTimer_2.c ****     ********************************************************************************
 386:Generated_Source\PSoC5/InjectionTimer_2.c ****     *
 387:Generated_Source\PSoC5/InjectionTimer_2.c ****     * Summary:
 388:Generated_Source\PSoC5/InjectionTimer_2.c ****     *  Writes a new counter value directly to the counter register. This will be
 389:Generated_Source\PSoC5/InjectionTimer_2.c ****     *  implemented for that currently running period and only that period. This API
 390:Generated_Source\PSoC5/InjectionTimer_2.c ****     *  is valid only for UDB implementation and not available for fixed function
 391:Generated_Source\PSoC5/InjectionTimer_2.c ****     *  PWM implementation.
 392:Generated_Source\PSoC5/InjectionTimer_2.c ****     *
 393:Generated_Source\PSoC5/InjectionTimer_2.c ****     * Parameters:
 394:Generated_Source\PSoC5/InjectionTimer_2.c ****     *  counter:  The period new period counter value.
 395:Generated_Source\PSoC5/InjectionTimer_2.c ****     *
 396:Generated_Source\PSoC5/InjectionTimer_2.c ****     * Return:
 397:Generated_Source\PSoC5/InjectionTimer_2.c ****     *  None
 398:Generated_Source\PSoC5/InjectionTimer_2.c ****     *
 399:Generated_Source\PSoC5/InjectionTimer_2.c ****     * Side Effects:
 400:Generated_Source\PSoC5/InjectionTimer_2.c ****     *  The PWM Period will be reloaded when a counter value will be a zero
 401:Generated_Source\PSoC5/InjectionTimer_2.c ****     *
 402:Generated_Source\PSoC5/InjectionTimer_2.c ****     *******************************************************************************/
 403:Generated_Source\PSoC5/InjectionTimer_2.c ****     void InjectionTimer_2_WriteCounter(uint16 counter) \
 404:Generated_Source\PSoC5/InjectionTimer_2.c ****                                        
 405:Generated_Source\PSoC5/InjectionTimer_2.c ****     {
 406:Generated_Source\PSoC5/InjectionTimer_2.c ****         CY_SET_REG16(InjectionTimer_2_COUNTER_LSB_PTR, counter);
 640              		.loc 1 406 0
 641 0014 4AF6C871 		movw	r1, #45000
 642              	.LBE45:
 643              	.LBE44:
 117:Generated_Source\PSoC5/InjectionTimer_2.c ****                 ((uint8)(~InjectionTimer_2_CTRL_CMPMODE1_MASK));
 644              		.loc 1 117 0
 645 0018 1A4E     		ldr	r6, .L13+4
 129:Generated_Source\PSoC5/InjectionTimer_2.c ****             InjectionTimer_2_AUX_CONTROLDP1 |= (InjectionTimer_2_AUX_CTRL_FIFO0_CLR);
 646              		.loc 1 129 0
 647 001a 1B48     		ldr	r0, .L13+8
 117:Generated_Source\PSoC5/InjectionTimer_2.c ****                 ((uint8)(~InjectionTimer_2_CTRL_CMPMODE1_MASK));
 648              		.loc 1 117 0
 649 001c 3278     		ldrb	r2, [r6]	@ zero_extendqisi2
 650              	.LVL0:
 130:Generated_Source\PSoC5/InjectionTimer_2.c ****         #endif /* (InjectionTimer_2_Resolution == 8) */
 651              		.loc 1 130 0
 652 001e 1B4D     		ldr	r5, .L13+12
 117:Generated_Source\PSoC5/InjectionTimer_2.c ****                 ((uint8)(~InjectionTimer_2_CTRL_CMPMODE1_MASK));
 653              		.loc 1 117 0
ARM GAS  C:\Users\Bruger\AppData\Local\Temp\cclE5rXE.s 			page 54


 654 0020 02F0C002 		and	r2, r2, #192
 655              	.LVL1:
 119:Generated_Source\PSoC5/InjectionTimer_2.c ****                                    InjectionTimer_2_DEFAULT_COMPARE1_MODE;
 656              		.loc 1 119 0
 657 0024 42F00902 		orr	r2, r2, #9
 658 0028 3270     		strb	r2, [r6]
 129:Generated_Source\PSoC5/InjectionTimer_2.c ****             InjectionTimer_2_AUX_CONTROLDP1 |= (InjectionTimer_2_AUX_CTRL_FIFO0_CLR);
 659              		.loc 1 129 0
 660 002a 0278     		ldrb	r2, [r0]	@ zero_extendqisi2
 661              	.LBB48:
 662              	.LBB46:
 663              		.loc 1 406 0
 664 002c DFF868C0 		ldr	ip, .L13+24
 665              	.LBE46:
 666              	.LBE48:
 129:Generated_Source\PSoC5/InjectionTimer_2.c ****             InjectionTimer_2_AUX_CONTROLDP1 |= (InjectionTimer_2_AUX_CTRL_FIFO0_CLR);
 667              		.loc 1 129 0
 668 0030 42F00102 		orr	r2, r2, #1
 669 0034 0270     		strb	r2, [r0]
 130:Generated_Source\PSoC5/InjectionTimer_2.c ****         #endif /* (InjectionTimer_2_Resolution == 8) */
 670              		.loc 1 130 0
 671 0036 2A78     		ldrb	r2, [r5]	@ zero_extendqisi2
 672              	.LBB49:
 673              	.LBB50:
 407:Generated_Source\PSoC5/InjectionTimer_2.c ****     }
 408:Generated_Source\PSoC5/InjectionTimer_2.c **** 
 409:Generated_Source\PSoC5/InjectionTimer_2.c **** 
 410:Generated_Source\PSoC5/InjectionTimer_2.c ****     /*******************************************************************************
 411:Generated_Source\PSoC5/InjectionTimer_2.c ****     * Function Name: InjectionTimer_2_ReadCounter
 412:Generated_Source\PSoC5/InjectionTimer_2.c ****     ********************************************************************************
 413:Generated_Source\PSoC5/InjectionTimer_2.c ****     *
 414:Generated_Source\PSoC5/InjectionTimer_2.c ****     * Summary:
 415:Generated_Source\PSoC5/InjectionTimer_2.c ****     *  This function returns the current value of the counter.  It doesn't matter
 416:Generated_Source\PSoC5/InjectionTimer_2.c ****     *  if the counter is enabled or running.
 417:Generated_Source\PSoC5/InjectionTimer_2.c ****     *
 418:Generated_Source\PSoC5/InjectionTimer_2.c ****     * Parameters:
 419:Generated_Source\PSoC5/InjectionTimer_2.c ****     *  None
 420:Generated_Source\PSoC5/InjectionTimer_2.c ****     *
 421:Generated_Source\PSoC5/InjectionTimer_2.c ****     * Return:
 422:Generated_Source\PSoC5/InjectionTimer_2.c ****     *  The current value of the counter.
 423:Generated_Source\PSoC5/InjectionTimer_2.c ****     *
 424:Generated_Source\PSoC5/InjectionTimer_2.c ****     *******************************************************************************/
 425:Generated_Source\PSoC5/InjectionTimer_2.c ****     uint16 InjectionTimer_2_ReadCounter(void) 
 426:Generated_Source\PSoC5/InjectionTimer_2.c ****     {
 427:Generated_Source\PSoC5/InjectionTimer_2.c ****         /* Force capture by reading Accumulator */
 428:Generated_Source\PSoC5/InjectionTimer_2.c ****         /* Must first do a software capture to be able to read the counter */
 429:Generated_Source\PSoC5/InjectionTimer_2.c ****         /* It is up to the user code to make sure there isn't already captured data in the FIFO */
 430:Generated_Source\PSoC5/InjectionTimer_2.c ****           (void)CY_GET_REG8(InjectionTimer_2_COUNTERCAP_LSB_PTR_8BIT);
 431:Generated_Source\PSoC5/InjectionTimer_2.c **** 
 432:Generated_Source\PSoC5/InjectionTimer_2.c ****         /* Read the data from the FIFO */
 433:Generated_Source\PSoC5/InjectionTimer_2.c ****         return (CY_GET_REG16(InjectionTimer_2_CAPTURE_LSB_PTR));
 434:Generated_Source\PSoC5/InjectionTimer_2.c ****     }
 435:Generated_Source\PSoC5/InjectionTimer_2.c **** 
 436:Generated_Source\PSoC5/InjectionTimer_2.c ****     #if (InjectionTimer_2_UseStatus)
 437:Generated_Source\PSoC5/InjectionTimer_2.c **** 
 438:Generated_Source\PSoC5/InjectionTimer_2.c **** 
 439:Generated_Source\PSoC5/InjectionTimer_2.c ****         /*******************************************************************************
ARM GAS  C:\Users\Bruger\AppData\Local\Temp\cclE5rXE.s 			page 55


 440:Generated_Source\PSoC5/InjectionTimer_2.c ****         * Function Name: InjectionTimer_2_ClearFIFO
 441:Generated_Source\PSoC5/InjectionTimer_2.c ****         ********************************************************************************
 442:Generated_Source\PSoC5/InjectionTimer_2.c ****         *
 443:Generated_Source\PSoC5/InjectionTimer_2.c ****         * Summary:
 444:Generated_Source\PSoC5/InjectionTimer_2.c ****         *  This function clears all capture data from the capture FIFO
 445:Generated_Source\PSoC5/InjectionTimer_2.c ****         *
 446:Generated_Source\PSoC5/InjectionTimer_2.c ****         * Parameters:
 447:Generated_Source\PSoC5/InjectionTimer_2.c ****         *  None
 448:Generated_Source\PSoC5/InjectionTimer_2.c ****         *
 449:Generated_Source\PSoC5/InjectionTimer_2.c ****         * Return:
 450:Generated_Source\PSoC5/InjectionTimer_2.c ****         *  None
 451:Generated_Source\PSoC5/InjectionTimer_2.c ****         *
 452:Generated_Source\PSoC5/InjectionTimer_2.c ****         *******************************************************************************/
 453:Generated_Source\PSoC5/InjectionTimer_2.c ****         void InjectionTimer_2_ClearFIFO(void) 
 454:Generated_Source\PSoC5/InjectionTimer_2.c ****         {
 455:Generated_Source\PSoC5/InjectionTimer_2.c ****             while(0u != (InjectionTimer_2_ReadStatusRegister() & InjectionTimer_2_STATUS_FIFONEMPTY
 456:Generated_Source\PSoC5/InjectionTimer_2.c ****             {
 457:Generated_Source\PSoC5/InjectionTimer_2.c ****                 (void)InjectionTimer_2_ReadCapture();
 458:Generated_Source\PSoC5/InjectionTimer_2.c ****             }
 459:Generated_Source\PSoC5/InjectionTimer_2.c ****         }
 460:Generated_Source\PSoC5/InjectionTimer_2.c **** 
 461:Generated_Source\PSoC5/InjectionTimer_2.c ****     #endif /* InjectionTimer_2_UseStatus */
 462:Generated_Source\PSoC5/InjectionTimer_2.c **** 
 463:Generated_Source\PSoC5/InjectionTimer_2.c **** #endif /* !InjectionTimer_2_UsingFixedFunction */
 464:Generated_Source\PSoC5/InjectionTimer_2.c **** 
 465:Generated_Source\PSoC5/InjectionTimer_2.c **** 
 466:Generated_Source\PSoC5/InjectionTimer_2.c **** /*******************************************************************************
 467:Generated_Source\PSoC5/InjectionTimer_2.c **** * Function Name: InjectionTimer_2_WritePeriod
 468:Generated_Source\PSoC5/InjectionTimer_2.c **** ********************************************************************************
 469:Generated_Source\PSoC5/InjectionTimer_2.c **** *
 470:Generated_Source\PSoC5/InjectionTimer_2.c **** * Summary:
 471:Generated_Source\PSoC5/InjectionTimer_2.c **** *  This function is used to change the period of the counter.  The new period
 472:Generated_Source\PSoC5/InjectionTimer_2.c **** *  will be loaded the next time terminal count is detected.
 473:Generated_Source\PSoC5/InjectionTimer_2.c **** *
 474:Generated_Source\PSoC5/InjectionTimer_2.c **** * Parameters:
 475:Generated_Source\PSoC5/InjectionTimer_2.c **** *  period:  Period value. May be between 1 and (2^Resolution)-1.  A value of 0
 476:Generated_Source\PSoC5/InjectionTimer_2.c **** *           will result in the counter remaining at zero.
 477:Generated_Source\PSoC5/InjectionTimer_2.c **** *
 478:Generated_Source\PSoC5/InjectionTimer_2.c **** * Return:
 479:Generated_Source\PSoC5/InjectionTimer_2.c **** *  None
 480:Generated_Source\PSoC5/InjectionTimer_2.c **** *
 481:Generated_Source\PSoC5/InjectionTimer_2.c **** *******************************************************************************/
 482:Generated_Source\PSoC5/InjectionTimer_2.c **** void InjectionTimer_2_WritePeriod(uint16 period) 
 483:Generated_Source\PSoC5/InjectionTimer_2.c **** {
 484:Generated_Source\PSoC5/InjectionTimer_2.c ****     #if(InjectionTimer_2_UsingFixedFunction)
 485:Generated_Source\PSoC5/InjectionTimer_2.c ****         CY_SET_REG16(InjectionTimer_2_PERIOD_LSB_PTR, (uint16)period);
 486:Generated_Source\PSoC5/InjectionTimer_2.c ****     #else
 487:Generated_Source\PSoC5/InjectionTimer_2.c ****         CY_SET_REG16(InjectionTimer_2_PERIOD_LSB_PTR, period);
 674              		.loc 1 487 0
 675 0038 DFF860E0 		ldr	lr, .L13+28
 676              	.LBE50:
 677              	.LBE49:
 130:Generated_Source\PSoC5/InjectionTimer_2.c ****         #endif /* (InjectionTimer_2_Resolution == 8) */
 678              		.loc 1 130 0
 679 003c 42F00102 		orr	r2, r2, #1
 680              	.LBB52:
 681              	.LBB53:
ARM GAS  C:\Users\Bruger\AppData\Local\Temp\cclE5rXE.s 			page 56


 488:Generated_Source\PSoC5/InjectionTimer_2.c ****     #endif /* (InjectionTimer_2_UsingFixedFunction) */
 489:Generated_Source\PSoC5/InjectionTimer_2.c **** }
 490:Generated_Source\PSoC5/InjectionTimer_2.c **** 
 491:Generated_Source\PSoC5/InjectionTimer_2.c **** #if (InjectionTimer_2_UseOneCompareMode)
 492:Generated_Source\PSoC5/InjectionTimer_2.c **** 
 493:Generated_Source\PSoC5/InjectionTimer_2.c **** 
 494:Generated_Source\PSoC5/InjectionTimer_2.c ****     /*******************************************************************************
 495:Generated_Source\PSoC5/InjectionTimer_2.c ****     * Function Name: InjectionTimer_2_WriteCompare
 496:Generated_Source\PSoC5/InjectionTimer_2.c ****     ********************************************************************************
 497:Generated_Source\PSoC5/InjectionTimer_2.c ****     *
 498:Generated_Source\PSoC5/InjectionTimer_2.c ****     * Summary:
 499:Generated_Source\PSoC5/InjectionTimer_2.c ****     *  This funtion is used to change the compare1 value when the PWM is in Dither
 500:Generated_Source\PSoC5/InjectionTimer_2.c ****     *  mode. The compare output will reflect the new value on the next UDB clock.
 501:Generated_Source\PSoC5/InjectionTimer_2.c ****     *  The compare output will be driven high when the present counter value is
 502:Generated_Source\PSoC5/InjectionTimer_2.c ****     *  compared to the compare value based on the compare mode defined in
 503:Generated_Source\PSoC5/InjectionTimer_2.c ****     *  Dither Mode.
 504:Generated_Source\PSoC5/InjectionTimer_2.c ****     *
 505:Generated_Source\PSoC5/InjectionTimer_2.c ****     * Parameters:
 506:Generated_Source\PSoC5/InjectionTimer_2.c ****     *  compare:  New compare value.
 507:Generated_Source\PSoC5/InjectionTimer_2.c ****     *
 508:Generated_Source\PSoC5/InjectionTimer_2.c ****     * Return:
 509:Generated_Source\PSoC5/InjectionTimer_2.c ****     *  None
 510:Generated_Source\PSoC5/InjectionTimer_2.c ****     *
 511:Generated_Source\PSoC5/InjectionTimer_2.c ****     * Side Effects:
 512:Generated_Source\PSoC5/InjectionTimer_2.c ****     *  This function is only available if the PWM mode parameter is set to
 513:Generated_Source\PSoC5/InjectionTimer_2.c ****     *  Dither Mode, Center Aligned Mode or One Output Mode
 514:Generated_Source\PSoC5/InjectionTimer_2.c ****     *
 515:Generated_Source\PSoC5/InjectionTimer_2.c ****     *******************************************************************************/
 516:Generated_Source\PSoC5/InjectionTimer_2.c ****     void InjectionTimer_2_WriteCompare(uint16 compare) \
 517:Generated_Source\PSoC5/InjectionTimer_2.c ****                                        
 518:Generated_Source\PSoC5/InjectionTimer_2.c ****     {
 519:Generated_Source\PSoC5/InjectionTimer_2.c ****         #if(InjectionTimer_2_UsingFixedFunction)
 520:Generated_Source\PSoC5/InjectionTimer_2.c ****             CY_SET_REG16(InjectionTimer_2_COMPARE1_LSB_PTR, (uint16)compare);
 521:Generated_Source\PSoC5/InjectionTimer_2.c ****         #else
 522:Generated_Source\PSoC5/InjectionTimer_2.c ****             CY_SET_REG16(InjectionTimer_2_COMPARE1_LSB_PTR, compare);
 682              		.loc 1 522 0
 683 0040 4FF4FA47 		mov	r7, #32000
 684              	.LBE53:
 685              	.LBE52:
 130:Generated_Source\PSoC5/InjectionTimer_2.c ****         #endif /* (InjectionTimer_2_Resolution == 8) */
 686              		.loc 1 130 0
 687 0044 2A70     		strb	r2, [r5]
 688              	.LVL2:
 689              	.LBB55:
 690              	.LBB47:
 406:Generated_Source\PSoC5/InjectionTimer_2.c ****     }
 691              		.loc 1 406 0
 692 0046 ACF80010 		strh	r1, [ip]	@ movhi
 693              	.LVL3:
 694              	.LBE47:
 695              	.LBE55:
 696              	.LBB56:
 697              	.LBB51:
 487:Generated_Source\PSoC5/InjectionTimer_2.c ****     #endif /* (InjectionTimer_2_UsingFixedFunction) */
 698              		.loc 1 487 0
 699 004a AEF80010 		strh	r1, [lr]	@ movhi
 700              	.LVL4:
ARM GAS  C:\Users\Bruger\AppData\Local\Temp\cclE5rXE.s 			page 57


 701              	.LBE51:
 702              	.LBE56:
 703              	.LBB57:
 704              	.LBB54:
 705              		.loc 1 522 0
 706 004e A6F8D972 		strh	r7, [r6, #729]	@ movhi
 707              	.LVL5:
 708              	.LBE54:
 709              	.LBE57:
 710              	.LBB58:
 711              	.LBB59:
 523:Generated_Source\PSoC5/InjectionTimer_2.c ****         #endif /* (InjectionTimer_2_UsingFixedFunction) */
 524:Generated_Source\PSoC5/InjectionTimer_2.c **** 
 525:Generated_Source\PSoC5/InjectionTimer_2.c ****         #if (InjectionTimer_2_PWMMode == InjectionTimer_2__B_PWM__DITHER)
 526:Generated_Source\PSoC5/InjectionTimer_2.c ****             #if(InjectionTimer_2_UsingFixedFunction)
 527:Generated_Source\PSoC5/InjectionTimer_2.c ****                 CY_SET_REG16(InjectionTimer_2_COMPARE2_LSB_PTR, (uint16)(compare + 1u));
 528:Generated_Source\PSoC5/InjectionTimer_2.c ****             #else
 529:Generated_Source\PSoC5/InjectionTimer_2.c ****                 CY_SET_REG16(InjectionTimer_2_COMPARE2_LSB_PTR, (compare + 1u));
 530:Generated_Source\PSoC5/InjectionTimer_2.c ****             #endif /* (InjectionTimer_2_UsingFixedFunction) */
 531:Generated_Source\PSoC5/InjectionTimer_2.c ****         #endif /* (InjectionTimer_2_PWMMode == InjectionTimer_2__B_PWM__DITHER) */
 532:Generated_Source\PSoC5/InjectionTimer_2.c ****     }
 533:Generated_Source\PSoC5/InjectionTimer_2.c **** 
 534:Generated_Source\PSoC5/InjectionTimer_2.c **** 
 535:Generated_Source\PSoC5/InjectionTimer_2.c **** #else
 536:Generated_Source\PSoC5/InjectionTimer_2.c **** 
 537:Generated_Source\PSoC5/InjectionTimer_2.c **** 
 538:Generated_Source\PSoC5/InjectionTimer_2.c ****     /*******************************************************************************
 539:Generated_Source\PSoC5/InjectionTimer_2.c ****     * Function Name: InjectionTimer_2_WriteCompare1
 540:Generated_Source\PSoC5/InjectionTimer_2.c ****     ********************************************************************************
 541:Generated_Source\PSoC5/InjectionTimer_2.c ****     *
 542:Generated_Source\PSoC5/InjectionTimer_2.c ****     * Summary:
 543:Generated_Source\PSoC5/InjectionTimer_2.c ****     *  This funtion is used to change the compare1 value.  The compare output will
 544:Generated_Source\PSoC5/InjectionTimer_2.c ****     *  reflect the new value on the next UDB clock.  The compare output will be
 545:Generated_Source\PSoC5/InjectionTimer_2.c ****     *  driven high when the present counter value is less than or less than or
 546:Generated_Source\PSoC5/InjectionTimer_2.c ****     *  equal to the compare register, depending on the mode.
 547:Generated_Source\PSoC5/InjectionTimer_2.c ****     *
 548:Generated_Source\PSoC5/InjectionTimer_2.c ****     * Parameters:
 549:Generated_Source\PSoC5/InjectionTimer_2.c ****     *  compare:  New compare value.
 550:Generated_Source\PSoC5/InjectionTimer_2.c ****     *
 551:Generated_Source\PSoC5/InjectionTimer_2.c ****     * Return:
 552:Generated_Source\PSoC5/InjectionTimer_2.c ****     *  None
 553:Generated_Source\PSoC5/InjectionTimer_2.c ****     *
 554:Generated_Source\PSoC5/InjectionTimer_2.c ****     *******************************************************************************/
 555:Generated_Source\PSoC5/InjectionTimer_2.c ****     void InjectionTimer_2_WriteCompare1(uint16 compare) \
 556:Generated_Source\PSoC5/InjectionTimer_2.c ****                                         
 557:Generated_Source\PSoC5/InjectionTimer_2.c ****     {
 558:Generated_Source\PSoC5/InjectionTimer_2.c ****         #if(InjectionTimer_2_UsingFixedFunction)
 559:Generated_Source\PSoC5/InjectionTimer_2.c ****             CY_SET_REG16(InjectionTimer_2_COMPARE1_LSB_PTR, (uint16)compare);
 560:Generated_Source\PSoC5/InjectionTimer_2.c ****         #else
 561:Generated_Source\PSoC5/InjectionTimer_2.c ****             CY_SET_REG16(InjectionTimer_2_COMPARE1_LSB_PTR, compare);
 562:Generated_Source\PSoC5/InjectionTimer_2.c ****         #endif /* (InjectionTimer_2_UsingFixedFunction) */
 563:Generated_Source\PSoC5/InjectionTimer_2.c ****     }
 564:Generated_Source\PSoC5/InjectionTimer_2.c **** 
 565:Generated_Source\PSoC5/InjectionTimer_2.c **** 
 566:Generated_Source\PSoC5/InjectionTimer_2.c ****     /*******************************************************************************
 567:Generated_Source\PSoC5/InjectionTimer_2.c ****     * Function Name: InjectionTimer_2_WriteCompare2
 568:Generated_Source\PSoC5/InjectionTimer_2.c ****     ********************************************************************************
ARM GAS  C:\Users\Bruger\AppData\Local\Temp\cclE5rXE.s 			page 58


 569:Generated_Source\PSoC5/InjectionTimer_2.c ****     *
 570:Generated_Source\PSoC5/InjectionTimer_2.c ****     * Summary:
 571:Generated_Source\PSoC5/InjectionTimer_2.c ****     *  This funtion is used to change the compare value, for compare1 output.
 572:Generated_Source\PSoC5/InjectionTimer_2.c ****     *  The compare output will reflect the new value on the next UDB clock.
 573:Generated_Source\PSoC5/InjectionTimer_2.c ****     *  The compare output will be driven high when the present counter value is
 574:Generated_Source\PSoC5/InjectionTimer_2.c ****     *  less than or less than or equal to the compare register, depending on the
 575:Generated_Source\PSoC5/InjectionTimer_2.c ****     *  mode.
 576:Generated_Source\PSoC5/InjectionTimer_2.c ****     *
 577:Generated_Source\PSoC5/InjectionTimer_2.c ****     * Parameters:
 578:Generated_Source\PSoC5/InjectionTimer_2.c ****     *  compare:  New compare value.
 579:Generated_Source\PSoC5/InjectionTimer_2.c ****     *
 580:Generated_Source\PSoC5/InjectionTimer_2.c ****     * Return:
 581:Generated_Source\PSoC5/InjectionTimer_2.c ****     *  None
 582:Generated_Source\PSoC5/InjectionTimer_2.c ****     *
 583:Generated_Source\PSoC5/InjectionTimer_2.c ****     *******************************************************************************/
 584:Generated_Source\PSoC5/InjectionTimer_2.c ****     void InjectionTimer_2_WriteCompare2(uint16 compare) \
 585:Generated_Source\PSoC5/InjectionTimer_2.c ****                                         
 586:Generated_Source\PSoC5/InjectionTimer_2.c ****     {
 587:Generated_Source\PSoC5/InjectionTimer_2.c ****         #if(InjectionTimer_2_UsingFixedFunction)
 588:Generated_Source\PSoC5/InjectionTimer_2.c ****             CY_SET_REG16(InjectionTimer_2_COMPARE2_LSB_PTR, compare);
 589:Generated_Source\PSoC5/InjectionTimer_2.c ****         #else
 590:Generated_Source\PSoC5/InjectionTimer_2.c ****             CY_SET_REG16(InjectionTimer_2_COMPARE2_LSB_PTR, compare);
 591:Generated_Source\PSoC5/InjectionTimer_2.c ****         #endif /* (InjectionTimer_2_UsingFixedFunction) */
 592:Generated_Source\PSoC5/InjectionTimer_2.c ****     }
 593:Generated_Source\PSoC5/InjectionTimer_2.c **** #endif /* UseOneCompareMode */
 594:Generated_Source\PSoC5/InjectionTimer_2.c **** 
 595:Generated_Source\PSoC5/InjectionTimer_2.c **** #if (InjectionTimer_2_DeadBandUsed)
 596:Generated_Source\PSoC5/InjectionTimer_2.c **** 
 597:Generated_Source\PSoC5/InjectionTimer_2.c **** 
 598:Generated_Source\PSoC5/InjectionTimer_2.c ****     /*******************************************************************************
 599:Generated_Source\PSoC5/InjectionTimer_2.c ****     * Function Name: InjectionTimer_2_WriteDeadTime
 600:Generated_Source\PSoC5/InjectionTimer_2.c ****     ********************************************************************************
 601:Generated_Source\PSoC5/InjectionTimer_2.c ****     *
 602:Generated_Source\PSoC5/InjectionTimer_2.c ****     * Summary:
 603:Generated_Source\PSoC5/InjectionTimer_2.c ****     *  This function writes the dead-band counts to the corresponding register
 604:Generated_Source\PSoC5/InjectionTimer_2.c ****     *
 605:Generated_Source\PSoC5/InjectionTimer_2.c ****     * Parameters:
 606:Generated_Source\PSoC5/InjectionTimer_2.c ****     *  deadtime:  Number of counts for dead time
 607:Generated_Source\PSoC5/InjectionTimer_2.c ****     *
 608:Generated_Source\PSoC5/InjectionTimer_2.c ****     * Return:
 609:Generated_Source\PSoC5/InjectionTimer_2.c ****     *  None
 610:Generated_Source\PSoC5/InjectionTimer_2.c ****     *
 611:Generated_Source\PSoC5/InjectionTimer_2.c ****     *******************************************************************************/
 612:Generated_Source\PSoC5/InjectionTimer_2.c ****     void InjectionTimer_2_WriteDeadTime(uint8 deadtime) 
 613:Generated_Source\PSoC5/InjectionTimer_2.c ****     {
 614:Generated_Source\PSoC5/InjectionTimer_2.c ****         /* If using the Dead Band 1-255 mode then just write the register */
 615:Generated_Source\PSoC5/InjectionTimer_2.c ****         #if(!InjectionTimer_2_DeadBand2_4)
 616:Generated_Source\PSoC5/InjectionTimer_2.c ****             CY_SET_REG8(InjectionTimer_2_DEADBAND_COUNT_PTR, deadtime);
 617:Generated_Source\PSoC5/InjectionTimer_2.c ****         #else
 618:Generated_Source\PSoC5/InjectionTimer_2.c ****             /* Otherwise the data has to be masked and offset */
 619:Generated_Source\PSoC5/InjectionTimer_2.c ****             /* Clear existing data */
 620:Generated_Source\PSoC5/InjectionTimer_2.c ****             InjectionTimer_2_DEADBAND_COUNT &= ((uint8)(~InjectionTimer_2_DEADBAND_COUNT_MASK));
 621:Generated_Source\PSoC5/InjectionTimer_2.c **** 
 622:Generated_Source\PSoC5/InjectionTimer_2.c ****             /* Set new dead time */
 623:Generated_Source\PSoC5/InjectionTimer_2.c ****             #if(InjectionTimer_2_DEADBAND_COUNT_SHIFT)
 624:Generated_Source\PSoC5/InjectionTimer_2.c ****                 InjectionTimer_2_DEADBAND_COUNT |= ((uint8)((uint8)deadtime << InjectionTimer_2_DEA
 625:Generated_Source\PSoC5/InjectionTimer_2.c ****                                                     InjectionTimer_2_DEADBAND_COUNT_MASK;
ARM GAS  C:\Users\Bruger\AppData\Local\Temp\cclE5rXE.s 			page 59


 626:Generated_Source\PSoC5/InjectionTimer_2.c ****             #else
 627:Generated_Source\PSoC5/InjectionTimer_2.c ****                 InjectionTimer_2_DEADBAND_COUNT |= deadtime & InjectionTimer_2_DEADBAND_COUNT_MASK;
 628:Generated_Source\PSoC5/InjectionTimer_2.c ****             #endif /* (InjectionTimer_2_DEADBAND_COUNT_SHIFT) */
 629:Generated_Source\PSoC5/InjectionTimer_2.c **** 
 630:Generated_Source\PSoC5/InjectionTimer_2.c ****         #endif /* (!InjectionTimer_2_DeadBand2_4) */
 631:Generated_Source\PSoC5/InjectionTimer_2.c ****     }
 632:Generated_Source\PSoC5/InjectionTimer_2.c **** 
 633:Generated_Source\PSoC5/InjectionTimer_2.c **** 
 634:Generated_Source\PSoC5/InjectionTimer_2.c ****     /*******************************************************************************
 635:Generated_Source\PSoC5/InjectionTimer_2.c ****     * Function Name: InjectionTimer_2_ReadDeadTime
 636:Generated_Source\PSoC5/InjectionTimer_2.c ****     ********************************************************************************
 637:Generated_Source\PSoC5/InjectionTimer_2.c ****     *
 638:Generated_Source\PSoC5/InjectionTimer_2.c ****     * Summary:
 639:Generated_Source\PSoC5/InjectionTimer_2.c ****     *  This function reads the dead-band counts from the corresponding register
 640:Generated_Source\PSoC5/InjectionTimer_2.c ****     *
 641:Generated_Source\PSoC5/InjectionTimer_2.c ****     * Parameters:
 642:Generated_Source\PSoC5/InjectionTimer_2.c ****     *  None
 643:Generated_Source\PSoC5/InjectionTimer_2.c ****     *
 644:Generated_Source\PSoC5/InjectionTimer_2.c ****     * Return:
 645:Generated_Source\PSoC5/InjectionTimer_2.c ****     *  Dead Band Counts
 646:Generated_Source\PSoC5/InjectionTimer_2.c ****     *
 647:Generated_Source\PSoC5/InjectionTimer_2.c ****     *******************************************************************************/
 648:Generated_Source\PSoC5/InjectionTimer_2.c ****     uint8 InjectionTimer_2_ReadDeadTime(void) 
 649:Generated_Source\PSoC5/InjectionTimer_2.c ****     {
 650:Generated_Source\PSoC5/InjectionTimer_2.c ****         /* If using the Dead Band 1-255 mode then just read the register */
 651:Generated_Source\PSoC5/InjectionTimer_2.c ****         #if(!InjectionTimer_2_DeadBand2_4)
 652:Generated_Source\PSoC5/InjectionTimer_2.c ****             return (CY_GET_REG8(InjectionTimer_2_DEADBAND_COUNT_PTR));
 653:Generated_Source\PSoC5/InjectionTimer_2.c ****         #else
 654:Generated_Source\PSoC5/InjectionTimer_2.c **** 
 655:Generated_Source\PSoC5/InjectionTimer_2.c ****             /* Otherwise the data has to be masked and offset */
 656:Generated_Source\PSoC5/InjectionTimer_2.c ****             #if(InjectionTimer_2_DEADBAND_COUNT_SHIFT)
 657:Generated_Source\PSoC5/InjectionTimer_2.c ****                 return ((uint8)(((uint8)(InjectionTimer_2_DEADBAND_COUNT & InjectionTimer_2_DEADBAN
 658:Generated_Source\PSoC5/InjectionTimer_2.c ****                                                                            InjectionTimer_2_DEADBAN
 659:Generated_Source\PSoC5/InjectionTimer_2.c ****             #else
 660:Generated_Source\PSoC5/InjectionTimer_2.c ****                 return (InjectionTimer_2_DEADBAND_COUNT & InjectionTimer_2_DEADBAND_COUNT_MASK);
 661:Generated_Source\PSoC5/InjectionTimer_2.c ****             #endif /* (InjectionTimer_2_DEADBAND_COUNT_SHIFT) */
 662:Generated_Source\PSoC5/InjectionTimer_2.c ****         #endif /* (!InjectionTimer_2_DeadBand2_4) */
 663:Generated_Source\PSoC5/InjectionTimer_2.c ****     }
 664:Generated_Source\PSoC5/InjectionTimer_2.c **** #endif /* DeadBandUsed */
 665:Generated_Source\PSoC5/InjectionTimer_2.c **** 
 666:Generated_Source\PSoC5/InjectionTimer_2.c **** #if (InjectionTimer_2_UseStatus || InjectionTimer_2_UsingFixedFunction)
 667:Generated_Source\PSoC5/InjectionTimer_2.c **** 
 668:Generated_Source\PSoC5/InjectionTimer_2.c **** 
 669:Generated_Source\PSoC5/InjectionTimer_2.c ****     /*******************************************************************************
 670:Generated_Source\PSoC5/InjectionTimer_2.c ****     * Function Name: InjectionTimer_2_SetInterruptMode
 671:Generated_Source\PSoC5/InjectionTimer_2.c ****     ********************************************************************************
 672:Generated_Source\PSoC5/InjectionTimer_2.c ****     *
 673:Generated_Source\PSoC5/InjectionTimer_2.c ****     * Summary:
 674:Generated_Source\PSoC5/InjectionTimer_2.c ****     *  This function configures the interrupts mask control of theinterrupt
 675:Generated_Source\PSoC5/InjectionTimer_2.c ****     *  source status register.
 676:Generated_Source\PSoC5/InjectionTimer_2.c ****     *
 677:Generated_Source\PSoC5/InjectionTimer_2.c ****     * Parameters:
 678:Generated_Source\PSoC5/InjectionTimer_2.c ****     *  uint8 interruptMode: Bit field containing the interrupt sources enabled
 679:Generated_Source\PSoC5/InjectionTimer_2.c ****     *
 680:Generated_Source\PSoC5/InjectionTimer_2.c ****     * Return:
 681:Generated_Source\PSoC5/InjectionTimer_2.c ****     *  None
 682:Generated_Source\PSoC5/InjectionTimer_2.c ****     *
ARM GAS  C:\Users\Bruger\AppData\Local\Temp\cclE5rXE.s 			page 60


 683:Generated_Source\PSoC5/InjectionTimer_2.c ****     *******************************************************************************/
 684:Generated_Source\PSoC5/InjectionTimer_2.c ****     void InjectionTimer_2_SetInterruptMode(uint8 interruptMode) 
 685:Generated_Source\PSoC5/InjectionTimer_2.c ****     {
 686:Generated_Source\PSoC5/InjectionTimer_2.c ****         CY_SET_REG8(InjectionTimer_2_STATUS_MASK_PTR, interruptMode);
 712              		.loc 1 686 0
 713 0052 00F80F3C 		strb	r3, [r0, #-15]
 714              	.LBE59:
 715              	.LBE58:
 167:Generated_Source\PSoC5/InjectionTimer_2.c ****             /* Use the interrupt output of the status register for IRQ output */
 716              		.loc 1 167 0
 717 0056 FFF7FEFF 		bl	CyEnterCriticalSection
 718              	.LVL6:
 169:Generated_Source\PSoC5/InjectionTimer_2.c **** 
 719              		.loc 1 169 0
 720 005a 2B78     		ldrb	r3, [r5]	@ zero_extendqisi2
 721 005c 43F01003 		orr	r3, r3, #16
 722 0060 2B70     		strb	r3, [r5]
 172:Generated_Source\PSoC5/InjectionTimer_2.c **** 
 723              		.loc 1 172 0
 724 0062 FFF7FEFF 		bl	CyExitCriticalSection
 725              	.LVL7:
 726              	.LBB60:
 727              	.LBB61:
 728              	.LBB62:
 729              	.LBB63:
 687:Generated_Source\PSoC5/InjectionTimer_2.c ****     }
 688:Generated_Source\PSoC5/InjectionTimer_2.c **** 
 689:Generated_Source\PSoC5/InjectionTimer_2.c **** 
 690:Generated_Source\PSoC5/InjectionTimer_2.c ****     /*******************************************************************************
 691:Generated_Source\PSoC5/InjectionTimer_2.c ****     * Function Name: InjectionTimer_2_ReadStatusRegister
 692:Generated_Source\PSoC5/InjectionTimer_2.c ****     ********************************************************************************
 693:Generated_Source\PSoC5/InjectionTimer_2.c ****     *
 694:Generated_Source\PSoC5/InjectionTimer_2.c ****     * Summary:
 695:Generated_Source\PSoC5/InjectionTimer_2.c ****     *  This function returns the current state of the status register.
 696:Generated_Source\PSoC5/InjectionTimer_2.c ****     *
 697:Generated_Source\PSoC5/InjectionTimer_2.c ****     * Parameters:
 698:Generated_Source\PSoC5/InjectionTimer_2.c ****     *  None
 699:Generated_Source\PSoC5/InjectionTimer_2.c ****     *
 700:Generated_Source\PSoC5/InjectionTimer_2.c ****     * Return:
 701:Generated_Source\PSoC5/InjectionTimer_2.c ****     *  uint8 : Current status register value. The status register bits are:
 702:Generated_Source\PSoC5/InjectionTimer_2.c ****     *  [7:6] : Unused(0)
 703:Generated_Source\PSoC5/InjectionTimer_2.c ****     *  [5]   : Kill event output
 704:Generated_Source\PSoC5/InjectionTimer_2.c ****     *  [4]   : FIFO not empty
 705:Generated_Source\PSoC5/InjectionTimer_2.c ****     *  [3]   : FIFO full
 706:Generated_Source\PSoC5/InjectionTimer_2.c ****     *  [2]   : Terminal count
 707:Generated_Source\PSoC5/InjectionTimer_2.c ****     *  [1]   : Compare output 2
 708:Generated_Source\PSoC5/InjectionTimer_2.c ****     *  [0]   : Compare output 1
 709:Generated_Source\PSoC5/InjectionTimer_2.c ****     *
 710:Generated_Source\PSoC5/InjectionTimer_2.c ****     *******************************************************************************/
 711:Generated_Source\PSoC5/InjectionTimer_2.c ****     uint8 InjectionTimer_2_ReadStatusRegister(void) 
 712:Generated_Source\PSoC5/InjectionTimer_2.c ****     {
 713:Generated_Source\PSoC5/InjectionTimer_2.c ****         return (CY_GET_REG8(InjectionTimer_2_STATUS_PTR));
 730              		.loc 1 713 0
 731 0066 0A4A     		ldr	r2, .L13+16
 732 0068 1378     		ldrb	r3, [r2]	@ zero_extendqisi2
 733              	.LBE63:
 734              	.LBE62:
ARM GAS  C:\Users\Bruger\AppData\Local\Temp\cclE5rXE.s 			page 61


 455:Generated_Source\PSoC5/InjectionTimer_2.c ****             {
 735              		.loc 1 455 0
 736 006a D906     		lsls	r1, r3, #27
 737 006c 04D5     		bpl	.L3
 738              	.LBB65:
 739              	.LBB66:
 714:Generated_Source\PSoC5/InjectionTimer_2.c ****     }
 715:Generated_Source\PSoC5/InjectionTimer_2.c **** 
 716:Generated_Source\PSoC5/InjectionTimer_2.c **** #endif /* (InjectionTimer_2_UseStatus || InjectionTimer_2_UsingFixedFunction) */
 717:Generated_Source\PSoC5/InjectionTimer_2.c **** 
 718:Generated_Source\PSoC5/InjectionTimer_2.c **** 
 719:Generated_Source\PSoC5/InjectionTimer_2.c **** #if (InjectionTimer_2_UseControl)
 720:Generated_Source\PSoC5/InjectionTimer_2.c **** 
 721:Generated_Source\PSoC5/InjectionTimer_2.c **** 
 722:Generated_Source\PSoC5/InjectionTimer_2.c ****     /*******************************************************************************
 723:Generated_Source\PSoC5/InjectionTimer_2.c ****     * Function Name: InjectionTimer_2_ReadControlRegister
 724:Generated_Source\PSoC5/InjectionTimer_2.c ****     ********************************************************************************
 725:Generated_Source\PSoC5/InjectionTimer_2.c ****     *
 726:Generated_Source\PSoC5/InjectionTimer_2.c ****     * Summary:
 727:Generated_Source\PSoC5/InjectionTimer_2.c ****     *  Returns the current state of the control register. This API is available
 728:Generated_Source\PSoC5/InjectionTimer_2.c ****     *  only if the control register is not removed.
 729:Generated_Source\PSoC5/InjectionTimer_2.c ****     *
 730:Generated_Source\PSoC5/InjectionTimer_2.c ****     * Parameters:
 731:Generated_Source\PSoC5/InjectionTimer_2.c ****     *  None
 732:Generated_Source\PSoC5/InjectionTimer_2.c ****     *
 733:Generated_Source\PSoC5/InjectionTimer_2.c ****     * Return:
 734:Generated_Source\PSoC5/InjectionTimer_2.c ****     *  uint8 : Current control register value
 735:Generated_Source\PSoC5/InjectionTimer_2.c ****     *
 736:Generated_Source\PSoC5/InjectionTimer_2.c ****     *******************************************************************************/
 737:Generated_Source\PSoC5/InjectionTimer_2.c ****     uint8 InjectionTimer_2_ReadControlRegister(void) 
 738:Generated_Source\PSoC5/InjectionTimer_2.c ****     {
 739:Generated_Source\PSoC5/InjectionTimer_2.c ****         uint8 result;
 740:Generated_Source\PSoC5/InjectionTimer_2.c **** 
 741:Generated_Source\PSoC5/InjectionTimer_2.c ****         result = CY_GET_REG8(InjectionTimer_2_CONTROL_PTR);
 742:Generated_Source\PSoC5/InjectionTimer_2.c ****         return (result);
 743:Generated_Source\PSoC5/InjectionTimer_2.c ****     }
 744:Generated_Source\PSoC5/InjectionTimer_2.c **** 
 745:Generated_Source\PSoC5/InjectionTimer_2.c **** 
 746:Generated_Source\PSoC5/InjectionTimer_2.c ****     /*******************************************************************************
 747:Generated_Source\PSoC5/InjectionTimer_2.c ****     * Function Name: InjectionTimer_2_WriteControlRegister
 748:Generated_Source\PSoC5/InjectionTimer_2.c ****     ********************************************************************************
 749:Generated_Source\PSoC5/InjectionTimer_2.c ****     *
 750:Generated_Source\PSoC5/InjectionTimer_2.c ****     * Summary:
 751:Generated_Source\PSoC5/InjectionTimer_2.c ****     *  Sets the bit field of the control register. This API is available only if
 752:Generated_Source\PSoC5/InjectionTimer_2.c ****     *  the control register is not removed.
 753:Generated_Source\PSoC5/InjectionTimer_2.c ****     *
 754:Generated_Source\PSoC5/InjectionTimer_2.c ****     * Parameters:
 755:Generated_Source\PSoC5/InjectionTimer_2.c ****     *  uint8 control: Control register bit field, The status register bits are:
 756:Generated_Source\PSoC5/InjectionTimer_2.c ****     *  [7]   : PWM Enable
 757:Generated_Source\PSoC5/InjectionTimer_2.c ****     *  [6]   : Reset
 758:Generated_Source\PSoC5/InjectionTimer_2.c ****     *  [5:3] : Compare Mode2
 759:Generated_Source\PSoC5/InjectionTimer_2.c ****     *  [2:0] : Compare Mode2
 760:Generated_Source\PSoC5/InjectionTimer_2.c ****     *
 761:Generated_Source\PSoC5/InjectionTimer_2.c ****     * Return:
 762:Generated_Source\PSoC5/InjectionTimer_2.c ****     *  None
 763:Generated_Source\PSoC5/InjectionTimer_2.c ****     *
 764:Generated_Source\PSoC5/InjectionTimer_2.c ****     *******************************************************************************/
ARM GAS  C:\Users\Bruger\AppData\Local\Temp\cclE5rXE.s 			page 62


 765:Generated_Source\PSoC5/InjectionTimer_2.c ****     void InjectionTimer_2_WriteControlRegister(uint8 control) 
 766:Generated_Source\PSoC5/InjectionTimer_2.c ****     {
 767:Generated_Source\PSoC5/InjectionTimer_2.c ****         CY_SET_REG8(InjectionTimer_2_CONTROL_PTR, control);
 768:Generated_Source\PSoC5/InjectionTimer_2.c ****     }
 769:Generated_Source\PSoC5/InjectionTimer_2.c **** 
 770:Generated_Source\PSoC5/InjectionTimer_2.c **** #endif /* (InjectionTimer_2_UseControl) */
 771:Generated_Source\PSoC5/InjectionTimer_2.c **** 
 772:Generated_Source\PSoC5/InjectionTimer_2.c **** 
 773:Generated_Source\PSoC5/InjectionTimer_2.c **** #if (!InjectionTimer_2_UsingFixedFunction)
 774:Generated_Source\PSoC5/InjectionTimer_2.c **** 
 775:Generated_Source\PSoC5/InjectionTimer_2.c **** 
 776:Generated_Source\PSoC5/InjectionTimer_2.c ****     /*******************************************************************************
 777:Generated_Source\PSoC5/InjectionTimer_2.c ****     * Function Name: InjectionTimer_2_ReadCapture
 778:Generated_Source\PSoC5/InjectionTimer_2.c ****     ********************************************************************************
 779:Generated_Source\PSoC5/InjectionTimer_2.c ****     *
 780:Generated_Source\PSoC5/InjectionTimer_2.c ****     * Summary:
 781:Generated_Source\PSoC5/InjectionTimer_2.c ****     *  Reads the capture value from the capture FIFO.
 782:Generated_Source\PSoC5/InjectionTimer_2.c ****     *
 783:Generated_Source\PSoC5/InjectionTimer_2.c ****     * Parameters:
 784:Generated_Source\PSoC5/InjectionTimer_2.c ****     *  None
 785:Generated_Source\PSoC5/InjectionTimer_2.c ****     *
 786:Generated_Source\PSoC5/InjectionTimer_2.c ****     * Return:
 787:Generated_Source\PSoC5/InjectionTimer_2.c ****     *  uint8/uint16: The current capture value
 788:Generated_Source\PSoC5/InjectionTimer_2.c ****     *
 789:Generated_Source\PSoC5/InjectionTimer_2.c ****     *******************************************************************************/
 790:Generated_Source\PSoC5/InjectionTimer_2.c ****     uint16 InjectionTimer_2_ReadCapture(void) 
 791:Generated_Source\PSoC5/InjectionTimer_2.c ****     {
 792:Generated_Source\PSoC5/InjectionTimer_2.c ****         return (CY_GET_REG16(InjectionTimer_2_CAPTURE_LSB_PTR));
 740              		.loc 1 792 0
 741 006e 0949     		ldr	r1, .L13+20
 742              	.L7:
 743 0070 0B88     		ldrh	r3, [r1]
 744              	.LBE66:
 745              	.LBE65:
 746              	.LBB67:
 747              	.LBB64:
 713:Generated_Source\PSoC5/InjectionTimer_2.c ****     }
 748              		.loc 1 713 0
 749 0072 1378     		ldrb	r3, [r2]	@ zero_extendqisi2
 750              	.LBE64:
 751              	.LBE67:
 455:Generated_Source\PSoC5/InjectionTimer_2.c ****             {
 752              		.loc 1 455 0
 753 0074 DB06     		lsls	r3, r3, #27
 754 0076 FBD4     		bmi	.L7
 755              	.L3:
 756              	.LBE61:
 757              	.LBE60:
 758              	.LBE43:
 759              	.LBE42:
  61:Generated_Source\PSoC5/InjectionTimer_2.c ****     }
 760              		.loc 1 61 0
 761 0078 0123     		movs	r3, #1
 762 007a 2370     		strb	r3, [r4]
 763 007c C4E7     		b	.L2
 764              	.L14:
 765 007e 00BF     		.align	2
ARM GAS  C:\Users\Bruger\AppData\Local\Temp\cclE5rXE.s 			page 63


 766              	.L13:
 767 0080 00000000 		.word	.LANCHOR0
 768 0084 77650040 		.word	1073767799
 769 0088 98640040 		.word	1073767576
 770 008c 99640040 		.word	1073767577
 771 0090 69640040 		.word	1073767529
 772 0094 B0680040 		.word	1073768624
 773 0098 10680040 		.word	1073768464
 774 009c 90680040 		.word	1073768592
 775              		.cfi_endproc
 776              	.LFE0:
 777              		.size	InjectionTimer_2_Start, .-InjectionTimer_2_Start
 778              		.section	.text.InjectionTimer_2_Init,"ax",%progbits
 779              		.align	2
 780              		.global	InjectionTimer_2_Init
 781              		.thumb
 782              		.thumb_func
 783              		.type	InjectionTimer_2_Init, %function
 784              	InjectionTimer_2_Init:
 785              	.LFB1:
  85:Generated_Source\PSoC5/InjectionTimer_2.c ****     #if (InjectionTimer_2_UsingFixedFunction || InjectionTimer_2_UseControl)
 786              		.loc 1 85 0
 787              		.cfi_startproc
 788              		@ args = 0, pretend = 0, frame = 0
 789              		@ frame_needed = 0, uses_anonymous_args = 0
 790              	.LBB68:
 791              	.LBB69:
 406:Generated_Source\PSoC5/InjectionTimer_2.c ****     }
 792              		.loc 1 406 0
 793 0000 4AF6C872 		movw	r2, #45000
 794              	.LBE69:
 795              	.LBE68:
  85:Generated_Source\PSoC5/InjectionTimer_2.c ****     #if (InjectionTimer_2_UsingFixedFunction || InjectionTimer_2_UseControl)
 796              		.loc 1 85 0
 797 0004 F8B5     		push	{r3, r4, r5, r6, r7, lr}
 798              		.cfi_def_cfa_offset 24
 799              		.cfi_offset 3, -24
 800              		.cfi_offset 4, -20
 801              		.cfi_offset 5, -16
 802              		.cfi_offset 6, -12
 803              		.cfi_offset 7, -8
 804              		.cfi_offset 14, -4
 117:Generated_Source\PSoC5/InjectionTimer_2.c ****                 ((uint8)(~InjectionTimer_2_CTRL_CMPMODE1_MASK));
 805              		.loc 1 117 0
 806 0006 1848     		ldr	r0, .L24
 129:Generated_Source\PSoC5/InjectionTimer_2.c ****             InjectionTimer_2_AUX_CONTROLDP1 |= (InjectionTimer_2_AUX_CTRL_FIFO0_CLR);
 807              		.loc 1 129 0
 808 0008 1849     		ldr	r1, .L24+4
 117:Generated_Source\PSoC5/InjectionTimer_2.c ****                 ((uint8)(~InjectionTimer_2_CTRL_CMPMODE1_MASK));
 809              		.loc 1 117 0
 810 000a 0378     		ldrb	r3, [r0]	@ zero_extendqisi2
 811              	.LVL8:
 130:Generated_Source\PSoC5/InjectionTimer_2.c ****         #endif /* (InjectionTimer_2_Resolution == 8) */
 812              		.loc 1 130 0
 813 000c 184C     		ldr	r4, .L24+8
 117:Generated_Source\PSoC5/InjectionTimer_2.c ****                 ((uint8)(~InjectionTimer_2_CTRL_CMPMODE1_MASK));
 814              		.loc 1 117 0
ARM GAS  C:\Users\Bruger\AppData\Local\Temp\cclE5rXE.s 			page 64


 815 000e 03F0C003 		and	r3, r3, #192
 816              	.LVL9:
 119:Generated_Source\PSoC5/InjectionTimer_2.c ****                                    InjectionTimer_2_DEFAULT_COMPARE1_MODE;
 817              		.loc 1 119 0
 818 0012 43F00903 		orr	r3, r3, #9
 819 0016 0370     		strb	r3, [r0]
 129:Generated_Source\PSoC5/InjectionTimer_2.c ****             InjectionTimer_2_AUX_CONTROLDP1 |= (InjectionTimer_2_AUX_CTRL_FIFO0_CLR);
 820              		.loc 1 129 0
 821 0018 0B78     		ldrb	r3, [r1]	@ zero_extendqisi2
 822              	.LBB72:
 823              	.LBB70:
 406:Generated_Source\PSoC5/InjectionTimer_2.c ****     }
 824              		.loc 1 406 0
 825 001a DFF868E0 		ldr	lr, .L24+28
 826              	.LBE70:
 827              	.LBE72:
 129:Generated_Source\PSoC5/InjectionTimer_2.c ****             InjectionTimer_2_AUX_CONTROLDP1 |= (InjectionTimer_2_AUX_CTRL_FIFO0_CLR);
 828              		.loc 1 129 0
 829 001e 43F00103 		orr	r3, r3, #1
 830 0022 0B70     		strb	r3, [r1]
 130:Generated_Source\PSoC5/InjectionTimer_2.c ****         #endif /* (InjectionTimer_2_Resolution == 8) */
 831              		.loc 1 130 0
 832 0024 2378     		ldrb	r3, [r4]	@ zero_extendqisi2
 833              	.LBB73:
 834              	.LBB74:
 487:Generated_Source\PSoC5/InjectionTimer_2.c ****     #endif /* (InjectionTimer_2_UsingFixedFunction) */
 835              		.loc 1 487 0
 836 0026 134F     		ldr	r7, .L24+12
 837              	.LBE74:
 838              	.LBE73:
 839              	.LBB76:
 840              	.LBB77:
 522:Generated_Source\PSoC5/InjectionTimer_2.c ****         #endif /* (InjectionTimer_2_UsingFixedFunction) */
 841              		.loc 1 522 0
 842 0028 134D     		ldr	r5, .L24+16
 843              	.LBE77:
 844              	.LBE76:
 130:Generated_Source\PSoC5/InjectionTimer_2.c ****         #endif /* (InjectionTimer_2_Resolution == 8) */
 845              		.loc 1 130 0
 846 002a 43F00103 		orr	r3, r3, #1
 847              	.LBB80:
 848              	.LBB81:
 686:Generated_Source\PSoC5/InjectionTimer_2.c ****     }
 849              		.loc 1 686 0
 850 002e 0020     		movs	r0, #0
 851              	.LBE81:
 852              	.LBE80:
 853              	.LBB83:
 854              	.LBB78:
 522:Generated_Source\PSoC5/InjectionTimer_2.c ****         #endif /* (InjectionTimer_2_UsingFixedFunction) */
 855              		.loc 1 522 0
 856 0030 4FF4FA46 		mov	r6, #32000
 857              	.LBE78:
 858              	.LBE83:
 130:Generated_Source\PSoC5/InjectionTimer_2.c ****         #endif /* (InjectionTimer_2_Resolution == 8) */
 859              		.loc 1 130 0
 860 0034 2370     		strb	r3, [r4]
ARM GAS  C:\Users\Bruger\AppData\Local\Temp\cclE5rXE.s 			page 65


 861              	.LVL10:
 862              	.LBB84:
 863              	.LBB71:
 406:Generated_Source\PSoC5/InjectionTimer_2.c ****     }
 864              		.loc 1 406 0
 865 0036 AEF80020 		strh	r2, [lr]	@ movhi
 866              	.LVL11:
 867              	.LBE71:
 868              	.LBE84:
 869              	.LBB85:
 870              	.LBB75:
 487:Generated_Source\PSoC5/InjectionTimer_2.c ****     #endif /* (InjectionTimer_2_UsingFixedFunction) */
 871              		.loc 1 487 0
 872 003a 3A80     		strh	r2, [r7]	@ movhi
 873              	.LVL12:
 874              	.LBE75:
 875              	.LBE85:
 876              	.LBB86:
 877              	.LBB79:
 522:Generated_Source\PSoC5/InjectionTimer_2.c ****         #endif /* (InjectionTimer_2_UsingFixedFunction) */
 878              		.loc 1 522 0
 879 003c 2E80     		strh	r6, [r5]	@ movhi
 880              	.LVL13:
 881              	.LBE79:
 882              	.LBE86:
 883              	.LBB87:
 884              	.LBB82:
 686:Generated_Source\PSoC5/InjectionTimer_2.c ****     }
 885              		.loc 1 686 0
 886 003e 01F80F0C 		strb	r0, [r1, #-15]
 887              	.LBE82:
 888              	.LBE87:
 167:Generated_Source\PSoC5/InjectionTimer_2.c ****             /* Use the interrupt output of the status register for IRQ output */
 889              		.loc 1 167 0
 890 0042 FFF7FEFF 		bl	CyEnterCriticalSection
 891              	.LVL14:
 169:Generated_Source\PSoC5/InjectionTimer_2.c **** 
 892              		.loc 1 169 0
 893 0046 2378     		ldrb	r3, [r4]	@ zero_extendqisi2
 894 0048 43F01003 		orr	r3, r3, #16
 895 004c 2370     		strb	r3, [r4]
 172:Generated_Source\PSoC5/InjectionTimer_2.c **** 
 896              		.loc 1 172 0
 897 004e FFF7FEFF 		bl	CyExitCriticalSection
 898              	.LVL15:
 899              	.LBB88:
 900              	.LBB89:
 901              	.LBB90:
 902              	.LBB91:
 713:Generated_Source\PSoC5/InjectionTimer_2.c ****     }
 903              		.loc 1 713 0
 904 0052 0A4A     		ldr	r2, .L24+20
 905 0054 1378     		ldrb	r3, [r2]	@ zero_extendqisi2
 906              	.LBE91:
 907              	.LBE90:
 455:Generated_Source\PSoC5/InjectionTimer_2.c ****             {
 908              		.loc 1 455 0
ARM GAS  C:\Users\Bruger\AppData\Local\Temp\cclE5rXE.s 			page 66


 909 0056 D906     		lsls	r1, r3, #27
 910 0058 04D5     		bpl	.L15
 911              	.LBB93:
 912              	.LBB94:
 913              		.loc 1 792 0
 914 005a 0949     		ldr	r1, .L24+24
 915              	.L20:
 916 005c 0B88     		ldrh	r3, [r1]
 917              	.LBE94:
 918              	.LBE93:
 919              	.LBB95:
 920              	.LBB92:
 713:Generated_Source\PSoC5/InjectionTimer_2.c ****     }
 921              		.loc 1 713 0
 922 005e 1378     		ldrb	r3, [r2]	@ zero_extendqisi2
 923              	.LBE92:
 924              	.LBE95:
 455:Generated_Source\PSoC5/InjectionTimer_2.c ****             {
 925              		.loc 1 455 0
 926 0060 DB06     		lsls	r3, r3, #27
 927 0062 FBD4     		bmi	.L20
 928              	.L15:
 929 0064 F8BD     		pop	{r3, r4, r5, r6, r7, pc}
 930              	.L25:
 931 0066 00BF     		.align	2
 932              	.L24:
 933 0068 77650040 		.word	1073767799
 934 006c 98640040 		.word	1073767576
 935 0070 99640040 		.word	1073767577
 936 0074 90680040 		.word	1073768592
 937 0078 50680040 		.word	1073768528
 938 007c 69640040 		.word	1073767529
 939 0080 B0680040 		.word	1073768624
 940 0084 10680040 		.word	1073768464
 941              	.LBE89:
 942              	.LBE88:
 943              		.cfi_endproc
 944              	.LFE1:
 945              		.size	InjectionTimer_2_Init, .-InjectionTimer_2_Init
 946              		.section	.text.InjectionTimer_2_Enable,"ax",%progbits
 947              		.align	2
 948              		.global	InjectionTimer_2_Enable
 949              		.thumb
 950              		.thumb_func
 951              		.type	InjectionTimer_2_Enable, %function
 952              	InjectionTimer_2_Enable:
 953              	.LFB2:
 200:Generated_Source\PSoC5/InjectionTimer_2.c ****     /* Globally Enable the Fixed Function Block chosen */
 954              		.loc 1 200 0
 955              		.cfi_startproc
 956              		@ args = 0, pretend = 0, frame = 0
 957              		@ frame_needed = 0, uses_anonymous_args = 0
 958              		@ link register save eliminated.
 209:Generated_Source\PSoC5/InjectionTimer_2.c ****     #endif /* (InjectionTimer_2_UseControl || InjectionTimer_2_UsingFixedFunction) */
 959              		.loc 1 209 0
 960 0000 024A     		ldr	r2, .L27
 961 0002 1378     		ldrb	r3, [r2]	@ zero_extendqisi2
ARM GAS  C:\Users\Bruger\AppData\Local\Temp\cclE5rXE.s 			page 67


 962 0004 43F08003 		orr	r3, r3, #128
 963 0008 1370     		strb	r3, [r2]
 964 000a 7047     		bx	lr
 965              	.L28:
 966              		.align	2
 967              	.L27:
 968 000c 77650040 		.word	1073767799
 969              		.cfi_endproc
 970              	.LFE2:
 971              		.size	InjectionTimer_2_Enable, .-InjectionTimer_2_Enable
 972              		.section	.text.InjectionTimer_2_Stop,"ax",%progbits
 973              		.align	2
 974              		.global	InjectionTimer_2_Stop
 975              		.thumb
 976              		.thumb_func
 977              		.type	InjectionTimer_2_Stop, %function
 978              	InjectionTimer_2_Stop:
 979              	.LFB3:
 234:Generated_Source\PSoC5/InjectionTimer_2.c ****     #if (InjectionTimer_2_UseControl || InjectionTimer_2_UsingFixedFunction)
 980              		.loc 1 234 0
 981              		.cfi_startproc
 982              		@ args = 0, pretend = 0, frame = 0
 983              		@ frame_needed = 0, uses_anonymous_args = 0
 984              		@ link register save eliminated.
 236:Generated_Source\PSoC5/InjectionTimer_2.c ****     #endif /* (InjectionTimer_2_UseControl || InjectionTimer_2_UsingFixedFunction) */
 985              		.loc 1 236 0
 986 0000 024A     		ldr	r2, .L30
 987 0002 1378     		ldrb	r3, [r2]	@ zero_extendqisi2
 988 0004 03F07F03 		and	r3, r3, #127
 989 0008 1370     		strb	r3, [r2]
 990 000a 7047     		bx	lr
 991              	.L31:
 992              		.align	2
 993              	.L30:
 994 000c 77650040 		.word	1073767799
 995              		.cfi_endproc
 996              	.LFE3:
 997              		.size	InjectionTimer_2_Stop, .-InjectionTimer_2_Stop
 998              		.section	.text.InjectionTimer_2_WriteCounter,"ax",%progbits
 999              		.align	2
 1000              		.global	InjectionTimer_2_WriteCounter
 1001              		.thumb
 1002              		.thumb_func
 1003              		.type	InjectionTimer_2_WriteCounter, %function
 1004              	InjectionTimer_2_WriteCounter:
 1005              	.LFB4:
 405:Generated_Source\PSoC5/InjectionTimer_2.c ****         CY_SET_REG16(InjectionTimer_2_COUNTER_LSB_PTR, counter);
 1006              		.loc 1 405 0
 1007              		.cfi_startproc
 1008              		@ args = 0, pretend = 0, frame = 0
 1009              		@ frame_needed = 0, uses_anonymous_args = 0
 1010              		@ link register save eliminated.
 1011              	.LVL16:
 406:Generated_Source\PSoC5/InjectionTimer_2.c ****     }
 1012              		.loc 1 406 0
 1013 0000 014B     		ldr	r3, .L33
 1014 0002 1880     		strh	r0, [r3]	@ movhi
ARM GAS  C:\Users\Bruger\AppData\Local\Temp\cclE5rXE.s 			page 68


 1015 0004 7047     		bx	lr
 1016              	.L34:
 1017 0006 00BF     		.align	2
 1018              	.L33:
 1019 0008 10680040 		.word	1073768464
 1020              		.cfi_endproc
 1021              	.LFE4:
 1022              		.size	InjectionTimer_2_WriteCounter, .-InjectionTimer_2_WriteCounter
 1023              		.section	.text.InjectionTimer_2_ReadCounter,"ax",%progbits
 1024              		.align	2
 1025              		.global	InjectionTimer_2_ReadCounter
 1026              		.thumb
 1027              		.thumb_func
 1028              		.type	InjectionTimer_2_ReadCounter, %function
 1029              	InjectionTimer_2_ReadCounter:
 1030              	.LFB5:
 426:Generated_Source\PSoC5/InjectionTimer_2.c ****         /* Force capture by reading Accumulator */
 1031              		.loc 1 426 0
 1032              		.cfi_startproc
 1033              		@ args = 0, pretend = 0, frame = 0
 1034              		@ frame_needed = 0, uses_anonymous_args = 0
 1035              		@ link register save eliminated.
 433:Generated_Source\PSoC5/InjectionTimer_2.c ****     }
 1036              		.loc 1 433 0
 1037 0000 024B     		ldr	r3, .L36
 430:Generated_Source\PSoC5/InjectionTimer_2.c **** 
 1038              		.loc 1 430 0
 1039 0002 034A     		ldr	r2, .L36+4
 1040 0004 1278     		ldrb	r2, [r2]	@ zero_extendqisi2
 433:Generated_Source\PSoC5/InjectionTimer_2.c ****     }
 1041              		.loc 1 433 0
 1042 0006 1888     		ldrh	r0, [r3]
 434:Generated_Source\PSoC5/InjectionTimer_2.c **** 
 1043              		.loc 1 434 0
 1044 0008 80B2     		uxth	r0, r0
 1045 000a 7047     		bx	lr
 1046              	.L37:
 1047              		.align	2
 1048              	.L36:
 1049 000c B0680040 		.word	1073768624
 1050 0010 18640040 		.word	1073767448
 1051              		.cfi_endproc
 1052              	.LFE5:
 1053              		.size	InjectionTimer_2_ReadCounter, .-InjectionTimer_2_ReadCounter
 1054              		.section	.text.InjectionTimer_2_ClearFIFO,"ax",%progbits
 1055              		.align	2
 1056              		.global	InjectionTimer_2_ClearFIFO
 1057              		.thumb
 1058              		.thumb_func
 1059              		.type	InjectionTimer_2_ClearFIFO, %function
 1060              	InjectionTimer_2_ClearFIFO:
 1061              	.LFB6:
 454:Generated_Source\PSoC5/InjectionTimer_2.c ****             while(0u != (InjectionTimer_2_ReadStatusRegister() & InjectionTimer_2_STATUS_FIFONEMPTY
 1062              		.loc 1 454 0
 1063              		.cfi_startproc
 1064              		@ args = 0, pretend = 0, frame = 0
 1065              		@ frame_needed = 0, uses_anonymous_args = 0
ARM GAS  C:\Users\Bruger\AppData\Local\Temp\cclE5rXE.s 			page 69


 1066              		@ link register save eliminated.
 1067              	.LBB96:
 1068              	.LBB97:
 713:Generated_Source\PSoC5/InjectionTimer_2.c ****     }
 1069              		.loc 1 713 0
 1070 0000 044A     		ldr	r2, .L46
 1071 0002 1378     		ldrb	r3, [r2]	@ zero_extendqisi2
 1072              	.LBE97:
 1073              	.LBE96:
 455:Generated_Source\PSoC5/InjectionTimer_2.c ****             {
 1074              		.loc 1 455 0
 1075 0004 D906     		lsls	r1, r3, #27
 1076 0006 04D5     		bpl	.L38
 1077              	.LBB99:
 1078              	.LBB100:
 1079              		.loc 1 792 0
 1080 0008 0349     		ldr	r1, .L46+4
 1081              	.L43:
 1082 000a 0B88     		ldrh	r3, [r1]
 1083              	.LBE100:
 1084              	.LBE99:
 1085              	.LBB101:
 1086              	.LBB98:
 713:Generated_Source\PSoC5/InjectionTimer_2.c ****     }
 1087              		.loc 1 713 0
 1088 000c 1378     		ldrb	r3, [r2]	@ zero_extendqisi2
 1089              	.LBE98:
 1090              	.LBE101:
 455:Generated_Source\PSoC5/InjectionTimer_2.c ****             {
 1091              		.loc 1 455 0
 1092 000e DB06     		lsls	r3, r3, #27
 1093 0010 FBD4     		bmi	.L43
 1094              	.L38:
 1095 0012 7047     		bx	lr
 1096              	.L47:
 1097              		.align	2
 1098              	.L46:
 1099 0014 69640040 		.word	1073767529
 1100 0018 B0680040 		.word	1073768624
 1101              		.cfi_endproc
 1102              	.LFE6:
 1103              		.size	InjectionTimer_2_ClearFIFO, .-InjectionTimer_2_ClearFIFO
 1104              		.section	.text.InjectionTimer_2_WritePeriod,"ax",%progbits
 1105              		.align	2
 1106              		.global	InjectionTimer_2_WritePeriod
 1107              		.thumb
 1108              		.thumb_func
 1109              		.type	InjectionTimer_2_WritePeriod, %function
 1110              	InjectionTimer_2_WritePeriod:
 1111              	.LFB7:
 483:Generated_Source\PSoC5/InjectionTimer_2.c ****     #if(InjectionTimer_2_UsingFixedFunction)
 1112              		.loc 1 483 0
 1113              		.cfi_startproc
 1114              		@ args = 0, pretend = 0, frame = 0
 1115              		@ frame_needed = 0, uses_anonymous_args = 0
 1116              		@ link register save eliminated.
 1117              	.LVL17:
ARM GAS  C:\Users\Bruger\AppData\Local\Temp\cclE5rXE.s 			page 70


 487:Generated_Source\PSoC5/InjectionTimer_2.c ****     #endif /* (InjectionTimer_2_UsingFixedFunction) */
 1118              		.loc 1 487 0
 1119 0000 014B     		ldr	r3, .L49
 1120 0002 1880     		strh	r0, [r3]	@ movhi
 1121 0004 7047     		bx	lr
 1122              	.L50:
 1123 0006 00BF     		.align	2
 1124              	.L49:
 1125 0008 90680040 		.word	1073768592
 1126              		.cfi_endproc
 1127              	.LFE7:
 1128              		.size	InjectionTimer_2_WritePeriod, .-InjectionTimer_2_WritePeriod
 1129              		.section	.text.InjectionTimer_2_WriteCompare,"ax",%progbits
 1130              		.align	2
 1131              		.global	InjectionTimer_2_WriteCompare
 1132              		.thumb
 1133              		.thumb_func
 1134              		.type	InjectionTimer_2_WriteCompare, %function
 1135              	InjectionTimer_2_WriteCompare:
 1136              	.LFB8:
 518:Generated_Source\PSoC5/InjectionTimer_2.c ****         #if(InjectionTimer_2_UsingFixedFunction)
 1137              		.loc 1 518 0
 1138              		.cfi_startproc
 1139              		@ args = 0, pretend = 0, frame = 0
 1140              		@ frame_needed = 0, uses_anonymous_args = 0
 1141              		@ link register save eliminated.
 1142              	.LVL18:
 522:Generated_Source\PSoC5/InjectionTimer_2.c ****         #endif /* (InjectionTimer_2_UsingFixedFunction) */
 1143              		.loc 1 522 0
 1144 0000 014B     		ldr	r3, .L52
 1145 0002 1880     		strh	r0, [r3]	@ movhi
 1146 0004 7047     		bx	lr
 1147              	.L53:
 1148 0006 00BF     		.align	2
 1149              	.L52:
 1150 0008 50680040 		.word	1073768528
 1151              		.cfi_endproc
 1152              	.LFE8:
 1153              		.size	InjectionTimer_2_WriteCompare, .-InjectionTimer_2_WriteCompare
 1154              		.section	.text.InjectionTimer_2_SetInterruptMode,"ax",%progbits
 1155              		.align	2
 1156              		.global	InjectionTimer_2_SetInterruptMode
 1157              		.thumb
 1158              		.thumb_func
 1159              		.type	InjectionTimer_2_SetInterruptMode, %function
 1160              	InjectionTimer_2_SetInterruptMode:
 1161              	.LFB9:
 685:Generated_Source\PSoC5/InjectionTimer_2.c ****         CY_SET_REG8(InjectionTimer_2_STATUS_MASK_PTR, interruptMode);
 1162              		.loc 1 685 0
 1163              		.cfi_startproc
 1164              		@ args = 0, pretend = 0, frame = 0
 1165              		@ frame_needed = 0, uses_anonymous_args = 0
 1166              		@ link register save eliminated.
 1167              	.LVL19:
 686:Generated_Source\PSoC5/InjectionTimer_2.c ****     }
 1168              		.loc 1 686 0
 1169 0000 014B     		ldr	r3, .L55
ARM GAS  C:\Users\Bruger\AppData\Local\Temp\cclE5rXE.s 			page 71


 1170 0002 1870     		strb	r0, [r3]
 1171 0004 7047     		bx	lr
 1172              	.L56:
 1173 0006 00BF     		.align	2
 1174              	.L55:
 1175 0008 89640040 		.word	1073767561
 1176              		.cfi_endproc
 1177              	.LFE9:
 1178              		.size	InjectionTimer_2_SetInterruptMode, .-InjectionTimer_2_SetInterruptMode
 1179              		.section	.text.InjectionTimer_2_ReadStatusRegister,"ax",%progbits
 1180              		.align	2
 1181              		.global	InjectionTimer_2_ReadStatusRegister
 1182              		.thumb
 1183              		.thumb_func
 1184              		.type	InjectionTimer_2_ReadStatusRegister, %function
 1185              	InjectionTimer_2_ReadStatusRegister:
 1186              	.LFB10:
 712:Generated_Source\PSoC5/InjectionTimer_2.c ****         return (CY_GET_REG8(InjectionTimer_2_STATUS_PTR));
 1187              		.loc 1 712 0
 1188              		.cfi_startproc
 1189              		@ args = 0, pretend = 0, frame = 0
 1190              		@ frame_needed = 0, uses_anonymous_args = 0
 1191              		@ link register save eliminated.
 713:Generated_Source\PSoC5/InjectionTimer_2.c ****     }
 1192              		.loc 1 713 0
 1193 0000 014B     		ldr	r3, .L58
 1194 0002 1878     		ldrb	r0, [r3]	@ zero_extendqisi2
 714:Generated_Source\PSoC5/InjectionTimer_2.c **** 
 1195              		.loc 1 714 0
 1196 0004 7047     		bx	lr
 1197              	.L59:
 1198 0006 00BF     		.align	2
 1199              	.L58:
 1200 0008 69640040 		.word	1073767529
 1201              		.cfi_endproc
 1202              	.LFE10:
 1203              		.size	InjectionTimer_2_ReadStatusRegister, .-InjectionTimer_2_ReadStatusRegister
 1204              		.section	.text.InjectionTimer_2_ReadControlRegister,"ax",%progbits
 1205              		.align	2
 1206              		.global	InjectionTimer_2_ReadControlRegister
 1207              		.thumb
 1208              		.thumb_func
 1209              		.type	InjectionTimer_2_ReadControlRegister, %function
 1210              	InjectionTimer_2_ReadControlRegister:
 1211              	.LFB11:
 738:Generated_Source\PSoC5/InjectionTimer_2.c ****         uint8 result;
 1212              		.loc 1 738 0
 1213              		.cfi_startproc
 1214              		@ args = 0, pretend = 0, frame = 0
 1215              		@ frame_needed = 0, uses_anonymous_args = 0
 1216              		@ link register save eliminated.
 741:Generated_Source\PSoC5/InjectionTimer_2.c ****         return (result);
 1217              		.loc 1 741 0
 1218 0000 014B     		ldr	r3, .L61
 1219 0002 1878     		ldrb	r0, [r3]	@ zero_extendqisi2
 1220              	.LVL20:
 743:Generated_Source\PSoC5/InjectionTimer_2.c **** 
ARM GAS  C:\Users\Bruger\AppData\Local\Temp\cclE5rXE.s 			page 72


 1221              		.loc 1 743 0
 1222 0004 7047     		bx	lr
 1223              	.L62:
 1224 0006 00BF     		.align	2
 1225              	.L61:
 1226 0008 77650040 		.word	1073767799
 1227              		.cfi_endproc
 1228              	.LFE11:
 1229              		.size	InjectionTimer_2_ReadControlRegister, .-InjectionTimer_2_ReadControlRegister
 1230              		.section	.text.InjectionTimer_2_WriteControlRegister,"ax",%progbits
 1231              		.align	2
 1232              		.global	InjectionTimer_2_WriteControlRegister
 1233              		.thumb
 1234              		.thumb_func
 1235              		.type	InjectionTimer_2_WriteControlRegister, %function
 1236              	InjectionTimer_2_WriteControlRegister:
 1237              	.LFB12:
 766:Generated_Source\PSoC5/InjectionTimer_2.c ****         CY_SET_REG8(InjectionTimer_2_CONTROL_PTR, control);
 1238              		.loc 1 766 0
 1239              		.cfi_startproc
 1240              		@ args = 0, pretend = 0, frame = 0
 1241              		@ frame_needed = 0, uses_anonymous_args = 0
 1242              		@ link register save eliminated.
 1243              	.LVL21:
 767:Generated_Source\PSoC5/InjectionTimer_2.c ****     }
 1244              		.loc 1 767 0
 1245 0000 014B     		ldr	r3, .L64
 1246 0002 1870     		strb	r0, [r3]
 1247 0004 7047     		bx	lr
 1248              	.L65:
 1249 0006 00BF     		.align	2
 1250              	.L64:
 1251 0008 77650040 		.word	1073767799
 1252              		.cfi_endproc
 1253              	.LFE12:
 1254              		.size	InjectionTimer_2_WriteControlRegister, .-InjectionTimer_2_WriteControlRegister
 1255              		.section	.text.InjectionTimer_2_ReadCapture,"ax",%progbits
 1256              		.align	2
 1257              		.global	InjectionTimer_2_ReadCapture
 1258              		.thumb
 1259              		.thumb_func
 1260              		.type	InjectionTimer_2_ReadCapture, %function
 1261              	InjectionTimer_2_ReadCapture:
 1262              	.LFB13:
 791:Generated_Source\PSoC5/InjectionTimer_2.c ****         return (CY_GET_REG16(InjectionTimer_2_CAPTURE_LSB_PTR));
 1263              		.loc 1 791 0
 1264              		.cfi_startproc
 1265              		@ args = 0, pretend = 0, frame = 0
 1266              		@ frame_needed = 0, uses_anonymous_args = 0
 1267              		@ link register save eliminated.
 1268              		.loc 1 792 0
 1269 0000 014B     		ldr	r3, .L67
 1270 0002 1888     		ldrh	r0, [r3]
 793:Generated_Source\PSoC5/InjectionTimer_2.c ****     }
 1271              		.loc 1 793 0
 1272 0004 80B2     		uxth	r0, r0
 1273 0006 7047     		bx	lr
ARM GAS  C:\Users\Bruger\AppData\Local\Temp\cclE5rXE.s 			page 73


 1274              	.L68:
 1275              		.align	2
 1276              	.L67:
 1277 0008 B0680040 		.word	1073768624
 1278              		.cfi_endproc
 1279              	.LFE13:
 1280              		.size	InjectionTimer_2_ReadCapture, .-InjectionTimer_2_ReadCapture
 1281              		.section	.text.InjectionTimer_2_ReadCompare,"ax",%progbits
 1282              		.align	2
 1283              		.global	InjectionTimer_2_ReadCompare
 1284              		.thumb
 1285              		.thumb_func
 1286              		.type	InjectionTimer_2_ReadCompare, %function
 1287              	InjectionTimer_2_ReadCompare:
 1288              	.LFB14:
 794:Generated_Source\PSoC5/InjectionTimer_2.c **** 
 795:Generated_Source\PSoC5/InjectionTimer_2.c **** #endif /* (!InjectionTimer_2_UsingFixedFunction) */
 796:Generated_Source\PSoC5/InjectionTimer_2.c **** 
 797:Generated_Source\PSoC5/InjectionTimer_2.c **** 
 798:Generated_Source\PSoC5/InjectionTimer_2.c **** #if (InjectionTimer_2_UseOneCompareMode)
 799:Generated_Source\PSoC5/InjectionTimer_2.c **** 
 800:Generated_Source\PSoC5/InjectionTimer_2.c **** 
 801:Generated_Source\PSoC5/InjectionTimer_2.c ****     /*******************************************************************************
 802:Generated_Source\PSoC5/InjectionTimer_2.c ****     * Function Name: InjectionTimer_2_ReadCompare
 803:Generated_Source\PSoC5/InjectionTimer_2.c ****     ********************************************************************************
 804:Generated_Source\PSoC5/InjectionTimer_2.c ****     *
 805:Generated_Source\PSoC5/InjectionTimer_2.c ****     * Summary:
 806:Generated_Source\PSoC5/InjectionTimer_2.c ****     *  Reads the compare value for the compare output when the PWM Mode parameter is
 807:Generated_Source\PSoC5/InjectionTimer_2.c ****     *  set to Dither mode, Center Aligned mode, or One Output mode.
 808:Generated_Source\PSoC5/InjectionTimer_2.c ****     *
 809:Generated_Source\PSoC5/InjectionTimer_2.c ****     * Parameters:
 810:Generated_Source\PSoC5/InjectionTimer_2.c ****     *  None
 811:Generated_Source\PSoC5/InjectionTimer_2.c ****     *
 812:Generated_Source\PSoC5/InjectionTimer_2.c ****     * Return:
 813:Generated_Source\PSoC5/InjectionTimer_2.c ****     *  uint8/uint16: Current compare value
 814:Generated_Source\PSoC5/InjectionTimer_2.c ****     *
 815:Generated_Source\PSoC5/InjectionTimer_2.c ****     *******************************************************************************/
 816:Generated_Source\PSoC5/InjectionTimer_2.c ****     uint16 InjectionTimer_2_ReadCompare(void) 
 817:Generated_Source\PSoC5/InjectionTimer_2.c ****     {
 1289              		.loc 1 817 0
 1290              		.cfi_startproc
 1291              		@ args = 0, pretend = 0, frame = 0
 1292              		@ frame_needed = 0, uses_anonymous_args = 0
 1293              		@ link register save eliminated.
 818:Generated_Source\PSoC5/InjectionTimer_2.c ****         #if(InjectionTimer_2_UsingFixedFunction)
 819:Generated_Source\PSoC5/InjectionTimer_2.c ****             return ((uint16)CY_GET_REG16(InjectionTimer_2_COMPARE1_LSB_PTR));
 820:Generated_Source\PSoC5/InjectionTimer_2.c ****         #else
 821:Generated_Source\PSoC5/InjectionTimer_2.c ****             return (CY_GET_REG16(InjectionTimer_2_COMPARE1_LSB_PTR));
 1294              		.loc 1 821 0
 1295 0000 014B     		ldr	r3, .L70
 1296 0002 1888     		ldrh	r0, [r3]
 822:Generated_Source\PSoC5/InjectionTimer_2.c ****         #endif /* (InjectionTimer_2_UsingFixedFunction) */
 823:Generated_Source\PSoC5/InjectionTimer_2.c ****     }
 1297              		.loc 1 823 0
 1298 0004 80B2     		uxth	r0, r0
 1299 0006 7047     		bx	lr
 1300              	.L71:
ARM GAS  C:\Users\Bruger\AppData\Local\Temp\cclE5rXE.s 			page 74


 1301              		.align	2
 1302              	.L70:
 1303 0008 50680040 		.word	1073768528
 1304              		.cfi_endproc
 1305              	.LFE14:
 1306              		.size	InjectionTimer_2_ReadCompare, .-InjectionTimer_2_ReadCompare
 1307              		.section	.text.InjectionTimer_2_ReadPeriod,"ax",%progbits
 1308              		.align	2
 1309              		.global	InjectionTimer_2_ReadPeriod
 1310              		.thumb
 1311              		.thumb_func
 1312              		.type	InjectionTimer_2_ReadPeriod, %function
 1313              	InjectionTimer_2_ReadPeriod:
 1314              	.LFB15:
 824:Generated_Source\PSoC5/InjectionTimer_2.c **** 
 825:Generated_Source\PSoC5/InjectionTimer_2.c **** #else
 826:Generated_Source\PSoC5/InjectionTimer_2.c **** 
 827:Generated_Source\PSoC5/InjectionTimer_2.c **** 
 828:Generated_Source\PSoC5/InjectionTimer_2.c ****     /*******************************************************************************
 829:Generated_Source\PSoC5/InjectionTimer_2.c ****     * Function Name: InjectionTimer_2_ReadCompare1
 830:Generated_Source\PSoC5/InjectionTimer_2.c ****     ********************************************************************************
 831:Generated_Source\PSoC5/InjectionTimer_2.c ****     *
 832:Generated_Source\PSoC5/InjectionTimer_2.c ****     * Summary:
 833:Generated_Source\PSoC5/InjectionTimer_2.c ****     *  Reads the compare value for the compare1 output.
 834:Generated_Source\PSoC5/InjectionTimer_2.c ****     *
 835:Generated_Source\PSoC5/InjectionTimer_2.c ****     * Parameters:
 836:Generated_Source\PSoC5/InjectionTimer_2.c ****     *  None
 837:Generated_Source\PSoC5/InjectionTimer_2.c ****     *
 838:Generated_Source\PSoC5/InjectionTimer_2.c ****     * Return:
 839:Generated_Source\PSoC5/InjectionTimer_2.c ****     *  uint8/uint16: Current compare value.
 840:Generated_Source\PSoC5/InjectionTimer_2.c ****     *
 841:Generated_Source\PSoC5/InjectionTimer_2.c ****     *******************************************************************************/
 842:Generated_Source\PSoC5/InjectionTimer_2.c ****     uint16 InjectionTimer_2_ReadCompare1(void) 
 843:Generated_Source\PSoC5/InjectionTimer_2.c ****     {
 844:Generated_Source\PSoC5/InjectionTimer_2.c ****         return (CY_GET_REG16(InjectionTimer_2_COMPARE1_LSB_PTR));
 845:Generated_Source\PSoC5/InjectionTimer_2.c ****     }
 846:Generated_Source\PSoC5/InjectionTimer_2.c **** 
 847:Generated_Source\PSoC5/InjectionTimer_2.c **** 
 848:Generated_Source\PSoC5/InjectionTimer_2.c ****     /*******************************************************************************
 849:Generated_Source\PSoC5/InjectionTimer_2.c ****     * Function Name: InjectionTimer_2_ReadCompare2
 850:Generated_Source\PSoC5/InjectionTimer_2.c ****     ********************************************************************************
 851:Generated_Source\PSoC5/InjectionTimer_2.c ****     *
 852:Generated_Source\PSoC5/InjectionTimer_2.c ****     * Summary:
 853:Generated_Source\PSoC5/InjectionTimer_2.c ****     *  Reads the compare value for the compare2 output.
 854:Generated_Source\PSoC5/InjectionTimer_2.c ****     *
 855:Generated_Source\PSoC5/InjectionTimer_2.c ****     * Parameters:
 856:Generated_Source\PSoC5/InjectionTimer_2.c ****     *  None
 857:Generated_Source\PSoC5/InjectionTimer_2.c ****     *
 858:Generated_Source\PSoC5/InjectionTimer_2.c ****     * Return:
 859:Generated_Source\PSoC5/InjectionTimer_2.c ****     *  uint8/uint16: Current compare value.
 860:Generated_Source\PSoC5/InjectionTimer_2.c ****     *
 861:Generated_Source\PSoC5/InjectionTimer_2.c ****     *******************************************************************************/
 862:Generated_Source\PSoC5/InjectionTimer_2.c ****     uint16 InjectionTimer_2_ReadCompare2(void) 
 863:Generated_Source\PSoC5/InjectionTimer_2.c ****     {
 864:Generated_Source\PSoC5/InjectionTimer_2.c ****         return (CY_GET_REG16(InjectionTimer_2_COMPARE2_LSB_PTR));
 865:Generated_Source\PSoC5/InjectionTimer_2.c ****     }
 866:Generated_Source\PSoC5/InjectionTimer_2.c **** 
ARM GAS  C:\Users\Bruger\AppData\Local\Temp\cclE5rXE.s 			page 75


 867:Generated_Source\PSoC5/InjectionTimer_2.c **** #endif /* (InjectionTimer_2_UseOneCompareMode) */
 868:Generated_Source\PSoC5/InjectionTimer_2.c **** 
 869:Generated_Source\PSoC5/InjectionTimer_2.c **** 
 870:Generated_Source\PSoC5/InjectionTimer_2.c **** /*******************************************************************************
 871:Generated_Source\PSoC5/InjectionTimer_2.c **** * Function Name: InjectionTimer_2_ReadPeriod
 872:Generated_Source\PSoC5/InjectionTimer_2.c **** ********************************************************************************
 873:Generated_Source\PSoC5/InjectionTimer_2.c **** *
 874:Generated_Source\PSoC5/InjectionTimer_2.c **** * Summary:
 875:Generated_Source\PSoC5/InjectionTimer_2.c **** *  Reads the period value used by the PWM hardware.
 876:Generated_Source\PSoC5/InjectionTimer_2.c **** *
 877:Generated_Source\PSoC5/InjectionTimer_2.c **** * Parameters:
 878:Generated_Source\PSoC5/InjectionTimer_2.c **** *  None
 879:Generated_Source\PSoC5/InjectionTimer_2.c **** *
 880:Generated_Source\PSoC5/InjectionTimer_2.c **** * Return:
 881:Generated_Source\PSoC5/InjectionTimer_2.c **** *  uint8/16: Period value
 882:Generated_Source\PSoC5/InjectionTimer_2.c **** *
 883:Generated_Source\PSoC5/InjectionTimer_2.c **** *******************************************************************************/
 884:Generated_Source\PSoC5/InjectionTimer_2.c **** uint16 InjectionTimer_2_ReadPeriod(void) 
 885:Generated_Source\PSoC5/InjectionTimer_2.c **** {
 1315              		.loc 1 885 0
 1316              		.cfi_startproc
 1317              		@ args = 0, pretend = 0, frame = 0
 1318              		@ frame_needed = 0, uses_anonymous_args = 0
 1319              		@ link register save eliminated.
 886:Generated_Source\PSoC5/InjectionTimer_2.c ****     #if(InjectionTimer_2_UsingFixedFunction)
 887:Generated_Source\PSoC5/InjectionTimer_2.c ****         return ((uint16)CY_GET_REG16(InjectionTimer_2_PERIOD_LSB_PTR));
 888:Generated_Source\PSoC5/InjectionTimer_2.c ****     #else
 889:Generated_Source\PSoC5/InjectionTimer_2.c ****         return (CY_GET_REG16(InjectionTimer_2_PERIOD_LSB_PTR));
 1320              		.loc 1 889 0
 1321 0000 014B     		ldr	r3, .L73
 1322 0002 1888     		ldrh	r0, [r3]
 890:Generated_Source\PSoC5/InjectionTimer_2.c ****     #endif /* (InjectionTimer_2_UsingFixedFunction) */
 891:Generated_Source\PSoC5/InjectionTimer_2.c **** }
 1323              		.loc 1 891 0
 1324 0004 80B2     		uxth	r0, r0
 1325 0006 7047     		bx	lr
 1326              	.L74:
 1327              		.align	2
 1328              	.L73:
 1329 0008 90680040 		.word	1073768592
 1330              		.cfi_endproc
 1331              	.LFE15:
 1332              		.size	InjectionTimer_2_ReadPeriod, .-InjectionTimer_2_ReadPeriod
 1333              		.global	InjectionTimer_2_initVar
 1334              		.bss
 1335              		.set	.LANCHOR0,. + 0
 1336              		.type	InjectionTimer_2_initVar, %object
 1337              		.size	InjectionTimer_2_initVar, 1
 1338              	InjectionTimer_2_initVar:
 1339 0000 00       		.space	1
 1340              		.text
 1341              	.Letext0:
 1342              		.file 2 "Generated_Source\\PSoC5\\cytypes.h"
 1343              		.file 3 "Generated_Source\\PSoC5\\CyLib.h"