ARM GAS  C:\Users\Bruger\AppData\Local\Temp\ccCCOI7S.s 			page 1


   1              		.syntax unified
   2              		.cpu cortex-m3
   3              		.fpu softvfp
   4              		.eabi_attribute 20, 1
   5              		.eabi_attribute 21, 1
   6              		.eabi_attribute 23, 3
   7              		.eabi_attribute 24, 1
   8              		.eabi_attribute 25, 1
   9              		.eabi_attribute 26, 1
  10              		.eabi_attribute 30, 4
  11              		.eabi_attribute 34, 1
  12              		.eabi_attribute 18, 4
  13              		.thumb
  14              		.file	"Injection_2_PM.c"
  15              		.text
  16              	.Ltext0:
  17              		.section	.gnu.lto_.profile.ecb83792,"",%progbits
  18 0000 789C6366 		.ascii	"x\234cf```e\200\000F\206\026F5\000\002>\000\265"
  18      60606065 
  18      80004686 
  18      16463500 
  18      023E00B5 
  19              		.text
  20              		.section	.gnu.lto_.jmpfuncs.ecb83792,"",%progbits
  21 0000 789C6366 		.ascii	"x\234cf\300\016\344\2404\013\204bb``\204!f\2048\000"
  21      C00EE4A0 
  21      340B8462 
  21      62606084 
  21      21668438 
  22 0015 067E0032 		.ascii	"\006~\0002"
  23              		.text
  24              		.section	.gnu.lto_.inline.ecb83792,"",%progbits
  25 0000 789C6366 		.ascii	"x\234cf\300\016\332\2404\013\003\003\237\006#\003\023"
  25      C00EDAA0 
  25      340B0303 
  25      9F062303 
  25      13
  26 0011 D7043F06 		.ascii	"\327\004?\006\266\005\362L 1&nT\002\273\012\306\011"
  26      B605F24C 
  26      2031266E 
  26      5402BB0A 
  26      C609
  27 0023 7EA81433 		.ascii	"~\250\0243\003\227\024H\335>;\270:F.\030\301\302\300"
  27      03971448 
  27      DD3E3BB8 
  27      3A462E18 
  27      C1C2C0
  28 0036 210C9464 		.ascii	"!\014\224d\373\240\207E\222\001\000C0\013{"
  28      FBA08745 
  28      92010043 
  28      300B7B
  29              		.text
  30              		.section	.gnu.lto_.pureconst.ecb83792,"",%progbits
  31 0000 789C6366 		.ascii	"x\234cf``\340d\200\000\026\006)&)f)\026\011\000\002"
  31      6060E064 
  31      80001606 
  31      29262966 
ARM GAS  C:\Users\Bruger\AppData\Local\Temp\ccCCOI7S.s 			page 2


  31      29160900 
  32 0015 CF0080   		.ascii	"\317\000\200"
  33              		.text
  34              		.section	.gnu.lto_Injection_2_SaveConfig.ecb83792,"",%progbits
  35 0000 789C9D92 		.ascii	"x\234\235\222OHTQ\024\306\317w\237=\237\276\204h9\373"
  35      4F485451 
  35      14C6CF77 
  35      9F3D9FBE 
  35      846839FB 
  36 0014 9808A645 		.ascii	"\230\010\246E\240\233\026.\202\242E0\340v`\210\351-"
  36      A09B162E 
  36      82A24530 
  36      E0766088 
  36      E92D
  37 0026 6C3103A2 		.ascii	"l1\003\242\313\301\367r\026\032d\223\213\012\314@!\262"
  37      CBC1F772 
  37      161A6493 
  37      8B0ACC40 
  37      21B2
  38 0038 66746AD4 		.ascii	"ftj\324\376.z\266\020\"0b A\302\010\306\310\225\332"
  38      FE2E7AB6 
  38      10223062 
  38      2041C208 
  38      C6C895DA 
  39 004c 44350CD3 		.ascii	"D5\014\323t\316}-l,!\037\334\177\357~\367|\277s\356"
  39      74CE7D2D 
  39      6C2C211F 
  39      DC7FEF7E 
  39      F77CBF73 
  40 0061 3568F717 		.ascii	"5h\367\027\342\366C\021\035\343\021\006Ae\227\211<K"
  40      E2F64311 
  40      1DE31106 
  40      41659789 
  40      3C4B
  41 0073 013221D0 		.ascii	"\0012!\320\240\302 6\324\266B\326\317\335\264\303w\\"
  41      A0C22036 
  41      D4B642D6 
  41      CFDDB4C3 
  41      775C
  42 0085 D7DD9A7A 		.ascii	"\327\335\232z\355E}T\371\\E\005qp\027ab\321v\246\276"
  42      ED457D54 
  42      F95C4505 
  42      71701761 
  42      62D176A6 
  43 009a 629B1916 		.ascii	"b\233\031\026\035\012\3660\015\023<\026\016\373n\243"
  43      1D0AF630 
  43      0D133C16 
  43      0EFB6EA3 
  44 00aa 519959BC 		.ascii	"Q\231Y\274nv\030TU0\245\263\270S\266tDenb\272\316\013"
  44      6E761854 
  44      5530A5B3 
  44      B853B674 
  44      44656E62 
  45 00c1 1E8DF718 		.ascii	"\036\215\367\030\362_pH\016\360]\031<\271]\032\235U"
  45      F25F7048 
  45      0EF05D19 
  45      3CB95D1A 
ARM GAS  C:\Users\Bruger\AppData\Local\Temp\ccCCOI7S.s 			page 3


  45      9D55
  46 00d3 E99A3BEC 		.ascii	"\351\232;\354ZUeT\024\207\305=\244\371t\013\255\342"
  46      5A556554 
  46      1487C53D 
  46      A4F9740B 
  46      ADE2
  47 00e5 D2D86444 		.ascii	"\322\330dD\264\315\302\003u\301\340\277\037\312o\336"
  47      B4CDC203 
  47      75C1E0BF 
  47      1FCA6FDE 
  48 00f5 5A9F15FF 		.ascii	"Z\237\025\377\321\313i/s\013\023\030\367\\Q\231\270"
  48      D1CB692F 
  48      730B1318 
  48      F75C5199 
  48      B8
  49 0106 8F347208 		.ascii	"\2174r\010\351\275\237\371\253E3\222\343,\374\356\252"
  49      E9BD9FF9 
  49      AB453392 
  49      E32CFCEE 
  49      AA
  50 0117 6A459E85 		.ascii	"jE\236\205_t\246\230A\204iH\340J\013\277\341vy2\034"
  50      5F74A698 
  50      41846948 
  50      E04A0BBF 
  50      E1767932 
  51 012c AB31BB03 		.ascii	"\2531\273\003\356\343\221=\341\232i\012\177\2479)4\017"
  51      EEE3913D 
  51      E19A690A 
  51      7FA73929 
  51      340F
  52 013e 348D1415 		.ascii	"4\215\024\025\017\205\306d\203\227\337.\257\275\353"
  52      0F85C664 
  52      8397DF2E 
  52      AFBDEB
  53 014d 08702C3E 		.ascii	"\010p,>\2639\261\364\265]\222\265\256\274\362\334\226"
  53      B339B1F4 
  53      B55D92B5 
  53      AEBCF2DC 
  53      96
  54 015e 3FF2B774 		.ascii	"?\362\267t\324\221O\3135C\0343|\221m(\"\20491\304<\207"
  54      D4914FCB 
  54      35431C33 
  54      7C916D28 
  54      22843931 
  55 0175 0F903BFF 		.ascii	"\017\220;\377\013y\341\237\005l\307#\215\254\337\303"
  55      0B79E19F 
  55      056CC723 
  55      8DACDFC3 
  56 0185 6341B674 		.ascii	"cA\266t\001\257-u\005\304v\263\211]\341\032\023\236"
  56      01AF2D75 
  56      05C476B3 
  56      895DE11A 
  56      139E
  57 0197 E8021EDC 		.ascii	"\350\002\036\334\017\315\323=h\236i\032Ch\236\013\215"
  57      0FCDD33D 
  57      689E691A 
  57      43689E0B 
ARM GAS  C:\Users\Bruger\AppData\Local\Temp\ccCCOI7S.s 			page 4


  57      8D
  58 01a8 4D6BF0FC 		.ascii	"Mk\360\374\033\247\305@.\271\314\305\345\027\310\221"
  58      1BA7C540 
  58      2EB9CCC5 
  58      E517C891 
  59 01b8 8F9E7192 		.ascii	"\217\236q\222N\337\371~\347B\274'5\320\227pb\321\236"
  59      4EDFF97E 
  59      E742BC27 
  59      35D09770 
  59      62D19E
  60 01cb D4A9CED8 		.ascii	"\324\251\316\330\331\344E'\321\337\233J\306O\304\243"
  60      D9E44527 
  60      D1DF9B4A 
  60      C64FC4A3 
  61 01db E78E27E8 		.ascii	"\347\216'\350\027^?\034\272"
  61      175E3F1C 
  61      BA
  62              		.text
  63              		.section	.gnu.lto_Injection_2_RestoreConfig.ecb83792,"",%progbits
  64 0000 789C8D92 		.ascii	"x\234\215\222\317K\024a\030\307\237\3573\3438\356\006"
  64      CF4B1461 
  64      18C79FEF 
  64      33E338EE 
  64      06
  65 0011 8627D97F 		.ascii	"\206'\331\177\300~\331!\350\342\265Ct\0106\274\012K"
  65      C07ED921 
  65      E8E2B543 
  65      740836BC 
  65      0A4B
  66 0023 AC73C8C3 		.ascii	"\254s\310\303.\210\035\027gd\205:h\352I(\273E\376\266"
  66      2E881D17 
  66      6764853A 
  66      68EA4928 
  66      BB45FEB6 
  67 0037 D5D2D4CB 		.ascii	"\325\322\324\313\322A\351b,\021\205\210\022i\344\311"
  67      D241E962 
  67      2C118588 
  67      1269E4C9 
  68 0047 B60D6410 		.ascii	"\266\015d\020\263\347y\207\016\332*\016\274\3173\317"
  68      B3E77987 
  68      0EDA2A0E 
  68      BCCF33CF 
  69 0057 FB7EE7FB 		.ascii	"\373~\347\373|x\346\265\350\377'!\353\033\023]\221\014"
  69      7C78E6B5 
  69      E8FF2721 
  69      EB1B135D 
  69      910C
  70 0069 8BC0036B 		.ascii	"\213\300\003kD\201\313\200\276\020\250\233\321\215]"
  70      4481CB80 
  70      BE10A89B 
  70      D18D5D
  71 0078 2E33068A 		.ascii	".3\006\212\023\303\361\246\027\276\357\377\354Yh\354"
  71      13C3F1A6 
  71      17BEEFFF 
  71      EC5968EC 
  72 0088 6D0CE5B3 		.ascii	"m\014\345\263\012G6x\211&\022M9\177\3709\356\344Es1"
  72      0A473678 
ARM GAS  C:\Users\Bruger\AppData\Local\Temp\ccCCOI7S.s 			page 5


  72      8926124D 
  72      397FF839 
  72      EEE44573 
  73 009d 3AC3281C 		.ascii	":\303(\034H\236i(\372GG\225\215\301/-\367bL!\303\326"
  73      489E6928 
  73      FA474795 
  73      8DC12F2D 
  73      F7624C21 
  74 00b3 E0486057 		.ascii	"\340H`W\003\321\266,m\272#\205dk\035=\363\205\315\301"
  74      03D1B62C 
  74      6DBA2385 
  74      646B1D3D 
  74      F385CDC1 
  75 00c7 1AB5D867 		.ascii	"\032\265\330g%x\376\261\177\232s\007\376#\337\015\331"
  75      2578FEB1 
  75      7F9A7307 
  75      FE23DF0D 
  75      D9
  76 00d8 3A547FD9 		.ascii	":T\177\331\335\332\376Pr\177\260\354\230r4\310?\303"
  76      DDDAFE50 
  76      727FB0EC 
  76      987234C8 
  76      3FC3
  77 00ea 089E06BE 		.ascii	"\010\236\006\276\252l\214!\207q$\314\331\237\311'\263"
  77      AA6C8C21 
  77      877124CC 
  77      D99FC927 
  77      B3
  78 00fb 4EF3D590 		.ascii	"N\363\325\220k0!\232_\206\036\223h\246\015\330\332\207"
  78      6B30219A 
  78      5F861E93 
  78      68A60DD8 
  78      DA87
  79 010d 4E76712A 		.ascii	"Nvq*,\370\230B\216\204!\344ZR\254\362V\311\212\260\354"
  79      2CF89842 
  79      8E8421E4 
  79      5A52ACF2 
  79      56C98AB0 
  80 0122 53B14E72 		.ascii	"S\261NrLW\347\2301\034:\"\274:\233C|Q0\034\366?\216"
  80      4C57E798 
  80      311C3A22 
  80      BC3A9B43 
  80      7C51301C 
  81 0139 C24EA93E 		.ascii	"\302N\251>\342p\316\3151[\215\303\305\234\3410\277\354"
  81      E270CECD 
  81      315B8DC3 
  81      C59CE130 
  81      BFEC
  82 014b B570ACE3 		.ascii	"\265p\254\343\335\320\327k\352-\262\275\221\225\337"
  82      DDD0D76B 
  82      EA2DB2BD 
  82      9195DF
  83 015a 319D705D 		.ascii	"1\235p]\337\373\300\267\217\015\275\316\030=\376\276"
  83      DFFBC0B7 
  83      8F0DBDCE 
  83      183DFEBE 
  84 016a 76606993 		.ascii	"v`i\223|P\274\034r\014o\220\300\274v\301\202\030\013"
ARM GAS  C:\Users\Bruger\AppData\Local\Temp\ccCCOI7S.s 			page 6


  84      7C50BC1C 
  84      720C6F90 
  84      C0BC76C1 
  84      82180B
  85 017d 9FE12DED 		.ascii	"\237\341-\355!\302u\317\215\373\266:\356\242\301\265"
  85      21C275CF 
  85      8DFBB63A 
  85      EEA2C1B5 
  86 018d 1477E98C 		.ascii	"\024w\351\214\261\305+\252\301\262\031\233\324\027h"
  86      B1C52BAA 
  86      C1B2199B 
  86      D41768
  87 019c 1341F1D3 		.ascii	"\023A\361\323*\0335\351\245\203^6i~\351\266\227\361"
  87      2A1B35E9 
  87      A5835E36 
  87      697EE9B6 
  87      97F1
  88 01ae 3AEF7779 		.ascii	":\357wy\355\251\326\354\303\316\264\327\226l\315\336"
  88      EDA9D6EC 
  88      C3CEB4D7 
  88      966CCDDE 
  89 01be BAD97627 		.ascii	"\272\331v'\323\341\245\273\036d3\251\033\251\344\335"
  89      D3E1A5BB 
  89      1E6433A9 
  89      1BA9E4DD 
  90 01ce EB69FA0B 		.ascii	"\353i\372\013\240\012\015\313"
  90      A00A0DCB 
  91              		.text
  92              		.section	.gnu.lto_Injection_2_Sleep.ecb83792,"",%progbits
  93 0000 789C8592 		.ascii	"x\234\205\222\317k\023A\024\307\337\367\355\354&m\244"
  93      CF6B1341 
  93      14C7DFF7 
  93      EDEC266D 
  93      A4
  94 0011 8AA7D27F 		.ascii	"\212\247\322\177\240\"TA\360(9x\020\005\241\320k!H\334"
  94      A0225441 
  94      F0283978 
  94      1005A1D0 
  94      6B2148DC 
  95 0025 831E1229 		.ascii	"\203\036\022)\365\030:\233\254X<h)\010\301_'\265\255"
  95      F5183A9B 
  95      AC583C68 
  95      2908C15F 
  95      27B5AD
  96 0038 A96DAC56 		.ascii	"\251m\254V\217.\236D\212\245\324*\024\211\227\024\364"
  96      8F2E9E44 
  96      8AA5D42A 
  96      14899714 
  96      F4
  97 0049 963450BB 		.ascii	"\2264P\273H\254ov\243\226\212\2720;3o>\363\375~wf-\372"
  97      48AC6F76 
  97      A3968ABA 
  97      303B336F 
  97      3EF3FD7E 
  98 0061 F33921ED 		.ascii	"\3639!\355\022\023\035\226\036\016\201'\336\022yIfk"
  98      12131D96 
  98      1E0E8127 
ARM GAS  C:\Users\Bruger\AppData\Local\Temp\ccCCOI7S.s 			page 7


  98      DE127949 
  98      666B
  99 0073 BB8774B7 		.ascii	"\273\207t\267*\247I\357\263`\307e\365s`\003f@\2401\266"
  99      2AA749EF 
  99      B360C765 
  99      F5736003 
  99      6640A031 
 100 0088 948D317C 		.ascii	"\224\2151|\341&c\"\250\224S\375\017\264\326\215\342"
 100      E1266322 
 100      A89453FD 
 100      0FB4D68D 
 100      E2
 101 0099 6AEF95DE 		.ascii	"j\357\225\336P\224[\034;a\012\375$L\323o\177H9\2760"
 101      50945B1C 
 101      3B610AFD 
 101      244CD36F 
 101      7F4839BE 
 102 00ae 07E2354C 		.ascii	"\007\3425L\303\201\364\363\007\003\275\263\323Z\232"
 102      C381F4F3 
 102      0703BDB3 
 102      D35A9A
 103 00bd 1C3FCA5D 		.ascii	"\034?\312]\026\205\014%/!\352\322\214\333\206L\244\267"
 103      16850C25 
 103      2F21EAD2 
 103      8CDB864C 
 103      A4B7
 104 00cf D6F16AEB 		.ascii	"\326\361j\353Zm\246\012\263\363+[\"\372\356\346\313"
 104      5A6DA60A 
 104      B3F32B5B 
 104      22FAEEE6 
 104      CB
 105 00e0 F7C9CF1C 		.ascii	"\367\311\317\034\262\325~\355ie|>\325\227W\342\022\231"
 105      B2D57EED 
 105      69657C3E 
 105      D59757E2 
 105      1299
 106 00f2 E9E2FDA9 		.ascii	"\351\342\375\251\022\356\342\266\347#d\205\031\364\341"
 106      12EEE2B6 
 106      E7236485 
 106      19F4E1
 107 0101 11FAC4BD 		.ascii	"\021\372\304\275\"UZG\261v\265\256bA%\232\264\006\177"
 107      22555A47 
 107      B176B5AE 
 107      6241259A 
 107      B4067F
 108 0114 A994EB14 		.ascii	"\251\224\353\024v\313I\030\314\232\235d\022Y\264\335"
 108      76CB4918 
 108      CC9A9D64 
 108      1259B4DD 
 109 0124 23818A8D 		.ascii	"#\201\212\215\352\362f\312\320\202\336[\275>\307\205"
 109      EAF266CA 
 109      D082DE5B 
 109      BD3EC785 
 110 0134 6F7A5C27 		.ascii	"oz\\'C\266\333\346\033w\013\330\321t\332\363\357Dy\264"
 110      43B6DBE6 
 110      1B770BD8 
 110      D174DAF3 
ARM GAS  C:\Users\Bruger\AppData\Local\Temp\ccCCOI7S.s 			page 8


 110      EF4479B4 
 111 0148 A11C3C46 		.ascii	"\241\034<F\001sFV\326\276\317\336Xp\006*rDA:\344\004"
 111      01734656 
 111      D6BECFDE 
 111      5870062A 
 111      7244413A 
 112 015e E605DC8C 		.ascii	"\346\005\334\214\216\021U\014\010\260r\353ai\277\321"
 112      8E11550C 
 112      08B072EB 
 112      6169BFD1 
 113 016e 4A80F024 		.ascii	"J\200\360$\012\263\301\212\312\351(Jc\355?Q\366z/\374"
 113      0AB3C18A 
 113      CAE9284A 
 113      63ED3F51 
 113      F67A2FFC 
 114 0182 C3FBE96F 		.ascii	"\303\373\351o\357g\221\367\257\357HHi\261\343mG\027"
 114      EF6791F7 
 114      AFEF4848 
 114      69B1E36D 
 114      4717
 115 0194 F311A5A0 		.ascii	"\363\021\245\240\371\206\2157\3555O\266X.\031\317Q\220"
 115      F9868D37 
 115      ED354FB6 
 115      582E19CF 
 115      5190
 116 01a6 4BED2283 		.ascii	"K\355\"\203nu\377\2154g\374\242C\326\340\005\341\231"
 116      6E75FF8D 
 116      3467FCA2 
 116      43D6E005 
 116      E199
 117 01b8 8824F32F 		.ascii	"\210$\363/\300X\011p\350\224\233sG\316\215\272\3473"
 117      C0580970 
 117      E8949B73 
 117      47CE8DBA 
 117      E733
 118 01ca 43F9CB23 		.ascii	"C\371\313#Ywxp(\177\362\370\360\351\334E7;z!\237\313"
 118      59777870 
 118      287FF2F8 
 118      F0E9DC45 
 118      373B7A21 
 119 01e0 1CCB0C9E 		.ascii	"\034\313\014\236=\222\245\037\224#\361\360"
 119      3D92A51F 
 119      9423F1F0 
 120              		.text
 121              		.section	.gnu.lto_Injection_2_Wakeup.ecb83792,"",%progbits
 122 0000 789C7550 		.ascii	"x\234uP=HBQ\024>\347\274\347S\322!\232\242\301\325("
 122      3D484251 
 122      143EE7BC 
 122      E753D221 
 122      9AA2C1D5 
 123 0015 2C289A1B 		.ascii	",(\232\033\032\"\"\020\\\005\011{C\015\012bm\342}\371"
 123      1A222210 
 123      5C05097B 
 123      430D0A62 
 123      6DE27DF9 
 124 0029 82862869 		.ascii	"\202\206(i\012\372\031\204\312\322\024\032\032ly\273"
 124      0AFA1984 
ARM GAS  C:\Users\Bruger\AppData\Local\Temp\ccCCOI7S.s 			page 9


 124      CAD2141A 
 124      1A6C79BB 
 125 0039 504454F4 		.ascii	"PDT\364\277\030\324\226\211\310C\314\356}\006A\321\205"
 125      BF18D496 
 125      89C843CC 
 125      EE7D0641 
 125      D185
 126 004b CBB9F73B 		.ascii	"\313\271\367;\337w\276\373]\011\376\256a\276\027\020"
 126      DF77BEFB 
 126      5D09FEAE 
 126      61BE1710 
 127 005b A08F57B4 		.ascii	"\240\217W\264\001R\352\014@s\020IE7\260\016\371z\020"
 127      0152EA0C 
 127      40731049 
 127      4537B00E 
 127      F97A10
 128 006e 984B42B9 		.ascii	"\230KB\271\015\313\210\342\000\010\011\222dL\340\033"
 128      0DCB88E2 
 128      00080992 
 128      644CE01B 
 129 007e 55085346 		.ascii	"U\010SFv\303\351\331e\214\275\247\037\273\227\272M\002"
 129      76C3E9D9 
 129      658CBDA7 
 129      1FBB97BA 
 129      4D02
 130 0090 A8527B3E 		.ascii	"\250R{>\356\243\0078\247\2427o\234\212\3169\235\355"
 130      EEA30738 
 130      A7A2376F 
 130      9C8ACE39 
 130      9DED
 131 00a2 1E6650E1 		.ascii	"\036fP\341\276P\3502X\253U\255\255gFI\221\301$\016\226"
 131      BE50E832 
 131      58AB55AD 
 131      AD674649 
 131      91C1240E 
 132 00b7 3941F8BC 		.ascii	"9A\370\274\020\211*=`\322\270/\221\220\210Y;\227\253"
 132      10892A3D 
 132      60D2B82F 
 132      91908859 
 132      3B97AB
 133 00ca 798A37D8 		.ascii	"y\2127\3302s\230DU\241\300\003\214s\255\004w\270xR\251"
 133      32739844 
 133      55A1C003 
 133      8C73AD04 
 133      77B87852 
 134 00df A7ED825B 		.ascii	"\247\355\202['\3717[n\012o\216>\227\317/\034\257\304"
 134      27F9375B 
 134      6E0A6F8E 
 134      3E97CF2F 
 134      1CAFC4
 135 00f2 11EB9AD1 		.ascii	"\021\353\232\321\364-\334\306M\215\011\226\015\0171"
 135      F42DDCC6 
 135      4D8D0996 
 135      0D0F31
 136 0101 8E59ECB1 		.ascii	"\216Y\354\261z\237\271\265c\305\333o\222\2029\316\371"
 136      7A9FB9B5 
 136      63C5DB6F 
ARM GAS  C:\Users\Bruger\AppData\Local\Temp\ccCCOI7S.s 			page 10


 136      928239CE 
 136      F9
 137 0112 B092E111 		.ascii	"\260\222\341\021z\341\012\365\333\244\373\307J\333;"
 137      7AE10AF5 
 137      DBA4FBC7 
 137      4ADB3B
 138 0121 5DB18BA1 		.ascii	"]\261\213\241\342Ey!\007\021B\202\242\333\312P+\271"
 138      E2457921 
 138      07114282 
 138      A2DBCA50 
 138      2BB9
 139 0133 FECBC087 		.ascii	"\376\313\300\207b\341;\203\320\310V\360'\324\214\306"
 139      62E13B83 
 139      D0C856F0 
 139      27D48CC6 
 140 0143 A4A501F1 		.ascii	"\244\245\001\361-(PN\355\035W\303jt:\246\316\004\375"
 140      2D28504E 
 140      ED1D57C3 
 140      6A743AA6 
 140      CE04FD
 141 0156 91F96848 		.ascii	"\221\371hH\015\370\374\221\261\221\300DxN\015\305f#"
 141      0DF8FC91 
 141      B191C044 
 141      784E0DC5 
 141      6623
 142 0168 E1E050D0 		.ascii	"\341\340P\32075\020\202/\345\015\224\217"
 142      37351082 
 142      2FE50D94 
 142      8F
 143              		.text
 144              		.section	.gnu.lto_.symbol_nodes.ecb83792,"",%progbits
 145 0000 789C55CA 		.ascii	"x\234U\312\261\015\3020\020\205\341\347;;v\342\024l"
 145      B10DC230 
 145      1085E1E7 
 145      3B3B76E2 
 145      146C
 146 0012 C012ECF7 		.ascii	"\300\022\354\367RX\324L\200\"\304\012l\220\232\031\000"
 146      5258D44C 
 146      8022C40A 
 146      6C909A19 
 146      00
 147 0023 A5CC0C88 		.ascii	"\245\314\014\2108i\216k~}O\247\000\016\016\373\211#"
 147      38698E6B 
 147      7E7D4FA7 
 147      000E0EFB 
 147      8923
 148 0035 70790224 		.ascii	"py\002$\256cB\000F\241\212\320\331Y\224\362gO\265v\221"
 148      AE634200 
 148      46A18AD0 
 148      D95994F2 
 148      674FB576 
 149 004a 7E378661 		.ascii	"~7\206ae\303`\031\330Xv\214\226-\223ebk\231\331Y\366"
 149      65C36019 
 149      D858768C 
 149      962D9365 
 149      626B99D9 
 150 0060 CC868A88 		.ascii	"\314\206\212\210\373\353\353\024\015\346\255\001\363"
ARM GAS  C:\Users\Bruger\AppData\Local\Temp\ccCCOI7S.s 			page 11


 150      FBEBEB14 
 150      0DE6AD01 
 150      F3
 151 006d 7BAD7498 		.ascii	"{\255t\230\252\245E\331\234P\316\313Q5c\252V\340S\353"
 151      AAA545D9 
 151      9C50CECB 
 151      513563AA 
 151      56E053EB 
 152 0081 05B7FAE7 		.ascii	"\005\267\372\347{\224\307\011?\177fFt"
 152      7B94C709 
 152      3F7F6646 
 152      74
 153              		.text
 154              		.section	.gnu.lto_.refs.ecb83792,"",%progbits
 155 0000 789C258A 		.ascii	"x\234%\212\311\015\000 \014\200\240\255\307,\356?\240"
 155      C90D0020 
 155      0C80A0AD 
 155      C72CEE3F 
 155      A0
 156 0011 8DF22390 		.ascii	"\215\362#\220\300\341Shh\351\324]\321\212\211\003W\344"
 156      C0E15368 
 156      68E9D45D 
 156      D18A8903 
 156      57E4
 157 0023 0BC39E82 		.ascii	"\013\303\236\202\013\0205\000\202"
 157      0B103500 
 157      82
 158              		.text
 159              		.section	.gnu.lto_.decls.ecb83792,"",%progbits
 160 0000 789C8D56 		.ascii	"x\234\215VmLSW\030\276\247\247\264\320\026t\232\200"
 160      6D4C5357 
 160      18BEA7A7 
 160      B4D01674 
 160      9A80
 161 0012 E38F9D66 		.ascii	"\343\217\235f\304-\306\270%.\376\233\2111\306%.D\342"
 161      C42DC6B8 
 161      252EFE9B 
 161      8931C625 
 161      2E44E2
 162 0025 CCB22506 		.ascii	"\314\262%\006\341\3161\015e\265]\342//\037\012\242\003"
 162      E1CE310D 
 162      65B55DE2 
 162      2F2F1F0A 
 162      A203
 163 0037 6428A893 		.ascii	"d(\250\223u|+\005*\003\344K\241\250P\221\342\027C\021"
 163      757C2B05 
 163      2A03E44B 
 163      A1A85091 
 163      E2174311 
 164 004b 950AE207 		.ascii	"\225\012\342\007 \226\017\361k\322\275\347\334{\351"
 164      20960FF1 
 164      6BD2BDE7 
 164      DC7BE9
 165 005a BD58E66E 		.ascii	"\275X\346n\362\320\236s\336\367y\237\347=\347\236\202"
 165      F2D09E73 
 165      DEF7799F 
 165      E73DE79E 
ARM GAS  C:\Users\Bruger\AppData\Local\Temp\ccCCOI7S.s 			page 12


 165      82
 166 006b 19869944 		.ascii	"\031\206\231D\014\343\201g\225\206a\026)\030\306\017"
 166      0CE38167 
 166      95866116 
 166      2918C60F 
 167 007b E6C219EF 		.ascii	"\346\302\031\357\243\003X\001\345\000\033\240\022P\017"
 167      A3035801 
 167      E5001BA0 
 167      12500F
 168 008a 68015C00 		.ascii	"h\001\\\0008\000\035\200N\300U\300u\000P2\217\031\371"
 168      38001D80 
 168      4EC055C0 
 168      75005032 
 168      8F19F9
 169 009d 43380205 		.ascii	"C8\002\005n= \0300\004h\006\014\003\006\001M\0007`\024"
 169      6E3D2018 
 169      30046806 
 169      0C030601 
 169      4D003760 
 170 00b2 50031803 		.ascii	"P\003\030\003\324\002\224\200>@?\300\005\270'\314Y\005"
 170      D4029480 
 170      3E403FC0 
 170      05B827CC 
 170      5905
 171 00c4 0D2D8226 		.ascii	"\015-\202&_u\313}\324\225\326\033\007\264\013\365\304"
 171      5F75CB7D 
 171      D495D61B 
 171      07B40BF5 
 171      C4
 172 00d5 DA1380D6 		.ascii	"\332\023\200\326\377\250[.\370\355\020\374\373\252K"
 172      FFA85B2E 
 172      F8ED10FC 
 172      FBAA4B
 173 00e4 7AA511EA 		.ascii	"z\245\021\352\222\232\317%\374b}R\363\005\340\244\300"
 173      929ACF25 
 173      FC627D52 
 173      F305E0A4 
 173      C0
 174 00f5 711F8085 		.ascii	"q\037\200\205\334\253\202?_\334d\017\324\022n\221C\312"
 174      DCAB823F 
 174      5FDC640F 
 174      D4126E91 
 174      43CA
 175 0107 2BE5AB14 		.ascii	"+\345\253\0244\317\2657c\012t\271\377\345\204\356\261"
 175      34CFB537 
 175      630A74B9 
 175      FFE584EE 
 175      B1
 176 0118 020569E6 		.ascii	"\002\005i\346\223\341\261\233\203\223\030\206:\215\202"
 176      93E1B19B 
 176      83931886 
 176      3A8D82
 177 0127 0C6B5E4D 		.ascii	"\014k^MU\250B\016s\344I\344\346+Px0*F\241\250\004\205"
 177      55A8420E 
 177      73E449E4 
 177      E62B5078 
 177      302A46A1 
ARM GAS  C:\Users\Bruger\AppData\Local\Temp\ccCCOI7S.s 			page 13


 178 013e 02E34914 		.ascii	"\002\343I\024\002\177\277S\362L\251m-\371\030+\020\371"
 178      027FBF53 
 178      F24CA96D 
 178      2DF9182B 
 178      10F9
 179 0150 9E9F73BF 		.ascii	"\236\237s\277K\263\374\024d\245p\315\016\354-\3676\355"
 179      4BB3FC14 
 179      64A570CD 
 179      0EEC2DF7 
 179      36ED
 180 0162 75AF4A9F 		.ascii	"u\257J\237\313\271lnGU\217\216+\341\232=\236/)\025:"
 180      CBB96C6E 
 180      47558F8E 
 180      2BE19A3D 
 180      9E2F2915 
 181 0177 85302A45 		.ascii	"\2050*E\313I$\371NS\220\025\351!\255-\327\332\034\210"
 181      CB4924F9 
 181      4E539015 
 181      E921AD2D 
 181      D7DA1C88 
 182 018b 3750EEEA 		.ascii	"7P\356\352\274g\373t\224\302R\233\257\342\011h~\231"
 182      BC67FB74 
 182      94C2529B 
 182      AFE20968 
 182      7E99
 183 019d 24BF4CCC 		.ascii	"$\277L\314/\247\371\316\254\376\333Z\034E\363\177\315"
 183      2FA7F9CE 
 183      ACFEDB5A 
 183      1C45F37F 
 183      CD
 184 01ae 3D50E30F 		.ascii	"=P\343\017\371\026\233%\247P\232_!\311\257\020\363m"
 184      F9169B25 
 184      A7509A5F 
 184      21C9AF10 
 184      F36D
 185 01c0 34FF6176 		.ascii	"4\377av\3039%6\323\374\247\257\352Ok\371\374!Y\376i"
 185      C3392536 
 185      D3FCA7AF 
 185      EA4F6BF9 
 185      FC2159FE 
 186 01d5 49FE6931 		.ascii	"I\376i1\277\222\346w7%'\373\343\024D\011\342\213\032"
 186      BF92E677 
 186      372527FB 
 186      E3144409 
 186      E28B1A
 187 01e8 0EAAA1C7 		.ascii	"\016\252\241\307\301\032\332\222\264\313\307\354\230"
 187      C11ADA92 
 187      B4CBC7EC 
 187      98
 188 01f5 0E3D6459 		.ascii	"\016=dY\321\323\223\365\012#MX\012\307%p\356L\016/b"
 188      D1D393F5 
 188      0A234D58 
 188      0AC72570 
 188      EE4C0E2F 
 189 020a D0F250F4 		.ascii	"\320\362P\364I(\203\316\2400\010\243EP\025lC5lC\001"
 189      492883CE 
 189      A03008A3 
ARM GAS  C:\Users\Bruger\AppData\Local\Temp\ccCCOI7S.s 			page 14


 189      4550156C 
 189      43356C43 
 190 021f 34D99DBB 		.ascii	"4\331\235\273\367\334W\211\334\032T\2034\350\257\031"
 190      F7DC5789 
 190      DC1A5483 
 190      34E8AF19 
 191 022f 19B482D0 		.ascii	"\031\264\202\320xg\351\245}H\272\223$\324\273\225\265"
 191      7867E9A5 
 191      7D48BA93 
 191      24D4BB95 
 191      B5
 192 0240 B2AD2C4B 		.ascii	"\262\255,K\330?\254\3036^\356\203\234\361l?\322o\316"
 192      D83FACC3 
 192      365EEE83 
 192      9CF16C3F 
 192      D26FCE
 193 0253 5D525CF1 		.ascii	"]R\\\361\355\241\304\214,\316\345\361,\246I\250Nb\272"
 193      EDA1C48C 
 193      2CCEE5F1 
 193      2CA649A8 
 193      4E62BA
 194 0266 4E345D4F 		.ascii	"N4]OM\237\030\037m\014\300Sr\323z\336t\366\360\313*"
 194      4D9F181F 
 194      6D0CC053 
 194      72D37ADE 
 194      74F6F0CB 
 195 027b 7F3AF478 		.ascii	"\177:\364x0q\375f\240\274X\205\3024\274\235B\336N\023"
 195      3071FD66 
 195      A0BC5885 
 195      C234BC9D 
 195      42DE4E13 
 196 028f 686CF0DA 		.ascii	"hl\360\332\321\013vhg\300\205_I\0203\343\001\235\203"
 196      D10B7668 
 196      67C0855F 
 196      491033E3 
 196      019D83
 197 02a2 E6E885E6 		.ascii	"\346\350\205\3464\302\344Y\230\204J\373\3233_j\244\306"
 197      34C2E459 
 197      98844AFB 
 197      D3335F6A 
 197      A4C6
 198 02b4 9B64C69B 		.ascii	"\233d\306\233e\306+\316\014\234\360\303oy\311\266'I"
 198      65C62BCE 
 198      0C9CF0C3 
 198      6F79C9B6 
 198      2749
 199 02c6 7FF80BC6 		.ascii	"\177\370\013\306\037\325\377,1\016I\310.1n\027\215\267"
 199      1FD5FF2C 
 199      310E49C8 
 199      2E316E17 
 199      8DB7
 200 02d8 50E3677A 		.ascii	"P\343gz\236\335\301\3700\377*\214\014\344\215\314\243"
 200      9EDDC1F8 
 200      30FF2A8C 
 200      0CE48DCC 
 200      A3
 201 02e9 2CAE94E4 		.ascii	",\256\224\344V\235E<\361\204\343\274\204\343\274\310"
ARM GAS  C:\Users\Bruger\AppData\Local\Temp\ccCCOI7S.s 			page 15


 201      569D453C 
 201      F184E3BC 
 201      84E3BCC8 
 202 02f9 71817264 		.ascii	"q\201rd\354\265g(\225p/\323\215\002}0\327\221\375{\213"
 202      ECB56728 
 202      95702FD3 
 202      8D027D30 
 202      D791FD7B 
 203 030e 76CEB7B1 		.ascii	"v\316\267\261\225:\271\210\004+\256\254\202\242 l\345"
 203      953AB988 
 203      042BAEAC 
 203      82A2206C 
 203      E5
 204 031f 45A49E2F 		.ascii	"E\244\236/\230P\361\"\316\015JD@\016j\223\210h\023E"
 204      9850F122 
 204      CE0D4A44 
 204      400E6A93 
 204      88681345 
 205 0333 38A888C6 		.ascii	"8\250\210\306\202\241Q-\025\3214#b\340\350\021G\320"
 205      82A1512D 
 205      15D13423 
 205      62E0E811 
 205      47D0
 206 0345 9C22DAA9 		.ascii	"\234\"\332\251\210K\242\210\354\301cy\363\260\223\027"
 206      884BA288 
 206      ECC16379 
 206      F3B09317 
 207 0355 D153DE5B 		.ascii	"\321S\336[\025\310\213x]\330\346\025\0019\350\262D\304"
 207      15C88B78 
 207      5DD8E615 
 207      0139E8B2 
 207      44C4
 208 0367 65514407 		.ascii	"eQD\007\025a\267\325\271\325\370!\317\321U\331\360Z"
 208      1561B7D5 
 208      B9D5F821 
 208      CFD155D9 
 208      F05A
 209 0379 30325DD8 		.ascii	"02]\330*\347pJ8\234\"G'\3458\370\246hD\205\247y\216"
 209      2AE7704A 
 209      389C2247 
 209      27E538F8 
 209      A6684485 
 210 0390 E99A43C7 		.ascii	"\351\232C\3075\224\303RZ\270O/y\203\257H\030\256\210"
 210      3594C352 
 210      5AB84F2F 
 210      7983AF48 
 210      18AE88
 211 03a3 0C572943 		.ascii	"\014W)C\351T\222S\205\3231e8u\324\261\207\027\321\320"
 211      E9549253 
 211      85D33165 
 211      3875D4B1 
 211      8717D1D0 
 212 03b7 C6B62470 		.ascii	"\306\266$p\377\220CL\031\256I\030\256\211\014\327)C"
 212      FF90434C 
 212      19AE4918 
 212      AE890CD7 
 212      2943
ARM GAS  C:\Users\Bruger\AppData\Local\Temp\ccCCOI7S.s 			page 16


 213 03c9 657E614D 		.ascii	"e~aM\000\275i\327\020\216\202\303G\254~\364\246\365"
 213      00BD69D7 
 213      108E82C3 
 213      47AC7EF4 
 213      A6F5
 214 03db 27C3A6B4 		.ascii	"'\303\246\264\214\274@\234\307\363g\335\250n\324\342"
 214      8CBC409C 
 214      C7F367DD 
 214      A86ED4E2 
 215 03eb 067ED069 		.ascii	"\006~\320i\355\366hq;?x0V\234\247\306\327\370A]\371"
 215      EDF66871 
 215      3B3F7830 
 215      569CA7C6 
 215      D7F8415D 
 216 0400 A4534B19 		.ascii	"\244SK\031\365d\230t\266(C\215{\371\265\276\027}-j\272"
 216      F5649874 
 216      B628438D 
 216      7BF9B5BE 
 216      177D2D6A 
 217 0415 B6920C53 		.ascii	"\266\222\014S\246\2356%\036\345\327\342\233\313n\360"
 217      A69D3625 
 217      1EE5D7E2 
 217      9BCB6EF0 
 218 0425 6BAB61A8 		.ascii	"k\253a\250n\267\346O\253\321\022\362,\014\263\300\273"
 218      6EB7E64F 
 218      ABD112F2 
 218      2C0CB3C0 
 218      BB
 219 0436 E54A1B6C 		.ascii	"\345J\033l\327r9+\351\321\273\003\216\006\320B\361\012"
 219      D772392B 
 219      E9D1BB03 
 219      8E06D042 
 219      F10A
 220 0448 5A4676F9 		.ascii	"ZFv\371.\331k\206\206\016'\036\200[|%= \267\204\320"
 220      2ED96B86 
 220      860E271E 
 220      805B7C25 
 220      3D20B784 
 221 045d 99579206 		.ascii	"\231W\222\006\367x\203G\007\274\274\267}\360\366zC\357"
 221      F7788347 
 221      07BCBCB7 
 221      7DF0F67A 
 221      43EF
 222 046f 0DB4CE84 		.ascii	"\015\264\316\204v\373\010\375t&\362Ib\352\214\202\233"
 222      76FB08FD 
 222      7426F249 
 222      62EA8C82 
 222      9B
 223 0480 3E151453 		.ascii	">\025\024S\332C\344\304fX\2705F\006\335\200\365.z`I"
 223      DA43E4C4 
 223      6658B835 
 223      4606DD80 
 223      F52E7A60 
 224 0495 346C187A 		.ascii	"4l\030z\000\267\307}\264\004\365\003\372\000.\300=\264"
 224      00B7C77D 
 224      B404F503 
 224      FA002EC0 
ARM GAS  C:\Users\Bruger\AppData\Local\Temp\ccCCOI7S.s 			page 17


 224      3DB4
 225 04a7 846E20B9 		.ascii	"\204n \271\223\\\275\371*\016\221pF\334`\361nU4\036"
 225      935CBDF9 
 225      2A0E9170 
 225      46DC60F1 
 225      6E55341E 
 226 04bb 4E4C0F40 		.ascii	"NL\017@\013\303|U@\017\201\370\177\0279\276\316\037"
 226      0BC37C55 
 226      400F81F8 
 226      7F1739BE 
 226      CE1F
 227 04cd 0D42F0DF 		.ascii	"\015B\360\337\336K\217T\024/\361\246#/\27248^Iw\261"
 227      DE4B8F54 
 227      142FF1A6 
 227      232FBA34 
 227      385E4977 
 228 04e2 E44DDF59 		.ascii	"\344M\337Y\335\322?9\316\342v\334*P\304s\226x\216#'"
 228      DDD23F39 
 228      CEE276DC 
 228      2A50C473 
 228      96788E23 
 229 04f7 99323CE2 		.ascii	"\2312<\342\031$N\037\361\307\021=FK!\273>\323\221\243"
 229      19244E1F 
 229      F1C7113D 
 229      464B21BB 
 229      3ED391A3 
 230 050b A2C78FBE 		.ascii	"\242\307\217\276\325\311w\235G\265\272Tr\261f$r\001"
 230      D5C9779D 
 230      47B5BA54 
 230      72B16624 
 230      7201
 231 051d 8E207A3F 		.ascii	"\216 z?\301\326\241'4y\010\351h2|\222\233=\177h\022"
 231      C1D6A127 
 231      347908E9 
 231      68327C92 
 231      9B3D7F68 
 232 0532 CBA24949 		.ascii	"\313\242IIo\364\260\020=L\243\271\354\003\005\3768\213"
 232      6FF4B010 
 232      3D4CA3B9 
 232      EC0305FE 
 232      388B
 233 0544 575D3D95 		.ascii	"W]=\225Z\027\250I!w\307\373\177\333\240\267]\235\251"
 233      5A17A849 
 233      2177C7FB 
 233      7FDBA0B7 
 233      5D9DA9
 234 0557 DD01FCAF 		.ascii	"\335\001\374\257\341\354\214gs\374\032\332r/\216c\216"
 234      E1EC8C67 
 234      73FC1ADA 
 234      722F8E63 
 234      8E
 235 0568 53A25138 		.ascii	"S\242Q8\021#\336N>E\336\237\303\375\375\307\234:\231"
 235      1123DE4E 
 235      3E45DE9F 
 235      C3FDFDC7 
 235      9C3A99
 236 057b 0312EC75 		.ascii	"\003\022\354u\340\026\034\270\251\203;\256\233\335\012"
ARM GAS  C:\Users\Bruger\AppData\Local\Temp\ccCCOI7S.s 			page 18


 236      E0161CB8 
 236      A9833BAE 
 236      9BDD0A
 237 058a 5974ADAC 		.ascii	"Yt\255\254;cB\364\030\215.r66\312{\331.\213\036\027"
 237      3B6342F4 
 237      188D2E72 
 237      3636CA7B 
 237      D92E8B1E 
 238 059f A2C76974 		.ascii	"\242\307it\322o\366L\215,\272U\026=!DO\220hl/\266\337"
 238      D26FF64C 
 238      8D2CBA55 
 238      163D2144 
 238      4F90686C 
 239 05b6 D6A0504D 		.ascii	"\326\240PMh\016\374g\365r1z\016\236R\310\261s'p8'H\354"
 239      680EFC67 
 239      F572317A 
 239      0E9E52C8 
 239      B1732770 
 240 05ce 0D431718 		.ascii	"\015C\027\0304\0054\223@C\242\233\037{<{<\374\223\256"
 240      34053493 
 240      4043A29B 
 240      1F7B3C7B 
 240      3CFC93AE 
 241 05e2 A601E40F 		.ascii	"\246\001\344\017\271\333*\366&\317\223I8)\223\360\002"
 241      B9DB2AF6 
 241      26CF9349 
 241      382993F0 
 241      02
 242 05f3 E9C41EC2 		.ascii	"\351\304\036\302W&xC\354Ol\224)\306\020\273\365\363"
 242      57267843 
 242      EC4F6C94 
 242      29C610BB 
 242      F5F3
 243 0605 AD1191BF 		.ascii	"\255\021\221\277\260k\015\261?\304lW\255\377z\263~-"
 243      B06B0DB1 
 243      3FC46C57 
 243      ADFF7AB3 
 243      7E2D
 244 0617 B36C3D1B 		.ascii	"\263l=\033\313\032#Ml\364\326\010\203\331\030\305~\037"
 244      CB1A234D 
 244      6CF4D608 
 244      83D918C5 
 244      7E1F
 245 0629 1E6158BB 		.ascii	"\036aX\273\352{iR\370\306\025Q\314\207\322\231M\354"
 245      EA7B6952 
 245      F8C61551 
 245      CC87D299 
 245      4DEC
 246 063b 2E93C128 		.ascii	".\223\301(0} +\260\223e\343\026Hg\266D\356`\315q~\346"
 246      307D202B 
 246      B09365E3 
 246      164867B6 
 246      44EE60CD 
 247 0652 9858D3EA 		.ascii	"\230X\323\352\217\346\250\026\265\333\264;\216\335\265"
 247      8FE6A816 
 247      B5DBB43B 
 247      8EDDB5
ARM GAS  C:\Users\Bruger\AppData\Local\Temp\ccCCOI7S.s 			page 19


 248 0661 E24766B1 		.ascii	"\342Gf\261\274Ld4\3240\031\015;7\261\333cv\231X\343"
 248      BC4C6434 
 248      D430190D 
 248      3B37B1DB 
 248      63769958 
 249 0676 C7EFD70B 		.ascii	"\307\357\327\013,*R\355\263/B\336%3\307\002I\360\354"
 249      2C2A52ED 
 249      B32F42DE 
 249      2533C702 
 249      49F0EC
 250 0689 F970D618 		.ascii	"\371p\326\030c\210\326\313d\033cL\354\254\342\213|\004"
 250      6388D6CB 
 250      641B634C 
 250      ECACE28B 
 250      7C04
 251 069b 50C29077 		.ascii	"P\302\220w\026x\306\371\262\326\230\014\362\316\254"
 251      1678C6F9 
 251      B2D6980C 
 251      F2CEAC
 252 06aa 8B8DDCB6 		.ascii	"\213\215\334\266\223\225\221n\213\214\332a\216\2130"
 252      9395916E 
 252      8B8CDA61 
 252      8E8B30
 253 06b9 19CD51A6 		.ascii	"\031\315Q\246\240\360-\033\371\220\010\023\030V\301"
 253      A0F02D1B 
 253      F9900813 
 253      1856C1
 254 06c8 7073F4B6 		.ascii	"ps\364\266\000\370\340\311\201\013J\033\315q\246\215"
 254      00F8E0C9 
 254      810B4A1B 
 254      CD71A68D 
 255 06d8 91BB767C 		.ascii	"\221\273v|\023\271\323\314.\200\305Y\232\027\274K\257"
 255      13B9D3CC 
 255      2E80C559 
 255      9A17BC4B 
 255      AF
 256 06e9 34B2DB57 		.ascii	"4\262\333W\377\013>\366-D"
 256      FF0B3EF6 
 256      2D44
 257              		.text
 258              		.section	.gnu.lto_.symtab.ecb83792,"",%progbits
 259 0000 496E6A65 		.ascii	"Injection_2_SaveConfig\000\000\000\000\000\000\000\000"
 259      6374696F 
 259      6E5F325F 
 259      53617665 
 259      436F6E66 
 260 001e 00000000 		.ascii	"\000\000\000\000\254\000\000\000Injection_2_Restore"
 260      AC000000 
 260      496E6A65 
 260      6374696F 
 260      6E5F325F 
 261 0039 436F6E66 		.ascii	"Config\000\000\000\000\000\000\000\000\000\000\000\000"
 261      69670000 
 261      00000000 
 261      00000000 
 261      0000
 262 004b AE000000 		.ascii	"\256\000\000\000Injection_2_Sleep\000\000\000\000\000"
ARM GAS  C:\Users\Bruger\AppData\Local\Temp\ccCCOI7S.s 			page 20


 262      496E6A65 
 262      6374696F 
 262      6E5F325F 
 262      536C6565 
 263 0065 00000000 		.ascii	"\000\000\000\000\000\000\000\260\000\000\000Injecti"
 263      000000B0 
 263      00000049 
 263      6E6A6563 
 263      7469
 264 0077 6F6E5F32 		.ascii	"on_2_Wakeup\000\000\000\000\000\000\000\000\000\000"
 264      5F57616B 
 264      65757000 
 264      00000000 
 264      00000000 
 265 008c 0000B200 		.ascii	"\000\000\262\000\000\000Injection_2_ReadControlRegi"
 265      0000496E 
 265      6A656374 
 265      696F6E5F 
 265      325F5265 
 266 00ad 73746572 		.ascii	"ster\000\000\002\000\000\000\000\000\000\000\000\000"
 266      00000200 
 266      00000000 
 266      00000000 
 267 00bd BA000000 		.ascii	"\272\000\000\000Injection_2_ReadCounter\000\000\002"
 267      496E6A65 
 267      6374696F 
 267      6E5F325F 
 267      52656164 
 268 00db 00000000 		.ascii	"\000\000\000\000\000\000\000\000\000\302\000\000\000"
 268      00000000 
 268      00C20000 
 268      00
 269 00e8 496E6A65 		.ascii	"Injection_2_ReadPeriod\000\000\002\000\000\000\000\000"
 269      6374696F 
 269      6E5F325F 
 269      52656164 
 269      50657269 
 270 0106 00000000 		.ascii	"\000\000\000\000\304\000\000\000Injection_2_WriteCo"
 270      C4000000 
 270      496E6A65 
 270      6374696F 
 270      6E5F325F 
 271 0121 6E74726F 		.ascii	"ntrolRegister\000\000\002\000\000\000\000\000\000\000"
 271      6C526567 
 271      69737465 
 271      72000002 
 271      00000000 
 272 0138 0000C800 		.ascii	"\000\000\310\000\000\000Injection_2_WriteCounter\000"
 272      0000496E 
 272      6A656374 
 272      696F6E5F 
 272      325F5772 
 273 0157 00020000 		.ascii	"\000\002\000\000\000\000\000\000\000\000\000\314\000"
 273      00000000 
 273      000000CC 
 273      00
 274 0164 0000496E 		.ascii	"\000\000Injection_2_WritePeriod\000\000\002\000\000"
ARM GAS  C:\Users\Bruger\AppData\Local\Temp\ccCCOI7S.s 			page 21


 274      6A656374 
 274      696F6E5F 
 274      325F5772 
 274      69746550 
 275 0182 00000000 		.ascii	"\000\000\000\000\000\000\000\316\000\000\000Injecti"
 275      000000CE 
 275      00000049 
 275      6E6A6563 
 275      7469
 276 0194 6F6E5F32 		.ascii	"on_2_Stop\000\000\002\000\000\000\000\000\000\000\000"
 276      5F53746F 
 276      70000002 
 276      00000000 
 276      00000000 
 277 01a8 00D00000 		.ascii	"\000\320\000\000\000Injection_2_Enable\000\000\002\000"
 277      00496E6A 
 277      65637469 
 277      6F6E5F32 
 277      5F456E61 
 278 01c3 00000000 		.ascii	"\000\000\000\000\000\000\000\000\322\000\000\000"
 278      00000000 
 278      D2000000 
 279              		.text
 280              		.section	.gnu.lto_.opts,"",%progbits
 281 0000 272D666E 		.ascii	"'-fno-trapv' '-mcpu=cortex-m3' '-mthumb' '-g' '-Os'"
 281      6F2D7472 
 281      61707627 
 281      20272D6D 
 281      6370753D 
 282 0033 20272D66 		.ascii	" '-ffunction-sections' '-finline-functions' '-flto'"
 282      66756E63 
 282      74696F6E 
 282      2D736563 
 282      74696F6E 
 283 0066 20272D66 		.ascii	" '-ffat-lto-objects'\000"
 283      6661742D 
 283      6C746F2D 
 283      6F626A65 
 283      63747327 
 284              		.text
 285              		.cfi_sections	.debug_frame
 286              		.section	.text.Injection_2_SaveConfig,"ax",%progbits
 287              		.align	1
 288              		.global	Injection_2_SaveConfig
 289              		.thumb
 290              		.thumb_func
 291              		.type	Injection_2_SaveConfig, %function
 292              	Injection_2_SaveConfig:
 293              	.LFB0:
 294              		.file 1 "Generated_Source\\PSoC5\\Injection_2_PM.c"
   1:Generated_Source\PSoC5/Injection_2_PM.c **** /*******************************************************************************
   2:Generated_Source\PSoC5/Injection_2_PM.c **** * File Name: Injection_2_PM.c
   3:Generated_Source\PSoC5/Injection_2_PM.c **** * Version 3.30
   4:Generated_Source\PSoC5/Injection_2_PM.c **** *
   5:Generated_Source\PSoC5/Injection_2_PM.c **** * Description:
   6:Generated_Source\PSoC5/Injection_2_PM.c **** *  This file provides the power management source code to API for the
   7:Generated_Source\PSoC5/Injection_2_PM.c **** *  PWM.
ARM GAS  C:\Users\Bruger\AppData\Local\Temp\ccCCOI7S.s 			page 22


   8:Generated_Source\PSoC5/Injection_2_PM.c **** *
   9:Generated_Source\PSoC5/Injection_2_PM.c **** * Note:
  10:Generated_Source\PSoC5/Injection_2_PM.c **** *
  11:Generated_Source\PSoC5/Injection_2_PM.c **** ********************************************************************************
  12:Generated_Source\PSoC5/Injection_2_PM.c **** * Copyright 2008-2014, Cypress Semiconductor Corporation.  All rights reserved.
  13:Generated_Source\PSoC5/Injection_2_PM.c **** * You may use this file only in accordance with the license, terms, conditions,
  14:Generated_Source\PSoC5/Injection_2_PM.c **** * disclaimers, and limitations in the end user license agreement accompanying
  15:Generated_Source\PSoC5/Injection_2_PM.c **** * the software package with which this file was provided.
  16:Generated_Source\PSoC5/Injection_2_PM.c **** *******************************************************************************/
  17:Generated_Source\PSoC5/Injection_2_PM.c **** 
  18:Generated_Source\PSoC5/Injection_2_PM.c **** #include "Injection_2.h"
  19:Generated_Source\PSoC5/Injection_2_PM.c **** 
  20:Generated_Source\PSoC5/Injection_2_PM.c **** static Injection_2_backupStruct Injection_2_backup;
  21:Generated_Source\PSoC5/Injection_2_PM.c **** 
  22:Generated_Source\PSoC5/Injection_2_PM.c **** 
  23:Generated_Source\PSoC5/Injection_2_PM.c **** /*******************************************************************************
  24:Generated_Source\PSoC5/Injection_2_PM.c **** * Function Name: Injection_2_SaveConfig
  25:Generated_Source\PSoC5/Injection_2_PM.c **** ********************************************************************************
  26:Generated_Source\PSoC5/Injection_2_PM.c **** *
  27:Generated_Source\PSoC5/Injection_2_PM.c **** * Summary:
  28:Generated_Source\PSoC5/Injection_2_PM.c **** *  Saves the current user configuration of the component.
  29:Generated_Source\PSoC5/Injection_2_PM.c **** *
  30:Generated_Source\PSoC5/Injection_2_PM.c **** * Parameters:
  31:Generated_Source\PSoC5/Injection_2_PM.c **** *  None
  32:Generated_Source\PSoC5/Injection_2_PM.c **** *
  33:Generated_Source\PSoC5/Injection_2_PM.c **** * Return:
  34:Generated_Source\PSoC5/Injection_2_PM.c **** *  None
  35:Generated_Source\PSoC5/Injection_2_PM.c **** *
  36:Generated_Source\PSoC5/Injection_2_PM.c **** * Global variables:
  37:Generated_Source\PSoC5/Injection_2_PM.c **** *  Injection_2_backup:  Variables of this global structure are modified to
  38:Generated_Source\PSoC5/Injection_2_PM.c **** *  store the values of non retention configuration registers when Sleep() API is
  39:Generated_Source\PSoC5/Injection_2_PM.c **** *  called.
  40:Generated_Source\PSoC5/Injection_2_PM.c **** *
  41:Generated_Source\PSoC5/Injection_2_PM.c **** *******************************************************************************/
  42:Generated_Source\PSoC5/Injection_2_PM.c **** void Injection_2_SaveConfig(void) 
  43:Generated_Source\PSoC5/Injection_2_PM.c **** {
 295              		.loc 1 43 0
 296              		.cfi_startproc
 297              		@ args = 0, pretend = 0, frame = 0
 298              		@ frame_needed = 0, uses_anonymous_args = 0
 299 0000 10B5     		push	{r4, lr}
 300              		.cfi_def_cfa_offset 8
 301              		.cfi_offset 4, -8
 302              		.cfi_offset 14, -4
  44:Generated_Source\PSoC5/Injection_2_PM.c **** 
  45:Generated_Source\PSoC5/Injection_2_PM.c ****     #if(!Injection_2_UsingFixedFunction)
  46:Generated_Source\PSoC5/Injection_2_PM.c ****         #if(!Injection_2_PWMModeIsCenterAligned)
  47:Generated_Source\PSoC5/Injection_2_PM.c ****             Injection_2_backup.PWMPeriod = Injection_2_ReadPeriod();
 303              		.loc 1 47 0
 304 0002 FFF7FEFF 		bl	Injection_2_ReadPeriod
 305              	.LVL0:
 306 0006 064C     		ldr	r4, .L2
 307 0008 A080     		strh	r0, [r4, #4]	@ movhi
  48:Generated_Source\PSoC5/Injection_2_PM.c ****         #endif /* (!Injection_2_PWMModeIsCenterAligned) */
  49:Generated_Source\PSoC5/Injection_2_PM.c ****         Injection_2_backup.PWMUdb = Injection_2_ReadCounter();
 308              		.loc 1 49 0
 309 000a FFF7FEFF 		bl	Injection_2_ReadCounter
ARM GAS  C:\Users\Bruger\AppData\Local\Temp\ccCCOI7S.s 			page 23


 310              	.LVL1:
  50:Generated_Source\PSoC5/Injection_2_PM.c ****         #if (Injection_2_UseStatus)
  51:Generated_Source\PSoC5/Injection_2_PM.c ****             Injection_2_backup.InterruptMaskValue = Injection_2_STATUS_MASK;
 311              		.loc 1 51 0
 312 000e 054B     		ldr	r3, .L2+4
  49:Generated_Source\PSoC5/Injection_2_PM.c ****         #if (Injection_2_UseStatus)
 313              		.loc 1 49 0
 314 0010 6080     		strh	r0, [r4, #2]	@ movhi
 315              		.loc 1 51 0
 316 0012 1B78     		ldrb	r3, [r3]	@ zero_extendqisi2
 317 0014 A371     		strb	r3, [r4, #6]
  52:Generated_Source\PSoC5/Injection_2_PM.c ****         #endif /* (Injection_2_UseStatus) */
  53:Generated_Source\PSoC5/Injection_2_PM.c **** 
  54:Generated_Source\PSoC5/Injection_2_PM.c ****         #if(Injection_2_DeadBandMode == Injection_2__B_PWM__DBM_256_CLOCKS || \
  55:Generated_Source\PSoC5/Injection_2_PM.c ****             Injection_2_DeadBandMode == Injection_2__B_PWM__DBM_2_4_CLOCKS)
  56:Generated_Source\PSoC5/Injection_2_PM.c ****             Injection_2_backup.PWMdeadBandValue = Injection_2_ReadDeadTime();
  57:Generated_Source\PSoC5/Injection_2_PM.c ****         #endif /*  deadband count is either 2-4 clocks or 256 clocks */
  58:Generated_Source\PSoC5/Injection_2_PM.c **** 
  59:Generated_Source\PSoC5/Injection_2_PM.c ****         #if(Injection_2_KillModeMinTime)
  60:Generated_Source\PSoC5/Injection_2_PM.c ****              Injection_2_backup.PWMKillCounterPeriod = Injection_2_ReadKillTime();
  61:Generated_Source\PSoC5/Injection_2_PM.c ****         #endif /* (Injection_2_KillModeMinTime) */
  62:Generated_Source\PSoC5/Injection_2_PM.c **** 
  63:Generated_Source\PSoC5/Injection_2_PM.c ****         #if(Injection_2_UseControl)
  64:Generated_Source\PSoC5/Injection_2_PM.c ****             Injection_2_backup.PWMControlRegister = Injection_2_ReadControlRegister();
 318              		.loc 1 64 0
 319 0016 FFF7FEFF 		bl	Injection_2_ReadControlRegister
 320              	.LVL2:
 321 001a E071     		strb	r0, [r4, #7]
 322 001c 10BD     		pop	{r4, pc}
 323              	.L3:
 324 001e 00BF     		.align	2
 325              	.L2:
 326 0020 00000000 		.word	.LANCHOR0
 327 0024 8D640040 		.word	1073767565
 328              		.cfi_endproc
 329              	.LFE0:
 330              		.size	Injection_2_SaveConfig, .-Injection_2_SaveConfig
 331              		.section	.text.Injection_2_RestoreConfig,"ax",%progbits
 332              		.align	1
 333              		.global	Injection_2_RestoreConfig
 334              		.thumb
 335              		.thumb_func
 336              		.type	Injection_2_RestoreConfig, %function
 337              	Injection_2_RestoreConfig:
 338              	.LFB1:
  65:Generated_Source\PSoC5/Injection_2_PM.c ****         #endif /* (Injection_2_UseControl) */
  66:Generated_Source\PSoC5/Injection_2_PM.c ****     #endif  /* (!Injection_2_UsingFixedFunction) */
  67:Generated_Source\PSoC5/Injection_2_PM.c **** }
  68:Generated_Source\PSoC5/Injection_2_PM.c **** 
  69:Generated_Source\PSoC5/Injection_2_PM.c **** 
  70:Generated_Source\PSoC5/Injection_2_PM.c **** /*******************************************************************************
  71:Generated_Source\PSoC5/Injection_2_PM.c **** * Function Name: Injection_2_RestoreConfig
  72:Generated_Source\PSoC5/Injection_2_PM.c **** ********************************************************************************
  73:Generated_Source\PSoC5/Injection_2_PM.c **** *
  74:Generated_Source\PSoC5/Injection_2_PM.c **** * Summary:
  75:Generated_Source\PSoC5/Injection_2_PM.c **** *  Restores the current user configuration of the component.
  76:Generated_Source\PSoC5/Injection_2_PM.c **** *
ARM GAS  C:\Users\Bruger\AppData\Local\Temp\ccCCOI7S.s 			page 24


  77:Generated_Source\PSoC5/Injection_2_PM.c **** * Parameters:
  78:Generated_Source\PSoC5/Injection_2_PM.c **** *  None
  79:Generated_Source\PSoC5/Injection_2_PM.c **** *
  80:Generated_Source\PSoC5/Injection_2_PM.c **** * Return:
  81:Generated_Source\PSoC5/Injection_2_PM.c **** *  None
  82:Generated_Source\PSoC5/Injection_2_PM.c **** *
  83:Generated_Source\PSoC5/Injection_2_PM.c **** * Global variables:
  84:Generated_Source\PSoC5/Injection_2_PM.c **** *  Injection_2_backup:  Variables of this global structure are used to
  85:Generated_Source\PSoC5/Injection_2_PM.c **** *  restore the values of non retention registers on wakeup from sleep mode.
  86:Generated_Source\PSoC5/Injection_2_PM.c **** *
  87:Generated_Source\PSoC5/Injection_2_PM.c **** *******************************************************************************/
  88:Generated_Source\PSoC5/Injection_2_PM.c **** void Injection_2_RestoreConfig(void) 
  89:Generated_Source\PSoC5/Injection_2_PM.c **** {
 339              		.loc 1 89 0
 340              		.cfi_startproc
 341              		@ args = 0, pretend = 0, frame = 0
 342              		@ frame_needed = 0, uses_anonymous_args = 0
 343 0000 10B5     		push	{r4, lr}
 344              		.cfi_def_cfa_offset 8
 345              		.cfi_offset 4, -8
 346              		.cfi_offset 14, -4
  90:Generated_Source\PSoC5/Injection_2_PM.c ****         #if(!Injection_2_UsingFixedFunction)
  91:Generated_Source\PSoC5/Injection_2_PM.c ****             #if(!Injection_2_PWMModeIsCenterAligned)
  92:Generated_Source\PSoC5/Injection_2_PM.c ****                 Injection_2_WritePeriod(Injection_2_backup.PWMPeriod);
 347              		.loc 1 92 0
 348 0002 074C     		ldr	r4, .L5
 349 0004 A088     		ldrh	r0, [r4, #4]
 350 0006 FFF7FEFF 		bl	Injection_2_WritePeriod
 351              	.LVL3:
  93:Generated_Source\PSoC5/Injection_2_PM.c ****             #endif /* (!Injection_2_PWMModeIsCenterAligned) */
  94:Generated_Source\PSoC5/Injection_2_PM.c **** 
  95:Generated_Source\PSoC5/Injection_2_PM.c ****             Injection_2_WriteCounter(Injection_2_backup.PWMUdb);
 352              		.loc 1 95 0
 353 000a 6088     		ldrh	r0, [r4, #2]
 354 000c FFF7FEFF 		bl	Injection_2_WriteCounter
 355              	.LVL4:
  96:Generated_Source\PSoC5/Injection_2_PM.c **** 
  97:Generated_Source\PSoC5/Injection_2_PM.c ****             #if (Injection_2_UseStatus)
  98:Generated_Source\PSoC5/Injection_2_PM.c ****                 Injection_2_STATUS_MASK = Injection_2_backup.InterruptMaskValue;
 356              		.loc 1 98 0
 357 0010 A279     		ldrb	r2, [r4, #6]	@ zero_extendqisi2
 358 0012 044B     		ldr	r3, .L5+4
 359 0014 1A70     		strb	r2, [r3]
  99:Generated_Source\PSoC5/Injection_2_PM.c ****             #endif /* (Injection_2_UseStatus) */
 100:Generated_Source\PSoC5/Injection_2_PM.c **** 
 101:Generated_Source\PSoC5/Injection_2_PM.c ****             #if(Injection_2_DeadBandMode == Injection_2__B_PWM__DBM_256_CLOCKS || \
 102:Generated_Source\PSoC5/Injection_2_PM.c ****                 Injection_2_DeadBandMode == Injection_2__B_PWM__DBM_2_4_CLOCKS)
 103:Generated_Source\PSoC5/Injection_2_PM.c ****                 Injection_2_WriteDeadTime(Injection_2_backup.PWMdeadBandValue);
 104:Generated_Source\PSoC5/Injection_2_PM.c ****             #endif /* deadband count is either 2-4 clocks or 256 clocks */
 105:Generated_Source\PSoC5/Injection_2_PM.c **** 
 106:Generated_Source\PSoC5/Injection_2_PM.c ****             #if(Injection_2_KillModeMinTime)
 107:Generated_Source\PSoC5/Injection_2_PM.c ****                 Injection_2_WriteKillTime(Injection_2_backup.PWMKillCounterPeriod);
 108:Generated_Source\PSoC5/Injection_2_PM.c ****             #endif /* (Injection_2_KillModeMinTime) */
 109:Generated_Source\PSoC5/Injection_2_PM.c **** 
 110:Generated_Source\PSoC5/Injection_2_PM.c ****             #if(Injection_2_UseControl)
 111:Generated_Source\PSoC5/Injection_2_PM.c ****                 Injection_2_WriteControlRegister(Injection_2_backup.PWMControlRegister);
 360              		.loc 1 111 0
ARM GAS  C:\Users\Bruger\AppData\Local\Temp\ccCCOI7S.s 			page 25


 361 0016 E079     		ldrb	r0, [r4, #7]	@ zero_extendqisi2
 112:Generated_Source\PSoC5/Injection_2_PM.c ****             #endif /* (Injection_2_UseControl) */
 113:Generated_Source\PSoC5/Injection_2_PM.c ****         #endif  /* (!Injection_2_UsingFixedFunction) */
 114:Generated_Source\PSoC5/Injection_2_PM.c ****     }
 362              		.loc 1 114 0
 363 0018 BDE81040 		pop	{r4, lr}
 364              		.cfi_restore 14
 365              		.cfi_restore 4
 366              		.cfi_def_cfa_offset 0
 111:Generated_Source\PSoC5/Injection_2_PM.c ****             #endif /* (Injection_2_UseControl) */
 367              		.loc 1 111 0
 368 001c FFF7FEBF 		b	Injection_2_WriteControlRegister
 369              	.LVL5:
 370              	.L6:
 371              		.align	2
 372              	.L5:
 373 0020 00000000 		.word	.LANCHOR0
 374 0024 8D640040 		.word	1073767565
 375              		.cfi_endproc
 376              	.LFE1:
 377              		.size	Injection_2_RestoreConfig, .-Injection_2_RestoreConfig
 378              		.section	.text.Injection_2_Sleep,"ax",%progbits
 379              		.align	1
 380              		.global	Injection_2_Sleep
 381              		.thumb
 382              		.thumb_func
 383              		.type	Injection_2_Sleep, %function
 384              	Injection_2_Sleep:
 385              	.LFB2:
 115:Generated_Source\PSoC5/Injection_2_PM.c **** 
 116:Generated_Source\PSoC5/Injection_2_PM.c **** 
 117:Generated_Source\PSoC5/Injection_2_PM.c **** /*******************************************************************************
 118:Generated_Source\PSoC5/Injection_2_PM.c **** * Function Name: Injection_2_Sleep
 119:Generated_Source\PSoC5/Injection_2_PM.c **** ********************************************************************************
 120:Generated_Source\PSoC5/Injection_2_PM.c **** *
 121:Generated_Source\PSoC5/Injection_2_PM.c **** * Summary:
 122:Generated_Source\PSoC5/Injection_2_PM.c **** *  Disables block's operation and saves the user configuration. Should be called
 123:Generated_Source\PSoC5/Injection_2_PM.c **** *  just prior to entering sleep.
 124:Generated_Source\PSoC5/Injection_2_PM.c **** *
 125:Generated_Source\PSoC5/Injection_2_PM.c **** * Parameters:
 126:Generated_Source\PSoC5/Injection_2_PM.c **** *  None
 127:Generated_Source\PSoC5/Injection_2_PM.c **** *
 128:Generated_Source\PSoC5/Injection_2_PM.c **** * Return:
 129:Generated_Source\PSoC5/Injection_2_PM.c **** *  None
 130:Generated_Source\PSoC5/Injection_2_PM.c **** *
 131:Generated_Source\PSoC5/Injection_2_PM.c **** * Global variables:
 132:Generated_Source\PSoC5/Injection_2_PM.c **** *  Injection_2_backup.PWMEnableState:  Is modified depending on the enable
 133:Generated_Source\PSoC5/Injection_2_PM.c **** *  state of the block before entering sleep mode.
 134:Generated_Source\PSoC5/Injection_2_PM.c **** *
 135:Generated_Source\PSoC5/Injection_2_PM.c **** *******************************************************************************/
 136:Generated_Source\PSoC5/Injection_2_PM.c **** void Injection_2_Sleep(void) 
 137:Generated_Source\PSoC5/Injection_2_PM.c **** {
 386              		.loc 1 137 0
 387              		.cfi_startproc
 388              		@ args = 0, pretend = 0, frame = 0
 389              		@ frame_needed = 0, uses_anonymous_args = 0
 390 0000 08B5     		push	{r3, lr}
ARM GAS  C:\Users\Bruger\AppData\Local\Temp\ccCCOI7S.s 			page 26


 391              		.cfi_def_cfa_offset 8
 392              		.cfi_offset 3, -8
 393              		.cfi_offset 14, -4
 138:Generated_Source\PSoC5/Injection_2_PM.c ****     #if(Injection_2_UseControl)
 139:Generated_Source\PSoC5/Injection_2_PM.c ****         if(Injection_2_CTRL_ENABLE == (Injection_2_CONTROL & Injection_2_CTRL_ENABLE))
 394              		.loc 1 139 0
 395 0002 074B     		ldr	r3, .L11
 396 0004 1B78     		ldrb	r3, [r3]	@ zero_extendqisi2
 397 0006 13F0800F 		tst	r3, #128
 398 000a 064B     		ldr	r3, .L11+4
 140:Generated_Source\PSoC5/Injection_2_PM.c ****         {
 141:Generated_Source\PSoC5/Injection_2_PM.c ****             /*Component is enabled */
 142:Generated_Source\PSoC5/Injection_2_PM.c ****             Injection_2_backup.PWMEnableState = 1u;
 399              		.loc 1 142 0
 400 000c 14BF     		ite	ne
 401 000e 0122     		movne	r2, #1
 143:Generated_Source\PSoC5/Injection_2_PM.c ****         }
 144:Generated_Source\PSoC5/Injection_2_PM.c ****         else
 145:Generated_Source\PSoC5/Injection_2_PM.c ****         {
 146:Generated_Source\PSoC5/Injection_2_PM.c ****             /* Component is disabled */
 147:Generated_Source\PSoC5/Injection_2_PM.c ****             Injection_2_backup.PWMEnableState = 0u;
 402              		.loc 1 147 0
 403 0010 0022     		moveq	r2, #0
 404 0012 1A70     		strb	r2, [r3]
 148:Generated_Source\PSoC5/Injection_2_PM.c ****         }
 149:Generated_Source\PSoC5/Injection_2_PM.c ****     #endif /* (Injection_2_UseControl) */
 150:Generated_Source\PSoC5/Injection_2_PM.c **** 
 151:Generated_Source\PSoC5/Injection_2_PM.c ****     /* Stop component */
 152:Generated_Source\PSoC5/Injection_2_PM.c ****     Injection_2_Stop();
 405              		.loc 1 152 0
 406 0014 FFF7FEFF 		bl	Injection_2_Stop
 407              	.LVL6:
 153:Generated_Source\PSoC5/Injection_2_PM.c **** 
 154:Generated_Source\PSoC5/Injection_2_PM.c ****     /* Save registers configuration */
 155:Generated_Source\PSoC5/Injection_2_PM.c ****     Injection_2_SaveConfig();
 156:Generated_Source\PSoC5/Injection_2_PM.c **** }
 408              		.loc 1 156 0
 409 0018 BDE80840 		pop	{r3, lr}
 410              		.cfi_restore 14
 411              		.cfi_restore 3
 412              		.cfi_def_cfa_offset 0
 155:Generated_Source\PSoC5/Injection_2_PM.c **** }
 413              		.loc 1 155 0
 414 001c FFF7FEBF 		b	Injection_2_SaveConfig
 415              	.LVL7:
 416              	.L12:
 417              		.align	2
 418              	.L11:
 419 0020 7D640040 		.word	1073767549
 420 0024 00000000 		.word	.LANCHOR0
 421              		.cfi_endproc
 422              	.LFE2:
 423              		.size	Injection_2_Sleep, .-Injection_2_Sleep
 424              		.section	.text.Injection_2_Wakeup,"ax",%progbits
 425              		.align	1
 426              		.global	Injection_2_Wakeup
 427              		.thumb
ARM GAS  C:\Users\Bruger\AppData\Local\Temp\ccCCOI7S.s 			page 27


 428              		.thumb_func
 429              		.type	Injection_2_Wakeup, %function
 430              	Injection_2_Wakeup:
 431              	.LFB3:
 157:Generated_Source\PSoC5/Injection_2_PM.c **** 
 158:Generated_Source\PSoC5/Injection_2_PM.c **** 
 159:Generated_Source\PSoC5/Injection_2_PM.c **** /*******************************************************************************
 160:Generated_Source\PSoC5/Injection_2_PM.c **** * Function Name: Injection_2_Wakeup
 161:Generated_Source\PSoC5/Injection_2_PM.c **** ********************************************************************************
 162:Generated_Source\PSoC5/Injection_2_PM.c **** *
 163:Generated_Source\PSoC5/Injection_2_PM.c **** * Summary:
 164:Generated_Source\PSoC5/Injection_2_PM.c **** *  Restores and enables the user configuration. Should be called just after
 165:Generated_Source\PSoC5/Injection_2_PM.c **** *  awaking from sleep.
 166:Generated_Source\PSoC5/Injection_2_PM.c **** *
 167:Generated_Source\PSoC5/Injection_2_PM.c **** * Parameters:
 168:Generated_Source\PSoC5/Injection_2_PM.c **** *  None
 169:Generated_Source\PSoC5/Injection_2_PM.c **** *
 170:Generated_Source\PSoC5/Injection_2_PM.c **** * Return:
 171:Generated_Source\PSoC5/Injection_2_PM.c **** *  None
 172:Generated_Source\PSoC5/Injection_2_PM.c **** *
 173:Generated_Source\PSoC5/Injection_2_PM.c **** * Global variables:
 174:Generated_Source\PSoC5/Injection_2_PM.c **** *  Injection_2_backup.pwmEnable:  Is used to restore the enable state of
 175:Generated_Source\PSoC5/Injection_2_PM.c **** *  block on wakeup from sleep mode.
 176:Generated_Source\PSoC5/Injection_2_PM.c **** *
 177:Generated_Source\PSoC5/Injection_2_PM.c **** *******************************************************************************/
 178:Generated_Source\PSoC5/Injection_2_PM.c **** void Injection_2_Wakeup(void) 
 179:Generated_Source\PSoC5/Injection_2_PM.c **** {
 432              		.loc 1 179 0
 433              		.cfi_startproc
 434              		@ args = 0, pretend = 0, frame = 0
 435              		@ frame_needed = 0, uses_anonymous_args = 0
 436 0000 08B5     		push	{r3, lr}
 437              		.cfi_def_cfa_offset 8
 438              		.cfi_offset 3, -8
 439              		.cfi_offset 14, -4
 180:Generated_Source\PSoC5/Injection_2_PM.c ****      /* Restore registers values */
 181:Generated_Source\PSoC5/Injection_2_PM.c ****     Injection_2_RestoreConfig();
 440              		.loc 1 181 0
 441 0002 FFF7FEFF 		bl	Injection_2_RestoreConfig
 442              	.LVL8:
 182:Generated_Source\PSoC5/Injection_2_PM.c **** 
 183:Generated_Source\PSoC5/Injection_2_PM.c ****     if(Injection_2_backup.PWMEnableState != 0u)
 443              		.loc 1 183 0
 444 0006 044B     		ldr	r3, .L16
 445 0008 1B78     		ldrb	r3, [r3]	@ zero_extendqisi2
 446 000a 1BB1     		cbz	r3, .L13
 184:Generated_Source\PSoC5/Injection_2_PM.c ****     {
 185:Generated_Source\PSoC5/Injection_2_PM.c ****         /* Enable component's operation */
 186:Generated_Source\PSoC5/Injection_2_PM.c ****         Injection_2_Enable();
 187:Generated_Source\PSoC5/Injection_2_PM.c ****     } /* Do nothing if component's block was disabled before */
 188:Generated_Source\PSoC5/Injection_2_PM.c **** 
 189:Generated_Source\PSoC5/Injection_2_PM.c **** }
 447              		.loc 1 189 0
 448 000c BDE80840 		pop	{r3, lr}
 449              		.cfi_remember_state
 450              		.cfi_restore 14
 451              		.cfi_restore 3
ARM GAS  C:\Users\Bruger\AppData\Local\Temp\ccCCOI7S.s 			page 28


 452              		.cfi_def_cfa_offset 0
 186:Generated_Source\PSoC5/Injection_2_PM.c ****     } /* Do nothing if component's block was disabled before */
 453              		.loc 1 186 0
 454 0010 FFF7FEBF 		b	Injection_2_Enable
 455              	.LVL9:
 456              	.L13:
 457              		.cfi_restore_state
 458 0014 08BD     		pop	{r3, pc}
 459              	.L17:
 460 0016 00BF     		.align	2
 461              	.L16:
 462 0018 00000000 		.word	.LANCHOR0
 463              		.cfi_endproc
 464              	.LFE3:
 465              		.size	Injection_2_Wakeup, .-Injection_2_Wakeup
 466              		.bss
 467              		.align	1
 468              		.set	.LANCHOR0,. + 0
 469              		.type	Injection_2_backup, %object
 470              		.size	Injection_2_backup, 8
 471              	Injection_2_backup:
 472 0000 00000000 		.space	8
 472      00000000 
 473              		.text
 474              	.Letext0:
 475              		.file 2 "Generated_Source\\PSoC5\\cytypes.h"
 476              		.file 3 "Generated_Source\\PSoC5\\Injection_2.h"