ARM GAS  C:\Users\Bruger\AppData\Local\Temp\ccAYdk0C.s 			page 1


   1              		.syntax unified
   2              		.cpu cortex-m3
   3              		.fpu softvfp
   4              		.eabi_attribute 20, 1
   5              		.eabi_attribute 21, 1
   6              		.eabi_attribute 23, 3
   7              		.eabi_attribute 24, 1
   8              		.eabi_attribute 25, 1
   9              		.eabi_attribute 26, 1
  10              		.eabi_attribute 30, 4
  11              		.eabi_attribute 34, 1
  12              		.eabi_attribute 18, 4
  13              		.thumb
  14              		.file	"InjectionCounter_1_PM.c"
  15              		.text
  16              	.Ltext0:
  17              		.section	.gnu.lto_.profile.ec4e25ed,"",%progbits
  18 0000 789C6366 		.ascii	"x\234cf```a\200\000F\206\014\031\000\001`\000\215"
  18      60606061 
  18      80004686 
  18      0C190001 
  18      60008D
  19              		.text
  20              		.section	.gnu.lto_.jmpfuncs.ec4e25ed,"",%progbits
  21 0000 789C6366 		.ascii	"x\234cf\300\016\244\2404\013\230db``\004#f\204\030\000"
  21      C00EA4A0 
  21      340B9864 
  21      62606004 
  21      23668418 
  22 0015 0544002D 		.ascii	"\005D\000-"
  23              		.text
  24              		.section	.gnu.lto_.inline.ec4e25ed,"",%progbits
  25 0000 789C6366 		.ascii	"x\234cf\300\016\252\2404\013\003\003\247\024#\003\023"
  25      C00EAAA0 
  25      340B0303 
  25      A7142303 
  25      13
  26 0011 CB027906 		.ascii	"\313\002y\006\266\005\362L 1&n8\201]\222q\202\037\224"
  26      B605F24C 
  26      2031266E 
  26      38815D92 
  26      71821F94 
  27 0025 6266E002 		.ascii	"bf\340\002)\340\332g\007W\300\310\005#X\0308\004\201"
  27      29E0DA67 
  27      0757C0C8 
  27      05235818 
  27      380481
  28 0038 926C1FF4 		.ascii	"\222l\037\364\260H2\000\000\232\325\012\004"
  28      B0483200 
  28      009AD50A 
  28      04
  29              		.text
  30              		.section	.gnu.lto_.pureconst.ec4e25ed,"",%progbits
  31 0000 789C6366 		.ascii	"x\234cf``\340d\200\000\026\006\011&\011f)\026\011\000"
  31      6060E064 
  31      80001606 
  31      09260966 
ARM GAS  C:\Users\Bruger\AppData\Local\Temp\ccAYdk0C.s 			page 2


  31      29160900 
  32 0014 02B7007C 		.ascii	"\002\267\000|"
  33              		.text
  34              		.section	.gnu.lto_InjectionCounter_1_SaveConfig.ec4e25ed,"",%progbits
  35 0000 789C7D90 		.ascii	"x\234}\220\277KBQ\024\307\317\367\276|\275\262!\032"
  35      BF4B4251 
  35      14C7CFF7 
  35      BE7CBDB2 
  35      211A
  36 0012 FD079C4C 		.ascii	"\375\007\234L\034\232\033\034\242\240\020\\\005\011"
  36      1C9A1B1C 
  36      A2A0105C 
  36      0509
  37 0020 7B430D0A 		.ascii	"{C\015\012\242\243\370^94\2254\005\375\000\203\310\362"
  37      A2A3F85E 
  37      39349534 
  37      05FD0083 
  37      C8F2
  38 0032 57B507AF 		.ascii	"W\265\007\2579(\302!\260\250\305\240\266\354\015\361"
  38      3928C221 
  38      B0A8C5A0 
  38      B6EC0DF1 
  39 0042 08B3739F 		.ascii	"\010\263s\237\233F\027\316\275\367\334\363\275\337\363"
  39      9B4617CE 
  39      BDF7DCF3 
  39      BDDFF3
  40 0051 B957A1E1 		.ascii	"\271W\241\341\341\343\250\201(\304+\024\202(\336\022"
  40      E1E3A881 
  40      28C42B14 
  40      8228DE12 
  41 0061 999A00E4 		.ascii	"\231\232\000\344\206@y\201<\336EG\240hUv\275\376c\303"
  41      86407981 
  41      3CDE4547 
  41      A0685576 
  41      BDFE63C3 
  42 0075 303E8E6E 		.ascii	"0>\216n\314\210\005G\020\331\242\357\203\023\370\211"
  42      CC880547 
  42      10D9A2EF 
  42      8313F889 
  43 0085 459D42F7 		.ascii	"E\235B\367\301\253\026X4\331\257\241\014\225\375\251"
  43      C1AB1658 
  43      34D9AFA1 
  43      0C95FDA9 
  44 0095 316519BD 		.ascii	"1e\031\275\236]\273nAS\310\021PybA\233C\266z\345\204"
  44      9E5DBB6E 
  44      4153C811 
  44      50796241 
  44      9B43B67A 
  45 00ab 57E5091B 		.ascii	"W\345\011\033\326UI\221\327\276\204\302\216\207\315"
  45      D6554991 
  45      D7BE84C2 
  45      8E87CD
  46 00ba ADBAC87D 		.ascii	"\255\272\310}\033\233\206\346\010\305\026l\206S\344"
  46      1B9B86E6 
  46      08C5166C 
  46      8653E4
  47 00c9 F8F608B5 		.ascii	"\370\366\010\265\260\276S\012J\355\240\320\323\225\315"
ARM GAS  C:\Users\Bruger\AppData\Local\Temp\ccAYdk0C.s 			page 3


  47      B0BE530A 
  47      4AEDA0D0 
  47      D395CD
  48 00d8 F9F4A57D 		.ascii	"\371\364\245}w\257\275\011>q\323\262Y\330\307\001\366"
  48      77AFBD09 
  48      3E71D3B2 
  48      59D8C701 
  48      F6
  49 00e9 4C43AA54 		.ascii	"LC\252T\234!\207\012|n\355\247\272}\251\006*\314n-8"
  49      9C21870A 
  49      7C6EEDA7 
  49      BA7DA906 
  49      2ACC6E2D 
  50 00fe 62145516 		.ascii	"b\024U\026~\272\357C\015\001\246!\011\327,M\364\341"
  50      7EBAEF43 
  50      0D01A621 
  50      09D72C4D 
  50      F4E1
  51 0110 867A6AB6 		.ascii	"\206zj\266|\020\352.\334X\037n\366_\270A\232\306\337"
  51      7C10EA2E 
  51      DC581F6E 
  51      F65FB841 
  51      9AC6DF
  52 0123 344B8E18 		.ascii	"4K\216\030\307\271K#\277\022\027\222F\245g\230\326\243"
  52      C7B94B23 
  52      BF121792 
  52      46A56798 
  52      D6A3
  53 0135 4736908C 		.ascii	"G6\220\214m\256\361\007\262spNO\352\351\345\214\276"
  53      6DAEF107 
  53      B273704E 
  53      4FEAE9E5 
  53      8CBE
  54 0147 128FA6B2 		.ascii	"\022\217\246\262\351\204\036\213DS\341\231\330|rMOd"
  54      E9841E8B 
  54      4453E199 
  54      D87C724D 
  54      4F64
  55 0159 5653C970 		.ascii	"VS\311p*\233\314\350\351x(\036Y\234N\320/\0312\251i"
  55      2A9BCCE8 
  55      E978281E 
  55      599C4ED0 
  55      2F1932A9 
  56              		.text
  57              		.section	.gnu.lto_InjectionCounter_1_RestoreConfig.ec4e25ed,"",%progbits
  58 0000 789C7D90 		.ascii	"x\234}\220\317K\002Q\020\307\347;\273m[^\242\223\370"
  58      CF4B0251 
  58      10C7E73B 
  58      BB6D5B5E 
  58      A293F8
  59 0013 0F78100B 		.ascii	"\017x\020\013\017\375\005B\321!\020\274\012\022\266"
  59      0FFD0542 
  59      D12110BC 
  59      0A12B6
  60 0022 873A2888 		.ascii	"\207:(\210\036\305\3350\350Tv\013\372\001\005\221\245"
  60      1EC5DD30 
  60      E854760B 
ARM GAS  C:\Users\Bruger\AppData\Local\Temp\ccAYdk0C.s 			page 4


  60      FA010591 
  60      A5
  61 0033 691674F6 		.ascii	"i\026t\366\037(\221\202\240\242.\006u\313\366\020K\230"
  61      1F289182 
  61      A0A22E06 
  61      75CBF610 
  61      4B98
  62 0045 BDB775B2 		.ascii	"\275\267u\262\037\017\346\315\233\231\357\233\3710\012"
  62      1F0FE6CD 
  62      9B99EF9B 
  62      F9300A
  63 0054 FD3C3E61 		.ascii	"\375<>a; \012\011\017\205\300\305\013\"Kg@>\010\224"
  63      3B200A09 
  63      0F85C0C5 
  63      0B224B67 
  63      403E0894 
  64 0068 67E4F1CC 		.ascii	"g\344\361\314\035F\261Q^\367\370\367L\323|\331=\365"
  64      1D46B151 
  64      5EF7F8F7 
  64      4CD37CD9 
  64      3DF5
  65 007a 2E791D26 		.ascii	".y\035&\262\371\253\015\366\341'\241\351\024\272\327"
  65      B2F9AB0D 
  65      F6E127A1 
  65      E914BAD7 
  66 008a 1EAD2034 		.ascii	"\036\255 4#_5\224\240\211\366T\033m\230\275\236}\276"
  66      235F3594 
  66      A089F654 
  66      1B6D98BD 
  66      9E7DBE
  67 009d 560A4063 		.ascii	"V\012@cr\030\252\270\204\242-L\216z\024\201\360\312"
  67      7218AAB8 
  67      84A22D4C 
  67      8E7A1481 
  67      F0CA
  68 00af 0D16CFEA 		.ascii	"\015\026\317\352MK\221\037\337X\316\335\276\\\251r\356"
  68      4D4B911F 
  68      DF58CEDD 
  68      BE5CA972 
  68      EE
  69 00c0 DD5C3675 		.ascii	"\335\\6u\207\225\256\354*\262\017\355fK\177b\221q\303"
  69      8795AEEC 
  69      2AB20FED 
  69      664B7F62 
  69      9171C3
  70 00d3 9255D8C4 		.ascii	"\222U\330\304\0266,S\252T\034 \207C\370\334\332Ge\365"
  70      16362C53 
  70      AA541C20 
  70      8743F8DC 
  70      DA4765F5 
  71 00e7 440B061C 		.ascii	"D\013\006\034\036@Yh^]fT\020\244;\250r\016\365O\321"
  71      1E405968 
  71      5E5D6654 
  71      10A43BA8 
  71      720EF54F 
  72 00fc 6C16D038 		.ascii	"l\026\3208B\216\004\203\303\203$\261:W\255o,\365O\254"
  72      428E0483 
ARM GAS  C:\Users\Bruger\AppData\Local\Temp\ccAYdk0C.s 			page 5


  72      C38324B1 
  72      3A57AD6F 
  72      2CF54FAC 
  73 0110 7E8EEA6F 		.ascii	"~\216\352o\034:j.\207\\\014\216\377\341\030\262\345"
  73      1C3A6A2E 
  73      875C0C8E 
  73      FFE118B2 
  73      E5
  74 0121 8A507739 		.ascii	"\212Pw9T\207\207\351\036V\343v\322\025\223\\\036\344"
  74      548787E9 
  74      1E56E376 
  74      D215935C 
  74      1EE4
  75 0133 D284667C 		.ascii	"\322\204f|\312H\032\351\331\2141\027\217\246\262\351"
  75      CA481AE9 
  75      D98C3117 
  75      8FA6B2E9 
  76 0143 84118B44 		.ascii	"\204\021\213DS\341\211\330tr\301Hd\346S\311p*\233\314"
  76      53E189D8 
  76      7472C148 
  76      64E653C9 
  76      702A9BCC 
  77 0157 18E97828 		.ascii	"\030\351x(\036\231\031K\320'\201\361\240>"
  77      1E99194B 
  77      D02781F1 
  77      A03E
  78              		.text
  79              		.section	.gnu.lto_InjectionCounter_1_Sleep.ec4e25ed,"",%progbits
  80 0000 789C8552 		.ascii	"x\234\205RMHTQ\024>\337y?3jh\264\022\227m\\Y\270h\031"
  80      4D485451 
  80      143EDF79 
  80      3F336A68 
  80      B412976D 
  81 0019 2E5C4441 		.ascii	".\\DA!\270\025\206\230\336\242\026ob\030\227\203\367"
  81      21B81586 
  81      98DEA216 
  81      6F621897 
  81      83F7
  82 002b 392F8A16 		.ascii	"9/\212\0265\325f\250&hQM\215\243\246\375,\204x\270\251"
  82      35D566A8 
  82      2668514D 
  82      8DA3A6FD 
  82      2C8478B8 
  83 0040 45181211 		.ascii	"E\030\022\021\210\030\204B\005\305\230a\276\304\246"
  83      88188442 
  83      05C59861 
  83      BEC4A6
  84 004f 73DF9B4A 		.ascii	"s\337\233J\214\352\301}\347\236s\277\373}\337=\367\032"
  84      8CEAC17D 
  84      E79E73BF 
  84      FB7DDF3D 
  84      F71A
  85 0061 F4E77750 		.ascii	"\364\347wP\306i&\352\225\010\233\300\3059\"/\311ll\264"
  85      C66926EA 
  85      95089BC0 
  85      C539222F 
  85      C96C6CB4 
ARM GAS  C:\Users\Bruger\AppData\Local\Temp\ccAYdk0C.s 			page 6


  86 0075 936A354B 		.ascii	"\223j5K}\244v\031\260\342\262\371sb\001zB\240\0216L"
  86      7DA47619 
  86      B0E2B2F9 
  86      7362017A 
  86      42A01136 
  87 008a 0B2378CF 		.ascii	"\013#x\317\253\214bP-\265u\337RJ\325/\317t\236\351\014"
  87      AB8C6250 
  87      2DB575DF 
  87      524AD52F 
  87      CF749EE9 
  88 009f 85798D63 		.ascii	"\205y\215c%\334A7\011f\325\337z\335f\373\202\331\035"
  88      25DC4137 
  88      0966D5DF 
  88      7ADD66FB 
  88      82D91D
  89 00b2 AFA1021B 		.ascii	"\257\241\002\033\022'\366\004\252\321\230\376x\251\262"
  89      1227F604 
  89      AAD198FE 
  89      78A9B2
  90 00c1 975B0C0A 		.ascii	"\227[\014\012\031\246\374\004\261,C\253\255H\"\321X"
  90      19A6FC04 
  90      B12C43AB 
  90      AD4822D1 
  90      58
  91 00d2 C0ECFAF9 		.ascii	"\300\354\372\371O\345'\320;\277\262!\244\037f\336\316"
  91      4FE527D0 
  91      3BBFB221 
  91      A41F66DE 
  91      CE
  92 00e3 25DF7128 		.ascii	"%\337q(\3113O\231Z\347\315\362\213\371\270D:\255}\253"
  92      C9334F99 
  92      5AE7CDF2 
  92      8BF9B844 
  92      3AAD7DAB 
  93 00f7 CDDA655C 		.ascii	"\315\332e\\\363|\204l\342.\272p\017]\242^E\031\264\200"
  93      F37C846C 
  93      E22EBA70 
  93      0F5DA25E 
  93      4519B480 
  94 010b D1A5B38B 		.ascii	"\321\245\263\213VLh\012'\275\202\377\274\3406\013\333"
  94      564C680A 
  94      27BD82FF 
  94      BCE0360B 
  94      DB
  95 011c E9C40CC6 		.ascii	"\351\304\014\306\364N\322\216\014\332h\027C\243\365"
  95      F44ED28E 
  95      0CDA6817 
  95      43A3F5
  96 012b C92F373B 		.ascii	"\311/7;4Z\2407^^\030\347\374\246:\247\222![[\372\214"
  96      345AA037 
  96      5E5E18E7 
  96      FCA63AA7 
  96      92215B5B 
  97 0141 DB09AC28 		.ascii	"\333\011\254(\255x\376uh?J\243l\324\220\307\270\246"
  97      AD78FE75 
  97      683F4AA3 
  97      6CD490C7 
ARM GAS  C:\Users\Bruger\AppData\Local\Temp\ccAYdk0C.s 			page 7


  97      B8A6
  98 0153 95B5EF63 		.ascii	"\225\265\357c\027\247\354\236\252\264(8\026r\002\023"
  98      17A7EC9E 
  98      AAB42838 
  98      16720213 
  99 0163 02FC1CB5 		.ascii	"\002\374\034\265\021\223\350\021\300\374\325\333\205"
  99      1193E811 
  99      C0FCD5DB 
  99      85
 100 0170 0ECD9500 		.ascii	"\016\315\225\000\341~df\205M*\365EV\352\353\377\261"
 100      E17E6466 
 100      854D2AF5 
 100      4556EAEB 
 100      FFB1
 101 0182 B2537BEA 		.ascii	"\262S{\352\037\332\323\277\265\037D\332\277\316\221"
 101      1FDAD3BF 
 101      B51F44DA 
 101      BFCE91
 102 0191 90D2C3A6 		.ascii	"\220\322\303\246\266\025]\314\"\012A\343)km\332)\236"
 102      B6155DCC 
 102      220A41E3 
 102      296B6DDA 
 102      299E
 103 01a3 5C63B964 		.ascii	"\\c\271d<B^.\265\2054\264\330\3727\244\356\361\343&"
 103      3C425E2E 
 103      B58534B4 
 103      D8FA37A4 
 103      EEF1E326 
 104 01b7 72095E70 		.ascii	"r\011^p\345H\204$\375\026\240\245\004\260\377\220\343"
 104      E5488424 
 104      FD16A0A5 
 104      04B0FF90 
 104      E3
 105 01c8 3AD9E339 		.ascii	":\331\3439\347Dj03\234M;C\003\203\231\376\003C\207\335"
 105      E7446A30 
 105      339C4D3B 
 105      43038399 
 105      FE034387 
 106 01dd 534E3A77 		.ascii	"SN:w2\343\366g\206\335\234\223M\365\246\006\216\356"
 106      32E3F667 
 106      86DD9C93 
 106      4DF5A606 
 106      8EEE
 107 01ef 4BD30F80 		.ascii	"K\323\017\200\271\364\277"
 107      B9F4BF
 108              		.text
 109              		.section	.gnu.lto_InjectionCounter_1_Wakeup.ec4e25ed,"",%progbits
 110 0000 789C7550 		.ascii	"x\234uP\275K\202A\034\376=\277\367z\261\214\214\246"
 110      BD4B8241 
 110      1CFE3DBF 
 110      F77AB18C 
 110      8CA6
 111 0012 E81F7008 		.ascii	"\350\037p\010\213\212\326\226\206\210\010\004\327@\302"
 111      8B8AD696 
 111      86880804 
 111      D740C2
 112 0021 DEA18657 		.ascii	"\336\241\206W\020m\023\3172h\252\250%(\333\"\373&\207"
ARM GAS  C:\Users\Bruger\AppData\Local\Temp\ccAYdk0C.s 			page 8


 112      106D13CF 
 112      3268AAA8 
 112      2528DB22 
 112      FB2687
 113 0034 66270387 		.ascii	"f'\003\207\242\"\212\350\003\242\300\266\314!$\312\356"
 113      A2228AE8 
 113      03A2C0B6 
 113      CC2124CA 
 113      EE
 114 0045 5E83A0E8 		.ascii	"^\203\240\350\340\370\335=\367|\360\234A\177W\217\332"
 114      E0F8DD3D 
 114      F77CF09C 
 114      417F578F 
 114      DA
 115 0056 9320EA52 		.ascii	"\223 \352R\023u\004^8&J\272\230\215\274\207d\203(\364"
 115      1375045E 
 115      38264ABA 
 115      988DBC87 
 115      648328F4 
 116 006a 916C3420 		.ascii	"\221l4 j\260\000\364\201@\0116\004\022x\346\022c!\267"
 116      6AB000F4 
 116      81400936 
 116      041278E6 
 116      126321B7 
 117 007e BDECF6AE 		.ascii	"\275\354\366\256K)_\036.ZgZ+LT\346\232?6\340%\305)\245"
 117      4B295F1E 
 117      2E5A675A 
 117      2B4C54E6 
 117      9A3F36E0 
 118 0096 3E2EDD66 		.ascii	">.\335fJq\232ko\310\300T\271\264\337\222\223\325j\371"
 118      4A719A6B 
 118      6FC8C054 
 118      B9B4DF92 
 118      93D56AF9 
 119 00aa 7231D3CD 		.ascii	"r1\323\315\246\240\012+\360Q\021t\316\023\263\236\306"
 119      A6A00A2B 
 119      F0511174 
 119      CE13B39E 
 119      C6
 120 00bb 0DA673A5 		.ascii	"\015\246s\245\002k\211\366Z;\237\333\343\370\273\234"
 120      026B89F6 
 120      5A3B9FDB 
 120      E3F8BB9C 
 121 00cb 95AE0A73 		.ascii	"\225\256\012sY+\260\211\270\322\032t\215\251\303\203"
 121      592BB089 
 121      B8D21A74 
 121      8DA9C383 
 122 00db DBB37ACD 		.ascii	"\333\263z\315}c\361\233->t\266B\357\037ON]EV\210s\315"
 122      7D63F19B 
 122      2D3E74B6 
 122      42EF1F4F 
 122      4E5D4556 
 123 00f2 2453AB48 		.ascii	"$S\253Hc%)5\253\016[\210c\033m\316\333\347\316|\326"
 123      63252935 
 123      AB0E5B88 
 123      631B6DCE 
 123      DBE7CE7C 
ARM GAS  C:\Users\Bruger\AppData\Local\Temp\ccAYdk0C.s 			page 9


 124 0107 F4B557D8 		.ascii	"\364\265W\330\304\216\342\274:\315\260\013\037] u5m"
 124      C48EE2BC 
 124      3ACDB00B 
 124      1F5D2075 
 124      356D
 125 0119 FF441DA5 		.ascii	"\377D\035\245\213Y\241M\001\302\236\226\223.aP\336\343"
 125      8B59A14D 
 125      01C29E96 
 125      932E6150 
 125      DEE3
 126 012b 74782F34 		.ascii	"tx/4\375\327A\231b\377\273\203\326\010\247\370\035\222"
 126      FDD74199 
 126      62FFBB83 
 126      D608A7F8 
 126      1D92
 127 013d B9A52147 		.ascii	"\271\245!GC\372[\240QE\355\034\260l+2\032\265\306\202"
 127      43FA5BA0 
 127      5145ED1C 
 127      B06C2B32 
 127      1AB5C682 
 128 0151 81702C12 		.ascii	"\201p,\022\262F\374\201p\177\357\310\240=a\205\242\343"
 128      B246FC81 
 128      707FEFC8 
 128      A03D6185 
 128      A2E3
 129 0163 61BB3F1C 		.ascii	"a\273?\034\263\243V$\330\025\364\017w\204\350\013\221"
 129      B3A35624 
 129      D815F40F 
 129      7784E80B 
 129      91
 130 0174 0597EF   		.ascii	"\005\227\357"
 131              		.text
 132              		.section	.gnu.lto_.symbol_nodes.ec4e25ed,"",%progbits
 133 0000 789C55CF 		.ascii	"x\234U\317\301\015\3020\014F\341\027;m\223\316\300\256"
 133      C10DC230 
 133      0C46E117 
 133      3B6D93CE 
 133      C0AE
 134 0012 7F0F1D80 		.ascii	"\177\017\035\200\011P\205X\203[\317\314\000\2109\020"
 134      09508558 
 134      835BCFCC 
 134      00883910 
 135 0022 69E16072 		.ascii	"i\341`ry\372\354\213\343\300\223\337\263$8\336@\342"
 135      79FAEC8B 
 135      E3C093DF 
 135      B32438DE 
 135      40E2
 136 0034 B4143A58 		.ascii	"\264\024:XLn\246\024\307\346\262?gyt\352\225\277f\232"
 136      4C6EA614 
 136      C7E6B23F 
 136      677974EA 
 136      95BF669A 
 137 0048 1A3B7591 		.ascii	"\032;u\221E}\344\240!\262\252D\216\252\201N\317\345"
 137      457DE4A0 
 137      21B2AA44 
 137      8EAA814E 
 137      CFE5
ARM GAS  C:\Users\Bruger\AppData\Local\Temp\ccAYdk0C.s 			page 10


 138 005a FE4EDE4E 		.ascii	"\376N\336N{m\265\302\272w`~\264ze\335\333~\2655\033"
 138      7B6DB5C2 
 138      BA77607E 
 138      B47A65DD 
 138      DB7EB535 
 139 006f E76D9F47 		.ascii	"\347m\237G\346\353\201\017I\340;G"
 139      E6EB810F 
 139      49E03B47 
 140              		.text
 141              		.section	.gnu.lto_.refs.ec4e25ed,"",%progbits
 142 0000 789C25C7 		.ascii	"x\234%\307\301\021\000 \020\203@H\3166\354\277Lu\344"
 142      C1110020 
 142      10834048 
 142      CE36ECBF 
 142      4C75E4
 143 0013 B514D8FC 		.ascii	"\265\024\330\374\202F'\017\330\364\216.\007\303\001"
 143      8246270F 
 143      D8F48E2E 
 143      07C301
 144 0022 07DF0052 		.ascii	"\007\337\000R"
 145              		.text
 146              		.section	.gnu.lto_.decls.ec4e25ed,"",%progbits
 147 0000 789C8D55 		.ascii	"x\234\215UkL\024W\024\236\273wY`X\250\251\011Z\222\326"
 147      6B4C1457 
 147      149EBB77 
 147      596058A8 
 147      A9095A92 
 148 0015 2D26F411 		.ascii	"-&\364\021b\365G\033\323?5!\215}\244\015\221\030\177"
 148      62F5471B 
 148      D33F3521 
 148      8D7DA40D 
 148      91187F
 149 0028 D484204E 		.ascii	"\324\204 N\225jX\262.M\375\325\001D\0366\010\250\005"
 149      956A58B2 
 149      2E4DFDD5 
 149      01441E36 
 149      08A805
 150 003b 89B66B40 		.ascii	"\211\266k@\001\201e}@\001\251<D@a\241U\344\241 \013"
 150      0181657D 
 150      4001A93C 
 150      444061A1 
 150      55E4A120 
 151 0050 A808BEA8 		.ascii	"\250\010\276\250Z\213\332v{\356\231\031v\306\314\266"
 151      5A8BDA76 
 151      7BEE9919 
 151      76C6CCB6 
 152 0060 9DE4ECCE 		.ascii	"\235\344\354\316\235\371\316w\276\357\334\307P\216\343"
 152      9DF9CE77 
 152      BEEFDCC7 
 152      508EE3
 153 006f 3A08C779 		.ascii	":\010\307y\341\012\015\346\270\367\015\034\027\000\317"
 153      E10A0DE6 
 153      B8F70D1C 
 153      1700CF
 154 007e 6239DFC5 		.ascii	"b9\337\305CTC8!\\\020'!\232 \332!:!.B\364B\364A\000"
 154      43544338 
 154      215C1027 
ARM GAS  C:\Users\Bruger\AppData\Local\Temp\ccAYdk0C.s 			page 11


 154      219A20DA 
 154      213A212E 
 155 0098 15779DD3 		.ascii	"\025w\235\323^,7D\346\264@\204Cx Z!& F!Z &!\032 \352"
 155      5E2C3744 
 155      E6B44084 
 155      4378205A 
 155      21262046 
 156 00b4 21400637 		.ascii	"!@\0067\0021\014Ae\216v\271\256^\015\247N\0155\367\024"
 156      02310C41 
 156      658E76B9 
 156      AE5E0DA7 
 156      4E0D35F7 
 157 00c9 44B7CC7D 		.ascii	"D\267\314}\203y\326\251\341\224\275t\372\251\341\222"
 157      8379D6A9 
 157      E194BD74 
 157      FAA9E192 
 158 00d9 7B112BF3 		.ascii	"{\021+\363\337\202\270\0131\253\252\305\370\357AT\312"
 158      DF82B80B 
 158      31ABAAC5 
 158      F8EF4154 
 158      CA
 159 00ea 1C8332B7 		.ascii	"\034\2032\267K\356Q\265\037n\326\323@\025\267\302\241"
 159      4BEE51B5 
 159      1F6ED6D3 
 159      4015B7C2 
 159      A1
 160 00fb E655F39D 		.ascii	"\346U\363\235\224\365\372\353\371o\006\32239\377\310"
 160      94F5FAEB 
 160      F96F06D2 
 160      3339FFC8 
 161 010b 7CDB40C2 		.ascii	"|\333@\302\370ElX2t\3631\205\241\2317\260a\375\323'"
 161      F8456C58 
 161      3274F331 
 161      85A19937 
 161      B061FDD3 
 162 0120 B5A62507 		.ascii	"\265\246%\007Dve\210\213\014$6\234\224\223\010RA\"\200"
 162      44766588 
 162      8B0C2436 
 162      9C949308 
 162      52412280 
 163 0134 B1922C81 		.ascii	"\261\222,\201\337/\214\022\323\336\331\241~B\015\204"
 163      DF2F8C12 
 163      D3DED9A1 
 163      7E420D84 
 164 0144 DD97164F 		.ascii	"\335\227\026O\014\360\321\307!+[lm5\372\312\355\253"
 164      0CF0D1C7 
 164      212B5B6C 
 164      6D35FACA 
 164      EDAB
 165 0156 6B7052CB 		.ascii	"kpR\313\017\242\3075\327\177z\304,V\210\255^\357\007"
 165      0FA2C735 
 165      D77F7AC4 
 165      2C5688AD 
 165      5EEF07
 166 0169 48458E13 		.ascii	"HE\216\023J\252H4C\262{L!\325\304\002i\305\323\027\207"
 166      4AAA4834 
 166      43B27B4C 
ARM GAS  C:\Users\Bruger\AppData\Local\Temp\ccAYdk0C.s 			page 12


 166      21D5C402 
 166      69C5D317 
 167 017e 83E806E4 		.ascii	"\203\350\006\344~T\332\330iF\012GI\251I\"\300\374\032"
 167      7E54DAD8 
 167      69460A47 
 167      49A94922 
 167      C0FC1A
 168 0191 557E8D92 		.ascii	"U~\215\222\357\304\374\264C\256\234@\372\015\346\027"
 168      EFC4FCB4 
 168      43AE9C40 
 168      FA0DE617 
 169 01a1 961C7031 		.ascii	"\226\034p1\011\016\227cD\223_\253\312\257U\362]\230"
 169      090E9763 
 169      44935FAB 
 169      CAAF55F2 
 169      5D98
 170 01b3 DFFFA4E8 		.ascii	"\337\377\244\350\307PZ@\220\300S\177\346\262Q\"p\036"
 170      C7505A40 
 170      90C0537F 
 170      E6B25122 
 170      701E
 171 01c5 55139C50 		.ascii	"U\023\234P\021\234P\010N\"\301`KVV\020\255\222\010\322"
 171      119C5008 
 171      4E22C160 
 171      4B565610 
 171      AD9208D2 
 172 01d9 8E9DF92E 		.ascii	"\216\235\371.\020\232\034\316cO\362zJ\332(\016\275\354"
 172      109A1CCE 
 172      634FF27A 
 172      4ADA280E 
 172      BDEC
 173 01eb B5616464 		.ascii	"\265add\377SJ\370\250lQL\027\347\012E\272\224#\321\021"
 173      FF534AF8 
 173      A86C514C 
 173      17E70A45 
 173      BA9423D1 
 174 0200 E4AD088E 		.ascii	"\344\255\010\216\374D\242\000\206E\310i\230\207:\230"
 174      FC44A200 
 174      8645C869 
 174      98873A98 
 175 0210 8732E8F2 		.ascii	"\2072\350\362\334L\346\331O2\3045\244\236\360\344\324"
 175      DC4CE6D9 
 175      4F32C435 
 175      A49EF0E4 
 175      D4
 176 0221 820CAC20 		.ascii	"\202\014\254 w\336]ua7QO%\203\372\346\262A3\227}\243"
 176      77DE5D75 
 176      6137514F 
 176      2583FAE6 
 176      B2413397 
 177 0237 E54703E8 		.ascii	"\345G\003\350eInc^ua k\2708\367\254\374\316\326\202"
 177      65496E63 
 177      5E756120 
 177      6BB838F7 
 177      ACFCCED6 
 178 024c 8CFCFDA2 		.ascii	"\214\374\375\242\307\353]\206I\244Qe\272Q1\335\204\246"
 178      C7EB5D86 
ARM GAS  C:\Users\Bruger\AppData\Local\Temp\ccAYdk0C.s 			page 13


 178      49A45165 
 178      BA5131DD 
 178      84A6
 179 025e 0F3FBCDF 		.ascii	"\017?\274\337\034L\313\015\032\323\026\311t\321\235"
 179      1C4CCB0D 
 179      1AD316C9 
 179      74D19D
 180 026d F9D34138 		.ascii	"\371\323A8\364z)s\375|\312Yn\"Q\274d\347\250d\247\005"
 180      F47A2973 
 180      FD7CCA59 
 180      6E2251BC 
 180      64E7A864 
 181 0283 349EF1D9 		.ascii	"4\236\361\331\261\310v\2603\340\"\240\"\214[\360@\316"
 181      B1C876B0 
 181      33E022A0 
 181      228C5BF0 
 181      40CE
 182 0295 42732C72 		.ascii	"Bs,rs\232\341\341\317\360\020*\345\354-\234\347\325"
 182      739AE1E1 
 182      CFF0102A 
 182      E5EC2D9C 
 182      E7D5
 183 02a7 C65B34C6 		.ascii	"\306[4\306[5\306+\307\353[\002\251S\222<]\2216lV\214"
 183      5B35C62B 
 183      C7EB5B02 
 183      A953923C 
 183      5D91366C 
 184 02bd 3FF84865 		.ascii	"?\370He\034\222H\233\312x\233b\274\035\215\347g\266"
 184      1C92489B 
 184      CA789B62 
 184      BC1D8DE7 
 184      67B6
 185 02cf E51B8D70 		.ascii	"\345\033\215pr`\223\201\033\236\365\026\035j\017\361"
 185      72609381 
 185      1B9EF516 
 185      1D6A0FF1 
 186 02df BB953A50 		.ascii	"\273\225:P\3059\"\313x8\326r\312H\335\222\214=\356s"
 186      C53922CB 
 186      7838D672 
 186      CA48DD92 
 186      8C3DEE73 
 187 02f3 334694E1 		.ascii	"3F\224\341q\226v\231\035\312\236\201\034r^%\342\274"
 187      71967699 
 187      1DCA9E81 
 187      1C725E25 
 187      E2BC
 188 0305 22A21345 		.ascii	"\"\242\023E4\227\315\336\017A\021-\013\"\246\016~\337"
 188      3497CDDE 
 188      0F41112D 
 188      0B22A60E 
 188      7EDF
 189 0317 1DE65744 		.ascii	"\035\346WD7\212\350RD\264W\215\236\012\242\277K\"\006"
 189      378AE852 
 189      44B4578D 
 189      9E0AA2BF 
 189      4B2206
 190 032a D2739A25 		.ascii	"\322s\232%\021\216\246\322\335\026y\325C\006\271\240"
ARM GAS  C:\Users\Bruger\AppData\Local\Temp\ccAYdk0C.s 			page 14


 190      118EA6D2 
 190      DD1679D5 
 190      4306B9A0 
 191 033a 92704191 		.ascii	"\222pA\221p\021%\\\353\0338\314\323\003\024\031\252"
 191      7011255C 
 191      EB1B38CC 
 191      D3031419 
 191      AA
 192 034b 2E8DDFA7 		.ascii	".\215\337\247\222\215\212\322N\237\015\266szT\034=\012"
 192      928D8AD2 
 192      4E9F0DB6 
 192      737A541C 
 192      3D0A
 193 035d 472F723C 		.ascii	"G/r<\357\360\266\232h\215\304Q\223v\305a\2228f\316\011"
 193      EFF0B69A 
 193      688DC451 
 193      9376C561 
 193      923866CE 
 194 0372 EDE9E29F 		.ascii	"\355\351\342\237l\365 \205[E\341V(\372\220b\374\217"
 194      6CF52085 
 194      5B45E156 
 194      28FA9062 
 194      FC8F
 195 0384 F1F6403C 		.ascii	"\361\366@<\343V\342\001\220\331\320\020\206g\234\211"
 195      E356E201 
 195      90D9D010 
 195      86679C89 
 196 0394 0D3B26BB 		.ascii	"\015;&\273\013Bi\227T`r&o\204\247\323\322 \277\363Q"
 196      0B426997 
 196      54607226 
 196      6F84A7D3 
 196      D220BFF3 
 197 03a9 96893E93 		.ascii	"\226\211>\223\006\031e\243\177S\232i\224\266\204\363"
 197      061965A3 
 197      7F539A69 
 197      94B684F3 
 198 03b9 B13B0419 		.ascii	"\261;\004\031-0\014x\332[\322\020F\"\027GFF9`izr\247"
 198      2D300C78 
 198      DA5BD210 
 198      46221747 
 198      46463960 
 199 03d1 3A43C4E2 		.ascii	":C\304\342\2258\373\227@\327\020Y\254\354\3407Y\243"
 199      9538FB97 
 199      40D71059 
 199      ACECE037 
 199      59A3
 200 03e3 DF861FAE 		.ascii	"\337\206\037\256\200MB\276(\256\261q\244\037\346\340"
 200      804D42BE 
 200      28AEB171 
 200      A41FE6E0 
 201 03f3 179C0306 		.ascii	"\027\234\003\006\005\033\344*,\346A\022IF \206I$\332"
 201      051BE42A 
 201      2CE64112 
 201      49462086 
 201      4924DA
 202 0406 41EEBCA9 		.ascii	"A\356\274\251\256\005\356\001\035\356+\214F\202\356"
 202      AE05EE01 
ARM GAS  C:\Users\Bruger\AppData\Local\Temp\ccAYdk0C.s 			page 15


 202      1DEE2B8C 
 202      4682EE
 203 0415 C9C88213 		.ascii	"\311\310\202\023v%\316\377e\031\272\260[\020\\\216`"
 203      7625CEFF 
 203      6519BAB0 
 203      5B105C8E 
 203      60
 204 0426 B6E53CD9 		.ascii	"\266\345<\331\245&\2210\010\247\264Q9:\014G\372\323"
 204      A5269130 
 204      08A7B451 
 204      393A0C47 
 204      FAD3
 205 0438 4B4249D4 		.ascii	"KBI\324b\304\035\214\011\"\243@\364\253o[\262$\274\364"
 205      62C41D8C 
 205      0922A340 
 205      F4AB6F5B 
 205      B224BCF4 
 206 044c 2C916BE0 		.ascii	",\221k\340\344\337\\\261\257\302_\231\327B\350!\251"
 206      E4DF5CB1 
 206      AFC25F99 
 206      D742E821 
 206      A9
 207 045d B7957513 		.ascii	"\267\225u\023e\241\313\217\210\242c\256\377\252\307"
 207      65A1CB8F 
 207      88A263AE 
 207      FFAAC7
 208 046c 90263AD2 		.ascii	"\220&:\322D\221-6,;&\225UulL\232lr\235,\207\354\246"
 208      44912D36 
 208      2C3B2695 
 208      55756C4C 
 208      9A6C729D 
 209 0484 C2EE6213 		.ascii	"\302\356b\023N..\370\2541\367\301\020s.;/\3623\304\340"
 209      4E2E2EF8 
 209      AC31F7C1 
 209      10732E3B 
 209      2FF233C4 
 210 0499 EE30DCBA 		.ascii	"\3560\334\272\320#2\216\311\036b\306d\370\007\364\203"
 210      D023328E 
 210      C91E62C6 
 210      64F807F4 
 210      83
 211 04aa 7DD7EB5E 		.ascii	"}\327\353^\322\240YI\037zBFO z\32434h\320\240\0334\334"
 211      D2A05949 
 211      1F7A4246 
 211      4F207AD4 
 211      333468D0 
 212 04c2 93327A12 		.ascii	"\2232z\022\321\307\334\315\315Z%\335\032\364\224\214"
 212      D1C7DCCD 
 212      CD5A25DD 
 212      1AF4948C 
 213 04d2 9E42F4AE 		.ascii	"\236B\364\256}m\205\274\006\335\241A\337\220\3217\030"
 213      7D6D85BC 
 213      06DDA141 
 213      DF90D137 
 213      18
 214 04e3 9AB695B7 		.ascii	"\232\266\225\267]\345I\004\037Q\014\337\333\371e\344"
 214      5DE54904 
ARM GAS  C:\Users\Bruger\AppData\Local\Temp\ccAYdk0C.s 			page 16


 214      1F510CDF 
 214      DBF965E4 
 215 04f3 16E1D919 		.ascii	"\026\341\331\031\011\007i\272H\213\303\224\317\007\207"
 215      090769BA 
 215      488BC394 
 215      CF0787
 216 0502 2F38320D 		.ascii	"/82\01547\201\206\241[o{\275\337z\245ko \002\330\017"
 216      34378186 
 216      A15B6F7B 
 216      BDDF7AA5 
 216      6B6F2002 
 217 0518 48108BF6 		.ascii	"H\020\213\366\224\005\321ziR\352\236\3446\206\362\331"
 217      9405D17A 
 217      6952EA9E 
 217      E43686F2 
 217      D9
 218 0529 ECD4F8EF 		.ascii	"\354\324\370\357/\022,\231\201\276\334\301`\351\033"
 218      2F122C99 
 218      81BEDCC1 
 218      60E91B
 219 0538 F662C61D 		.ascii	"\366b\306\035\277\337\260\363\017?\335\005\207\376,"
 219      BFDFB0F3 
 219      0F3FDD05 
 219      87FE2C
 220 0547 2CD7DBBE 		.ascii	",\327\333\276\3255C|\037\261\234\311\022\267Y\323\026"
 220      D535437C 
 220      1FB19CC9 
 220      12B759D3 
 220      16
 221 0558 06F6B5E5 		.ascii	"\006\366\265\345\256\334\226\273\330\304\252\332\314"
 221      AEDC96BB 
 221      D8C4AADA 
 221      CC
 222 0565 2CED7456 		.ascii	",\355tVj\232x\217\230\225\"p\313\275\372q\362WB\242"
 222      6A9A788F 
 222      98952270 
 222      CBBDFA71 
 222      F25742A2 
 223 0579 3DC99A1C 		.ascii	"=\311\232\034cMM\266\013\266\370U\361q\011_\0131\326"
 223      634D4DB6 
 223      0BB6F855 
 223      F171095F 
 223      0B31D6
 224 058c E42F93B6 		.ascii	"\344/\223\266\230\326~\276\336\022\303\275\263VH\026"
 224      98D67EBE 
 224      DE12C3BD 
 224      B3564816 
 225 059c 6C097661 		.ascii	"l\011vas|\2345\325\226(l\214\215\263\306\274\273Q'7"
 225      737C9C35 
 225      D596286C 
 225      8C8DB3C6 
 225      BCBB5127 
 226 05b1 F6B31589 		.ascii	"\366\263\025\211\234E\347\305:a\207\335j\223y\227\352"
 226      9C45E7C5 
 226      3A6187DD 
 226      6A937997 
 226      EA
ARM GAS  C:\Users\Bruger\AppData\Local\Temp\ccAYdk0C.s 			page 17


 227 05c2 55DD2E08 		.ascii	"U\335.\010)\257\350\274\330\220\260MHM\011HMJ\266\257"
 227      29AFE8BC 
 227      D890B04D 
 227      484D0948 
 227      4D4AB6AF 
 228 05d6 7EDD8F92 		.ascii	"~\335\217\222\304\235\366\235)\302\216\025[\271(\335"
 228      C49DF69D 
 228      29C28E15 
 228      5BB928DD 
 229 05e6 DA099BA1 		.ascii	"\332\011\233\241\260\335f\335\276N\330\222\264\003\236"
 229      B0DD66DD 
 229      BE4ED892 
 229      B4039E
 230 05f5 46FF6F4B 		.ascii	"F\377oK\300ib\265W\275\367\232_j\034\275\241\247\335"
 230      C06962B5 
 230      57BDF79A 
 230      5F6A1CBD 
 230      A1A7DD
 231 0608 9664175E 		.ascii	"\226d\027^(\275\314?\016\207K\364\232c\267\352\366\346"
 231      28BDCC3F 
 231      0E874BF4 
 231      9A63B7EA 
 231      F6E6
 232 061a C3E4844D 		.ascii	"\303\344\204M\333\005=\306M\011\211\333RS\342\354\266"
 232      DB053DC6 
 232      4D0989DB 
 232      5253E2EC 
 232      B6
 233 062b D444FBCB 		.ascii	"\324D\373\313\362c\011\035g\007\333\274\374h\375\346"
 233      F263091D 
 233      6707DBBC 
 233      FC68FDE6 
 234 063b 4DE1F2ED 		.ascii	"M\341\362\355\0132\365\312I\244F\233\260e\365?\301!"
 234      0B32F5CA 
 234      49A4469B 
 234      B065F53F 
 234      C121
 235 064d D435     		.ascii	"\3245"
 236              		.text
 237              		.section	.gnu.lto_.symtab.ec4e25ed,"",%progbits
 238 0000 496E6A65 		.ascii	"InjectionCounter_1_SaveConfig\000\000\000\000\000\000"
 238      6374696F 
 238      6E436F75 
 238      6E746572 
 238      5F315F53 
 239 0023 00000000 		.ascii	"\000\000\000\000\000\000\254\000\000\000InjectionCo"
 239      0000AC00 
 239      0000496E 
 239      6A656374 
 239      696F6E43 
 240 0038 756E7465 		.ascii	"unter_1_RestoreConfig\000\000\000\000\000\000\000\000"
 240      725F315F 
 240      52657374 
 240      6F726543 
 240      6F6E6669 
 241 0055 00000000 		.ascii	"\000\000\000\000\256\000\000\000InjectionCounter_1_"
 241      AE000000 
ARM GAS  C:\Users\Bruger\AppData\Local\Temp\ccAYdk0C.s 			page 18


 241      496E6A65 
 241      6374696F 
 241      6E436F75 
 242 0070 536C6565 		.ascii	"Sleep\000\000\000\000\000\000\000\000\000\000\000\000"
 242      70000000 
 242      00000000 
 242      00000000 
 242      00
 243 0081 B0000000 		.ascii	"\260\000\000\000InjectionCounter_1_Wakeup\000\000\000"
 243      496E6A65 
 243      6374696F 
 243      6E436F75 
 243      6E746572 
 244 00a1 00000000 		.ascii	"\000\000\000\000\000\000\000\000\000\262\000\000\000"
 244      00000000 
 244      00B20000 
 244      00
 245 00ae 496E6A65 		.ascii	"InjectionCounter_1_ReadControlRegister\000\000\002\000"
 245      6374696F 
 245      6E436F75 
 245      6E746572 
 245      5F315F52 
 246 00d8 00000000 		.ascii	"\000\000\000\000\000\000\000\000\272\000\000\000Inj"
 246      00000000 
 246      BA000000 
 246      496E6A
 247 00e7 65637469 		.ascii	"ectionCounter_1_ReadCounter\000\000\002\000\000\000"
 247      6F6E436F 
 247      756E7465 
 247      725F315F 
 247      52656164 
 248 0108 00000000 		.ascii	"\000\000\000\000\000\000\302\000\000\000InjectionCo"
 248      0000C200 
 248      0000496E 
 248      6A656374 
 248      696F6E43 
 249 011d 756E7465 		.ascii	"unter_1_WriteControlRegister\000\000\002\000\000\000"
 249      725F315F 
 249      57726974 
 249      65436F6E 
 249      74726F6C 
 250 013f 00000000 		.ascii	"\000\000\000\000\000\000\306\000\000\000InjectionCo"
 250      0000C600 
 250      0000496E 
 250      6A656374 
 250      696F6E43 
 251 0154 756E7465 		.ascii	"unter_1_WriteCounter\000\000\002\000\000\000\000\000"
 251      725F315F 
 251      57726974 
 251      65436F75 
 251      6E746572 
 252 0170 00000000 		.ascii	"\000\000\000\000\312\000\000\000InjectionCounter_1_"
 252      CA000000 
 252      496E6A65 
 252      6374696F 
 252      6E436F75 
 253 018b 53746F70 		.ascii	"Stop\000\000\002\000\000\000\000\000\000\000\000\000"
ARM GAS  C:\Users\Bruger\AppData\Local\Temp\ccAYdk0C.s 			page 19


 253      00000200 
 253      00000000 
 253      00000000 
 254 019b CC000000 		.ascii	"\314\000\000\000InjectionCounter_1_Enable\000\000\002"
 254      496E6A65 
 254      6374696F 
 254      6E436F75 
 254      6E746572 
 255 01bb 00000000 		.ascii	"\000\000\000\000\000\000\000\000\000\316\000\000\000"
 255      00000000 
 255      00CE0000 
 255      00
 256              		.text
 257              		.section	.gnu.lto_.opts,"",%progbits
 258 0000 272D666E 		.ascii	"'-fno-trapv' '-mcpu=cortex-m3' '-mthumb' '-g' '-Os'"
 258      6F2D7472 
 258      61707627 
 258      20272D6D 
 258      6370753D 
 259 0033 20272D66 		.ascii	" '-ffunction-sections' '-finline-functions' '-flto'"
 259      66756E63 
 259      74696F6E 
 259      2D736563 
 259      74696F6E 
 260 0066 20272D66 		.ascii	" '-ffat-lto-objects'\000"
 260      6661742D 
 260      6C746F2D 
 260      6F626A65 
 260      63747327 
 261              		.text
 262              		.cfi_sections	.debug_frame
 263              		.section	.text.InjectionCounter_1_SaveConfig,"ax",%progbits
 264              		.align	1
 265              		.global	InjectionCounter_1_SaveConfig
 266              		.thumb
 267              		.thumb_func
 268              		.type	InjectionCounter_1_SaveConfig, %function
 269              	InjectionCounter_1_SaveConfig:
 270              	.LFB0:
 271              		.file 1 "Generated_Source\\PSoC5\\InjectionCounter_1_PM.c"
   1:Generated_Source\PSoC5/InjectionCounter_1_PM.c **** /*******************************************************************************
   2:Generated_Source\PSoC5/InjectionCounter_1_PM.c **** * File Name: InjectionCounter_1_PM.c  
   3:Generated_Source\PSoC5/InjectionCounter_1_PM.c **** * Version 3.0
   4:Generated_Source\PSoC5/InjectionCounter_1_PM.c **** *
   5:Generated_Source\PSoC5/InjectionCounter_1_PM.c **** *  Description:
   6:Generated_Source\PSoC5/InjectionCounter_1_PM.c **** *    This file provides the power management source code to API for the
   7:Generated_Source\PSoC5/InjectionCounter_1_PM.c **** *    Counter.  
   8:Generated_Source\PSoC5/InjectionCounter_1_PM.c **** *
   9:Generated_Source\PSoC5/InjectionCounter_1_PM.c **** *   Note:
  10:Generated_Source\PSoC5/InjectionCounter_1_PM.c **** *     None
  11:Generated_Source\PSoC5/InjectionCounter_1_PM.c **** *
  12:Generated_Source\PSoC5/InjectionCounter_1_PM.c **** ********************************************************************************
  13:Generated_Source\PSoC5/InjectionCounter_1_PM.c **** * Copyright 2008-2012, Cypress Semiconductor Corporation.  All rights reserved.
  14:Generated_Source\PSoC5/InjectionCounter_1_PM.c **** * You may use this file only in accordance with the license, terms, conditions, 
  15:Generated_Source\PSoC5/InjectionCounter_1_PM.c **** * disclaimers, and limitations in the end user license agreement accompanying 
  16:Generated_Source\PSoC5/InjectionCounter_1_PM.c **** * the software package with which this file was provided.
  17:Generated_Source\PSoC5/InjectionCounter_1_PM.c **** *******************************************************************************/
ARM GAS  C:\Users\Bruger\AppData\Local\Temp\ccAYdk0C.s 			page 20


  18:Generated_Source\PSoC5/InjectionCounter_1_PM.c **** 
  19:Generated_Source\PSoC5/InjectionCounter_1_PM.c **** #include "InjectionCounter_1.h"
  20:Generated_Source\PSoC5/InjectionCounter_1_PM.c **** 
  21:Generated_Source\PSoC5/InjectionCounter_1_PM.c **** static InjectionCounter_1_backupStruct InjectionCounter_1_backup;
  22:Generated_Source\PSoC5/InjectionCounter_1_PM.c **** 
  23:Generated_Source\PSoC5/InjectionCounter_1_PM.c **** 
  24:Generated_Source\PSoC5/InjectionCounter_1_PM.c **** /*******************************************************************************
  25:Generated_Source\PSoC5/InjectionCounter_1_PM.c **** * Function Name: InjectionCounter_1_SaveConfig
  26:Generated_Source\PSoC5/InjectionCounter_1_PM.c **** ********************************************************************************
  27:Generated_Source\PSoC5/InjectionCounter_1_PM.c **** * Summary:
  28:Generated_Source\PSoC5/InjectionCounter_1_PM.c **** *     Save the current user configuration
  29:Generated_Source\PSoC5/InjectionCounter_1_PM.c **** *
  30:Generated_Source\PSoC5/InjectionCounter_1_PM.c **** * Parameters:  
  31:Generated_Source\PSoC5/InjectionCounter_1_PM.c **** *  void
  32:Generated_Source\PSoC5/InjectionCounter_1_PM.c **** *
  33:Generated_Source\PSoC5/InjectionCounter_1_PM.c **** * Return: 
  34:Generated_Source\PSoC5/InjectionCounter_1_PM.c **** *  void
  35:Generated_Source\PSoC5/InjectionCounter_1_PM.c **** *
  36:Generated_Source\PSoC5/InjectionCounter_1_PM.c **** * Global variables:
  37:Generated_Source\PSoC5/InjectionCounter_1_PM.c **** *  InjectionCounter_1_backup:  Variables of this global structure are modified to 
  38:Generated_Source\PSoC5/InjectionCounter_1_PM.c **** *  store the values of non retention configuration registers when Sleep() API is 
  39:Generated_Source\PSoC5/InjectionCounter_1_PM.c **** *  called.
  40:Generated_Source\PSoC5/InjectionCounter_1_PM.c **** *
  41:Generated_Source\PSoC5/InjectionCounter_1_PM.c **** *******************************************************************************/
  42:Generated_Source\PSoC5/InjectionCounter_1_PM.c **** void InjectionCounter_1_SaveConfig(void) 
  43:Generated_Source\PSoC5/InjectionCounter_1_PM.c **** {
 272              		.loc 1 43 0
 273              		.cfi_startproc
 274              		@ args = 0, pretend = 0, frame = 0
 275              		@ frame_needed = 0, uses_anonymous_args = 0
 276 0000 10B5     		push	{r4, lr}
 277              		.cfi_def_cfa_offset 8
 278              		.cfi_offset 4, -8
 279              		.cfi_offset 14, -4
  44:Generated_Source\PSoC5/InjectionCounter_1_PM.c ****     #if (!InjectionCounter_1_UsingFixedFunction)
  45:Generated_Source\PSoC5/InjectionCounter_1_PM.c **** 
  46:Generated_Source\PSoC5/InjectionCounter_1_PM.c ****         InjectionCounter_1_backup.CounterUdb = InjectionCounter_1_ReadCounter();
 280              		.loc 1 46 0
 281 0002 FFF7FEFF 		bl	InjectionCounter_1_ReadCounter
 282              	.LVL0:
 283 0006 034C     		ldr	r4, .L2
 284 0008 6080     		strh	r0, [r4, #2]	@ movhi
  47:Generated_Source\PSoC5/InjectionCounter_1_PM.c **** 
  48:Generated_Source\PSoC5/InjectionCounter_1_PM.c ****         #if(!InjectionCounter_1_ControlRegRemoved)
  49:Generated_Source\PSoC5/InjectionCounter_1_PM.c ****             InjectionCounter_1_backup.CounterControlRegister = InjectionCounter_1_ReadControlRegist
 285              		.loc 1 49 0
 286 000a FFF7FEFF 		bl	InjectionCounter_1_ReadControlRegister
 287              	.LVL1:
 288 000e 2071     		strb	r0, [r4, #4]
 289 0010 10BD     		pop	{r4, pc}
 290              	.L3:
 291 0012 00BF     		.align	2
 292              	.L2:
 293 0014 00000000 		.word	.LANCHOR0
 294              		.cfi_endproc
 295              	.LFE0:
 296              		.size	InjectionCounter_1_SaveConfig, .-InjectionCounter_1_SaveConfig
ARM GAS  C:\Users\Bruger\AppData\Local\Temp\ccAYdk0C.s 			page 21


 297              		.section	.text.InjectionCounter_1_RestoreConfig,"ax",%progbits
 298              		.align	1
 299              		.global	InjectionCounter_1_RestoreConfig
 300              		.thumb
 301              		.thumb_func
 302              		.type	InjectionCounter_1_RestoreConfig, %function
 303              	InjectionCounter_1_RestoreConfig:
 304              	.LFB1:
  50:Generated_Source\PSoC5/InjectionCounter_1_PM.c ****         #endif /* (!InjectionCounter_1_ControlRegRemoved) */
  51:Generated_Source\PSoC5/InjectionCounter_1_PM.c **** 
  52:Generated_Source\PSoC5/InjectionCounter_1_PM.c ****     #endif /* (!InjectionCounter_1_UsingFixedFunction) */
  53:Generated_Source\PSoC5/InjectionCounter_1_PM.c **** }
  54:Generated_Source\PSoC5/InjectionCounter_1_PM.c **** 
  55:Generated_Source\PSoC5/InjectionCounter_1_PM.c **** 
  56:Generated_Source\PSoC5/InjectionCounter_1_PM.c **** /*******************************************************************************
  57:Generated_Source\PSoC5/InjectionCounter_1_PM.c **** * Function Name: InjectionCounter_1_RestoreConfig
  58:Generated_Source\PSoC5/InjectionCounter_1_PM.c **** ********************************************************************************
  59:Generated_Source\PSoC5/InjectionCounter_1_PM.c **** *
  60:Generated_Source\PSoC5/InjectionCounter_1_PM.c **** * Summary:
  61:Generated_Source\PSoC5/InjectionCounter_1_PM.c **** *  Restores the current user configuration.
  62:Generated_Source\PSoC5/InjectionCounter_1_PM.c **** *
  63:Generated_Source\PSoC5/InjectionCounter_1_PM.c **** * Parameters:  
  64:Generated_Source\PSoC5/InjectionCounter_1_PM.c **** *  void
  65:Generated_Source\PSoC5/InjectionCounter_1_PM.c **** *
  66:Generated_Source\PSoC5/InjectionCounter_1_PM.c **** * Return: 
  67:Generated_Source\PSoC5/InjectionCounter_1_PM.c **** *  void
  68:Generated_Source\PSoC5/InjectionCounter_1_PM.c **** *
  69:Generated_Source\PSoC5/InjectionCounter_1_PM.c **** * Global variables:
  70:Generated_Source\PSoC5/InjectionCounter_1_PM.c **** *  InjectionCounter_1_backup:  Variables of this global structure are used to 
  71:Generated_Source\PSoC5/InjectionCounter_1_PM.c **** *  restore the values of non retention registers on wakeup from sleep mode.
  72:Generated_Source\PSoC5/InjectionCounter_1_PM.c **** *
  73:Generated_Source\PSoC5/InjectionCounter_1_PM.c **** *******************************************************************************/
  74:Generated_Source\PSoC5/InjectionCounter_1_PM.c **** void InjectionCounter_1_RestoreConfig(void) 
  75:Generated_Source\PSoC5/InjectionCounter_1_PM.c **** {      
 305              		.loc 1 75 0
 306              		.cfi_startproc
 307              		@ args = 0, pretend = 0, frame = 0
 308              		@ frame_needed = 0, uses_anonymous_args = 0
 309 0000 10B5     		push	{r4, lr}
 310              		.cfi_def_cfa_offset 8
 311              		.cfi_offset 4, -8
 312              		.cfi_offset 14, -4
  76:Generated_Source\PSoC5/InjectionCounter_1_PM.c ****     #if (!InjectionCounter_1_UsingFixedFunction)
  77:Generated_Source\PSoC5/InjectionCounter_1_PM.c **** 
  78:Generated_Source\PSoC5/InjectionCounter_1_PM.c ****        InjectionCounter_1_WriteCounter(InjectionCounter_1_backup.CounterUdb);
 313              		.loc 1 78 0
 314 0002 044C     		ldr	r4, .L5
 315 0004 6088     		ldrh	r0, [r4, #2]
 316 0006 FFF7FEFF 		bl	InjectionCounter_1_WriteCounter
 317              	.LVL2:
  79:Generated_Source\PSoC5/InjectionCounter_1_PM.c **** 
  80:Generated_Source\PSoC5/InjectionCounter_1_PM.c ****         #if(!InjectionCounter_1_ControlRegRemoved)
  81:Generated_Source\PSoC5/InjectionCounter_1_PM.c ****             InjectionCounter_1_WriteControlRegister(InjectionCounter_1_backup.CounterControlRegiste
 318              		.loc 1 81 0
 319 000a 2079     		ldrb	r0, [r4, #4]	@ zero_extendqisi2
  82:Generated_Source\PSoC5/InjectionCounter_1_PM.c ****         #endif /* (!InjectionCounter_1_ControlRegRemoved) */
  83:Generated_Source\PSoC5/InjectionCounter_1_PM.c **** 
ARM GAS  C:\Users\Bruger\AppData\Local\Temp\ccAYdk0C.s 			page 22


  84:Generated_Source\PSoC5/InjectionCounter_1_PM.c ****     #endif /* (!InjectionCounter_1_UsingFixedFunction) */
  85:Generated_Source\PSoC5/InjectionCounter_1_PM.c **** }
 320              		.loc 1 85 0
 321 000c BDE81040 		pop	{r4, lr}
 322              		.cfi_restore 14
 323              		.cfi_restore 4
 324              		.cfi_def_cfa_offset 0
  81:Generated_Source\PSoC5/InjectionCounter_1_PM.c ****         #endif /* (!InjectionCounter_1_ControlRegRemoved) */
 325              		.loc 1 81 0
 326 0010 FFF7FEBF 		b	InjectionCounter_1_WriteControlRegister
 327              	.LVL3:
 328              	.L6:
 329              		.align	2
 330              	.L5:
 331 0014 00000000 		.word	.LANCHOR0
 332              		.cfi_endproc
 333              	.LFE1:
 334              		.size	InjectionCounter_1_RestoreConfig, .-InjectionCounter_1_RestoreConfig
 335              		.section	.text.InjectionCounter_1_Sleep,"ax",%progbits
 336              		.align	1
 337              		.global	InjectionCounter_1_Sleep
 338              		.thumb
 339              		.thumb_func
 340              		.type	InjectionCounter_1_Sleep, %function
 341              	InjectionCounter_1_Sleep:
 342              	.LFB2:
  86:Generated_Source\PSoC5/InjectionCounter_1_PM.c **** 
  87:Generated_Source\PSoC5/InjectionCounter_1_PM.c **** 
  88:Generated_Source\PSoC5/InjectionCounter_1_PM.c **** /*******************************************************************************
  89:Generated_Source\PSoC5/InjectionCounter_1_PM.c **** * Function Name: InjectionCounter_1_Sleep
  90:Generated_Source\PSoC5/InjectionCounter_1_PM.c **** ********************************************************************************
  91:Generated_Source\PSoC5/InjectionCounter_1_PM.c **** * Summary:
  92:Generated_Source\PSoC5/InjectionCounter_1_PM.c **** *     Stop and Save the user configuration
  93:Generated_Source\PSoC5/InjectionCounter_1_PM.c **** *
  94:Generated_Source\PSoC5/InjectionCounter_1_PM.c **** * Parameters:  
  95:Generated_Source\PSoC5/InjectionCounter_1_PM.c **** *  void
  96:Generated_Source\PSoC5/InjectionCounter_1_PM.c **** *
  97:Generated_Source\PSoC5/InjectionCounter_1_PM.c **** * Return: 
  98:Generated_Source\PSoC5/InjectionCounter_1_PM.c **** *  void
  99:Generated_Source\PSoC5/InjectionCounter_1_PM.c **** *
 100:Generated_Source\PSoC5/InjectionCounter_1_PM.c **** * Global variables:
 101:Generated_Source\PSoC5/InjectionCounter_1_PM.c **** *  InjectionCounter_1_backup.enableState:  Is modified depending on the enable 
 102:Generated_Source\PSoC5/InjectionCounter_1_PM.c **** *  state of the block before entering sleep mode.
 103:Generated_Source\PSoC5/InjectionCounter_1_PM.c **** *
 104:Generated_Source\PSoC5/InjectionCounter_1_PM.c **** *******************************************************************************/
 105:Generated_Source\PSoC5/InjectionCounter_1_PM.c **** void InjectionCounter_1_Sleep(void) 
 106:Generated_Source\PSoC5/InjectionCounter_1_PM.c **** {
 343              		.loc 1 106 0
 344              		.cfi_startproc
 345              		@ args = 0, pretend = 0, frame = 0
 346              		@ frame_needed = 0, uses_anonymous_args = 0
 347 0000 08B5     		push	{r3, lr}
 348              		.cfi_def_cfa_offset 8
 349              		.cfi_offset 3, -8
 350              		.cfi_offset 14, -4
 107:Generated_Source\PSoC5/InjectionCounter_1_PM.c ****     #if(!InjectionCounter_1_ControlRegRemoved)
 108:Generated_Source\PSoC5/InjectionCounter_1_PM.c ****         /* Save Counter's enable state */
ARM GAS  C:\Users\Bruger\AppData\Local\Temp\ccAYdk0C.s 			page 23


 109:Generated_Source\PSoC5/InjectionCounter_1_PM.c ****         if(InjectionCounter_1_CTRL_ENABLE == (InjectionCounter_1_CONTROL & InjectionCounter_1_CTRL_
 351              		.loc 1 109 0
 352 0002 074B     		ldr	r3, .L11
 353 0004 1B78     		ldrb	r3, [r3]	@ zero_extendqisi2
 354 0006 13F0800F 		tst	r3, #128
 355 000a 064B     		ldr	r3, .L11+4
 110:Generated_Source\PSoC5/InjectionCounter_1_PM.c ****         {
 111:Generated_Source\PSoC5/InjectionCounter_1_PM.c ****             /* Counter is enabled */
 112:Generated_Source\PSoC5/InjectionCounter_1_PM.c ****             InjectionCounter_1_backup.CounterEnableState = 1u;
 356              		.loc 1 112 0
 357 000c 14BF     		ite	ne
 358 000e 0122     		movne	r2, #1
 113:Generated_Source\PSoC5/InjectionCounter_1_PM.c ****         }
 114:Generated_Source\PSoC5/InjectionCounter_1_PM.c ****         else
 115:Generated_Source\PSoC5/InjectionCounter_1_PM.c ****         {
 116:Generated_Source\PSoC5/InjectionCounter_1_PM.c ****             /* Counter is disabled */
 117:Generated_Source\PSoC5/InjectionCounter_1_PM.c ****             InjectionCounter_1_backup.CounterEnableState = 0u;
 359              		.loc 1 117 0
 360 0010 0022     		moveq	r2, #0
 361 0012 1A70     		strb	r2, [r3]
 118:Generated_Source\PSoC5/InjectionCounter_1_PM.c ****         }
 119:Generated_Source\PSoC5/InjectionCounter_1_PM.c ****     #else
 120:Generated_Source\PSoC5/InjectionCounter_1_PM.c ****         InjectionCounter_1_backup.CounterEnableState = 1u;
 121:Generated_Source\PSoC5/InjectionCounter_1_PM.c ****         if(InjectionCounter_1_backup.CounterEnableState != 0u)
 122:Generated_Source\PSoC5/InjectionCounter_1_PM.c ****         {
 123:Generated_Source\PSoC5/InjectionCounter_1_PM.c ****             InjectionCounter_1_backup.CounterEnableState = 0u;
 124:Generated_Source\PSoC5/InjectionCounter_1_PM.c ****         }
 125:Generated_Source\PSoC5/InjectionCounter_1_PM.c ****     #endif /* (!InjectionCounter_1_ControlRegRemoved) */
 126:Generated_Source\PSoC5/InjectionCounter_1_PM.c ****     
 127:Generated_Source\PSoC5/InjectionCounter_1_PM.c ****     InjectionCounter_1_Stop();
 362              		.loc 1 127 0
 363 0014 FFF7FEFF 		bl	InjectionCounter_1_Stop
 364              	.LVL4:
 128:Generated_Source\PSoC5/InjectionCounter_1_PM.c ****     InjectionCounter_1_SaveConfig();
 129:Generated_Source\PSoC5/InjectionCounter_1_PM.c **** }
 365              		.loc 1 129 0
 366 0018 BDE80840 		pop	{r3, lr}
 367              		.cfi_restore 14
 368              		.cfi_restore 3
 369              		.cfi_def_cfa_offset 0
 128:Generated_Source\PSoC5/InjectionCounter_1_PM.c ****     InjectionCounter_1_SaveConfig();
 370              		.loc 1 128 0
 371 001c FFF7FEBF 		b	InjectionCounter_1_SaveConfig
 372              	.LVL5:
 373              	.L12:
 374              		.align	2
 375              	.L11:
 376 0020 71640040 		.word	1073767537
 377 0024 00000000 		.word	.LANCHOR0
 378              		.cfi_endproc
 379              	.LFE2:
 380              		.size	InjectionCounter_1_Sleep, .-InjectionCounter_1_Sleep
 381              		.section	.text.InjectionCounter_1_Wakeup,"ax",%progbits
 382              		.align	1
 383              		.global	InjectionCounter_1_Wakeup
 384              		.thumb
 385              		.thumb_func
ARM GAS  C:\Users\Bruger\AppData\Local\Temp\ccAYdk0C.s 			page 24


 386              		.type	InjectionCounter_1_Wakeup, %function
 387              	InjectionCounter_1_Wakeup:
 388              	.LFB3:
 130:Generated_Source\PSoC5/InjectionCounter_1_PM.c **** 
 131:Generated_Source\PSoC5/InjectionCounter_1_PM.c **** 
 132:Generated_Source\PSoC5/InjectionCounter_1_PM.c **** /*******************************************************************************
 133:Generated_Source\PSoC5/InjectionCounter_1_PM.c **** * Function Name: InjectionCounter_1_Wakeup
 134:Generated_Source\PSoC5/InjectionCounter_1_PM.c **** ********************************************************************************
 135:Generated_Source\PSoC5/InjectionCounter_1_PM.c **** *
 136:Generated_Source\PSoC5/InjectionCounter_1_PM.c **** * Summary:
 137:Generated_Source\PSoC5/InjectionCounter_1_PM.c **** *  Restores and enables the user configuration
 138:Generated_Source\PSoC5/InjectionCounter_1_PM.c **** *  
 139:Generated_Source\PSoC5/InjectionCounter_1_PM.c **** * Parameters:  
 140:Generated_Source\PSoC5/InjectionCounter_1_PM.c **** *  void
 141:Generated_Source\PSoC5/InjectionCounter_1_PM.c **** *
 142:Generated_Source\PSoC5/InjectionCounter_1_PM.c **** * Return: 
 143:Generated_Source\PSoC5/InjectionCounter_1_PM.c **** *  void
 144:Generated_Source\PSoC5/InjectionCounter_1_PM.c **** *
 145:Generated_Source\PSoC5/InjectionCounter_1_PM.c **** * Global variables:
 146:Generated_Source\PSoC5/InjectionCounter_1_PM.c **** *  InjectionCounter_1_backup.enableState:  Is used to restore the enable state of 
 147:Generated_Source\PSoC5/InjectionCounter_1_PM.c **** *  block on wakeup from sleep mode.
 148:Generated_Source\PSoC5/InjectionCounter_1_PM.c **** *
 149:Generated_Source\PSoC5/InjectionCounter_1_PM.c **** *******************************************************************************/
 150:Generated_Source\PSoC5/InjectionCounter_1_PM.c **** void InjectionCounter_1_Wakeup(void) 
 151:Generated_Source\PSoC5/InjectionCounter_1_PM.c **** {
 389              		.loc 1 151 0
 390              		.cfi_startproc
 391              		@ args = 0, pretend = 0, frame = 0
 392              		@ frame_needed = 0, uses_anonymous_args = 0
 393 0000 08B5     		push	{r3, lr}
 394              		.cfi_def_cfa_offset 8
 395              		.cfi_offset 3, -8
 396              		.cfi_offset 14, -4
 152:Generated_Source\PSoC5/InjectionCounter_1_PM.c ****     InjectionCounter_1_RestoreConfig();
 397              		.loc 1 152 0
 398 0002 FFF7FEFF 		bl	InjectionCounter_1_RestoreConfig
 399              	.LVL6:
 153:Generated_Source\PSoC5/InjectionCounter_1_PM.c ****     #if(!InjectionCounter_1_ControlRegRemoved)
 154:Generated_Source\PSoC5/InjectionCounter_1_PM.c ****         if(InjectionCounter_1_backup.CounterEnableState == 1u)
 400              		.loc 1 154 0
 401 0006 044B     		ldr	r3, .L16
 402 0008 1B78     		ldrb	r3, [r3]	@ zero_extendqisi2
 403 000a 012B     		cmp	r3, #1
 404 000c 03D1     		bne	.L13
 155:Generated_Source\PSoC5/InjectionCounter_1_PM.c ****         {
 156:Generated_Source\PSoC5/InjectionCounter_1_PM.c ****             /* Enable Counter's operation */
 157:Generated_Source\PSoC5/InjectionCounter_1_PM.c ****             InjectionCounter_1_Enable();
 158:Generated_Source\PSoC5/InjectionCounter_1_PM.c ****         } /* Do nothing if Counter was disabled before */    
 159:Generated_Source\PSoC5/InjectionCounter_1_PM.c ****     #endif /* (!InjectionCounter_1_ControlRegRemoved) */
 160:Generated_Source\PSoC5/InjectionCounter_1_PM.c ****     
 161:Generated_Source\PSoC5/InjectionCounter_1_PM.c **** }
 405              		.loc 1 161 0
 406 000e BDE80840 		pop	{r3, lr}
 407              		.cfi_remember_state
 408              		.cfi_restore 14
 409              		.cfi_restore 3
 410              		.cfi_def_cfa_offset 0
ARM GAS  C:\Users\Bruger\AppData\Local\Temp\ccAYdk0C.s 			page 25


 157:Generated_Source\PSoC5/InjectionCounter_1_PM.c ****         } /* Do nothing if Counter was disabled before */    
 411              		.loc 1 157 0
 412 0012 FFF7FEBF 		b	InjectionCounter_1_Enable
 413              	.LVL7:
 414              	.L13:
 415              		.cfi_restore_state
 416 0016 08BD     		pop	{r3, pc}
 417              	.L17:
 418              		.align	2
 419              	.L16:
 420 0018 00000000 		.word	.LANCHOR0
 421              		.cfi_endproc
 422              	.LFE3:
 423              		.size	InjectionCounter_1_Wakeup, .-InjectionCounter_1_Wakeup
 424              		.bss
 425              		.align	1
 426              		.set	.LANCHOR0,. + 0
 427              		.type	InjectionCounter_1_backup, %object
 428              		.size	InjectionCounter_1_backup, 6
 429              	InjectionCounter_1_backup:
 430 0000 00000000 		.space	6
 430      0000
 431              		.text
 432              	.Letext0:
 433              		.file 2 "Generated_Source\\PSoC5\\cytypes.h"
 434              		.file 3 "Generated_Source\\PSoC5\\InjectionCounter_1.h"