ARM GAS  C:\Users\Bruger\AppData\Local\Temp\ccVRsutO.s 			page 1


   1              		.syntax unified
   2              		.cpu cortex-m3
   3              		.fpu softvfp
   4              		.eabi_attribute 20, 1
   5              		.eabi_attribute 21, 1
   6              		.eabi_attribute 23, 3
   7              		.eabi_attribute 24, 1
   8              		.eabi_attribute 25, 1
   9              		.eabi_attribute 26, 1
  10              		.eabi_attribute 30, 2
  11              		.eabi_attribute 34, 1
  12              		.eabi_attribute 18, 4
  13              		.thumb
  14              		.file	"InjectionTimer_1.c"
  15              		.text
  16              	.Ltext0:
  17              		.section	.gnu.lto_.profile.24c1115a,"",%progbits
  18 0000 789C6366 		.ascii	"x\234cf```a\200\000F\206\022O\000\001\245\000\306"
  18      60606061 
  18      80004686 
  18      124F0001 
  18      A500C6
  19              		.text
  20              		.section	.gnu.lto_.jmpfuncs.24c1115a,"",%progbits
  21 0000 789C6D8B 		.ascii	"x\234m\213I\016\300 \014\003'b+\224\355K}\031_\207\250"
  21      490EC020 
  21      0C032762 
  21      2B94ED4B 
  21      7D195F87 
  22 0015 396269EC 		.ascii	"9bi\354\271\330q\317g;\017b8\360\020DdEH\360\250f\255"
  22      B9D871CF 
  22      673B0F62 
  22      38F01044 
  22      644548F0 
  23 002c A2F54285 		.ascii	"\242\365B\205\246\332a\374\347\015h\220\003f"
  23      A6DA61FC 
  23      E70D6890 
  23      0366
  24              		.text
  25              		.section	.gnu.lto_.inline.24c1115a,"",%progbits
  26 0000 789C6DCB 		.ascii	"x\234m\313\273\015\302@\020\004\320\271\337r\334\031"
  26      BB0DC240 
  26      1004D0B9 
  26      DF72DC19 
  27 0010 DB0D2037 		.ascii	"\333\015 7\200\310i\300\241\233\240\027bJp\025\324A"
  27      80C869C0 
  27      A19BA017 
  27      624A7015 
  27      D441
  28 0022 408C881D 		.ascii	"@\214\210\035\271\004\326B\332d\330`Fz\243\015\370\177"
  28      B904D642 
  28      DA64D860 
  28      467AA30D 
  28      F87F
  29 0034 A3FB750F 		.ascii	"\243\373u\017\034?p\360\247\333;C\346\301o\352+\340"
  29      1C3F70F0 
  29      A7DB3B43 
ARM GAS  C:\Users\Bruger\AppData\Local\Temp\ccVRsutO.s 			page 2


  29      E6C16FEA 
  29      2BE0
  30 0046 EED356BA 		.ascii	"\356\323V\272\325F\367v\271\332\354\212F\200$uY\317"
  30      D546F776 
  30      B9DAEC8A 
  30      46802475 
  30      59CF
  31 0058 E6912921 		.ascii	"\346\221)!\006%\377\354\214\004)*\305y0\332!_\224\312"
  31      0625FFEC 
  31      8C04292A 
  31      C57930DA 
  31      215F94CA 
  32 006c E3256699 		.ascii	"\343%f\231?\367L\205\25125L\007\246\226\251c\352\231"
  32      3FF74C85 
  32      A932354C 
  32      07A696A9 
  32      63EA99
  33 007f F005135A 		.ascii	"\360\005\023Z \241"
  33      20A1
  34              		.text
  35              		.section	.gnu.lto_.pureconst.24c1115a,"",%progbits
  36 0000 789C25C1 		.ascii	"x\234%\3017\022\000 \014\004\261cL\216\256\267\343\377"
  36      37120020 
  36      0C04B163 
  36      4C8EAEB7 
  36      E3FF
  37 0012 9FA44032 		.ascii	"\237\244@2IW\237\213\200\021Id\012\225Fg0Yl\016\316"
  37      49579F8B 
  37      80114964 
  37      0A954667 
  37      30596C0E 
  38 0027 03282F02 		.ascii	"\003(/\002["
  38      5B
  39              		.text
  40              		.section	.gnu.lto_InjectionTimer_1_Init.24c1115a,"",%progbits
  41 0000 789C8D96 		.ascii	"x\234\215\226_L\323W\024\307\357\271\277_\377Ph\371"
  41      5F4CD357 
  41      14C7EFB9 
  41      BF5FFF50 
  41      68F9
  42 0012 B7072559 		.ascii	"\267\007%Y|\340\301m\331Lf\342\213\257\313\262,\313"
  42      7CE0C16D 
  42      D94C66E2 
  42      8BAFCBB2 
  42      2CCB
  43 0024 1233F6B4 		.ascii	"\0223\366\264\270\020\002}`\231\3244eo\306_i\305\305"
  43      B810027D 
  43      6099D434 
  43      656FC65F 
  43      69C5C5
  44 0037 2032E290 		.ascii	" 2\342\220\301\000\027qC\021\020\021\025\001)0\204\322"
  44      C1001771 
  44      43111011 
  44      15012930 
  44      84D2
  45 0049 0A14C61F 		.ascii	"\012\024\306\037\371[\005\004\227\005\207e\323\016\265"
  45      F95B0504 
ARM GAS  C:\Users\Bruger\AppData\Local\Temp\ccVRsutO.s 			page 3


  45      97058765 
  45      D30EB5
  46 0058 3BF7FE7E 		.ascii	";\367\376~-\364W\\F\322\333_\357\357\234s\277\237s\317"
  46      2DF4575C 
  46      46D2DB5F 
  46      EFEF9C73 
  46      BF9F73CF 
  47 006c 3D1781C4 		.ascii	"=\027\201\304\376}\210\037]\034!\337\3407h\011\320\222"
  47      FE7D881F 
  47      5D1C21DF 
  47      E0376809 
  47      D092
  48 007e 2142EC7A 		.ascii	"!B\354z\012\242\374 \310\017\335z\221\012E\375\204H"
  48      0AA2FC20 
  48      C80FDD7A 
  48      910A45FD 
  48      8448
  49 0090 068D5347 		.ascii	"\006\215SG\244\004\015\000\233'@\216SA\324\300q*\312"
  49      A4040D00 
  49      9B27408E 
  49      5341D4C0 
  49      712ACA
  50 00a3 011FD375 		.ascii	"\001\037\323u\012%\256\372\362\370\275\027%I\372\263"
  50      0A25AEFA 
  50      F2F8BD17 
  50      2549FAB3 
  51 00b3 A775D789 		.ascii	"\247u\327\211]AJH\200\312\006\360\013\354%h\363\302"
  51      5D414A48 
  51      80CA06F0 
  51      0BEC2568 
  51      F3C2
  52 00c5 D9F42051 		.ascii	"\331\364 Qx\017\330\363f\355\251%C\372O\222T\340oZ\354"
  52      780FD8F3 
  52      66EDA925 
  52      43FA4F92 
  52      54E06F5A 
  53 00da 8F97CA25 		.ascii	"\217\227\312%\247?\024\332\023\244\000u \240'\274\233"
  53      A73F14DA 
  53      13A40075 
  53      20A027BC 
  53      9B
  54 00eb 066FA729 		.ascii	"\006o\247)\232\321\241\240\260\342\007A\330\317\235"
  54      9AD1A1A0 
  54      B0E20741 
  54      D8CF9D
  55 00fa FF18E8ED 		.ascii	"\377\030\350\355\322\310\316\235\213\203Q\316\227wt"
  55      D2C8CE9D 
  55      8B8351CE 
  55      977774
  56 0109 5E77BE9C 		.ascii	"^w\276\234\214\327:Q]\022\\\202t\250\207tY\035\\\001"
  56      8CD73A51 
  56      5D125C82 
  56      74A88774 
  56      591D5C01 
  57 011d 2D1042C3 		.ascii	"-\020B\303\263M).)\024\012L|\267z\220\356\246$H\251"
  57      B34D292E 
  57      29140A4C 
ARM GAS  C:\Users\Bruger\AppData\Local\Temp\ccVRsutO.s 			page 4


  57      7CB77A90 
  57      EEA62448 
  58 0132 40D83B91 		.ascii	"@\330;\221=j\331\240cC\034\033\014l0\262\301\204\003"
  58      3D6AD9A0 
  58      63431C1B 
  58      0C6C30B2 
  58      C18403
  59 0145 24E22024 		.ascii	"$\342 $\023\026%\205M\246\262\201\220%\374`\376\226"
  59      13162585 
  59      4DA6B281 
  59      9025FC60 
  59      FE96
  60 0157 F1D9A913 		.ascii	"\361\331\251\023\246\241\347\357Sk\325\207\330\272\317"
  60      A6A1E7EF 
  60      536BD587 
  60      D8BACF
  61 0166 284BDCE9 		.ascii	"(K\334\351\013\241Na\225\006\251\2709h\227D\246vai\330"
  61      0BA14E61 
  61      9506A9B8 
  61      39689744 
  61      A6766169 
  62 017b A7E7535C 		.ascii	"\247\347S\\\274\277nfN_\005\225v'\004\251\006\032 \015"
  62      BCBF6E66 
  62      4E5F0595 
  62      762704A9 
  62      061A200D 
  63 018f 1A01E1A0 		.ascii	"\032\001\341\240\011\252\200L\203\343y\341\006\310\001"
  63      09AA804C 
  63      83E379E1 
  63      06C801
  64 019e 05396643 		.ascii	"\0059fCK\373\034\260\000\340\002\002W\321x\002(GE\024"
  64      4BFB1CB0 
  64      00E00202 
  64      57D17802 
  64      28474514 
  65 01b2 B4624E1B 		.ascii	"\264bN\033\205\257\252\317*n\"\316\241\333\324\300\271"
  65      85AFAACF 
  65      2A6E22CE 
  65      A1DBD4C0 
  65      B9
  66 01c3 03CC0BF1 		.ascii	"\003\314\013\361\240\031\235Pl)\267\210\022aw\355\216"
  66      A0199D50 
  66      6C29B788 
  66      126177ED 
  66      8E
  67 01d4 96710D65 		.ascii	"\226q\015e`\014\302\331\206\352n+A\231\227\267\266\262"
  67      600CC2D9 
  67      86EA6E2B 
  67      419997B7 
  67      B6B2
  68 01e6 53CB49AA 		.ascii	"S\313I\252\335\012\334\220\367fK\302\026MK$\314u\205"
  68      DD0ADC90 
  68      F7664BC2 
  68      164D4B24 
  68      CC7585
  69 01f9 66432BFB 		.ascii	"fC+\373\353\344\020\375U\253\327D\256\012QZU\252^\033"
  69      EBE410FD 
ARM GAS  C:\Users\Bruger\AppData\Local\Temp\ccVRsutO.s 			page 5


  69      55ABD744 
  69      AE0A515A 
  69      55AA5E1B 
  70 020d EC06D7A4 		.ascii	"\354\006\327\244\2235\215\276%G\214C\217\247\235\177"
  70      93358DBE 
  70      25478C43 
  70      8FA79D7F 
  71 021d D9796AC4 		.ascii	"\331yj\304\232\260\242\027\217\206\313\204\255 7#An"
  71      9AB0A217 
  71      8F86CB84 
  71      AD203723 
  71      416E
  72 022f A9141930 		.ascii	"\251\024\0310D\214\204\327z\267q\011\206p\352\231Z\267"
  72      448C84D7 
  72      7AB77109 
  72      8670EA99 
  72      5AB7
  73 0241 C3267CC6 		.ascii	"\303&|\306+\330\363\360y \201\311\320&\261\237\025\223"
  73      2BD8F3F0 
  73      792081C9 
  73      D026B19F 
  73      1593
  74 0253 CB1BBC08 		.ascii	"\313\033\274\010t\224\375\274X\324n7\312\365}\2457\313"
  74      7494FDBC 
  74      58D46E37 
  74      CAF57DA5 
  74      37CB
  75 0265 55705E7A 		.ascii	"Up^z\025\012ax\001n\313\345\335\216\253t@\270\300\241"
  75      150A6178 
  75      016ECBE5 
  75      DD8EAB74 
  75      40B8C0A1 
  76 0279 13D2D1CB 		.ascii	"\023\322\321\3131\326\032\342A\204\201\005\264\271#"
  76      31D61AE2 
  76      41848105 
  76      B4B923
  77 0288 0B2D6B9E 		.ascii	"\013-k\236,\023\242\216\200\253\302\300<x\355\007(\250"
  77      2C13A28E 
  77      80ABC2C0 
  77      3C78ED07 
  77      28A8
  78 029a CE07812E 		.ascii	"\316\007\201.\354\012\004+\207I\356]\351\2331\262\230"
  78      EC0A042B 
  78      8749EE5D 
  78      E99B31B2 
  78      98
  79 02ab FA1F47D4 		.ascii	"\372\037G\324\325\251\347\3259\345.^\244\214\377\254"
  79      D5A9E7D5 
  79      39E52E5E 
  79      A48CFFAC 
  80 02bb 5D1FC4FC 		.ascii	"]\037\304\374t\243\264\036\236\200^L\000W1\001\005\234"
  80      74A3B41E 
  80      9E805E4C 
  80      00573101 
  80      059C
  81 02cd 32D4B2EE 		.ascii	"2\324\262\356\323\011_\360\025O,\215]\322\354\210\370"
  81      D3095FF0 
ARM GAS  C:\Users\Bruger\AppData\Local\Temp\ccVRsutO.s 			page 6


  81      154F2C8D 
  81      5DD2EC88 
  81      F8
  82 02de EB8E887D 		.ascii	"\353\216\210}x>\303D\353+\347TD\315\203\224Y(H4\006"
  82      783EC344 
  82      EB2BE754 
  82      44CD8394 
  82      59284834 
  83 02f3 E92E47EA 		.ascii	"\351.G\352\347H\336\300\367\013TF\362)H\356\3211\027"
  83      E748DEC0 
  83      F70B5446 
  83      F22948EE 
  83      D13117
  84 0306 6C631888 		.ascii	"lc\030\2100\270\325\014\256R\367\210Q\310\342\014Ok"
  84      30B8D50C 
  84      AE52F788 
  84      51C8E20C 
  84      4F6B
  85 0318 7F5F4BDC 		.ascii	"\177_K\334\221apG\006\017\337\246\341\021G#\317\237"
  85      91617047 
  85      060FDFA6 
  85      E1114723 
  85      CF9F
  86 032a 20FD8325 		.ascii	" \375\203%\355\015o\323\275\362\203\321P7\014\314Ca"
  86      ED0D6FD3 
  86      BDF283D1 
  86      50370CCC 
  86      4361
  87 033c 126298EE 		.ascii	"\022b\230\356q\246!\3164\341/\366\0328\323lx\233\312"
  87      71A621CE 
  87      34E12FF6 
  87      1A38D36C 
  87      789BCA
  88 034f 5A1F8F6B 		.ascii	"Z\037\217k\2661\015G\230F\030\223w\033\323\031\377\313"
  88      B6310D47 
  88      98461893 
  88      771BD319 
  88      FFCB
  89 0361 5B5A2197 		.ascii	"[Z!\2273\025t\237/\215\224\336\227.{\230\011\300\027"
  89      3315749F 
  89      2F8D94DE 
  89      972E7B98 
  89      09C017
  90 0374 DB596194 		.ascii	"\333Ya\224\023\331\177n/\322\361#\212Sca\236'\025\373"
  90      13D97F6E 
  90      2FD2F123 
  90      8A536361 
  90      9E2715FB 
  91 0388 A379360C 		.ascii	"\243y6\014\314^\341\021cx~\343<\343\234\247\257\353"
  91      CC5EE111 
  91      63787EE3 
  91      3CE39CA7 
  91      AFEB
  92 039a 4EA5DC01 		.ascii	"N\245\334\001\317\204O\351\342\302\332Um\204G\003\023"
  92      CF844FE9 
  92      E2C2DA55 
  92      6D844703 
ARM GAS  C:\Users\Bruger\AppData\Local\Temp\ccVRsutO.s 			page 7


  92      13
  93 03ab 918336C9 		.ascii	"\221\2036\311x\330\262\263\340p\325x\366\311\2075\031"
  93      78D8B2B3 
  93      E070D578 
  93      F6C98735 
  93      19
  94 03bc 7DAAC78A 		.ascii	"}\252\307\212\033\351\261M\351[\011]\014\001\252A\353"
  94      1BE9B14D 
  94      E95B095D 
  94      0C01AA41 
  94      EB
  95 03cd 2938868D 		.ascii	")8\206\2159>\322\021\353YGLV\232WC\207\322\274R\376"
  95      393ED211 
  95      EB59474C 
  95      569A5743 
  95      87D2BC52 
  96 03e2 EB64DF57 		.ascii	"\353d\337W\365\205T\331>r\246)\322L\377\33761\303\333"
  96      F58554D9 
  96      3E72A629 
  96      D24CFFDF 
  96      3631C3DB 
  97 03f6 442A8A77 		.ascii	"D*\212w\272\332<&fN\324\322\023\002\224\345f\026\245"
  97      BADA3C26 
  97      664ED4D2 
  97      130294E5 
  97      6616A5
  98 0409 A3D6205E 		.ascii	"\243\326 ^:\004/\024\201\340\365,\337(w=\027\264\321"
  98      3A042F14 
  98      81E0F52C 
  98      DF28773D 
  98      17B4D1
  99 041c C9F6794C 		.ascii	"\311\366yLJ\246u1\231\236c\231\2166o\231\177\203\300"
  99      4AA67531 
  99      999E6399 
  99      8E366F99 
  99      7F83C0
 100 042f 3C33D7C7 		.ascii	"<3\327\307\230/\360\215\3613\322D|W\343)n\340=\335\324"
 100      982FF08D 
 100      F133D244 
 100      7C57E329 
 100      6EE03DDD 
 101 0444 E153B704 		.ascii	"\341S\267\004\023\217{\262\260\371\244)\262U\211\360"
 101      138F7BB2 
 101      B0F9A429 
 101      B25589F0 
 102 0454 00611F72 		.ascii	"\000a\037r\330E\2269\246]$\370\277\204\254}\250M\255"
 102      D8459639 
 102      A65D24F8 
 102      BF84AC7D 
 102      A84DAD
 103 0467 BDA6FA4D 		.ascii	"\275\246\372MEL\\\214\230%.f\231\2111\341\273\256\353"
 103      454C5C8C 
 103      98252E66 
 103      998931E1 
 103      BBAEEB
 104 047a F63E135B 		.ascii	"\366>\023[9\351\311\200ZL\022\027\263|z\245D\027\021"
 104      39E9C980 
ARM GAS  C:\Users\Bruger\AppData\Local\Temp\ccVRsutO.s 			page 8


 104      5A4C1217 
 104      B37C7AA5 
 104      441711
 105 048d 930C8F50 		.ascii	"\223\014\217P\314\012\027\263\272u}R\266\3343j\304\240"
 105      CC0A17B3 
 105      BA757D52 
 105      B6DC336A 
 105      C4A0
 106 049f 7CE7C6C1 		.ascii	"|\347\306\301y\337q\031\224Y^\\\204\353\326\260K|\036"
 106      79DF7119 
 106      94595E5C 
 106      84EBD6B0 
 106      4B7C1E
 107 04b2 ECAEC94F 		.ascii	"\354\256\311O\370N\021v\301\003Nb\351\277\363\2219\317"
 107      F84E1176 
 107      C1034E62 
 107      E9BFF391 
 107      39CF
 108 04c4 6CCDB299 		.ascii	"l\315\262\231s23,\371\326l\363\341C\031\226\017\016"
 108      7332332C 
 108      F9D66CF3 
 108      E1431996 
 108      0F0E
 109 04d6 1CFE38EF 		.ascii	"\034\3768\357+s\266-\327\222\367y\356\021\2635\363\375"
 109      2B73B62D 
 109      D792F779 
 109      EE11B335 
 109      F3FD
 110 04e8 7DD944CC 		.ascii	"}\331D\314\266Y\277\336\243~\221\231\233g3[\255\371"
 110      B659BFDE 
 110      A37E9199 
 110      9B67335B 
 110      ADF9
 111 04fa 476D1936 		.ascii	"Gm\0316\014\243\313\266\344\263\011\355Q\2635\327\222"
 111      0CA3CBB6 
 111      E4B309ED 
 111      51B335D7 
 111      92
 112 050b 833F8F1C 		.ascii	"\203?\217\034\315\262\232\215\021\253O-9\346\177\001"
 112      CDB29A8D 
 112      11AB4F2D 
 112      39E67F01 
 113 051b D0CB611E 		.ascii	"\320\313a\036"
 114              		.text
 115              		.section	.gnu.lto_InjectionTimer_1_Start.24c1115a,"",%progbits
 116 0000 789C7D91 		.ascii	"x\234}\221OHTQ\024\306\317w\357\363\315S\203Bp\343b"
 116      4F485451 
 116      14C6CF77 
 116      EFF3CD53 
 116      834270E3 
 117 0015 B6424411 		.ascii	"\266BD\021\321\246mP\350J\320\245 2=\310\240\031\030"
 117      D1A66D50 
 117      E84AD0A5 
 117      20323DC8 
 117      A01918
 118 0028 6C39785F 		.ascii	"l9x_3\210T\206L\006R\332&\374S\226f\366\007&\215WK\241"
 118      33885486 
ARM GAS  C:\Users\Bruger\AppData\Local\Temp\ccVRsutO.s 			page 9


 118      4C0652DA 
 118      26FC5396 
 118      66F60726 
 119 0040 0989FE20 		.ascii	"\011\211\376 \221\033\005\333\215M\024\203\310t\316"
 119      911B05DB 
 119      8D4D1483 
 119      C874CE
 120 004f 7D613851 		.ascii	"}a8Q\017\336\275\357\235\373\235\357\376\356w5\375\375"
 120      0FDEBDEF 
 120      9DFB9DEF 
 120      FEEE7735 
 120      FDFD
 121 0061 9CE0F7BC 		.ascii	"\234\340\367\274\":\3023\352\010j\244H\024xJ\351B\234"
 121      223AC233 
 121      EA086AA4 
 121      4814784A 
 121      E9429C
 122 0074 4C83F3E1 		.ascii	"L\203\363\341\030\231\003\032NTv\000\371 \320\200\322"
 122      1899031A 
 122      4E547600 
 122      F920D080 
 122      D2
 123 0085 0E06F055 		.ascii	"\016\006\360Um+\214\204\263c\215\255\223\306\230\322"
 123      6D2B8C84 
 123      B3638DAD 
 123      93C698D2 
 124 0095 B7374147 		.ascii	"\2677AG\210\012\033\226U\264\001\246\321J,\332\316\355"
 124      880A1B96 
 124      55B401A6 
 124      D14A2CDA 
 124      CEED
 125 00a7 7E6C7473 		.ascii	"~lts,:\024\255a\006.x\236o\012M\265\272\270\364*\357"
 125      2C3A14AD 
 125      61062E78 
 125      9E6F0A4D 
 125      B5BAB8F4 
 126 00bd D66BAA28 		.ascii	"\326k\252(\304d\360d \332`\245\354\270\251\224\314z"
 126      C464F064 
 126      20DA60A5 
 126      ECB8A994 
 126      CC7A
 127 00cf 0D97F30B 		.ascii	"\015\227\363\013\313m\322\373Si\266\275\363\356\372"
 127      CB6DD2FB 
 127      5369B6BD 
 127      F3EEFA
 128 00de 9CCAEC98 		.ascii	"\234\312\354\230!\343U\224\332\025c\256\256o\274]\365"
 128      21E35594 
 128      DA1563AE 
 128      AE6FBC5D 
 128      F5
 129 00ef B61457EC 		.ascii	"\266\024W\354\357L\220\033\307\004n\007FT\032\367\220"
 129      EF4C901B 
 129      C7046E07 
 129      46541AF7 
 129      90
 130 0100 C17DB430 		.ascii	"\301}\2640\303,\227\351=r\237\262\361?\236\301\324\213"
 130      C32C97E9 
ARM GAS  C:\Users\Bruger\AppData\Local\Temp\ccVRsutO.s 			page 10


 130      3D729FB2 
 130      F13F9EC1 
 130      D48B
 131 0112 6B31E966 		.ascii	"k1\351f\000<\020\035\011\201\246B\\\177F6\254\370\242"
 131      003C101D 
 131      0981A642 
 131      5C7F4636 
 131      ACF8A2
 132 0125 A5DADD9D 		.ascii	"\245\332\335\235\262mx\210\014\263\327\021\243\226J"
 132      B26D7888 
 132      0CB3D711 
 132      A3964A
 133 0134 2FDB45FA 		.ascii	"/\333E\372O\316Z\260\271=\260y.\263`\365\326T\366\240"
 133      4FCE5AB0 
 133      B93DB079 
 133      2EB360F5 
 133      D654F6A0 
 134 0148 A068101E 		.ascii	"\240h\020\036Y\224M\345\374\216\342\365\217++\247\366"
 134      59944DE5 
 134      FC8EE2F5 
 134      8F2B2BA7 
 134      F6
 135 0159 451B569B 		.ascii	"E\033V\233m\256e>xM\346X`d\302c9d\214\327\206\357V\227"
 135      6DAE653E 
 135      784DE658 
 135      6064C263 
 135      39648CD7 
 136 0171 B538BB3B 		.ascii	"\2658\273;+\201q\366\245\346Z\270\311\253C\305\006\201"
 136      2B8171F6 
 136      A5E65AB8 
 136      C9AB43C5 
 136      0681
 137 0183 1B0D182E 		.ascii	"\033\015\030.\206E\264\340\211\205{*\251\255!\373}\260"
 137      8645B4E0 
 137      89857B2A 
 137      A9AD21FB 
 137      7DB0
 138 0195 581845E4 		.ascii	"X\030E\344\351E\2667\227\306\363\3656;\303\304\317X"
 138      E945B637 
 138      97C6F3F5 
 138      363BC3C4 
 138      CF58
 139 01a7 CE9C79AB 		.ascii	"\316\234y\253\371\257\345s\266d\023\372\202 \274q\306"
 139      F9AFE573 
 139      B66413FA 
 139      8220BC71 
 139      C6
 140 01b8 E64B72FD 		.ascii	"\346Kr\375\220\263rZ\207\317\372I?\335\333\357\237\353"
 140      90B3725A 
 140      87CFFA49 
 140      3FDDDBEF 
 140      9FEB
 141 01ca E94C5D4A 		.ascii	"\351L]J'\374\356\216\316\324\351\223\335m\311\013~\242"
 141      27FCEE8E 
 141      CED4E993 
 141      DD6DC90B 
 141      7EA2
ARM GAS  C:\Users\Bruger\AppData\Local\Temp\ccVRsutO.s 			page 11


 142 01dc BF2F95EC 		.ascii	"\277/\225\354\352\273\350\247{\216\037M\320/\200\223"
 142      EABBE8A7 
 142      7B8E1F4D 
 142      D02F8093 
 143 01ec EAA6     		.ascii	"\352\246"
 144              		.text
 145              		.section	.gnu.lto_InjectionTimer_1_Enable.24c1115a,"",%progbits
 146 0000 789C6366 		.ascii	"x\234cf\300\004R@\254\306\310\300\240\003\244\031\231"
 146      C0045240 
 146      ACC6C8C0 
 146      A003A419 
 146      99
 147 0011 19189926 		.ascii	"\031\030\231&\234c`h\344`bd\0041\030\030\031\352\231"
 147      9C636068 
 147      E4606264 
 147      04311818 
 147      19EA99
 148 0024 18EB195F 		.ascii	"\030\353\031_2}db\234p`\365\014n\365\245\015\015\015"
 148      327D6462 
 148      9C7060F5 
 148      0C6EF5A5 
 148      0D0D0D
 149 0037 1F3E7D94 		.ascii	"\037>}\224h\225\370\311\304\300\360\231\011b\014\343"
 149      6895F8C9 
 149      C4C0F099 
 149      09620CE3 
 150 0047 72467506 		.ascii	"rFu\006\240\232\217-\177\257s\263\265\000\325\010@\344"
 150      A09A8F2D 
 150      7FAF73B3 
 150      B500D508 
 150      40E4
 151 0059 185730B2 		.ascii	"\030W0\262\001\215gX/t\240\341\377\377\315g&\277\320"
 151      018D6758 
 151      2F74A0E1 
 151      FFFFCD67 
 151      26BFD0
 152 006c 62666562 		.ascii	"bfeb\370\311\004\264\014H00<\001\252\002Y\365\224\211"
 152      F8C904B4 
 152      0C483030 
 152      3C01AA02 
 152      59F59489 
 153 0080 094433DF 		.ascii	"\011D3\337b<\364\255\353\334\256)\214 \235\337\231@"
 153      623CF4AD 
 153      EBDCAE29 
 153      8C209DDF 
 153      9940
 154 0092 16F72EFE 		.ascii	"\026\367.\376\277\227\371\005\323O&\246\337\247\032"
 154      BF97F905 
 154      D34F26A6 
 154      DFA71A
 155 00a1 1B5840F6 		.ascii	"\033X@\366\334\177r\376\"\007X\210\001\304}\260\342"
 155      DC7F72FE 
 155      22075888 
 155      01C47DB0 
 155      E2
 156 00b2 F65D8EB9 		.ascii	"\366]\216\271\214\263\033[\030\177213\256d\224b\\\305"
 156      8CB31B5B 
ARM GAS  C:\Users\Bruger\AppData\Local\Temp\ccVRsutO.s 			page 12


 156      187F3231 
 156      33AE6494 
 156      625CC5
 157 00c5 08F41AE3 		.ascii	"\010\364\032\343j\306\271\214\014\267\030\233\277\260"
 157      6AC6B98C 
 157      0CB7189B 
 157      BFB0
 158 00d3 418C6386 		.ascii	"A\214c\206\2308u\317\234I\234 \355\214\015\214\014\214"
 158      983875CF 
 158      9C499C20 
 158      ED8C0D8C 
 158      0C8C
 159 00e5 6B804A81 		.ascii	"k\200J\201\326N\002[\211\317\264\265@\323\200f0\334"
 159      D64E025B 
 159      89CFB4B5 
 159      40D38066 
 159      30DC
 160 00f7 636C3C70 		.ascii	"cl<p\335\017\244\032\344\367'@o\000]\016t\211\226{j"
 160      DD0FA41A 
 160      E4F72740 
 160      6F005D0E 
 160      7489967B 
 161 010c 5E6A5162 		.ascii	"^jQbIjJ|p~iQrjL@p\276\263i\214g^VjrIf~^HfnjQ\274\241"
 161      496A4A7C 
 161      707E6951 
 161      726A4C40 
 161      70BEB369 
 162 0131 5E320300 		.ascii	"^2\003\000\216\004wD"
 162      8E047744 
 163              		.text
 164              		.section	.gnu.lto_InjectionTimer_1_Stop.24c1115a,"",%progbits
 165 0000 789C6366 		.ascii	"x\234cf\300\004R@\254\312\310\300\240\003\244\031\231"
 165      C0045240 
 165      ACCAC8C0 
 165      A003A419 
 165      99
 166 0011 19189926 		.ascii	"\031\030\231&\234c`h\344`bd\0041\030\030\031\352\231"
 166      9C636068 
 166      E4606264 
 166      04311818 
 166      19EA99
 167 0024 18EB195F 		.ascii	"\030\353\031_2}db\234p`\365\014n\365\245\015\015\015"
 167      327D6462 
 167      9C7060F5 
 167      0C6EF5A5 
 167      0D0D0D
 168 0037 1F26FD96 		.ascii	"\037&\375\226h\225\370\311\304\300\360\231\011b\014"
 168      6895F8C9 
 168      C4C0F099 
 168      09620C
 169 0046 E3724675 		.ascii	"\343rFu\006\240\232\217-\177\257s\263\265\000\325\010"
 169      06A09A8F 
 169      2D7FAF73 
 169      B3B500D5 
 169      08
 170 0057 40E41857 		.ascii	"@\344\030W0\262\001\215gX/t\240\341\377\377\315o'wX"
 170      30B2018D 
ARM GAS  C:\Users\Bruger\AppData\Local\Temp\ccVRsutO.s 			page 13


 170      67582F74 
 170      A0E1FFFF 
 170      CD6F2777 
 171 006c 33B33231 		.ascii	"3\26321\374d\002Z\006$\030\030\236\000U\201\254z\312"
 171      FC64025A 
 171      06241818 
 171      9E005581 
 171      AC7ACA
 172 007f C404A299 		.ascii	"\304\004\242\231o1\036\372\326\365l\357\024F\220\316"
 172      6F311EFA 
 172      D6F56CEF 
 172      144690CE 
 173 008f EF4C208B 		.ascii	"\357L \213{\027\377\337\313\374\202\351'\023\323\357"
 173      7B17FFDF 
 173      CBFC82E9 
 173      2713D3EF 
 174 009f 538D0D2C 		.ascii	"S\215\015, {\356?9\177\221\003,\304\000\342>Xq\373."
 174      207BEE3F 
 174      397F9103 
 174      2CC400E2 
 174      3E5871FB 
 175 00b4 C75CC6D9 		.ascii	"\307\\\306\331\215-\214?\231\230\031W2J1\256b\004z\215"
 175      8D2D8C3F 
 175      99981957 
 175      324A31AE 
 175      62047A8D 
 176 00c8 7135E35C 		.ascii	"q5\343\\F\206[\214\315?\330 \3061CL\234\377\362\337"
 176      46865B8C 
 176      CD3FD820 
 176      C631434C 
 176      9CFFF2DF 
 177 00dc 0B169076 		.ascii	"\013\026\220v\346z\006\3065@\225@['\201m\304g\330Z\240"
 177      E67A06C6 
 177      35409540 
 177      5B27816D 
 177      C467D85A 
 178 00f1 61402318 		.ascii	"a@#\030\35616\036\270\351\017R\015\362\372\023\240/"
 178      EE31361E 
 178      B8E90F52 
 178      0DF2FA13 
 178      A02F
 179 0103 800E073A 		.ascii	"\200\016\007:D\313=5/\265(\261$5%>8\277\264(95& 8\337"
 179      44CB3D35 
 179      2FB528B1 
 179      2435253E 
 179      38BFB428 
 180 011d D934C633 		.ascii	"\3314\3063/+5\271$3?/$37\265(\336P/\231\001\000.\015"
 180      2F2B35B9 
 180      24333F2F 
 180      243337B5 
 180      28DE502F 
 181 0136 77CB     		.ascii	"w\313"
 182              		.text
 183              		.section	.gnu.lto_InjectionTimer_1_WriteCounter.24c1115a,"",%progbits
 184 0000 789C654F 		.ascii	"x\234eO\277KBQ\030\375\316}f\202E\322\350.RQ\020\324"
 184      BF4B4251 
 184      18FDCE7D 
ARM GAS  C:\Users\Bruger\AppData\Local\Temp\ccVRsutO.s 			page 14


 184      668245D2 
 184      E82E5251 
 185 0016 1E34445B 		.ascii	"\0364D[`\243`\361z\203AO\220\347\354\265\374\003\034"
 185      60A360F1 
 185      7A83414F 
 185      90E7ECB5 
 185      FC031C
 186 0029 42A2B225 		.ascii	"B\242\262%\242\037VV\264\264\204\024\015\021X\015\371"
 186      A21F5656 
 186      B4B48414 
 186      0D11580D 
 186      F9
 187 003a 40212194 		.ascii	"@!!\224\214\226\304\240\034\302\276\233c\027.\337w\016"
 187      8C96C4A0 
 187      1CC2BE9B 
 187      63172EDF 
 187      770E
 188 004c E79E73AE 		.ascii	"\347\236s\256F\377\217\227\357\000\210\306xB#\210T\201"
 188      46FF8F97 
 188      EF0088C6 
 188      78422388 
 188      5481
 189 005e 28E11280 		.ascii	"(\341\022\200Z\010\024\027\210\343M4\004R\371\354\232"
 189      5A081417 
 189      88E34D34 
 189      0452F9EC 
 189      9A
 190 006f DBBF23A5 		.ascii	"\333\277#\245\3748{\012\313\325\271\226 j\212\216\017"
 190      FC387B0A 
 190      CBD5B996 
 190      206A8A8E 
 190      0F
 191 0080 76E1674D 		.ascii	"v\341gM\341v\305\322\206A\274\336\275|7{\352\242%\340"
 191      E176C5D2 
 191      8641BCDE 
 191      BD7C377B 
 191      EAA225E0 
 192 0094 5170DDAE 		.ascii	"Qp\335\256}j\012\012\241\340\205}\271\325\347\333\226"
 192      7D6A0A0A 
 192      A1E0857D 
 192      B9D5E7DB 
 192      96
 193 00a5 72395F39 		.ascii	"r9_9\221\023\314k\330\203\306v\330\207\027\007\360\022"
 193      9113CC6B 
 193      D883C676 
 193      D8871707 
 193      F012
 194 00b7 53842C7C 		.ascii	"S\204,|J\336H\376\330ng\222\263=\235H\034\302\311\265"
 194      4ADE48FE 
 194      D86E6792 
 194      B33D9D48 
 194      1CC2C9B5 
 195 00cb 29D79F97 		.ascii	")\327\237\227\355v\263X\254\0179\035\334Z\351\251\312"
 195      ED76B358 
 195      AC0F391D 
 195      DC5AE9A9 
 195      CA
ARM GAS  C:\Users\Bruger\AppData\Local\Temp\ccVRsutO.s 			page 15


 196 00dc 0A55BFC6 		.ascii	"\012U\277\306Y<\265\022\256\322\247vZS\217\330\354\372"
 196      593CB512 
 196      AED2A776 
 196      5A538FD8 
 196      ECFA
 197 00ee F5A6DCAB 		.ascii	"\365\246\334\253\25286\037\022\322\241\374+\325\373"
 197      AA38361F 
 197      12D2A1FC 
 197      2BD5FB
 198 00fd 47D71F45 		.ascii	"G\327\037E\012\276\247\313\347\256\0146\022I\264D\027"
 198      0ABEA7CB 
 198      E7AE0C36 
 198      1249B444 
 198      17
 199 010e 8EB8D131 		.ascii	"\216\270\32117\"\344\220\301\027\273>#\221\257\224\204"
 199      3722E490 
 199      C117BB3E 
 199      2391AF94 
 199      84
 200 011f 3254BFAF 		.ascii	"2T\277\257\012\250 \216\035\2342L#:o\031\013\241@$\026"
 200      0AA8208E 
 200      1D9C324C 
 200      233A6F19 
 200      0BA14024 
 201 0134 D58DE04C 		.ascii	"\325\215\340L 29\036\2346\027\015\335\012G\314\331\360"
 201      2032391E 
 201      9C36170D 
 201      DD0A47CC 
 201      D9F0
 202 0146 92110D8D 		.ascii	"\222\021\015\215\216\350\324\255Gb\246eD\177\001\201"
 202      8EE8D4AD 
 202      4762A665 
 202      447F0181 
 203 0156 738010   		.ascii	"s\200\020"
 204              		.text
 205              		.section	.gnu.lto_InjectionTimer_1_ReadCounter.24c1115a,"",%progbits
 206 0000 789C658F 		.ascii	"x\234e\217\317K\002Q\020\307gf\267M\250@:\366\017H\021"
 206      CF4B0251 
 206      10C76766 
 206      B74DA840 
 206      3AF60F48 
 207 0015 41451DBA 		.ascii	"AE\035\272v\210N\005v\024$l\017\006)\211\235}\033{*"
 207      76884E05 
 207      7614246C 
 207      0F062989 
 207      9D7D1B7B 
 208 002a 8888A05F 		.ascii	"\210\210\240_X]\242\262\314\240c\035\244K\202`H\220"
 208      585DA2B2 
 208      CCA0631D 
 208      A44B8260 
 208      4890
 209 003c 5151200A 		.ascii	"QQ \012\025\030\211e\356!\354\315\326\251\036\014\363"
 209      15188965 
 209      EE21ECCD 
 209      D6A91E0C 
 209      F3
 210 004d BEEFCD7C 		.ascii	"\276\357\315|\346;\012\374?m2F\020\240SfT\000i1\003"
ARM GAS  C:\Users\Bruger\AppData\Local\Temp\ccVRsutO.s 			page 16


 210      E63B0AFC 
 210      3F6D3246 
 210      10A05366 
 210      54006931 
 211 0062 60380891 		.ascii	"`8\010\221/\200\020!\214\3403\225\011\323\371Z\245\371"
 211      2F801021 
 211      8CE03395 
 211      09D3F95A 
 211      A5F9
 212 0074 892C0227 		.ascii	"\211,\002'H\271\236+\276+,\221X\236V2y\315\265#\304"
 212      48B99E2B 
 212      BE2B2C91 
 212      589E5632 
 212      79CDB523 
 213 0089 ECDBD2DD 		.ascii	"\354\333\322\335\364\352\3626ZDP!\300]l\303=\344A\270"
 213      F4EAF236 
 213      5A445021 
 213      C05D6CC3 
 213      3DE441B8 
 214 009d 8F2EAE2D 		.ascii	"\217.\256-\233_\271&\315\024B8\271B~\304P\223& \321"
 214      9B5FB926 
 214      CD144238 
 214      B9427EC4 
 214      50932620 
 215 00b2 9A14F5FA 		.ascii	"\232\024\365\372I\351:5\240\251\004\026)\0120\006\012"
 215      49E93A35 
 215      A0A90416 
 215      290A3006 
 215      0A
 216 00c3 32D85051 		.ascii	"2\330PQ\012\231\225[<\257\316UK\375\334\370I\354\356"
 216      0A99955B 
 216      3CAFCE55 
 216      4BFDDCF8 
 216      49ECEE
 217 00d6 DEBC7A69 		.ascii	"\336\274zia;\352f\312\020*\217y,\\f\035\366\023\260"
 217      613BEA66 
 217      CA102A8F 
 217      792C5C66 
 217      1DF613B0 
 218 00ea ACC5E62F 		.ascii	"\254\305\346/(\212\033\206)\2555\340\201\264u\310\266"
 218      288A1B86 
 218      29AD35E0 
 218      81B475C8 
 218      B6
 219 00fb 308E5104 		.ascii	"0\216Q\004\233\230y\355\371!*\262~+\275\020\327\270"
 219      9B9879ED 
 219      F9212AB2 
 219      7E2BBD10 
 219      D7B8
 220 010d 5D3BCBFE 		.ascii	"];\313\376%j6q\345\346cM\265\211F\262\335\242F<\222"
 220      256A3671 
 220      E5E6634D 
 220      B58946B2 
 220      DDA2463C 
 221 0122 CC84CD3C 		.ascii	"\314\204\315<f\346\003\032\242\367\027\010\274\004\262"
 221      66E6031A 
 221      A2F71708 
ARM GAS  C:\Users\Bruger\AppData\Local\Temp\ccVRsutO.s 			page 17


 221      BC04B2
 222 0131 79B94AC7 		.ascii	"y\271J\307\220\036\320C\343a}\302\353\016\316\204|\272"
 222      901ED043 
 222      E3617DC2 
 222      EB0ECE84 
 222      7CBA
 223 0143 67D41D1C 		.ascii	"g\324\035\034\354\363\014\007&u_\330\037\014\214\371"
 223      ECF30C07 
 223      26755FD8 
 223      1F0C8CF9 
 224 0153 A7F490B7 		.ascii	"\247\364\220\267\273\313\007\337\350\216\216\020"
 224      BBCB07DF 
 224      E88E8E10 
 225              		.text
 226              		.section	.gnu.lto_InjectionTimer_1_ClearFIFO.24c1115a,"",%progbits
 227 0000 789C6591 		.ascii	"x\234e\221\317K\343@\024\307\337{\223L\202\026\021\331"
 227      CF4BE340 
 227      14C7DF7B 
 227      934C8216 
 227      11D9
 228 0012 93E05910 		.ascii	"\223\340Y\020\025<\370\027\310\"\336\004=\026T\2729"
 228      153CF817 
 228      C822DE04 
 228      3D1654BA 
 228      39
 229 0023 28D842D1 		.ascii	"(\330B\321\203'\023\032\024D\245\007a\005\321\036\226"
 229      8327131A 
 229      1444A507 
 229      6105D11E 
 229      96
 230 0034 5D7FAD3F 		.ascii	"]\177\255?+\210(X\005Q((\012\313\242\207\012\322\342"
 230      2B882858 
 230      05512828 
 230      0ACBA287 
 230      0AD2E2
 231 0047 7AD25251 		.ascii	"z\322RQ{\020\367M\"\202\032\310\314\344\315\207\357"
 231      7B10F74D 
 231      22821AC8 
 231      CCE4CD87 
 231      EF
 232 0058 FBCC44C0 		.ascii	"\373\314D\300\347\347+\277\267\010P\3133J@\212\037\003"
 232      E7E72BBF 
 232      B70850CB 
 232      334A408A 
 232      1F03
 233 006a 3826A1E6 		.ascii	"8&\241\346/\204\277\33035\022\243\207\000v\211\356\032"
 233      2F84BFD8 
 233      333512A3 
 233      87007689 
 233      EE1A
 234 007c 60077444 		.ascii	"`\007tDU\007\204A\022\232\216\203\244\371\2017\224'"
 234      55078441 
 234      129A8E83 
 234      A4F98137 
 234      9427
 235 008e 8CA71627 		.ascii	"\214\247\026'K\253\177\332\266}w\226\037\260':\213\004"
 235      4BAB7FDA 
ARM GAS  C:\Users\Bruger\AppData\Local\Temp\ccVRsutO.s 			page 18


 235      B67D7796 
 235      1FB0273A 
 235      8B04
 236 00a0 50209FC0 		.ascii	"P \237\300Y\254\006\206\362\356\363\337R\3512T\356\357"
 236      59AC0686 
 236      F2EEF3DF 
 236      52E93254 
 236      EEEF
 237 00b2 E11C4A56 		.ascii	"\341\034JV\201\225\212\224\375\362\222<\374\036\253"
 237      81958A94 
 237      FDF2923C 
 237      FC1EAB
 238 00c1 1B90028A 		.ascii	"\033\220\002\212,\303\003\351<\010\200,\243\254\220"
 238      2CC303E9 
 238      3C08802C 
 238      A3AC90
 239 00d0 25E249E4 		.ascii	"%\342I\344\270\304^\342\002\367\037F\366\323\342]n*"
 239      B8C45EE2 
 239      02F71F46 
 239      F6D3E25D 
 239      6E2A
 240 00e2 99F9E2A5 		.ascii	"\231\371\342\245\026\010?v\304y>.\340\002\312G\322x"
 240      16083F76 
 240      C4793E2E 
 240      E002CA47 
 240      D278
 241 00f4 2F911E5F 		.ascii	"/\221\036_\222\377\250H\332\316\251ck\012\277\314\236"
 241      92FFA848 
 241      DACEA963 
 241      6B0ABFCC 
 241      9E
 242 0105 9C9A5E09 		.ascii	"\234\232^\011\324\347\360\320\332p\3314N9\023\216Y$"
 242      D4E7F0D0 
 242      DA70D934 
 242      4E39138E 
 242      5924
 243 0117 1D17B112 		.ascii	"\035\027\261\022\177c%\207,\341\264\362\3161\310\227"
 243      7F632587 
 243      2CE1B4F2 
 243      CE31C897 
 244 0127 E2BB1C6F 		.ascii	"\342\273\034o\375\220\357e\0223U\2572\364If\331\223"
 244      FD90EF65 
 244      123355AF 
 244      32F44966 
 244      D993
 245 0139 595132EA 		.ascii	"YQ2\352\010\273\033\316A\231\352,o\217>\312HO&7v\035"
 245      08BB1BCE 
 245      4199EA2C 
 245      6F8F3ECA 
 245      484F2637 
 246 014f 37DE640C 		.ascii	"7\336d\014\\e\2315Of]\311\\`\354i\350\236T\273G\322"
 246      5C659935 
 246      4F665DC9 
 246      5C60EC69 
 246      E89E54BB 
 247 0165 FDD0F4D5 		.ascii	"\375\320\364\325S!\240\022\0047L2\373\007\335\363\330"
 247      5321A012 
ARM GAS  C:\Users\Bruger\AppData\Local\Temp\ccVRsutO.s 			page 19


 247      04374C32 
 247      FB07DDF3 
 247      D8
 248 0176 02BE424C 		.ascii	"\002\276BL8\277\266G\015\217\340\234\015\225\346\235"
 248      38BFB647 
 248      0D8FE09C 
 248      0D95E69D 
 249 0186 4A57179D 		.ascii	"JW\027\235A'\265\231\011(XU\263|\243\256\301\277\242"
 249      4127B599 
 249      09285855 
 249      B37CA3AE 
 249      C1BFA2
 250 0199 A6D90A5B 		.ascii	"\246\331\012[\321\256>\353[G[\244?\032\262\202\255m"
 250      D1AE3EEB 
 250      5B475BA4 
 250      3F1AB282 
 250      AD6D
 251 01ab 91A6C660 		.ascii	"\221\246\306`K\270\307\012\365uG\302\355\335\275V\264"
 251      4BB8C70A 
 251      F57547C2 
 251      EDDDBD56 
 251      B4
 252 01bc A3A13E04 		.ascii	"\243\241>\004\377\001K\205\306u"
 252      FF014B85 
 252      C675
 253              		.text
 254              		.section	.gnu.lto_InjectionTimer_1_WritePeriod.24c1115a,"",%progbits
 255 0000 789C654F 		.ascii	"x\234eO=HBQ\030\375\316}\246\202A\322T\356b\004\005"
 255      3D484251 
 255      18FDCE7D 
 255      A68241D2 
 255      54EE6204 
 256 0015 1135070D 		.ascii	"\0215\007\015\321\026\330(H\350\033\014\362\305\303"
 256      D116D828 
 256      48E81B0C 
 256      F2C5C3
 257 0024 66DF0BDB 		.ascii	"f\337\013\333\032\\\312\250\204(\"\313\312\300\251\355"
 257      1A5CCAA8 
 257      842822CB 
 257      CAC0A9ED 
 258 0034 51635238 		.ascii	"QcR8\204`\220\020J?S\217\027\324\033\302\276[c\027."
 258      84609010 
 258      4A3F538F 
 258      17D41BC2 
 258      BE5B6317 
 259 0049 DF770EE7 		.ascii	"\337w\016\347\236s\256B\377O\210\357\020\210\306yB!"
 259      9E73AE42 
 259      FF4F88EF 
 259      1088C679 
 259      4221
 260 005b 88FC2D91 		.ascii	"\210\374-\221\351\027\200\\\010\224\025\310\342U\330"
 260      E917805C 
 260      089415C8 
 260      E255D8
 261 006a 0279ABBC 		.ascii	"\002y\253\274\025\210\034\032\206\361\276\357\016\256"
 261      15881C1A 
 261      86F1BEEF 
ARM GAS  C:\Users\Bruger\AppData\Local\Temp\ccVRsutO.s 			page 20


 261      0EAE
 262 0078 0DB882C8 		.ascii	"\015\270\202\310\021\17768B\204%\335\252]\367)# \336"
 262      117F3638 
 262      428425DD 
 262      AA5DF729 
 262      2320DE
 263 008b 6F9EBE9C 		.ascii	"o\236\276\234\336\027\341\012\004%\334nt>\024\011\205"
 263      DE17E10A 
 263      0425DC6E 
 263      743E1409 
 263      85
 264 009c 90F0FEED 		.ascii	"\220\360\376\355a\317\037>0\214U\253yaL1\257\240\004"
 264      61CF1F3E 
 264      308C55AB 
 264      79614C31 
 264      AFA004
 265 00af 85FD708C 		.ascii	"\205\375p\214\020N\020\"\246\010e\204\245\334\316}7"
 265      104E1022 
 265      A6086584 
 265      A5DCCE7D 
 265      37
 266 00c0 02DE1C67 		.ascii	"\002\336\034g\007\3772q\012/\327\246J\277et\273N\247"
 266      07FF3271 
 266      0A2FD7A6 
 266      4ABF6574 
 266      BB4EA7
 267 00d3 509AF479 		.ascii	"P\232\364y\270\265\324S\233\025\262~\207\263x*M\\m\332"
 267      B8B5D453 
 267      9B15B27E 
 267      87B3782A 
 267      4D5C6DDA 
 268 00e7 CF05453E 		.ascii	"\317\005E>b\263\232\263\321\022\262\212g\267n\032\036"
 268      62B39AB3 
 268      D112B28A 
 268      67B76E1A 
 268      1E
 269 00f8 E9DF6ADF 		.ascii	"\351\337j\337\325\375\277\024I\270~]\273\354+b\307\314"
 269      D5FDBF14 
 269      49B87E5D 
 269      BBEC2B62 
 269      C7CC
 270 010a C1153D38 		.ascii	"\301\025=8\343F\347\334\210PA\021\237\354\372\010\323"
 270      E346E7DC 
 270      88504111 
 270      9FECFA08 
 270      D3
 271 011b AAC6A59F 		.ascii	"\252\306\245\237\374}[@\346p\352\360\214\232V\365\205"
 271      FC7D5B40 
 271      E670EAF0 
 271      8C9A56F5 
 271      85
 272 012c 8C9A8C47 		.ascii	"\214\232\214G\265\025=\241\306\346\242\332\364Dl6\275"
 272      B5153DA1 
 272      C6E6A2DA 
 272      F4446C36 
 272      BD
 273 013d A8263229 		.ascii	"\250&2)-=\237ZR\365\370\330h\202\274\313\252\236\322"
ARM GAS  C:\Users\Bruger\AppData\Local\Temp\ccVRsutO.s 			page 21


 273      2D3D9F5A 
 273      52F5F8D8 
 273      6882BCCB 
 273      AA9ED2
 274 0150 923F2B69 		.ascii	"\222?+i~\232"
 274      7E9A
 275              		.text
 276              		.section	.gnu.lto_InjectionTimer_1_WriteCompare.24c1115a,"",%progbits
 277 0000 789C654F 		.ascii	"x\234eOMKBQ\020\235\271\327L4AZ\272\027#*\020j\323*"
 277      4D4B4251 
 277      109DB9D7 
 277      4C34415A 
 277      BA17232A 
 278 0018 6811ED02 		.ascii	"h\021\355\002[\012&\257\2670\320\027\017[{\015)p\021"
 278      5B0A26AF 
 278      B730D017 
 278      0F5B7B0D 
 278      297011
 279 002b 161152B8 		.ascii	"\026\021R\270\012\351\303\312>\376\300\303MD\037Z\213"
 279      0AE9C3CA 
 279      3EFEC0C3 
 279      4D441F5A 
 279      8B
 280 003c AC880C51 		.ascii	"\254\210\014Q(\332(\006\345\"ln.\273p\2319\207\231s"
 280      28DA2806 
 280      E5226C6E 
 280      2EBB7099 
 280      39879973 
 281 0050 CE70F8FF 		.ascii	"\316p\370\377\234\364\007\020`\230*r@\226\274\001\210"
 281      9CF40710 
 281      60982A72 
 281      4096BC01 
 281      88
 282 0061 5918A26C 		.ascii	"Y\030\242l\000!\3120\212\357\254\3010idS6wF\010Q\317"
 282      0021CA30 
 282      8AEFACC1 
 282      30696453 
 282      36774608 
 283 0077 AF2ED9C5 		.ascii	"\257.\331\305\372L\213\0014YG\010w\320MC\306\332E\321"
 283      FA4C8B01 
 283      34594708 
 283      77D04D43 
 283      C6DA45D1 
 284 008b CE0711A8 		.ascii	"\316\007\021\250\277\254|7{\336X\213\241C\302\315R\355"
 284      BFAC7C37 
 284      7BDE588B 
 284      A143C2CD 
 284      52ED
 285 009d 934BC898 		.ascii	"\223K\310\230\204\247\231\273\017\253k[\210E\243|,\306"
 285      84A799BB 
 285      0FAB6B5B 
 285      8845A37C 
 285      2CC6
 286 00af 88E7B88B 		.ascii	"\210\347\270\213\234\364p\017\235\270\217N \0120\213"
 286      9CF4700F 
 286      9DB88F4E 
 286      200A308B 
ARM GAS  C:\Users\Bruger\AppData\Local\Temp\ccVRsutO.s 			page 22


 287 00bf 2E39DE88 		.ascii	".9\336\210\377\224l\3468\271;:\236x\200f\012\016\271"
 287      FF946CE6 
 287      38B93B3A 
 287      9E788066 
 287      0A0EB9
 288 00d2 5E43B4DB 		.ascii	"^C\264\333g\347\251\204'\301M\024\\.@\225F\344\0055"
 288      67E7A984 
 288      27C14D14 
 288      5C2E4095 
 288      46E40535 
 289 00e6 32A3CA9F 		.ascii	"2\243\312\2370\277qr\235\032\225[\244v\377\272re\225"
 289      30BF7172 
 289      9D1A955B 
 289      A476FFBA 
 289      726595
 290 00f9 594CCFC5 		.ascii	"YL\317\305\2300I\203r\265pk\371\243@\302B}\371\301\222"
 290      98304983 
 290      72B5706B 
 290      F9A340C2 
 290      427DF9C1 
 291 010e C6AD581C 		.ascii	"\306\255X\034[\254\013\017)\322\021E\002\314a\032\277"
 291      5BAC0B0F 
 291      29D21145 
 291      02CC611A 
 291      BF
 292 011f 48F50563 		.ascii	"H\365\005c\306c\245O\012\312\373\253\014\245\021\331"
 292      C663A54F 
 292      0ACAFBAB 
 292      0CA511D9 
 293 012f F64FA861 		.ascii	"\366O\250aU\017D\324Y\277W[\320\025\3257\345\325\306"
 293      550F44D4 
 293      59BF575B 
 293      D015D537 
 293      E5D5C6
 294 0142 477C93E1 		.ascii	"G|\223\3419U\211\004\265\360t0\244\352~\317\220\002"
 294      39558904 
 294      B5F07430 
 294      A4EA7ECF 
 294      9002
 295 0154 DD8A169A 		.ascii	"\335\212\026\232\017\350\352/gG\200\207"
 295      0FE8EA2F 
 295      67478087 
 296              		.text
 297              		.section	.gnu.lto_InjectionTimer_1_SetInterruptMode.24c1115a,"",%progbits
 298 0000 789C6366 		.ascii	"x\234cf\300\004R@\314\303\310\300`\005\244\031\231\031"
 298      C0045240 
 298      CCC3C8C0 
 298      6005A419 
 298      9919
 299 0012 1899269C 		.ascii	"\030\231&\234c`h\344`bd\0041\030\030\031\352\231\030"
 299      636068E4 
 299      60626404 
 299      31181819 
 299      EA9918
 300 0025 EB195F32 		.ascii	"\353\031_2}db\234p`\365\014n\365\245\015\015\015\037"
 300      7D64629C 
 300      7060F50C 
ARM GAS  C:\Users\Bruger\AppData\Local\Temp\ccVRsutO.s 			page 23


 300      6EF5A50D 
 300      0D0D1F
 301 0038 0EDD6EE3 		.ascii	"\016\335n\343m\230\222\360\223\211\201\3413\023\304"
 301      6D9892F0 
 301      938981E1 
 301      3313C4
 302 0047 20C6E58C 		.ascii	" \306\345\214\352@E\375\017\376\356`c\326ed\000\262"
 302      EA4045FD 
 302      0FFEEE60 
 302      63D66564 
 302      00B2
 303 0059 4F7DFAF6 		.ascii	"O}\372\366\216IuqCC\323\201W\353\032\034\030\177\002"
 303      8E497571 
 303      4343D381 
 303      57EB1A1C 
 303      187F02
 304 006c 4D5DC1C8 		.ascii	"M]\301\310\014\324\301\250#\305\250)\305\000\024``\\"
 304      0CD4C1A8 
 304      23C5A829 
 304      C5001460 
 304      605C
 305 007e C9A80A52 		.ascii	"\311\250\012R\374\261\345\357un\266\026\240\351\002"
 305      FCB1E5EF 
 305      756EB616 
 305      A0E902
 306 008d 10331957 		.ascii	"\0203\031W1\262\001\035\306\260^\350@\303\377\377\237"
 306      31B2011D 
 306      C6B05EE8 
 306      40C3FFFF 
 306      9F
 307 009e DFCDEAB2 		.ascii	"\337\315\352\262]\313\314\0024\002\244\201\341\011P"
 307      5DCBCC02 
 307      3402A481 
 307      E10950
 308 00ad 09C8854F 		.ascii	"\011\310\205O\231\230@4\363-\306C\3236\276\237e\004"
 308      99984034 
 308      F32DC643 
 308      D336BE9F 
 308      6504
 309 00bf D20534ED 		.ascii	"\322\0054\355\350\376}\2639^0\375db\352?\331\330\300"
 309      E8FE7DB3 
 309      395E30FD 
 309      6462EA3F 
 309      D9D8C0
 310 00d2 02B2E0FE 		.ascii	"\002\262\340\376\223\363\027!B\014 n\343\273\367OX\347"
 310      93F31721 
 310      420C206E 
 310      E3BBF74F 
 310      58E7
 311 00e4 32CE6E6C 		.ascii	"2\316nl\001\272\213\231q5\243\024\343\032F`h0\256e\234"
 311      01BA8B99 
 311      7135A314 
 311      E31A4660 
 311      6830AE65 
 312 00f9 CBF81DA8 		.ascii	"\313\370\035\250\350\036c\343\201\375\2575@\006\202"
 312      E81E63E3 
 312      81FDAF35 
ARM GAS  C:\Users\Bruger\AppData\Local\Temp\ccVRsutO.s 			page 24


 312      400682
 313 0108 FCF704E8 		.ascii	"\374\367\004\350V\240E@\315Z\356\251y\251E\211%\251"
 313      56A04540 
 313      CD5AEEA9 
 313      79A94589 
 313      25A9
 314 011a 29F1C1F9 		.ascii	")\361\301\371\245E\311\2511\001\301\371\316\2461\236"
 314      A545C9A9 
 314      3101C1F9 
 314      CEA6319E 
 315 012a 7959A9C9 		.ascii	"yY\251\311%\231\371y!\231\271\251E\361\206z\311\014"
 315      2599F979 
 315      2199B9A9 
 315      45F1867A 
 315      C90C
 316 013c BC997925 		.ascii	"\274\231y%\251EE\245\005%\276\371)\251\000\036\262v"
 316      A94545A5 
 316      0525BEF9 
 316      29A9001E 
 316      B276
 317 014e 6F       		.ascii	"o"
 318              		.text
 319              		.section	.gnu.lto_InjectionTimer_1_ReadStatusRegister.24c1115a,"",%progbits
 320 0000 789C6366 		.ascii	"x\234cf\300\004R@|\013\210u\200\230\221\231\201\221"
 320      C0045240 
 320      7C0B8875 
 320      80989199 
 320      8191
 321 0012 69C23906 		.ascii	"i\3029\006\206F\016&FF\020\203\201\221\241\236\211\261"
 321      86460E26 
 321      46461083 
 321      8191A19E 
 321      89B1
 322 0024 9EF125D3 		.ascii	"\236\361%\323G&\3063;\377]fT_\332\320\320\364\341\323"
 322      4726C633 
 322      3BFF5D66 
 322      545FDAD0 
 322      D0F4E1D3 
 323 0038 C763BCD3 		.ascii	"\307c\274\323\247$\374db`\370\314\304\300\250#\305\250"
 323      A724FC64 
 323      6260F8CC 
 323      C4C0A823 
 323      C5A8
 324 004a 09328871 		.ascii	"\0112\210q9\243:\003P\345\307\226\277\327\271\331Z\032"
 324      39A33A03 
 324      50E5C796 
 324      BFD7B9D9 
 324      5A1A
 325 005c 1A1A0440 		.ascii	"\032\032\004@\362@\211\025\214l\214@z\275\320\201\206"
 325      F2408915 
 325      8C6C8C40 
 325      7ABDD081 
 325      86
 326 006d FFFF379F 		.ascii	"\377\3777\237\231\335\245\271\223\231\231\211\001d\000"
 326      99DDA5B9 
 326      93999989 
 326      016400
ARM GAS  C:\Users\Bruger\AppData\Local\Temp\ccVRsutO.s 			page 25


 327 007c C3132001 		.ascii	"\303\023 \001\262\354)\023\023\210f\276\305x\350[\327"
 327      B2EC2913 
 327      138866BE 
 327      C578E85B 
 327      D7
 328 008d B99D8BD9 		.ascii	"\271\235\213\331@\272\2763\201\254\336\277\245\361("
 328      40BABE33 
 328      81ACDEBF 
 328      A5F128
 329 009c DF0BA69F 		.ascii	"\337\013\246\237L\214\357O46\260\200\354\270\377\344"
 329      4C8CEF4F 
 329      3436B080 
 329      ECB8FFE4 
 330 00ac FC450EB0 		.ascii	"\374E\016\260\020\003\210\333\361dE\013\357\\\306\331"
 330      100388DB 
 330      F164450B 
 330      EF5CC6D9 
 331 00bc 8D2D8D07 		.ascii	"\215-\215\0074\177211\256d\224b\\\305\010t\025\343j"
 331      347F3231 
 331      31AE6494 
 331      625CC508 
 331      7415E36A 
 332 00d0 C6B98C0C 		.ascii	"\306\271\214\014\367\030\033\033\214\241\006\202\355"
 332      F7181B1B 
 332      8CA10682 
 332      ED
 333 00dd 6404D905 		.ascii	"d\004\331\005dj\271\247\346\245\026%\226\244\246\304"
 333      646AB9A7 
 333      E6A51625 
 333      96A4A6C4 
 334 00ed 07E79716 		.ascii	"\007\347\227\026%\247\306\004\004\347;\233\306x\346"
 334      25A7C604 
 334      04E73B9B 
 334      C678E6
 335 00fc 65A52697 		.ascii	"e\245&\227d\346\347\205d\346\246\026\305\033\352%3\000"
 335      64E6E785 
 335      64E6A616 
 335      C51BEA25 
 335      3300
 336 010e 009AFD60 		.ascii	"\000\232\375`\330"
 336      D8
 337              		.text
 338              		.section	.gnu.lto_InjectionTimer_1_ReadControlRegister.24c1115a,"",%progbits
 339 0000 789C654F 		.ascii	"x\234eO=HBQ\024>\337\275!b\024\321\350\352 I\005\021"
 339      3D484251 
 339      143EDFBD 
 339      216214D1 
 339      E8EA2049 
 340 0016 8ED1D010 		.ascii	"\216\321\320\020m\205\215\202\205\275\301(\205\227n"
 340      6D858D82 
 340      85BDC128 
 340      85976E
 341 0025 81F79993 		.ascii	"\201\367\231\223\020HD\016\342\020!i?44D`\360j\210\250"
 341      1048440E 
 341      E2102169 
 341      3F343444 
 341      60F06A88 
ARM GAS  C:\Users\Bruger\AppData\Local\Temp\ccVRsutO.s 			page 26


 342 003a 282228E8 		.ascii	"(\"(\350\327A\241\226J\242B\242\354^i\010:p9\037\207"
 342      D741A196 
 342      4AA242A2 
 342      EC5E6908 
 342      3A70391F 
 343 004f EFEF72FA 		.ascii	"\357\357r\372?v\371\334 \352\226\033\234\300\222'D\206"
 343      3F76F9DC 
 343      20EA961B 
 343      9CC09227 
 343      4486
 344 0061 95010A10 		.ascii	"\225\001\012\020(\312\020\305#\2530\034o\177\237\303"
 344      28CA10C5 
 344      23AB301C 
 344      6F7F9FC3 
 345 0071 991522F6 		.ascii	"\231\025\"\3662W\335oJ\315\217T\031\321+#\264\333\321"
 345      3257DD6F 
 345      4ACD8F54 
 345      19D12B23 
 345      B4DBD1
 346 0084 A68CB00C 		.ascii	"\246\214\260\014'If\376\346\315l\346\035P8\265\233]"
 346      274966FE 
 346      E6CD6CE6 
 346      1D5038B5 
 346      9B5D
 347 0096 B03916A5 		.ascii	"\2609\026\245\252x\2645\235\022E\221\024\265Z/\244\026"
 347      AA78B435 
 347      9D124591 
 347      14B55A2F 
 347      A416
 348 00a8 39F0BF72 		.ascii	"9\360\277r5RQ\211\177]6Z\342B\210\026\344\341P\011\322"
 348      35525189 
 348      7F5D365A 
 348      E2428816 
 348      E4E15009 
 349 00bd 7A051659 		.ascii	"z\005\026Y\023\352\262\321jJ\213\315r:\321S\340\\\032"
 349      13EAB2D1 
 349      6A4A8BCD 
 349      723AD153 
 349      E05C1A
 350 00d0 28169524 		.ascii	"(\026\225$Mu.3\2466\277\302\336{\342\2510cS\322\017"
 350      4D752E33 
 350      A636BFC2 
 350      DE7BE2A9 
 350      306353D2 
 351 00e5 A67E30BB 		.ascii	"\246~0\273T\333\341\017\254\312\360yh\210\006\025v_"
 351      54DBE10F 
 351      ACCAF079 
 351      68880615 
 351      765F
 352 00f7 3A3DB3D6 		.ascii	":=\263\326O\365\354b\356\372\326\232A\332\210\033\246"
 352      4FF5EC62 
 352      EEFAD69A 
 352      41DA881B 
 352      A6
 353 0108 ABCA1856 		.ascii	"\253\312\030Va\307\032d;\254#\003\272@L\014\325\273"
 353      61C71A64 
 353      3BAC2303 
ARM GAS  C:\Users\Bruger\AppData\Local\Temp\ccVRsutO.s 			page 27


 353      BA404C0C 
 353      D5BB
 354 011a C84C694A 		.ascii	"\310LiJw0\314\314\363\001~CH\365\200\312\227\320\325"
 354      7730CCCC 
 354      F3017E43 
 354      48F580CA 
 354      97D0D5
 355 012d AF05357D 		.ascii	"\257\0055}4\254\215\371<\241\210\356\327\274\203\236"
 355      34AC8DF9 
 355      3CA188EE 
 355      D7BC839E 
 356 013d 509FDB3B 		.ascii	"P\237\333;\020\034\327\374\341@(8\034\230\324t_W\247"
 356      101CD7FC 
 356      E1402838 
 356      1C98D474 
 356      5F57A7
 357 0150 9F2CBA36 		.ascii	"\237,\2726\025\231\010\377\000p\233\202+"
 357      159908FF 
 357      00709B82 
 357      2B
 358              		.text
 359              		.section	.gnu.lto_InjectionTimer_1_WriteControlRegister.24c1115a,"",%progbits
 360 0000 789C6366 		.ascii	"x\234cf\300\004R@\314\315\310\300`\002\244\031\231\031"
 360      C0045240 
 360      CCCDC8C0 
 360      6002A419 
 360      9919
 361 0012 1899269C 		.ascii	"\030\231&\234c`h\344`bd\0041\030\030\031\352\231\030"
 361      636068E4 
 361      60626404 
 361      31181819 
 361      EA9918
 362 0025 EB195F32 		.ascii	"\353\031_2}db\234p`\365\014n\365\245\015\015\015\037"
 362      7D64629C 
 362      7060F50C 
 362      6EF5A50D 
 362      0D0D1F
 363 0038 2EFD6FE3 		.ascii	".\375o\343m\230\222\360\223\211\201\3413\023\304 \306"
 363      6D9892F0 
 363      938981E1 
 363      3313C420 
 363      C6
 364 0049 E58CEA40 		.ascii	"\345\214\352@E\313\216\034\223b\326ed\0002\177m\236"
 364      45CB8E1C 
 364      9362D665 
 364      6400327F 
 364      6D9E
 365 005b B49A5375 		.ascii	"\264\232SuqCC\323\201w\353\032\034\030\177\002\015]"
 365      714343D3 
 365      8177EB1A 
 365      1C187F02 
 365      0D5D
 366 006d C1C80CD4 		.ascii	"\301\310\014\324\300\250#\305\250)\305\000\024``\\\311"
 366      C0A823C5 
 366      A829C500 
 366      1460605C 
 366      C9
ARM GAS  C:\Users\Bruger\AppData\Local\Temp\ccVRsutO.s 			page 28


 367 007e A80A52FC 		.ascii	"\250\012R\374\261\345\357un\266\026\240\341\002\020"
 367      B1E5EF75 
 367      6EB616A0 
 367      E10210
 368 008d 23195731 		.ascii	"#\031W1\262\001\335\305\260^\350@\303\377\377\233\377"
 368      B201DDC5 
 368      B05EE840 
 368      C3FFFF9B 
 368      FF
 369 009e CFEE523C 		.ascii	"\317\356R<\301\314\0024\002\244\201\341\011P\011\310"
 369      C1CC0234 
 369      02A481E1 
 369      095009C8 
 370 00ae 814F9998 		.ascii	"\201O\231\230@4\363-\306C\323>\376\237m\004\322\005"
 370      4034F32D 
 370      C643D33E 
 370      FE9F6D04 
 370      D205
 371 00c0 34AD77F1 		.ascii	"4\255w\361\377\275\314/\230~21\375>\325\330\300\002"
 371      FFBDCC2F 
 371      987E3231 
 371      FD3ED5D8 
 371      C002
 372 00d2 B2E0FE93 		.ascii	"\262\340\376\223\363\0279\300B\014 \356\203\025\267"
 372      F31739C0 
 372      420C20EE 
 372      8315B7
 373 00e1 EF72CC65 		.ascii	"\357r\314e\234\335\330\002t\0273\343jF)\3065\214\300"
 373      9CDDD802 
 373      741733E3 
 373      6A4629C6 
 373      358CC0
 374 00f4 C0605CCB 		.ascii	"\300`\\\3138\227\361;P\321=\306\306\003\023?i\200\014"
 374      3897F13B 
 374      50D13DC6 
 374      C603133F 
 374      69800C
 375 0107 0479EF09 		.ascii	"\004y\357\011\320\255@\213\200\232\265\334S\363R\213"
 375      D0AD408B 
 375      809AB5DC 
 375      53F3528B 
 376 0117 124B5253 		.ascii	"\022KRS\342\203\363K\213\222Sc\002\202\363\235Mc<\363"
 376      E283F34B 
 376      8B925363 
 376      0282F39D 
 376      4D633CF3 
 377 012b B252934B 		.ascii	"\262R\223K2\363\363B2sS\213\342\015\365\222\031\330"
 377      32F3F342 
 377      3273538B 
 377      E20DF592 
 377      19D8
 378 013d 93F3F34A 		.ascii	"\223\363\363J\212\362s\000\033Vs\015"
 378      8AF27300 
 378      1B56730D 
 379              		.text
 380              		.section	.gnu.lto_InjectionTimer_1_ReadCapture.24c1115a,"",%progbits
 381 0000 789C6366 		.ascii	"x\234cf\300\004R@\374\033\210u\200\230\221\231\201\221"
ARM GAS  C:\Users\Bruger\AppData\Local\Temp\ccVRsutO.s 			page 29


 381      C0045240 
 381      FC1B8875 
 381      80989199 
 381      8191
 382 0012 69C23906 		.ascii	"i\3029\006\206F\016&FF\020\203\201\221\241\236\211\261"
 382      86460E26 
 382      46461083 
 382      8191A19E 
 382      89B1
 383 0024 9EF125D3 		.ascii	"\236\361%\323G&\306\323\217~|\346y\301\364\223\211A"
 383      4726C6D3 
 383      8F7E7CE6 
 383      79C1F493 
 383      8941
 384 0036 8001C89D 		.ascii	"\200\001\310\235u\375\351\027f\020\227\221\011\304\335"
 384      75FDE917 
 384      66109791 
 384      09C4DD
 385 0045 FDF9DC23 		.ascii	"\375\371\334#6\365\245\015\015M\037\036Mm\347\2331e"
 385      36F5A50D 
 385      0D4D1F1E 
 385      4D6DE79B 
 385      3165
 386 0057 01E34F26 		.ascii	"\001\343O&&\206\317L\014\214\313\031\245\030W0\202l"
 386      2686CF4C 
 386      0C8CCB19 
 386      A5185730 
 386      826C
 387 0069 625CC9A8 		.ascii	"b\\\311\250\016R\374\261\345\357un\266\226\206\206\006"
 387      0E52FCB1 
 387      E5EF756E 
 387      B6968686 
 387      06
 388 007a 01900AA0 		.ascii	"\001\220\012\240\304*F6F \275^\350@\303\377\377\237"
 388      C42A4636 
 388      4620BD5E 
 388      E840C3FF 
 388      FF9F
 389 008c AFCFE952 		.ascii	"\257\317\351R=\315\314\314\304\0002\202\341\011\020"
 389      3DCDCCCC 
 389      C4003282 
 389      E10910
 390 009b 835CF314 		.ascii	"\203\\\363\024\310\001\322\314\267\030\017}\353:vz1"
 390      C801D2CC 
 390      B7180F7D 
 390      EB3A767A 
 390      31
 391 00ac 1B48D777 		.ascii	"\033H\327w&\220\333\346\237\356[\313\006r\014\363\236"
 391      2690DBE6 
 391      9FEE5BCB 
 391      06720CF3 
 391      9E
 392 00bd 8B8D0D2C 		.ascii	"\213\215\015, ;\356?9\177\221\003,\304\000\342N\277"
 392      203BEE3F 
 392      397F9103 
 392      2CC400E2 
 392      4EBF
ARM GAS  C:\Users\Bruger\AppData\Local\Temp\ccVRsutO.s 			page 30


 393 00cf F17526CB 		.ascii	"\361u&\313\\\306\331\215-\215\0074\1772\2610\256\006"
 393      5CC6D98D 
 393      2D8D0734 
 393      7F32B130 
 393      AE06
 394 00e1 BA6A0DC8 		.ascii	"\272j\015\310U\214k\031\34722\334cll0\206\032\310\000"
 394      558C6B19 
 394      E73232DC 
 394      636C6C30 
 394      861AC800 
 395 00f5 B2931164 		.ascii	"\262\223\021d\027\220\251\345\236\232\227Z\224X\222"
 395      1790A9E5 
 395      9E9A975A 
 395      945892
 396 0104 9A121F9C 		.ascii	"\232\022\037\234_Z\224\234\032\023\020\234\357l\032"
 396      5F5A949C 
 396      1A13109C 
 396      EF6C1A
 397 0113 E3999795 		.ascii	"\343\231\227\225\232\\\222\231\237\027\222\231\233Z"
 397      9A5C9299 
 397      9F179299 
 397      9B5A
 398 0121 146FA897 		.ascii	"\024o\250\227\314\000\000\212\301n\342"
 398      CC00008A 
 398      C16EE2
 399              		.text
 400              		.section	.gnu.lto_InjectionTimer_1_ReadCompare.24c1115a,"",%progbits
 401 0000 789C6366 		.ascii	"x\234cf\300\004R@\374\033\210u\200\230\221\231\201\221"
 401      C0045240 
 401      FC1B8875 
 401      80989199 
 401      8191
 402 0012 69C23906 		.ascii	"i\3029\006\206F\016&FF\020\203\201\221\241\236\211\261"
 402      86460E26 
 402      46461083 
 402      8191A19E 
 402      89B1
 403 0024 9EF125D3 		.ascii	"\236\361%\323G&\306\323\217~|\346y\301\364\223\211A"
 403      4726C6D3 
 403      8F7E7CE6 
 403      79C1F493 
 403      8941
 404 0036 8001C89D 		.ascii	"\200\001\310\235u\375\351\027f\020\227\221\011\304\335"
 404      75FDE917 
 404      66109791 
 404      09C4DD
 405 0045 FDF9DC23 		.ascii	"\375\371\334#6\365\245\015\015M\037\232\346\266\363"
 405      36F5A50D 
 405      0D4D1F9A 
 405      E6B6F3
 406 0054 CD98B280 		.ascii	"\315\230\262\200\361'\023\023\303g&\006\306\345\214"
 406      F1271313 
 406      C3672606 
 406      C6E58C
 407 0063 528C2B18 		.ascii	"R\214+\030A61\256dT\007)\376\330\362\367:7[KCC\203\000"
 407      413631AE 
 407      64540729 
ARM GAS  C:\Users\Bruger\AppData\Local\Temp\ccVRsutO.s 			page 31


 407      FED8F2F7 
 407      3A375B4B 
 408 007b 48055062 		.ascii	"H\005Pb\025#\033#\220^/t\240\341\377\377\317_\346t\331"
 408      15231B23 
 408      905E2F74 
 408      A0E1FFFF 
 408      CF5FE674 
 409 0090 9E636666 		.ascii	"\236cffb\000\031\301\360\004\210A\256y\012\344\000i"
 409      620019C1 
 409      F0048841 
 409      AE790AE4 
 409      0069
 410 00a2 E65B8C87 		.ascii	"\346[\214\207\276u\275;\267\230\035\244\353;\023\310"
 410      BE75BD3B 
 410      B7981DA4 
 410      EB3B13C8 
 411 00b2 6DD71EF4 		.ascii	"m\327\036\364\235\341\0029\206\371\316\205\306\006\026"
 411      9DE10239 
 411      86F9CE85 
 411      C60616
 412 00c1 901DF79F 		.ascii	"\220\035\367\237\234\277\310\001\026b\000q\317\177h"
 412      9CBFC801 
 412      16620071 
 412      CF7F68
 413 00d0 BFC13197 		.ascii	"\277\3011\227qvcK\343\001\335\237L,\214\253\201\256"
 413      7176634B 
 413      E301DD9F 
 413      4C2C8CAB 
 413      81AE
 414 00e2 5A037215 		.ascii	"Z\003r\025\343Z\306\271\214\014\367\030\033\033\254"
 414      E35AC6B9 
 414      8C0CF718 
 414      1B1BAC
 415 00f1 A1063280 		.ascii	"\241\0062\200\354d\004\331\005dj\271\247\346\245\026"
 415      EC6404D9 
 415      05646AB9 
 415      A7E6A516 
 416 0101 2596A4A6 		.ascii	"%\226\244\246\304\007\347\227\026%\247\306\004\004\347"
 416      C407E797 
 416      1625A7C6 
 416      0404E7
 417 0110 3B9BC678 		.ascii	";\233\306x\346e\245&\227d\346\347\205d\346\246\026\305"
 417      E665A526 
 417      9764E6E7 
 417      8564E6A6 
 417      16C5
 418 0122 1BEA2533 		.ascii	"\033\352%3\000\000\320\247o\255"
 418      0000D0A7 
 418      6FAD
 419              		.text
 420              		.section	.gnu.lto_InjectionTimer_1_ReadPeriod.24c1115a,"",%progbits
 421 0000 789C6366 		.ascii	"x\234cf\300\004R@\374\033\210u\200\230\221\231\201\221"
 421      C0045240 
 421      FC1B8875 
 421      80989199 
 421      8191
 422 0012 69C23906 		.ascii	"i\3029\006\206F\016&FF\020\203\201\221\241\236\211\261"
ARM GAS  C:\Users\Bruger\AppData\Local\Temp\ccVRsutO.s 			page 32


 422      86460E26 
 422      46461083 
 422      8191A19E 
 422      89B1
 423 0024 9EF125D3 		.ascii	"\236\361%\323G&\306\323\217~|\346y\301\364\223\211A"
 423      4726C6D3 
 423      8F7E7CE6 
 423      79C1F493 
 423      8941
 424 0036 8001C89D 		.ascii	"\200\001\310\235u\375\351\027f\020\227\221\011\304\335"
 424      75FDE917 
 424      66109791 
 424      09C4DD
 425 0045 FDF9DC23 		.ascii	"\375\371\334#6\365\245\015\015M\037\016\355m\347\231"
 425      36F5A50D 
 425      0D4D1F0E 
 425      ED6DE799 
 426 0055 316501E3 		.ascii	"1e\001\343O&&\206\317L\014\214\313\031\245\030W0\202"
 426      4F262686 
 426      CF4C0C8C 
 426      CB19A518 
 426      573082
 427 0068 6C625CC9 		.ascii	"lb\\\311\250\016R\374\261\345\357un\266\226\206\206"
 427      A80E52FC 
 427      B1E5EF75 
 427      6EB69686 
 427      86
 428 0079 0601900A 		.ascii	"\006\001\220\012\240\304*F6F \275^\350@\303\377\377"
 428      A0C42A46 
 428      364620BD 
 428      5EE840C3 
 428      FFFF
 429 008b 9FBFCD6D 		.ascii	"\237\277\315m\322\275\317\314\314\304\0002\202\341\011"
 429      D2BDCFCC 
 429      CCC40032 
 429      82E109
 430 009a 10835CF3 		.ascii	"\020\203\\\363\024\310\001\322\314\267\030\017}\353"
 430      14C801D2 
 430      CCB7180F 
 430      7DEB
 431 00a8 3A777F31 		.ascii	":w\1771\033H\327w&\220\333\316|\236z\237\011\344\030"
 431      1B48D777 
 431      2690DBCE 
 431      7C9E7A9F 
 431      09E418
 432 00bb E639171B 		.ascii	"\3469\027\033\033X@v\334\177r\376\"\007X\210\001\304"
 432      1B584076 
 432      DC7F72FE 
 432      22075888 
 432      01C4
 433 00cd ED397C66 		.ascii	"\3559|f'\377\\\306\331\215-\215\0074\1772\2610\256\006"
 433      27FF5CC6 
 433      D98D2D8D 
 433      07347F32 
 433      B130AE06 
 434 00e1 BA6A0DC8 		.ascii	"\272j\015\310U\214k\031\34722\334cll0\206\032\310\000"
 434      558C6B19 
ARM GAS  C:\Users\Bruger\AppData\Local\Temp\ccVRsutO.s 			page 33


 434      E73232DC 
 434      636C6C30 
 434      861AC800 
 435 00f5 B2931164 		.ascii	"\262\223\021d\027\220\251\345\236\232\227Z\224X\222"
 435      1790A9E5 
 435      9E9A975A 
 435      945892
 436 0104 9A121F9C 		.ascii	"\232\022\037\234_Z\224\234\032\023\020\234\357l\032"
 436      5F5A949C 
 436      1A13109C 
 436      EF6C1A
 437 0113 E3999795 		.ascii	"\343\231\227\225\232\\\222\231\237\027\222\231\233Z"
 437      9A5C9299 
 437      9F179299 
 437      9B5A
 438 0121 146FA897 		.ascii	"\024o\250\227\314\000\000\361\207o\204"
 438      CC0000F1 
 438      876F84
 439              		.text
 440              		.section	.gnu.lto_.symbol_nodes.24c1115a,"",%progbits
 441 0000 789C55D0 		.ascii	"x\234U\320\273\015\3020\030\004\340\363\3578q\336q\026"
 441      BB0DC230 
 441      1804E0F3 
 441      EF3871DE 
 441      7116
 442 0012 60096A56 		.ascii	"`\011jV\273\024tH\210\011\020H\214\300\034\014A\315"
 442      BB147448 
 442      88091048 
 442      8CC01C0C 
 442      41CD
 443 0024 10584AE3 		.ascii	"\020XJ\343\273\346\364IW\235\007pr\330cF\340\366\001"
 443      BBE6F449 
 443      579D0770 
 443      72D86346 
 443      E0F601
 444 0037 48DC1F11 		.ascii	"H\334\037\021\346\350J\007\340\231'\346i2\253\350\305"
 444      E6E84A07 
 444      E09927E6 
 444      6932ABE8 
 444      C5
 445 0048 8195B866 		.ascii	"\201\225\270f\0207\254\305\221\215\270e\024wl\305=;"
 445      1037ACC5 
 445      918DB865 
 445      14776CC5 
 445      3D3B
 446 005a F1C05E3C 		.ascii	"\361\300^<r\020O\034\3053'\361\302\271\264[\271\354"
 446      72104F1C 
 446      C53327F1 
 446      C2B9B45B 
 446      B9EC
 447 006c C6B66526 		.ascii	"\306\266e&\246\202\036+\316\227\337\301#\341u\315\235"
 447      A6821E2B 
 447      CE97DFC1 
 447      23E175CD 
 447      9D
 448 007d DFFBBE8F 		.ascii	"\337\373\276\217\370\003\305+Q\366"
 448      F803C52B 
ARM GAS  C:\Users\Bruger\AppData\Local\Temp\ccVRsutO.s 			page 34


 448      51F6
 449              		.text
 450              		.section	.gnu.lto_.refs.24c1115a,"",%progbits
 451 0000 789C6366 		.ascii	"x\234cf``\340d\200\000&F bdba\000\000\001*\000\032"
 451      6060E064 
 451      80002646 
 451      20626462 
 451      61000001 
 452              		.text
 453              		.section	.gnu.lto_.decls.24c1115a,"",%progbits
 454 0000 789C8D96 		.ascii	"x\234\215\226kL\024W\024\307\347\356]\020\226\005l\023"
 454      6B4C1457 
 454      14C7E7EE 
 454      5D109605 
 454      6C13
 455 0012 D1D83662 		.ascii	"\321\3306blM\332\030\023?\264\361[M\210\032\373$\322"
 455      6C4DDA18 
 455      133FB4F1 
 455      5B4D881A 
 455      FB24D2
 456 0025 C787B6B1 		.ascii	"\307\207\266\261[\230\3506\010d]\222\362mxXQ\261\256"
 456      5B98E836 
 456      08645D92 
 456      F26D7858 
 456      51B1AE
 457 0038 B48A5234 		.ascii	"\264\212R4\340\033\004\004\254]WA\226\207( n\205\025"
 457      E01B0404 
 457      AC5D5741 
 457      96872820 
 457      6E8515
 458 004b 584158C0 		.ascii	"XAX\300\007*\362\226h|l\317\275w\306\235\331\235U&\371"
 458      072AF296 
 458      687C6CCF 
 458      BD77C69D 
 458      D99D5526 
 459 0060 2FF338E7 		.ascii	"/\3638\347w\036\367\334\0310\307q\211Z\216\363\300\221"
 459      771EF7DC 
 459      1930C771 
 459      895A8EF3 
 459      C091
 460 0072 A5E3B8E3 		.ascii	"\245\343\270\343\032\216{\013\356\305r\336\343mP)\250"
 460      1A8E7B0B 
 460      EEC572DE 
 460      E36D5029 
 460      A8
 461 0083 1C5401AA 		.ascii	"\034T\001\252\002\325\200\354\240zP#\250\011\344\000"
 461      02D580EC 
 461      A07A5023 
 461      A809E400 
 462 0093 B5839CA0 		.ascii	"\265\203\234\240NP7\350&\250\027\324\007r\203\020h\210"
 462      4E5037E8 
 462      26A817D4 
 462      07728310 
 462      6888
 463 00a5 531EA562 		.ascii	"S\036\245b\014\022\263\005\024\005\262\201\206AwA\021"
 463      0C12B305 
 463      1405B281 
ARM GAS  C:\Users\Bruger\AppData\Local\Temp\ccVRsutO.s 			page 35


 463      86417741 
 463      11
 464 00b6 203DE811 		.ascii	" =\350\021h\0044\012\372\0174\006j\003M\200\306AS\240"
 464      6804340A 
 464      FA0F3406 
 464      6A034D80 
 464      C64153A0 
 465 00ca 4991A913 		.ascii	"I\221\251\023\2715>\371\271\305\\\352\305\374\3329\377"
 465      B9353EF9 
 465      B9C55CEA 
 465      C5FCDA39 
 465      FF
 466 00db 83D41922 		.ascii	"\203\324\031\"\346Cr\231\026\363z\014*\226\345E\016"
 466      E6437299 
 466      16F37A0C 
 466      2A96E545 
 466      0E
 467 00ec 2CDA978A 		.ascii	",\332\227\212\275Q\253\217\334\327\312xr\177$>\367="
 467      BD51AB8F 
 467      DCD7CA78 
 467      727F243E 
 467      F73D
 468 00fe AADEE053 		.ascii	"\252\336\340S\245\342Cj\015\026}\244\236\221>J}\223"
 468      A5E2436A 
 468      0D167DA4 
 468      9E913E4A 
 468      7D93
 469 0110 7C6B547C 		.ascii	"|kT|\355b\315r?\022W\352\251\324c\211aWa\324s\336\276"
 469      ED62CD72 
 469      3F1257EA 
 469      A9D46389 
 469      615761D4 
 470 0127 B5C8186A 		.ascii	"\265\310\030j\353\203\271\327\257A\343,kiT\361m\232"
 470      EB83B9D7 
 470      AF41E32C 
 470      6B6954F1 
 470      6D9A
 471 0139 A56F938A 		.ascii	"\245o\223\212/\231\021\251\357\244\006\337\276;T|\332"
 471      2F9911A9 
 471      EFA406DF 
 471      BE3B547C 
 471      DA
 472 014a C57A5A7C 		.ascii	"\305zZ|jD\001js\276\306\336\251b\337\371\206\234:U|"
 472      6A44016A 
 472      73BEC6DE 
 472      A962DFF9 
 472      869C3A55 
 473 015f 485F8338 		.ascii	"H_\2038e\375\276k\330\255\342ws\026~7U\374zg\341\327"
 473      65FDBE6B 
 473      D8ADE277 
 473      73167E37 
 473      55FC7A67 
 474 0175 ABE237A1 		.ascii	"\253\3427\241A\266\362\351\266\260a\015\212\320E\223"
 474      41B6F2E9 
 474      B6B0610D 
 474      8AD04593 
 475 0185 CBF3B957 		.ascii	"\313\363\271W\366\007\303\245^\247%\227\027\236\015"
ARM GAS  C:\Users\Bruger\AppData\Local\Temp\ccVRsutO.s 			page 36


 475      F607C3A5 
 475      5EA72597 
 475      179E0D
 476 0194 3AB5F3F7 		.ascii	":\265\363\367\012pX2\205\271Z\024\033\205N\240\205\350"
 476      0A705832 
 476      85B95A14 
 476      1B854EA0 
 476      85E8
 477 01a6 245A08D4 		.ascii	"$Z\010\324b4\037~\177\3202R\241\253\365\"\302\032D\316"
 477      62341F7E 
 477      7FD03252 
 477      A1ABF522 
 477      C21A44CE 
 478 01ba 8FEC1F70 		.ascii	"\217\354\037p\352\226\225\200[\266`\267co\270=;\373"
 478      EA969580 
 478      5BB660B7 
 478      636FB83D 
 478      3BFB
 479 01cc B2C3A30F 		.ascii	"\262\303\243\017\011\356\212\361\332\356\337\361\001"
 479      09EE8AF1 
 479      DAEEDFF1 
 479      01
 480 01d9 A1304378 		.ascii	"\2410Cx\351\361 \012C%\010\243Sh\031M\031\316Y\356\245"
 480      E9F1200A 
 480      432508A3 
 480      5368194D 
 480      19CE59EE 
 481 01ee 281A1C1D 		.ascii	"(\032\034\035\371\327\035\241\3703J\317\330\231\333"
 481      F9D71DA1 
 481      F8334ACF 
 481      D899DB
 482 01fd 85005258 		.ascii	"\205\000RXQ8V%\254\312\022\236{<\230\002\312d\2002\011"
 482      51385625 
 482      ACCA129E 
 482      7B3C9802 
 482      CA648032 
 483 0212 504E014F 		.ascii	"PN\001O\257V;C\260\201\002\362\236\026\237\011\243Y"
 483      AF563B43 
 483      B08102F2 
 483      9E169F09 
 483      A359
 484 0224 14EE3E11 		.ascii	"\024\356>\021|E\260{<\265\002\242\204\3232\302i\211"
 484      7C45B07B 
 484      3CB502A2 
 484      84D332C2 
 484      6989
 485 0236 50410933 		.ascii	"PA\0113\323]\351sp\032%\334.\317\352\210d)\270D\302"
 485      D35DE973 
 485      701A25DC 
 485      2ECFEA88 
 485      6429B844 
 486 024b A7D4BF52 		.ascii	"\247\324\277R\346_)\371WQ\377\326\301'Sz\332\352\271"
 486      E65F29F9 
 486      5751FFD6 
 486      C127537A 
 486      DAEAB9
 487 025e 0491DF75 		.ascii	"\004\221\337ug\032\323Vk\310\345\301\311\321\352P\274"
ARM GAS  C:\Users\Bruger\AppData\Local\Temp\ccVRsutO.s 			page 37


 487      671AD356 
 487      6BC8E5C1 
 487      C9D1EA50 
 487      BC
 488 026f 1B517CFA 		.ascii	"\033Q|\372\361\0139s\340Y\264\216v-\357\341\223\177"
 488      F10B3973 
 488      E059B48E 
 488      762DEFE1 
 488      937F
 489 0281 42E82514 		.ascii	"B\350%\024\01274\317\206\312O\004\243\245\272\243\320"
 489      0A3734CF 
 489      86CA4F04 
 489      A3A5BAA3 
 489      D0
 490 0292 E1F1F263 		.ascii	"\341\361\362c\027?\313\024V!\033\322\241\263\257\302"
 490      173FCB14 
 490      56211BD2 
 490      A1B3AFC2 
 491 02a2 535F7264 		.ascii	"S_rd\013B\206 d\012A'#8t\006\026\357\037X<t\016-\005"
 491      0B428620 
 491      640A4127 
 491      23387406 
 491      16EF1F58 
 492 02bb 0B6A8BFE 		.ascii	"\013j\213\376\205\233V\270\011\221\252\217>\030\015"
 492      859B56B8 
 492      0991AA8F 
 492      3E180D
 493 02ca D3C26788 		.ascii	"\323\302g\210\322~\240C\320\177v\306\252\0138\004\027"
 493      D27EA043 
 493      D07F76C6 
 493      AA0B3804 
 493      17
 494 02db E8109C47 		.ascii	"\350\020\234G\342\024\034)k+\321\340s\254\214\336\311"
 494      E2141C29 
 494      6B2BD1E0 
 494      73AC8CDE 
 494      C9
 495 02ec CABB61E2 		.ascii	"\312\273a\342jw\346\207\277Zm\015\361B\325\262VUK\255"
 495      6A77E687 
 495      BF5A6D0D 
 495      F142D5B2 
 495      56554BAD 
 496 0300 AA618BB5 		.ascii	"\252a\213\265\265\255\037\313C\222l\2741/*\006/\247"
 496      B5AD1FCB 
 496      43926CBC 
 496      312F2A06 
 496      2FA7
 497 0312 726A9F1E 		.ascii	"rj\237\036w\262\220\031\035O\237h\351\302\270]\273."
 497      77B29019 
 497      1D4F9F68 
 497      E9C2B85D 
 497      BB2E
 498 0324 EB05B634 		.ascii	"\353\005\2664\324\005\325\312\002\326J\001\3554\340"
 498      D405D5CA 
 498      02D64A01 
 498      ED34E0
 499 0333 9EB10284 		.ascii	"\236\261\002\204\247\030\"\267#\307\203h\326\356]\016"
ARM GAS  C:\Users\Bruger\AppData\Local\Temp\ccVRsutO.s 			page 38


 499      A71822B7 
 499      23C78368 
 499      D6EE5D0E 
 500 0343 0901F3C1 		.ascii	"\011\001\363\301f\264N\006\251\223 \365\024r\270\371"
 500      66B44E06 
 500      A99320F5 
 500      1472B8F9 
 501 0353 D600C67F 		.ascii	"\326\000\306\177\260-\260w[zU\004\243\2648x;\035\322"
 501      B02DB077 
 501      5B7A5504 
 501      A3B43878 
 501      3B1DD2
 502 0366 CC10DA2F 		.ascii	"\314\020\332/\324 c4H\214F\312\350\254\272Q\243\301"
 502      D4206334 
 502      488C46CA 
 502      E8ACBA51 
 502      A3C1
 503 0378 A718E3BE 		.ascii	"\247\030\343\276\255\345\231\2061r*7\371\264\357\222"
 503      ADE59986 
 503      31722A37 
 503      F9B4EF92 
 504 0388 0C724982 		.ascii	"\014rI\20241H\355\266m!\270Y\243\230\245(6K\177\264"
 504      343148ED 
 504      B66D21B8 
 504      59A398A5 
 504      28364B7F 
 505 039d E6D7617A 		.ascii	"\346\327az\351!\2175.\327_O1\322-\245c2\236+\340\005"
 505      E9218F35 
 505      2ED75F4F 
 505      31D22DA5 
 505      63329E2B 
 506 03b3 1C5AB610 		.ascii	"\034Z\266\020}\0103\322\0123\022%\316\310\025h~34\237"
 506      7D0833D2 
 506      0A331225 
 506      CEC81568 
 506      7E33349F 
 507 03c7 4DDC5636 		.ascii	"M\334V6q-\260*\227\275\023\027\245{\265\317-[\353,Z"
 507      712DB02A 
 507      97BD1317 
 507      A57BB5CF 
 507      2D5BEB2C 
 508 03dc 3A472DAF 		.ascii	":G-\257\346\350\261g\340\230&\340\034\265\3215\275*"
 508      E6E8B167 
 508      E09826E0 
 508      1CB5D135 
 508      BD2A
 509 03ee CD5149BF 		.ascii	"\315QI\277\365\221\006;X\011w\016\366\027\005\211st"
 509      F591063B 
 509      5809770E 
 509      F6170589 
 509      7374
 510 0400 EE61EC9E 		.ascii	"\356a\354\236L\341\250\340\366x\026E\023/tM\326\210"
 510      4CE1A8E0 
 510      F6781645 
 510      132F744D 
 510      D688
 511 0412 6B52231C 		.ascii	"kR#\034\264\021\333\263*\024c\324\242\030\243\377\024"
ARM GAS  C:\Users\Bruger\AppData\Local\Temp\ccVRsutO.s 			page 39


 511      B411DBB3 
 511      2A1463D4 
 511      A218A3FF 
 511      14
 512 0423 6374DA61 		.ascii	"ct\332au\351\361\004\213h9s\252H\234\201\335\326DY\347"
 512      75E9F104 
 512      8B683973 
 512      AA489C81 
 512      DDD64459 
 513 0438 C1075D97 		.ascii	"\301\007]\227\005\274.\005l\247\001\357\215\026\347"
 513      05BC2E05 
 513      6CA701EF 
 513      8D16E7
 514 0447 21BC1753 		.ascii	"!\274\027S\310\313\206\311\223\021\354%\321lM`#\200"
 514      C8CB86C9 
 514      9311EC25 
 514      D16C4D60 
 514      2380
 515 0459 6958D421 		.ascii	"iX\324!CtH\010'E\014\014UZ\346\340\363\014\221\276\255"
 515      43744808 
 515      27450C0C 
 515      555AE6E0 
 515      F30C91BE 
 516 046e BB399C8D 		.ascii	"\2739\234\215\363\013\353&\331\353\222\024~C\006\271"
 516      F30BEB26 
 516      D9EB9214 
 516      7E4306B9 
 517 047e 21413A29 		.ascii	"!A:)do\303\240%\024\273\031\244}wi\016\333\206\356r"
 517      646FC3A0 
 517      2514BB19 
 517      A47D7769 
 517      0EDB86EE 
 518 0493 5B8AAC18 		.ascii	"[\212\254\030\262)\272d\220.\011\322M!\243\315gOG\342"
 518      B229BA64 
 518      902E09D2 
 518      4D21A3CD 
 518      674F47E2 
 519 04a7 170C92B9 		.ascii	"\027\014\222\271/\333\031\312\212\031\266y\213!\010"
 519      2FDB19CA 
 519      8A19B679 
 519      8B2108
 520 04b6 970CE192 		.ascii	"\227\014\341\222\0207)\302Z\325\320\030\206\363\265"
 520      103729C2 
 520      5AD5D018 
 520      86F3B5
 521 04c5 145130E3 		.ascii	"\024Q0\343\312\020\367\346\310\205\237e\305\020H\217"
 521      CA10F7E6 
 521      C8859F65 
 521      C510488F 
 522 04d5 0CD22341 		.ascii	"\014\322#Az)d\244\254\262\"\014\377\313 G,\325=\301"
 522      7A2964A4 
 522      ACB2220C 
 522      FFCB2047 
 522      2CD53DC1 
 523 04e9 A41861BC 		.ascii	"\244\030a\274\340\314\363\310}\231\0266\013\254%\267"
 523      E0CCF3C8 
 523      7D991636 
ARM GAS  C:\Users\Bruger\AppData\Local\Temp\ccVRsutO.s 			page 40


 523      0BAC25B7 
 524 04f9 64945B12 		.ascii	"d\224[\022\245\217}A\036\314\034\320\341\021F\351?u"
 524      A58F7D41 
 524      1ECC1CD0 
 524      E11146E9 
 524      3F75
 525 050b 2C9142DC 		.ascii	",\221B\334/\207\370z\371\312\364\313\010\375\022\301"
 525      2F87F87A 
 525      F9CAF4CB 
 525      08FD12C1 
 526 051b 4D09D385 		.ascii	"M\011\323\205\375\266H\234\031\304\026\267\247\302J"
 526      FDB6489C 
 526      19C416B7 
 526      A7C24A
 527 052a BE943052 		.ascii	"\276\2240Rt|\256\036<\3210gI\221Px\270\242\326\362\223"
 527      747CAE1E 
 527      3CD13067 
 527      49915078 
 527      B8A2D6F2 
 528 053f 3D5DA0B5 		.ascii	"=]\240\265\321\211\033`Hq[q\344\032~\007\311kx\010-"
 528      D1891B60 
 528      48715B71 
 528      E41A7E07 
 528      C96B7808 
 529 0554 015F216F 		.ascii	"\001_!o\347\321\020\\\300\300ggv\330\302u\331\344\225"
 529      E7D1105C 
 529      C0C06767 
 529      76D8C275 
 529      D9E495
 530 0567 FDE6ED08 		.ascii	"\375\346\355\010\033\330ymGg(\333\300\276\036\367\002"
 530      1BD8796D 
 530      476728DB 
 530      C0BE1EF7 
 530      02
 531 0578 6EE04B93 		.ascii	"n\340K\223\237g\301\006\276\013\331\335\366n\340;\310"
 531      9F67C106 
 531      BE0BD9DD 
 531      F66EE03B 
 531      C8
 532 0589 BB83B70F 		.ascii	"\273\203\267\017\346\267\351\365;\310[\001\366N\350"
 532      E6B7E9F5 
 532      3BC85B01 
 532      F64EE8
 533 0598 95086AEC 		.ascii	"\225\010j\354\335<\303HO[\003\177\311\277\021\327z\372"
 533      DD3CC348 
 533      4F5B037F 
 533      C9BF11D7 
 533      7AFA
 534 05aa 302E6215 		.ascii	"0.b\025\214g\357z\250e\025\314\362\273\243\311+\273"
 534      8C67EF7A 
 534      A86515CC 
 534      F2BBA3C9 
 534      2BBB
 535 05bc 958FC40F 		.ascii	"\225\217\304\017Zak$B#\020\354\2767\263\007\310\373"
 535      5A616B24 
 535      422310EC 
 535      BE37B307 
ARM GAS  C:\Users\Bruger\AppData\Local\Temp\ccVRsutO.s 			page 41


 535      C8FB
 536 05ce 3553A13E 		.ascii	"5S\241>T\377\232\035\333\323\204\025%\214(Jx$\226\360"
 536      54FF9A1D 
 536      DBD38415 
 536      258C284A 
 536      782496F0 
 537 05e2 8896F0A4 		.ascii	"\210\226\360\244h\340n\244\302\232\214\203\327zT\264"
 537      68E06EA4 
 537      C29A8C83 
 537      D77A54B4 
 538 05f2 1EA5D696 		.ascii	"\036\245\326\226\334\277/\206*\254\333\024\326c\242"
 538      DCBF2F86 
 538      2AACDB14 
 538      D663A2
 539 0601 F518B5CE 		.ascii	"\365\030\265\316\031~|$L\352H\366\254r/\256\267\025"
 539      197E7C24 
 539      4CEA48F6 
 539      AC722FAE 
 539      B715
 540 0613 8429028C 		.ascii	"\204)\002\214+\222\237\020\003L\320\000\003\226\246"
 540      2B929F10 
 540      034CD000 
 540      0396A6
 541 0622 EA506968 		.ascii	"\352Pih\262\3370\002`_\267\377\317\222p\005}RA\237\022"
 541      B2DF3002 
 541      605FB7FF 
 541      CF927005 
 541      7D52419F 
 542 0637 E953949E 		.ascii	"\351S\224\236wh\374\231\262X\345\213tZ\264\236\246\326"
 542      7768FC99 
 542      B258E58B 
 542      745AB49E 
 542      A6D6
 543 0649 7DFBED3B 		.ascii	"}\373\355;\264\012\353bEk\036#\275\264\254p\312\315"
 543      B40AEB62 
 543      456B1E23 
 543      BDB4AC70 
 543      CACD
 544 065b 5B97F42B 		.ascii	"[\227\364+\037o6&'}c\334\314\2336\254\330\260.\311h"
 544      1F6F3626 
 544      277D63DC 
 544      CC9B36AC 
 544      D8B02EC9 
 545 0670 0E5EFBD5 		.ascii	"\016^\373\325\267\3211\334Gk\371$\336d0\363\011\033"
 545      B7D131DC 
 545      476BF924 
 545      DE6430F3 
 545      091B
 546 0682 E292534D 		.ascii	"\342\222SM\361\374\217\261q\3111\037\377\350\353\263"
 546      F1FC8FB1 
 546      71C9311F 
 546      FFE8EBB3 
 547 0692 3C9E8BF2 		.ascii	"<\236\213\362\343\304\231\015&\363|\277\333\253\223"
 547      E3C4990D 
 547      26F37CBF 
 547      DBAB93
 548 06a1 0CBF24F2 		.ascii	"\014\277$\362\376a\343\314\311)\301\251\306$\363\212"
ARM GAS  C:\Users\Bruger\AppData\Local\Temp\ccVRsutO.s 			page 42


 548      FE61E3CC 
 548      C929C1A9 
 548      C624F38A 
 549 06b1 4F160708 		.ascii	"O\026\007\010\033\237fNK\341\267,\337\304\275\347\347"
 549      1B9F664E 
 549      4BE1B72C 
 549      DFC4BDE7 
 549      E7
 550 06c2 FEBDC968 		.ascii	"\376\275\311h\346c\222S\223\314\274\351]\277\247\353"
 550      E6639253 
 550      93CCBCE9 
 550      5DBFA7EB 
 551 06d2 794382F8 		.ascii	"yC\202\370p\241\337\303\230D\336`Z\263n\315\327\376"
 551      70A1DFC3 
 551      9844DE60 
 551      5AB36ECD 
 551      D7FE
 552 06e4 7E941ACB 		.ascii	"~\224\032\313\233\214\311\011\001CnN1\230\370 \222\371"
 552      9B8CC909 
 552      01436E4E 
 552      3198F820 
 552      92F9
 553 06f6 CAC5FE55 		.ascii	"\312\305\376U\361\346u$\252)5\305\374er\002\277D55h"
 553      F1E67524 
 553      AA2935C5 
 553      FC657202 
 553      BF443535 
 554 070b 953975CB 		.ascii	"\2259u\313z~\243q\013\330\276\037 \375$\263)9Q2\372"
 554      7A7EA371 
 554      0BD8BE1F 
 554      20FD24B3 
 554      29395132 
 555 0720 20503A0A 		.ascii	" P:\012\253\000\2350\244\230SM|\2406\321\202\336Q}\310"
 555      AB009D30 
 555      A498534D 
 555      7CA036D1 
 555      82DE517D 
 556 0735 5A312F26 		.ascii	"Z1/&m\365oFs\014\0044\306\033\022\343\230\335\242\000"
 556      6DF56F46 
 556      730C0434 
 556      C61B12E3 
 556      98DDA200 
 557 0749 AB1693F6 		.ascii	"\253\026\223\366\205\361\027X\263(\360\"\255\360q[\340"
 557      85F11758 
 557      B328F022 
 557      ADF0715B 
 557      E0
 558 075a 17C80803 		.ascii	"\027\310\010\003\370\235\301\2445\361\033W\006\301\317"
 558      F89DC1A4 
 558      35F11B57 
 558      06C1CF
 559 0769 8A4FFE07 		.ascii	"\212O\376\007\237\347\277\362"
 559      9FE7BFF2 
 560              		.text
 561              		.section	.gnu.lto_.symtab.24c1115a,"",%progbits
 562 0000 496E6A65 		.ascii	"InjectionTimer_1_Init\000\000\000\000\000\000\000\000"
 562      6374696F 
ARM GAS  C:\Users\Bruger\AppData\Local\Temp\ccVRsutO.s 			page 43


 562      6E54696D 
 562      65725F31 
 562      5F496E69 
 563 001d 00000000 		.ascii	"\000\000\000\000\254\000\000\000InjectionTimer_1_St"
 563      AC000000 
 563      496E6A65 
 563      6374696F 
 563      6E54696D 
 564 0038 61727400 		.ascii	"art\000\000\000\000\000\000\000\000\000\000\000\000"
 564      00000000 
 564      00000000 
 564      000000
 565 0047 AE000000 		.ascii	"\256\000\000\000InjectionTimer_1_initVar\000\000\000"
 565      496E6A65 
 565      6374696F 
 565      6E54696D 
 565      65725F31 
 566 0066 00000000 		.ascii	"\000\000\000\000\000\000\000\000\000\343\000\000\000"
 566      00000000 
 566      00E30000 
 566      00
 567 0073 496E6A65 		.ascii	"InjectionTimer_1_Enable\000\000\000\000\000\000\000"
 567      6374696F 
 567      6E54696D 
 567      65725F31 
 567      5F456E61 
 568 0091 00000000 		.ascii	"\000\000\000\000\000\260\000\000\000InjectionTimer_"
 568      00B00000 
 568      00496E6A 
 568      65637469 
 568      6F6E5469 
 569 00a9 315F5374 		.ascii	"1_Stop\000\000\000\000\000\000\000\000\000\000\000\000"
 569      6F700000 
 569      00000000 
 569      00000000 
 569      0000
 570 00bb B2000000 		.ascii	"\262\000\000\000InjectionTimer_1_WriteCounter\000\000"
 570      496E6A65 
 570      6374696F 
 570      6E54696D 
 570      65725F31 
 571 00de 00000000 		.ascii	"\000\000\000\000\000\000\000\000\000\000\275\000\000"
 571      00000000 
 571      0000BD00 
 571      00
 572 00eb 00496E6A 		.ascii	"\000InjectionTimer_1_ReadCounter\000\000\000\000\000"
 572      65637469 
 572      6F6E5469 
 572      6D65725F 
 572      315F5265 
 573 010d 00000000 		.ascii	"\000\000\000\000\000\000\000\300\000\000\000Injecti"
 573      000000C0 
 573      00000049 
 573      6E6A6563 
 573      7469
 574 011f 6F6E5469 		.ascii	"onTimer_1_ClearFIFO\000\000\000\000\000\000\000\000"
 574      6D65725F 
ARM GAS  C:\Users\Bruger\AppData\Local\Temp\ccVRsutO.s 			page 44


 574      315F436C 
 574      65617246 
 574      49464F00 
 575 013a 00000000 		.ascii	"\000\000\000\000\302\000\000\000InjectionTimer_1_Wr"
 575      C2000000 
 575      496E6A65 
 575      6374696F 
 575      6E54696D 
 576 0155 69746550 		.ascii	"itePeriod\000\000\000\000\000\000\000\000\000\000\000"
 576      6572696F 
 576      64000000 
 576      00000000 
 576      00000000 
 577 0169 00C40000 		.ascii	"\000\304\000\000\000InjectionTimer_1_WriteCompare\000"
 577      00496E6A 
 577      65637469 
 577      6F6E5469 
 577      6D65725F 
 578 018c 00000000 		.ascii	"\000\000\000\000\000\000\000\000\000\000\000\306\000"
 578      00000000 
 578      000000C6 
 578      00
 579 0199 0000496E 		.ascii	"\000\000InjectionTimer_1_SetInterruptMode\000\000\000"
 579      6A656374 
 579      696F6E54 
 579      696D6572 
 579      5F315F53 
 580 01bf 00000000 		.ascii	"\000\000\000\000\000\000\000\000\000\317\000\000\000"
 580      00000000 
 580      00CF0000 
 580      00
 581 01cc 496E6A65 		.ascii	"InjectionTimer_1_ReadStatusRegister\000\000\000\000"
 581      6374696F 
 581      6E54696D 
 581      65725F31 
 581      5F526561 
 582 01f3 00000000 		.ascii	"\000\000\000\000\000\000\000\000\322\000\000\000Inj"
 582      00000000 
 582      D2000000 
 582      496E6A
 583 0202 65637469 		.ascii	"ectionTimer_1_ReadControlRegister\000\000\000\000\000"
 583      6F6E5469 
 583      6D65725F 
 583      315F5265 
 583      6164436F 
 584 0228 00000000 		.ascii	"\000\000\000\000\000\000\000\324\000\000\000Injecti"
 584      000000D4 
 584      00000049 
 584      6E6A6563 
 584      7469
 585 023a 6F6E5469 		.ascii	"onTimer_1_WriteControlRegister\000\000\000\000\000\000"
 585      6D65725F 
 585      315F5772 
 585      69746543 
 585      6F6E7472 
 586 025e 00000000 		.ascii	"\000\000\000\000\000\000\326\000\000\000InjectionTi"
 586      0000D600 
ARM GAS  C:\Users\Bruger\AppData\Local\Temp\ccVRsutO.s 			page 45


 586      0000496E 
 586      6A656374 
 586      696F6E54 
 587 0273 6D65725F 		.ascii	"mer_1_ReadCapture\000\000\000\000\000\000\000\000\000"
 587      315F5265 
 587      61644361 
 587      70747572 
 587      65000000 
 588 028d 000000D8 		.ascii	"\000\000\000\330\000\000\000InjectionTimer_1_ReadCo"
 588      00000049 
 588      6E6A6563 
 588      74696F6E 
 588      54696D65 
 589 02ab 6D706172 		.ascii	"mpare\000\000\000\000\000\000\000\000\000\000\000\000"
 589      65000000 
 589      00000000 
 589      00000000 
 589      00
 590 02bc DA000000 		.ascii	"\332\000\000\000InjectionTimer_1_ReadPeriod\000\000"
 590      496E6A65 
 590      6374696F 
 590      6E54696D 
 590      65725F31 
 591 02dd 00000000 		.ascii	"\000\000\000\000\000\000\000\000\000\000\334\000\000"
 591      00000000 
 591      0000DC00 
 591      00
 592 02ea 00437945 		.ascii	"\000CyExitCriticalSection\000\000\002\000\000\000\000"
 592      78697443 
 592      72697469 
 592      63616C53 
 592      65637469 
 593 0307 00000000 		.ascii	"\000\000\000\000\000\336\000\000\000CyEnterCritical"
 593      00DE0000 
 593      00437945 
 593      6E746572 
 593      43726974 
 594 031f 53656374 		.ascii	"Section\000\000\002\000\000\000\000\000\000\000\000"
 594      696F6E00 
 594      00020000 
 594      00000000 
 594      0000
 595 0331 00E00000 		.ascii	"\000\340\000\000\000"
 595      00
 596              		.text
 597              		.section	.gnu.lto_.opts,"",%progbits
 598 0000 272D666E 		.ascii	"'-fno-trapv' '-mcpu=cortex-m3' '-mthumb' '-g' '-O3'"
 598      6F2D7472 
 598      61707627 
 598      20272D6D 
 598      6370753D 
 599 0033 20272D66 		.ascii	" '-ffunction-sections' '-finline-functions' '-flto'"
 599      66756E63 
 599      74696F6E 
 599      2D736563 
 599      74696F6E 
 600 0066 20272D66 		.ascii	" '-ffat-lto-objects'\000"
ARM GAS  C:\Users\Bruger\AppData\Local\Temp\ccVRsutO.s 			page 46


 600      6661742D 
 600      6C746F2D 
 600      6F626A65 
 600      63747327 
 601              		.text
 602              		.cfi_sections	.debug_frame
 603              		.section	.text.InjectionTimer_1_Start,"ax",%progbits
 604              		.align	2
 605              		.global	InjectionTimer_1_Start
 606              		.thumb
 607              		.thumb_func
 608              		.type	InjectionTimer_1_Start, %function
 609              	InjectionTimer_1_Start:
 610              	.LFB0:
 611              		.file 1 "Generated_Source\\PSoC5\\InjectionTimer_1.c"
   1:Generated_Source\PSoC5/InjectionTimer_1.c **** /*******************************************************************************
   2:Generated_Source\PSoC5/InjectionTimer_1.c **** * File Name: InjectionTimer_1.c
   3:Generated_Source\PSoC5/InjectionTimer_1.c **** * Version 3.30
   4:Generated_Source\PSoC5/InjectionTimer_1.c **** *
   5:Generated_Source\PSoC5/InjectionTimer_1.c **** * Description:
   6:Generated_Source\PSoC5/InjectionTimer_1.c **** *  The PWM User Module consist of an 8 or 16-bit counter with two 8 or 16-bit
   7:Generated_Source\PSoC5/InjectionTimer_1.c **** *  comparitors. Each instance of this user module is capable of generating
   8:Generated_Source\PSoC5/InjectionTimer_1.c **** *  two PWM outputs with the same period. The pulse width is selectable between
   9:Generated_Source\PSoC5/InjectionTimer_1.c **** *  1 and 255/65535. The period is selectable between 2 and 255/65536 clocks.
  10:Generated_Source\PSoC5/InjectionTimer_1.c **** *  The compare value output may be configured to be active when the present
  11:Generated_Source\PSoC5/InjectionTimer_1.c **** *  counter is less than or less than/equal to the compare value.
  12:Generated_Source\PSoC5/InjectionTimer_1.c **** *  A terminal count output is also provided. It generates a pulse one clock
  13:Generated_Source\PSoC5/InjectionTimer_1.c **** *  width wide when the counter is equal to zero.
  14:Generated_Source\PSoC5/InjectionTimer_1.c **** *
  15:Generated_Source\PSoC5/InjectionTimer_1.c **** * Note:
  16:Generated_Source\PSoC5/InjectionTimer_1.c **** *
  17:Generated_Source\PSoC5/InjectionTimer_1.c **** *******************************************************************************
  18:Generated_Source\PSoC5/InjectionTimer_1.c **** * Copyright 2008-2014, Cypress Semiconductor Corporation.  All rights reserved.
  19:Generated_Source\PSoC5/InjectionTimer_1.c **** * You may use this file only in accordance with the license, terms, conditions,
  20:Generated_Source\PSoC5/InjectionTimer_1.c **** * disclaimers, and limitations in the end user license agreement accompanying
  21:Generated_Source\PSoC5/InjectionTimer_1.c **** * the software package with which this file was provided.
  22:Generated_Source\PSoC5/InjectionTimer_1.c **** ********************************************************************************/
  23:Generated_Source\PSoC5/InjectionTimer_1.c **** 
  24:Generated_Source\PSoC5/InjectionTimer_1.c **** #include "InjectionTimer_1.h"
  25:Generated_Source\PSoC5/InjectionTimer_1.c **** 
  26:Generated_Source\PSoC5/InjectionTimer_1.c **** /* Error message for removed <resource> through optimization */
  27:Generated_Source\PSoC5/InjectionTimer_1.c **** #ifdef InjectionTimer_1_PWMUDB_genblk1_ctrlreg__REMOVED
  28:Generated_Source\PSoC5/InjectionTimer_1.c ****     #error PWM_v3_30 detected with a constant 0 for the enable or \
  29:Generated_Source\PSoC5/InjectionTimer_1.c ****          constant 1 for reset. This will prevent the component from operating.
  30:Generated_Source\PSoC5/InjectionTimer_1.c **** #endif /* InjectionTimer_1_PWMUDB_genblk1_ctrlreg__REMOVED */
  31:Generated_Source\PSoC5/InjectionTimer_1.c **** 
  32:Generated_Source\PSoC5/InjectionTimer_1.c **** uint8 InjectionTimer_1_initVar = 0u;
  33:Generated_Source\PSoC5/InjectionTimer_1.c **** 
  34:Generated_Source\PSoC5/InjectionTimer_1.c **** 
  35:Generated_Source\PSoC5/InjectionTimer_1.c **** /*******************************************************************************
  36:Generated_Source\PSoC5/InjectionTimer_1.c **** * Function Name: InjectionTimer_1_Start
  37:Generated_Source\PSoC5/InjectionTimer_1.c **** ********************************************************************************
  38:Generated_Source\PSoC5/InjectionTimer_1.c **** *
  39:Generated_Source\PSoC5/InjectionTimer_1.c **** * Summary:
  40:Generated_Source\PSoC5/InjectionTimer_1.c **** *  The start function initializes the pwm with the default values, the
  41:Generated_Source\PSoC5/InjectionTimer_1.c **** *  enables the counter to begin counting.  It does not enable interrupts,
  42:Generated_Source\PSoC5/InjectionTimer_1.c **** *  the EnableInt command should be called if interrupt generation is required.
ARM GAS  C:\Users\Bruger\AppData\Local\Temp\ccVRsutO.s 			page 47


  43:Generated_Source\PSoC5/InjectionTimer_1.c **** *
  44:Generated_Source\PSoC5/InjectionTimer_1.c **** * Parameters:
  45:Generated_Source\PSoC5/InjectionTimer_1.c **** *  None
  46:Generated_Source\PSoC5/InjectionTimer_1.c **** *
  47:Generated_Source\PSoC5/InjectionTimer_1.c **** * Return:
  48:Generated_Source\PSoC5/InjectionTimer_1.c **** *  None
  49:Generated_Source\PSoC5/InjectionTimer_1.c **** *
  50:Generated_Source\PSoC5/InjectionTimer_1.c **** * Global variables:
  51:Generated_Source\PSoC5/InjectionTimer_1.c **** *  InjectionTimer_1_initVar: Is modified when this function is called for the
  52:Generated_Source\PSoC5/InjectionTimer_1.c **** *   first time. Is used to ensure that initialization happens only once.
  53:Generated_Source\PSoC5/InjectionTimer_1.c **** *
  54:Generated_Source\PSoC5/InjectionTimer_1.c **** *******************************************************************************/
  55:Generated_Source\PSoC5/InjectionTimer_1.c **** void InjectionTimer_1_Start(void) 
  56:Generated_Source\PSoC5/InjectionTimer_1.c **** {
 612              		.loc 1 56 0
 613              		.cfi_startproc
 614              		@ args = 0, pretend = 0, frame = 0
 615              		@ frame_needed = 0, uses_anonymous_args = 0
 616 0000 F8B5     		push	{r3, r4, r5, r6, r7, lr}
 617              		.cfi_def_cfa_offset 24
 618              		.cfi_offset 3, -24
 619              		.cfi_offset 4, -20
 620              		.cfi_offset 5, -16
 621              		.cfi_offset 6, -12
 622              		.cfi_offset 7, -8
 623              		.cfi_offset 14, -4
  57:Generated_Source\PSoC5/InjectionTimer_1.c ****     /* If not Initialized then initialize all required hardware and software */
  58:Generated_Source\PSoC5/InjectionTimer_1.c ****     if(InjectionTimer_1_initVar == 0u)
 624              		.loc 1 58 0
 625 0002 1F4C     		ldr	r4, .L13
 626 0004 2378     		ldrb	r3, [r4]	@ zero_extendqisi2
 627 0006 2BB1     		cbz	r3, .L12
 628              	.L2:
 629              	.LBB40:
 630              	.LBB41:
  59:Generated_Source\PSoC5/InjectionTimer_1.c ****     {
  60:Generated_Source\PSoC5/InjectionTimer_1.c ****         InjectionTimer_1_Init();
  61:Generated_Source\PSoC5/InjectionTimer_1.c ****         InjectionTimer_1_initVar = 1u;
  62:Generated_Source\PSoC5/InjectionTimer_1.c ****     }
  63:Generated_Source\PSoC5/InjectionTimer_1.c ****     InjectionTimer_1_Enable();
  64:Generated_Source\PSoC5/InjectionTimer_1.c **** 
  65:Generated_Source\PSoC5/InjectionTimer_1.c **** }
  66:Generated_Source\PSoC5/InjectionTimer_1.c **** 
  67:Generated_Source\PSoC5/InjectionTimer_1.c **** 
  68:Generated_Source\PSoC5/InjectionTimer_1.c **** /*******************************************************************************
  69:Generated_Source\PSoC5/InjectionTimer_1.c **** * Function Name: InjectionTimer_1_Init
  70:Generated_Source\PSoC5/InjectionTimer_1.c **** ********************************************************************************
  71:Generated_Source\PSoC5/InjectionTimer_1.c **** *
  72:Generated_Source\PSoC5/InjectionTimer_1.c **** * Summary:
  73:Generated_Source\PSoC5/InjectionTimer_1.c **** *  Initialize component's parameters to the parameters set by user in the
  74:Generated_Source\PSoC5/InjectionTimer_1.c **** *  customizer of the component placed onto schematic. Usually called in
  75:Generated_Source\PSoC5/InjectionTimer_1.c **** *  InjectionTimer_1_Start().
  76:Generated_Source\PSoC5/InjectionTimer_1.c **** *
  77:Generated_Source\PSoC5/InjectionTimer_1.c **** * Parameters:
  78:Generated_Source\PSoC5/InjectionTimer_1.c **** *  None
  79:Generated_Source\PSoC5/InjectionTimer_1.c **** *
  80:Generated_Source\PSoC5/InjectionTimer_1.c **** * Return:
ARM GAS  C:\Users\Bruger\AppData\Local\Temp\ccVRsutO.s 			page 48


  81:Generated_Source\PSoC5/InjectionTimer_1.c **** *  None
  82:Generated_Source\PSoC5/InjectionTimer_1.c **** *
  83:Generated_Source\PSoC5/InjectionTimer_1.c **** *******************************************************************************/
  84:Generated_Source\PSoC5/InjectionTimer_1.c **** void InjectionTimer_1_Init(void) 
  85:Generated_Source\PSoC5/InjectionTimer_1.c **** {
  86:Generated_Source\PSoC5/InjectionTimer_1.c ****     #if (InjectionTimer_1_UsingFixedFunction || InjectionTimer_1_UseControl)
  87:Generated_Source\PSoC5/InjectionTimer_1.c ****         uint8 ctrl;
  88:Generated_Source\PSoC5/InjectionTimer_1.c ****     #endif /* (InjectionTimer_1_UsingFixedFunction || InjectionTimer_1_UseControl) */
  89:Generated_Source\PSoC5/InjectionTimer_1.c **** 
  90:Generated_Source\PSoC5/InjectionTimer_1.c ****     #if(!InjectionTimer_1_UsingFixedFunction)
  91:Generated_Source\PSoC5/InjectionTimer_1.c ****         #if(InjectionTimer_1_UseStatus)
  92:Generated_Source\PSoC5/InjectionTimer_1.c ****             /* Interrupt State Backup for Critical Region*/
  93:Generated_Source\PSoC5/InjectionTimer_1.c ****             uint8 InjectionTimer_1_interruptState;
  94:Generated_Source\PSoC5/InjectionTimer_1.c ****         #endif /* (InjectionTimer_1_UseStatus) */
  95:Generated_Source\PSoC5/InjectionTimer_1.c ****     #endif /* (!InjectionTimer_1_UsingFixedFunction) */
  96:Generated_Source\PSoC5/InjectionTimer_1.c **** 
  97:Generated_Source\PSoC5/InjectionTimer_1.c ****     #if (InjectionTimer_1_UsingFixedFunction)
  98:Generated_Source\PSoC5/InjectionTimer_1.c ****         /* You are allowed to write the compare value (FF only) */
  99:Generated_Source\PSoC5/InjectionTimer_1.c ****         InjectionTimer_1_CONTROL |= InjectionTimer_1_CFG0_MODE;
 100:Generated_Source\PSoC5/InjectionTimer_1.c ****         #if (InjectionTimer_1_DeadBand2_4)
 101:Generated_Source\PSoC5/InjectionTimer_1.c ****             InjectionTimer_1_CONTROL |= InjectionTimer_1_CFG0_DB;
 102:Generated_Source\PSoC5/InjectionTimer_1.c ****         #endif /* (InjectionTimer_1_DeadBand2_4) */
 103:Generated_Source\PSoC5/InjectionTimer_1.c **** 
 104:Generated_Source\PSoC5/InjectionTimer_1.c ****         ctrl = InjectionTimer_1_CONTROL3 & ((uint8 )(~InjectionTimer_1_CTRL_CMPMODE1_MASK));
 105:Generated_Source\PSoC5/InjectionTimer_1.c ****         InjectionTimer_1_CONTROL3 = ctrl | InjectionTimer_1_DEFAULT_COMPARE1_MODE;
 106:Generated_Source\PSoC5/InjectionTimer_1.c **** 
 107:Generated_Source\PSoC5/InjectionTimer_1.c ****          /* Clear and Set SYNCTC and SYNCCMP bits of RT1 register */
 108:Generated_Source\PSoC5/InjectionTimer_1.c ****         InjectionTimer_1_RT1 &= ((uint8)(~InjectionTimer_1_RT1_MASK));
 109:Generated_Source\PSoC5/InjectionTimer_1.c ****         InjectionTimer_1_RT1 |= InjectionTimer_1_SYNC;
 110:Generated_Source\PSoC5/InjectionTimer_1.c **** 
 111:Generated_Source\PSoC5/InjectionTimer_1.c ****         /*Enable DSI Sync all all inputs of the PWM*/
 112:Generated_Source\PSoC5/InjectionTimer_1.c ****         InjectionTimer_1_RT1 &= ((uint8)(~InjectionTimer_1_SYNCDSI_MASK));
 113:Generated_Source\PSoC5/InjectionTimer_1.c ****         InjectionTimer_1_RT1 |= InjectionTimer_1_SYNCDSI_EN;
 114:Generated_Source\PSoC5/InjectionTimer_1.c **** 
 115:Generated_Source\PSoC5/InjectionTimer_1.c ****     #elif (InjectionTimer_1_UseControl)
 116:Generated_Source\PSoC5/InjectionTimer_1.c ****         /* Set the default compare mode defined in the parameter */
 117:Generated_Source\PSoC5/InjectionTimer_1.c ****         ctrl = InjectionTimer_1_CONTROL & ((uint8)(~InjectionTimer_1_CTRL_CMPMODE2_MASK)) &
 118:Generated_Source\PSoC5/InjectionTimer_1.c ****                 ((uint8)(~InjectionTimer_1_CTRL_CMPMODE1_MASK));
 119:Generated_Source\PSoC5/InjectionTimer_1.c ****         InjectionTimer_1_CONTROL = ctrl | InjectionTimer_1_DEFAULT_COMPARE2_MODE |
 120:Generated_Source\PSoC5/InjectionTimer_1.c ****                                    InjectionTimer_1_DEFAULT_COMPARE1_MODE;
 121:Generated_Source\PSoC5/InjectionTimer_1.c ****     #endif /* (InjectionTimer_1_UsingFixedFunction) */
 122:Generated_Source\PSoC5/InjectionTimer_1.c **** 
 123:Generated_Source\PSoC5/InjectionTimer_1.c ****     #if (!InjectionTimer_1_UsingFixedFunction)
 124:Generated_Source\PSoC5/InjectionTimer_1.c ****         #if (InjectionTimer_1_Resolution == 8)
 125:Generated_Source\PSoC5/InjectionTimer_1.c ****             /* Set FIFO 0 to 1 byte register for period*/
 126:Generated_Source\PSoC5/InjectionTimer_1.c ****             InjectionTimer_1_AUX_CONTROLDP0 |= (InjectionTimer_1_AUX_CTRL_FIFO0_CLR);
 127:Generated_Source\PSoC5/InjectionTimer_1.c ****         #else /* (InjectionTimer_1_Resolution == 16)*/
 128:Generated_Source\PSoC5/InjectionTimer_1.c ****             /* Set FIFO 0 to 1 byte register for period */
 129:Generated_Source\PSoC5/InjectionTimer_1.c ****             InjectionTimer_1_AUX_CONTROLDP0 |= (InjectionTimer_1_AUX_CTRL_FIFO0_CLR);
 130:Generated_Source\PSoC5/InjectionTimer_1.c ****             InjectionTimer_1_AUX_CONTROLDP1 |= (InjectionTimer_1_AUX_CTRL_FIFO0_CLR);
 131:Generated_Source\PSoC5/InjectionTimer_1.c ****         #endif /* (InjectionTimer_1_Resolution == 8) */
 132:Generated_Source\PSoC5/InjectionTimer_1.c **** 
 133:Generated_Source\PSoC5/InjectionTimer_1.c ****         InjectionTimer_1_WriteCounter(InjectionTimer_1_INIT_PERIOD_VALUE);
 134:Generated_Source\PSoC5/InjectionTimer_1.c ****     #endif /* (!InjectionTimer_1_UsingFixedFunction) */
 135:Generated_Source\PSoC5/InjectionTimer_1.c **** 
 136:Generated_Source\PSoC5/InjectionTimer_1.c ****     InjectionTimer_1_WritePeriod(InjectionTimer_1_INIT_PERIOD_VALUE);
 137:Generated_Source\PSoC5/InjectionTimer_1.c **** 
ARM GAS  C:\Users\Bruger\AppData\Local\Temp\ccVRsutO.s 			page 49


 138:Generated_Source\PSoC5/InjectionTimer_1.c ****         #if (InjectionTimer_1_UseOneCompareMode)
 139:Generated_Source\PSoC5/InjectionTimer_1.c ****             InjectionTimer_1_WriteCompare(InjectionTimer_1_INIT_COMPARE_VALUE1);
 140:Generated_Source\PSoC5/InjectionTimer_1.c ****         #else
 141:Generated_Source\PSoC5/InjectionTimer_1.c ****             InjectionTimer_1_WriteCompare1(InjectionTimer_1_INIT_COMPARE_VALUE1);
 142:Generated_Source\PSoC5/InjectionTimer_1.c ****             InjectionTimer_1_WriteCompare2(InjectionTimer_1_INIT_COMPARE_VALUE2);
 143:Generated_Source\PSoC5/InjectionTimer_1.c ****         #endif /* (InjectionTimer_1_UseOneCompareMode) */
 144:Generated_Source\PSoC5/InjectionTimer_1.c **** 
 145:Generated_Source\PSoC5/InjectionTimer_1.c ****         #if (InjectionTimer_1_KillModeMinTime)
 146:Generated_Source\PSoC5/InjectionTimer_1.c ****             InjectionTimer_1_WriteKillTime(InjectionTimer_1_MinimumKillTime);
 147:Generated_Source\PSoC5/InjectionTimer_1.c ****         #endif /* (InjectionTimer_1_KillModeMinTime) */
 148:Generated_Source\PSoC5/InjectionTimer_1.c **** 
 149:Generated_Source\PSoC5/InjectionTimer_1.c ****         #if (InjectionTimer_1_DeadBandUsed)
 150:Generated_Source\PSoC5/InjectionTimer_1.c ****             InjectionTimer_1_WriteDeadTime(InjectionTimer_1_INIT_DEAD_TIME);
 151:Generated_Source\PSoC5/InjectionTimer_1.c ****         #endif /* (InjectionTimer_1_DeadBandUsed) */
 152:Generated_Source\PSoC5/InjectionTimer_1.c **** 
 153:Generated_Source\PSoC5/InjectionTimer_1.c ****     #if (InjectionTimer_1_UseStatus || InjectionTimer_1_UsingFixedFunction)
 154:Generated_Source\PSoC5/InjectionTimer_1.c ****         InjectionTimer_1_SetInterruptMode(InjectionTimer_1_INIT_INTERRUPTS_MODE);
 155:Generated_Source\PSoC5/InjectionTimer_1.c ****     #endif /* (InjectionTimer_1_UseStatus || InjectionTimer_1_UsingFixedFunction) */
 156:Generated_Source\PSoC5/InjectionTimer_1.c **** 
 157:Generated_Source\PSoC5/InjectionTimer_1.c ****     #if (InjectionTimer_1_UsingFixedFunction)
 158:Generated_Source\PSoC5/InjectionTimer_1.c ****         /* Globally Enable the Fixed Function Block chosen */
 159:Generated_Source\PSoC5/InjectionTimer_1.c ****         InjectionTimer_1_GLOBAL_ENABLE |= InjectionTimer_1_BLOCK_EN_MASK;
 160:Generated_Source\PSoC5/InjectionTimer_1.c ****         /* Set the Interrupt source to come from the status register */
 161:Generated_Source\PSoC5/InjectionTimer_1.c ****         InjectionTimer_1_CONTROL2 |= InjectionTimer_1_CTRL2_IRQ_SEL;
 162:Generated_Source\PSoC5/InjectionTimer_1.c ****     #else
 163:Generated_Source\PSoC5/InjectionTimer_1.c ****         #if(InjectionTimer_1_UseStatus)
 164:Generated_Source\PSoC5/InjectionTimer_1.c **** 
 165:Generated_Source\PSoC5/InjectionTimer_1.c ****             /* CyEnterCriticalRegion and CyExitCriticalRegion are used to mark following region cri
 166:Generated_Source\PSoC5/InjectionTimer_1.c ****             /* Enter Critical Region*/
 167:Generated_Source\PSoC5/InjectionTimer_1.c ****             InjectionTimer_1_interruptState = CyEnterCriticalSection();
 168:Generated_Source\PSoC5/InjectionTimer_1.c ****             /* Use the interrupt output of the status register for IRQ output */
 169:Generated_Source\PSoC5/InjectionTimer_1.c ****             InjectionTimer_1_STATUS_AUX_CTRL |= InjectionTimer_1_STATUS_ACTL_INT_EN_MASK;
 170:Generated_Source\PSoC5/InjectionTimer_1.c **** 
 171:Generated_Source\PSoC5/InjectionTimer_1.c ****              /* Exit Critical Region*/
 172:Generated_Source\PSoC5/InjectionTimer_1.c ****             CyExitCriticalSection(InjectionTimer_1_interruptState);
 173:Generated_Source\PSoC5/InjectionTimer_1.c **** 
 174:Generated_Source\PSoC5/InjectionTimer_1.c ****             /* Clear the FIFO to enable the InjectionTimer_1_STATUS_FIFOFULL
 175:Generated_Source\PSoC5/InjectionTimer_1.c ****                    bit to be set on FIFO full. */
 176:Generated_Source\PSoC5/InjectionTimer_1.c ****             InjectionTimer_1_ClearFIFO();
 177:Generated_Source\PSoC5/InjectionTimer_1.c ****         #endif /* (InjectionTimer_1_UseStatus) */
 178:Generated_Source\PSoC5/InjectionTimer_1.c ****     #endif /* (InjectionTimer_1_UsingFixedFunction) */
 179:Generated_Source\PSoC5/InjectionTimer_1.c **** }
 180:Generated_Source\PSoC5/InjectionTimer_1.c **** 
 181:Generated_Source\PSoC5/InjectionTimer_1.c **** 
 182:Generated_Source\PSoC5/InjectionTimer_1.c **** /*******************************************************************************
 183:Generated_Source\PSoC5/InjectionTimer_1.c **** * Function Name: InjectionTimer_1_Enable
 184:Generated_Source\PSoC5/InjectionTimer_1.c **** ********************************************************************************
 185:Generated_Source\PSoC5/InjectionTimer_1.c **** *
 186:Generated_Source\PSoC5/InjectionTimer_1.c **** * Summary:
 187:Generated_Source\PSoC5/InjectionTimer_1.c **** *  Enables the PWM block operation
 188:Generated_Source\PSoC5/InjectionTimer_1.c **** *
 189:Generated_Source\PSoC5/InjectionTimer_1.c **** * Parameters:
 190:Generated_Source\PSoC5/InjectionTimer_1.c **** *  None
 191:Generated_Source\PSoC5/InjectionTimer_1.c **** *
 192:Generated_Source\PSoC5/InjectionTimer_1.c **** * Return:
 193:Generated_Source\PSoC5/InjectionTimer_1.c **** *  None
 194:Generated_Source\PSoC5/InjectionTimer_1.c **** *
ARM GAS  C:\Users\Bruger\AppData\Local\Temp\ccVRsutO.s 			page 50


 195:Generated_Source\PSoC5/InjectionTimer_1.c **** * Side Effects:
 196:Generated_Source\PSoC5/InjectionTimer_1.c **** *  This works only if software enable mode is chosen
 197:Generated_Source\PSoC5/InjectionTimer_1.c **** *
 198:Generated_Source\PSoC5/InjectionTimer_1.c **** *******************************************************************************/
 199:Generated_Source\PSoC5/InjectionTimer_1.c **** void InjectionTimer_1_Enable(void) 
 200:Generated_Source\PSoC5/InjectionTimer_1.c **** {
 201:Generated_Source\PSoC5/InjectionTimer_1.c ****     /* Globally Enable the Fixed Function Block chosen */
 202:Generated_Source\PSoC5/InjectionTimer_1.c ****     #if (InjectionTimer_1_UsingFixedFunction)
 203:Generated_Source\PSoC5/InjectionTimer_1.c ****         InjectionTimer_1_GLOBAL_ENABLE |= InjectionTimer_1_BLOCK_EN_MASK;
 204:Generated_Source\PSoC5/InjectionTimer_1.c ****         InjectionTimer_1_GLOBAL_STBY_ENABLE |= InjectionTimer_1_BLOCK_STBY_EN_MASK;
 205:Generated_Source\PSoC5/InjectionTimer_1.c ****     #endif /* (InjectionTimer_1_UsingFixedFunction) */
 206:Generated_Source\PSoC5/InjectionTimer_1.c **** 
 207:Generated_Source\PSoC5/InjectionTimer_1.c ****     /* Enable the PWM from the control register  */
 208:Generated_Source\PSoC5/InjectionTimer_1.c ****     #if (InjectionTimer_1_UseControl || InjectionTimer_1_UsingFixedFunction)
 209:Generated_Source\PSoC5/InjectionTimer_1.c ****         InjectionTimer_1_CONTROL |= InjectionTimer_1_CTRL_ENABLE;
 631              		.loc 1 209 0
 632 0008 1E4A     		ldr	r2, .L13+4
 633 000a 1378     		ldrb	r3, [r2]	@ zero_extendqisi2
 634 000c 43F08003 		orr	r3, r3, #128
 635 0010 1370     		strb	r3, [r2]
 636 0012 F8BD     		pop	{r3, r4, r5, r6, r7, pc}
 637              	.L12:
 638              	.LBE41:
 639              	.LBE40:
 640              	.LBB42:
 641              	.LBB43:
 642              	.LBB44:
 643              	.LBB45:
 210:Generated_Source\PSoC5/InjectionTimer_1.c ****     #endif /* (InjectionTimer_1_UseControl || InjectionTimer_1_UsingFixedFunction) */
 211:Generated_Source\PSoC5/InjectionTimer_1.c **** }
 212:Generated_Source\PSoC5/InjectionTimer_1.c **** 
 213:Generated_Source\PSoC5/InjectionTimer_1.c **** 
 214:Generated_Source\PSoC5/InjectionTimer_1.c **** /*******************************************************************************
 215:Generated_Source\PSoC5/InjectionTimer_1.c **** * Function Name: InjectionTimer_1_Stop
 216:Generated_Source\PSoC5/InjectionTimer_1.c **** ********************************************************************************
 217:Generated_Source\PSoC5/InjectionTimer_1.c **** *
 218:Generated_Source\PSoC5/InjectionTimer_1.c **** * Summary:
 219:Generated_Source\PSoC5/InjectionTimer_1.c **** *  The stop function halts the PWM, but does not change any modes or disable
 220:Generated_Source\PSoC5/InjectionTimer_1.c **** *  interrupts.
 221:Generated_Source\PSoC5/InjectionTimer_1.c **** *
 222:Generated_Source\PSoC5/InjectionTimer_1.c **** * Parameters:
 223:Generated_Source\PSoC5/InjectionTimer_1.c **** *  None
 224:Generated_Source\PSoC5/InjectionTimer_1.c **** *
 225:Generated_Source\PSoC5/InjectionTimer_1.c **** * Return:
 226:Generated_Source\PSoC5/InjectionTimer_1.c **** *  None
 227:Generated_Source\PSoC5/InjectionTimer_1.c **** *
 228:Generated_Source\PSoC5/InjectionTimer_1.c **** * Side Effects:
 229:Generated_Source\PSoC5/InjectionTimer_1.c **** *  If the Enable mode is set to Hardware only then this function
 230:Generated_Source\PSoC5/InjectionTimer_1.c **** *  has no effect on the operation of the PWM
 231:Generated_Source\PSoC5/InjectionTimer_1.c **** *
 232:Generated_Source\PSoC5/InjectionTimer_1.c **** *******************************************************************************/
 233:Generated_Source\PSoC5/InjectionTimer_1.c **** void InjectionTimer_1_Stop(void) 
 234:Generated_Source\PSoC5/InjectionTimer_1.c **** {
 235:Generated_Source\PSoC5/InjectionTimer_1.c ****     #if (InjectionTimer_1_UseControl || InjectionTimer_1_UsingFixedFunction)
 236:Generated_Source\PSoC5/InjectionTimer_1.c ****         InjectionTimer_1_CONTROL &= ((uint8)(~InjectionTimer_1_CTRL_ENABLE));
 237:Generated_Source\PSoC5/InjectionTimer_1.c ****     #endif /* (InjectionTimer_1_UseControl || InjectionTimer_1_UsingFixedFunction) */
 238:Generated_Source\PSoC5/InjectionTimer_1.c **** 
ARM GAS  C:\Users\Bruger\AppData\Local\Temp\ccVRsutO.s 			page 51


 239:Generated_Source\PSoC5/InjectionTimer_1.c ****     /* Globally disable the Fixed Function Block chosen */
 240:Generated_Source\PSoC5/InjectionTimer_1.c ****     #if (InjectionTimer_1_UsingFixedFunction)
 241:Generated_Source\PSoC5/InjectionTimer_1.c ****         InjectionTimer_1_GLOBAL_ENABLE &= ((uint8)(~InjectionTimer_1_BLOCK_EN_MASK));
 242:Generated_Source\PSoC5/InjectionTimer_1.c ****         InjectionTimer_1_GLOBAL_STBY_ENABLE &= ((uint8)(~InjectionTimer_1_BLOCK_STBY_EN_MASK));
 243:Generated_Source\PSoC5/InjectionTimer_1.c ****     #endif /* (InjectionTimer_1_UsingFixedFunction) */
 244:Generated_Source\PSoC5/InjectionTimer_1.c **** }
 245:Generated_Source\PSoC5/InjectionTimer_1.c **** 
 246:Generated_Source\PSoC5/InjectionTimer_1.c **** #if (InjectionTimer_1_UseOneCompareMode)
 247:Generated_Source\PSoC5/InjectionTimer_1.c ****     #if (InjectionTimer_1_CompareMode1SW)
 248:Generated_Source\PSoC5/InjectionTimer_1.c **** 
 249:Generated_Source\PSoC5/InjectionTimer_1.c **** 
 250:Generated_Source\PSoC5/InjectionTimer_1.c ****         /*******************************************************************************
 251:Generated_Source\PSoC5/InjectionTimer_1.c ****         * Function Name: InjectionTimer_1_SetCompareMode
 252:Generated_Source\PSoC5/InjectionTimer_1.c ****         ********************************************************************************
 253:Generated_Source\PSoC5/InjectionTimer_1.c ****         *
 254:Generated_Source\PSoC5/InjectionTimer_1.c ****         * Summary:
 255:Generated_Source\PSoC5/InjectionTimer_1.c ****         *  This function writes the Compare Mode for the pwm output when in Dither mode,
 256:Generated_Source\PSoC5/InjectionTimer_1.c ****         *  Center Align Mode or One Output Mode.
 257:Generated_Source\PSoC5/InjectionTimer_1.c ****         *
 258:Generated_Source\PSoC5/InjectionTimer_1.c ****         * Parameters:
 259:Generated_Source\PSoC5/InjectionTimer_1.c ****         *  comparemode:  The new compare mode for the PWM output. Use the compare types
 260:Generated_Source\PSoC5/InjectionTimer_1.c ****         *                defined in the H file as input arguments.
 261:Generated_Source\PSoC5/InjectionTimer_1.c ****         *
 262:Generated_Source\PSoC5/InjectionTimer_1.c ****         * Return:
 263:Generated_Source\PSoC5/InjectionTimer_1.c ****         *  None
 264:Generated_Source\PSoC5/InjectionTimer_1.c ****         *
 265:Generated_Source\PSoC5/InjectionTimer_1.c ****         *******************************************************************************/
 266:Generated_Source\PSoC5/InjectionTimer_1.c ****         void InjectionTimer_1_SetCompareMode(uint8 comparemode) 
 267:Generated_Source\PSoC5/InjectionTimer_1.c ****         {
 268:Generated_Source\PSoC5/InjectionTimer_1.c ****             #if(InjectionTimer_1_UsingFixedFunction)
 269:Generated_Source\PSoC5/InjectionTimer_1.c **** 
 270:Generated_Source\PSoC5/InjectionTimer_1.c ****                 #if(0 != InjectionTimer_1_CTRL_CMPMODE1_SHIFT)
 271:Generated_Source\PSoC5/InjectionTimer_1.c ****                     uint8 comparemodemasked = ((uint8)((uint8)comparemode << InjectionTimer_1_CTRL_
 272:Generated_Source\PSoC5/InjectionTimer_1.c ****                 #else
 273:Generated_Source\PSoC5/InjectionTimer_1.c ****                     uint8 comparemodemasked = comparemode;
 274:Generated_Source\PSoC5/InjectionTimer_1.c ****                 #endif /* (0 != InjectionTimer_1_CTRL_CMPMODE1_SHIFT) */
 275:Generated_Source\PSoC5/InjectionTimer_1.c **** 
 276:Generated_Source\PSoC5/InjectionTimer_1.c ****                 InjectionTimer_1_CONTROL3 &= ((uint8)(~InjectionTimer_1_CTRL_CMPMODE1_MASK)); /*Cle
 277:Generated_Source\PSoC5/InjectionTimer_1.c ****                 InjectionTimer_1_CONTROL3 |= comparemodemasked;
 278:Generated_Source\PSoC5/InjectionTimer_1.c **** 
 279:Generated_Source\PSoC5/InjectionTimer_1.c ****             #elif (InjectionTimer_1_UseControl)
 280:Generated_Source\PSoC5/InjectionTimer_1.c **** 
 281:Generated_Source\PSoC5/InjectionTimer_1.c ****                 #if(0 != InjectionTimer_1_CTRL_CMPMODE1_SHIFT)
 282:Generated_Source\PSoC5/InjectionTimer_1.c ****                     uint8 comparemode1masked = ((uint8)((uint8)comparemode << InjectionTimer_1_CTRL
 283:Generated_Source\PSoC5/InjectionTimer_1.c ****                                                 InjectionTimer_1_CTRL_CMPMODE1_MASK;
 284:Generated_Source\PSoC5/InjectionTimer_1.c ****                 #else
 285:Generated_Source\PSoC5/InjectionTimer_1.c ****                     uint8 comparemode1masked = comparemode & InjectionTimer_1_CTRL_CMPMODE1_MASK;
 286:Generated_Source\PSoC5/InjectionTimer_1.c ****                 #endif /* (0 != InjectionTimer_1_CTRL_CMPMODE1_SHIFT) */
 287:Generated_Source\PSoC5/InjectionTimer_1.c **** 
 288:Generated_Source\PSoC5/InjectionTimer_1.c ****                 #if(0 != InjectionTimer_1_CTRL_CMPMODE2_SHIFT)
 289:Generated_Source\PSoC5/InjectionTimer_1.c ****                     uint8 comparemode2masked = ((uint8)((uint8)comparemode << InjectionTimer_1_CTRL
 290:Generated_Source\PSoC5/InjectionTimer_1.c ****                                                InjectionTimer_1_CTRL_CMPMODE2_MASK;
 291:Generated_Source\PSoC5/InjectionTimer_1.c ****                 #else
 292:Generated_Source\PSoC5/InjectionTimer_1.c ****                     uint8 comparemode2masked = comparemode & InjectionTimer_1_CTRL_CMPMODE2_MASK;
 293:Generated_Source\PSoC5/InjectionTimer_1.c ****                 #endif /* (0 != InjectionTimer_1_CTRL_CMPMODE2_SHIFT) */
 294:Generated_Source\PSoC5/InjectionTimer_1.c **** 
 295:Generated_Source\PSoC5/InjectionTimer_1.c ****                 /*Clear existing mode */
ARM GAS  C:\Users\Bruger\AppData\Local\Temp\ccVRsutO.s 			page 52


 296:Generated_Source\PSoC5/InjectionTimer_1.c ****                 InjectionTimer_1_CONTROL &= ((uint8)(~(InjectionTimer_1_CTRL_CMPMODE1_MASK |
 297:Generated_Source\PSoC5/InjectionTimer_1.c ****                                             InjectionTimer_1_CTRL_CMPMODE2_MASK)));
 298:Generated_Source\PSoC5/InjectionTimer_1.c ****                 InjectionTimer_1_CONTROL |= (comparemode1masked | comparemode2masked);
 299:Generated_Source\PSoC5/InjectionTimer_1.c **** 
 300:Generated_Source\PSoC5/InjectionTimer_1.c ****             #else
 301:Generated_Source\PSoC5/InjectionTimer_1.c ****                 uint8 temp = comparemode;
 302:Generated_Source\PSoC5/InjectionTimer_1.c ****             #endif /* (InjectionTimer_1_UsingFixedFunction) */
 303:Generated_Source\PSoC5/InjectionTimer_1.c ****         }
 304:Generated_Source\PSoC5/InjectionTimer_1.c ****     #endif /* InjectionTimer_1_CompareMode1SW */
 305:Generated_Source\PSoC5/InjectionTimer_1.c **** 
 306:Generated_Source\PSoC5/InjectionTimer_1.c **** #else /* UseOneCompareMode */
 307:Generated_Source\PSoC5/InjectionTimer_1.c **** 
 308:Generated_Source\PSoC5/InjectionTimer_1.c ****     #if (InjectionTimer_1_CompareMode1SW)
 309:Generated_Source\PSoC5/InjectionTimer_1.c **** 
 310:Generated_Source\PSoC5/InjectionTimer_1.c **** 
 311:Generated_Source\PSoC5/InjectionTimer_1.c ****         /*******************************************************************************
 312:Generated_Source\PSoC5/InjectionTimer_1.c ****         * Function Name: InjectionTimer_1_SetCompareMode1
 313:Generated_Source\PSoC5/InjectionTimer_1.c ****         ********************************************************************************
 314:Generated_Source\PSoC5/InjectionTimer_1.c ****         *
 315:Generated_Source\PSoC5/InjectionTimer_1.c ****         * Summary:
 316:Generated_Source\PSoC5/InjectionTimer_1.c ****         *  This function writes the Compare Mode for the pwm or pwm1 output
 317:Generated_Source\PSoC5/InjectionTimer_1.c ****         *
 318:Generated_Source\PSoC5/InjectionTimer_1.c ****         * Parameters:
 319:Generated_Source\PSoC5/InjectionTimer_1.c ****         *  comparemode:  The new compare mode for the PWM output. Use the compare types
 320:Generated_Source\PSoC5/InjectionTimer_1.c ****         *                defined in the H file as input arguments.
 321:Generated_Source\PSoC5/InjectionTimer_1.c ****         *
 322:Generated_Source\PSoC5/InjectionTimer_1.c ****         * Return:
 323:Generated_Source\PSoC5/InjectionTimer_1.c ****         *  None
 324:Generated_Source\PSoC5/InjectionTimer_1.c ****         *
 325:Generated_Source\PSoC5/InjectionTimer_1.c ****         *******************************************************************************/
 326:Generated_Source\PSoC5/InjectionTimer_1.c ****         void InjectionTimer_1_SetCompareMode1(uint8 comparemode) 
 327:Generated_Source\PSoC5/InjectionTimer_1.c ****         {
 328:Generated_Source\PSoC5/InjectionTimer_1.c ****             #if(0 != InjectionTimer_1_CTRL_CMPMODE1_SHIFT)
 329:Generated_Source\PSoC5/InjectionTimer_1.c ****                 uint8 comparemodemasked = ((uint8)((uint8)comparemode << InjectionTimer_1_CTRL_CMPM
 330:Generated_Source\PSoC5/InjectionTimer_1.c ****                                            InjectionTimer_1_CTRL_CMPMODE1_MASK;
 331:Generated_Source\PSoC5/InjectionTimer_1.c ****             #else
 332:Generated_Source\PSoC5/InjectionTimer_1.c ****                 uint8 comparemodemasked = comparemode & InjectionTimer_1_CTRL_CMPMODE1_MASK;
 333:Generated_Source\PSoC5/InjectionTimer_1.c ****             #endif /* (0 != InjectionTimer_1_CTRL_CMPMODE1_SHIFT) */
 334:Generated_Source\PSoC5/InjectionTimer_1.c **** 
 335:Generated_Source\PSoC5/InjectionTimer_1.c ****             #if (InjectionTimer_1_UseControl)
 336:Generated_Source\PSoC5/InjectionTimer_1.c ****                 InjectionTimer_1_CONTROL &= ((uint8)(~InjectionTimer_1_CTRL_CMPMODE1_MASK)); /*Clea
 337:Generated_Source\PSoC5/InjectionTimer_1.c ****                 InjectionTimer_1_CONTROL |= comparemodemasked;
 338:Generated_Source\PSoC5/InjectionTimer_1.c ****             #endif /* (InjectionTimer_1_UseControl) */
 339:Generated_Source\PSoC5/InjectionTimer_1.c ****         }
 340:Generated_Source\PSoC5/InjectionTimer_1.c ****     #endif /* InjectionTimer_1_CompareMode1SW */
 341:Generated_Source\PSoC5/InjectionTimer_1.c **** 
 342:Generated_Source\PSoC5/InjectionTimer_1.c **** #if (InjectionTimer_1_CompareMode2SW)
 343:Generated_Source\PSoC5/InjectionTimer_1.c **** 
 344:Generated_Source\PSoC5/InjectionTimer_1.c **** 
 345:Generated_Source\PSoC5/InjectionTimer_1.c ****     /*******************************************************************************
 346:Generated_Source\PSoC5/InjectionTimer_1.c ****     * Function Name: InjectionTimer_1_SetCompareMode2
 347:Generated_Source\PSoC5/InjectionTimer_1.c ****     ********************************************************************************
 348:Generated_Source\PSoC5/InjectionTimer_1.c ****     *
 349:Generated_Source\PSoC5/InjectionTimer_1.c ****     * Summary:
 350:Generated_Source\PSoC5/InjectionTimer_1.c ****     *  This function writes the Compare Mode for the pwm or pwm2 output
 351:Generated_Source\PSoC5/InjectionTimer_1.c ****     *
 352:Generated_Source\PSoC5/InjectionTimer_1.c ****     * Parameters:
ARM GAS  C:\Users\Bruger\AppData\Local\Temp\ccVRsutO.s 			page 53


 353:Generated_Source\PSoC5/InjectionTimer_1.c ****     *  comparemode:  The new compare mode for the PWM output. Use the compare types
 354:Generated_Source\PSoC5/InjectionTimer_1.c ****     *                defined in the H file as input arguments.
 355:Generated_Source\PSoC5/InjectionTimer_1.c ****     *
 356:Generated_Source\PSoC5/InjectionTimer_1.c ****     * Return:
 357:Generated_Source\PSoC5/InjectionTimer_1.c ****     *  None
 358:Generated_Source\PSoC5/InjectionTimer_1.c ****     *
 359:Generated_Source\PSoC5/InjectionTimer_1.c ****     *******************************************************************************/
 360:Generated_Source\PSoC5/InjectionTimer_1.c ****     void InjectionTimer_1_SetCompareMode2(uint8 comparemode) 
 361:Generated_Source\PSoC5/InjectionTimer_1.c ****     {
 362:Generated_Source\PSoC5/InjectionTimer_1.c **** 
 363:Generated_Source\PSoC5/InjectionTimer_1.c ****         #if(0 != InjectionTimer_1_CTRL_CMPMODE2_SHIFT)
 364:Generated_Source\PSoC5/InjectionTimer_1.c ****             uint8 comparemodemasked = ((uint8)((uint8)comparemode << InjectionTimer_1_CTRL_CMPMODE2
 365:Generated_Source\PSoC5/InjectionTimer_1.c ****                                                  InjectionTimer_1_CTRL_CMPMODE2_MASK;
 366:Generated_Source\PSoC5/InjectionTimer_1.c ****         #else
 367:Generated_Source\PSoC5/InjectionTimer_1.c ****             uint8 comparemodemasked = comparemode & InjectionTimer_1_CTRL_CMPMODE2_MASK;
 368:Generated_Source\PSoC5/InjectionTimer_1.c ****         #endif /* (0 != InjectionTimer_1_CTRL_CMPMODE2_SHIFT) */
 369:Generated_Source\PSoC5/InjectionTimer_1.c **** 
 370:Generated_Source\PSoC5/InjectionTimer_1.c ****         #if (InjectionTimer_1_UseControl)
 371:Generated_Source\PSoC5/InjectionTimer_1.c ****             InjectionTimer_1_CONTROL &= ((uint8)(~InjectionTimer_1_CTRL_CMPMODE2_MASK)); /*Clear ex
 372:Generated_Source\PSoC5/InjectionTimer_1.c ****             InjectionTimer_1_CONTROL |= comparemodemasked;
 373:Generated_Source\PSoC5/InjectionTimer_1.c ****         #endif /* (InjectionTimer_1_UseControl) */
 374:Generated_Source\PSoC5/InjectionTimer_1.c ****     }
 375:Generated_Source\PSoC5/InjectionTimer_1.c ****     #endif /*InjectionTimer_1_CompareMode2SW */
 376:Generated_Source\PSoC5/InjectionTimer_1.c **** 
 377:Generated_Source\PSoC5/InjectionTimer_1.c **** #endif /* UseOneCompareMode */
 378:Generated_Source\PSoC5/InjectionTimer_1.c **** 
 379:Generated_Source\PSoC5/InjectionTimer_1.c **** 
 380:Generated_Source\PSoC5/InjectionTimer_1.c **** #if (!InjectionTimer_1_UsingFixedFunction)
 381:Generated_Source\PSoC5/InjectionTimer_1.c **** 
 382:Generated_Source\PSoC5/InjectionTimer_1.c **** 
 383:Generated_Source\PSoC5/InjectionTimer_1.c ****     /*******************************************************************************
 384:Generated_Source\PSoC5/InjectionTimer_1.c ****     * Function Name: InjectionTimer_1_WriteCounter
 385:Generated_Source\PSoC5/InjectionTimer_1.c ****     ********************************************************************************
 386:Generated_Source\PSoC5/InjectionTimer_1.c ****     *
 387:Generated_Source\PSoC5/InjectionTimer_1.c ****     * Summary:
 388:Generated_Source\PSoC5/InjectionTimer_1.c ****     *  Writes a new counter value directly to the counter register. This will be
 389:Generated_Source\PSoC5/InjectionTimer_1.c ****     *  implemented for that currently running period and only that period. This API
 390:Generated_Source\PSoC5/InjectionTimer_1.c ****     *  is valid only for UDB implementation and not available for fixed function
 391:Generated_Source\PSoC5/InjectionTimer_1.c ****     *  PWM implementation.
 392:Generated_Source\PSoC5/InjectionTimer_1.c ****     *
 393:Generated_Source\PSoC5/InjectionTimer_1.c ****     * Parameters:
 394:Generated_Source\PSoC5/InjectionTimer_1.c ****     *  counter:  The period new period counter value.
 395:Generated_Source\PSoC5/InjectionTimer_1.c ****     *
 396:Generated_Source\PSoC5/InjectionTimer_1.c ****     * Return:
 397:Generated_Source\PSoC5/InjectionTimer_1.c ****     *  None
 398:Generated_Source\PSoC5/InjectionTimer_1.c ****     *
 399:Generated_Source\PSoC5/InjectionTimer_1.c ****     * Side Effects:
 400:Generated_Source\PSoC5/InjectionTimer_1.c ****     *  The PWM Period will be reloaded when a counter value will be a zero
 401:Generated_Source\PSoC5/InjectionTimer_1.c ****     *
 402:Generated_Source\PSoC5/InjectionTimer_1.c ****     *******************************************************************************/
 403:Generated_Source\PSoC5/InjectionTimer_1.c ****     void InjectionTimer_1_WriteCounter(uint16 counter) \
 404:Generated_Source\PSoC5/InjectionTimer_1.c ****                                        
 405:Generated_Source\PSoC5/InjectionTimer_1.c ****     {
 406:Generated_Source\PSoC5/InjectionTimer_1.c ****         CY_SET_REG16(InjectionTimer_1_COUNTER_LSB_PTR, counter);
 644              		.loc 1 406 0
 645 0014 4AF6C871 		movw	r1, #45000
 646              	.LBE45:
ARM GAS  C:\Users\Bruger\AppData\Local\Temp\ccVRsutO.s 			page 54


 647              	.LBE44:
 117:Generated_Source\PSoC5/InjectionTimer_1.c ****                 ((uint8)(~InjectionTimer_1_CTRL_CMPMODE1_MASK));
 648              		.loc 1 117 0
 649 0018 1A4E     		ldr	r6, .L13+4
 129:Generated_Source\PSoC5/InjectionTimer_1.c ****             InjectionTimer_1_AUX_CONTROLDP1 |= (InjectionTimer_1_AUX_CTRL_FIFO0_CLR);
 650              		.loc 1 129 0
 651 001a 1B48     		ldr	r0, .L13+8
 117:Generated_Source\PSoC5/InjectionTimer_1.c ****                 ((uint8)(~InjectionTimer_1_CTRL_CMPMODE1_MASK));
 652              		.loc 1 117 0
 653 001c 3278     		ldrb	r2, [r6]	@ zero_extendqisi2
 654              	.LVL0:
 130:Generated_Source\PSoC5/InjectionTimer_1.c ****         #endif /* (InjectionTimer_1_Resolution == 8) */
 655              		.loc 1 130 0
 656 001e 1B4D     		ldr	r5, .L13+12
 117:Generated_Source\PSoC5/InjectionTimer_1.c ****                 ((uint8)(~InjectionTimer_1_CTRL_CMPMODE1_MASK));
 657              		.loc 1 117 0
 658 0020 02F0C002 		and	r2, r2, #192
 659              	.LVL1:
 119:Generated_Source\PSoC5/InjectionTimer_1.c ****                                    InjectionTimer_1_DEFAULT_COMPARE1_MODE;
 660              		.loc 1 119 0
 661 0024 42F00902 		orr	r2, r2, #9
 662 0028 3270     		strb	r2, [r6]
 129:Generated_Source\PSoC5/InjectionTimer_1.c ****             InjectionTimer_1_AUX_CONTROLDP1 |= (InjectionTimer_1_AUX_CTRL_FIFO0_CLR);
 663              		.loc 1 129 0
 664 002a 0278     		ldrb	r2, [r0]	@ zero_extendqisi2
 665              	.LBB48:
 666              	.LBB46:
 667              		.loc 1 406 0
 668 002c DFF868C0 		ldr	ip, .L13+24
 669              	.LBE46:
 670              	.LBE48:
 129:Generated_Source\PSoC5/InjectionTimer_1.c ****             InjectionTimer_1_AUX_CONTROLDP1 |= (InjectionTimer_1_AUX_CTRL_FIFO0_CLR);
 671              		.loc 1 129 0
 672 0030 42F00102 		orr	r2, r2, #1
 673 0034 0270     		strb	r2, [r0]
 130:Generated_Source\PSoC5/InjectionTimer_1.c ****         #endif /* (InjectionTimer_1_Resolution == 8) */
 674              		.loc 1 130 0
 675 0036 2A78     		ldrb	r2, [r5]	@ zero_extendqisi2
 676              	.LBB49:
 677              	.LBB50:
 407:Generated_Source\PSoC5/InjectionTimer_1.c ****     }
 408:Generated_Source\PSoC5/InjectionTimer_1.c **** 
 409:Generated_Source\PSoC5/InjectionTimer_1.c **** 
 410:Generated_Source\PSoC5/InjectionTimer_1.c ****     /*******************************************************************************
 411:Generated_Source\PSoC5/InjectionTimer_1.c ****     * Function Name: InjectionTimer_1_ReadCounter
 412:Generated_Source\PSoC5/InjectionTimer_1.c ****     ********************************************************************************
 413:Generated_Source\PSoC5/InjectionTimer_1.c ****     *
 414:Generated_Source\PSoC5/InjectionTimer_1.c ****     * Summary:
 415:Generated_Source\PSoC5/InjectionTimer_1.c ****     *  This function returns the current value of the counter.  It doesn't matter
 416:Generated_Source\PSoC5/InjectionTimer_1.c ****     *  if the counter is enabled or running.
 417:Generated_Source\PSoC5/InjectionTimer_1.c ****     *
 418:Generated_Source\PSoC5/InjectionTimer_1.c ****     * Parameters:
 419:Generated_Source\PSoC5/InjectionTimer_1.c ****     *  None
 420:Generated_Source\PSoC5/InjectionTimer_1.c ****     *
 421:Generated_Source\PSoC5/InjectionTimer_1.c ****     * Return:
 422:Generated_Source\PSoC5/InjectionTimer_1.c ****     *  The current value of the counter.
 423:Generated_Source\PSoC5/InjectionTimer_1.c ****     *
ARM GAS  C:\Users\Bruger\AppData\Local\Temp\ccVRsutO.s 			page 55


 424:Generated_Source\PSoC5/InjectionTimer_1.c ****     *******************************************************************************/
 425:Generated_Source\PSoC5/InjectionTimer_1.c ****     uint16 InjectionTimer_1_ReadCounter(void) 
 426:Generated_Source\PSoC5/InjectionTimer_1.c ****     {
 427:Generated_Source\PSoC5/InjectionTimer_1.c ****         /* Force capture by reading Accumulator */
 428:Generated_Source\PSoC5/InjectionTimer_1.c ****         /* Must first do a software capture to be able to read the counter */
 429:Generated_Source\PSoC5/InjectionTimer_1.c ****         /* It is up to the user code to make sure there isn't already captured data in the FIFO */
 430:Generated_Source\PSoC5/InjectionTimer_1.c ****           (void)CY_GET_REG8(InjectionTimer_1_COUNTERCAP_LSB_PTR_8BIT);
 431:Generated_Source\PSoC5/InjectionTimer_1.c **** 
 432:Generated_Source\PSoC5/InjectionTimer_1.c ****         /* Read the data from the FIFO */
 433:Generated_Source\PSoC5/InjectionTimer_1.c ****         return (CY_GET_REG16(InjectionTimer_1_CAPTURE_LSB_PTR));
 434:Generated_Source\PSoC5/InjectionTimer_1.c ****     }
 435:Generated_Source\PSoC5/InjectionTimer_1.c **** 
 436:Generated_Source\PSoC5/InjectionTimer_1.c ****     #if (InjectionTimer_1_UseStatus)
 437:Generated_Source\PSoC5/InjectionTimer_1.c **** 
 438:Generated_Source\PSoC5/InjectionTimer_1.c **** 
 439:Generated_Source\PSoC5/InjectionTimer_1.c ****         /*******************************************************************************
 440:Generated_Source\PSoC5/InjectionTimer_1.c ****         * Function Name: InjectionTimer_1_ClearFIFO
 441:Generated_Source\PSoC5/InjectionTimer_1.c ****         ********************************************************************************
 442:Generated_Source\PSoC5/InjectionTimer_1.c ****         *
 443:Generated_Source\PSoC5/InjectionTimer_1.c ****         * Summary:
 444:Generated_Source\PSoC5/InjectionTimer_1.c ****         *  This function clears all capture data from the capture FIFO
 445:Generated_Source\PSoC5/InjectionTimer_1.c ****         *
 446:Generated_Source\PSoC5/InjectionTimer_1.c ****         * Parameters:
 447:Generated_Source\PSoC5/InjectionTimer_1.c ****         *  None
 448:Generated_Source\PSoC5/InjectionTimer_1.c ****         *
 449:Generated_Source\PSoC5/InjectionTimer_1.c ****         * Return:
 450:Generated_Source\PSoC5/InjectionTimer_1.c ****         *  None
 451:Generated_Source\PSoC5/InjectionTimer_1.c ****         *
 452:Generated_Source\PSoC5/InjectionTimer_1.c ****         *******************************************************************************/
 453:Generated_Source\PSoC5/InjectionTimer_1.c ****         void InjectionTimer_1_ClearFIFO(void) 
 454:Generated_Source\PSoC5/InjectionTimer_1.c ****         {
 455:Generated_Source\PSoC5/InjectionTimer_1.c ****             while(0u != (InjectionTimer_1_ReadStatusRegister() & InjectionTimer_1_STATUS_FIFONEMPTY
 456:Generated_Source\PSoC5/InjectionTimer_1.c ****             {
 457:Generated_Source\PSoC5/InjectionTimer_1.c ****                 (void)InjectionTimer_1_ReadCapture();
 458:Generated_Source\PSoC5/InjectionTimer_1.c ****             }
 459:Generated_Source\PSoC5/InjectionTimer_1.c ****         }
 460:Generated_Source\PSoC5/InjectionTimer_1.c **** 
 461:Generated_Source\PSoC5/InjectionTimer_1.c ****     #endif /* InjectionTimer_1_UseStatus */
 462:Generated_Source\PSoC5/InjectionTimer_1.c **** 
 463:Generated_Source\PSoC5/InjectionTimer_1.c **** #endif /* !InjectionTimer_1_UsingFixedFunction */
 464:Generated_Source\PSoC5/InjectionTimer_1.c **** 
 465:Generated_Source\PSoC5/InjectionTimer_1.c **** 
 466:Generated_Source\PSoC5/InjectionTimer_1.c **** /*******************************************************************************
 467:Generated_Source\PSoC5/InjectionTimer_1.c **** * Function Name: InjectionTimer_1_WritePeriod
 468:Generated_Source\PSoC5/InjectionTimer_1.c **** ********************************************************************************
 469:Generated_Source\PSoC5/InjectionTimer_1.c **** *
 470:Generated_Source\PSoC5/InjectionTimer_1.c **** * Summary:
 471:Generated_Source\PSoC5/InjectionTimer_1.c **** *  This function is used to change the period of the counter.  The new period
 472:Generated_Source\PSoC5/InjectionTimer_1.c **** *  will be loaded the next time terminal count is detected.
 473:Generated_Source\PSoC5/InjectionTimer_1.c **** *
 474:Generated_Source\PSoC5/InjectionTimer_1.c **** * Parameters:
 475:Generated_Source\PSoC5/InjectionTimer_1.c **** *  period:  Period value. May be between 1 and (2^Resolution)-1.  A value of 0
 476:Generated_Source\PSoC5/InjectionTimer_1.c **** *           will result in the counter remaining at zero.
 477:Generated_Source\PSoC5/InjectionTimer_1.c **** *
 478:Generated_Source\PSoC5/InjectionTimer_1.c **** * Return:
 479:Generated_Source\PSoC5/InjectionTimer_1.c **** *  None
 480:Generated_Source\PSoC5/InjectionTimer_1.c **** *
ARM GAS  C:\Users\Bruger\AppData\Local\Temp\ccVRsutO.s 			page 56


 481:Generated_Source\PSoC5/InjectionTimer_1.c **** *******************************************************************************/
 482:Generated_Source\PSoC5/InjectionTimer_1.c **** void InjectionTimer_1_WritePeriod(uint16 period) 
 483:Generated_Source\PSoC5/InjectionTimer_1.c **** {
 484:Generated_Source\PSoC5/InjectionTimer_1.c ****     #if(InjectionTimer_1_UsingFixedFunction)
 485:Generated_Source\PSoC5/InjectionTimer_1.c ****         CY_SET_REG16(InjectionTimer_1_PERIOD_LSB_PTR, (uint16)period);
 486:Generated_Source\PSoC5/InjectionTimer_1.c ****     #else
 487:Generated_Source\PSoC5/InjectionTimer_1.c ****         CY_SET_REG16(InjectionTimer_1_PERIOD_LSB_PTR, period);
 678              		.loc 1 487 0
 679 0038 DFF860E0 		ldr	lr, .L13+28
 680              	.LBE50:
 681              	.LBE49:
 130:Generated_Source\PSoC5/InjectionTimer_1.c ****         #endif /* (InjectionTimer_1_Resolution == 8) */
 682              		.loc 1 130 0
 683 003c 42F00102 		orr	r2, r2, #1
 684              	.LBB52:
 685              	.LBB53:
 488:Generated_Source\PSoC5/InjectionTimer_1.c ****     #endif /* (InjectionTimer_1_UsingFixedFunction) */
 489:Generated_Source\PSoC5/InjectionTimer_1.c **** }
 490:Generated_Source\PSoC5/InjectionTimer_1.c **** 
 491:Generated_Source\PSoC5/InjectionTimer_1.c **** #if (InjectionTimer_1_UseOneCompareMode)
 492:Generated_Source\PSoC5/InjectionTimer_1.c **** 
 493:Generated_Source\PSoC5/InjectionTimer_1.c **** 
 494:Generated_Source\PSoC5/InjectionTimer_1.c ****     /*******************************************************************************
 495:Generated_Source\PSoC5/InjectionTimer_1.c ****     * Function Name: InjectionTimer_1_WriteCompare
 496:Generated_Source\PSoC5/InjectionTimer_1.c ****     ********************************************************************************
 497:Generated_Source\PSoC5/InjectionTimer_1.c ****     *
 498:Generated_Source\PSoC5/InjectionTimer_1.c ****     * Summary:
 499:Generated_Source\PSoC5/InjectionTimer_1.c ****     *  This funtion is used to change the compare1 value when the PWM is in Dither
 500:Generated_Source\PSoC5/InjectionTimer_1.c ****     *  mode. The compare output will reflect the new value on the next UDB clock.
 501:Generated_Source\PSoC5/InjectionTimer_1.c ****     *  The compare output will be driven high when the present counter value is
 502:Generated_Source\PSoC5/InjectionTimer_1.c ****     *  compared to the compare value based on the compare mode defined in
 503:Generated_Source\PSoC5/InjectionTimer_1.c ****     *  Dither Mode.
 504:Generated_Source\PSoC5/InjectionTimer_1.c ****     *
 505:Generated_Source\PSoC5/InjectionTimer_1.c ****     * Parameters:
 506:Generated_Source\PSoC5/InjectionTimer_1.c ****     *  compare:  New compare value.
 507:Generated_Source\PSoC5/InjectionTimer_1.c ****     *
 508:Generated_Source\PSoC5/InjectionTimer_1.c ****     * Return:
 509:Generated_Source\PSoC5/InjectionTimer_1.c ****     *  None
 510:Generated_Source\PSoC5/InjectionTimer_1.c ****     *
 511:Generated_Source\PSoC5/InjectionTimer_1.c ****     * Side Effects:
 512:Generated_Source\PSoC5/InjectionTimer_1.c ****     *  This function is only available if the PWM mode parameter is set to
 513:Generated_Source\PSoC5/InjectionTimer_1.c ****     *  Dither Mode, Center Aligned Mode or One Output Mode
 514:Generated_Source\PSoC5/InjectionTimer_1.c ****     *
 515:Generated_Source\PSoC5/InjectionTimer_1.c ****     *******************************************************************************/
 516:Generated_Source\PSoC5/InjectionTimer_1.c ****     void InjectionTimer_1_WriteCompare(uint16 compare) \
 517:Generated_Source\PSoC5/InjectionTimer_1.c ****                                        
 518:Generated_Source\PSoC5/InjectionTimer_1.c ****     {
 519:Generated_Source\PSoC5/InjectionTimer_1.c ****         #if(InjectionTimer_1_UsingFixedFunction)
 520:Generated_Source\PSoC5/InjectionTimer_1.c ****             CY_SET_REG16(InjectionTimer_1_COMPARE1_LSB_PTR, (uint16)compare);
 521:Generated_Source\PSoC5/InjectionTimer_1.c ****         #else
 522:Generated_Source\PSoC5/InjectionTimer_1.c ****             CY_SET_REG16(InjectionTimer_1_COMPARE1_LSB_PTR, compare);
 686              		.loc 1 522 0
 687 0040 4FF4FA47 		mov	r7, #32000
 688              	.LBE53:
 689              	.LBE52:
 130:Generated_Source\PSoC5/InjectionTimer_1.c ****         #endif /* (InjectionTimer_1_Resolution == 8) */
 690              		.loc 1 130 0
ARM GAS  C:\Users\Bruger\AppData\Local\Temp\ccVRsutO.s 			page 57


 691 0044 2A70     		strb	r2, [r5]
 692              	.LVL2:
 693              	.LBB55:
 694              	.LBB47:
 406:Generated_Source\PSoC5/InjectionTimer_1.c ****     }
 695              		.loc 1 406 0
 696 0046 ACF80010 		strh	r1, [ip]	@ movhi
 697              	.LVL3:
 698              	.LBE47:
 699              	.LBE55:
 700              	.LBB56:
 701              	.LBB51:
 487:Generated_Source\PSoC5/InjectionTimer_1.c ****     #endif /* (InjectionTimer_1_UsingFixedFunction) */
 702              		.loc 1 487 0
 703 004a AEF80010 		strh	r1, [lr]	@ movhi
 704              	.LVL4:
 705              	.LBE51:
 706              	.LBE56:
 707              	.LBB57:
 708              	.LBB54:
 709              		.loc 1 522 0
 710 004e A6F8E172 		strh	r7, [r6, #737]	@ movhi
 711              	.LVL5:
 712              	.LBE54:
 713              	.LBE57:
 714              	.LBB58:
 715              	.LBB59:
 523:Generated_Source\PSoC5/InjectionTimer_1.c ****         #endif /* (InjectionTimer_1_UsingFixedFunction) */
 524:Generated_Source\PSoC5/InjectionTimer_1.c **** 
 525:Generated_Source\PSoC5/InjectionTimer_1.c ****         #if (InjectionTimer_1_PWMMode == InjectionTimer_1__B_PWM__DITHER)
 526:Generated_Source\PSoC5/InjectionTimer_1.c ****             #if(InjectionTimer_1_UsingFixedFunction)
 527:Generated_Source\PSoC5/InjectionTimer_1.c ****                 CY_SET_REG16(InjectionTimer_1_COMPARE2_LSB_PTR, (uint16)(compare + 1u));
 528:Generated_Source\PSoC5/InjectionTimer_1.c ****             #else
 529:Generated_Source\PSoC5/InjectionTimer_1.c ****                 CY_SET_REG16(InjectionTimer_1_COMPARE2_LSB_PTR, (compare + 1u));
 530:Generated_Source\PSoC5/InjectionTimer_1.c ****             #endif /* (InjectionTimer_1_UsingFixedFunction) */
 531:Generated_Source\PSoC5/InjectionTimer_1.c ****         #endif /* (InjectionTimer_1_PWMMode == InjectionTimer_1__B_PWM__DITHER) */
 532:Generated_Source\PSoC5/InjectionTimer_1.c ****     }
 533:Generated_Source\PSoC5/InjectionTimer_1.c **** 
 534:Generated_Source\PSoC5/InjectionTimer_1.c **** 
 535:Generated_Source\PSoC5/InjectionTimer_1.c **** #else
 536:Generated_Source\PSoC5/InjectionTimer_1.c **** 
 537:Generated_Source\PSoC5/InjectionTimer_1.c **** 
 538:Generated_Source\PSoC5/InjectionTimer_1.c ****     /*******************************************************************************
 539:Generated_Source\PSoC5/InjectionTimer_1.c ****     * Function Name: InjectionTimer_1_WriteCompare1
 540:Generated_Source\PSoC5/InjectionTimer_1.c ****     ********************************************************************************
 541:Generated_Source\PSoC5/InjectionTimer_1.c ****     *
 542:Generated_Source\PSoC5/InjectionTimer_1.c ****     * Summary:
 543:Generated_Source\PSoC5/InjectionTimer_1.c ****     *  This funtion is used to change the compare1 value.  The compare output will
 544:Generated_Source\PSoC5/InjectionTimer_1.c ****     *  reflect the new value on the next UDB clock.  The compare output will be
 545:Generated_Source\PSoC5/InjectionTimer_1.c ****     *  driven high when the present counter value is less than or less than or
 546:Generated_Source\PSoC5/InjectionTimer_1.c ****     *  equal to the compare register, depending on the mode.
 547:Generated_Source\PSoC5/InjectionTimer_1.c ****     *
 548:Generated_Source\PSoC5/InjectionTimer_1.c ****     * Parameters:
 549:Generated_Source\PSoC5/InjectionTimer_1.c ****     *  compare:  New compare value.
 550:Generated_Source\PSoC5/InjectionTimer_1.c ****     *
 551:Generated_Source\PSoC5/InjectionTimer_1.c ****     * Return:
 552:Generated_Source\PSoC5/InjectionTimer_1.c ****     *  None
ARM GAS  C:\Users\Bruger\AppData\Local\Temp\ccVRsutO.s 			page 58


 553:Generated_Source\PSoC5/InjectionTimer_1.c ****     *
 554:Generated_Source\PSoC5/InjectionTimer_1.c ****     *******************************************************************************/
 555:Generated_Source\PSoC5/InjectionTimer_1.c ****     void InjectionTimer_1_WriteCompare1(uint16 compare) \
 556:Generated_Source\PSoC5/InjectionTimer_1.c ****                                         
 557:Generated_Source\PSoC5/InjectionTimer_1.c ****     {
 558:Generated_Source\PSoC5/InjectionTimer_1.c ****         #if(InjectionTimer_1_UsingFixedFunction)
 559:Generated_Source\PSoC5/InjectionTimer_1.c ****             CY_SET_REG16(InjectionTimer_1_COMPARE1_LSB_PTR, (uint16)compare);
 560:Generated_Source\PSoC5/InjectionTimer_1.c ****         #else
 561:Generated_Source\PSoC5/InjectionTimer_1.c ****             CY_SET_REG16(InjectionTimer_1_COMPARE1_LSB_PTR, compare);
 562:Generated_Source\PSoC5/InjectionTimer_1.c ****         #endif /* (InjectionTimer_1_UsingFixedFunction) */
 563:Generated_Source\PSoC5/InjectionTimer_1.c ****     }
 564:Generated_Source\PSoC5/InjectionTimer_1.c **** 
 565:Generated_Source\PSoC5/InjectionTimer_1.c **** 
 566:Generated_Source\PSoC5/InjectionTimer_1.c ****     /*******************************************************************************
 567:Generated_Source\PSoC5/InjectionTimer_1.c ****     * Function Name: InjectionTimer_1_WriteCompare2
 568:Generated_Source\PSoC5/InjectionTimer_1.c ****     ********************************************************************************
 569:Generated_Source\PSoC5/InjectionTimer_1.c ****     *
 570:Generated_Source\PSoC5/InjectionTimer_1.c ****     * Summary:
 571:Generated_Source\PSoC5/InjectionTimer_1.c ****     *  This funtion is used to change the compare value, for compare1 output.
 572:Generated_Source\PSoC5/InjectionTimer_1.c ****     *  The compare output will reflect the new value on the next UDB clock.
 573:Generated_Source\PSoC5/InjectionTimer_1.c ****     *  The compare output will be driven high when the present counter value is
 574:Generated_Source\PSoC5/InjectionTimer_1.c ****     *  less than or less than or equal to the compare register, depending on the
 575:Generated_Source\PSoC5/InjectionTimer_1.c ****     *  mode.
 576:Generated_Source\PSoC5/InjectionTimer_1.c ****     *
 577:Generated_Source\PSoC5/InjectionTimer_1.c ****     * Parameters:
 578:Generated_Source\PSoC5/InjectionTimer_1.c ****     *  compare:  New compare value.
 579:Generated_Source\PSoC5/InjectionTimer_1.c ****     *
 580:Generated_Source\PSoC5/InjectionTimer_1.c ****     * Return:
 581:Generated_Source\PSoC5/InjectionTimer_1.c ****     *  None
 582:Generated_Source\PSoC5/InjectionTimer_1.c ****     *
 583:Generated_Source\PSoC5/InjectionTimer_1.c ****     *******************************************************************************/
 584:Generated_Source\PSoC5/InjectionTimer_1.c ****     void InjectionTimer_1_WriteCompare2(uint16 compare) \
 585:Generated_Source\PSoC5/InjectionTimer_1.c ****                                         
 586:Generated_Source\PSoC5/InjectionTimer_1.c ****     {
 587:Generated_Source\PSoC5/InjectionTimer_1.c ****         #if(InjectionTimer_1_UsingFixedFunction)
 588:Generated_Source\PSoC5/InjectionTimer_1.c ****             CY_SET_REG16(InjectionTimer_1_COMPARE2_LSB_PTR, compare);
 589:Generated_Source\PSoC5/InjectionTimer_1.c ****         #else
 590:Generated_Source\PSoC5/InjectionTimer_1.c ****             CY_SET_REG16(InjectionTimer_1_COMPARE2_LSB_PTR, compare);
 591:Generated_Source\PSoC5/InjectionTimer_1.c ****         #endif /* (InjectionTimer_1_UsingFixedFunction) */
 592:Generated_Source\PSoC5/InjectionTimer_1.c ****     }
 593:Generated_Source\PSoC5/InjectionTimer_1.c **** #endif /* UseOneCompareMode */
 594:Generated_Source\PSoC5/InjectionTimer_1.c **** 
 595:Generated_Source\PSoC5/InjectionTimer_1.c **** #if (InjectionTimer_1_DeadBandUsed)
 596:Generated_Source\PSoC5/InjectionTimer_1.c **** 
 597:Generated_Source\PSoC5/InjectionTimer_1.c **** 
 598:Generated_Source\PSoC5/InjectionTimer_1.c ****     /*******************************************************************************
 599:Generated_Source\PSoC5/InjectionTimer_1.c ****     * Function Name: InjectionTimer_1_WriteDeadTime
 600:Generated_Source\PSoC5/InjectionTimer_1.c ****     ********************************************************************************
 601:Generated_Source\PSoC5/InjectionTimer_1.c ****     *
 602:Generated_Source\PSoC5/InjectionTimer_1.c ****     * Summary:
 603:Generated_Source\PSoC5/InjectionTimer_1.c ****     *  This function writes the dead-band counts to the corresponding register
 604:Generated_Source\PSoC5/InjectionTimer_1.c ****     *
 605:Generated_Source\PSoC5/InjectionTimer_1.c ****     * Parameters:
 606:Generated_Source\PSoC5/InjectionTimer_1.c ****     *  deadtime:  Number of counts for dead time
 607:Generated_Source\PSoC5/InjectionTimer_1.c ****     *
 608:Generated_Source\PSoC5/InjectionTimer_1.c ****     * Return:
 609:Generated_Source\PSoC5/InjectionTimer_1.c ****     *  None
ARM GAS  C:\Users\Bruger\AppData\Local\Temp\ccVRsutO.s 			page 59


 610:Generated_Source\PSoC5/InjectionTimer_1.c ****     *
 611:Generated_Source\PSoC5/InjectionTimer_1.c ****     *******************************************************************************/
 612:Generated_Source\PSoC5/InjectionTimer_1.c ****     void InjectionTimer_1_WriteDeadTime(uint8 deadtime) 
 613:Generated_Source\PSoC5/InjectionTimer_1.c ****     {
 614:Generated_Source\PSoC5/InjectionTimer_1.c ****         /* If using the Dead Band 1-255 mode then just write the register */
 615:Generated_Source\PSoC5/InjectionTimer_1.c ****         #if(!InjectionTimer_1_DeadBand2_4)
 616:Generated_Source\PSoC5/InjectionTimer_1.c ****             CY_SET_REG8(InjectionTimer_1_DEADBAND_COUNT_PTR, deadtime);
 617:Generated_Source\PSoC5/InjectionTimer_1.c ****         #else
 618:Generated_Source\PSoC5/InjectionTimer_1.c ****             /* Otherwise the data has to be masked and offset */
 619:Generated_Source\PSoC5/InjectionTimer_1.c ****             /* Clear existing data */
 620:Generated_Source\PSoC5/InjectionTimer_1.c ****             InjectionTimer_1_DEADBAND_COUNT &= ((uint8)(~InjectionTimer_1_DEADBAND_COUNT_MASK));
 621:Generated_Source\PSoC5/InjectionTimer_1.c **** 
 622:Generated_Source\PSoC5/InjectionTimer_1.c ****             /* Set new dead time */
 623:Generated_Source\PSoC5/InjectionTimer_1.c ****             #if(InjectionTimer_1_DEADBAND_COUNT_SHIFT)
 624:Generated_Source\PSoC5/InjectionTimer_1.c ****                 InjectionTimer_1_DEADBAND_COUNT |= ((uint8)((uint8)deadtime << InjectionTimer_1_DEA
 625:Generated_Source\PSoC5/InjectionTimer_1.c ****                                                     InjectionTimer_1_DEADBAND_COUNT_MASK;
 626:Generated_Source\PSoC5/InjectionTimer_1.c ****             #else
 627:Generated_Source\PSoC5/InjectionTimer_1.c ****                 InjectionTimer_1_DEADBAND_COUNT |= deadtime & InjectionTimer_1_DEADBAND_COUNT_MASK;
 628:Generated_Source\PSoC5/InjectionTimer_1.c ****             #endif /* (InjectionTimer_1_DEADBAND_COUNT_SHIFT) */
 629:Generated_Source\PSoC5/InjectionTimer_1.c **** 
 630:Generated_Source\PSoC5/InjectionTimer_1.c ****         #endif /* (!InjectionTimer_1_DeadBand2_4) */
 631:Generated_Source\PSoC5/InjectionTimer_1.c ****     }
 632:Generated_Source\PSoC5/InjectionTimer_1.c **** 
 633:Generated_Source\PSoC5/InjectionTimer_1.c **** 
 634:Generated_Source\PSoC5/InjectionTimer_1.c ****     /*******************************************************************************
 635:Generated_Source\PSoC5/InjectionTimer_1.c ****     * Function Name: InjectionTimer_1_ReadDeadTime
 636:Generated_Source\PSoC5/InjectionTimer_1.c ****     ********************************************************************************
 637:Generated_Source\PSoC5/InjectionTimer_1.c ****     *
 638:Generated_Source\PSoC5/InjectionTimer_1.c ****     * Summary:
 639:Generated_Source\PSoC5/InjectionTimer_1.c ****     *  This function reads the dead-band counts from the corresponding register
 640:Generated_Source\PSoC5/InjectionTimer_1.c ****     *
 641:Generated_Source\PSoC5/InjectionTimer_1.c ****     * Parameters:
 642:Generated_Source\PSoC5/InjectionTimer_1.c ****     *  None
 643:Generated_Source\PSoC5/InjectionTimer_1.c ****     *
 644:Generated_Source\PSoC5/InjectionTimer_1.c ****     * Return:
 645:Generated_Source\PSoC5/InjectionTimer_1.c ****     *  Dead Band Counts
 646:Generated_Source\PSoC5/InjectionTimer_1.c ****     *
 647:Generated_Source\PSoC5/InjectionTimer_1.c ****     *******************************************************************************/
 648:Generated_Source\PSoC5/InjectionTimer_1.c ****     uint8 InjectionTimer_1_ReadDeadTime(void) 
 649:Generated_Source\PSoC5/InjectionTimer_1.c ****     {
 650:Generated_Source\PSoC5/InjectionTimer_1.c ****         /* If using the Dead Band 1-255 mode then just read the register */
 651:Generated_Source\PSoC5/InjectionTimer_1.c ****         #if(!InjectionTimer_1_DeadBand2_4)
 652:Generated_Source\PSoC5/InjectionTimer_1.c ****             return (CY_GET_REG8(InjectionTimer_1_DEADBAND_COUNT_PTR));
 653:Generated_Source\PSoC5/InjectionTimer_1.c ****         #else
 654:Generated_Source\PSoC5/InjectionTimer_1.c **** 
 655:Generated_Source\PSoC5/InjectionTimer_1.c ****             /* Otherwise the data has to be masked and offset */
 656:Generated_Source\PSoC5/InjectionTimer_1.c ****             #if(InjectionTimer_1_DEADBAND_COUNT_SHIFT)
 657:Generated_Source\PSoC5/InjectionTimer_1.c ****                 return ((uint8)(((uint8)(InjectionTimer_1_DEADBAND_COUNT & InjectionTimer_1_DEADBAN
 658:Generated_Source\PSoC5/InjectionTimer_1.c ****                                                                            InjectionTimer_1_DEADBAN
 659:Generated_Source\PSoC5/InjectionTimer_1.c ****             #else
 660:Generated_Source\PSoC5/InjectionTimer_1.c ****                 return (InjectionTimer_1_DEADBAND_COUNT & InjectionTimer_1_DEADBAND_COUNT_MASK);
 661:Generated_Source\PSoC5/InjectionTimer_1.c ****             #endif /* (InjectionTimer_1_DEADBAND_COUNT_SHIFT) */
 662:Generated_Source\PSoC5/InjectionTimer_1.c ****         #endif /* (!InjectionTimer_1_DeadBand2_4) */
 663:Generated_Source\PSoC5/InjectionTimer_1.c ****     }
 664:Generated_Source\PSoC5/InjectionTimer_1.c **** #endif /* DeadBandUsed */
 665:Generated_Source\PSoC5/InjectionTimer_1.c **** 
 666:Generated_Source\PSoC5/InjectionTimer_1.c **** #if (InjectionTimer_1_UseStatus || InjectionTimer_1_UsingFixedFunction)
ARM GAS  C:\Users\Bruger\AppData\Local\Temp\ccVRsutO.s 			page 60


 667:Generated_Source\PSoC5/InjectionTimer_1.c **** 
 668:Generated_Source\PSoC5/InjectionTimer_1.c **** 
 669:Generated_Source\PSoC5/InjectionTimer_1.c ****     /*******************************************************************************
 670:Generated_Source\PSoC5/InjectionTimer_1.c ****     * Function Name: InjectionTimer_1_SetInterruptMode
 671:Generated_Source\PSoC5/InjectionTimer_1.c ****     ********************************************************************************
 672:Generated_Source\PSoC5/InjectionTimer_1.c ****     *
 673:Generated_Source\PSoC5/InjectionTimer_1.c ****     * Summary:
 674:Generated_Source\PSoC5/InjectionTimer_1.c ****     *  This function configures the interrupts mask control of theinterrupt
 675:Generated_Source\PSoC5/InjectionTimer_1.c ****     *  source status register.
 676:Generated_Source\PSoC5/InjectionTimer_1.c ****     *
 677:Generated_Source\PSoC5/InjectionTimer_1.c ****     * Parameters:
 678:Generated_Source\PSoC5/InjectionTimer_1.c ****     *  uint8 interruptMode: Bit field containing the interrupt sources enabled
 679:Generated_Source\PSoC5/InjectionTimer_1.c ****     *
 680:Generated_Source\PSoC5/InjectionTimer_1.c ****     * Return:
 681:Generated_Source\PSoC5/InjectionTimer_1.c ****     *  None
 682:Generated_Source\PSoC5/InjectionTimer_1.c ****     *
 683:Generated_Source\PSoC5/InjectionTimer_1.c ****     *******************************************************************************/
 684:Generated_Source\PSoC5/InjectionTimer_1.c ****     void InjectionTimer_1_SetInterruptMode(uint8 interruptMode) 
 685:Generated_Source\PSoC5/InjectionTimer_1.c ****     {
 686:Generated_Source\PSoC5/InjectionTimer_1.c ****         CY_SET_REG8(InjectionTimer_1_STATUS_MASK_PTR, interruptMode);
 716              		.loc 1 686 0
 717 0052 00F80F3C 		strb	r3, [r0, #-15]
 718              	.LBE59:
 719              	.LBE58:
 167:Generated_Source\PSoC5/InjectionTimer_1.c ****             /* Use the interrupt output of the status register for IRQ output */
 720              		.loc 1 167 0
 721 0056 FFF7FEFF 		bl	CyEnterCriticalSection
 722              	.LVL6:
 169:Generated_Source\PSoC5/InjectionTimer_1.c **** 
 723              		.loc 1 169 0
 724 005a 2B78     		ldrb	r3, [r5]	@ zero_extendqisi2
 725 005c 43F01003 		orr	r3, r3, #16
 726 0060 2B70     		strb	r3, [r5]
 172:Generated_Source\PSoC5/InjectionTimer_1.c **** 
 727              		.loc 1 172 0
 728 0062 FFF7FEFF 		bl	CyExitCriticalSection
 729              	.LVL7:
 730              	.LBB60:
 731              	.LBB61:
 732              	.LBB62:
 733              	.LBB63:
 687:Generated_Source\PSoC5/InjectionTimer_1.c ****     }
 688:Generated_Source\PSoC5/InjectionTimer_1.c **** 
 689:Generated_Source\PSoC5/InjectionTimer_1.c **** 
 690:Generated_Source\PSoC5/InjectionTimer_1.c ****     /*******************************************************************************
 691:Generated_Source\PSoC5/InjectionTimer_1.c ****     * Function Name: InjectionTimer_1_ReadStatusRegister
 692:Generated_Source\PSoC5/InjectionTimer_1.c ****     ********************************************************************************
 693:Generated_Source\PSoC5/InjectionTimer_1.c ****     *
 694:Generated_Source\PSoC5/InjectionTimer_1.c ****     * Summary:
 695:Generated_Source\PSoC5/InjectionTimer_1.c ****     *  This function returns the current state of the status register.
 696:Generated_Source\PSoC5/InjectionTimer_1.c ****     *
 697:Generated_Source\PSoC5/InjectionTimer_1.c ****     * Parameters:
 698:Generated_Source\PSoC5/InjectionTimer_1.c ****     *  None
 699:Generated_Source\PSoC5/InjectionTimer_1.c ****     *
 700:Generated_Source\PSoC5/InjectionTimer_1.c ****     * Return:
 701:Generated_Source\PSoC5/InjectionTimer_1.c ****     *  uint8 : Current status register value. The status register bits are:
 702:Generated_Source\PSoC5/InjectionTimer_1.c ****     *  [7:6] : Unused(0)
ARM GAS  C:\Users\Bruger\AppData\Local\Temp\ccVRsutO.s 			page 61


 703:Generated_Source\PSoC5/InjectionTimer_1.c ****     *  [5]   : Kill event output
 704:Generated_Source\PSoC5/InjectionTimer_1.c ****     *  [4]   : FIFO not empty
 705:Generated_Source\PSoC5/InjectionTimer_1.c ****     *  [3]   : FIFO full
 706:Generated_Source\PSoC5/InjectionTimer_1.c ****     *  [2]   : Terminal count
 707:Generated_Source\PSoC5/InjectionTimer_1.c ****     *  [1]   : Compare output 2
 708:Generated_Source\PSoC5/InjectionTimer_1.c ****     *  [0]   : Compare output 1
 709:Generated_Source\PSoC5/InjectionTimer_1.c ****     *
 710:Generated_Source\PSoC5/InjectionTimer_1.c ****     *******************************************************************************/
 711:Generated_Source\PSoC5/InjectionTimer_1.c ****     uint8 InjectionTimer_1_ReadStatusRegister(void) 
 712:Generated_Source\PSoC5/InjectionTimer_1.c ****     {
 713:Generated_Source\PSoC5/InjectionTimer_1.c ****         return (CY_GET_REG8(InjectionTimer_1_STATUS_PTR));
 734              		.loc 1 713 0
 735 0066 0A4A     		ldr	r2, .L13+16
 736 0068 1378     		ldrb	r3, [r2]	@ zero_extendqisi2
 737              	.LBE63:
 738              	.LBE62:
 455:Generated_Source\PSoC5/InjectionTimer_1.c ****             {
 739              		.loc 1 455 0
 740 006a D906     		lsls	r1, r3, #27
 741 006c 04D5     		bpl	.L3
 742              	.LBB65:
 743              	.LBB66:
 714:Generated_Source\PSoC5/InjectionTimer_1.c ****     }
 715:Generated_Source\PSoC5/InjectionTimer_1.c **** 
 716:Generated_Source\PSoC5/InjectionTimer_1.c **** #endif /* (InjectionTimer_1_UseStatus || InjectionTimer_1_UsingFixedFunction) */
 717:Generated_Source\PSoC5/InjectionTimer_1.c **** 
 718:Generated_Source\PSoC5/InjectionTimer_1.c **** 
 719:Generated_Source\PSoC5/InjectionTimer_1.c **** #if (InjectionTimer_1_UseControl)
 720:Generated_Source\PSoC5/InjectionTimer_1.c **** 
 721:Generated_Source\PSoC5/InjectionTimer_1.c **** 
 722:Generated_Source\PSoC5/InjectionTimer_1.c ****     /*******************************************************************************
 723:Generated_Source\PSoC5/InjectionTimer_1.c ****     * Function Name: InjectionTimer_1_ReadControlRegister
 724:Generated_Source\PSoC5/InjectionTimer_1.c ****     ********************************************************************************
 725:Generated_Source\PSoC5/InjectionTimer_1.c ****     *
 726:Generated_Source\PSoC5/InjectionTimer_1.c ****     * Summary:
 727:Generated_Source\PSoC5/InjectionTimer_1.c ****     *  Returns the current state of the control register. This API is available
 728:Generated_Source\PSoC5/InjectionTimer_1.c ****     *  only if the control register is not removed.
 729:Generated_Source\PSoC5/InjectionTimer_1.c ****     *
 730:Generated_Source\PSoC5/InjectionTimer_1.c ****     * Parameters:
 731:Generated_Source\PSoC5/InjectionTimer_1.c ****     *  None
 732:Generated_Source\PSoC5/InjectionTimer_1.c ****     *
 733:Generated_Source\PSoC5/InjectionTimer_1.c ****     * Return:
 734:Generated_Source\PSoC5/InjectionTimer_1.c ****     *  uint8 : Current control register value
 735:Generated_Source\PSoC5/InjectionTimer_1.c ****     *
 736:Generated_Source\PSoC5/InjectionTimer_1.c ****     *******************************************************************************/
 737:Generated_Source\PSoC5/InjectionTimer_1.c ****     uint8 InjectionTimer_1_ReadControlRegister(void) 
 738:Generated_Source\PSoC5/InjectionTimer_1.c ****     {
 739:Generated_Source\PSoC5/InjectionTimer_1.c ****         uint8 result;
 740:Generated_Source\PSoC5/InjectionTimer_1.c **** 
 741:Generated_Source\PSoC5/InjectionTimer_1.c ****         result = CY_GET_REG8(InjectionTimer_1_CONTROL_PTR);
 742:Generated_Source\PSoC5/InjectionTimer_1.c ****         return (result);
 743:Generated_Source\PSoC5/InjectionTimer_1.c ****     }
 744:Generated_Source\PSoC5/InjectionTimer_1.c **** 
 745:Generated_Source\PSoC5/InjectionTimer_1.c **** 
 746:Generated_Source\PSoC5/InjectionTimer_1.c ****     /*******************************************************************************
 747:Generated_Source\PSoC5/InjectionTimer_1.c ****     * Function Name: InjectionTimer_1_WriteControlRegister
 748:Generated_Source\PSoC5/InjectionTimer_1.c ****     ********************************************************************************
ARM GAS  C:\Users\Bruger\AppData\Local\Temp\ccVRsutO.s 			page 62


 749:Generated_Source\PSoC5/InjectionTimer_1.c ****     *
 750:Generated_Source\PSoC5/InjectionTimer_1.c ****     * Summary:
 751:Generated_Source\PSoC5/InjectionTimer_1.c ****     *  Sets the bit field of the control register. This API is available only if
 752:Generated_Source\PSoC5/InjectionTimer_1.c ****     *  the control register is not removed.
 753:Generated_Source\PSoC5/InjectionTimer_1.c ****     *
 754:Generated_Source\PSoC5/InjectionTimer_1.c ****     * Parameters:
 755:Generated_Source\PSoC5/InjectionTimer_1.c ****     *  uint8 control: Control register bit field, The status register bits are:
 756:Generated_Source\PSoC5/InjectionTimer_1.c ****     *  [7]   : PWM Enable
 757:Generated_Source\PSoC5/InjectionTimer_1.c ****     *  [6]   : Reset
 758:Generated_Source\PSoC5/InjectionTimer_1.c ****     *  [5:3] : Compare Mode2
 759:Generated_Source\PSoC5/InjectionTimer_1.c ****     *  [2:0] : Compare Mode2
 760:Generated_Source\PSoC5/InjectionTimer_1.c ****     *
 761:Generated_Source\PSoC5/InjectionTimer_1.c ****     * Return:
 762:Generated_Source\PSoC5/InjectionTimer_1.c ****     *  None
 763:Generated_Source\PSoC5/InjectionTimer_1.c ****     *
 764:Generated_Source\PSoC5/InjectionTimer_1.c ****     *******************************************************************************/
 765:Generated_Source\PSoC5/InjectionTimer_1.c ****     void InjectionTimer_1_WriteControlRegister(uint8 control) 
 766:Generated_Source\PSoC5/InjectionTimer_1.c ****     {
 767:Generated_Source\PSoC5/InjectionTimer_1.c ****         CY_SET_REG8(InjectionTimer_1_CONTROL_PTR, control);
 768:Generated_Source\PSoC5/InjectionTimer_1.c ****     }
 769:Generated_Source\PSoC5/InjectionTimer_1.c **** 
 770:Generated_Source\PSoC5/InjectionTimer_1.c **** #endif /* (InjectionTimer_1_UseControl) */
 771:Generated_Source\PSoC5/InjectionTimer_1.c **** 
 772:Generated_Source\PSoC5/InjectionTimer_1.c **** 
 773:Generated_Source\PSoC5/InjectionTimer_1.c **** #if (!InjectionTimer_1_UsingFixedFunction)
 774:Generated_Source\PSoC5/InjectionTimer_1.c **** 
 775:Generated_Source\PSoC5/InjectionTimer_1.c **** 
 776:Generated_Source\PSoC5/InjectionTimer_1.c ****     /*******************************************************************************
 777:Generated_Source\PSoC5/InjectionTimer_1.c ****     * Function Name: InjectionTimer_1_ReadCapture
 778:Generated_Source\PSoC5/InjectionTimer_1.c ****     ********************************************************************************
 779:Generated_Source\PSoC5/InjectionTimer_1.c ****     *
 780:Generated_Source\PSoC5/InjectionTimer_1.c ****     * Summary:
 781:Generated_Source\PSoC5/InjectionTimer_1.c ****     *  Reads the capture value from the capture FIFO.
 782:Generated_Source\PSoC5/InjectionTimer_1.c ****     *
 783:Generated_Source\PSoC5/InjectionTimer_1.c ****     * Parameters:
 784:Generated_Source\PSoC5/InjectionTimer_1.c ****     *  None
 785:Generated_Source\PSoC5/InjectionTimer_1.c ****     *
 786:Generated_Source\PSoC5/InjectionTimer_1.c ****     * Return:
 787:Generated_Source\PSoC5/InjectionTimer_1.c ****     *  uint8/uint16: The current capture value
 788:Generated_Source\PSoC5/InjectionTimer_1.c ****     *
 789:Generated_Source\PSoC5/InjectionTimer_1.c ****     *******************************************************************************/
 790:Generated_Source\PSoC5/InjectionTimer_1.c ****     uint16 InjectionTimer_1_ReadCapture(void) 
 791:Generated_Source\PSoC5/InjectionTimer_1.c ****     {
 792:Generated_Source\PSoC5/InjectionTimer_1.c ****         return (CY_GET_REG16(InjectionTimer_1_CAPTURE_LSB_PTR));
 744              		.loc 1 792 0
 745 006e 0949     		ldr	r1, .L13+20
 746              	.L7:
 747 0070 0B88     		ldrh	r3, [r1]
 748              	.LBE66:
 749              	.LBE65:
 750              	.LBB67:
 751              	.LBB64:
 713:Generated_Source\PSoC5/InjectionTimer_1.c ****     }
 752              		.loc 1 713 0
 753 0072 1378     		ldrb	r3, [r2]	@ zero_extendqisi2
 754              	.LBE64:
 755              	.LBE67:
ARM GAS  C:\Users\Bruger\AppData\Local\Temp\ccVRsutO.s 			page 63


 455:Generated_Source\PSoC5/InjectionTimer_1.c ****             {
 756              		.loc 1 455 0
 757 0074 DB06     		lsls	r3, r3, #27
 758 0076 FBD4     		bmi	.L7
 759              	.L3:
 760              	.LBE61:
 761              	.LBE60:
 762              	.LBE43:
 763              	.LBE42:
  61:Generated_Source\PSoC5/InjectionTimer_1.c ****     }
 764              		.loc 1 61 0
 765 0078 0123     		movs	r3, #1
 766 007a 2370     		strb	r3, [r4]
 767 007c C4E7     		b	.L2
 768              	.L14:
 769 007e 00BF     		.align	2
 770              	.L13:
 771 0080 00000000 		.word	.LANCHOR0
 772 0084 7B650040 		.word	1073767803
 773 0088 9E640040 		.word	1073767582
 774 008c 9F640040 		.word	1073767583
 775 0090 6F640040 		.word	1073767535
 776 0094 BC680040 		.word	1073768636
 777 0098 1C680040 		.word	1073768476
 778 009c 9C680040 		.word	1073768604
 779              		.cfi_endproc
 780              	.LFE0:
 781              		.size	InjectionTimer_1_Start, .-InjectionTimer_1_Start
 782              		.section	.text.InjectionTimer_1_Init,"ax",%progbits
 783              		.align	2
 784              		.global	InjectionTimer_1_Init
 785              		.thumb
 786              		.thumb_func
 787              		.type	InjectionTimer_1_Init, %function
 788              	InjectionTimer_1_Init:
 789              	.LFB1:
  85:Generated_Source\PSoC5/InjectionTimer_1.c ****     #if (InjectionTimer_1_UsingFixedFunction || InjectionTimer_1_UseControl)
 790              		.loc 1 85 0
 791              		.cfi_startproc
 792              		@ args = 0, pretend = 0, frame = 0
 793              		@ frame_needed = 0, uses_anonymous_args = 0
 794              	.LBB68:
 795              	.LBB69:
 406:Generated_Source\PSoC5/InjectionTimer_1.c ****     }
 796              		.loc 1 406 0
 797 0000 4AF6C872 		movw	r2, #45000
 798              	.LBE69:
 799              	.LBE68:
  85:Generated_Source\PSoC5/InjectionTimer_1.c ****     #if (InjectionTimer_1_UsingFixedFunction || InjectionTimer_1_UseControl)
 800              		.loc 1 85 0
 801 0004 F8B5     		push	{r3, r4, r5, r6, r7, lr}
 802              		.cfi_def_cfa_offset 24
 803              		.cfi_offset 3, -24
 804              		.cfi_offset 4, -20
 805              		.cfi_offset 5, -16
 806              		.cfi_offset 6, -12
 807              		.cfi_offset 7, -8
ARM GAS  C:\Users\Bruger\AppData\Local\Temp\ccVRsutO.s 			page 64


 808              		.cfi_offset 14, -4
 117:Generated_Source\PSoC5/InjectionTimer_1.c ****                 ((uint8)(~InjectionTimer_1_CTRL_CMPMODE1_MASK));
 809              		.loc 1 117 0
 810 0006 1848     		ldr	r0, .L24
 129:Generated_Source\PSoC5/InjectionTimer_1.c ****             InjectionTimer_1_AUX_CONTROLDP1 |= (InjectionTimer_1_AUX_CTRL_FIFO0_CLR);
 811              		.loc 1 129 0
 812 0008 1849     		ldr	r1, .L24+4
 117:Generated_Source\PSoC5/InjectionTimer_1.c ****                 ((uint8)(~InjectionTimer_1_CTRL_CMPMODE1_MASK));
 813              		.loc 1 117 0
 814 000a 0378     		ldrb	r3, [r0]	@ zero_extendqisi2
 815              	.LVL8:
 130:Generated_Source\PSoC5/InjectionTimer_1.c ****         #endif /* (InjectionTimer_1_Resolution == 8) */
 816              		.loc 1 130 0
 817 000c 184C     		ldr	r4, .L24+8
 117:Generated_Source\PSoC5/InjectionTimer_1.c ****                 ((uint8)(~InjectionTimer_1_CTRL_CMPMODE1_MASK));
 818              		.loc 1 117 0
 819 000e 03F0C003 		and	r3, r3, #192
 820              	.LVL9:
 119:Generated_Source\PSoC5/InjectionTimer_1.c ****                                    InjectionTimer_1_DEFAULT_COMPARE1_MODE;
 821              		.loc 1 119 0
 822 0012 43F00903 		orr	r3, r3, #9
 823 0016 0370     		strb	r3, [r0]
 129:Generated_Source\PSoC5/InjectionTimer_1.c ****             InjectionTimer_1_AUX_CONTROLDP1 |= (InjectionTimer_1_AUX_CTRL_FIFO0_CLR);
 824              		.loc 1 129 0
 825 0018 0B78     		ldrb	r3, [r1]	@ zero_extendqisi2
 826              	.LBB72:
 827              	.LBB70:
 406:Generated_Source\PSoC5/InjectionTimer_1.c ****     }
 828              		.loc 1 406 0
 829 001a DFF868E0 		ldr	lr, .L24+28
 830              	.LBE70:
 831              	.LBE72:
 129:Generated_Source\PSoC5/InjectionTimer_1.c ****             InjectionTimer_1_AUX_CONTROLDP1 |= (InjectionTimer_1_AUX_CTRL_FIFO0_CLR);
 832              		.loc 1 129 0
 833 001e 43F00103 		orr	r3, r3, #1
 834 0022 0B70     		strb	r3, [r1]
 130:Generated_Source\PSoC5/InjectionTimer_1.c ****         #endif /* (InjectionTimer_1_Resolution == 8) */
 835              		.loc 1 130 0
 836 0024 2378     		ldrb	r3, [r4]	@ zero_extendqisi2
 837              	.LBB73:
 838              	.LBB74:
 487:Generated_Source\PSoC5/InjectionTimer_1.c ****     #endif /* (InjectionTimer_1_UsingFixedFunction) */
 839              		.loc 1 487 0
 840 0026 134F     		ldr	r7, .L24+12
 841              	.LBE74:
 842              	.LBE73:
 843              	.LBB76:
 844              	.LBB77:
 522:Generated_Source\PSoC5/InjectionTimer_1.c ****         #endif /* (InjectionTimer_1_UsingFixedFunction) */
 845              		.loc 1 522 0
 846 0028 134D     		ldr	r5, .L24+16
 847              	.LBE77:
 848              	.LBE76:
 130:Generated_Source\PSoC5/InjectionTimer_1.c ****         #endif /* (InjectionTimer_1_Resolution == 8) */
 849              		.loc 1 130 0
 850 002a 43F00103 		orr	r3, r3, #1
 851              	.LBB80:
ARM GAS  C:\Users\Bruger\AppData\Local\Temp\ccVRsutO.s 			page 65


 852              	.LBB81:
 686:Generated_Source\PSoC5/InjectionTimer_1.c ****     }
 853              		.loc 1 686 0
 854 002e 0020     		movs	r0, #0
 855              	.LBE81:
 856              	.LBE80:
 857              	.LBB83:
 858              	.LBB78:
 522:Generated_Source\PSoC5/InjectionTimer_1.c ****         #endif /* (InjectionTimer_1_UsingFixedFunction) */
 859              		.loc 1 522 0
 860 0030 4FF4FA46 		mov	r6, #32000
 861              	.LBE78:
 862              	.LBE83:
 130:Generated_Source\PSoC5/InjectionTimer_1.c ****         #endif /* (InjectionTimer_1_Resolution == 8) */
 863              		.loc 1 130 0
 864 0034 2370     		strb	r3, [r4]
 865              	.LVL10:
 866              	.LBB84:
 867              	.LBB71:
 406:Generated_Source\PSoC5/InjectionTimer_1.c ****     }
 868              		.loc 1 406 0
 869 0036 AEF80020 		strh	r2, [lr]	@ movhi
 870              	.LVL11:
 871              	.LBE71:
 872              	.LBE84:
 873              	.LBB85:
 874              	.LBB75:
 487:Generated_Source\PSoC5/InjectionTimer_1.c ****     #endif /* (InjectionTimer_1_UsingFixedFunction) */
 875              		.loc 1 487 0
 876 003a 3A80     		strh	r2, [r7]	@ movhi
 877              	.LVL12:
 878              	.LBE75:
 879              	.LBE85:
 880              	.LBB86:
 881              	.LBB79:
 522:Generated_Source\PSoC5/InjectionTimer_1.c ****         #endif /* (InjectionTimer_1_UsingFixedFunction) */
 882              		.loc 1 522 0
 883 003c 2E80     		strh	r6, [r5]	@ movhi
 884              	.LVL13:
 885              	.LBE79:
 886              	.LBE86:
 887              	.LBB87:
 888              	.LBB82:
 686:Generated_Source\PSoC5/InjectionTimer_1.c ****     }
 889              		.loc 1 686 0
 890 003e 01F80F0C 		strb	r0, [r1, #-15]
 891              	.LBE82:
 892              	.LBE87:
 167:Generated_Source\PSoC5/InjectionTimer_1.c ****             /* Use the interrupt output of the status register for IRQ output */
 893              		.loc 1 167 0
 894 0042 FFF7FEFF 		bl	CyEnterCriticalSection
 895              	.LVL14:
 169:Generated_Source\PSoC5/InjectionTimer_1.c **** 
 896              		.loc 1 169 0
 897 0046 2378     		ldrb	r3, [r4]	@ zero_extendqisi2
 898 0048 43F01003 		orr	r3, r3, #16
 899 004c 2370     		strb	r3, [r4]
ARM GAS  C:\Users\Bruger\AppData\Local\Temp\ccVRsutO.s 			page 66


 172:Generated_Source\PSoC5/InjectionTimer_1.c **** 
 900              		.loc 1 172 0
 901 004e FFF7FEFF 		bl	CyExitCriticalSection
 902              	.LVL15:
 903              	.LBB88:
 904              	.LBB89:
 905              	.LBB90:
 906              	.LBB91:
 713:Generated_Source\PSoC5/InjectionTimer_1.c ****     }
 907              		.loc 1 713 0
 908 0052 0A4A     		ldr	r2, .L24+20
 909 0054 1378     		ldrb	r3, [r2]	@ zero_extendqisi2
 910              	.LBE91:
 911              	.LBE90:
 455:Generated_Source\PSoC5/InjectionTimer_1.c ****             {
 912              		.loc 1 455 0
 913 0056 D906     		lsls	r1, r3, #27
 914 0058 04D5     		bpl	.L15
 915              	.LBB93:
 916              	.LBB94:
 917              		.loc 1 792 0
 918 005a 0949     		ldr	r1, .L24+24
 919              	.L20:
 920 005c 0B88     		ldrh	r3, [r1]
 921              	.LBE94:
 922              	.LBE93:
 923              	.LBB95:
 924              	.LBB92:
 713:Generated_Source\PSoC5/InjectionTimer_1.c ****     }
 925              		.loc 1 713 0
 926 005e 1378     		ldrb	r3, [r2]	@ zero_extendqisi2
 927              	.LBE92:
 928              	.LBE95:
 455:Generated_Source\PSoC5/InjectionTimer_1.c ****             {
 929              		.loc 1 455 0
 930 0060 DB06     		lsls	r3, r3, #27
 931 0062 FBD4     		bmi	.L20
 932              	.L15:
 933 0064 F8BD     		pop	{r3, r4, r5, r6, r7, pc}
 934              	.L25:
 935 0066 00BF     		.align	2
 936              	.L24:
 937 0068 7B650040 		.word	1073767803
 938 006c 9E640040 		.word	1073767582
 939 0070 9F640040 		.word	1073767583
 940 0074 9C680040 		.word	1073768604
 941 0078 5C680040 		.word	1073768540
 942 007c 6F640040 		.word	1073767535
 943 0080 BC680040 		.word	1073768636
 944 0084 1C680040 		.word	1073768476
 945              	.LBE89:
 946              	.LBE88:
 947              		.cfi_endproc
 948              	.LFE1:
 949              		.size	InjectionTimer_1_Init, .-InjectionTimer_1_Init
 950              		.section	.text.InjectionTimer_1_Enable,"ax",%progbits
 951              		.align	2
ARM GAS  C:\Users\Bruger\AppData\Local\Temp\ccVRsutO.s 			page 67


 952              		.global	InjectionTimer_1_Enable
 953              		.thumb
 954              		.thumb_func
 955              		.type	InjectionTimer_1_Enable, %function
 956              	InjectionTimer_1_Enable:
 957              	.LFB2:
 200:Generated_Source\PSoC5/InjectionTimer_1.c ****     /* Globally Enable the Fixed Function Block chosen */
 958              		.loc 1 200 0
 959              		.cfi_startproc
 960              		@ args = 0, pretend = 0, frame = 0
 961              		@ frame_needed = 0, uses_anonymous_args = 0
 962              		@ link register save eliminated.
 209:Generated_Source\PSoC5/InjectionTimer_1.c ****     #endif /* (InjectionTimer_1_UseControl || InjectionTimer_1_UsingFixedFunction) */
 963              		.loc 1 209 0
 964 0000 024A     		ldr	r2, .L27
 965 0002 1378     		ldrb	r3, [r2]	@ zero_extendqisi2
 966 0004 43F08003 		orr	r3, r3, #128
 967 0008 1370     		strb	r3, [r2]
 968 000a 7047     		bx	lr
 969              	.L28:
 970              		.align	2
 971              	.L27:
 972 000c 7B650040 		.word	1073767803
 973              		.cfi_endproc
 974              	.LFE2:
 975              		.size	InjectionTimer_1_Enable, .-InjectionTimer_1_Enable
 976              		.section	.text.InjectionTimer_1_Stop,"ax",%progbits
 977              		.align	2
 978              		.global	InjectionTimer_1_Stop
 979              		.thumb
 980              		.thumb_func
 981              		.type	InjectionTimer_1_Stop, %function
 982              	InjectionTimer_1_Stop:
 983              	.LFB3:
 234:Generated_Source\PSoC5/InjectionTimer_1.c ****     #if (InjectionTimer_1_UseControl || InjectionTimer_1_UsingFixedFunction)
 984              		.loc 1 234 0
 985              		.cfi_startproc
 986              		@ args = 0, pretend = 0, frame = 0
 987              		@ frame_needed = 0, uses_anonymous_args = 0
 988              		@ link register save eliminated.
 236:Generated_Source\PSoC5/InjectionTimer_1.c ****     #endif /* (InjectionTimer_1_UseControl || InjectionTimer_1_UsingFixedFunction) */
 989              		.loc 1 236 0
 990 0000 024A     		ldr	r2, .L30
 991 0002 1378     		ldrb	r3, [r2]	@ zero_extendqisi2
 992 0004 03F07F03 		and	r3, r3, #127
 993 0008 1370     		strb	r3, [r2]
 994 000a 7047     		bx	lr
 995              	.L31:
 996              		.align	2
 997              	.L30:
 998 000c 7B650040 		.word	1073767803
 999              		.cfi_endproc
 1000              	.LFE3:
 1001              		.size	InjectionTimer_1_Stop, .-InjectionTimer_1_Stop
 1002              		.section	.text.InjectionTimer_1_WriteCounter,"ax",%progbits
 1003              		.align	2
 1004              		.global	InjectionTimer_1_WriteCounter
ARM GAS  C:\Users\Bruger\AppData\Local\Temp\ccVRsutO.s 			page 68


 1005              		.thumb
 1006              		.thumb_func
 1007              		.type	InjectionTimer_1_WriteCounter, %function
 1008              	InjectionTimer_1_WriteCounter:
 1009              	.LFB4:
 405:Generated_Source\PSoC5/InjectionTimer_1.c ****         CY_SET_REG16(InjectionTimer_1_COUNTER_LSB_PTR, counter);
 1010              		.loc 1 405 0
 1011              		.cfi_startproc
 1012              		@ args = 0, pretend = 0, frame = 0
 1013              		@ frame_needed = 0, uses_anonymous_args = 0
 1014              		@ link register save eliminated.
 1015              	.LVL16:
 406:Generated_Source\PSoC5/InjectionTimer_1.c ****     }
 1016              		.loc 1 406 0
 1017 0000 014B     		ldr	r3, .L33
 1018 0002 1880     		strh	r0, [r3]	@ movhi
 1019 0004 7047     		bx	lr
 1020              	.L34:
 1021 0006 00BF     		.align	2
 1022              	.L33:
 1023 0008 1C680040 		.word	1073768476
 1024              		.cfi_endproc
 1025              	.LFE4:
 1026              		.size	InjectionTimer_1_WriteCounter, .-InjectionTimer_1_WriteCounter
 1027              		.section	.text.InjectionTimer_1_ReadCounter,"ax",%progbits
 1028              		.align	2
 1029              		.global	InjectionTimer_1_ReadCounter
 1030              		.thumb
 1031              		.thumb_func
 1032              		.type	InjectionTimer_1_ReadCounter, %function
 1033              	InjectionTimer_1_ReadCounter:
 1034              	.LFB5:
 426:Generated_Source\PSoC5/InjectionTimer_1.c ****         /* Force capture by reading Accumulator */
 1035              		.loc 1 426 0
 1036              		.cfi_startproc
 1037              		@ args = 0, pretend = 0, frame = 0
 1038              		@ frame_needed = 0, uses_anonymous_args = 0
 1039              		@ link register save eliminated.
 433:Generated_Source\PSoC5/InjectionTimer_1.c ****     }
 1040              		.loc 1 433 0
 1041 0000 024B     		ldr	r3, .L36
 430:Generated_Source\PSoC5/InjectionTimer_1.c **** 
 1042              		.loc 1 430 0
 1043 0002 034A     		ldr	r2, .L36+4
 1044 0004 1278     		ldrb	r2, [r2]	@ zero_extendqisi2
 433:Generated_Source\PSoC5/InjectionTimer_1.c ****     }
 1045              		.loc 1 433 0
 1046 0006 1888     		ldrh	r0, [r3]
 434:Generated_Source\PSoC5/InjectionTimer_1.c **** 
 1047              		.loc 1 434 0
 1048 0008 80B2     		uxth	r0, r0
 1049 000a 7047     		bx	lr
 1050              	.L37:
 1051              		.align	2
 1052              	.L36:
 1053 000c BC680040 		.word	1073768636
 1054 0010 1E640040 		.word	1073767454
ARM GAS  C:\Users\Bruger\AppData\Local\Temp\ccVRsutO.s 			page 69


 1055              		.cfi_endproc
 1056              	.LFE5:
 1057              		.size	InjectionTimer_1_ReadCounter, .-InjectionTimer_1_ReadCounter
 1058              		.section	.text.InjectionTimer_1_ClearFIFO,"ax",%progbits
 1059              		.align	2
 1060              		.global	InjectionTimer_1_ClearFIFO
 1061              		.thumb
 1062              		.thumb_func
 1063              		.type	InjectionTimer_1_ClearFIFO, %function
 1064              	InjectionTimer_1_ClearFIFO:
 1065              	.LFB6:
 454:Generated_Source\PSoC5/InjectionTimer_1.c ****             while(0u != (InjectionTimer_1_ReadStatusRegister() & InjectionTimer_1_STATUS_FIFONEMPTY
 1066              		.loc 1 454 0
 1067              		.cfi_startproc
 1068              		@ args = 0, pretend = 0, frame = 0
 1069              		@ frame_needed = 0, uses_anonymous_args = 0
 1070              		@ link register save eliminated.
 1071              	.LBB96:
 1072              	.LBB97:
 713:Generated_Source\PSoC5/InjectionTimer_1.c ****     }
 1073              		.loc 1 713 0
 1074 0000 044A     		ldr	r2, .L46
 1075 0002 1378     		ldrb	r3, [r2]	@ zero_extendqisi2
 1076              	.LBE97:
 1077              	.LBE96:
 455:Generated_Source\PSoC5/InjectionTimer_1.c ****             {
 1078              		.loc 1 455 0
 1079 0004 D906     		lsls	r1, r3, #27
 1080 0006 04D5     		bpl	.L38
 1081              	.LBB99:
 1082              	.LBB100:
 1083              		.loc 1 792 0
 1084 0008 0349     		ldr	r1, .L46+4
 1085              	.L43:
 1086 000a 0B88     		ldrh	r3, [r1]
 1087              	.LBE100:
 1088              	.LBE99:
 1089              	.LBB101:
 1090              	.LBB98:
 713:Generated_Source\PSoC5/InjectionTimer_1.c ****     }
 1091              		.loc 1 713 0
 1092 000c 1378     		ldrb	r3, [r2]	@ zero_extendqisi2
 1093              	.LBE98:
 1094              	.LBE101:
 455:Generated_Source\PSoC5/InjectionTimer_1.c ****             {
 1095              		.loc 1 455 0
 1096 000e DB06     		lsls	r3, r3, #27
 1097 0010 FBD4     		bmi	.L43
 1098              	.L38:
 1099 0012 7047     		bx	lr
 1100              	.L47:
 1101              		.align	2
 1102              	.L46:
 1103 0014 6F640040 		.word	1073767535
 1104 0018 BC680040 		.word	1073768636
 1105              		.cfi_endproc
 1106              	.LFE6:
ARM GAS  C:\Users\Bruger\AppData\Local\Temp\ccVRsutO.s 			page 70


 1107              		.size	InjectionTimer_1_ClearFIFO, .-InjectionTimer_1_ClearFIFO
 1108              		.section	.text.InjectionTimer_1_WritePeriod,"ax",%progbits
 1109              		.align	2
 1110              		.global	InjectionTimer_1_WritePeriod
 1111              		.thumb
 1112              		.thumb_func
 1113              		.type	InjectionTimer_1_WritePeriod, %function
 1114              	InjectionTimer_1_WritePeriod:
 1115              	.LFB7:
 483:Generated_Source\PSoC5/InjectionTimer_1.c ****     #if(InjectionTimer_1_UsingFixedFunction)
 1116              		.loc 1 483 0
 1117              		.cfi_startproc
 1118              		@ args = 0, pretend = 0, frame = 0
 1119              		@ frame_needed = 0, uses_anonymous_args = 0
 1120              		@ link register save eliminated.
 1121              	.LVL17:
 487:Generated_Source\PSoC5/InjectionTimer_1.c ****     #endif /* (InjectionTimer_1_UsingFixedFunction) */
 1122              		.loc 1 487 0
 1123 0000 014B     		ldr	r3, .L49
 1124 0002 1880     		strh	r0, [r3]	@ movhi
 1125 0004 7047     		bx	lr
 1126              	.L50:
 1127 0006 00BF     		.align	2
 1128              	.L49:
 1129 0008 9C680040 		.word	1073768604
 1130              		.cfi_endproc
 1131              	.LFE7:
 1132              		.size	InjectionTimer_1_WritePeriod, .-InjectionTimer_1_WritePeriod
 1133              		.section	.text.InjectionTimer_1_WriteCompare,"ax",%progbits
 1134              		.align	2
 1135              		.global	InjectionTimer_1_WriteCompare
 1136              		.thumb
 1137              		.thumb_func
 1138              		.type	InjectionTimer_1_WriteCompare, %function
 1139              	InjectionTimer_1_WriteCompare:
 1140              	.LFB8:
 518:Generated_Source\PSoC5/InjectionTimer_1.c ****         #if(InjectionTimer_1_UsingFixedFunction)
 1141              		.loc 1 518 0
 1142              		.cfi_startproc
 1143              		@ args = 0, pretend = 0, frame = 0
 1144              		@ frame_needed = 0, uses_anonymous_args = 0
 1145              		@ link register save eliminated.
 1146              	.LVL18:
 522:Generated_Source\PSoC5/InjectionTimer_1.c ****         #endif /* (InjectionTimer_1_UsingFixedFunction) */
 1147              		.loc 1 522 0
 1148 0000 014B     		ldr	r3, .L52
 1149 0002 1880     		strh	r0, [r3]	@ movhi
 1150 0004 7047     		bx	lr
 1151              	.L53:
 1152 0006 00BF     		.align	2
 1153              	.L52:
 1154 0008 5C680040 		.word	1073768540
 1155              		.cfi_endproc
 1156              	.LFE8:
 1157              		.size	InjectionTimer_1_WriteCompare, .-InjectionTimer_1_WriteCompare
 1158              		.section	.text.InjectionTimer_1_SetInterruptMode,"ax",%progbits
 1159              		.align	2
ARM GAS  C:\Users\Bruger\AppData\Local\Temp\ccVRsutO.s 			page 71


 1160              		.global	InjectionTimer_1_SetInterruptMode
 1161              		.thumb
 1162              		.thumb_func
 1163              		.type	InjectionTimer_1_SetInterruptMode, %function
 1164              	InjectionTimer_1_SetInterruptMode:
 1165              	.LFB9:
 685:Generated_Source\PSoC5/InjectionTimer_1.c ****         CY_SET_REG8(InjectionTimer_1_STATUS_MASK_PTR, interruptMode);
 1166              		.loc 1 685 0
 1167              		.cfi_startproc
 1168              		@ args = 0, pretend = 0, frame = 0
 1169              		@ frame_needed = 0, uses_anonymous_args = 0
 1170              		@ link register save eliminated.
 1171              	.LVL19:
 686:Generated_Source\PSoC5/InjectionTimer_1.c ****     }
 1172              		.loc 1 686 0
 1173 0000 014B     		ldr	r3, .L55
 1174 0002 1870     		strb	r0, [r3]
 1175 0004 7047     		bx	lr
 1176              	.L56:
 1177 0006 00BF     		.align	2
 1178              	.L55:
 1179 0008 8F640040 		.word	1073767567
 1180              		.cfi_endproc
 1181              	.LFE9:
 1182              		.size	InjectionTimer_1_SetInterruptMode, .-InjectionTimer_1_SetInterruptMode
 1183              		.section	.text.InjectionTimer_1_ReadStatusRegister,"ax",%progbits
 1184              		.align	2
 1185              		.global	InjectionTimer_1_ReadStatusRegister
 1186              		.thumb
 1187              		.thumb_func
 1188              		.type	InjectionTimer_1_ReadStatusRegister, %function
 1189              	InjectionTimer_1_ReadStatusRegister:
 1190              	.LFB10:
 712:Generated_Source\PSoC5/InjectionTimer_1.c ****         return (CY_GET_REG8(InjectionTimer_1_STATUS_PTR));
 1191              		.loc 1 712 0
 1192              		.cfi_startproc
 1193              		@ args = 0, pretend = 0, frame = 0
 1194              		@ frame_needed = 0, uses_anonymous_args = 0
 1195              		@ link register save eliminated.
 713:Generated_Source\PSoC5/InjectionTimer_1.c ****     }
 1196              		.loc 1 713 0
 1197 0000 014B     		ldr	r3, .L58
 1198 0002 1878     		ldrb	r0, [r3]	@ zero_extendqisi2
 714:Generated_Source\PSoC5/InjectionTimer_1.c **** 
 1199              		.loc 1 714 0
 1200 0004 7047     		bx	lr
 1201              	.L59:
 1202 0006 00BF     		.align	2
 1203              	.L58:
 1204 0008 6F640040 		.word	1073767535
 1205              		.cfi_endproc
 1206              	.LFE10:
 1207              		.size	InjectionTimer_1_ReadStatusRegister, .-InjectionTimer_1_ReadStatusRegister
 1208              		.section	.text.InjectionTimer_1_ReadControlRegister,"ax",%progbits
 1209              		.align	2
 1210              		.global	InjectionTimer_1_ReadControlRegister
 1211              		.thumb
ARM GAS  C:\Users\Bruger\AppData\Local\Temp\ccVRsutO.s 			page 72


 1212              		.thumb_func
 1213              		.type	InjectionTimer_1_ReadControlRegister, %function
 1214              	InjectionTimer_1_ReadControlRegister:
 1215              	.LFB11:
 738:Generated_Source\PSoC5/InjectionTimer_1.c ****         uint8 result;
 1216              		.loc 1 738 0
 1217              		.cfi_startproc
 1218              		@ args = 0, pretend = 0, frame = 0
 1219              		@ frame_needed = 0, uses_anonymous_args = 0
 1220              		@ link register save eliminated.
 741:Generated_Source\PSoC5/InjectionTimer_1.c ****         return (result);
 1221              		.loc 1 741 0
 1222 0000 014B     		ldr	r3, .L61
 1223 0002 1878     		ldrb	r0, [r3]	@ zero_extendqisi2
 1224              	.LVL20:
 743:Generated_Source\PSoC5/InjectionTimer_1.c **** 
 1225              		.loc 1 743 0
 1226 0004 7047     		bx	lr
 1227              	.L62:
 1228 0006 00BF     		.align	2
 1229              	.L61:
 1230 0008 7B650040 		.word	1073767803
 1231              		.cfi_endproc
 1232              	.LFE11:
 1233              		.size	InjectionTimer_1_ReadControlRegister, .-InjectionTimer_1_ReadControlRegister
 1234              		.section	.text.InjectionTimer_1_WriteControlRegister,"ax",%progbits
 1235              		.align	2
 1236              		.global	InjectionTimer_1_WriteControlRegister
 1237              		.thumb
 1238              		.thumb_func
 1239              		.type	InjectionTimer_1_WriteControlRegister, %function
 1240              	InjectionTimer_1_WriteControlRegister:
 1241              	.LFB12:
 766:Generated_Source\PSoC5/InjectionTimer_1.c ****         CY_SET_REG8(InjectionTimer_1_CONTROL_PTR, control);
 1242              		.loc 1 766 0
 1243              		.cfi_startproc
 1244              		@ args = 0, pretend = 0, frame = 0
 1245              		@ frame_needed = 0, uses_anonymous_args = 0
 1246              		@ link register save eliminated.
 1247              	.LVL21:
 767:Generated_Source\PSoC5/InjectionTimer_1.c ****     }
 1248              		.loc 1 767 0
 1249 0000 014B     		ldr	r3, .L64
 1250 0002 1870     		strb	r0, [r3]
 1251 0004 7047     		bx	lr
 1252              	.L65:
 1253 0006 00BF     		.align	2
 1254              	.L64:
 1255 0008 7B650040 		.word	1073767803
 1256              		.cfi_endproc
 1257              	.LFE12:
 1258              		.size	InjectionTimer_1_WriteControlRegister, .-InjectionTimer_1_WriteControlRegister
 1259              		.section	.text.InjectionTimer_1_ReadCapture,"ax",%progbits
 1260              		.align	2
 1261              		.global	InjectionTimer_1_ReadCapture
 1262              		.thumb
 1263              		.thumb_func
ARM GAS  C:\Users\Bruger\AppData\Local\Temp\ccVRsutO.s 			page 73


 1264              		.type	InjectionTimer_1_ReadCapture, %function
 1265              	InjectionTimer_1_ReadCapture:
 1266              	.LFB13:
 791:Generated_Source\PSoC5/InjectionTimer_1.c ****         return (CY_GET_REG16(InjectionTimer_1_CAPTURE_LSB_PTR));
 1267              		.loc 1 791 0
 1268              		.cfi_startproc
 1269              		@ args = 0, pretend = 0, frame = 0
 1270              		@ frame_needed = 0, uses_anonymous_args = 0
 1271              		@ link register save eliminated.
 1272              		.loc 1 792 0
 1273 0000 014B     		ldr	r3, .L67
 1274 0002 1888     		ldrh	r0, [r3]
 793:Generated_Source\PSoC5/InjectionTimer_1.c ****     }
 1275              		.loc 1 793 0
 1276 0004 80B2     		uxth	r0, r0
 1277 0006 7047     		bx	lr
 1278              	.L68:
 1279              		.align	2
 1280              	.L67:
 1281 0008 BC680040 		.word	1073768636
 1282              		.cfi_endproc
 1283              	.LFE13:
 1284              		.size	InjectionTimer_1_ReadCapture, .-InjectionTimer_1_ReadCapture
 1285              		.section	.text.InjectionTimer_1_ReadCompare,"ax",%progbits
 1286              		.align	2
 1287              		.global	InjectionTimer_1_ReadCompare
 1288              		.thumb
 1289              		.thumb_func
 1290              		.type	InjectionTimer_1_ReadCompare, %function
 1291              	InjectionTimer_1_ReadCompare:
 1292              	.LFB14:
 794:Generated_Source\PSoC5/InjectionTimer_1.c **** 
 795:Generated_Source\PSoC5/InjectionTimer_1.c **** #endif /* (!InjectionTimer_1_UsingFixedFunction) */
 796:Generated_Source\PSoC5/InjectionTimer_1.c **** 
 797:Generated_Source\PSoC5/InjectionTimer_1.c **** 
 798:Generated_Source\PSoC5/InjectionTimer_1.c **** #if (InjectionTimer_1_UseOneCompareMode)
 799:Generated_Source\PSoC5/InjectionTimer_1.c **** 
 800:Generated_Source\PSoC5/InjectionTimer_1.c **** 
 801:Generated_Source\PSoC5/InjectionTimer_1.c ****     /*******************************************************************************
 802:Generated_Source\PSoC5/InjectionTimer_1.c ****     * Function Name: InjectionTimer_1_ReadCompare
 803:Generated_Source\PSoC5/InjectionTimer_1.c ****     ********************************************************************************
 804:Generated_Source\PSoC5/InjectionTimer_1.c ****     *
 805:Generated_Source\PSoC5/InjectionTimer_1.c ****     * Summary:
 806:Generated_Source\PSoC5/InjectionTimer_1.c ****     *  Reads the compare value for the compare output when the PWM Mode parameter is
 807:Generated_Source\PSoC5/InjectionTimer_1.c ****     *  set to Dither mode, Center Aligned mode, or One Output mode.
 808:Generated_Source\PSoC5/InjectionTimer_1.c ****     *
 809:Generated_Source\PSoC5/InjectionTimer_1.c ****     * Parameters:
 810:Generated_Source\PSoC5/InjectionTimer_1.c ****     *  None
 811:Generated_Source\PSoC5/InjectionTimer_1.c ****     *
 812:Generated_Source\PSoC5/InjectionTimer_1.c ****     * Return:
 813:Generated_Source\PSoC5/InjectionTimer_1.c ****     *  uint8/uint16: Current compare value
 814:Generated_Source\PSoC5/InjectionTimer_1.c ****     *
 815:Generated_Source\PSoC5/InjectionTimer_1.c ****     *******************************************************************************/
 816:Generated_Source\PSoC5/InjectionTimer_1.c ****     uint16 InjectionTimer_1_ReadCompare(void) 
 817:Generated_Source\PSoC5/InjectionTimer_1.c ****     {
 1293              		.loc 1 817 0
 1294              		.cfi_startproc
ARM GAS  C:\Users\Bruger\AppData\Local\Temp\ccVRsutO.s 			page 74


 1295              		@ args = 0, pretend = 0, frame = 0
 1296              		@ frame_needed = 0, uses_anonymous_args = 0
 1297              		@ link register save eliminated.
 818:Generated_Source\PSoC5/InjectionTimer_1.c ****         #if(InjectionTimer_1_UsingFixedFunction)
 819:Generated_Source\PSoC5/InjectionTimer_1.c ****             return ((uint16)CY_GET_REG16(InjectionTimer_1_COMPARE1_LSB_PTR));
 820:Generated_Source\PSoC5/InjectionTimer_1.c ****         #else
 821:Generated_Source\PSoC5/InjectionTimer_1.c ****             return (CY_GET_REG16(InjectionTimer_1_COMPARE1_LSB_PTR));
 1298              		.loc 1 821 0
 1299 0000 014B     		ldr	r3, .L70
 1300 0002 1888     		ldrh	r0, [r3]
 822:Generated_Source\PSoC5/InjectionTimer_1.c ****         #endif /* (InjectionTimer_1_UsingFixedFunction) */
 823:Generated_Source\PSoC5/InjectionTimer_1.c ****     }
 1301              		.loc 1 823 0
 1302 0004 80B2     		uxth	r0, r0
 1303 0006 7047     		bx	lr
 1304              	.L71:
 1305              		.align	2
 1306              	.L70:
 1307 0008 5C680040 		.word	1073768540
 1308              		.cfi_endproc
 1309              	.LFE14:
 1310              		.size	InjectionTimer_1_ReadCompare, .-InjectionTimer_1_ReadCompare
 1311              		.section	.text.InjectionTimer_1_ReadPeriod,"ax",%progbits
 1312              		.align	2
 1313              		.global	InjectionTimer_1_ReadPeriod
 1314              		.thumb
 1315              		.thumb_func
 1316              		.type	InjectionTimer_1_ReadPeriod, %function
 1317              	InjectionTimer_1_ReadPeriod:
 1318              	.LFB15:
 824:Generated_Source\PSoC5/InjectionTimer_1.c **** 
 825:Generated_Source\PSoC5/InjectionTimer_1.c **** #else
 826:Generated_Source\PSoC5/InjectionTimer_1.c **** 
 827:Generated_Source\PSoC5/InjectionTimer_1.c **** 
 828:Generated_Source\PSoC5/InjectionTimer_1.c ****     /*******************************************************************************
 829:Generated_Source\PSoC5/InjectionTimer_1.c ****     * Function Name: InjectionTimer_1_ReadCompare1
 830:Generated_Source\PSoC5/InjectionTimer_1.c ****     ********************************************************************************
 831:Generated_Source\PSoC5/InjectionTimer_1.c ****     *
 832:Generated_Source\PSoC5/InjectionTimer_1.c ****     * Summary:
 833:Generated_Source\PSoC5/InjectionTimer_1.c ****     *  Reads the compare value for the compare1 output.
 834:Generated_Source\PSoC5/InjectionTimer_1.c ****     *
 835:Generated_Source\PSoC5/InjectionTimer_1.c ****     * Parameters:
 836:Generated_Source\PSoC5/InjectionTimer_1.c ****     *  None
 837:Generated_Source\PSoC5/InjectionTimer_1.c ****     *
 838:Generated_Source\PSoC5/InjectionTimer_1.c ****     * Return:
 839:Generated_Source\PSoC5/InjectionTimer_1.c ****     *  uint8/uint16: Current compare value.
 840:Generated_Source\PSoC5/InjectionTimer_1.c ****     *
 841:Generated_Source\PSoC5/InjectionTimer_1.c ****     *******************************************************************************/
 842:Generated_Source\PSoC5/InjectionTimer_1.c ****     uint16 InjectionTimer_1_ReadCompare1(void) 
 843:Generated_Source\PSoC5/InjectionTimer_1.c ****     {
 844:Generated_Source\PSoC5/InjectionTimer_1.c ****         return (CY_GET_REG16(InjectionTimer_1_COMPARE1_LSB_PTR));
 845:Generated_Source\PSoC5/InjectionTimer_1.c ****     }
 846:Generated_Source\PSoC5/InjectionTimer_1.c **** 
 847:Generated_Source\PSoC5/InjectionTimer_1.c **** 
 848:Generated_Source\PSoC5/InjectionTimer_1.c ****     /*******************************************************************************
 849:Generated_Source\PSoC5/InjectionTimer_1.c ****     * Function Name: InjectionTimer_1_ReadCompare2
 850:Generated_Source\PSoC5/InjectionTimer_1.c ****     ********************************************************************************
ARM GAS  C:\Users\Bruger\AppData\Local\Temp\ccVRsutO.s 			page 75


 851:Generated_Source\PSoC5/InjectionTimer_1.c ****     *
 852:Generated_Source\PSoC5/InjectionTimer_1.c ****     * Summary:
 853:Generated_Source\PSoC5/InjectionTimer_1.c ****     *  Reads the compare value for the compare2 output.
 854:Generated_Source\PSoC5/InjectionTimer_1.c ****     *
 855:Generated_Source\PSoC5/InjectionTimer_1.c ****     * Parameters:
 856:Generated_Source\PSoC5/InjectionTimer_1.c ****     *  None
 857:Generated_Source\PSoC5/InjectionTimer_1.c ****     *
 858:Generated_Source\PSoC5/InjectionTimer_1.c ****     * Return:
 859:Generated_Source\PSoC5/InjectionTimer_1.c ****     *  uint8/uint16: Current compare value.
 860:Generated_Source\PSoC5/InjectionTimer_1.c ****     *
 861:Generated_Source\PSoC5/InjectionTimer_1.c ****     *******************************************************************************/
 862:Generated_Source\PSoC5/InjectionTimer_1.c ****     uint16 InjectionTimer_1_ReadCompare2(void) 
 863:Generated_Source\PSoC5/InjectionTimer_1.c ****     {
 864:Generated_Source\PSoC5/InjectionTimer_1.c ****         return (CY_GET_REG16(InjectionTimer_1_COMPARE2_LSB_PTR));
 865:Generated_Source\PSoC5/InjectionTimer_1.c ****     }
 866:Generated_Source\PSoC5/InjectionTimer_1.c **** 
 867:Generated_Source\PSoC5/InjectionTimer_1.c **** #endif /* (InjectionTimer_1_UseOneCompareMode) */
 868:Generated_Source\PSoC5/InjectionTimer_1.c **** 
 869:Generated_Source\PSoC5/InjectionTimer_1.c **** 
 870:Generated_Source\PSoC5/InjectionTimer_1.c **** /*******************************************************************************
 871:Generated_Source\PSoC5/InjectionTimer_1.c **** * Function Name: InjectionTimer_1_ReadPeriod
 872:Generated_Source\PSoC5/InjectionTimer_1.c **** ********************************************************************************
 873:Generated_Source\PSoC5/InjectionTimer_1.c **** *
 874:Generated_Source\PSoC5/InjectionTimer_1.c **** * Summary:
 875:Generated_Source\PSoC5/InjectionTimer_1.c **** *  Reads the period value used by the PWM hardware.
 876:Generated_Source\PSoC5/InjectionTimer_1.c **** *
 877:Generated_Source\PSoC5/InjectionTimer_1.c **** * Parameters:
 878:Generated_Source\PSoC5/InjectionTimer_1.c **** *  None
 879:Generated_Source\PSoC5/InjectionTimer_1.c **** *
 880:Generated_Source\PSoC5/InjectionTimer_1.c **** * Return:
 881:Generated_Source\PSoC5/InjectionTimer_1.c **** *  uint8/16: Period value
 882:Generated_Source\PSoC5/InjectionTimer_1.c **** *
 883:Generated_Source\PSoC5/InjectionTimer_1.c **** *******************************************************************************/
 884:Generated_Source\PSoC5/InjectionTimer_1.c **** uint16 InjectionTimer_1_ReadPeriod(void) 
 885:Generated_Source\PSoC5/InjectionTimer_1.c **** {
 1319              		.loc 1 885 0
 1320              		.cfi_startproc
 1321              		@ args = 0, pretend = 0, frame = 0
 1322              		@ frame_needed = 0, uses_anonymous_args = 0
 1323              		@ link register save eliminated.
 886:Generated_Source\PSoC5/InjectionTimer_1.c ****     #if(InjectionTimer_1_UsingFixedFunction)
 887:Generated_Source\PSoC5/InjectionTimer_1.c ****         return ((uint16)CY_GET_REG16(InjectionTimer_1_PERIOD_LSB_PTR));
 888:Generated_Source\PSoC5/InjectionTimer_1.c ****     #else
 889:Generated_Source\PSoC5/InjectionTimer_1.c ****         return (CY_GET_REG16(InjectionTimer_1_PERIOD_LSB_PTR));
 1324              		.loc 1 889 0
 1325 0000 014B     		ldr	r3, .L73
 1326 0002 1888     		ldrh	r0, [r3]
 890:Generated_Source\PSoC5/InjectionTimer_1.c ****     #endif /* (InjectionTimer_1_UsingFixedFunction) */
 891:Generated_Source\PSoC5/InjectionTimer_1.c **** }
 1327              		.loc 1 891 0
 1328 0004 80B2     		uxth	r0, r0
 1329 0006 7047     		bx	lr
 1330              	.L74:
 1331              		.align	2
 1332              	.L73:
 1333 0008 9C680040 		.word	1073768604
 1334              		.cfi_endproc
ARM GAS  C:\Users\Bruger\AppData\Local\Temp\ccVRsutO.s 			page 76


 1335              	.LFE15:
 1336              		.size	InjectionTimer_1_ReadPeriod, .-InjectionTimer_1_ReadPeriod
 1337              		.global	InjectionTimer_1_initVar
 1338              		.bss
 1339              		.set	.LANCHOR0,. + 0
 1340              		.type	InjectionTimer_1_initVar, %object
 1341              		.size	InjectionTimer_1_initVar, 1
 1342              	InjectionTimer_1_initVar:
 1343 0000 00       		.space	1
 1344              		.text
 1345              	.Letext0:
 1346              		.file 2 "Generated_Source\\PSoC5\\cytypes.h"
 1347              		.file 3 "Generated_Source\\PSoC5\\CyLib.h"