ARM GAS  C:\Users\Bruger\AppData\Local\Temp\cc0EqYTp.s 			page 1


   1              		.syntax unified
   2              		.cpu cortex-m3
   3              		.fpu softvfp
   4              		.eabi_attribute 20, 1
   5              		.eabi_attribute 21, 1
   6              		.eabi_attribute 23, 3
   7              		.eabi_attribute 24, 1
   8              		.eabi_attribute 25, 1
   9              		.eabi_attribute 26, 1
  10              		.eabi_attribute 30, 2
  11              		.eabi_attribute 34, 1
  12              		.eabi_attribute 18, 4
  13              		.thumb
  14              		.file	"Injection_1_PM.c"
  15              		.text
  16              	.Ltext0:
  17              		.section	.gnu.lto_.profile.71da2616,"",%progbits
  18 0000 789C6366 		.ascii	"x\234cf```e\200\000F\206\026F5\000\002>\000\265"
  18      60606065 
  18      80004686 
  18      16463500 
  18      023E00B5 
  19              		.text
  20              		.section	.gnu.lto_.jmpfuncs.71da2616,"",%progbits
  21 0000 789C6366 		.ascii	"x\234cf\300\016\344\2404\013\204bb``\204!f\2048\000"
  21      C00EE4A0 
  21      340B8462 
  21      62606084 
  21      21668438 
  22 0015 067E0032 		.ascii	"\006~\0002"
  23              		.text
  24              		.section	.gnu.lto_.inline.71da2616,"",%progbits
  25 0000 789C6366 		.ascii	"x\234cf\300\016\332\2404\013\003\003\237\006#\003\023"
  25      C00EDAA0 
  25      340B0303 
  25      9F062303 
  25      13
  26 0011 D7043F06 		.ascii	"\327\004?\006\266\005\362L 1&nT\002\273\012\306\011"
  26      B605F24C 
  26      2031266E 
  26      5402BB0A 
  26      C609
  27 0023 7EA81433 		.ascii	"~\250\0243\003\227\024H\335>;\270:F.\030\301\302\300"
  27      03971448 
  27      DD3E3BB8 
  27      3A462E18 
  27      C1C2C0
  28 0036 210C9464 		.ascii	"!\014\224d\373\240\207E\222\001\000C0\013{"
  28      FBA08745 
  28      92010043 
  28      300B7B
  29              		.text
  30              		.section	.gnu.lto_.pureconst.71da2616,"",%progbits
  31 0000 789C6366 		.ascii	"x\234cf``\340d\200\000\026\006)&)f)\026\011\000\002"
  31      6060E064 
  31      80001606 
  31      29262966 
ARM GAS  C:\Users\Bruger\AppData\Local\Temp\cc0EqYTp.s 			page 2


  31      29160900 
  32 0015 CF0080   		.ascii	"\317\000\200"
  33              		.text
  34              		.section	.gnu.lto_Injection_1_SaveConfig.71da2616,"",%progbits
  35 0000 789C9D92 		.ascii	"x\234\235\222Kh\023Q\024\206\317\177\247\035G\307\200"
  35      4B681351 
  35      1486CF7F 
  35      A71D47C7 
  35      80
  36 0011 B8CCBEB4 		.ascii	"\270\314\276\264\010\021\\\304\215\013\027\202\342B"
  36      08115CC4 
  36      8D0B1782 
  36      E242
  37 001f 08745B08 		.ascii	"\010t[\010%\235\205]$\020\3422\344\216\015(\2026va\013"
  37      259D855D 
  37      2410E232 
  37      E48E0D28 
  37      82367661 
  38 0034 5A4169E9 		.ascii	"ZAi\351#}\330j\353k\341\230\205 \202\"\005\205\"\025"
  38      237DD86A 
  38      EB6BE198 
  38      85208222 
  38      05852215 
  39 0048 2142BB33 		.ascii	"!B\2733\006\014Aj=\347N\0276\325B\035\270\257\271\377"
  39      060C416A 
  39      3DE74E17 
  39      36D5421D 
  39      B8AFB9FF 
  40 005c 3DFF77CE 		.ascii	"=\377w\316\275\026\355\376\242\334\032\212\350\030\217"
  40      BD16EDFE 
  40      A2DC1A8A 
  40      E8188F
  41 006b B008AAF4 		.ascii	"\260\010\252\364\226\310w\024 \023\002\025\024\012\330"
  41      96C87714 
  41      20130215 
  41      140AD8
  42 007a 50358552 		.ascii	"P5\205RP\036q;\307\265\326\337\356\277\361\023\001\232"
  42      501E713B 
  42      C7B5D6DF 
  42      EEBFF113 
  42      019A
  43 008c 7CAEAEC2 		.ascii	"|\256\256\3028\230@'\261\250V\334\374\350\332E\026\035"
  43      38984027 
  43      B1A856DC 
  43      FCE8DA45 
  43      161D
  44 009e 09F73009 		.ascii	"\011\3670\011\033<\316\037\015\364\326V}\366\345-;b"
  44      1B3CCE1F 
  44      0DF4D656 
  44      7DF6E52D 
  44      3B62
  45 00b0 5153C196 		.ascii	"QS\301\226\316\341N\271\322\021U\271\211\351W^\360h"
  45      CEE14EB9 
  45      D21155B9 
  45      89E9575E 
  45      F068
  46 00c2 7DC240F0 		.ascii	"}\302@\360\202Cr\200\206\262xrw\345\306\234\312\377"
ARM GAS  C:\Users\Bruger\AppData\Local\Temp\cc0EqYTp.s 			page 3


  46      82437280 
  46      86B27872 
  46      77E5C69C 
  46      CAFF
  47 00d4 D457B5D3 		.ascii	"\324W\265\323TV]qXL!\317\247\333h\025\227\207\356\305"
  47      54565D71 
  47      584C21CF 
  47      A7DB6815 
  47      9787EEC5 
  48 00e8 44DB2A6C 		.ascii	"D\333*l\337\024\014\376\373\271\372\356\275\263\256"
  48      DF140CFE 
  48      FBB9FAEE 
  48      BDB3AE
  49 00f7 F88F594E 		.ascii	"\370\217YN\372\305;\030\305m_\213\312\3064\362(#j\366"
  49      FAC53B18 
  49      C56D5F8B 
  49      CAC634F2 
  49      28236AF6 
  50 010b 7ECD0C2E 		.ascii	"~\315\014.\332\2612g\021\234n\252\003\230a\341w\223"
  50      DAB13267 
  50      119C6EAA 
  50      039861E1 
  50      7793
  51 011d 29661163 		.ascii	")f\021c\032\022\270\225\245m\270]\236\014\307j\314\375"
  51      1A12B895 
  51      A56DB85D 
  51      9E0CC76A 
  51      CCFD
  52 012f 01F7A563 		.ascii	"\001\367\245cO\270V\232\371\277\323\234\022\232\007"
  52      4FB8569A 
  52      F9BFD39C 
  52      129A07
  53 013e 86468A8A 		.ascii	"\206F\212\212\005\241\261\331\240\362\343\332\332\207"
  53      05A1B1D9 
  53      A0F2E3DA 
  53      DA87
  54 014c 4888E3F0 		.ascii	"H\210\343\360\231\345\251\261\254\344\352\\y\355\353"
  54      99E5A9B1 
  54      ACE4EA5C 
  54      79EDEB
  55 015b B61DE93B 		.ascii	"\266\035\351;&\250\276>Xi\027\303\"\337\343A,\"\212"
  55      26A8BE3E 
  55      586917C3 
  55      22DFE341 
  55      2C228A
  56 016e 87E28747 		.ascii	"\207\342\207G\034=$\216\357\213x\351\237\365;\204eC"
  56      1C3D248E 
  56      EF8B78E9 
  56      9FF53B84 
  56      6543
  57 0180 6C9EC363 		.ascii	"l\236\303c!vL\375n\276:\031\002\273\255&n\235KLxb\352"
  57      21764CFD 
  57      6EBE3A19 
  57      02BBAD26 
  57      6E9D4B4C 
  58 0197 77F87F68 		.ascii	"w\370\177h\236\356A\363\314\320XB\363\\h\\Z\203\037"
  58      9EEE41F3 
ARM GAS  C:\Users\Bruger\AppData\Local\Temp\cc0EqYTp.s 			page 4


  58      CCD05842 
  58      F35C685C 
  58      5A831F
  59 01aa 0C9F1503 		.ascii	"\014\237\025\003\271\343*\327\226\037 G\356:\347\245"
  59      B9E32AD7 
  59      961F2047 
  59      EE3AE7A5 
  60 01ba BD6C6FCE 		.ascii	"\275lo\316\353Kvg.eS^O\242;s&\336s>\335\357\245r\027"
  60      EB4B7667 
  60      2E65535E 
  60      4FA23B73 
  60      26DE733E 
  61 01d3 33E9E489 		.ascii	"3\351\344\211d\342\302\361\024\375\006b\277\032\377"
  61      64E2C2F1 
  61      14FD0662 
  61      BF1AFF
  62              		.text
  63              		.section	.gnu.lto_Injection_1_RestoreConfig.71da2616,"",%progbits
  64 0000 789C8D92 		.ascii	"x\234\215\222\273k\024Q\024\306\317wfv\234d\005\305"
  64      BB6B1451 
  64      14C6CF77 
  64      66769C64 
  64      05C5
  65 0012 2AEC3F90 		.ascii	"*\354?\220\370\210`ack!)\204H\332\300\"\353\024\246"
  65      F8886061 
  65      636B2129 
  65      8448DAC0 
  65      22EB14A6 
  66 0026 D8852596 		.ascii	"\330\205%\226K\356\204\025m4\217*\340\243J\310\323\304"
  66      4BEE8415 
  66      6D348F2A 
  66      E0A34AC8 
  66      D3C4
  67 0038 CD63F3B0 		.ascii	"\315c\363\260Y\322\210\215\262\210(!$(\011h\245\353"
  67      59D2888D 
  67      B2882821 
  67      24280968 
  67      A5EB
  68 004a 16619018 		.ascii	"\026a\220\030\317\271\203E\342\0322p\317\231s\3577\337"
  68      CFB98345 
  68      E21A3270 
  68      CF9973EF 
  68      37DF
  69 005c F971E63A 		.ascii	"\371q\346:\364\357\223\222\365\205\211.H\206C\340\301"
  69      F4EF9392 
  69      F585892E 
  69      488643E0 
  69      C1
  70 006d B744A1CF 		.ascii	"\267D\241\317\200\276\020\250\217\321\207o\\c\014V\246"
  70      80BE10A8 
  70      8FD1876F 
  70      5C630C56 
  70      A6
  71 007e 4792AD63 		.ascii	"G\222\255c\306\230\037\375\313-\367[\"\371\254\316\261"
  71      C6981FFD 
  71      CB2DF75B 
  71      22F9ACCE 
ARM GAS  C:\Users\Bruger\AppData\Local\Temp\cc0EqYTp.s 			page 5


  71      B1
  72 008f 0DC6D14A 		.ascii	"\015\306\321J\242\251\025\367?&\275\242h\316\306g\230"
  72      A2A915F7 
  72      3F26BDA2 
  72      68CEC667 
  72      98
  73 00a0 8007C973 		.ascii	"\200\007\311s\347*\346\340\240\2769\364\351\332\255"
  73      E72AE6E0 
  73      A0BE39F4 
  73      E9DAAD
  74 00af 66A688E1 		.ascii	"f\246\210\341j\360$\260\257\201hG\2266\335\225B\262"
  74      6AF024B0 
  74      AF816847 
  74      9636DD95 
  74      42B2
  75 00c1 B381FE72 		.ascii	"\263\201\376rik(\241\026{\254\004\317\337?\236\345\302"
  75      696B28A1 
  75      167BAC04 
  75      CFDF3F9E 
  75      E5C2
  76 00d3 2FF3D0F8 		.ascii	"/\363\320\370\021;\373\352/\273\333;\357\252\376W\226"
  76      113BFBEA 
  76      2FBBDB3B 
  76      EFAAFE57 
  76      96
  77 00e4 1D5B4E84 		.ascii	"\035[N\204\305\247x\206'\241Q\225\213I\0240\205\224"
  77      C5A77886 
  77      27A15195 
  77      8B491430 
  77      8594
  78 00f6 3DFB3D33 		.ascii	"=\373=30\357\265_\2148\201i\321\374\264\364\230A;m\302"
  78      30EFB55F 
  78      8C388169 
  78      D1FCB4F4 
  78      98413B6D 
  79 010b D53E74B4 		.ascii	"\325>t\264\213Wg\301\307\013\024H\030\">E\212U\333\256"
  79      8B5767C1 
  79      C70B1448 
  79      18223E45 
  79      8A55DBAE 
  80 011f 3A3196FB 		.ascii	":1\226\373_\254\243\034\263\2159\346,\207\216\010/\217"
  80      5FACA31C 
  80      B38D39E6 
  80      2C878E08 
  80      2F8F
  81 0131 E7105F94 		.ascii	"\347\020_\224,\207\373\227\243\264[=\023sx'\346\230"
  81      2C87FB97 
  81      A3B45B3D 
  81      13737827 
  81      E698
  82 0143 6FC4E163 		.ascii	"o\304\341c\301r\330_\266(\034\033X\037\376|I\275EV\236"
  82      C172D85F 
  82      B6281C1B 
  82      581FFE7C 
  82      49BD4556 
  83 0158 1CCDEB80 		.ascii	"\034\315\353\200\233\036\274\011\215{h\346M\326\307"
  83      9B1EBC09 
ARM GAS  C:\Users\Bruger\AppData\Local\Temp\cc0EqYTp.s 			page 6


  83      8D7B68E6 
  83      4DD6C7
  84 0167 3C1A584F 		.ascii	"<\032XOh\217bX9\037q3\226\220BY\233`Y|\005\317\342V"
  84      688F6258 
  84      391F7133 
  84      96904259 
  84      9B60597C 
  85 017f BF23A6F5 		.ascii	"\277#\246\365OL\273\322\230v\325\322:J\273v\314\324"
  85      4F4CBBD2 
  85      9876D5D2 
  85      3A4ABB76 
  85      CCD4
  86 0191 9275D5E0 		.ascii	"\222u\325\340\225\235\232\324\247i\013a\345\303k\266"
  86      959D9AD4 
  86      A7690B61 
  86      E5C36BB6 
  87 01a1 6AD23B07 		.ascii	"j\322;\007\275k\322\274\355F\220\015\362\267{\203;\351"
  87      BD6BD2BC 
  87      ED46900D 
  87      F2B77B83 
  87      3BE9
  88 01b3 AEDCBD7C 		.ascii	"\256\334\275|&\350\356\354\312]\277\332\335\221\355"
  88      26E8EEEC 
  88      CA5DBFDA 
  88      DD91ED
  89 01c2 0932BD77 		.ascii	"\0112\275ws\331\364\225t\347\315\313\031\372\0038\314"
  89      73D9F495 
  89      74E7CDCB 
  89      19FA0338 
  89      CC
  90 01d3 0C10     		.ascii	"\014\020"
  91              		.text
  92              		.section	.gnu.lto_Injection_1_Sleep.71da2616,"",%progbits
  93 0000 789C8592 		.ascii	"x\234\205\222\317k\023A\024\307\337\367\355\354&i\244"
  93      CF6B1341 
  93      14C7DFF7 
  93      EDEC2669 
  93      A4
  94 0011 8AA7D27F 		.ascii	"\212\247\322\177\240\"T\361\340Qr\360 \012B\241\327"
  94      A02254F1 
  94      E05172F0 
  94      200A42A1 
  94      D7
  95 0022 4290B807 		.ascii	"B\220\270\007=$R\3521t6Y1x\320\342)\330\326\233\265"
  95      3D2452EA 
  95      31743659 
  95      3178D0E2 
  95      29D8D69B 
  96 0037 35B58DF5 		.ascii	"5\265\215\365\327\321\305\223\224b)\245\010E\342\301"
  96      D7D1C593 
  96      946229A5 
  96      0845E2C1 
  97 0047 14F49634 		.ascii	"\024\364\2264\320v\221\032\337l\242\226\212\2720;3o"
  97      D076911A 
  97      DF6CA296 
  97      8ABA303B 
  97      336F
ARM GAS  C:\Users\Bruger\AppData\Local\Temp\cc0EqYTp.s 			page 7


  98 0059 3EF3FD7E 		.ascii	">\363\375~wf-\372\3639'\355\006\023\235\224\036\016"
  98      77662DFA 
  98      F33927ED 
  98      06139D94 
  98      1E0E
  99 006b 8127DE13 		.ascii	"\201'\336\023yqfk\257\227t\217*\247H\037\261`w\312\352"
  99      7971666B 
  99      AF97748F 
  99      2AA7481F 
  99      B16077CA 
 100 0080 E7C006CC 		.ascii	"\347\300\006\314\200@\343l)\033\343\370\312M\306DP)"
 100      8040E36C 
 100      291BE3F8 
 100      CA4DC644 
 100      5029
 101 0092 27071E69 		.ascii	"'\007\036i\255\033\205\365\276[}\241(\267\270\343\204"
 101      AD1B85F5 
 101      BE5B7DA1 
 101      28B7B8E3 
 101      84
 102 00a3 C7182061 		.ascii	"\307\030 a\232\376\376\207\244\343\013s\254\263\206"
 102      9AFEFE87 
 102      A4E30B73 
 102      ACB386
 103 00b2 5938907E 		.ascii	"Y8\220~\361x\240\333\355\326\312\375\322iNX\0242\224"
 103      F178A0DB 
 103      EDD6CAFD 
 103      D2694E58 
 103      143294
 104 00c5 BC84A84B 		.ascii	"\274\204\250K3n[2\221\336\332\304\333\235;\265\271*"
 104      336E5B32 
 104      91DEDAC4 
 104      DB9D3BB5 
 104      B92A
 105 00d7 CCCE5DB6 		.ascii	"\314\316]\266D\264\344\177^\306\027\016\331\332}\347"
 105      44B4E47F 
 105      5EC6170E 
 105      D9DA7DE7 
 106 00e7 69657C3E 		.ascii	"ie|>\325W\327\342Q\211\314t\246\035\274ILc\322\363\021"
 106      D557D7E2 
 106      5189CC74 
 106      A61DBC49 
 106      4C63D2F3 
 107 00fc B2C21CFA 		.ascii	"\262\302\034\372\361\004\375\342^\3014h\023\205\332"
 107      F104FDE2 
 107      5EC13468 
 107      1385DA
 108 010b EDBAEA08 		.ascii	"\355\272\352\010*\321\244\015\370+\305l\267pPN\302`"
 108      2AD1A40D 
 108      F82BC56C 
 108      B770504E 
 108      C260
 109 011d DEEC2493 		.ascii	"\336\354$\223\310\242\275^\011ThTW\267\223\206\026\364"
 109      C8A2BD5E 
 109      09546854 
 109      57B79386 
 109      16F4
ARM GAS  C:\Users\Bruger\AppData\Local\Temp\cc0EqYTp.s 			page 8


 110 012f E1FADD05 		.ascii	"\341\372\335\005\316\177\323%\035\017\331\3367\337x"
 110      CE7FD325 
 110      1D0FD9DE 
 110      37DF78
 111 013e 50C08EA6 		.ascii	"P\300\216\246\263\236?\005\223G\033\312\301S\344\261"
 111      B39E3F05 
 111      93471BCA 
 111      C153E4B1 
 112 014e 606465ED 		.ascii	"`de\355\373\374\275%g\260\"G\024\244B\216aQ\300\355"
 112      FBFCBD25 
 112      67B02247 
 112      14A4428E 
 112      6151C0ED 
 113 0162 E81851C5 		.ascii	"\350\030Q\305\240\000k\017f\212G\215V\014\204gQ\230"
 113      A0006B0F 
 113      668A478D 
 113      560C8467 
 113      5198
 114 0174 2D56544E 		.ascii	"-VTNEQ\032\033\377\211r\330{\351\037\336\317\177{\277"
 114      45511A1B 
 114      FF8972D8 
 114      7BE91FDE 
 114      CF7F7BBF 
 115 0188 88BC7F7D 		.ascii	"\210\274\177}GLJ/\273\336vt1\037Q\014\232\313l\274\351"
 115      474C4A2F 
 115      BBDE7674 
 115      311F510C 
 115      9ACB6CBC 
 116 019d B079BCC5 		.ascii	"\260y\274\305r\311x\205\274\\j\202\014\272\323\3637"
 116      72C97885 
 116      BC5C6A82 
 116      0CBAD3F3 
 116      37
 117 01ae D29CF1EB 		.ascii	"\322\234\361\353.Y\203\027\204\227\"\222\314\277\000"
 117      2E598317 
 117      84972292 
 117      CCBF00
 118 01bd 6325C089 		.ascii	"c%\300\211\013n\326\035\2752\346^M\017\347n\216f\334"
 118      0B6ED61D 
 118      BD32E65E 
 118      4D0FE76E 
 118      8E66DC
 119 01d0 91A1E1DC 		.ascii	"\221\241\341\334\371\263#\027\263\327\335\314\330\265"
 119      F9B32317 
 119      B3D7DDCC 
 119      D8B5
 120 01de 5C367D26 		.ascii	"\\6}&=t\371T\206~\0004!\362F"
 120      3D74F954 
 120      867E0034 
 120      21F246
 121              		.text
 122              		.section	.gnu.lto_Injection_1_Wakeup.71da2616,"",%progbits
 123 0000 789C7550 		.ascii	"x\234uP=HBQ\024>\347\274\347S\322!\232\242\301\325("
 123      3D484251 
 123      143EE7BC 
 123      E753D221 
 123      9AA2C1D5 
ARM GAS  C:\Users\Bruger\AppData\Local\Temp\cc0EqYTp.s 			page 9


 124 0015 2C229A1B 		.ascii	",\"\232\033\032\"\"\020\\\005\011{C\015\012bm\342}\371"
 124      1A222210 
 124      5C05097B 
 124      430D0A62 
 124      6DE27DF9 
 125 0029 82862869 		.ascii	"\202\206(i\012\372\031\204\312\322\024\032\032ly\273"
 125      0AFA1984 
 125      CAD2141A 
 125      1A6C79BB 
 126 0039 504454F4 		.ascii	"PDT\364\277\030\324\226\211\310C\314\356}\006A\321\205"
 126      BF18D496 
 126      89C843CC 
 126      EE7D0641 
 126      D185
 127 004b CBB9F73B 		.ascii	"\313\271\367;\337w\276\373]\011\376\256a\276\027\020"
 127      DF77BEFB 
 127      5D09FEAE 
 127      61BE1710 
 128 005b A08F57B4 		.ascii	"\240\217W\264\001R\352\014@s\020IE7\260\016\371z\020"
 128      0152EA0C 
 128      40731049 
 128      4537B00E 
 128      F97A10
 129 006e 984B42B9 		.ascii	"\230KB\271\015\313\210\342\000\010\011\222dL\340\033"
 129      0DCB88E2 
 129      00080992 
 129      644CE01B 
 130 007e 55085346 		.ascii	"U\010SFv\303\351\331e\214\275\247\037\273\227\272M\002"
 130      76C3E9D9 
 130      658CBDA7 
 130      1FBB97BA 
 130      4D02
 131 0090 A8527B3E 		.ascii	"\250R{>\356\243\0078\247\2427o\234\212\3169\235\355"
 131      EEA30738 
 131      A7A2376F 
 131      9C8ACE39 
 131      9DED
 132 00a2 1E6650E1 		.ascii	"\036fP\341\276P\3502X\253U\255\255gFI\221\301$\016\226"
 132      BE50E832 
 132      58AB55AD 
 132      AD674649 
 132      91C1240E 
 133 00b7 3941F8BC 		.ascii	"9A\370\274\020\211*=`\322\270/\221\220\210Y;\227\253"
 133      10892A3D 
 133      60D2B82F 
 133      91908859 
 133      3B97AB
 134 00ca 798A37D8 		.ascii	"y\2127\3302s\230DU\241\300\003\214s\255\004w\270xR\251"
 134      32739844 
 134      55A1C003 
 134      8C73AD04 
 134      77B87852 
 135 00df A7ED825B 		.ascii	"\247\355\202['\3717[n\012o\216>\227\317/\034\257\304"
 135      27F9375B 
 135      6E0A6F8E 
 135      3E97CF2F 
 135      1CAFC4
ARM GAS  C:\Users\Bruger\AppData\Local\Temp\cc0EqYTp.s 			page 10


 136 00f2 11EB9AD1 		.ascii	"\021\353\232\321\364-\334\306M\215\011\226\015\0171"
 136      F42DDCC6 
 136      4D8D0996 
 136      0D0F31
 137 0101 8E59ECB1 		.ascii	"\216Y\354\261z\237\271\265c\305\333o\222\2029\316\371"
 137      7A9FB9B5 
 137      63C5DB6F 
 137      928239CE 
 137      F9
 138 0112 B092E111 		.ascii	"\260\222\341\021z\341\012\365\333\244\373\307J\333;"
 138      7AE10AF5 
 138      DBA4FBC7 
 138      4ADB3B
 139 0121 5DB18BA1 		.ascii	"]\261\213\241\342Ey!\007\021B\202\242\333\312P+\271"
 139      E2457921 
 139      07114282 
 139      A2DBCA50 
 139      2BB9
 140 0133 FECBC087 		.ascii	"\376\313\300\207b\341;\203\320\310V\360'\324\214\306"
 140      62E13B83 
 140      D0C856F0 
 140      27D48CC6 
 141 0143 A4A501F1 		.ascii	"\244\245\001\361-(PN\355\035W\303jt:\246\316\004\375"
 141      2D28504E 
 141      ED1D57C3 
 141      6A743AA6 
 141      CE04FD
 142 0156 91F96848 		.ascii	"\221\371hH\015\370\374\221\261\221\300DxN\015\305f#"
 142      0DF8FC91 
 142      B191C044 
 142      784E0DC5 
 142      6623
 143 0168 E1E050D0 		.ascii	"\341\340P\32075\020\202/\345\006\224\216"
 143      37351082 
 143      2FE50694 
 143      8E
 144              		.text
 145              		.section	.gnu.lto_.symbol_nodes.71da2616,"",%progbits
 146 0000 789C55CA 		.ascii	"x\234U\312\261\015\3020\020\205\341\347;;v\342\024l"
 146      B10DC230 
 146      1085E1E7 
 146      3B3B76E2 
 146      146C
 147 0012 C012ECF7 		.ascii	"\300\022\354\367RX\324L\200\"\304\012l\220\232\031\000"
 147      5258D44C 
 147      8022C40A 
 147      6C909A19 
 147      00
 148 0023 A5CC0C88 		.ascii	"\245\314\014\2108i\216k~}O\247\000\016\016\373\211#"
 148      38698E6B 
 148      7E7D4FA7 
 148      000E0EFB 
 148      8923
 149 0035 70790224 		.ascii	"py\002$\256cB\000F\241\212\320\331Y\224\362gO\265v\221"
 149      AE634200 
 149      46A18AD0 
 149      D95994F2 
ARM GAS  C:\Users\Bruger\AppData\Local\Temp\cc0EqYTp.s 			page 11


 149      674FB576 
 150 004a 7E378661 		.ascii	"~7\206ae\303`\031\330Xv\214\226-\223ebk\231\331Y\366"
 150      65C36019 
 150      D858768C 
 150      962D9365 
 150      626B99D9 
 151 0060 CC868A88 		.ascii	"\314\206\212\210\373\353\353\024\015\346\255\001\363"
 151      FBEBEB14 
 151      0DE6AD01 
 151      F3
 152 006d 7BAD7498 		.ascii	"{\255t\230\252\245E\331\234P\316\313Q5c\252V\340S\353"
 152      AAA545D9 
 152      9C50CECB 
 152      513563AA 
 152      56E053EB 
 153 0081 05B7FAE7 		.ascii	"\005\267\372\347{\224\307\011?\177fFt"
 153      7B94C709 
 153      3F7F6646 
 153      74
 154              		.text
 155              		.section	.gnu.lto_.refs.71da2616,"",%progbits
 156 0000 789C258A 		.ascii	"x\234%\212\311\015\000 \014\200\240\255\307,\356?\240"
 156      C90D0020 
 156      0C80A0AD 
 156      C72CEE3F 
 156      A0
 157 0011 8DF22390 		.ascii	"\215\362#\220\300\341Shh\351\324]\321\212\211\003W\344"
 157      C0E15368 
 157      68E9D45D 
 157      D18A8903 
 157      57E4
 158 0023 0BC39E82 		.ascii	"\013\303\236\202\013\0205\000\202"
 158      0B103500 
 158      82
 159              		.text
 160              		.section	.gnu.lto_.decls.71da2616,"",%progbits
 161 0000 789C8D56 		.ascii	"x\234\215VmLSW\030\276\247\247\264P*:M\300\361\307\316"
 161      6D4C5357 
 161      18BEA7A7 
 161      B4502A3A 
 161      4DC0F1C7 
 162 0015 65C42DC6 		.ascii	"e\304-\306h\226-\376\233\2111\306%.D\342\314\242\211"
 162      68962DFE 
 162      9B8931C6 
 162      252E44E2 
 162      CCA289
 163 0028 41B8734C 		.ascii	"A\270sL\002\254\264K\374\265\213\370\2018\025\277\011"
 163      02ACB44B 
 163      FCB58BF8 
 163      813815BF 
 163      09
 164 0039 3A57858A 		.ascii	":W\205\212\012Be~\360%\266\200P\021P\201\3619\240\200"
 164      0A42657E 
 164      F025B680 
 164      50115081 
 164      F139A080 
 165 004d A082D682 		.ascii	"\240\202\326\202\2508\031\335{\316\271\227\336\253e"
ARM GAS  C:\Users\Bruger\AppData\Local\Temp\cc0EqYTp.s 			page 12


 165      A83819DD 
 165      7BCEB997 
 165      DEAB65
 166 005c EE264FDB 		.ascii	"\356&O\333s\357\363>\357\363\276\347\343\026s\0347\216"
 166      73EFF33E 
 166      EFF3BEE7 
 166      E316731C 
 166      378E
 167 006e 38CE0BD7 		.ascii	"8\316\013\327\347:\216\233\257\342\270\000\270\027\311"
 167      E73A8E9B 
 167      AFE2B800 
 167      B817C9
 168 007d F92E3D20 		.ascii	"\371.= \037P\000\260\001\212\000\245\200j@\015\240\016"
 168      1F5000B0 
 168      018A00A5 
 168      806A400D 
 168      A00E
 169 008f D008B807 		.ascii	"\320\010\270\007h\002\264\000@\222{\314)/\2421K\324"
 169      6802B400 
 169      40927BCC 
 169      292FA231 
 169      4BD4
 170 00a1 36004201 		.ascii	"6\000B\001\303\200J\300\010\340!\300\001\360\000\334"
 170      C3804AC0 
 170      08E021C0 
 170      01F000DC 
 171 00b1 806B8051 		.ascii	"\200k\200Q@1@\015p\001\006\000}\200^\361^\276\350\241"
 171      4031400D 
 171      70010600 
 171      7D805EF1 
 171      5EBEE8A1 
 172 00c5 5AF4E42F 		.ascii	"Z\364\344/o\201\237\274\362|c\200z1\237\224\3739\300"
 172      6F819FBC 
 172      F27C6380 
 172      7A319F94 
 172      FB39C0
 173 00d8 F91F790B 		.ascii	"\371\037y\013\304z\033\305\372\375\345%\275\322\211"
 173      C47A1BC5 
 173      FAFDE525 
 173      BDD289
 174 00e7 7949CE17 		.ascii	"yI\316\0272})?\311\371\012pA\324\350\007`1\266I\254"
 174      327D293F 
 174      C9F90A70 
 174      41D4E807 
 174      6031B649 
 175 00fc CF9F3699 		.ascii	"\317\2376\231\003\255L[\322\220\353\312\365\212D\317"
 175      03AD4C5B 
 175      D290EBCA 
 175      F58A44CF 
 176 010c 33CDCDA8 		.ascii	"3\315\315\250\012\225\024\2147\004?R\241\020\235\201"
 176      0A95148C 
 176      37043F52 
 176      A1109D81 
 177 011c 0C4B0F3B 		.ascii	"\014K\017;350\324\353\324dX\366\246\277E\035vL\200+"
 177      333530D4 
 177      EBD46458 
 177      F6A6BF45 
ARM GAS  C:\Users\Bruger\AppData\Local\Temp\cc0EqYTp.s 			page 13


 177      1D764C80 
 178 0131 235598A3 		.ascii	"#U\230\243F\221\241(\027\205\243\363(\034\024/\2400"
 178      4691A128 
 178      1785A3F3 
 178      281C142F 
 178      A030
 179 0143 F8DCA866 		.ascii	"\370\334\250fJ\373\317\264\225k\260\012\221\337\331"
 179      4AFBCFB4 
 179      956BB00A 
 179      91DFD9
 180 0152 997D2DBA 		.ascii	"\231}-\272\305\027!,M\260;\261/]\341\343No\210\341\264"
 180      C517212C 
 180      4DB03BB1 
 180      2F5DE1E3 
 180      4E6F88E1 
 181 0167 E0B2799C 		.ascii	"\340\262y\234W:\364\202S\260{\275_Q)t\021a\224\207\026"
 181      573AF482 
 181      53B07BBD 
 181      5F512974 
 181      11619487 
 182 017c 1326F94D 		.ascii	"\023&\371MCP>2@\230\375Y\311i=^\303\264\255\271\315"
 182      43503E32 
 182      4098FD59 
 182      C9693D5E 
 182      C3B4ADB9 
 183 0191 0154C252 		.ascii	"\001T\302R\234\255a\0024\376\222,\376\222\024_@\343"
 183      9CAD6102 
 183      34FE922C 
 183      FE92145F 
 183      40E3
 184 01a3 4FEDBE5C 		.ascii	"O\355\276\\\253\30214~`\334\272O\005\361\026\233%\323"
 184      ABC23134 
 184      7E60DCBA 
 184      4F05F116 
 184      9B25D3
 185 01b6 2A8F2F94 		.ascii	"*\217/\224\305\027J\3616\032_<\371\254D\215\3154\376"
 185      C5174AF1 
 185      361A5F3C 
 185      F9AC448D 
 185      CD34FE
 186 01c9 78ADC722 		.ascii	"x\255\307\"\306\017+\342/\313\342/K\361E4\276\365\346"
 186      C60F2BE2 
 186      2FCBE22F 
 186      4BF14534 
 186      BEF5E6
 187 01dc 9E3D8138 		.ascii	"\236=\2018\015Q\201\224se\277j\241\307\241:\332\222"
 187      0D518194 
 187      7365BF6A 
 187      A1C7A13A 
 187      DA92
 188 01ee 0377B21C 		.ascii	"\003w\262\034\230\016\275\344\261\252\243\343\350k\214"
 188      980EBDE4 
 188      B1AAA3E3 
 188      E86B8C
 189 01fd 74116982 		.ascii	"t\021i\202\260C\360\034\026\360|\016-\016G\237\206s"
 189      B043F01C 
 189      16F07C0E 
ARM GAS  C:\Users\Bruger\AppData\Local\Temp\cc0EqYTp.s 			page 14


 189      2D0E479F 
 189      8673
 190 020f E83A8A00 		.ascii	"\350:\212\000\032M\202\256\3004\\\205i\310\201&{N\357"
 190      1A4D82AE 
 190      C0345C85 
 190      69C88126 
 190      7B4EEF
 191 0222 AAF83A55 		.ascii	"\252\370:UX\201\256!\035\372c\332\006\315 6~\357N\033"
 191      5881AE21 
 191      1DFA63DA 
 191      06CD2036 
 191      7EEF4E1B 
 192 0236 964F2461 		.ascii	"\226O$a\372f\262X1\223\375C\223'C\260\215\271=3\261"
 192      FA66B258 
 192      3193FD43 
 192      932743B0 
 192      8DB93D33 
 193 024b F7056DB7 		.ascii	"\367\005m\267\3409\237[\370\335\241\324\214\034\301"
 193      E0399F5B 
 193      F8DDA1D4 
 193      8C1CC1
 194 025a E5F52EA0 		.ascii	"\345\365.\240A\250DVs\211Ts)\255\371N\377\304s=]Ys\210"
 194      41A84456 
 194      73895473 
 194      29ADF94E 
 194      FFC4733D 
 195 0272 4E56DBE0 		.ascii	"NV\333\3408\246+KE\206\277\215\271\313\203\360KeG\014"
 195      38A62B4B 
 195      4586BF8D 
 195      B9CB83F0 
 195      4B65470C 
 196 0286 AC232746 		.ascii	"\254#'F&\256\004\322\241\327\213IK\336\014\024\344j"
 196      26AE04D2 
 196      A1D78B49 
 196      4BDE0C14 
 196      E46A
 197 0298 50848ED5 		.ascii	"P\204\216\325je\265:\240\202\033\276Z\015b\255\264m"
 197      6A65B53A 
 197      A0821BBE 
 197      5A0D62AD 
 197      B46D
 198 02aa 42AA1070 		.ascii	"B\252\020p>\204CePa9T\210\354\3209\203\330\271\012\270"
 198      3E844365 
 198      50613954 
 198      88ECD039 
 198      83D8B90A 
 199 02bf 79136E42 		.ascii	"y\023nB\246\327\273\032z\025mq(\332R\251hKu^\255'\020"
 199      A6D7BB1A 
 199      7A156D71 
 199      28DA52A9 
 199      684B755E 
 200 02d6 FFC32CB7 		.ascii	"\377\303,\267\375>\331\025$\266\345a\351O\262\266@\020"
 200      FD3ED915 
 200      24B6E561 
 200      E94FB2B6 
 200      4010
 201 02e8 AA92B5A5 		.ascii	"\252\222\265\245JjK5mKU\367\335n\035>\306\366\311\205"
ARM GAS  C:\Users\Bruger\AppData\Local\Temp\cc0EqYTp.s 			page 15


 201      4A6A4B35 
 201      6D4B55F7 
 201      DD6E1D3E 
 201      C6F6C985 
 202 02fc 8142F72C 		.ascii	"\201B\367,\252\342J\333S\243\267H\333\201h\334\222i"
 202      AAE24ADB 
 202      53A3B748 
 202      DB8168DC 
 202      9269
 203 030e DC92346A 		.ascii	"\334\2224j\250F\306.G\206Z\015\2076\235\306\215t\253"
 203      A846C62E 
 203      47865A0D 
 203      87369DC6 
 203      8D74AB
 204 0321 BEF0F659 		.ascii	"\276\360\366YU3nU'\255\244\026\211\245X\252:y\234\317"
 204      55336E55 
 204      27ADA416 
 204      89A558AA 
 204      3A799CCF 
 205 0335 3CEC6FEF 		.ascii	"<\354o\35792\233y\250\030\224y\200\020t[\346\341\266"
 205      39329B79 
 205      A8189479 
 205      8010745B 
 205      E6E1B6
 206 0348 E4A18E7A 		.ascii	"\344\241\216z(\317\031v\007S\017\216i\017\275W_^\327"
 206      28CF1976 
 206      07530F8E 
 206      690FBD57 
 206      5F5ED7
 207 035b CDE8A19E 		.ascii	"\315\350\241\236z\270#y8\272;+\017\343\006f\"\307uQ"
 207      7AB82379 
 207      38BA3B2B 
 207      0FE30666 
 207      22C77551 
 208 036f CD3CFC6D 		.ascii	"\315<\374m\255\365y\200\020\324 \363\320 yh\244\036"
 208      ADF57980 
 208      10D420F3 
 208      D0207968 
 208      A41E
 209 0381 F666B5F5 		.ascii	"\366f\265\365\006\340!&a\263\327\037f\013\3255e\255"
 209      06E02126 
 209      61B3D71F 
 209      660BD535 
 209      65AD
 210 0393 516ADC95 		.ascii	"Qj\334\225i\334\2254\356Q\215\364\334\212S:<%j\\\257"
 210      69DC9534 
 210      EE518DF4 
 210      DC8A533A 
 210      3C256A5C 
 211 03a8 1A66B36A 		.ascii	"\032f\263j\311\263\3566\3106\367}\231\302}I\241\211"
 211      C9B3EE36 
 211      C836F77D 
 211      99C27D49 
 211      A189
 212 03ba 2A9CBDD9 		.ascii	"*\234\275\331z$\030\037\304l]dU\271U\314EY-_\271S\230"
 212      7A24181F 
 212      C46C5D64 
ARM GAS  C:\Users\Bruger\AppData\Local\Temp\cc0EqYTp.s 			page 16


 212      55B955CC 
 212      45592D5F 
 213 03d1 246B984A 		.ascii	"$k\230J4\313$\232%\211\026*Q\224m\275\026D\367\312\012"
 213      34CB249A 
 213      2589162A 
 213      51946DBD 
 213      1644F7CA 
 214 03e6 DA8D63C7 		.ascii	"\332\215c\307\363\003\350^\011$\303\206\033#yZ|\226"
 214      F303E85E 
 214      0924C386 
 214      1B23795A 
 214      7C96
 215 03f8 2538DA7C 		.ascii	"%8\332|\265<\030\227\261Ac~\2537\030\327\261\301\203"
 215      B53C1897 
 215      B141637E 
 215      AB3718D7 
 215      B1C183
 216 040b D1DCB35A 		.ascii	"\321\334\263Z|\237\015v\3368\227\241\305]l\320\373\252"
 216      7C9F0D76 
 216      DE3897A1 
 216      C55D6CD0 
 216      FBAA
 217 041d B7524BE5 		.ascii	"\267RK\345\227\222a\332T\203M\215\335\354Y\212\375R"
 217      979261DA 
 217      54834D8D 
 217      DDEC598A 
 217      FD52
 218 042f 337BB61C 		.ascii	"3{\266\034\206\332\272\374\354)-ZH\256y\021\026\330"
 218      86DABAFC 
 218      EC292D5A 
 218      48AE7911 
 218      16D8
 219 0441 4BAE0383 		.ascii	"K\256\003\203u\301B\346R\272\324\272\241\204\007h\236"
 219      75C142E6 
 219      52BAD4BA 
 219      A1840768 
 219      9E
 220 0452 741E2D22 		.ascii	"t\036-\"\323\332C&\227\243\324\221\324}z\341\374R\272"
 220      D3DA4326 
 220      97A3D491 
 220      D47D7AE1 
 220      FC52BA
 221 0465 223A45EA 		.ascii	"\":E\352\364\026\244\344\\\037\331=\340\323\355\362"
 221      F416A4E4 
 221      5C1FD93D 
 221      E0D3EDF2 
 222 0475 A3FB978F 		.ascii	"\243\373\227\217\3323P3Mm\367C\375l\232\37185}\332A"
 222      DA335033 
 222      4D6DF743 
 222      FD6C9AF9 
 222      38357DDA 
 223 048a 875F0765 		.ascii	"\207_\007eT\366\020]\243\026a\205\221C\177\302\363V"
 223      54F6105D 
 223      A3166185 
 223      91437FC2 
 223      F356
 224 049c BA42091B 		.ascii	"\272B\011\033f\010\015\302i\321\217\026\242\001\200"
ARM GAS  C:\Users\Bruger\AppData\Local\Temp\cc0EqYTp.s 			page 17


 224      66080DC2 
 224      69D18F16 
 224      A20180
 225 04ab 0BD007E8 		.ascii	"\013\320\007\350E\013\351\214\2213\310\325\225\255\021"
 225      450BE98C 
 225      9133C8D5 
 225      95AD11
 226 04ba 10A173D2 		.ascii	"\020\241s\322\214J\007\255\252\274\265\375\254\016E"
 226      8C4A07AD 
 226      AABCB5FD 
 226      AC0E45
 227 04c9 CCA3BC93 		.ascii	"\314\243\274\223\253\002\321C\020m\363\235S$\210^\376"
 227      AB02D143 
 227      106DF39D 
 227      5324885E 
 227      FE
 228 04da 2CA021C8 		.ascii	",\240!\310\374\177\\\300\304ut5\265jq\212\232\316\342"
 228      FC7F5CC0 
 228      C4757435 
 228      B56A718A 
 228      9ACEE2
 229 04ed C337FB0F 		.ascii	"\3037\373\017\250?>#\010\026\217\263=G\225\"X\340\020"
 229      A83F3E23 
 229      08168FB3 
 229      3D479522 
 229      58E010
 230 0500 246B97A6 		.ascii	"$k\227\246\177\304\322\313*}\304\326\037z\214>\206\350"
 230      7FC4D2CB 
 230      2A7DC4D6 
 230      1F7A8C3E 
 230      86E8
 231 0512 A7FD1733 		.ascii	"\247\375\02734\372trr\302\276\015r\206\320\003\310\267"
 231      34FA7472 
 231      72C2BE0D 
 231      7286D003 
 231      C8B7
 232 0524 7387919E 		.ascii	"s\207\221\236\262\341\033\330B\313\340\023\265\202M"
 232      B2E11BD8 
 232      42CBE013 
 232      B5824D
 233 0533 72F8D823 		.ascii	"r\370\330#\"{\204\261O\354\313\011\304G\231\315\253"
 233      227B84B1 
 233      4FECCB09 
 233      C44799CD 
 233      AB
 234 0544 2FD34B66 		.ascii	"/\323Kf\351\322\310\371\374\3767\0334\263\2451\2755"
 234      E9D2C8F9 
 234      FCFE371B 
 234      34B3A531 
 234      BD35
 235 0556 88BD0BDF 		.ascii	"\210\275\013\337\216x6\303\273\320v\372\326\030\026"
 235      8E7836C3 
 235      BBD076FA 
 235      D61816
 236 0565 043572C3 		.ascii	"\0045r\303\022x\342\353\373S${\031\366g5\350\025\025"
 236      1278E2EB 
 236      FB53247B 
ARM GAS  C:\Users\Bruger\AppData\Local\Temp\cc0EqYTp.s 			page 18


 236      19F66735 
 236      E81515
 237 0578 B815E7BE 		.ascii	"\270\025\347\276G\254\300C+\2308\32374[\301.VtgTd\217"
 237      47ACC043 
 237      2B9838D3 
 237      37345BC1 
 237      2E567467 
 238 058f 527667A9 		.ascii	"Rvg\251\243{\226\202]\257`\217\211\3541\312\3168|\262"
 238      A37B9682 
 238      5DAF608F 
 238      89EC31CA 
 238      CE387CB2 
 239 05a3 2248C176 		.ascii	"\"H\301v*\330\317E\366s\302\306\216\\G\247\016\205\353"
 239      2AD8CF45 
 239      F673C2C6 
 239      8E5C47A7 
 239      0E85EB
 240 05b6 C233E17F 		.ascii	"\3023\341\177\325\304\002\364\002jJ#\313\310\263C\300"
 240      D5C402F4 
 240      026A4A23 
 240      CBC8B343 
 240      C0
 241 05c7 9921526F 		.ascii	"\231!Ro8\372\200C/Af\034d\010\333\376\310\353\375\305"
 241      38FA8043 
 241      2F41661C 
 241      6408DBFE 
 241      C8EBFDC5 
 242 05db CBAE835A 		.ascii	"\313\256\203ZJ \037`\241'\323\236\256\234\316\013\012"
 242      4A201F60 
 242      A127D39E 
 242      AE9CCE0B 
 242      0A
 243 05ec 0BAF905E 		.ascii	"\013\257\220^\352!\374\344B\327$\374\310\307\230\342"
 243      EA21FCE4 
 243      42D724FC 
 243      C8C798E2 
 244 05fc 1213362F 		.ascii	"\022\0236/\333\034\025\3753\27721\341\373\270\255\232"
 244      DB1C15FD 
 244      33BF3231 
 244      E1FBB8AD 
 244      9A
 245 060d D5DFAC37 		.ascii	"\325\337\2547\254\344\026\255\346\023xc\264\211\217"
 245      ACE416AD 
 245      E6137863 
 245      B4898F
 246 061c DD1C9568 		.ascii	"\335\034\225h6\306\360\233\"\243\022W~\261I\036\024"
 246      36C6F09B 
 246      22A31257 
 246      7EB1491E 
 246      14
 247 062d B976490C 		.ascii	"\271vI\014\367\241\374\316:>\331\224h\024\225>P$\210"
 247      F7A1FCCE 
 247      3A3ED994 
 247      6814953E 
 247      502488
 248 0640 E7F9A4B9 		.ascii	"\347\371\244\271\362;\033\242\267\361\346\244\000s\\"
 248      F23B1BA2 
ARM GAS  C:\Users\Bruger\AppData\Local\Temp\cc0EqYTp.s 			page 19


 248      B7F1E6A4 
 248      00735C
 249 064f 8269F947 		.ascii	"\202i\371G3d\213\331n\332\236\304'/\371\201[\240L\023"
 249      33648BD9 
 249      6EDA9EC4 
 249      272FF981 
 249      5BA04C13 
 250 0663 1D0B394C 		.ascii	"\035\0139L\306\304\370u\374\326\270d\023o\374\344\375"
 250      C6C4F875 
 250      FCD6B864 
 250      136FFCE4 
 250      FD
 251 0674 7E414543 		.ascii	"~AEC\262-\3732\354]1s\002\210\204\276}?\2227\306%\306"
 251      B22DFB32 
 251      EC5D3173 
 251      028884BE 
 251      7D3F9237 
 252 068b 1A14B68D 		.ascii	"\032\024\266\215q&\376\255\344\363\375\020\250`\330"
 252      7126FEAD 
 252      E4F3FD10 
 252      A860D8
 253 069a 3B0F98E2 		.ascii	";\017\230\342\034EkL\211\312\316\254J\210\336\022\317"
 253      1C456B4C 
 253      89CACEAC 
 253      4A88DE12 
 253      CF
 254 06ab 2B44B744 		.ascii	"+D\267D\307l3'E\231\214\346\030SH\344\206\265\214\022"
 254      C76C3327 
 254      45998CE6 
 254      185348E4 
 254      86B58C12 
 255 06bf 65828235 		.ascii	"e\202\20250\\\037\273%\010\276\2308hAj\2439\311\264"
 255      305C1FBB 
 255      2508BE98 
 255      3868416A 
 255      A339C9B4 
 256 06d3 363A79DB 		.ascii	"6:y\333\267\321\361f~.<|\313\363\334w\345\325F~\353"
 256      B7D1F166 
 256      7E2E3C7C 
 256      CBF3DC77 
 256      E5D5467E 
 257 06e8 F27F01DB 		.ascii	"\362\177\001\333\325/."
 257      D52F2E
 258              		.text
 259              		.section	.gnu.lto_.symtab.71da2616,"",%progbits
 260 0000 496E6A65 		.ascii	"Injection_1_SaveConfig\000\000\000\000\000\000\000\000"
 260      6374696F 
 260      6E5F315F 
 260      53617665 
 260      436F6E66 
 261 001e 00000000 		.ascii	"\000\000\000\000\254\000\000\000Injection_1_Restore"
 261      AC000000 
 261      496E6A65 
 261      6374696F 
 261      6E5F315F 
 262 0039 436F6E66 		.ascii	"Config\000\000\000\000\000\000\000\000\000\000\000\000"
 262      69670000 
ARM GAS  C:\Users\Bruger\AppData\Local\Temp\cc0EqYTp.s 			page 20


 262      00000000 
 262      00000000 
 262      0000
 263 004b AE000000 		.ascii	"\256\000\000\000Injection_1_Sleep\000\000\000\000\000"
 263      496E6A65 
 263      6374696F 
 263      6E5F315F 
 263      536C6565 
 264 0065 00000000 		.ascii	"\000\000\000\000\000\000\000\260\000\000\000Injecti"
 264      000000B0 
 264      00000049 
 264      6E6A6563 
 264      7469
 265 0077 6F6E5F31 		.ascii	"on_1_Wakeup\000\000\000\000\000\000\000\000\000\000"
 265      5F57616B 
 265      65757000 
 265      00000000 
 265      00000000 
 266 008c 0000B200 		.ascii	"\000\000\262\000\000\000Injection_1_ReadControlRegi"
 266      0000496E 
 266      6A656374 
 266      696F6E5F 
 266      315F5265 
 267 00ad 73746572 		.ascii	"ster\000\000\002\000\000\000\000\000\000\000\000\000"
 267      00000200 
 267      00000000 
 267      00000000 
 268 00bd BA000000 		.ascii	"\272\000\000\000Injection_1_ReadCounter\000\000\002"
 268      496E6A65 
 268      6374696F 
 268      6E5F315F 
 268      52656164 
 269 00db 00000000 		.ascii	"\000\000\000\000\000\000\000\000\000\304\000\000\000"
 269      00000000 
 269      00C40000 
 269      00
 270 00e8 496E6A65 		.ascii	"Injection_1_ReadPeriod\000\000\002\000\000\000\000\000"
 270      6374696F 
 270      6E5F315F 
 270      52656164 
 270      50657269 
 271 0106 00000000 		.ascii	"\000\000\000\000\306\000\000\000Injection_1_WriteCo"
 271      C6000000 
 271      496E6A65 
 271      6374696F 
 271      6E5F315F 
 272 0121 6E74726F 		.ascii	"ntrolRegister\000\000\002\000\000\000\000\000\000\000"
 272      6C526567 
 272      69737465 
 272      72000002 
 272      00000000 
 273 0138 0000CA00 		.ascii	"\000\000\312\000\000\000Injection_1_WriteCounter\000"
 273      0000496E 
 273      6A656374 
 273      696F6E5F 
 273      315F5772 
 274 0157 00020000 		.ascii	"\000\002\000\000\000\000\000\000\000\000\000\316\000"
ARM GAS  C:\Users\Bruger\AppData\Local\Temp\cc0EqYTp.s 			page 21


 274      00000000 
 274      000000CE 
 274      00
 275 0164 0000496E 		.ascii	"\000\000Injection_1_WritePeriod\000\000\002\000\000"
 275      6A656374 
 275      696F6E5F 
 275      315F5772 
 275      69746550 
 276 0182 00000000 		.ascii	"\000\000\000\000\000\000\000\320\000\000\000Injecti"
 276      000000D0 
 276      00000049 
 276      6E6A6563 
 276      7469
 277 0194 6F6E5F31 		.ascii	"on_1_Stop\000\000\002\000\000\000\000\000\000\000\000"
 277      5F53746F 
 277      70000002 
 277      00000000 
 277      00000000 
 278 01a8 00D20000 		.ascii	"\000\322\000\000\000Injection_1_Enable\000\000\002\000"
 278      00496E6A 
 278      65637469 
 278      6F6E5F31 
 278      5F456E61 
 279 01c3 00000000 		.ascii	"\000\000\000\000\000\000\000\000\324\000\000\000"
 279      00000000 
 279      D4000000 
 280              		.text
 281              		.section	.gnu.lto_.opts,"",%progbits
 282 0000 272D666E 		.ascii	"'-fno-trapv' '-mcpu=cortex-m3' '-mthumb' '-g' '-O3'"
 282      6F2D7472 
 282      61707627 
 282      20272D6D 
 282      6370753D 
 283 0033 20272D66 		.ascii	" '-ffunction-sections' '-finline-functions' '-flto'"
 283      66756E63 
 283      74696F6E 
 283      2D736563 
 283      74696F6E 
 284 0066 20272D66 		.ascii	" '-ffat-lto-objects'\000"
 284      6661742D 
 284      6C746F2D 
 284      6F626A65 
 284      63747327 
 285              		.text
 286              		.cfi_sections	.debug_frame
 287              		.section	.text.Injection_1_SaveConfig,"ax",%progbits
 288              		.align	2
 289              		.global	Injection_1_SaveConfig
 290              		.thumb
 291              		.thumb_func
 292              		.type	Injection_1_SaveConfig, %function
 293              	Injection_1_SaveConfig:
 294              	.LFB0:
 295              		.file 1 "Generated_Source\\PSoC5\\Injection_1_PM.c"
   1:Generated_Source\PSoC5/Injection_1_PM.c **** /*******************************************************************************
   2:Generated_Source\PSoC5/Injection_1_PM.c **** * File Name: Injection_1_PM.c
   3:Generated_Source\PSoC5/Injection_1_PM.c **** * Version 3.30
ARM GAS  C:\Users\Bruger\AppData\Local\Temp\cc0EqYTp.s 			page 22


   4:Generated_Source\PSoC5/Injection_1_PM.c **** *
   5:Generated_Source\PSoC5/Injection_1_PM.c **** * Description:
   6:Generated_Source\PSoC5/Injection_1_PM.c **** *  This file provides the power management source code to API for the
   7:Generated_Source\PSoC5/Injection_1_PM.c **** *  PWM.
   8:Generated_Source\PSoC5/Injection_1_PM.c **** *
   9:Generated_Source\PSoC5/Injection_1_PM.c **** * Note:
  10:Generated_Source\PSoC5/Injection_1_PM.c **** *
  11:Generated_Source\PSoC5/Injection_1_PM.c **** ********************************************************************************
  12:Generated_Source\PSoC5/Injection_1_PM.c **** * Copyright 2008-2014, Cypress Semiconductor Corporation.  All rights reserved.
  13:Generated_Source\PSoC5/Injection_1_PM.c **** * You may use this file only in accordance with the license, terms, conditions,
  14:Generated_Source\PSoC5/Injection_1_PM.c **** * disclaimers, and limitations in the end user license agreement accompanying
  15:Generated_Source\PSoC5/Injection_1_PM.c **** * the software package with which this file was provided.
  16:Generated_Source\PSoC5/Injection_1_PM.c **** *******************************************************************************/
  17:Generated_Source\PSoC5/Injection_1_PM.c **** 
  18:Generated_Source\PSoC5/Injection_1_PM.c **** #include "Injection_1.h"
  19:Generated_Source\PSoC5/Injection_1_PM.c **** 
  20:Generated_Source\PSoC5/Injection_1_PM.c **** static Injection_1_backupStruct Injection_1_backup;
  21:Generated_Source\PSoC5/Injection_1_PM.c **** 
  22:Generated_Source\PSoC5/Injection_1_PM.c **** 
  23:Generated_Source\PSoC5/Injection_1_PM.c **** /*******************************************************************************
  24:Generated_Source\PSoC5/Injection_1_PM.c **** * Function Name: Injection_1_SaveConfig
  25:Generated_Source\PSoC5/Injection_1_PM.c **** ********************************************************************************
  26:Generated_Source\PSoC5/Injection_1_PM.c **** *
  27:Generated_Source\PSoC5/Injection_1_PM.c **** * Summary:
  28:Generated_Source\PSoC5/Injection_1_PM.c **** *  Saves the current user configuration of the component.
  29:Generated_Source\PSoC5/Injection_1_PM.c **** *
  30:Generated_Source\PSoC5/Injection_1_PM.c **** * Parameters:
  31:Generated_Source\PSoC5/Injection_1_PM.c **** *  None
  32:Generated_Source\PSoC5/Injection_1_PM.c **** *
  33:Generated_Source\PSoC5/Injection_1_PM.c **** * Return:
  34:Generated_Source\PSoC5/Injection_1_PM.c **** *  None
  35:Generated_Source\PSoC5/Injection_1_PM.c **** *
  36:Generated_Source\PSoC5/Injection_1_PM.c **** * Global variables:
  37:Generated_Source\PSoC5/Injection_1_PM.c **** *  Injection_1_backup:  Variables of this global structure are modified to
  38:Generated_Source\PSoC5/Injection_1_PM.c **** *  store the values of non retention configuration registers when Sleep() API is
  39:Generated_Source\PSoC5/Injection_1_PM.c **** *  called.
  40:Generated_Source\PSoC5/Injection_1_PM.c **** *
  41:Generated_Source\PSoC5/Injection_1_PM.c **** *******************************************************************************/
  42:Generated_Source\PSoC5/Injection_1_PM.c **** void Injection_1_SaveConfig(void) 
  43:Generated_Source\PSoC5/Injection_1_PM.c **** {
 296              		.loc 1 43 0
 297              		.cfi_startproc
 298              		@ args = 0, pretend = 0, frame = 0
 299              		@ frame_needed = 0, uses_anonymous_args = 0
 300 0000 10B5     		push	{r4, lr}
 301              		.cfi_def_cfa_offset 8
 302              		.cfi_offset 4, -8
 303              		.cfi_offset 14, -4
  44:Generated_Source\PSoC5/Injection_1_PM.c **** 
  45:Generated_Source\PSoC5/Injection_1_PM.c ****     #if(!Injection_1_UsingFixedFunction)
  46:Generated_Source\PSoC5/Injection_1_PM.c ****         #if(!Injection_1_PWMModeIsCenterAligned)
  47:Generated_Source\PSoC5/Injection_1_PM.c ****             Injection_1_backup.PWMPeriod = Injection_1_ReadPeriod();
 304              		.loc 1 47 0
 305 0002 FFF7FEFF 		bl	Injection_1_ReadPeriod
 306              	.LVL0:
 307 0006 064C     		ldr	r4, .L3
 308 0008 A080     		strh	r0, [r4, #4]	@ movhi
ARM GAS  C:\Users\Bruger\AppData\Local\Temp\cc0EqYTp.s 			page 23


  48:Generated_Source\PSoC5/Injection_1_PM.c ****         #endif /* (!Injection_1_PWMModeIsCenterAligned) */
  49:Generated_Source\PSoC5/Injection_1_PM.c ****         Injection_1_backup.PWMUdb = Injection_1_ReadCounter();
 309              		.loc 1 49 0
 310 000a FFF7FEFF 		bl	Injection_1_ReadCounter
 311              	.LVL1:
  50:Generated_Source\PSoC5/Injection_1_PM.c ****         #if (Injection_1_UseStatus)
  51:Generated_Source\PSoC5/Injection_1_PM.c ****             Injection_1_backup.InterruptMaskValue = Injection_1_STATUS_MASK;
 312              		.loc 1 51 0
 313 000e 054B     		ldr	r3, .L3+4
  49:Generated_Source\PSoC5/Injection_1_PM.c ****         #if (Injection_1_UseStatus)
 314              		.loc 1 49 0
 315 0010 6080     		strh	r0, [r4, #2]	@ movhi
 316              		.loc 1 51 0
 317 0012 1B78     		ldrb	r3, [r3]	@ zero_extendqisi2
 318 0014 A371     		strb	r3, [r4, #6]
  52:Generated_Source\PSoC5/Injection_1_PM.c ****         #endif /* (Injection_1_UseStatus) */
  53:Generated_Source\PSoC5/Injection_1_PM.c **** 
  54:Generated_Source\PSoC5/Injection_1_PM.c ****         #if(Injection_1_DeadBandMode == Injection_1__B_PWM__DBM_256_CLOCKS || \
  55:Generated_Source\PSoC5/Injection_1_PM.c ****             Injection_1_DeadBandMode == Injection_1__B_PWM__DBM_2_4_CLOCKS)
  56:Generated_Source\PSoC5/Injection_1_PM.c ****             Injection_1_backup.PWMdeadBandValue = Injection_1_ReadDeadTime();
  57:Generated_Source\PSoC5/Injection_1_PM.c ****         #endif /*  deadband count is either 2-4 clocks or 256 clocks */
  58:Generated_Source\PSoC5/Injection_1_PM.c **** 
  59:Generated_Source\PSoC5/Injection_1_PM.c ****         #if(Injection_1_KillModeMinTime)
  60:Generated_Source\PSoC5/Injection_1_PM.c ****              Injection_1_backup.PWMKillCounterPeriod = Injection_1_ReadKillTime();
  61:Generated_Source\PSoC5/Injection_1_PM.c ****         #endif /* (Injection_1_KillModeMinTime) */
  62:Generated_Source\PSoC5/Injection_1_PM.c **** 
  63:Generated_Source\PSoC5/Injection_1_PM.c ****         #if(Injection_1_UseControl)
  64:Generated_Source\PSoC5/Injection_1_PM.c ****             Injection_1_backup.PWMControlRegister = Injection_1_ReadControlRegister();
 319              		.loc 1 64 0
 320 0016 FFF7FEFF 		bl	Injection_1_ReadControlRegister
 321              	.LVL2:
 322 001a E071     		strb	r0, [r4, #7]
 323 001c 10BD     		pop	{r4, pc}
 324              	.L4:
 325 001e 00BF     		.align	2
 326              	.L3:
 327 0020 00000000 		.word	.LANCHOR0
 328 0024 87640040 		.word	1073767559
 329              		.cfi_endproc
 330              	.LFE0:
 331              		.size	Injection_1_SaveConfig, .-Injection_1_SaveConfig
 332              		.section	.text.Injection_1_RestoreConfig,"ax",%progbits
 333              		.align	2
 334              		.global	Injection_1_RestoreConfig
 335              		.thumb
 336              		.thumb_func
 337              		.type	Injection_1_RestoreConfig, %function
 338              	Injection_1_RestoreConfig:
 339              	.LFB1:
  65:Generated_Source\PSoC5/Injection_1_PM.c ****         #endif /* (Injection_1_UseControl) */
  66:Generated_Source\PSoC5/Injection_1_PM.c ****     #endif  /* (!Injection_1_UsingFixedFunction) */
  67:Generated_Source\PSoC5/Injection_1_PM.c **** }
  68:Generated_Source\PSoC5/Injection_1_PM.c **** 
  69:Generated_Source\PSoC5/Injection_1_PM.c **** 
  70:Generated_Source\PSoC5/Injection_1_PM.c **** /*******************************************************************************
  71:Generated_Source\PSoC5/Injection_1_PM.c **** * Function Name: Injection_1_RestoreConfig
  72:Generated_Source\PSoC5/Injection_1_PM.c **** ********************************************************************************
ARM GAS  C:\Users\Bruger\AppData\Local\Temp\cc0EqYTp.s 			page 24


  73:Generated_Source\PSoC5/Injection_1_PM.c **** *
  74:Generated_Source\PSoC5/Injection_1_PM.c **** * Summary:
  75:Generated_Source\PSoC5/Injection_1_PM.c **** *  Restores the current user configuration of the component.
  76:Generated_Source\PSoC5/Injection_1_PM.c **** *
  77:Generated_Source\PSoC5/Injection_1_PM.c **** * Parameters:
  78:Generated_Source\PSoC5/Injection_1_PM.c **** *  None
  79:Generated_Source\PSoC5/Injection_1_PM.c **** *
  80:Generated_Source\PSoC5/Injection_1_PM.c **** * Return:
  81:Generated_Source\PSoC5/Injection_1_PM.c **** *  None
  82:Generated_Source\PSoC5/Injection_1_PM.c **** *
  83:Generated_Source\PSoC5/Injection_1_PM.c **** * Global variables:
  84:Generated_Source\PSoC5/Injection_1_PM.c **** *  Injection_1_backup:  Variables of this global structure are used to
  85:Generated_Source\PSoC5/Injection_1_PM.c **** *  restore the values of non retention registers on wakeup from sleep mode.
  86:Generated_Source\PSoC5/Injection_1_PM.c **** *
  87:Generated_Source\PSoC5/Injection_1_PM.c **** *******************************************************************************/
  88:Generated_Source\PSoC5/Injection_1_PM.c **** void Injection_1_RestoreConfig(void) 
  89:Generated_Source\PSoC5/Injection_1_PM.c **** {
 340              		.loc 1 89 0
 341              		.cfi_startproc
 342              		@ args = 0, pretend = 0, frame = 0
 343              		@ frame_needed = 0, uses_anonymous_args = 0
 344 0000 10B5     		push	{r4, lr}
 345              		.cfi_def_cfa_offset 8
 346              		.cfi_offset 4, -8
 347              		.cfi_offset 14, -4
  90:Generated_Source\PSoC5/Injection_1_PM.c ****         #if(!Injection_1_UsingFixedFunction)
  91:Generated_Source\PSoC5/Injection_1_PM.c ****             #if(!Injection_1_PWMModeIsCenterAligned)
  92:Generated_Source\PSoC5/Injection_1_PM.c ****                 Injection_1_WritePeriod(Injection_1_backup.PWMPeriod);
 348              		.loc 1 92 0
 349 0002 074C     		ldr	r4, .L7
 350 0004 A088     		ldrh	r0, [r4, #4]
 351 0006 FFF7FEFF 		bl	Injection_1_WritePeriod
 352              	.LVL3:
  93:Generated_Source\PSoC5/Injection_1_PM.c ****             #endif /* (!Injection_1_PWMModeIsCenterAligned) */
  94:Generated_Source\PSoC5/Injection_1_PM.c **** 
  95:Generated_Source\PSoC5/Injection_1_PM.c ****             Injection_1_WriteCounter(Injection_1_backup.PWMUdb);
 353              		.loc 1 95 0
 354 000a 6088     		ldrh	r0, [r4, #2]
 355 000c FFF7FEFF 		bl	Injection_1_WriteCounter
 356              	.LVL4:
  96:Generated_Source\PSoC5/Injection_1_PM.c **** 
  97:Generated_Source\PSoC5/Injection_1_PM.c ****             #if (Injection_1_UseStatus)
  98:Generated_Source\PSoC5/Injection_1_PM.c ****                 Injection_1_STATUS_MASK = Injection_1_backup.InterruptMaskValue;
 357              		.loc 1 98 0
 358 0010 A279     		ldrb	r2, [r4, #6]	@ zero_extendqisi2
 359 0012 044B     		ldr	r3, .L7+4
  99:Generated_Source\PSoC5/Injection_1_PM.c ****             #endif /* (Injection_1_UseStatus) */
 100:Generated_Source\PSoC5/Injection_1_PM.c **** 
 101:Generated_Source\PSoC5/Injection_1_PM.c ****             #if(Injection_1_DeadBandMode == Injection_1__B_PWM__DBM_256_CLOCKS || \
 102:Generated_Source\PSoC5/Injection_1_PM.c ****                 Injection_1_DeadBandMode == Injection_1__B_PWM__DBM_2_4_CLOCKS)
 103:Generated_Source\PSoC5/Injection_1_PM.c ****                 Injection_1_WriteDeadTime(Injection_1_backup.PWMdeadBandValue);
 104:Generated_Source\PSoC5/Injection_1_PM.c ****             #endif /* deadband count is either 2-4 clocks or 256 clocks */
 105:Generated_Source\PSoC5/Injection_1_PM.c **** 
 106:Generated_Source\PSoC5/Injection_1_PM.c ****             #if(Injection_1_KillModeMinTime)
 107:Generated_Source\PSoC5/Injection_1_PM.c ****                 Injection_1_WriteKillTime(Injection_1_backup.PWMKillCounterPeriod);
 108:Generated_Source\PSoC5/Injection_1_PM.c ****             #endif /* (Injection_1_KillModeMinTime) */
 109:Generated_Source\PSoC5/Injection_1_PM.c **** 
ARM GAS  C:\Users\Bruger\AppData\Local\Temp\cc0EqYTp.s 			page 25


 110:Generated_Source\PSoC5/Injection_1_PM.c ****             #if(Injection_1_UseControl)
 111:Generated_Source\PSoC5/Injection_1_PM.c ****                 Injection_1_WriteControlRegister(Injection_1_backup.PWMControlRegister);
 360              		.loc 1 111 0
 361 0014 E079     		ldrb	r0, [r4, #7]	@ zero_extendqisi2
  98:Generated_Source\PSoC5/Injection_1_PM.c ****             #endif /* (Injection_1_UseStatus) */
 362              		.loc 1 98 0
 363 0016 1A70     		strb	r2, [r3]
 112:Generated_Source\PSoC5/Injection_1_PM.c ****             #endif /* (Injection_1_UseControl) */
 113:Generated_Source\PSoC5/Injection_1_PM.c ****         #endif  /* (!Injection_1_UsingFixedFunction) */
 114:Generated_Source\PSoC5/Injection_1_PM.c ****     }
 364              		.loc 1 114 0
 365 0018 BDE81040 		pop	{r4, lr}
 366              		.cfi_restore 14
 367              		.cfi_restore 4
 368              		.cfi_def_cfa_offset 0
 111:Generated_Source\PSoC5/Injection_1_PM.c ****             #endif /* (Injection_1_UseControl) */
 369              		.loc 1 111 0
 370 001c FFF7FEBF 		b	Injection_1_WriteControlRegister
 371              	.LVL5:
 372              	.L8:
 373              		.align	2
 374              	.L7:
 375 0020 00000000 		.word	.LANCHOR0
 376 0024 87640040 		.word	1073767559
 377              		.cfi_endproc
 378              	.LFE1:
 379              		.size	Injection_1_RestoreConfig, .-Injection_1_RestoreConfig
 380              		.section	.text.Injection_1_Sleep,"ax",%progbits
 381              		.align	2
 382              		.global	Injection_1_Sleep
 383              		.thumb
 384              		.thumb_func
 385              		.type	Injection_1_Sleep, %function
 386              	Injection_1_Sleep:
 387              	.LFB2:
 115:Generated_Source\PSoC5/Injection_1_PM.c **** 
 116:Generated_Source\PSoC5/Injection_1_PM.c **** 
 117:Generated_Source\PSoC5/Injection_1_PM.c **** /*******************************************************************************
 118:Generated_Source\PSoC5/Injection_1_PM.c **** * Function Name: Injection_1_Sleep
 119:Generated_Source\PSoC5/Injection_1_PM.c **** ********************************************************************************
 120:Generated_Source\PSoC5/Injection_1_PM.c **** *
 121:Generated_Source\PSoC5/Injection_1_PM.c **** * Summary:
 122:Generated_Source\PSoC5/Injection_1_PM.c **** *  Disables block's operation and saves the user configuration. Should be called
 123:Generated_Source\PSoC5/Injection_1_PM.c **** *  just prior to entering sleep.
 124:Generated_Source\PSoC5/Injection_1_PM.c **** *
 125:Generated_Source\PSoC5/Injection_1_PM.c **** * Parameters:
 126:Generated_Source\PSoC5/Injection_1_PM.c **** *  None
 127:Generated_Source\PSoC5/Injection_1_PM.c **** *
 128:Generated_Source\PSoC5/Injection_1_PM.c **** * Return:
 129:Generated_Source\PSoC5/Injection_1_PM.c **** *  None
 130:Generated_Source\PSoC5/Injection_1_PM.c **** *
 131:Generated_Source\PSoC5/Injection_1_PM.c **** * Global variables:
 132:Generated_Source\PSoC5/Injection_1_PM.c **** *  Injection_1_backup.PWMEnableState:  Is modified depending on the enable
 133:Generated_Source\PSoC5/Injection_1_PM.c **** *  state of the block before entering sleep mode.
 134:Generated_Source\PSoC5/Injection_1_PM.c **** *
 135:Generated_Source\PSoC5/Injection_1_PM.c **** *******************************************************************************/
 136:Generated_Source\PSoC5/Injection_1_PM.c **** void Injection_1_Sleep(void) 
ARM GAS  C:\Users\Bruger\AppData\Local\Temp\cc0EqYTp.s 			page 26


 137:Generated_Source\PSoC5/Injection_1_PM.c **** {
 388              		.loc 1 137 0
 389              		.cfi_startproc
 390              		@ args = 0, pretend = 0, frame = 0
 391              		@ frame_needed = 0, uses_anonymous_args = 0
 392 0000 10B5     		push	{r4, lr}
 393              		.cfi_def_cfa_offset 8
 394              		.cfi_offset 4, -8
 395              		.cfi_offset 14, -4
 138:Generated_Source\PSoC5/Injection_1_PM.c ****     #if(Injection_1_UseControl)
 139:Generated_Source\PSoC5/Injection_1_PM.c ****         if(Injection_1_CTRL_ENABLE == (Injection_1_CONTROL & Injection_1_CTRL_ENABLE))
 396              		.loc 1 139 0
 397 0002 0A4B     		ldr	r3, .L11
 398 0004 0A4C     		ldr	r4, .L11+4
 399 0006 1B78     		ldrb	r3, [r3]	@ zero_extendqisi2
 400 0008 DB09     		lsrs	r3, r3, #7
 401 000a 2370     		strb	r3, [r4]
 140:Generated_Source\PSoC5/Injection_1_PM.c ****         {
 141:Generated_Source\PSoC5/Injection_1_PM.c ****             /*Component is enabled */
 142:Generated_Source\PSoC5/Injection_1_PM.c ****             Injection_1_backup.PWMEnableState = 1u;
 143:Generated_Source\PSoC5/Injection_1_PM.c ****         }
 144:Generated_Source\PSoC5/Injection_1_PM.c ****         else
 145:Generated_Source\PSoC5/Injection_1_PM.c ****         {
 146:Generated_Source\PSoC5/Injection_1_PM.c ****             /* Component is disabled */
 147:Generated_Source\PSoC5/Injection_1_PM.c ****             Injection_1_backup.PWMEnableState = 0u;
 148:Generated_Source\PSoC5/Injection_1_PM.c ****         }
 149:Generated_Source\PSoC5/Injection_1_PM.c ****     #endif /* (Injection_1_UseControl) */
 150:Generated_Source\PSoC5/Injection_1_PM.c **** 
 151:Generated_Source\PSoC5/Injection_1_PM.c ****     /* Stop component */
 152:Generated_Source\PSoC5/Injection_1_PM.c ****     Injection_1_Stop();
 402              		.loc 1 152 0
 403 000c FFF7FEFF 		bl	Injection_1_Stop
 404              	.LVL6:
 405              	.LBB4:
 406              	.LBB5:
  47:Generated_Source\PSoC5/Injection_1_PM.c ****         #endif /* (!Injection_1_PWMModeIsCenterAligned) */
 407              		.loc 1 47 0
 408 0010 FFF7FEFF 		bl	Injection_1_ReadPeriod
 409              	.LVL7:
 410 0014 A080     		strh	r0, [r4, #4]	@ movhi
  49:Generated_Source\PSoC5/Injection_1_PM.c ****         #if (Injection_1_UseStatus)
 411              		.loc 1 49 0
 412 0016 FFF7FEFF 		bl	Injection_1_ReadCounter
 413              	.LVL8:
  51:Generated_Source\PSoC5/Injection_1_PM.c ****         #endif /* (Injection_1_UseStatus) */
 414              		.loc 1 51 0
 415 001a 064B     		ldr	r3, .L11+8
  49:Generated_Source\PSoC5/Injection_1_PM.c ****         #if (Injection_1_UseStatus)
 416              		.loc 1 49 0
 417 001c 6080     		strh	r0, [r4, #2]	@ movhi
  51:Generated_Source\PSoC5/Injection_1_PM.c ****         #endif /* (Injection_1_UseStatus) */
 418              		.loc 1 51 0
 419 001e 1B78     		ldrb	r3, [r3]	@ zero_extendqisi2
 420 0020 A371     		strb	r3, [r4, #6]
  64:Generated_Source\PSoC5/Injection_1_PM.c ****         #endif /* (Injection_1_UseControl) */
 421              		.loc 1 64 0
 422 0022 FFF7FEFF 		bl	Injection_1_ReadControlRegister
ARM GAS  C:\Users\Bruger\AppData\Local\Temp\cc0EqYTp.s 			page 27


 423              	.LVL9:
 424 0026 E071     		strb	r0, [r4, #7]
 425 0028 10BD     		pop	{r4, pc}
 426              	.L12:
 427 002a 00BF     		.align	2
 428              	.L11:
 429 002c 77640040 		.word	1073767543
 430 0030 00000000 		.word	.LANCHOR0
 431 0034 87640040 		.word	1073767559
 432              	.LBE5:
 433              	.LBE4:
 434              		.cfi_endproc
 435              	.LFE2:
 436              		.size	Injection_1_Sleep, .-Injection_1_Sleep
 437              		.section	.text.Injection_1_Wakeup,"ax",%progbits
 438              		.align	2
 439              		.global	Injection_1_Wakeup
 440              		.thumb
 441              		.thumb_func
 442              		.type	Injection_1_Wakeup, %function
 443              	Injection_1_Wakeup:
 444              	.LFB3:
 153:Generated_Source\PSoC5/Injection_1_PM.c **** 
 154:Generated_Source\PSoC5/Injection_1_PM.c ****     /* Save registers configuration */
 155:Generated_Source\PSoC5/Injection_1_PM.c ****     Injection_1_SaveConfig();
 156:Generated_Source\PSoC5/Injection_1_PM.c **** }
 157:Generated_Source\PSoC5/Injection_1_PM.c **** 
 158:Generated_Source\PSoC5/Injection_1_PM.c **** 
 159:Generated_Source\PSoC5/Injection_1_PM.c **** /*******************************************************************************
 160:Generated_Source\PSoC5/Injection_1_PM.c **** * Function Name: Injection_1_Wakeup
 161:Generated_Source\PSoC5/Injection_1_PM.c **** ********************************************************************************
 162:Generated_Source\PSoC5/Injection_1_PM.c **** *
 163:Generated_Source\PSoC5/Injection_1_PM.c **** * Summary:
 164:Generated_Source\PSoC5/Injection_1_PM.c **** *  Restores and enables the user configuration. Should be called just after
 165:Generated_Source\PSoC5/Injection_1_PM.c **** *  awaking from sleep.
 166:Generated_Source\PSoC5/Injection_1_PM.c **** *
 167:Generated_Source\PSoC5/Injection_1_PM.c **** * Parameters:
 168:Generated_Source\PSoC5/Injection_1_PM.c **** *  None
 169:Generated_Source\PSoC5/Injection_1_PM.c **** *
 170:Generated_Source\PSoC5/Injection_1_PM.c **** * Return:
 171:Generated_Source\PSoC5/Injection_1_PM.c **** *  None
 172:Generated_Source\PSoC5/Injection_1_PM.c **** *
 173:Generated_Source\PSoC5/Injection_1_PM.c **** * Global variables:
 174:Generated_Source\PSoC5/Injection_1_PM.c **** *  Injection_1_backup.pwmEnable:  Is used to restore the enable state of
 175:Generated_Source\PSoC5/Injection_1_PM.c **** *  block on wakeup from sleep mode.
 176:Generated_Source\PSoC5/Injection_1_PM.c **** *
 177:Generated_Source\PSoC5/Injection_1_PM.c **** *******************************************************************************/
 178:Generated_Source\PSoC5/Injection_1_PM.c **** void Injection_1_Wakeup(void) 
 179:Generated_Source\PSoC5/Injection_1_PM.c **** {
 445              		.loc 1 179 0
 446              		.cfi_startproc
 447              		@ args = 0, pretend = 0, frame = 0
 448              		@ frame_needed = 0, uses_anonymous_args = 0
 449 0000 10B5     		push	{r4, lr}
 450              		.cfi_def_cfa_offset 8
 451              		.cfi_offset 4, -8
 452              		.cfi_offset 14, -4
ARM GAS  C:\Users\Bruger\AppData\Local\Temp\cc0EqYTp.s 			page 28


 453              	.LBB8:
 454              	.LBB9:
  92:Generated_Source\PSoC5/Injection_1_PM.c ****             #endif /* (!Injection_1_PWMModeIsCenterAligned) */
 455              		.loc 1 92 0
 456 0002 0A4C     		ldr	r4, .L18
 457 0004 A088     		ldrh	r0, [r4, #4]
 458 0006 FFF7FEFF 		bl	Injection_1_WritePeriod
 459              	.LVL10:
  95:Generated_Source\PSoC5/Injection_1_PM.c **** 
 460              		.loc 1 95 0
 461 000a 6088     		ldrh	r0, [r4, #2]
 462 000c FFF7FEFF 		bl	Injection_1_WriteCounter
 463              	.LVL11:
  98:Generated_Source\PSoC5/Injection_1_PM.c ****             #endif /* (Injection_1_UseStatus) */
 464              		.loc 1 98 0
 465 0010 074B     		ldr	r3, .L18+4
 466 0012 A279     		ldrb	r2, [r4, #6]	@ zero_extendqisi2
 111:Generated_Source\PSoC5/Injection_1_PM.c ****             #endif /* (Injection_1_UseControl) */
 467              		.loc 1 111 0
 468 0014 E079     		ldrb	r0, [r4, #7]	@ zero_extendqisi2
  98:Generated_Source\PSoC5/Injection_1_PM.c ****             #endif /* (Injection_1_UseStatus) */
 469              		.loc 1 98 0
 470 0016 1A70     		strb	r2, [r3]
 111:Generated_Source\PSoC5/Injection_1_PM.c ****             #endif /* (Injection_1_UseControl) */
 471              		.loc 1 111 0
 472 0018 FFF7FEFF 		bl	Injection_1_WriteControlRegister
 473              	.LVL12:
 474              	.LBE9:
 475              	.LBE8:
 180:Generated_Source\PSoC5/Injection_1_PM.c ****      /* Restore registers values */
 181:Generated_Source\PSoC5/Injection_1_PM.c ****     Injection_1_RestoreConfig();
 182:Generated_Source\PSoC5/Injection_1_PM.c **** 
 183:Generated_Source\PSoC5/Injection_1_PM.c ****     if(Injection_1_backup.PWMEnableState != 0u)
 476              		.loc 1 183 0
 477 001c 2378     		ldrb	r3, [r4]	@ zero_extendqisi2
 478 001e 03B9     		cbnz	r3, .L17
 479 0020 10BD     		pop	{r4, pc}
 480              	.L17:
 184:Generated_Source\PSoC5/Injection_1_PM.c ****     {
 185:Generated_Source\PSoC5/Injection_1_PM.c ****         /* Enable component's operation */
 186:Generated_Source\PSoC5/Injection_1_PM.c ****         Injection_1_Enable();
 187:Generated_Source\PSoC5/Injection_1_PM.c ****     } /* Do nothing if component's block was disabled before */
 188:Generated_Source\PSoC5/Injection_1_PM.c **** 
 189:Generated_Source\PSoC5/Injection_1_PM.c **** }
 481              		.loc 1 189 0
 482 0022 BDE81040 		pop	{r4, lr}
 483              		.cfi_restore 14
 484              		.cfi_restore 4
 485              		.cfi_def_cfa_offset 0
 186:Generated_Source\PSoC5/Injection_1_PM.c ****     } /* Do nothing if component's block was disabled before */
 486              		.loc 1 186 0
 487 0026 FFF7FEBF 		b	Injection_1_Enable
 488              	.LVL13:
 489              	.L19:
 490 002a 00BF     		.align	2
 491              	.L18:
 492 002c 00000000 		.word	.LANCHOR0
ARM GAS  C:\Users\Bruger\AppData\Local\Temp\cc0EqYTp.s 			page 29


 493 0030 87640040 		.word	1073767559
 494              		.cfi_endproc
 495              	.LFE3:
 496              		.size	Injection_1_Wakeup, .-Injection_1_Wakeup
 497              		.bss
 498              		.align	2
 499              		.set	.LANCHOR0,. + 0
 500              		.type	Injection_1_backup, %object
 501              		.size	Injection_1_backup, 8
 502              	Injection_1_backup:
 503 0000 00000000 		.space	8
 503      00000000 
 504              		.text
 505              	.Letext0:
 506              		.file 2 "Generated_Source\\PSoC5\\cytypes.h"
 507              		.file 3 "Generated_Source\\PSoC5\\Injection_1.h"