ARM GAS  C:\Users\Bruger\AppData\Local\Temp\ccmKeERp.s 			page 1


   1              		.syntax unified
   2              		.cpu cortex-m3
   3              		.fpu softvfp
   4              		.eabi_attribute 20, 1
   5              		.eabi_attribute 21, 1
   6              		.eabi_attribute 23, 3
   7              		.eabi_attribute 24, 1
   8              		.eabi_attribute 25, 1
   9              		.eabi_attribute 26, 1
  10              		.eabi_attribute 30, 2
  11              		.eabi_attribute 34, 1
  12              		.eabi_attribute 18, 4
  13              		.thumb
  14              		.file	"itoa.cpp"
  15              		.text
  16              	.Ltext0:
  17              		.section	.gnu.lto_.profile.24bfc8c1,"",%progbits
  18 0000 789C6366 		.ascii	"x\234cf```e\200\000F\206vF_\000\002n\000\337"
  18      60606065 
  18      80004686 
  18      76465F00 
  18      026E00DF 
  19              		.text
  20              		.section	.gnu.lto_.jmpfuncs.24bfc8c1,"",%progbits
  21 0000 789C6366 		.ascii	"x\234cf\300\016\334\2404\013\0033###{}}=#\230\001\304"
  21      C00EDCA0 
  21      340B0333 
  21      2323237B 
  21      7D7D3D23 
  22 0017 CCCCE540 		.ascii	"\314\314\345@\011\346rFF \301\304\300\300\004S\301\214"
  22      09E67246 
  22      4620C1C4 
  22      C0C00453 
  22      C18C
  23 0029 4B050300 		.ascii	"K\005\003\000\367T\006r"
  23      F7540672 
  24              		.text
  25              		.section	.gnu.lto_.inline.24bfc8c1,"",%progbits
  26 0000 789C7D8E 		.ascii	"x\234}\216?\016\001a\020\305\337\314~\326\330B\266&"
  26      3F0E0161 
  26      10C5DFCC 
  26      7ED6D842 
  26      B626
  27 0012 B2B61389 		.ascii	"\262\266\023\211\312!D\343\024\022\334b\365$\012\211"
  27      CA2144E3 
  27      1412DC62 
  27      F5240A89 
  28 0022 762B7F8E 		.ascii	"v+\177\216 \032\027@\266\320\021\215BK\205\312|+\022"
  28      201A1740 
  28      B6D0118D 
  28      424B85CA 
  28      7C2B12
  29 0035 857893C9 		.ascii	"\205x\223\311/\231\227\2317\016~\253Ho\032\204\225\275"
  29      2F999799 
  29      370E7EAB 
  29      486F1A84 
  29      95BD
ARM GAS  C:\Users\Bruger\AppData\Local\Temp\ccmKeERp.s 			page 2


  30 0047 A11C75AF 		.ascii	"\241\034u\257L\247\363.\221\013?X\015\232Q\001\324K"
  30      4CA7F32E 
  30      910B3F58 
  30      0D9A5101 
  30      D44B
  31 0059 C1D61C3E 		.ascii	"\301\326\034>\257\233\2745\311\003\315\355\264\227\002"
  31      AF9BBC35 
  31      C903CDED 
  31      B49702
  32 0068 6D35FBD3 		.ascii	"m5\373\323\325 kM]\245\205\235vR\220\306\260\215\322"
  32      D5206B4D 
  32      5DA5859D 
  32      765290C6 
  32      B08DD2
  33 007b CE29DC38 		.ascii	"\316)\3348`\2308\210\030\336\272\031\031\2019d#\361"
  33      60983888 
  33      18DEBA19 
  33      19813964 
  33      23F1
  34 008d 05F563D2 		.ascii	"\005\365c\322\020\360\315\215\344\015\026\320\322\021"
  34      10F0CD8D 
  34      E40D16D0 
  34      D211
  35 009b FB8B6E8B 		.ascii	"\373\213n\213O\340\317\001U&\0178\243\226-\016K[C\206"
  35      4FE0CF01 
  35      55260F38 
  35      A3962D0E 
  35      4B5B4386 
  36 00af BADF2F7F 		.ascii	"\272\337/\177\2023_\241>\334{\255,\250\216'\032\245"
  36      82335FA1 
  36      3EDC7BAD 
  36      2CA88E27 
  36      1AA5
  37 00c1 72FE9DC5 		.ascii	"r\376\235\305\0139\2214\237"
  37      0B399134 
  37      9F
  38              		.text
  39              		.section	.gnu.lto_.pureconst.24bfc8c1,"",%progbits
  40 0000 789C6366 		.ascii	"x\234cf``\340d\200\000\026\006)F\011&)f\011\000\002"
  40      6060E064 
  40      80001606 
  40      29460926 
  40      29660900 
  41 0015 B9007B   		.ascii	"\271\000{"
  42              		.text
  43              		.section	.gnu.lto__Z4ltoalPci.24bfc8c1,"",%progbits
  44 0000 789C8D56 		.ascii	"x\234\215V[p\024U\020\275}\357\354\354\356\354{7\233"
  44      5B701455 
  44      10BD7DEF 
  44      ECECEEEC 
  44      7B379B
  45 0013 A5124021 		.ascii	"\245\022@!\006HR>\252TJ\377\364\317O?\254\362\307\037"
  45      0648523E 
  45      AA544AFF 
  45      F4CF4F3F 
  45      ACF2C71F 
  46 0027 044A53A5 		.ascii	"\004JS\245\220\002\244\370I9dC\202\232\024\026RE\024"
ARM GAS  C:\Users\Bruger\AppData\Local\Temp\ccmKeERp.s 			page 3


  46      9002A4F8 
  46      49396443 
  46      829A1416 
  46      524514
  47 003a 5190F73B 		.ascii	"Q\220\367;\274$<$K\204$`\010\202\230\004\324\020!\240"
  47      BC243C24 
  47      4B842460 
  47      08829804 
  47      D41021A0 
  48 004e 285405C1 		.ascii	"(T\005\301\254\341\221\265\273\357\0207!P\356\307\354"
  48      ACE191B5 
  48      BBEF1037 
  48      2150EEC7 
  48      EC
  49 005f F4BDDDA7 		.ascii	"\364\275\335\247Ow\237;3J<\370{\026\204\370\331\022"
  49      4F779F3B 
  49      334A3CF8 
  49      7B1684F8 
  49      D912
  50 0071 622ADEC3 		.ascii	"b*\336\303\030\001\362\343v!\026z\244L\244@\330\226"
  50      1801F2E3 
  50      7621167A 
  50      A44CA440 
  50      D896
  51 0083 FABE4D08 		.ascii	"\372\276M\010\333\257d\342w7\232\306\306f2\015\351\352"
  51      DBAF64E2 
  51      77379AC6 
  51      C666320D 
  51      E9EA
  52 0095 8BA369AE 		.ascii	"\213\243i\256z\001-\227t\327\260U\371\"Z&\2705\204["
  52      7A012D97 
  52      74D7B055 
  52      F9225A26 
  52      B835845B 
  53 00a9 7A164FC6 		.ascii	"z\026O\306e\213\256~\017x\365\262\027Bt\003\326\375"
  53      658BAE7E 
  53      0F78F5B2 
  53      17427403 
  53      D6FD
  54 00bb 059FF4B3 		.ascii	"\005\237\364\263_\200\375\374\020\324\313\201\3737A"
  54      5F80FDFC 
  54      10D4CB81 
  54      FB3741
  55 00ca 1DF07248 		.ascii	"\035\360rH\372\330/\314~a\351\253iA.V\244\022\211\371"
  55      FAD82FCC 
  55      7E61E9AB 
  55      69412E56 
  55      A41289F9 
  56 00de 2332CA9B 		.ascii	"#2\312\2331\336\214BL\307\306 \316\311r\364\377\021"
  56      31DE8C42 
  56      4CC7C620 
  56      CEC972F4 
  56      FF11
  57 00f0 4F5CE6E8 		.ascii	"O\\\346\350\260\\\016\313\205\204vL\000\320\215\000"
  57      B05C0ECB 
  57      8584764C 
  57      00D08D00 
ARM GAS  C:\Users\Bruger\AppData\Local\Temp\ccmKeERp.s 			page 4


  58 0100 F1BE5486 		.ascii	"\361\276T\206\313t{\274\226\317\037\010\206\302\221"
  58      CB747BBC 
  58      96CF1F08 
  58      86C291
  59 010f 682C279E 		.ascii	"h,'\236\233\200\367UHw,. \203?m]\2257$\354\337~\353"
  59      9B80F755 
  59      48772C2E 
  59      20833F6D 
  59      5D953724 
  60 0127 A4EF7739 		.ascii	"\244\357w9 \305\343\002\315\003K[\353L2\301 \263\263"
  60      20C5E302 
  60      CD034B5B 
  60      EB4C32C1 
  60      20B3B3
  61 013a A3AED33B 		.ascii	"\243\256\323;y\235mW\3645Uw\373\027\2752 \245\270)\005"
  61      799D6D57 
  61      F4355577 
  61      FB17BD32 
  61      20A5B829 
  62 014f 6C803CD8 		.ascii	"l\200<\330\010y\224u\023LF\317\233[\354eJE\200\242\316"
  62      08799475 
  62      134C46CF 
  62      9B5BEC65 
  62      4A4580A2 
  63 0164 7DD8D81E 		.ascii	"}\330\330\036(\\c\333vj\377.\373%c@*\330\014*;\016\227"
  63      285C63DB 
  63      766AFF2E 
  63      FB256340 
  63      2AD80C2A 
  64 017b 046C8142 		.ascii	"\004l\201B\364\336\320t\365#\237Jpd\357\206\2257L\212"
  64      F4DED074 
  64      F5239F4A 
  64      7064EF86 
  64      95374C8A 
  65 018f AC48B5EB 		.ascii	"\254H\265\353H\011[GF\242\261\215#\233\226\325v\032"
  65      48095B47 
  65      46A2B18D 
  65      239B96D5 
  65      761A
  66 01a1 6A3C4736 		.ascii	"j<G6\256\276\2639\244s\376\241#\015\330>2\322\020\260"
  66      AEBEB339 
  66      A473FEA1 
  66      230DD83E 
  66      32D210B0 
  67 01b5 030AC9FD 		.ascii	"\003\012\311\375F\345\275N\237Y\211\356a\252\007\313"
  67      46E5BD4E 
  67      9F5989EE 
  67      61AA07CB 
  68 01c5 A80713E5 		.ascii	"\250\007\023\345\344\302\275\277\026m\272\352SO0l\177"
  68      E4C2BDBF 
  68      166DBAEA 
  68      534F306C 
  68      7F
  69 01d6 A6678587 		.ascii	"\246g\205\207\333\263X\222}\346\346\262\215\334.\230"
  69      DBB35892 
  69      7DE6E6B2 
  69      8DDC2E98 
ARM GAS  C:\Users\Bruger\AppData\Local\Temp\ccmKeERp.s 			page 5


  70 01e6 40E6E98B 		.ascii	"@\346\351\213W\336,Xm\247\354\236\303\365F\252r\225"
  70      57DE2C58 
  70      6DA7EC9E 
  70      C3F546AA 
  70      7295
  71 01f8 3D98C9C0 		.ascii	"=\230\311\300\200t\301N\235z\027\246\336\315m\242\037"
  71      8074C14E 
  71      9D7A17A6 
  71      DECD6DA2 
  71      1F
  72 0209 EC81020C 		.ascii	"\354\201\002\014Z\230\252=\033PS\030?\331\260\260\321"
  72      5A98AA3D 
  72      1B505318 
  72      3FD9B0B0 
  72      D1
  73 021a 8F087645 		.ascii	"\217\010vEO\343\256\031\377!H\330;\234\274\203\3605"
  73      4FE3AE19 
  73      FF2148D8 
  73      3B9CBC83 
  73      F035
  74 022c 23DCAADE 		.ascii	"#\334\252\336\361\223[\2250\302\235\356\265\015^B\260"
  74      F1935B95 
  74      30C29DEE 
  74      B50D5E42 
  74      B0
  75 023d 7B5AEBB3 		.ascii	"{Z\353\263\020\024\354\033\025\241\201\021\272w\235"
  75      1014EC1B 
  75      15A18111 
  75      BA779D
  76 024c 3E16524F 		.ascii	">\026RO2B\337\232L\265Os8~&\013\301\204\375\243\"\034"
  76      3242DF9A 
  76      4CB54F73 
  76      387E260B 
  76      C184FDA3 
  77 0262 608433F7 		.ascii	"`\2043\367Z?\361\253\247\031\241\271\277'_S8\261\335"
  77      5A3FF1AB 
  77      A719A1B9 
  77      BF275F53 
  77      38B1DD
  78 0275 6CB52B7B 		.ascii	"l\265+{2\231\307h\000\007G\215?\004\005;\242);\223\271"
  78      3299C768 
  78      0007478D 
  78      3F04053B 
  78      A2293B93 
  79 028a F9C59106 		.ascii	"\371\305\221\006\023\021\250*\311W\305\350\006\017\330"
  79      1311A82A 
  79      C957C5E8 
  79      060FD8
  80 0299 45A336F1 		.ascii	"E\2436\361\342\266\200l?\320\360\002\270\340\011\322"
  80      E2B6806C 
  80      3FD0F002 
  80      B8E009D2 
  81 02a9 250424A0 		.ascii	"%\004$\2400GD8:\312\3301^\311!\211\305\3716\227\341"
  81      30474438 
  81      3ACAD831 
  81      5EC92189 
  81      C5F93697 
ARM GAS  C:\Users\Bruger\AppData\Local\Temp\ccmKeERp.s 			page 6


  82 02be 12B8608E 		.ascii	"\022\270`\216\341\372\363x9\237c\306\362u\034nz\307"
  82      E1FAF378 
  82      399F63C6 
  82      F2751C6E 
  82      7AC7
  83 02d0 D36502DB 		.ascii	"\323e\002\333\023\351\266\200.\205\354;\211!\246\360"
  83      13E9B680 
  83      2E85EC3B 
  83      8921A6F0 
  84 02e0 5E11DF17 		.ascii	"^\021\337\027\363}\011\271\010\321\213\012\032T\342"
  84      F37D09B9 
  84      08D18B0A 
  84      1A54E2
  85 02ef 324A7350 		.ascii	"2JsP\251\016\250He\026`[\276\252_\271\310R\317q\213"
  85      A90EA848 
  85      6516605B 
  85      BEAA5FB9 
  85      C852CF71 
  86 0304 EA6BFF6E 		.ascii	"\352k\377n\002\335\344\357\206\017\372\233\321\2324"
  86      02DDE4EF 
  86      860FFA9B 
  86      D19A34
  87 0313 5CA2241C 		.ascii	"\\\242$\034JG\344\211\016\225\011\207\241\200U\213\035"
  87      4A47E489 
  87      0E950987 
  87      A180558B 
  87      1D
  88 0324 6D44ED6A 		.ascii	"mD\355je\\\252\255\336/\313\357`\220g@Z\024\207\333"
  88      655CAAAD 
  88      DE2FCBEF 
  88      60906740 
  88      5A1487DB 
  89 0338 2928173F 		.ascii	")(\027?BeWr_\036\271\246\245\205\236\027zO\235fe#w8"
  89      42655772 
  89      5F1EB9A6 
  89      A5859E17 
  89      7A4F9D66 
  90 0350 E224BE8C 		.ascii	"\342$\276\214\307\362\226R\347\241\242\273\272c\235"
  90      C7F29652 
  90      E7A1A2BB 
  90      BA639D
  91 035f 4B7B07D2 		.ascii	"K{\007\322\322/\316Cr\251\251\355 .Q\252\306\236\001"
  91      D22FCE43 
  91      72A9A9ED 
  91      202E51AA 
  91      C69E01
  92 0372 8B003C83 		.ascii	"\213\000<\203\374H\201&\004\3014\355\311\240\343\207"
  92      FC488126 
  92      04C134ED 
  92      C9A0E387 
  93 0382 4EBF341F 		.ascii	"N\2774\037h5\330i\242\200o\207\262\030\242I)\246\224"
  93      6835D869 
  93      A2806F87 
  93      B218A249 
  93      29A694
  94 0395 B92DB5B7 		.ascii	"\271-\265\267\037\275ko\3378\031$o\303\022pt\310\333"
  94      1FBD6B6F 
ARM GAS  C:\Users\Bruger\AppData\Local\Temp\ccmKeERp.s 			page 7


  94      DF381924 
  94      6FC31270 
  94      74C8DB
  95 03a8 25060579 		.ascii	"%\006\005y\267)\355\032\242C\264\376`\215\233\\\025"
  95      B729ED1A 
  95      A243B4FE 
  95      608D9B5C 
  95      15
  96 03b9 D23FE6B8 		.ascii	"\322?\346\270\366\242^V)uY\272\011\037\253\350\252\356"
  96      F6A25E56 
  96      297559BA 
  96      091FABE8 
  96      AAEE
  97 03cb 35744C34 		.ascii	"5tL4\215{\035\300\311\250}\270Bd\317%\327\344;\016\244"
  97      8D7B1DC0 
  97      C9A87DB8 
  97      4264CF25 
  97      D7E43B0E 
  98 03e0 0BFC5D01 		.ascii	"\013\374]\001\223\016\366g\353\223!\202w\243<\233!\317"
  98      930EF667 
  98      EB932182 
  98      77A33C9B 
  98      21CF
  99 03f2 75F74F5F 		.ascii	"u\367O_v\323\334\230\265\005\362L\242\347\021\277\002"
  99      76D3DC98 
  99      B505F24C 
  99      A2E711BF 
  99      02
 100 0403 253B5BD5 		.ascii	"%;[\325\321\3570\314A\222\202\272\350\326v\034\227\206"
 100      D1EF30CC 
 100      419282BA 
 100      E8D6761C 
 100      9786
 101 0415 B21FA0EC 		.ascii	"\262\037\240\354q\256\314\213<\001SF\0366\272V(\367"
 101      71AECC8B 
 101      3C015346 
 101      1E36BA56 
 101      28F7
 102 0427 DC6D713F 		.ascii	"\334mq?l\3738\224[\030\036F<\317\326\353\356\264\214"
 102      6CFB3894 
 102      5B181E46 
 102      3CCFD6EB 
 102      EEB48C
 103 043a 59D7B685 		.ascii	"Y\327\266\205\020\330r8\335'\020#B\303\010\304\230\200"
 103      10D87238 
 103      DD271023 
 103      42C308C4 
 103      9880
 104 044c 4FB49F10 		.ascii	"O\264\237\020\350\230\334S\325\275\317!\237HK\205#f"
 104      E898DC53 
 104      D5BDCF21 
 104      9F484B85 
 104      2366
 105 045e FED5679D 		.ascii	"\376\325g\235\361\214\301\365!\200\006\002\030C\232"
 105      F18CC1F5 
 105      21800602 
 105      18439A
ARM GAS  C:\Users\Bruger\AppData\Local\Temp\ccmKeERp.s 			page 8


 106 046d F8BCEAA2 		.ascii	"\370\274\352\242\223!\317\211\032\226\204\005q2\231"
 106      9321CF89 
 106      1A968405 
 106      713299
 107 047c 2E7140B0 		.ascii	".q@\260\216\256\326\345\317\363\334\274\002N\014\215"
 107      8EAED6E5 
 107      CFF3DCBC 
 107      024E0C8D 
 108 048c D82F3614 		.ascii	"\330/6\024\022\215\272\252\376\026Gvc\323\022\240(o"
 108      128DBAAA 
 108      FE164776 
 108      63D312A0 
 108      286F
 109 049e 08F06B02 		.ascii	"\010\360k\002\034K\254\272\234\224\343\210S\2260\307"
 109      1C4BACBA 
 109      9C94E388 
 109      539630C7 
 110 04ae E31266B8 		.ascii	"\343\022f\270\270$y\336K)\274\317\010\370\016S`\310"
 110      B82479DE 
 110      4B29BCCF 
 110      08F80E53 
 110      60C8
 111 04c0 522017DC 		.ascii	"R \027\334\334\373\317\227\327\003+a\005\036=/%`\345"
 111      DCFBCF97 
 111      D7032B61 
 111      051E3D2F 
 111      2560E5
 112 04d3 431BAC04 		.ascii	"C\033\254\004\214g*\201!*\315u\3635\360\204\321\250"
 112      8C672A81 
 112      212ACD75 
 112      F335F084 
 112      D1A8
 113 04e5 4CC8A632 		.ascii	"L\310\2462q\004\025\334\237\210\331\226WwlbA{_\027p"
 113      710415DC 
 113      9F88D996 
 113      57776C62 
 113      417B5F17 
 114 04fa F27F5169 		.ascii	"\362\177Qig*\005L%\310\323\301\001O\301t\001\201\345"
 114      672A054C 
 114      25C8D3C1 
 114      014FC174 
 114      0181E5
 115 050d FBAF2DF1 		.ascii	"\373\257-\361]\201B\354l\240\355\224\205\177~\362\013"
 115      5D8142EC 
 115      6CA0ED94 
 115      857F7EF2 
 115      0B
 116 051e 09FC0000 		.ascii	"\011\374\000\000|\356\350\247!NBh\203\211\202\026\372"
 116      7CEEE8A7 
 116      214E4268 
 116      83898216 
 116      FA
 117 052f 6F8ED055 		.ascii	"o\216\320U\366\351\241\247\307)p\204\217y#^\274L\011"
 117      F6E9A1A7 
 117      C7297084 
 117      8F79235E 
 117      BC4C09
ARM GAS  C:\Users\Bruger\AppData\Local\Temp\ccmKeERp.s 			page 9


 118 0542 C215C061 		.ascii	"\302\025\300a\206\311(\014\002f\010\213\305\223\365"
 118      86C9280C 
 118      0266088B 
 118      C593F5
 119 0551 819DE3B0 		.ascii	"\201\235\343\260\037U\217\337C9\345\3233\215\320!\244"
 119      1F558FDF 
 119      4339E5D3 
 119      338DD021 
 119      A4
 120 0562 87E1F2AA 		.ascii	"\207\341\362\252\020\267\3550\261\2614\233}5j\370\271"
 120      10B7ED30 
 120      B1B1349B 
 120      7D356AF8 
 120      B9
 121 0573 C380A816 		.ascii	"\303\200\250\026-\211\240\356U\275;\011\003\262;\317"
 121      2D89A0EE 
 121      55BD3B09 
 121      03B23BCF 
 122 0583 1093A88D 		.ascii	"\020\223\250\215e\243v\321r\272x\032\273HO\340K\233"
 122      65A376D1 
 122      72BA781A 
 122      BB484FE0 
 122      4B9B
 123 0595 5B14F7FF 		.ascii	"[\024\367\377I\001g\270\316\313\250|\344\205\345\346"
 123      490167B8 
 123      CECBA87C 
 123      E485E5E6 
 124 05a5 23D52856 		.ascii	"#\325(V\010\021,7\027a\243\330a+rh\347\002t\312\021"
 124      08112C37 
 124      1761A3D8 
 124      612B7268 
 124      E70274CA 
 125 05ba CD058E0A 		.ascii	"\315\005\216\012>}Ms)J\343+m$\227\"\232z\2353\365\342"
 125      3E7D4D73 
 125      294AE32B 
 125      6D249722 
 125      9A7A9D33 
 126 05d0 B4A46FAA 		.ascii	"\264\244o\252\013+\006\326\262\000\235\217-\370\001"
 126      0B2B06D6 
 126      B2009D8F 
 126      2DF801
 127 05df 4668A798 		.ascii	"Fh\247\230*\350\267tT\311\003U\024;U\234\305*\036!\031"
 127      2AE8B774 
 127      54C90355 
 127      143B559C 
 127      C52A1E21 
 128 05f4 C371FB91 		.ascii	"\303q\373\221%S\302\305\305qP\216\022\230\237\221\255"
 128      2553C2C5 
 128      C571508E 
 128      12989F91 
 128      AD
 129 0605 0449BD6F 		.ascii	"\004I\275oK6\352\336?l\210\0354D\251%!\3232?\206\340"
 129      4B36EADE 
 129      3F6C881D 
 129      3444A925 
 129      21D3323F 
 130 061b C53935BB 		.ascii	"\30595\2737b\233\214\264\314%\273(\207\222\345:\217"
ARM GAS  C:\Users\Bruger\AppData\Local\Temp\ccmKeERp.s 			page 10


 130      37629B8C 
 130      B4CC25BB 
 130      288792E5 
 130      3A8F
 131 062d D9BEBEB6 		.ascii	"\331\276\276\266\325\352\221\024;\365<\206\236\237\370"
 131      D5EA9114 
 131      3BF53C86 
 131      9E9FF8
 132 063c D2842E67 		.ascii	"\322\204.g\036\011zi\236\207\246.>\370\316G\222}\344"
 132      1E097A69 
 132      9E87A62E 
 132      3EF8CE47 
 132      927DE4
 133 064f 5CDA9CBA 		.ascii	"\\\332\234\272\307^L\237S\002\316\301T\321\015\013\303"
 133      C75E4C9F 
 133      5302CEC1 
 133      54D10D0B 
 133      C3
 134 0660 382117F1 		.ascii	"8!\027\361r\021\256\274\373\201\233\376\325Q\037\016"
 134      7211AEBC 
 134      FB819BFE 
 134      D5511F0E 
 135 0670 2EF7D0EE 		.ascii	".\367\320\356\267\361\015\000\210\206\344\203\323g\317"
 135      B7F10D00 
 135      8886E483 
 135      D367CF
 136 067f 99F946E9 		.ascii	"\231\371F\351\274\331\323\236\232^V&\\\363\247\275\363"
 136      BCD9D39E 
 136      9A5E5626 
 136      5CF3A7BD 
 136      F3
 137 0690 DE4C73EE 		.ascii	"\336Ls\356\2749\245\263\336r\315\2316\243t\201\232\367"
 137      BC39A5B3 
 137      DE72CD99 
 137      36A37481 
 137      9AF7
 138 06a2 6E999C57 		.ascii	"n\231\234W\006\2450\337\230[\372\326,9\267\354_\331"
 138      06A530DF 
 138      985BFAD6 
 138      2C39B7EC 
 138      5FD9
 139 06b4 88B770   		.ascii	"\210\267p"
 140              		.text
 141              		.section	.gnu.lto__Z4itoaiPci.24bfc8c1,"",%progbits
 142 0000 789C6D90 		.ascii	"x\234m\220\315K\202A\020\306gf_\337\014\373\276\004"
 142      CD4B8241 
 142      10C66766 
 142      5FDF0CFB 
 142      BE04
 143 0012 1E2208F1 		.ascii	"\036\"\010\361\326\337\320\261?\242\213\230\204\020"
 143      D6DFD0B1 
 143      3FA28B98 
 143      8410
 144 0020 2966D145 		.ascii	")f\321E\334\304\"\212\"\302\300C\005\021aii_\207\352"
 144      DCC4228A 
 144      22C2C043 
 144      05116169 
ARM GAS  C:\Users\Bruger\AppData\Local\Temp\ccmKeERp.s 			page 11


 144      695F87EA 
 145 0034 A279EAA2 		.ascii	"\242y\352\242\227\240\227(:)\344-3\020\221\260Y-\210"
 145      97A09728 
 145      3A29E42D 
 145      331091B0 
 145      592D88
 146 0047 6A61D87D 		.ascii	"ja\330}\226\371=\317\356\010\370\273\254\\\233\0100"
 146      96F93DCF 
 146      EE08F8BB 
 146      AC5C9B08 
 146      30
 147 0058 C43B0A40 		.ascii	"\304;\012@Z\317\003\314\233\011Q\035\000!H\030\304\022"
 147      5ACF03CC 
 147      9B09511D 
 147      00214818 
 147      C412
 148 006a 9509AF92 		.ascii	"\225\011\257\222\3579\313\013\325\010\006\201\345\365"
 148      EF39CB0B 
 148      D5080681 
 148      E5F5
 149 0078 C66D5457 		.ascii	"\306mTW\0225%\215\373\250\321n\337\2272\364\372V|\354"
 149      1235258D 
 149      FBA8D16E 
 149      DF9732F4 
 149      FA567CEC 
 150 008c 5818AD11 		.ascii	"X\030\255\021A\205\000ch\305\003T9x\210v\356\254$dD"
 150      41850063 
 150      68C50354 
 150      39788876 
 150      EEAC2464 
 151 00a1 885E54D4 		.ascii	"\210^T\324\303r:\337i\333\223Rf.\317\344\210V#\201q"
 151      C3723ADF 
 151      69DB9352 
 151      662ECFE4 
 151      88562381 
 152 00b6 143F39BE 		.ascii	"\024?9\276\002L\240\215\273c\331\322\212E\3647\311B"
 152      024CA08D 
 152      BB63D9D2 
 152      8A45F437 
 152      C942
 153 00c8 6CBBAC2B 		.ascii	"l\273\254+2\224\311\265H\302\243\337$\213\343&\231\215"
 153      3294C9B5 
 153      48C2A3DF 
 153      248BE326 
 153      998D
 154 00da AC1A9A18 		.ascii	"\254\032\232\030h\222\351\335z\274\273\225Y\372\316"
 154      6892E9DD 
 154      7ABCBB95 
 154      59FACE
 155 00e9 4CFE9399 		.ascii	"L\376\223\231B\233j/\207?\014\213\036\346\366\036\365"
 155      429B6A2F 
 155      873F0C8B 
 155      1EE6F61E 
 155      F5
 156 00fa 1FFEC609 		.ascii	"\037\376\306\011\352<1H\365ed\243q\276u\343o\343q\361"
 156      EA3C3148 
 156      F56564A3 
ARM GAS  C:\Users\Bruger\AppData\Local\Temp\ccmKeERp.s 			page 12


 156      71BE75E3 
 156      6FE371F1 
 157 010e 0B05AA34 		.ascii	"\013\005\2524\015\025\2517\323\241\300\245\006Yd\301"
 157      0D15A937 
 157      D3A1C0A5 
 157      065964C1 
 158 011e BB78C2C5 		.ascii	"\273x\302\305L\345\202\224E\225tv\337\271[KR\240.\227"
 158      4CE58294 
 158      45957476 
 158      DFB95B4B 
 158      52A02E97 
 159 0132 A4B9465A 		.ascii	"\244\271FZ\205\330\030O1\000U\242*\211*\361\353L\360"
 159      85D8184F 
 159      310055A2 
 159      2A892AF1 
 159      EB4CF0
 160 0145 8CF84580 		.ascii	"\214\370E\200\262De\305\306]N\217\3175\346\366{\034"
 160      B24465C5 
 160      C65D4E8F 
 160      CF35E6F6 
 160      7B1C
 161 0157 C34EAF17 		.ascii	"\303N\257\027L\263\216\311\031\227>\355\367\271\247"
 161      4CB38EC9 
 161      19973EED 
 161      F7B9A7
 162 0166 264C3EC7 		.ascii	"&L>\307\270{\356\023s\330\225W"
 162      B87BEE13 
 162      73D89557 
 163              		.text
 164              		.section	.gnu.lto__Z5ultoamPci.24bfc8c1,"",%progbits
 165 0000 789C8D55 		.ascii	"x\234\215U[OTW\024\336k\3573gf\316\334\000\245x\245"
 165      5B4F5457 
 165      14DE6BEF 
 165      336766CE 
 165      DC00A578 
 166 0015 8581D0A6 		.ascii	"\205\201\320\246\351\355\241&M_\332\227\376\202&\355"
 166      E9EDA126 
 166      4D5FDA97 
 166      FE8226ED 
 167 0025 435FAC35 		.ascii	"C_\2545\226\244\255\004\251\361\205x`\020H\012j\015"
 167      96A4AD04 
 167      A9F18578 
 167      6010480A 
 167      6A0D
 168 0037 89343A6D 		.ascii	"\2114:m-\266\340\025\212  Z\306i\035\251\027\324\306"
 168      2DB6E015 
 168      8A20205A 
 168      C6691DA9 
 168      17D4C6
 169 004a 02DA8AC4 		.ascii	"\002\332\212\304\"bbS\251\326\221h\231\256\265\366\221"
 169      22626253 
 169      A9D69168 
 169      99AEB5F6 
 169      91
 170 005b 4E114D27 		.ascii	"N\021M'\2313\263\326^\337\267\276\375\255}\316Q\342"
 170      9933B3D6 
 170      5EDFB7BE 
ARM GAS  C:\Users\Bruger\AppData\Local\Temp\ccmKeERp.s 			page 13


 170      FDAD7DCE 
 170      51E2
 171 006d E1CF19FC 		.ascii	"\341\317\031\374F=B\274\204\277\220!@n\036\020\242\302"
 171      463D42BC 
 171      84BF9021 
 171      406E1E10 
 171      A2C2
 172 007f 23653006 		.ascii	"#e0\006\302\266\324\331SB\330~%\203\023n\014\215\226"
 172      C2B6D4D9 
 172      5342D87E 
 172      2583136E 
 172      0C8D96
 173 0092 04850678 		.ascii	"\004\205\006x\251\014\\\322\254-\302\264\233\256~\023"
 173      A90C5CD2 
 173      AC2DC2B4 
 173      9BAE7E13 
 174 00a2 3C1AEC7E 		.ascii	"<\032\354~\360\307\243\353^\367J\027\327Y\\gIW\335q"
 174      F0C7A3EB 
 174      5EF74A17 
 174      D7595C67 
 174      4957DD71 
 175 00b6 A4B1FC55 		.ascii	"\244\261\374U\310\351\367C\210\311|\372\367\250'$}z"
 175      C8E9F743 
 175      88C97CFA 
 175      F7A82724 
 175      7D7A
 176 00c8 3DC0EB01 		.ascii	"=\300\353\001\010j\266 \000\375\021 \326Ke\270L\267"
 176      086AB620 
 176      00FD1120 
 176      D64B65B8 
 176      4CB7
 177 00da C76BF97D 		.ascii	"\307k\371}\241@\020\326+\257\336MH@\012?!\016\256\313"
 177      A14010D6 
 177      2BAFDE4D 
 177      48400A3F 
 177      210EAECB 
 178 00ee 49093DFB 		.ascii	"I\011=\373o\237\366M\310))\236\022\030\036\332\322\337"
 178      6F9FF64D 
 178      C829299E 
 178      12181EDA 
 178      D2DF
 179 0100 68520806 		.ascii	"hR\010\006\205C\203\215C\336\242\257m\273\362f{g\213"
 179      8543838D 
 179      43DEA2AF 
 179      6DBBF266 
 179      7B678B
 180 0113 FFB3862F 		.ascii	"\377\263\206/qI\212[R@3,\202\026XD\375vA\021\326\336"
 180      71498A5B 
 180      5240332C 
 180      82165844 
 180      FD764111 
 181 0129 DA633728 		.ascii	"\332c7(\225\011\204\333\\{\367\232*lB\\\354d\273\375"
 181      950984DB 
 181      5C7BF79A 
 181      2A6C425C 
 181      EC64BBFD 
 182 013d 9A312515 		.ascii	"\2321%\025\354\006\225\216\303\224\200=P\210\325\315"
ARM GAS  C:\Users\Bruger\AppData\Local\Temp\ccmKeERp.s 			page 14


 182      EC06958E 
 182      C394803D 
 182      5088D5CD 
 183 014d F1EB9FF8 		.ascii	"\361\353\237\370T\016#\307\232\243\223\246FNh\244\204"
 183      540E23C7 
 183      9AA393A6 
 183      464E68A4 
 183      84
 184 015e BDB39118 		.ascii	"\275\263\221\030\354cd\274\241~\310P\271\214\354\333"
 184      EC6364BC 
 184      A17EC850 
 184      B98CECDB 
 185 016e 716F7788 		.ascii	"qow\210\220v\354\276F\032\260\1776\322\020\320\012\205"
 185      9076ECBE 
 185      461AB07F 
 185      36D210D0 
 185      0A85
 186 0180 543E59F5 		.ascii	"T>Y\365\367\220\317\254\302\362\014\332\017n\243\015"
 186      F790CFAC 
 186      C2F20CDA 
 186      0F6EA30D 
 187 0190 4C1042E1 		.ascii	"L\020B\341\332\237\033v]\367\251\002\246\275\223\032"
 187      DA9F1B76 
 187      5DF7A902 
 187      A6BD931A 
 188 01a0 DDE66183 		.ascii	"\335\346a\203j%\305?\335jha\303 \217\302sW\306\337\015"
 188      6A25C53F 
 188      DD6A6861 
 188      C3208FC2 
 188      7357C6DF 
 189 01b5 EFB063F6 		.ascii	"\357\260c\366\350\276\310\033v\277]5\232J=9%]\360\255"
 189      E8BEC81B 
 189      76BF5D35 
 189      9A4A3D39 
 189      255DF0AD 
 190 01c9 6EDD8EAD 		.ascii	"n\335\216\255\017\260M\364\201\016\010#\250\"V\177>"
 190      0FB04DF4 
 190      810E0823 
 190      A822567F 
 190      3E
 191 01da A09E66FE 		.ascii	"\240\236f\376HwE\237\037\031\354\312\321\375M\011\377"
 191      4877459F 
 191      1F19ECCA 
 191      D1FD4D09 
 191      FF
 192 01eb BF14123A 		.ascii	"\277\024\022:\377\253\336\2418\310\024\267kZ\177q\253"
 192      FFABDEA1 
 192      38C814B7 
 192      6B5A7F71 
 192      AB
 193 01fc 6799E2DE 		.ascii	"g\231\342\336\310\316n/Q\330\243\255\221t\012\023\272"
 193      C8CE6E2F 
 193      51D8A3AD 
 193      91740A13 
 193      BA
 194 020d E6A4E886 		.ascii	"\346\244\350\206pkV\314N\245\016\014~:\361*\240\020"
 194      706B56CC 
ARM GAS  C:\Users\Bruger\AppData\Local\Temp\ccmKeERp.s 			page 15


 194      4EA50E0C 
 194      7E3AF12A 
 194      A010
 195 021f 62957CD5 		.ascii	"b\225|\325S1\330a\027y\355\005JX\234\360\001]\003@&"
 195      5331D861 
 195      1779ED05 
 195      4A589CF0 
 195      015D0340 
 196 0234 0671D11D 		.ascii	"\006q\321\035\242K\006\0033\371\232E\203\235\307-\346"
 196      A24B0603 
 196      33F99A45 
 196      839DC72D 
 196      E6
 197 0245 3353365F 		.ascii	"3S6_sxq\001.z\026\322e1g\227pv)%r\351\222\307q>\267"
 197      73787101 
 197      2E7A16D2 
 197      65316797 
 197      70762925 
 198 0260 0AF3FF02 		.ascii	"\012\363\377\002J\0131\206\003\232V\342*N~Z\251A\250"
 198      4A0B3186 
 198      039A56E2 
 198      2A4E7E5A 
 198      A941A8
 199 0273 8C5DAA0E 		.ascii	"\214]\252\016\341\316G\332\317\035\013\251\347\330\205"
 199      E1CE47DA 
 199      CF1D0BA9 
 199      E7D885
 200 0282 9B4DA91A 		.ascii	"\233M\251\032\2376\262\273\351D\232\013\012z\346r\001"
 200      9F36B2BB 
 200      E9449A0B 
 200      0A7AE672 
 200      01
 201 0293 215FB545 		.ascii	"!_\265E7X\352\005\206\267\325\377\025\007\015\357\231"
 201      3758EA05 
 201      86B7D5FF 
 201      15070DEF 
 201      99
 202 02a4 3587DE47 		.ascii	"5\207\336G\300\323\216\020\015\226\364\322\276\341\020"
 202      C0D38E10 
 202      0D96F4D2 
 202      BEE110
 203 02b3 7E0F4398 		.ascii	"~\017C\230O\024\272}\004\317\225\036\332o\3655=\262"
 203      4F14BA7D 
 203      04CF951E 
 203      DA6FF535 
 203      3DB2
 204 02c5 FC1E023C 		.ascii	"\374\036\002<S\350+bp\371;(\027\264\243\311\304\023"
 204      53E82B62 
 204      70F93B28 
 204      17B4A3C9 
 204      C413
 205 02d7 5C8AE8A4 		.ascii	"\\\212\350\244\364\212\237\241j8\362G\275\242\\R\372"
 205      F48A9FA1 
 205      6A38F247 
 205      BDA25C52 
 205      FA
 206 02e8 107D79EC 		.ascii	"\020}y\354\3149>\211h\006\3649B\256\342mt[\251\213P"
ARM GAS  C:\Users\Bruger\AppData\Local\Temp\ccmKeERp.s 			page 16


 206      CC393E89 
 206      6806F439 
 206      42AEE26D 
 206      745BA98B 
 207 02fd 395293D8 		.ascii	"9R\223\330\376\246\256\016&e@\\\204\310\026S\307!LQ"
 207      FEA6AE0E 
 207      2665405C 
 207      84C81653 
 207      C7214C51 
 208 0311 FBBED129 		.ascii	"\373\276\321)\213\010\334\323\374\020\200\030\222`\237"
 208      8B08DCD3 
 208      FC108018 
 208      92609F
 209 0320 8148D0A9 		.ascii	"\201H\320\251\303\242K\211C\375\006\027\341\034\216"
 209      C3A24B89 
 209      43FD0617 
 209      E11C8E
 210 032f CE743144 		.ascii	"\316t1D\\\201\030\207\314Gm#\016\345\352F\347\272q\230"
 210      5C811887 
 210      CC476D23 
 210      0EE5EA46 
 210      E7BA7198 
 211 0343 8FEA555D 		.ascii	"\217\352U]W\007 \312%\006N\010\024\027\351\250\236\336"
 211      570720CA 
 211      25064E08 
 211      1417E9A8 
 211      9EDE
 212 0355 BE4C37C9 		.ascii	"\276L7\311JJ\205z\004K>/ur\036\346\321\005\216\310C"
 212      4A4A857A 
 212      044B3E2F 
 212      75721EE6 
 212      D1058EC8 
 213 036a CCD006B6 		.ascii	"\314\320\006\266W\307\227\352\202l\007\365\240\206]"
 213      57C797EA 
 213      826C07F5 
 213      A0865D
 214 0379 CA26F5A7 		.ascii	"\312&\365\247#\3276\272\034\026\0247\334\277\365e\222"
 214      23D736BA 
 214      1C161437 
 214      DCBFF565 
 214      92
 215 038a 6F7A057C 		.ascii	"oz\005|?#\337\024\315\205\244\243\261z0\372\266.\316"
 215      3F23DF14 
 215      CD85A4A3 
 215      B17A30FA 
 215      B62ECE
 216 039d 494A8067 		.ascii	"IJ\200g\026\3150\036$\306\034\2225\354\326\025\013H"
 216      16CD301E 
 216      24C61C92 
 216      35ECD615 
 216      0B48
 217 03af 549A8D0B 		.ascii	"T\232\215\0131\205\035\256l\212\\\364R\013\317\213\002"
 217      31851DAE 
 217      6C8A5CF4 
 217      520BCF8B 
 217      02
 218 03c0 7EC01608 		.ascii	"~\300\026\010\331\002T\202\213\235w\277\370=\020\205"
ARM GAS  C:\Users\Bruger\AppData\Local\Temp\ccmKeERp.s 			page 17


 218      D9025482 
 218      8B9D77BF 
 218      F83D1085 
 219 03d0 6D80CBD4 		.ascii	"m\200\313\324\200\347\004\307 \012\210g)\356\031)\343"
 219      80E704C7 
 219      200A8867 
 219      29EE1929 
 219      E3
 220 03e1 D1B59A78 		.ascii	"\321\265\232x\311\\R\226\244KY:KJ.\246\260\333\326\232"
 220      C95C5296 
 220      A44B593A 
 220      4B4A2EA6 
 220      B0DBD69A 
 221 03f5 C15D4196 		.ascii	"\301]A\226\362\226\200\304\377\222r\234\245\344\262"
 221      F29680C4 
 221      FF92729C 
 221      A5E4B2
 222 0404 140F8F07 		.ascii	"\024\017\217\007\247\232\207\355\334\002\267o\356\355"
 222      A79A87ED 
 222      DC02B76F 
 222      EEED
 223 0412 6D837158 		.ascii	"m\203qX\214\336\272\353z[\2602\333\244J\257\300W\013"
 223      8CDEBAEB 
 223      7A5BB032 
 223      DBA44AAF 
 223      C0570B
 224 0425 E031C57B 		.ascii	"\3401\305{\235\255WB\007,\025h\016\027\"]\033\235\323"
 224      9DAD5742 
 224      072C1568 
 224      0E17225D 
 224      1B9DD3
 225 0438 4ACFD08A 		.ascii	"J\317\320\212oz\353\334$Ma\323~=\210q@\302L\003/y\036"
 225      6F7AEBDC 
 225      244D61D3 
 225      7E3D8871 
 225      40C24C03 
 226 044f EC82039D 		.ascii	"\354\202\003\235O\301b\017\235\025K\324\026)>\365\245"
 226      4FC1620F 
 226      9D154BD4 
 226      16293EF5 
 226      A5
 227 0460 CE06E63C 		.ascii	"\316\006\346<g?B95\324c\365\343\251$\375\031\230\262"
 227      673F4239 
 227      35D463F5 
 227      E3A924FD 
 227      1998B2
 228 0473 90D1C23B 		.ascii	"\220\321\302;\305\272\337\273\016\227|\"\021\3266\217"
 228      C5BADFBB 
 228      0E977C22 
 228      11D6368F 
 229 0483 7CEEDC16 		.ascii	"|\356\334\026\371I|%\244\331|\230\264\347\223\255\215"
 229      F9497C25 
 229      A4D97C98 
 229      B4E793AD 
 229      8D
 230 0494 8EAD18D3 		.ascii	"\216\255\030\323K\361\362\266\251\235<a\347m\011'`\326"
 230      4BF1F2B6 
ARM GAS  C:\Users\Bruger\AppData\Local\Temp\ccmKeERp.s 			page 18


 230      A99D3C61 
 230      E76D0927 
 230      60D6
 231 04a6 70C2E4F4 		.ascii	"p\302\344\364\035K\243\012\0362;\354\230}\022\315~\314"
 231      1D4BA30A 
 231      1E323BEC 
 231      987D12CD 
 231      7ECC
 232 04b8 4C0CA7EC 		.ascii	"L\014\247\354\024\317\244\200\267\024B\033\034\243Y"
 232      14CFA480 
 232      B714421B 
 232      1CA359
 233 04c7 9F916EB4 		.ascii	"\237\221n\264$\243OE\366lR\217\263\3504Y$\265\3412)"
 233      24A34F45 
 233      F66C528F 
 233      B3E83459 
 233      24B5E132 
 234 04dc 33FC481E 		.ascii	"3\374H\036\366\035>\322\202\016\031IiQ\234\357\243f"
 234      F61D3ED2 
 234      820E1949 
 234      69519CEF 
 234      A366
 235 04ee 01F20FF5 		.ascii	"\001\362\017\365\335l\273\263C=V\342\000JL\177\006\341"
 235      DD6CBBB3 
 235      433D56E2 
 235      004A4C7F 
 235      06E1
 236 0500 4319CEF0 		.ascii	"C\031\316\360T\257\342]9M,\361a\276\015\235w\234}\364"
 236      54AFE25D 
 236      394D2CF1 
 236      61BE0D9D 
 236      779C7DF4 
 237 0514 42D25CD6 		.ascii	"B\322\\\326a\327\"\217K\300YX&F\240\"\003\017\231\213"
 237      61D7228F 
 237      4BC05958 
 237      2646A022 
 237      030F998B 
 238 0528 74B98857 		.ascii	"t\271\210W\376\332UB\277j\347+8\270\300\215#\357\343"
 238      FEDA5542 
 238      BF6AE72B 
 238      38B8C08D 
 238      23EFE3
 239 053b 931E900D 		.ascii	"\223\036\220\015\305\007W\254.]\371Nq\331\352\345\317"
 239      C50757AC 
 239      2E5DF94E 
 239      71D9EAE5 
 239      CF
 240 054c AF282911 		.ascii	"\257()\021\256\265\313?\370x\245\271\246\254\264\370"
 240      AEB5CB3F 
 240      F878A5B9 
 240      A6ACB4F8 
 241 055c A355AED2 		.ascii	"\243U\256\322\345\357\025\257Se\037\226\310\262\022"
 241      E5EF15AF 
 241      53651F96 
 241      C8B212
 242 056b 2886B572 		.ascii	"(\206\265rM\311?\312D\3655"
 242      4DC93FCA 
ARM GAS  C:\Users\Bruger\AppData\Local\Temp\ccmKeERp.s 			page 19


 242      44F535
 243              		.text
 244              		.section	.gnu.lto__Z4utoamPci.24bfc8c1,"",%progbits
 245 0000 789C6590 		.ascii	"x\234e\220\337+\203a\024\307\317\367<\357^4\371u\243"
 245      DF2B8361 
 245      14C7CFF7 
 245      3CEF5E34 
 245      F975A3
 246 0013 5C486929 		.ascii	"\\Hi)\027\376\003\345\017q\263fi%4#7k/\255\245D\243"
 246      17FE03E5 
 246      0F71B366 
 246      69253423 
 246      376B2FAD 
 247 002a 5D6C1744 		.ascii	"]l\027Dh3\314\257+n\254]I!)\273\021%\302\23555ki\316"
 247      6833CCAF 
 247      2B6EAC5D 
 247      492129BB 
 247      1125C29D 
 248 0043 B3B9D03C 		.ascii	"\263\271\320<uz\236\357\363\234\317\367\234\347(\372"
 248      757A9EEF 
 248      F39CCFF7 
 248      9CE728FA 
 249 0053 BF3A2462 		.ascii	"\277:$b \352\226\035\212\300\341+\242\231z\006\364\201"
 249      20EA961D 
 249      8AC0E12B 
 249      A2997A06 
 249      F481
 250 0065 40014600 		.ascii	"@\001F\000\357\234c\234\244>/\355o\\d\352\"\221\247"
 250      EF9C639C 
 250      A43E2FED 
 250      6F5C64EA 
 250      2291A7
 251 0078 CBE75153 		.ascii	"\313\347QSK\030Zf\357\242\331\206\236-\313\232\375x"
 251      4B185A66 
 251      EFA2D986 
 251      9E2DCB9A 
 251      FD78
 252 008a 3ADE6C8C 		.ascii	":\336l\214E\326\344\211)\317\2048:\220\200\256\204m"
 252      45D6E489 
 252      29CF8438 
 252      3A9080AE 
 252      846D
 253 009c F4486E7E 		.ascii	"\364Hn~\307\212(\325\012\315\205\347\276^\225cC\270"
 253      C78A28D5 
 253      0ACD85E7 
 253      BE5E9563 
 253      43B8
 254 00ae F4C59135 		.ascii	"\364\305\2215`\024Y!\011\365\227\223+\302\016\034\222"
 254      60145921 
 254      09F59793 
 254      2BC20E1C 
 254      92
 255 00bf 1DCFBCCF 		.ascii	"\035\317\274\317\333U{\205|\216\257\344\314*\371X%\031"
 255      DB557B85 
 255      7C8EAFE4 
 255      CC2AF958 
 255      2519
ARM GAS  C:\Users\Bruger\AppData\Local\Temp\ccmKeERp.s 			page 20


 256 00d1 BBB5A488 		.ascii	"\273\265\244\210\275\012\231\211,d\015\325Y!\317\326"
 256      BD0A9989 
 256      2C640DD5 
 256      5921CFD6 
 257 00e1 4BC9664D 		.ascii	"K\311fMZ\351R\2254\220\252%\015\302>\034:=\027\374\316"
 257      5AE95295 
 257      3490AA25 
 257      0DC23E1C 
 257      3A3D17FC 
 258 00f6 DACDA0A4 		.ascii	"\332\315\240\244\267\350\377\3107\016`\312\314h\277"
 258      B7E8FFC8 
 258      370E60CA 
 258      CC68BF
 259 0105 2D6D95CB 		.ascii	"-m\225\313\371\353\245D/\352dd\322\243\202\256g@\263"
 259      F9EBA544 
 259      2FEA6464 
 259      D2A382AE 
 259      6740B3
 260 0118 66A53E3D 		.ascii	"f\245>=K\350a\276\210\220]\335#\224\276\011\365k\223"
 260      4BE861BE 
 260      88905DDD 
 260      2394BE09 
 260      F56B93
 261 012b 029BE2BF 		.ascii	"\002\233\342\277z\273\230b\177\311\232\263\352\213l"
 261      7ABB9862 
 261      7FC99AB3 
 261      EA8B6C
 262 013a CBB358E3 		.ascii	"\313\263X\343\020~*0\027X\025X\3723\351\001\370%H[B"
 262      107E2A30 
 262      17581558 
 262      FA33E901 
 262      F825485B 
 263 014f 5B897193 		.ascii	"[\211q\223k\314\353\036\364\370\306\234}\256\361q\262"
 263      6BCCEB1E 
 263      F4F8C69C 
 263      7DAEF171 
 263      B2
 264 0160 4D394726 		.ascii	"M9G&\335\346\204\317\353\031\035\266y\235C\236\351\037"
 264      DDE684CF 
 264      EB191DB6 
 264      799D439E 
 264      E91F
 265 0172 ED6696AA 		.ascii	"\355f\226\252"
 266              		.text
 267              		.section	.gnu.lto_.symbol_nodes.24bfc8c1,"",%progbits
 268 0000 789C6366 		.ascii	"x\234cf``\010b\200\002&\306z\006\206\011\347\030\030"
 268      60600862 
 268      800226C6 
 268      7A068609 
 268      E71818
 269 0013 EAEB19E6 		.ascii	"\352\353\031\346-\340``b\250gD\3413\3273\241\360\231"
 269      2DE06060 
 269      62A86744 
 269      E133D733 
 269      A1F099
 270 0026 EA9991F9 		.ascii	"\352\231\221\371\314\214\014\014\213\036\374cdff\002"
 270      CC8C0C0C 
ARM GAS  C:\Users\Bruger\AppData\Local\Temp\ccmKeERp.s 			page 21


 270      8B1EFC63 
 270      64666602 
 271 0036 D30C006F 		.ascii	"\323\014\000ou\025\374"
 271      7515FC
 272              		.text
 273              		.section	.gnu.lto_.refs.24bfc8c1,"",%progbits
 274 0000 789C6366 		.ascii	"x\234cf```d\200\002\000\000=\000\005"
 274      60606064 
 274      80020000 
 274      3D0005
 275              		.text
 276              		.section	.gnu.lto_.decls.24bfc8c1,"",%progbits
 277 0000 789C8D54 		.ascii	"x\234\215TKLSA\024\235\333y\024x\257\026\243\013\315"
 277      4B4C5341 
 277      149DDB79 
 277      1478AF16 
 277      A30BCD
 278 0013 5BB51BA2 		.ascii	"[\265\033\242\021]\351\316\370]\230\230h0\306\215\232"
 278      115DE9CE 
 278      F85D9898 
 278      6830C68D 
 278      9A
 279 0024 8812129B 		.ascii	"\210\022\022\233\240(\261\211\313\011\030\251?R\015"
 279      A028B189 
 279      CB0918A9 
 279      3F520D
 280 0033 1AA0489A 		.ascii	"\032\240H\232\240\026\255bE\371)h\371I\025\361\003,"
 280      A016AD62 
 280      45F92968 
 280      F94915F1 
 280      032C
 281 0045 74A16270 		.ascii	"t\241bp\201\272\260(\032\026\304z\347\276Wy\255\220"
 281      81BAB028 
 281      1A16C47A 
 281      E7BE5779 
 281      AD90
 282 0057 F092D399 		.ascii	"\360\222\323\231\271s\356\231s's\313\031c\005\300X\002"
 282      B973EE99 
 282      732773CB 
 282      196305C0 
 282      5802
 283 0069 BF218531 		.ascii	"\277!\2051/\2563\020\371\010\216hBlG\330\231\361!\205"
 283      2FAE3310 
 283      F9088E68 
 283      426C47D8 
 283      99F12185 
 284 007d B522BA10 		.ascii	"\265\"\272\020}\210\001\366\377'\3675\204\023\34105"
 284      7D8801F6 
 284      FF27F735 
 284      8413E130 
 284      35
 285 008e ECA6CE0B 		.ascii	"\354\246\316\013\204\033\361\032\261\013\021F\014\233"
 285      841BF11A 
 285      B10B1146 
 285      0C9B
 286 009c 7960E6A6 		.ascii	"y`\346\246\177]f\276UOj\215 \232M\216\315\344\315\225"
 286      7F5D66BE 
ARM GAS  C:\Users\Bruger\AppData\Local\Temp\ccmKeERp.s 			page 22


 286      554F6A8D 
 286      209A4D8E 
 286      CDE4CD95 
 287 00b0 2F7DAA69 		.ascii	"/}\252i\371n\213\037\373<^\372\346\320\222\365f\316"
 287      F96E8B1F 
 287      FB3C5EFA 
 287      E6D092F5 
 287      66CE
 288 00c2 A3358AE8 		.ascii	"\2435\212\350\266\370\031\230Gc\322\006\261\360\325"
 288      B6F81998 
 288      4763D206 
 288      B1F0D5
 289 00d1 026E039C 		.ascii	"\002n\003\234*So\343\2359\240\353\271j\265\360\211\351"
 289      2A536FE3 
 289      9D39A0EB 
 289      B96AB5F0 
 289      89E9
 290 00e3 8D100695 		.ascii	"\215\020\006\225U\213,\032\257\011!\374\025b\013\223"
 290      558B2C1A 
 290      AF0921FC 
 290      15620B93 
 291 00f3 2B0801B7 		.ascii	"+\010\001\267\310\370\204(\023\361K\202/g\220\247\303"
 291      C8F88428 
 291      13F14B82 
 291      2F6790A7 
 291      C3
 292 0104 4A9DC12D 		.ascii	"J\235\301-\310\2454\0067A\207F\320\345Y\035MSC\332\204"
 292      C8A53406 
 292      37418746 
 292      D0E5591D 
 292      4D5343DA 
 293 0119 0D9CAA4B 		.ascii	"\015\234\252K.\037^\212U\333q\351P\025\271\034\276\335"
 293      2E1F5E8A 
 293      55DB71E9 
 293      5015B91C 
 293      BEDD
 294 012b D199E538 		.ascii	"\321\231\3458+\265\374\345\";\346\244\223nc\372\035"
 294      2BB5FCE5 
 294      223BE6A4 
 294      936E63FA 
 294      1D
 295 013c 4C67D004 		.ascii	"Lg\320\004\016\272\017\034\221\335\363\252\375\012("
 295      0EBA0F1C 
 295      91DDF3AA 
 295      FD0A28
 296 014b 581C6C57 		.ascii	"X\034lWa\237!P\363\350\243B!\244\300]\240\340@\333\257"
 296      619F2150 
 296      F3E8A342 
 296      21A4C05D 
 296      A0E040DB 
 297 0160 9011B4AB 		.ascii	"\220\021\264\253\0201b\376\311g\0272\227]\026\262\244"
 297      103162FE 
 297      C9671732 
 297      975D16B2 
 297      A4
 298 0171 72B15821 		.ascii	"r\261X!\376\354A\315\260\014\177\357\201b\334P\375\367"
 298      FEEC41CD 
ARM GAS  C:\Users\Bruger\AppData\Local\Temp\ccmKeERp.s 			page 23


 298      B00C7FEF 
 298      8162DC50 
 298      FDF7
 299 0183 EB47F952 		.ascii	"\353G\371RyC0\036\2758\256\345\335\302<\237\210F\371"
 299      7943301E 
 299      BD38AEE5 
 299      DDC23C9F 
 299      8846F9
 300 0196 EC2D8E9E 		.ascii	"\354-\216\236\251\354\321\270\233H7f\276|\005W\275\030"
 300      A9ECD1B8 
 300      9B483766 
 300      BE7C0557 
 300      BD18
 301 01a8 8BC4DF4F 		.ascii	"\213\304\337O\237\254\021\3012\361'\221\000\322\205"
 301      9FAC11C1 
 301      32F12791 
 301      00D285
 302 01b7 FBC0E101 		.ascii	"\373\300\341\001\344Q!-\346%B+\270\026RQ[zE\310k_PE"
 302      E451212D 
 302      E625422B 
 302      B8165251 
 302      5B7A45C8 
 303 01cf 0FA9A28E 		.ascii	"\017\251\242\216dEu\357\003\237\235|=\271\235\350-k"
 303      644575EF 
 303      039F9D7C 
 303      3DB99DE8 
 303      2D6B
 304 01e1 53F8669A 		.ascii	"S\370f\232\017\236~P\233\201\316\203\221\340\335f\261"
 304      0F9E7E50 
 304      9B81CE83 
 304      91E0DD66 
 304      B1
 305 01f2 E9949849 		.ascii	"\351\224\230I$\270L\206G\026\333\235I\333]\013\263\375"
 305      24B84C86 
 305      4716DB9D 
 305      49DB5D0B 
 305      B3FD
 306 0204 38DDB65B 		.ascii	"8\335\266[\205'\013\262\335M\266\243I\333\203\343\241"
 306      85270BB2 
 306      DD4DB6A3 
 306      49DB83E3 
 306      A1
 307 0215 F30ADF41 		.ascii	"\363\012\337AV\003\247\253\376d\362\3354\1773V]\267"
 307      5603A7AB 
 307      FE64F2DD 
 307      347F3356 
 307      5DB7
 308 0227 882E3C18 		.ascii	"\210.<\030n\260\307D4\221\330(s\241\307\342\2727\351"
 308      6EB0C744 
 308      3491D828 
 308      73A1C7E2 
 308      BA37E9
 309 023a BA8F5C37 		.ascii	"\272\217\\7\316\374x\302y\001\345W6\004\3369y\021\315"
 309      CEFC78C2 
 309      7901E557 
 309      3604DE39 
 309      7911CD
ARM GAS  C:\Users\Bruger\AppData\Local\Temp\ccmKeERp.s 			page 24


 310 024d FBCBA7FB 		.ascii	"\373\313\247\3734\343\012\352S\264\372-ZO\223Z\003\244"
 310      34E30AEA 
 310      53B4FA2D 
 310      5A4F935A 
 310      03A4
 311 025f F53B3116 		.ascii	"\365;1\026\310\242g\355\263Q\371?\253\0325z\327n\353"
 311      C8A267ED 
 311      B351F93F 
 311      AB1A357A 
 311      D76EEB
 312 0272 AB7718AF 		.ascii	"\253w\030\257\376Sm\363\015\207\3523k\226\317\334a}"
 312      FE536DF3 
 312      0D87EA33 
 312      6B96CFDC 
 312      617D
 313 0284 E583D434 		.ascii	"\345\203\3244+txn\364L{Ke\225\272\304Ot!\\@M\021C\372"
 313      2B74786E 
 313      F44C7B4B 
 313      6595BAC4 
 313      4F74215C 
 314 029d 33A2BF80 		.ascii	"3\242\277\200%\311$Z\310\367\027\235\030\264\361\343"
 314      25C9245A 
 314      C8F7179D 
 314      18B4F1E3 
 315 02ad D4D2F150 		.ascii	"\324\322\361P8\222\003\271z\266.\3737^!\204\002\360"
 315      389203B9 
 315      7AB62EFB 
 315      375E2184 
 315      02F0
 316 02bf 1AB26128 		.ascii	"\032\262a(\245\201e\223c\224UP#\227\371\027\037\377"
 316      A5816593 
 316      63945550 
 316      2397F917 
 316      1FFF
 317 02d1 D7C82FB1 		.ascii	"\327\310/\261\221\345\026\203Wx\350\033<T\3769\030t"
 317      91E51683 
 317      5778E81B 
 317      3C54FE39 
 317      1874
 318 02e3 F983079E 		.ascii	"\371\203\007\236\273\337\372\301\236\322\270h\304R\322"
 318      BBDFFAC1 
 318      9ED2B868 
 318      C452D2
 319 02f2 B0D9B8C3 		.ascii	"\260\331\270\303\324\270\323\221\376oZ\012[\366\305"
 319      D4B8D391 
 319      FE6F5A0A 
 319      5BF6C5
 320 0301 2C7BC464 		.ascii	",{\304d\217\314\303\356Na\217\232l9*\205\207\017\226"
 320      8FCCC3EE 
 320      4E618F9A 
 320      6C392A85 
 320      870F96
 321 0314 6AEB0F79 		.ascii	"j\353\017y=\305'V{\216n`J\361\211\222\203Y\333v\356"
 321      3DC52756 
 321      7B8E6E60 
 321      4AF18992 
 321      8359DB76 
ARM GAS  C:\Users\Bruger\AppData\Local\Temp\ccmKeERp.s 			page 25


 322 0329 716D5DB5 		.ascii	"qm]\265\212i\007\366\256\225\201\342\374B\217\263\260"
 322      8A6907F6 
 322      AE9581E2 
 322      FC428FB3 
 322      B0
 323 033a A4B468BF 		.ascii	"\244\264h\277\007Wk\012\217\035c\212\234\311}9zp?\303"
 323      07576B0A 
 323      8F1D638A 
 323      9CC97D39 
 323      7A703FC3 
 324 034e 2B998E03 		.ascii	"+\231\216\003{\327\321\344\010\206\024\257\311\361&"
 324      7BD7D1E4 
 324      088614AF 
 324      C9F126
 325 035d 03874A4A 		.ascii	"\003\207JJ\212\377\002'\335\252\311"
 325      8AFF0227 
 325      DDAAC9
 326              		.text
 327              		.section	.gnu.lto_.symtab.24bfc8c1,"",%progbits
 328 0000 5F5A346C 		.ascii	"_Z4ltoalPci\000\000\000\000\000\000\000\000\000\000"
 328      746F616C 
 328      50636900 
 328      00000000 
 328      00000000 
 329 0015 0000B600 		.ascii	"\000\000\266\000\000\000_Z4itoaiPci\000\000\000\000"
 329      00005F5A 
 329      3469746F 
 329      61695063 
 329      69000000 
 330 002a 00000000 		.ascii	"\000\000\000\000\000\000\000\000\275\000\000\000_Z5"
 330      00000000 
 330      BD000000 
 330      5F5A35
 331 0039 756C746F 		.ascii	"ultoamPci\000\000\000\000\000\000\000\000\000\000\000"
 331      616D5063 
 331      69000000 
 331      00000000 
 331      00000000 
 332 004d 00C40000 		.ascii	"\000\304\000\000\000_Z4utoamPci\000\000\000\000\000"
 332      005F5A34 
 332      75746F61 
 332      6D506369 
 332      00000000 
 333 0062 00000000 		.ascii	"\000\000\000\000\000\000\000\307\000\000\000"
 333      000000C7 
 333      000000
 334              		.text
 335              		.section	.gnu.lto_.opts,"",%progbits
 336 0000 272D6665 		.ascii	"'-fexceptions' '-fno-trapv' '-mcpu=cortex-m3' '-mth"
 336      78636570 
 336      74696F6E 
 336      73272027 
 336      2D666E6F 
 337 0033 756D6227 		.ascii	"umb' '-g' '-O3' '-ffunction-sections' '-finline-fun"
 337      20272D67 
 337      2720272D 
 337      4F332720 
ARM GAS  C:\Users\Bruger\AppData\Local\Temp\ccmKeERp.s 			page 26


 337      272D6666 
 338 0066 6374696F 		.ascii	"ctions' '-flto' '-ffat-lto-objects'\000"
 338      6E732720 
 338      272D666C 
 338      746F2720 
 338      272D6666 
 339              		.text
 340              		.cfi_sections	.debug_frame
 341              		.section	.text._Z4itoaiPci,"ax",%progbits
 342              		.align	2
 343              		.global	_Z4itoaiPci
 344              		.thumb
 345              		.thumb_func
 346              		.type	_Z4itoaiPci, %function
 347              	_Z4itoaiPci:
 348              		.fnstart
 349              	.LFB0:
 350              		.file 1 "core\\itoa.cpp"
   1:core/itoa.cpp **** /*
   2:core/itoa.cpp ****   Copyright (c) 2011 Arduino.  All right reserved.
   3:core/itoa.cpp **** 
   4:core/itoa.cpp ****   This library is free software; you can redistribute it and/or
   5:core/itoa.cpp ****   modify it under the terms of the GNU Lesser General Public
   6:core/itoa.cpp ****   License as published by the Free Software Foundation; either
   7:core/itoa.cpp ****   version 2.1 of the License, or (at your option) any later version.
   8:core/itoa.cpp **** 
   9:core/itoa.cpp ****   This library is distributed in the hope that it will be useful,
  10:core/itoa.cpp ****   but WITHOUT ANY WARRANTY; without even the implied warranty of
  11:core/itoa.cpp ****   MERCHANTABILITY or FITNESS FOR A PARTICULAR PURPOSE. 
  12:core/itoa.cpp ****   See the GNU Lesser General Public License for more details.
  13:core/itoa.cpp **** 
  14:core/itoa.cpp ****   You should have received a copy of the GNU Lesser General Public
  15:core/itoa.cpp ****   License along with this library; if not, write to the Free Software
  16:core/itoa.cpp ****   Foundation, Inc., 51 Franklin St, Fifth Floor, Boston, MA  02110-1301  USA
  17:core/itoa.cpp **** */
  18:core/itoa.cpp **** 
  19:core/itoa.cpp **** #include "itoa.h"
  20:core/itoa.cpp **** #include <string.h>
  21:core/itoa.cpp **** 
  22:core/itoa.cpp **** 
  23:core/itoa.cpp **** extern char* itoa( int value, char *string, int radix )
  24:core/itoa.cpp **** {
 351              		.loc 1 24 0
 352              		.cfi_startproc
 353              		@ args = 0, pretend = 0, frame = 40
 354              		@ frame_needed = 0, uses_anonymous_args = 0
 355              	.LVL0:
 356              	.LBB5:
 357              	.LBB6:
  25:core/itoa.cpp ****   return ltoa( value, string, radix ) ;
  26:core/itoa.cpp **** }
  27:core/itoa.cpp **** 
  28:core/itoa.cpp **** extern char* ltoa( long value, char *string, int radix )
  29:core/itoa.cpp **** {
  30:core/itoa.cpp ****   char tmp[33];
  31:core/itoa.cpp ****   char *tp = tmp;
  32:core/itoa.cpp ****   long i;
ARM GAS  C:\Users\Bruger\AppData\Local\Temp\ccmKeERp.s 			page 27


  33:core/itoa.cpp ****   unsigned long v;
  34:core/itoa.cpp ****   int sign;
  35:core/itoa.cpp ****   char *sp;
  36:core/itoa.cpp **** 
  37:core/itoa.cpp ****   if ( string == NULL )
 358              		.loc 1 37 0
 359 0000 0029     		cmp	r1, #0
 360 0002 42D0     		beq	.L14
  38:core/itoa.cpp ****   {
  39:core/itoa.cpp ****     return 0 ;
  40:core/itoa.cpp ****   }
  41:core/itoa.cpp **** 
  42:core/itoa.cpp ****   if (radix > 36 || radix <= 1)
 361              		.loc 1 42 0
 362 0004 931E     		subs	r3, r2, #2
 363 0006 222B     		cmp	r3, #34
 364 0008 3DD8     		bhi	.L15
 365              	.LBE6:
 366              	.LBE5:
  24:core/itoa.cpp ****   return ltoa( value, string, radix ) ;
 367              		.loc 1 24 0
 368 000a F0B5     		push	{r4, r5, r6, r7, lr}
 369              		.cfi_def_cfa_offset 20
 370              		.cfi_offset 4, -20
 371              		.cfi_offset 5, -16
 372              		.cfi_offset 6, -12
 373              		.cfi_offset 7, -8
 374              		.cfi_offset 14, -4
 375              	.LBB10:
 376              	.LBB7:
  43:core/itoa.cpp ****   {
  44:core/itoa.cpp ****     return 0 ;
  45:core/itoa.cpp ****   }
  46:core/itoa.cpp **** 
  47:core/itoa.cpp ****   sign = (radix == 10 && value < 0);
 377              		.loc 1 47 0
 378 000c 0A2A     		cmp	r2, #10
 379              	.LBE7:
 380              	.LBE10:
  24:core/itoa.cpp ****   return ltoa( value, string, radix ) ;
 381              		.loc 1 24 0
 382 000e 8BB0     		sub	sp, sp, #44
 383              		.cfi_def_cfa_offset 64
 384              	.LBB11:
 385              	.LBB8:
 386              		.loc 1 47 0
 387 0010 33D0     		beq	.L24
 388              	.L3:
 389              	.LVL1:
  48:core/itoa.cpp ****   if (sign)
  49:core/itoa.cpp ****   {
  50:core/itoa.cpp ****     v = -value;
  51:core/itoa.cpp ****   }
  52:core/itoa.cpp ****   else
  53:core/itoa.cpp ****   {
  54:core/itoa.cpp ****     v = (unsigned long)value;
 390              		.loc 1 54 0
ARM GAS  C:\Users\Bruger\AppData\Local\Temp\ccmKeERp.s 			page 28


 391 0012 0546     		mov	r5, r0
 392              	.LVL2:
 393 0014 4FF0000E 		mov	lr, #0
 394              	.LVL3:
 395              	.L13:
  55:core/itoa.cpp ****   }
  56:core/itoa.cpp **** 
  57:core/itoa.cpp ****   while (v || tp == tmp)
  58:core/itoa.cpp ****   {
  59:core/itoa.cpp ****     i = v % radix;
 396              		.loc 1 59 0
 397 0018 01AF     		add	r7, sp, #4
 398 001a 3C46     		mov	r4, r7
 399              	.LVL4:
  57:core/itoa.cpp ****   {
 400              		.loc 1 57 0
 401 001c 4DB9     		cbnz	r5, .L8
 402              	.L26:
 403 001e BC42     		cmp	r4, r7
 404 0020 12D1     		bne	.L25
 405              		.loc 1 59 0
 406 0022 2B46     		mov	r3, r5
 407              	.LVL5:
 408              	.L9:
  60:core/itoa.cpp ****     v = v / radix;
  61:core/itoa.cpp ****     if (i < 10)
  62:core/itoa.cpp ****       *tp++ = i+'0';
 409              		.loc 1 62 0
 410 0024 3033     		adds	r3, r3, #48
 411              	.LVL6:
 412 0026 DBB2     		uxtb	r3, r3
 413              	.LVL7:
 414 0028 661C     		adds	r6, r4, #1
 415              	.LVL8:
 416              	.L7:
 417 002a 2370     		strb	r3, [r4]
  59:core/itoa.cpp ****     v = v / radix;
 418              		.loc 1 59 0
 419 002c 3446     		mov	r4, r6
 420              	.LVL9:
  57:core/itoa.cpp ****   {
 421              		.loc 1 57 0
 422 002e 002D     		cmp	r5, #0
 423 0030 F5D0     		beq	.L26
 424              	.L8:
  59:core/itoa.cpp ****     v = v / radix;
 425              		.loc 1 59 0
 426 0032 B5FBF2F6 		udiv	r6, r5, r2
 427 0036 02FB1653 		mls	r3, r2, r6, r5
 428              	.LVL10:
  61:core/itoa.cpp ****       *tp++ = i+'0';
 429              		.loc 1 61 0
 430 003a 092B     		cmp	r3, #9
  60:core/itoa.cpp ****     v = v / radix;
 431              		.loc 1 60 0
 432 003c 3546     		mov	r5, r6
 433              	.LVL11:
ARM GAS  C:\Users\Bruger\AppData\Local\Temp\ccmKeERp.s 			page 29


  61:core/itoa.cpp ****       *tp++ = i+'0';
 434              		.loc 1 61 0
 435 003e F1D9     		bls	.L9
  63:core/itoa.cpp ****     else
  64:core/itoa.cpp ****       *tp++ = i + 'a' - 10;
 436              		.loc 1 64 0
 437 0040 5733     		adds	r3, r3, #87
 438              	.LVL12:
 439 0042 DBB2     		uxtb	r3, r3
 440              	.LVL13:
 441 0044 661C     		adds	r6, r4, #1
 442              	.LVL14:
 443 0046 F0E7     		b	.L7
 444              	.LVL15:
 445              	.L25:
  57:core/itoa.cpp ****   {
 446              		.loc 1 57 0
 447 0048 2046     		mov	r0, r4
 448              	.LVL16:
  65:core/itoa.cpp ****   }
  66:core/itoa.cpp **** 
  67:core/itoa.cpp ****   sp = string;
  68:core/itoa.cpp **** 
  69:core/itoa.cpp ****   if (sign)
 449              		.loc 1 69 0
 450 004a BEF1000F 		cmp	lr, #0
 451 004e 10D1     		bne	.L27
 452              	.LVL17:
 453 0050 0D46     		mov	r5, r1
 454              	.LVL18:
 455              	.L10:
  70:core/itoa.cpp ****     *sp++ = '-';
  71:core/itoa.cpp ****   while (tp > tmp)
 456              		.loc 1 71 0
 457 0052 BC42     		cmp	r4, r7
 458 0054 08D9     		bls	.L11
 459 0056 6B1E     		subs	r3, r5, #1
 460              	.LVL19:
 461              	.L12:
  72:core/itoa.cpp ****     *sp++ = *--tp;
 462              		.loc 1 72 0
 463 0058 14F8012D 		ldrb	r2, [r4, #-1]!	@ zero_extendqisi2
 464              	.LVL20:
  71:core/itoa.cpp ****     *sp++ = *--tp;
 465              		.loc 1 71 0
 466 005c BC42     		cmp	r4, r7
 467              		.loc 1 72 0
 468 005e 03F8012F 		strb	r2, [r3, #1]!
 469              	.LVL21:
  71:core/itoa.cpp ****     *sp++ = *--tp;
 470              		.loc 1 71 0
 471 0062 F9D1     		bne	.L12
 472 0064 041B     		subs	r4, r0, r4
 473              	.LVL22:
 474 0066 2544     		add	r5, r5, r4
 475              	.LVL23:
 476              	.L11:
ARM GAS  C:\Users\Bruger\AppData\Local\Temp\ccmKeERp.s 			page 30


  73:core/itoa.cpp ****   *sp = 0;
 477              		.loc 1 73 0
 478 0068 0846     		mov	r0, r1
 479 006a 0023     		movs	r3, #0
 480 006c 2B70     		strb	r3, [r5]
 481              	.LBE8:
 482              	.LBE11:
  26:core/itoa.cpp **** 
 483              		.loc 1 26 0
 484 006e 0BB0     		add	sp, sp, #44
 485              		.cfi_remember_state
 486              		.cfi_def_cfa_offset 20
 487              		@ sp needed
 488 0070 F0BD     		pop	{r4, r5, r6, r7, pc}
 489              	.LVL24:
 490              	.L27:
 491              		.cfi_restore_state
 492              	.LBB12:
 493              	.LBB9:
  70:core/itoa.cpp ****   while (tp > tmp)
 494              		.loc 1 70 0
 495 0072 2D23     		movs	r3, #45
 496 0074 0B70     		strb	r3, [r1]
 497 0076 4D1C     		adds	r5, r1, #1
 498              	.LVL25:
 499 0078 EBE7     		b	.L10
 500              	.LVL26:
 501              	.L24:
  47:core/itoa.cpp ****   if (sign)
 502              		.loc 1 47 0
 503 007a 0028     		cmp	r0, #0
 504 007c C9DA     		bge	.L3
 505              	.LVL27:
  50:core/itoa.cpp ****   }
 506              		.loc 1 50 0
 507 007e 4542     		negs	r5, r0
 508              	.LVL28:
  47:core/itoa.cpp ****   if (sign)
 509              		.loc 1 47 0
 510 0080 4FF0010E 		mov	lr, #1
 511 0084 C8E7     		b	.L13
 512              	.LVL29:
 513              	.L15:
 514              		.cfi_def_cfa_offset 0
 515              		.cfi_restore 4
 516              		.cfi_restore 5
 517              		.cfi_restore 6
 518              		.cfi_restore 7
 519              		.cfi_restore 14
  39:core/itoa.cpp ****   }
 520              		.loc 1 39 0
 521 0086 0020     		movs	r0, #0
 522              	.LVL30:
 523 0088 7047     		bx	lr
 524              	.LVL31:
 525              	.L14:
 526 008a 0846     		mov	r0, r1
ARM GAS  C:\Users\Bruger\AppData\Local\Temp\ccmKeERp.s 			page 31


 527              	.LVL32:
 528              	.LBE9:
 529              	.LBE12:
  26:core/itoa.cpp **** 
 530              		.loc 1 26 0
 531 008c 7047     		bx	lr
 532              		.cfi_endproc
 533              	.LFE0:
 534              		.cantunwind
 535              		.fnend
 536              		.size	_Z4itoaiPci, .-_Z4itoaiPci
 537 008e 00BF     		.section	.text._Z4ltoalPci,"ax",%progbits
 538              		.align	2
 539              		.global	_Z4ltoalPci
 540              		.thumb
 541              		.thumb_func
 542              		.type	_Z4ltoalPci, %function
 543              	_Z4ltoalPci:
 544              		.fnstart
 545              	.LFB1:
  29:core/itoa.cpp ****   char tmp[33];
 546              		.loc 1 29 0
 547              		.cfi_startproc
 548              		@ args = 0, pretend = 0, frame = 40
 549              		@ frame_needed = 0, uses_anonymous_args = 0
 550              	.LVL33:
 551              	.LBB13:
  37:core/itoa.cpp ****   {
 552              		.loc 1 37 0
 553 0000 0029     		cmp	r1, #0
 554 0002 42D0     		beq	.L41
  42:core/itoa.cpp ****   {
 555              		.loc 1 42 0
 556 0004 931E     		subs	r3, r2, #2
 557 0006 222B     		cmp	r3, #34
 558 0008 3DD8     		bhi	.L42
 559              	.LBE13:
  29:core/itoa.cpp ****   char tmp[33];
 560              		.loc 1 29 0
 561 000a F0B5     		push	{r4, r5, r6, r7, lr}
 562              		.cfi_def_cfa_offset 20
 563              		.cfi_offset 4, -20
 564              		.cfi_offset 5, -16
 565              		.cfi_offset 6, -12
 566              		.cfi_offset 7, -8
 567              		.cfi_offset 14, -4
 568              	.LBB14:
  47:core/itoa.cpp ****   if (sign)
 569              		.loc 1 47 0
 570 000c 0A2A     		cmp	r2, #10
 571              	.LBE14:
  29:core/itoa.cpp ****   char tmp[33];
 572              		.loc 1 29 0
 573 000e 8BB0     		sub	sp, sp, #44
 574              		.cfi_def_cfa_offset 64
 575              	.LBB15:
  47:core/itoa.cpp ****   if (sign)
ARM GAS  C:\Users\Bruger\AppData\Local\Temp\ccmKeERp.s 			page 32


 576              		.loc 1 47 0
 577 0010 33D0     		beq	.L50
 578              	.L30:
 579              	.LVL34:
  54:core/itoa.cpp ****   }
 580              		.loc 1 54 0
 581 0012 0546     		mov	r5, r0
 582              	.LVL35:
 583 0014 4FF0000E 		mov	lr, #0
 584              	.LVL36:
 585              	.L40:
  59:core/itoa.cpp ****     v = v / radix;
 586              		.loc 1 59 0
 587 0018 01AF     		add	r7, sp, #4
 588 001a 3C46     		mov	r4, r7
 589              	.LVL37:
  57:core/itoa.cpp ****   {
 590              		.loc 1 57 0
 591 001c 4DB9     		cbnz	r5, .L35
 592              	.L52:
  57:core/itoa.cpp ****   {
 593              		.loc 1 57 0 is_stmt 0 discriminator 1
 594 001e BC42     		cmp	r4, r7
 595 0020 12D1     		bne	.L51
  59:core/itoa.cpp ****     v = v / radix;
 596              		.loc 1 59 0 is_stmt 1
 597 0022 2B46     		mov	r3, r5
 598              	.LVL38:
 599              	.L36:
  62:core/itoa.cpp ****     else
 600              		.loc 1 62 0
 601 0024 3033     		adds	r3, r3, #48
 602              	.LVL39:
 603 0026 DBB2     		uxtb	r3, r3
 604              	.LVL40:
 605 0028 661C     		adds	r6, r4, #1
 606              	.LVL41:
 607              	.L34:
 608 002a 2370     		strb	r3, [r4]
  59:core/itoa.cpp ****     v = v / radix;
 609              		.loc 1 59 0
 610 002c 3446     		mov	r4, r6
 611              	.LVL42:
  57:core/itoa.cpp ****   {
 612              		.loc 1 57 0
 613 002e 002D     		cmp	r5, #0
 614 0030 F5D0     		beq	.L52
 615              	.L35:
  59:core/itoa.cpp ****     v = v / radix;
 616              		.loc 1 59 0
 617 0032 B5FBF2F6 		udiv	r6, r5, r2
 618 0036 02FB1653 		mls	r3, r2, r6, r5
 619              	.LVL43:
  61:core/itoa.cpp ****       *tp++ = i+'0';
 620              		.loc 1 61 0
 621 003a 092B     		cmp	r3, #9
  60:core/itoa.cpp ****     if (i < 10)
ARM GAS  C:\Users\Bruger\AppData\Local\Temp\ccmKeERp.s 			page 33


 622              		.loc 1 60 0
 623 003c 3546     		mov	r5, r6
 624              	.LVL44:
  61:core/itoa.cpp ****       *tp++ = i+'0';
 625              		.loc 1 61 0
 626 003e F1D9     		bls	.L36
  64:core/itoa.cpp ****   }
 627              		.loc 1 64 0
 628 0040 5733     		adds	r3, r3, #87
 629              	.LVL45:
 630 0042 DBB2     		uxtb	r3, r3
 631              	.LVL46:
 632 0044 661C     		adds	r6, r4, #1
 633              	.LVL47:
 634 0046 F0E7     		b	.L34
 635              	.LVL48:
 636              	.L51:
 637 0048 2046     		mov	r0, r4
 638              	.LVL49:
  69:core/itoa.cpp ****     *sp++ = '-';
 639              		.loc 1 69 0
 640 004a BEF1000F 		cmp	lr, #0
 641 004e 10D1     		bne	.L53
 642              	.LVL50:
 643 0050 0D46     		mov	r5, r1
 644              	.LVL51:
 645              	.L37:
  71:core/itoa.cpp ****     *sp++ = *--tp;
 646              		.loc 1 71 0
 647 0052 BC42     		cmp	r4, r7
 648 0054 08D9     		bls	.L38
 649 0056 6B1E     		subs	r3, r5, #1
 650              	.LVL52:
 651              	.L39:
  72:core/itoa.cpp ****   *sp = 0;
 652              		.loc 1 72 0
 653 0058 14F8012D 		ldrb	r2, [r4, #-1]!	@ zero_extendqisi2
 654              	.LVL53:
  71:core/itoa.cpp ****     *sp++ = *--tp;
 655              		.loc 1 71 0
 656 005c BC42     		cmp	r4, r7
  72:core/itoa.cpp ****   *sp = 0;
 657              		.loc 1 72 0
 658 005e 03F8012F 		strb	r2, [r3, #1]!
 659              	.LVL54:
  71:core/itoa.cpp ****     *sp++ = *--tp;
 660              		.loc 1 71 0
 661 0062 F9D1     		bne	.L39
 662 0064 041B     		subs	r4, r0, r4
 663              	.LVL55:
 664 0066 2544     		add	r5, r5, r4
 665              	.LVL56:
 666              	.L38:
  74:core/itoa.cpp **** 
  75:core/itoa.cpp ****   return string;
 667              		.loc 1 75 0
 668 0068 0846     		mov	r0, r1
ARM GAS  C:\Users\Bruger\AppData\Local\Temp\ccmKeERp.s 			page 34


  73:core/itoa.cpp **** 
 669              		.loc 1 73 0
 670 006a 0023     		movs	r3, #0
 671 006c 2B70     		strb	r3, [r5]
 672              	.LBE15:
  76:core/itoa.cpp **** }
 673              		.loc 1 76 0
 674 006e 0BB0     		add	sp, sp, #44
 675              		.cfi_remember_state
 676              		.cfi_def_cfa_offset 20
 677              		@ sp needed
 678 0070 F0BD     		pop	{r4, r5, r6, r7, pc}
 679              	.LVL57:
 680              	.L53:
 681              		.cfi_restore_state
 682              	.LBB16:
  70:core/itoa.cpp ****   while (tp > tmp)
 683              		.loc 1 70 0
 684 0072 2D23     		movs	r3, #45
 685 0074 0B70     		strb	r3, [r1]
 686 0076 4D1C     		adds	r5, r1, #1
 687              	.LVL58:
 688 0078 EBE7     		b	.L37
 689              	.LVL59:
 690              	.L50:
  47:core/itoa.cpp ****   if (sign)
 691              		.loc 1 47 0 discriminator 1
 692 007a 0028     		cmp	r0, #0
 693 007c C9DA     		bge	.L30
 694              	.LVL60:
  50:core/itoa.cpp ****   }
 695              		.loc 1 50 0
 696 007e 4542     		negs	r5, r0
 697              	.LVL61:
  47:core/itoa.cpp ****   if (sign)
 698              		.loc 1 47 0
 699 0080 4FF0010E 		mov	lr, #1
 700 0084 C8E7     		b	.L40
 701              	.LVL62:
 702              	.L42:
 703              		.cfi_def_cfa_offset 0
 704              		.cfi_restore 4
 705              		.cfi_restore 5
 706              		.cfi_restore 6
 707              		.cfi_restore 7
 708              		.cfi_restore 14
  39:core/itoa.cpp ****   }
 709              		.loc 1 39 0
 710 0086 0020     		movs	r0, #0
 711              	.LVL63:
 712 0088 7047     		bx	lr
 713              	.LVL64:
 714              	.L41:
 715 008a 0846     		mov	r0, r1
 716              	.LVL65:
 717              	.LBE16:
 718              		.loc 1 76 0
ARM GAS  C:\Users\Bruger\AppData\Local\Temp\ccmKeERp.s 			page 35


 719 008c 7047     		bx	lr
 720              		.cfi_endproc
 721              	.LFE1:
 722              		.cantunwind
 723              		.fnend
 724              		.size	_Z4ltoalPci, .-_Z4ltoalPci
 725 008e 00BF     		.section	.text._Z4utoamPci,"ax",%progbits
 726              		.align	2
 727              		.global	_Z4utoamPci
 728              		.thumb
 729              		.thumb_func
 730              		.type	_Z4utoamPci, %function
 731              	_Z4utoamPci:
 732              		.fnstart
 733              	.LFB2:
  77:core/itoa.cpp **** 
  78:core/itoa.cpp **** extern char* utoa( unsigned long value, char *string, int radix )
  79:core/itoa.cpp **** {
 734              		.loc 1 79 0
 735              		.cfi_startproc
 736              		@ args = 0, pretend = 0, frame = 40
 737              		@ frame_needed = 0, uses_anonymous_args = 0
 738              		@ link register save eliminated.
 739              	.LVL66:
 740              	.LBB20:
 741              	.LBB21:
  80:core/itoa.cpp ****   return ultoa( (unsigned long)value, string, (int)radix ) ;
  81:core/itoa.cpp **** }
  82:core/itoa.cpp **** 
  83:core/itoa.cpp **** extern char* ultoa( unsigned long value, char *string, int radix )
  84:core/itoa.cpp **** {
  85:core/itoa.cpp ****   char tmp[33];
  86:core/itoa.cpp ****   char *tp = tmp;
  87:core/itoa.cpp ****   long i;
  88:core/itoa.cpp ****   unsigned long v = value;
  89:core/itoa.cpp ****   char *sp;
  90:core/itoa.cpp **** 
  91:core/itoa.cpp ****   if ( string == NULL )
 742              		.loc 1 91 0
 743 0000 89B3     		cbz	r1, .L63
  92:core/itoa.cpp ****   {
  93:core/itoa.cpp ****     return 0;
  94:core/itoa.cpp ****   }
  95:core/itoa.cpp **** 
  96:core/itoa.cpp ****   if (radix > 36 || radix <= 1)
 744              		.loc 1 96 0
 745 0002 931E     		subs	r3, r2, #2
 746 0004 222B     		cmp	r3, #34
 747 0006 2AD8     		bhi	.L64
 748              	.LBE21:
 749              	.LBE20:
  79:core/itoa.cpp ****   return ultoa( (unsigned long)value, string, (int)radix ) ;
 750              		.loc 1 79 0
 751 0008 70B4     		push	{r4, r5, r6}
 752              		.cfi_def_cfa_offset 12
 753              		.cfi_offset 4, -12
 754              		.cfi_offset 5, -8
ARM GAS  C:\Users\Bruger\AppData\Local\Temp\ccmKeERp.s 			page 36


 755              		.cfi_offset 6, -4
 756 000a 8BB0     		sub	sp, sp, #44
 757              		.cfi_def_cfa_offset 56
 758              	.LBB24:
 759              	.LBB22:
 760              		.loc 1 96 0
 761 000c 01AE     		add	r6, sp, #4
 762 000e 3446     		mov	r4, r6
 763              	.LVL67:
  97:core/itoa.cpp ****   {
  98:core/itoa.cpp ****     return 0;
  99:core/itoa.cpp ****   }
 100:core/itoa.cpp ****  
 101:core/itoa.cpp ****   while (v || tp == tmp)
 764              		.loc 1 101 0
 765 0010 48B9     		cbnz	r0, .L59
 766              	.LVL68:
 767              	.L71:
 768 0012 B442     		cmp	r4, r6
 769 0014 12D1     		bne	.L70
 102:core/itoa.cpp ****   {
 103:core/itoa.cpp ****     i = v % radix;
 770              		.loc 1 103 0
 771 0016 0346     		mov	r3, r0
 772              	.LVL69:
 773              	.L60:
 104:core/itoa.cpp ****     v = v / radix;
 105:core/itoa.cpp ****     if (i < 10)
 106:core/itoa.cpp ****       *tp++ = i+'0';
 774              		.loc 1 106 0
 775 0018 3033     		adds	r3, r3, #48
 776              	.LVL70:
 777 001a DBB2     		uxtb	r3, r3
 778              	.LVL71:
 779 001c 651C     		adds	r5, r4, #1
 780              	.LVL72:
 781              	.L58:
 782 001e 2370     		strb	r3, [r4]
  96:core/itoa.cpp ****   {
 783              		.loc 1 96 0
 784 0020 2C46     		mov	r4, r5
 785              	.LVL73:
 101:core/itoa.cpp ****   {
 786              		.loc 1 101 0
 787 0022 0028     		cmp	r0, #0
 788 0024 F5D0     		beq	.L71
 789              	.L59:
 103:core/itoa.cpp ****     v = v / radix;
 790              		.loc 1 103 0
 791 0026 B0FBF2F5 		udiv	r5, r0, r2
 792 002a 02FB1503 		mls	r3, r2, r5, r0
 793              	.LVL74:
 105:core/itoa.cpp ****       *tp++ = i+'0';
 794              		.loc 1 105 0
 795 002e 092B     		cmp	r3, #9
 104:core/itoa.cpp ****     if (i < 10)
 796              		.loc 1 104 0
ARM GAS  C:\Users\Bruger\AppData\Local\Temp\ccmKeERp.s 			page 37


 797 0030 2846     		mov	r0, r5
 798              	.LVL75:
 105:core/itoa.cpp ****       *tp++ = i+'0';
 799              		.loc 1 105 0
 800 0032 F1D9     		bls	.L60
 107:core/itoa.cpp ****     else
 108:core/itoa.cpp ****       *tp++ = i + 'a' - 10;
 801              		.loc 1 108 0
 802 0034 5733     		adds	r3, r3, #87
 803              	.LVL76:
 804 0036 DBB2     		uxtb	r3, r3
 805              	.LVL77:
 806 0038 651C     		adds	r5, r4, #1
 807              	.LVL78:
 808 003a F0E7     		b	.L58
 809              	.LVL79:
 810              	.L70:
 101:core/itoa.cpp ****   {
 811              		.loc 1 101 0
 812 003c 2346     		mov	r3, r4
 813              	.LVL80:
 109:core/itoa.cpp ****   }
 110:core/itoa.cpp **** 
 111:core/itoa.cpp ****   sp = string;
 112:core/itoa.cpp **** 
 113:core/itoa.cpp ****  
 114:core/itoa.cpp ****   while (tp > tmp)
 814              		.loc 1 114 0
 815 003e 10D9     		bls	.L66
 816 0040 4A1E     		subs	r2, r1, #1
 817              	.LVL81:
 818              	.L62:
 115:core/itoa.cpp ****     *sp++ = *--tp;
 819              		.loc 1 115 0
 820 0042 13F8010D 		ldrb	r0, [r3, #-1]!	@ zero_extendqisi2
 821              	.LVL82:
 114:core/itoa.cpp ****     *sp++ = *--tp;
 822              		.loc 1 114 0
 823 0046 B342     		cmp	r3, r6
 824              		.loc 1 115 0
 825 0048 02F8010F 		strb	r0, [r2, #1]!
 826              	.LVL83:
 114:core/itoa.cpp ****     *sp++ = *--tp;
 827              		.loc 1 114 0
 828 004c F9D1     		bne	.L62
 829 004e E41A     		subs	r4, r4, r3
 830 0050 0C44     		add	r4, r4, r1
 831              	.LVL84:
 832              	.L61:
 116:core/itoa.cpp ****   *sp = 0;
 833              		.loc 1 116 0
 834 0052 0846     		mov	r0, r1
 835 0054 0023     		movs	r3, #0
 836              	.LVL85:
 837 0056 2370     		strb	r3, [r4]
 838              	.LBE22:
 839              	.LBE24:
ARM GAS  C:\Users\Bruger\AppData\Local\Temp\ccmKeERp.s 			page 38


  81:core/itoa.cpp **** 
 840              		.loc 1 81 0
 841 0058 0BB0     		add	sp, sp, #44
 842              		.cfi_def_cfa_offset 12
 843              		@ sp needed
 844 005a 70BC     		pop	{r4, r5, r6}
 845              		.cfi_restore 6
 846              		.cfi_restore 5
 847              		.cfi_restore 4
 848              		.cfi_def_cfa_offset 0
 849 005c 7047     		bx	lr
 850              	.LVL86:
 851              	.L64:
 852              	.LBB25:
 853              	.LBB23:
  93:core/itoa.cpp ****   }
 854              		.loc 1 93 0
 855 005e 0020     		movs	r0, #0
 856              	.LVL87:
 857 0060 7047     		bx	lr
 858              	.LVL88:
 859              	.L66:
 860              		.cfi_def_cfa_offset 56
 861              		.cfi_offset 4, -12
 862              		.cfi_offset 5, -8
 863              		.cfi_offset 6, -4
 114:core/itoa.cpp ****     *sp++ = *--tp;
 864              		.loc 1 114 0
 865 0062 0C46     		mov	r4, r1
 866 0064 F5E7     		b	.L61
 867              	.LVL89:
 868              	.L63:
 869              		.cfi_def_cfa_offset 0
 870              		.cfi_restore 4
 871              		.cfi_restore 5
 872              		.cfi_restore 6
  93:core/itoa.cpp ****   }
 873              		.loc 1 93 0
 874 0066 0846     		mov	r0, r1
 875              	.LVL90:
 876 0068 7047     		bx	lr
 877              	.LBE23:
 878              	.LBE25:
 879              		.cfi_endproc
 880              	.LFE2:
 881              		.cantunwind
 882              		.fnend
 883              		.size	_Z4utoamPci, .-_Z4utoamPci
 884 006a 00BF     		.section	.text._Z5ultoamPci,"ax",%progbits
 885              		.align	2
 886              		.global	_Z5ultoamPci
 887              		.thumb
 888              		.thumb_func
 889              		.type	_Z5ultoamPci, %function
 890              	_Z5ultoamPci:
 891              		.fnstart
 892              	.LFB3:
ARM GAS  C:\Users\Bruger\AppData\Local\Temp\ccmKeERp.s 			page 39


  84:core/itoa.cpp ****   char tmp[33];
 893              		.loc 1 84 0
 894              		.cfi_startproc
 895              		@ args = 0, pretend = 0, frame = 40
 896              		@ frame_needed = 0, uses_anonymous_args = 0
 897              		@ link register save eliminated.
 898              	.LVL91:
 899              	.LBB26:
  91:core/itoa.cpp ****   {
 900              		.loc 1 91 0
 901 0000 89B3     		cbz	r1, .L81
  96:core/itoa.cpp ****   {
 902              		.loc 1 96 0
 903 0002 931E     		subs	r3, r2, #2
 904 0004 222B     		cmp	r3, #34
 905 0006 2AD8     		bhi	.L82
 906              	.LBE26:
  84:core/itoa.cpp ****   char tmp[33];
 907              		.loc 1 84 0
 908 0008 70B4     		push	{r4, r5, r6}
 909              		.cfi_def_cfa_offset 12
 910              		.cfi_offset 4, -12
 911              		.cfi_offset 5, -8
 912              		.cfi_offset 6, -4
 913 000a 8BB0     		sub	sp, sp, #44
 914              		.cfi_def_cfa_offset 56
 915              	.LBB27:
  96:core/itoa.cpp ****   {
 916              		.loc 1 96 0
 917 000c 01AE     		add	r6, sp, #4
 918 000e 3446     		mov	r4, r6
 919              	.LVL92:
 101:core/itoa.cpp ****   {
 920              		.loc 1 101 0
 921 0010 48B9     		cbnz	r0, .L77
 922              	.LVL93:
 923              	.L89:
 101:core/itoa.cpp ****   {
 924              		.loc 1 101 0 is_stmt 0 discriminator 1
 925 0012 B442     		cmp	r4, r6
 926 0014 12D1     		bne	.L88
 103:core/itoa.cpp ****     v = v / radix;
 927              		.loc 1 103 0 is_stmt 1
 928 0016 0346     		mov	r3, r0
 929              	.LVL94:
 930              	.L78:
 106:core/itoa.cpp ****     else
 931              		.loc 1 106 0
 932 0018 3033     		adds	r3, r3, #48
 933              	.LVL95:
 934 001a DBB2     		uxtb	r3, r3
 935              	.LVL96:
 936 001c 651C     		adds	r5, r4, #1
 937              	.LVL97:
 938              	.L76:
 939 001e 2370     		strb	r3, [r4]
  96:core/itoa.cpp ****   {
ARM GAS  C:\Users\Bruger\AppData\Local\Temp\ccmKeERp.s 			page 40


 940              		.loc 1 96 0
 941 0020 2C46     		mov	r4, r5
 942              	.LVL98:
 101:core/itoa.cpp ****   {
 943              		.loc 1 101 0
 944 0022 0028     		cmp	r0, #0
 945 0024 F5D0     		beq	.L89
 946              	.L77:
 103:core/itoa.cpp ****     v = v / radix;
 947              		.loc 1 103 0
 948 0026 B0FBF2F5 		udiv	r5, r0, r2
 949 002a 02FB1503 		mls	r3, r2, r5, r0
 950              	.LVL99:
 105:core/itoa.cpp ****       *tp++ = i+'0';
 951              		.loc 1 105 0
 952 002e 092B     		cmp	r3, #9
 104:core/itoa.cpp ****     if (i < 10)
 953              		.loc 1 104 0
 954 0030 2846     		mov	r0, r5
 955              	.LVL100:
 105:core/itoa.cpp ****       *tp++ = i+'0';
 956              		.loc 1 105 0
 957 0032 F1D9     		bls	.L78
 108:core/itoa.cpp ****   }
 958              		.loc 1 108 0
 959 0034 5733     		adds	r3, r3, #87
 960              	.LVL101:
 961 0036 DBB2     		uxtb	r3, r3
 962              	.LVL102:
 963 0038 651C     		adds	r5, r4, #1
 964              	.LVL103:
 965 003a F0E7     		b	.L76
 966              	.LVL104:
 967              	.L88:
 968 003c 2346     		mov	r3, r4
 969              	.LVL105:
 114:core/itoa.cpp ****     *sp++ = *--tp;
 970              		.loc 1 114 0
 971 003e 10D9     		bls	.L84
 972 0040 4A1E     		subs	r2, r1, #1
 973              	.LVL106:
 974              	.L80:
 115:core/itoa.cpp ****   *sp = 0;
 975              		.loc 1 115 0
 976 0042 13F8010D 		ldrb	r0, [r3, #-1]!	@ zero_extendqisi2
 977              	.LVL107:
 114:core/itoa.cpp ****     *sp++ = *--tp;
 978              		.loc 1 114 0
 979 0046 B342     		cmp	r3, r6
 115:core/itoa.cpp ****   *sp = 0;
 980              		.loc 1 115 0
 981 0048 02F8010F 		strb	r0, [r2, #1]!
 982              	.LVL108:
 114:core/itoa.cpp ****     *sp++ = *--tp;
 983              		.loc 1 114 0
 984 004c F9D1     		bne	.L80
 985 004e E41A     		subs	r4, r4, r3
ARM GAS  C:\Users\Bruger\AppData\Local\Temp\ccmKeERp.s 			page 41


 986 0050 0C44     		add	r4, r4, r1
 987              	.LVL109:
 988              	.L79:
 117:core/itoa.cpp **** 
 118:core/itoa.cpp ****   return string;
 989              		.loc 1 118 0
 990 0052 0846     		mov	r0, r1
 116:core/itoa.cpp **** 
 991              		.loc 1 116 0
 992 0054 0023     		movs	r3, #0
 993              	.LVL110:
 994 0056 2370     		strb	r3, [r4]
 995              	.LBE27:
 119:core/itoa.cpp **** }
 996              		.loc 1 119 0
 997 0058 0BB0     		add	sp, sp, #44
 998              		.cfi_def_cfa_offset 12
 999              		@ sp needed
 1000 005a 70BC     		pop	{r4, r5, r6}
 1001              		.cfi_restore 6
 1002              		.cfi_restore 5
 1003              		.cfi_restore 4
 1004              		.cfi_def_cfa_offset 0
 1005 005c 7047     		bx	lr
 1006              	.LVL111:
 1007              	.L82:
 1008              	.LBB28:
  93:core/itoa.cpp ****   }
 1009              		.loc 1 93 0
 1010 005e 0020     		movs	r0, #0
 1011              	.LVL112:
 1012 0060 7047     		bx	lr
 1013              	.LVL113:
 1014              	.L84:
 1015              		.cfi_def_cfa_offset 56
 1016              		.cfi_offset 4, -12
 1017              		.cfi_offset 5, -8
 1018              		.cfi_offset 6, -4
 114:core/itoa.cpp ****     *sp++ = *--tp;
 1019              		.loc 1 114 0
 1020 0062 0C46     		mov	r4, r1
 1021 0064 F5E7     		b	.L79
 1022              	.LVL114:
 1023              	.L81:
 1024              		.cfi_def_cfa_offset 0
 1025              		.cfi_restore 4
 1026              		.cfi_restore 5
 1027              		.cfi_restore 6
  93:core/itoa.cpp ****   }
 1028              		.loc 1 93 0
 1029 0066 0846     		mov	r0, r1
 1030              	.LVL115:
 1031 0068 7047     		bx	lr
 1032              	.LBE28:
 1033              		.cfi_endproc
 1034              	.LFE3:
 1035              		.cantunwind
ARM GAS  C:\Users\Bruger\AppData\Local\Temp\ccmKeERp.s 			page 42


 1036              		.fnend
 1037              		.size	_Z5ultoamPci, .-_Z5ultoamPci
 1038 006a 00BF     		.text
 1039              	.Letext0: