ARM GAS  C:\Users\Bruger\AppData\Local\Temp\ccqi7cGy.s 			page 1


   1              		.syntax unified
   2              		.cpu cortex-m3
   3              		.fpu softvfp
   4              		.eabi_attribute 20, 1
   5              		.eabi_attribute 21, 1
   6              		.eabi_attribute 23, 3
   7              		.eabi_attribute 24, 1
   8              		.eabi_attribute 25, 1
   9              		.eabi_attribute 26, 1
  10              		.eabi_attribute 30, 2
  11              		.eabi_attribute 34, 1
  12              		.eabi_attribute 18, 4
  13              		.thumb
  14              		.file	"Micros_Counter_PM.c"
  15              		.text
  16              	.Ltext0:
  17              		.section	.gnu.lto_.profile.24c02d40,"",%progbits
  18 0000 789C6366 		.ascii	"x\234cf```a\200\000F\206\014\031\000\001`\000\215"
  18      60606061 
  18      80004686 
  18      0C190001 
  18      60008D
  19              		.text
  20              		.section	.gnu.lto_.jmpfuncs.24c02d40,"",%progbits
  21 0000 789C6366 		.ascii	"x\234cf\300\016\244\2404\013\230db``\004#f\204\030\000"
  21      C00EA4A0 
  21      340B9864 
  21      62606004 
  21      23668418 
  22 0015 0544002D 		.ascii	"\005D\000-"
  23              		.text
  24              		.section	.gnu.lto_.inline.24c02d40,"",%progbits
  25 0000 789C6366 		.ascii	"x\234cf\300\016\252\2404\013\003\003\247\024#\003\023"
  25      C00EAAA0 
  25      340B0303 
  25      A7142303 
  25      13
  26 0011 CB027906 		.ascii	"\313\002y\006\266\005\362L 1&n8\201]\222q\202\037\224"
  26      B605F24C 
  26      2031266E 
  26      38815D92 
  26      71821F94 
  27 0025 6266E002 		.ascii	"bf\340\002)\340\332g\007W\300\310\005#X\0308\004\201"
  27      29E0DA67 
  27      0757C0C8 
  27      05235818 
  27      380481
  28 0038 926C1FF4 		.ascii	"\222l\037\364\260H2\000\000\232\325\012\004"
  28      B0483200 
  28      009AD50A 
  28      04
  29              		.text
  30              		.section	.gnu.lto_.pureconst.24c02d40,"",%progbits
  31 0000 789C6366 		.ascii	"x\234cf``\340d\200\000\026\006\011&\011f)\026\011\000"
  31      6060E064 
  31      80001606 
  31      09260966 
ARM GAS  C:\Users\Bruger\AppData\Local\Temp\ccqi7cGy.s 			page 2


  31      29160900 
  32 0014 02B7007C 		.ascii	"\002\267\000|"
  33              		.text
  34              		.section	.gnu.lto_Micros_Counter_SaveConfig.24c02d40,"",%progbits
  35 0000 789C7D90 		.ascii	"x\234}\220\273K\003A\020\306\347\3333\347i\032\261\314"
  35      BB4B0341 
  35      10C6E7DB 
  35      33E7691A 
  35      B1CC
  36 0012 3F9042CE 		.ascii	"?\220B\316\316R\233\024\202\020\010\244\015\004\211"
  36      CE529B14 
  36      821008A4 
  36      0D0489
  37 0021 57D8E4E0 		.ascii	"W\330\344\340L\312\220;Ma\245\301J\360\001\012\342#"
  37      4CCA903B 
  37      4D61A5C1 
  37      4AF0010A 
  37      E223
  38 0033 2FB517CE 		.ascii	"/\265\027\316ZP$\205\020E\233\010\332\031\257\220Cb"
  38      5A502485 
  38      10459B08 
  38      DA19AF90 
  38      4362
  39 0045 9CBD7489 		.ascii	"\234\275t\211\2700\273\263;\337~\363\333UhxD8j \322"
  39      B830BBB3 
  39      3BDF7EF3 
  39      DB556878 
  39      44386A20 
  40 005a 79854210 		.ascii	"y\205B\020\345[\"G\023\200L\010T\024(\342]t\004\312"
  40      E55B2247 
  40      13804C08 
  40      541428E2 
  40      5D7404CA 
  41 006e 6E653B1C 		.ascii	"ne;\034=\262m\373\343\360\306I\270\360\005\221'\372"
  41      3DB26DFB 
  41      E3F0C649 
  41      B8F00591 
  41      27FA
  42 0080 3E384694 		.ascii	">8F\224X\324)u\037\302j\211E\023\375\032N\240\262?5"
  42      58D42975 
  42      1FC26A89 
  42      4513FD1A 
  42      4EA0B23F 
  43 0095 265DBBD7 		.ascii	"&]\273\327\363j\327-h\012\371\002*O,hs\310V\257\274"
  43      F36AD72D 
  43      680AF902 
  43      2A4F2C68 
  43      73C856AF 
  44 00aa E15579C2 		.ascii	"\341Uy\302\232{\305F|\355K(\234\35477\352\242\360m\257"
  44      9A7BC546 
  44      7CED4B28 
  44      9CEC3737 
  44      EAA2F06D 
  45 00bf DB9A2F14 		.ascii	"\333\232/\024O\260\031NQ\340\333#\324\302\352\326\201"
  45      4FB0194E 
  45      51E0DB23 
  45      D4C2EAD6 
ARM GAS  C:\Users\Bruger\AppData\Local\Temp\ccqi7cGy.s 			page 3


  45      81
  46 00d0 2EB583C2 		.ascii	".\265\203\302PW6\347\323\227\366\335\275\366&\370$\330"
  46      505736E7 
  46      D397F6DD 
  46      BDF626F8 
  46      24D8
  47 00e2 9E38A55D 		.ascii	"\2368\245]\354a\307\261\245J\305\031\012\250 \022\324"
  47      EC61C7B1 
  47      A54AC519 
  47      0AA82012 
  47      D4
  48 00f3 7EAA9B97 		.ascii	"~\252\233\227\252^avw\316\027\243\250\262\3603x\037"
  48      AA5E6176 
  48      77CE17A3 
  48      A8B2F033 
  48      781F
  49 0105 6AD09986 		.ascii	"j\320\231\206$\\\263\243\364\341\206zj\236|\020\352"
  49      245CB3A3 
  49      F4E1867A 
  49      6A9E7C10 
  49      EA
  50 0116 01DC581F 		.ascii	"\001\334X\037n\366_\270A\232\306\3374\013\276\030\307"
  50      6EF65FB8 
  50      419AC6DF 
  50      340BBE18 
  50      C7
  51 0127 794023BF 		.ascii	"y@#\277\022\027\222F\245g8\356cH6\220\214m\256\361\007"
  51      12179246 
  51      A56738EE 
  51      63483690 
  51      8C6DAEF1 
  52 013c B2F3D4BC 		.ascii	"\262\363\324\274\2215\254\305\234\261\224N\232y+c\244"
  52      9135ACC5 
  52      9CB1944E 
  52      9A792B63 
  52      A4
  53 014d 12493336 		.ascii	"\022I36\223\212/g,s%\0353\363\331\234a\245\023\361\351"
  53      938A2F67 
  53      2C73251D 
  53      33F3D99C 
  53      61A513F1 
  54 0162 0CFD0202 		.ascii	"\014\375\002\002\370\250|"
  54      F8A87C
  55              		.text
  56              		.section	.gnu.lto_Micros_Counter_RestoreConfig.24c02d40,"",%progbits
  57 0000 789C7D90 		.ascii	"x\234}\220\317K\002Q\020\307\347;\273m[^\242\223\370"
  57      CF4B0251 
  57      10C7E73B 
  57      BB6D5B5E 
  57      A293F8
  58 0013 0F7810BB 		.ascii	"\017x\020\273\365\027\010u\022\004\257\202\204\355\241"
  58      F5170875 
  58      1204AF82 
  58      84EDA1
  59 0022 8B0B9B1E 		.ascii	"\213\013\233\036\305\3350\350Tv\013\372\001\005\221"
  59      C5DD30E8 
  59      54760BFA 
ARM GAS  C:\Users\Bruger\AppData\Local\Temp\ccqi7cGy.s 			page 4


  59      010591
  60 0031 A5691674 		.ascii	"\245i\026t\366\037(\221\202\240\242.\006u\313<\304\022"
  60      F61F2891 
  60      82A0A22E 
  60      0675CB3C 
  60      C412
  61 0043 66EFAD9D 		.ascii	"f\357\255\235\354\307\203y\363f\346\373f>\214B?O@\330"
  61      ECC78379 
  61      F366E6FB 
  61      663E8C42 
  61      3F4F40D8 
  62 0057 2E88C2C2 		.ascii	".\210\302\302C!p\361\222\310\321\031\220\017\002\345"
  62      432170F1 
  62      92C8D119 
  62      900F02E5 
  63 0067 1979BC70 		.ascii	"\031y\274p\207Ql\2247|\301}\333\266_\367\316\374\313"
  63      87516C94 
  63      377CC17D 
  63      DBB65FF7 
  63      CEFCCB
  64 007a 7E9789BA 		.ascii	"~\227\211\272<h\203\003\004Ih:\205\336\215O+\010\315"
  64      3C688303 
  64      0449683A 
  64      85DE8D4F 
  64      2B08CD
  65 008d C4A08612 		.ascii	"\304\240\206\0224\321\236j\223\015\273\337\357^\254"
  65      34D19E6A 
  65      930DBBDF 
  65      EF5EAC
  66 009c 9742D098 		.ascii	"\227B\320\230\\\206*.\241h\013\223\243\236D \274r\213"
  66      5C862A2E 
  66      A1680B93 
  66      A39E4420 
  66      BC728B
  67 00af A5F37AD3 		.ascii	"\245\363z\323Q\344\307w\226sw\256V\253\234\373\260W"
  67      51E4C777 
  67      967377AE 
  67      56AB9CFB 
  67      B057
  68 00c1 6CDD65A5 		.ascii	"l\335e\245'\273\212\354c\273\331\322\237Yd\274\260\344"
  68      27BB8AEC 
  68      63BBD9D2 
  68      9F5964BC 
  68      B0E4
  69 00d3 14B6B08D 		.ascii	"\024\266\260\215M\307\226*\025\207\310\341\010\001\257"
  69      4DC7962A 
  69      1587C8E1 
  69      0801AF
  70 00e2 F659593B 		.ascii	"\366YY;\325\302!\227GP\026\2327\217\031\025\204\351"
  70      D5C22197 
  70      4750169A 
  70      378F1915 
  70      84E9
  71 00f4 1EAA9C43 		.ascii	"\036\252\234C\303S\264.\013h\034#G\202\301\345Q\222"
  71      C353B42E 
  71      0B681C23 
  71      4782C1E5 
ARM GAS  C:\Users\Bruger\AppData\Local\Temp\ccqi7cGy.s 			page 5


  71      5192
  72 0106 589DEBD6 		.ascii	"X\235\353\3267\226\372'\3260G\3657\016\0355\217C.\006"
  72      3796FA27 
  72      D63047F5 
  72      370E1D35 
  72      8F432E06 
  73 011a 27FF708C 		.ascii	"'\377p\214u\345\212P\3678T\227\307\351\001N\343n\306"
  73      75E58A50 
  73      F7385497 
  73      C7E9014E 
  73      E36EC6
  74 012d 13935C1E 		.ascii	"\023\223\\\036\344\322\204&4k\244\015k.c\314'\343f\326"
  74      E4D28426 
  74      346BA40D 
  74      6B2E63CC 
  74      27E366D6 
  75 0141 4A198958 		.ascii	"J\031\211X\334\214L'\242\013)\313\\LF\314l:cX\311Xt"
  75      DC8C4C27 
  75      A20B29CB 
  75      5C4C46CC 
  75      6C3A6358 
  76 0158 2A455FF7 		.ascii	"*E_\367\373\236\317"
  76      FB9ECF
  77              		.text
  78              		.section	.gnu.lto_Micros_Counter_Sleep.24c02d40,"",%progbits
  79 0000 789C8592 		.ascii	"x\234\205\222Ah\023A\024\206\337\377vv\223\246Z\305"
  79      41681341 
  79      1486DFFF 
  79      767693A6 
  79      5AC5
  80 0012 53E9D14B 		.ascii	"S\351\321K\017\022o\036\245\207\036\204B\241\320k!H"
  80      0F126F1E 
  80      A5871E84 
  80      42A1D06B 
  80      2148
  81 0024 DC839744 		.ascii	"\334\203\227Db{\014\235mV\024\017\032\365\022\264\361"
  81      627B0C9D 
  81      6D56140F 
  81      1AF512B4 
  81      F1
  82 0035 A64613DB 		.ascii	"\246F\023\333\332j=\024d\351E\020Q\252\210P\244\242"
  82      DA6A3D14 
  82      64E94510 
  82      51AA8850 
  82      A4A2
  83 0047 B4500F4A 		.ascii	"\264P\017Jj\245v\321\032\337l\242-\025uavf\336|\363"
  83      6AA576D1 
  83      1ADF6CA2 
  83      2D157561 
  83      7666DE7C 
  84 005c FFFFCEAC 		.ascii	"\377\377\316\254E\177>G\245\235b\242\244\364p\010\\"
  84      457F3E47 
  84      A59D62A2 
  84      A4F47008 
  84      5C
  85 006d 7C46E4C5 		.ascii	"|F\344\305\231\255\315\016\322\011U\352!\275\307\202"
  85      99ADCD0E 
ARM GAS  C:\Users\Bruger\AppData\Local\Temp\ccqi7cGy.s 			page 6


  85      D20955EA 
  85      21BDC782 
  86 007d DD2CAB5F 		.ascii	"\335,\253_\003\0330\003\002\215\262\245l\214\342\003"
  86      031B3003 
  86      028DB2A5 
  86      6C8CE203 
  87 008d AF318A41 		.ascii	"\2571\212A\265\324\336}Ck]\277<\327y\2463\024\345un"
  87      B5D4DE7D 
  87      436B5DBF 
  87      3CD779A6 
  87      3314E575 
  88 00a2 3AE116BA 		.ascii	":\341\026\272I\2305\177\353u\273\343\013\263\277\271"
  88      4998357F 
  88      EB75BBE3 
  88      0BB3BFB9 
  89 00b2 860A1C48 		.ascii	"\206\012\034H?y \320\215\306\314\307K\225\203\334fQ"
  89      3F7920D0 
  89      8DC6CCC7 
  89      4B9583DC 
  89      6651
  90 00c4 C850F212 		.ascii	"\310P\362\022bY\232q[\221\211\364\326\"\3467\316\177"
  90      62599A71 
  90      5B9189F4 
  90      D622E637 
  90      CE7F
  91 00d6 2ACFC2EC 		.ascii	"*\317\302\354\374\312\226\210>\252\275\230O\254r(\261"
  91      FCCA9688 
  91      3EAABD98 
  91      4FAC7228 
  91      B1
  92 00e7 9F785A19 		.ascii	"\237xZ\031\237\267\313\317\027\342Q\211\314T\317\275"
  92      9FB7CBCF 
  92      17E25189 
  92      CC54CFBD 
  93 00f7 5F8D9571 		.ascii	"_\215\225q\315\363\021\262\302mt\341\016\272\304\275"
  93      CDF311B2 
  93      C26D74E1 
  93      0EBAC4BD 
  94 0107 8A326811 		.ascii	"\2122h\021cKg\277\253\246\240\022Mz\005\377i!\323*\354"
  94      634B67BF 
  94      ABA6A012 
  94      4D7A05FF 
  94      6921D32A 
  95 011c 949330A8 		.ascii	"\224\2230\250\231\235d\022Y\264\331!\201\306\352S_\336"
  95      999D6412 
  95      59B4D921 
  95      81C6EA53 
  95      5FDE
  96 012e ED35B4A0 		.ascii	"\3555\264\240\327_^\230\340\3747}N\307C\266\267\314"
  96      D75F5E98 
  96      E0FC377D 
  96      4EC743B6 
  96      B7CC
  97 0140 37EE14B0 		.ascii	"7\356\024\260\243i\305\363\307a\362hC9\270\213<&\214"
  97      A369C5F3 
  97      C761F268 
  97      4339B88B 
ARM GAS  C:\Users\Bruger\AppData\Local\Temp\ccqi7cGy.s 			page 7


  97      3C268C
  98 0153 ACACFDA8 		.ascii	"\254\254\375\250]\234v\222U9\242\240/\344\030&\005\374"
  98      5D9C7692 
  98      5539A2A0 
  98      2FE41826 
  98      05FC
  99 0165 1C1D23A6 		.ascii	"\034\035#\246\220\024`\341\352\315\302>\243\025\003"
  99      901460E1 
  99      EACDC23E 
  99      A31503
 100 0174 E15E1466 		.ascii	"\341^\024f\205\025\225z\242(\365\215\377D\331\355=\375"
 100      8515957A 
 100      A228F58D 
 100      FF44D9ED 
 100      3DFD
 101 0186 0FEF996D 		.ascii	"\017\357\231m\357\373\221\367\357\357\210I\351A\313"
 101      EFFB91F7 
 101      EFEF8849 
 101      E941CB
 102 0195 DB8E2EE6 		.ascii	"\333\216.\346\015\012A\3431\033o\332m\036_g\271d\314"
 102      0D0A41E3 
 102      311B6FDA 
 102      6D1E5F67 
 102      B964CC
 103 01a8 222F97DA 		.ascii	"\"/\227\332F\006-&\376F\2323~\330\"\227\340\005W\372"
 103      46062D26 
 103      FE469A33 
 103      7ED82297 
 103      E00557FA 
 104 01bc 2292CCBF 		.ascii	"\"\222\314\277\000c%\300\241cn\306\315\035\037vO\244"
 104      006325C0 
 104      A1636EC6 
 104      CD1D1F76 
 104      4FA4
 105 01ce 06B323B9 		.ascii	"\006\263#\271\264;40\230\355=2\324\1772\235\313\236"
 105      B43B3430 
 105      98ED3D32 
 105      D47F329D 
 105      CB9E
 106 01e0 4EF56647 		.ascii	"N\365fG2\303n.5\320\1778M?\001\244o\363\177"
 106      32C36E2E 
 106      35D07F38 
 106      4D3F01A4 
 106      6FF37F
 107              		.text
 108              		.section	.gnu.lto_Micros_Counter_Wakeup.24c02d40,"",%progbits
 109 0000 789C7550 		.ascii	"x\234uP\275K\202A\034\376=\277\367z\261\0172\232\242"
 109      BD4B8241 
 109      1CFE3DBF 
 109      F77AB10F 
 109      329AA2
 110 0013 7FC0416C 		.ascii	"\177\300Al(Z[\032\032B\020\\\005\011{\207\026\005\263"
 110      285A5B1A 
 110      1A42105C 
 110      05097B87 
 110      1605B3
 111 0026 36F14C83 		.ascii	"6\361L\203\246\012[\202\262-\262O\311\241\331\311\300"
ARM GAS  C:\Users\Bruger\AppData\Local\Temp\ccqi7cGy.s 			page 8


 111      A60A5B82 
 111      B22DB24F 
 111      C9A1D9C9 
 111      C0
 112 0037 A1881023 		.ascii	"\241\210\020#\372\2000\260-s\010\211>\356^\203\240\350"
 112      FA8030B0 
 112      2D730889 
 112      3EEE5E83 
 112      A0E8
 113 0049 E0F8DD3D 		.ascii	"\340\370\335=\367|\360\234A\177\327\210\332\363 \362"
 113      F77CF09C 
 113      417FD788 
 113      DAF320F2 
 114 0059 A8890E02 		.ascii	"\250\211\016\002\257\236\021%\035\314F\311I\262K\224"
 114      AF9E1125 
 114      1DCC46C9 
 114      49B24B94 
 115 0069 C748F618 		.ascii	"\307H\366\030\020mX\000\372@\240\004\033\002\011<q\203"
 115      106D5800 
 115      FA40A004 
 115      1B02093C 
 115      7183
 116 007b B15ADC5F 		.ascii	"\261Z\334_\357vmK)\237\037*\003\213\003-&jr\333\037"
 116      EF766D4B 
 116      299F1F2A 
 116      038B032D 
 116      266A72DB 
 117 0090 3B7091E2 		.ascii	";p\221\3424\322\357\325n3\2558}\3557\344`\252\\\312"
 117      34D2EFD5 
 117      6E33AD38 
 117      7DED37E4 
 117      60AA5CCA 
 118 00a4 F717E5E7 		.ascii	"\367\027\345\347g\263\232\311\015\263)\250\305\012\254"
 118      67B39AC9 
 118      0DB329A8 
 118      C50AAC
 119 00b3 2982CE79 		.ascii	")\202\316yd\326\323\270A\252\330(\263\226h\257\255\313"
 119      64D6D3B8 
 119      41AAD828 
 119      B39668AF 
 119      ADCB
 120 00c5 E5238EBF 		.ascii	"\345#\216\277\311%\351h17\265\002\273\210+\255A\327"
 120      C925E968 
 120      3137B502 
 120      BB882BAD 
 120      41D7
 121 00d7 583839BE 		.ascii	"X89\276\315tj\356+\213\337l\361\256\263\025z_;\277p"
 121      CD746AEE 
 121      2B8BDF6C 
 121      F1AEB315 
 121      7A5F3BBF 
 122 00ec D45921F6 		.ascii	"\324Y!\3665\227Lo\"\213\215\244\324\254\016\354!\216"
 122      35974C6F 
 122      228B8DA4 
 122      D4AC0EEC 
 122      218E
 123 00fe 7D0CDA6F 		.ascii	"}\014\332o\037\007+\005\323\343n\261\211\003\305y\261"
ARM GAS  C:\Users\Bruger\AppData\Local\Temp\ccqi7cGy.s 			page 9


 123      1F072B05 
 123      D3E36EB1 
 123      8903C579 
 123      B1
 124 010f 9BE1101E 		.ascii	"\233\341\020\036\252 }\225\012\377D\235f\353\005\241"
 124      AA207D95 
 124      0AFF449D 
 124      66EB05A1 
 125 011f 4D01C291 		.ascii	"M\001\302\221\226\223.aP\311iwx+\367\376\327A\231\""
 125      96932E61 
 125      50C96977 
 125      782BF7FE 
 125      D7419922 
 126 0133 FFDD416B 		.ascii	"\377\335Ak\204]\374\016\311\342\332\244\255!\375-\320"
 126      845DFC0E 
 126      C9E2DAA4 
 126      AD21FD2D 
 126      D0
 127 0144 A8A2BA27 		.ascii	"\250\242\272'\254\260\025\235\212Y\323A\177d.\032\262"
 127      ACB0159D 
 127      8A59D341 
 127      7F642E1A 
 127      B2
 128 0155 023E7F64 		.ascii	"\002>\177d|4\340\235\011E#\263\301\361\310\\8fE\203"
 128      7C34E09D 
 128      094523B3 
 128      C1F1C85C 
 128      38664583 
 129 0169 3EEF5088 		.ascii	">\357P\210\276\000\345\223\226@"
 129      BE00E593 
 129      9640
 130              		.text
 131              		.section	.gnu.lto_.symbol_nodes.24c02d40,"",%progbits
 132 0000 789C55CF 		.ascii	"x\234U\317\301\015\3020\014F\341\027;m\223\316\300\256"
 132      C10DC230 
 132      0C46E117 
 132      3B6D93CE 
 132      C0AE
 133 0012 7F0F1D80 		.ascii	"\177\017\035\200\011P\205X\203[\317\314\000\2109\020"
 133      09508558 
 133      835BCFCC 
 133      00883910 
 134 0022 69E16072 		.ascii	"i\341`ry\372\354\213\343\300\223\337\263$8\336@\342"
 134      79FAEC8B 
 134      E3C093DF 
 134      B32438DE 
 134      40E2
 135 0034 B4143A58 		.ascii	"\264\024:XLn\246\024\307\346\262?gyt\352\225\277f\232"
 135      4C6EA614 
 135      C7E6B23F 
 135      677974EA 
 135      95BF669A 
 136 0048 1A3B7591 		.ascii	"\032;u\221E}\344\240!\262\252D\216\252\201N\317\345"
 136      457DE4A0 
 136      21B2AA44 
 136      8EAA814E 
 136      CFE5
ARM GAS  C:\Users\Bruger\AppData\Local\Temp\ccqi7cGy.s 			page 10


 137 005a FE4EDE4E 		.ascii	"\376N\336N{m\265\302\272w`~\264ze\335\333~\2655\033"
 137      7B6DB5C2 
 137      BA77607E 
 137      B47A65DD 
 137      DB7EB535 
 138 006f E76D9F47 		.ascii	"\347m\237G\346\353\201\017I\340;G"
 138      E6EB810F 
 138      49E03B47 
 139              		.text
 140              		.section	.gnu.lto_.refs.24c02d40,"",%progbits
 141 0000 789C25C7 		.ascii	"x\234%\307\301\021\000 \020\203@H\3166\354\277Lu\344"
 141      C1110020 
 141      10834048 
 141      CE36ECBF 
 141      4C75E4
 142 0013 B514D8FC 		.ascii	"\265\024\330\374\202F'\017\330\364\216.\007\303\001"
 142      8246270F 
 142      D8F48E2E 
 142      07C301
 143 0022 07DF0052 		.ascii	"\007\337\000R"
 144              		.text
 145              		.section	.gnu.lto_.decls.24c02d40,"",%progbits
 146 0000 789C8D55 		.ascii	"x\234\215UmLSW\030\276\247\247\024z\251\260\214\015"
 146      6D4C5357 
 146      18BEA7A7 
 146      147AA9B0 
 146      8C0D
 147 0012 B76E8980 		.ascii	"\267n\211\200\011q\2333f\313\022\377\315\204,.[\334"
 147      09719B33 
 147      66CB12FF 
 147      CD842C2E 
 147      5BDC
 148 0024 88C4EC87 		.ascii	"\210\304\354\207&\212x\247DBI)K\374\265\013E\0044\210"
 148      268A78A7 
 148      44424929 
 148      4BFCB50B 
 148      45043488 
 149 0038 A0B34262 		.ascii	"\240\263Bb\252\255\003\005K\005u\362\241m\021\012\202"
 149      AAAD0305 
 149      4B0575F2 
 149      A16D110A 
 149      82
 150 0049 A8282255 		.ascii	"\250(\"U\224\026&\302\320\211\272\3711\235\335{\316"
 150      941626C2 
 150      D089BAF9 
 150      319DDD7B 
 150      CE
 151 005a BD97DE5B 		.ascii	"\275\227\336[a\361&/\334s\372\274\317\373<\357\371\270"
 151      61F1262F 
 151      DC73FABC 
 151      CFFB3CEF 
 151      F9B8
 152 006c 9861980E 		.ascii	"\230a\230\016\3040Ax^F1\214J\3050\0210\227\312\204\036"
 152      C4304178 
 152      5E46318C 
 152      4AC53011 
 152      3097CA84 
ARM GAS  C:\Users\Bruger\AppData\Local\Temp\ccqi7cGy.s 			page 11


 153 0081 16A21EC2 		.ascii	"\026\242\036\302\001\341\204h\204h\201h\207\360B\364"
 153      01E18468 
 153      84688168 
 153      87F042F4 
 154 0091 405C80B8 		.ascii	"@\\\200\270\010\001T\314mF\371\220\334h\2213\021\"\036"
 154      080154CC 
 154      6D46F990 
 154      DC689133 
 154      11221E
 155 00a4 6204C20D 		.ascii	"b\004\302\015\341\207\270\011\341\202\010@\234\2068"
 155      E187B809 
 155      E1820840 
 155      9C8638
 156 00b3 05013298 		.ascii	"\005\0012\230A\210!\010,r\264\213ug\253\341\230\245"
 156      41882108 
 156      2C72B48B 
 156      7567ABE1 
 156      98A5
 157 00c5 869C7B14 		.ascii	"\206\234{\024\242[\344\036#\236g\251\341\020\275x\347"
 157      A25BE41E 
 157      239E67A9 
 157      E110BD78 
 157      E7
 158 00d6 A8E1147B 		.ascii	"\250\341\024{\221*\362\337\201\230\202\230\224\325\""
 158      912AF2DF 
 158      81988298 
 158      94D522
 159 00e5 FCF7208E 		.ascii	"\374\367 \216\210\034>\221\333)\366\250~\016n\322\323"
 159      881C3E91 
 159      DB29F6A8 
 159      7E0E6ED2 
 159      D3
 160 00f6 4819B7C4 		.ascii	"H\031\267\304!\347\225\3635\212z\347\352\371C\025jv"
 160      21E795F3 
 160      358A7AE7 
 160      EAF94315 
 160      6A76
 161 0108 FCD5173D 		.ascii	"\374\325\027=\241B1l\002\031\266Tt[40\324\261j2l}1:"
 161      A142316C 
 161      0219B654 
 161      745B3430 
 161      D4B16A32 
 162 0120 A09EBF97 		.ascii	"\240\236\277\227\207\247\334\314\277\245F\251\361\250"
 162      87A7DCCC 
 162      BFA546A9 
 162      F1A8
 163 012e 06E9512D 		.ascii	"\006\351Q-\322\003\343\0214\037\376\256Q\013L\303\275"
 163      D203E311 
 163      341FFEAE 
 163      510B4CC3 
 163      BD
 164 013f 3B6D3AAC 		.ascii	";m:\254B\344\335f\011\014\260\213\217BZ1\357\366\343"
 164      42E4DD66 
 164      090CB08B 
 164      8F425A31 
 164      EFF6E3
 165 0152 50B9E2FB 		.ascii	"P\271\342\373w\257E%\034\340\375\316\351\336\023>\035"
ARM GAS  C:\Users\Bruger\AppData\Local\Temp\ccqi7cGy.s 			page 12


 165      77AF4525 
 165      1CE0FDCE 
 165      E9DE133E 
 165      1D
 166 0163 DFCDBB83 		.ascii	"\337\315\273\203\301/)\025:\2120\252C\213\011\222\274"
 166      C12F2915 
 166      3A8A30AA 
 166      438B0992 
 166      BC
 167 0174 D314548F 		.ascii	"\323\024T\217\022 \355\374c\263+\002\177O\271\207\212"
 167      1220EDFC 
 167      63B32B02 
 167      7F4FB987 
 167      8A
 168 0185 9EEED250 		.ascii	"\236\356\322P\012k\225M#\020\320\374c\262\374cR\276"
 168      0A6B954D 
 168      2310D0FC 
 168      63B2FC63 
 168      52BE
 169 0197 83E6EF2E 		.ascii	"\203\346\357.+x\210p\026\315\257\034n9\244\206|\253"
 169      2B788870 
 169      16CDAF1C 
 169      6E39A486 
 169      7CAB
 170 01a9 D3EA53E4 		.ascii	"\323\352S\3447\310\362\033\244|'\315\257m\370\363J\014"
 170      37C8F21B 
 170      A47C27CD 
 170      AF6DF8F3 
 170      4A0C
 171 01bb CE4794C0 		.ascii	"\316G\224\300s\377RC\254@\3408,'8.#8.\0214R\202A\327"
 171      73FF5243 
 171      AC40E038 
 171      2C27382E 
 171      23382E11 
 172 01d4 F6ED5178 		.ascii	"\366\355Qx\237@\220\377k\353\316Hhr<K{R\326[\345\301"
 172      9F4090FF 
 172      6BEBCE48 
 172      68723C4B 
 172      7B52D65B 
 173 01ea 7418243F 		.ascii	"t\030$?\253|\276=\3171b\223\213y\276\200\237\256\340"
 173      AB7CBE3D 
 173      CF316293 
 173      8B79BE80 
 173      9FAEE0
 174 01fd F17B0C5A 		.ascii	"\361{\014Z\254G\037\351\031\364\033J\006\030-\202N\300"
 174      AC471FE9 
 174      19F41B4A 
 174      06182D82 
 174      4EC0
 175 020f 3A9C8475 		.ascii	":\234\204u\260C\227\247\317l;\373\215\231_\216N!\026"
 175      B04397A7 
 175      CF6C3BFB 
 175      8D995F8E 
 175      4E2116
 176 0222 35CDC8A0 		.ascii	"5\315\310\240\025\304\316\227\024:\261|%\0112\264\224"
 176      15C4CE97 
 176      143AB17C 
ARM GAS  C:\Users\Bruger\AppData\Local\Temp\ccqi7cGy.s 			page 13


 176      250932B4 
 176      94
 177 0233 A7154B59 		.ascii	"\247\025KYm\235\354Pa\227\240\266\362I\023K\332\315"
 177      6D9DEC50 
 177      6197A0B6 
 177      F249134B 
 177      DACD
 178 0245 4FF7D44C 		.ascii	"O\367\324Lm\336m.\267\363\376`p\001\315A\3152\313\315"
 178      6DDE6D2E 
 178      B7F3FE60 
 178      7001CD41 
 178      CD32CBCD 
 179 0259 92E5166A 		.ascii	"\222\345\026j90t\275-\022\357P),'\012\226G\252\237\333"
 179      393074BD 
 179      2D12EF50 
 179      292C270A 
 179      9647AA9F 
 180 026e B57448AE 		.ascii	"\265tH\256\224X\342\272\265\275\242\237E\311\254`\247"
 180      9458E2BA 
 180      B5BDA29F 
 180      45C9AC60 
 180      A7
 181 027f 53B0E302 		.ascii	"S\260\343\002\221\255!;\211\242\035\332\031\260\241"
 181      91AD213B 
 181      89A21DDA 
 181      19B0A1
 182 028e ED8E6166 		.ascii	"\355\216afL\240\263\320\234D\2619m0y\006&\241V}\343"
 182      4CA0B3D0 
 182      9C44B139 
 182      6D307906 
 182      26A1567D 
 183 02a3 DE7195DC 		.ascii	"\336q\225\334\271K\341\334\255p\336lo\252\216\305\025"
 183      B94BE1DC 
 183      AD70DE6C 
 183      6FAA8EC5 
 183      15
 184 02b4 82E8EEE1 		.ascii	"\202\350\356\341\266\021$Y\177\360\265\314:$!\217\314"
 184      B6112459 
 184      7FF0B5CC 
 184      3A24218F 
 184      CC
 185 02c5 BA47B2DE 		.ascii	"\272G\262\336N\255\227o\363\224\253\325ps\320.\257\241"
 185      4EAD976F 
 185      F394ABD5 
 185      7073D02E 
 185      AFA1
 186 02d7 47E9EF60 		.ascii	"G\351\357`\340\260j\316\243\324AU\234C\242\214\272\206"
 186      E0B06ACE 
 186      A3D44155 
 186      9C43A28C 
 186      BA86
 187 02e9 579775F8 		.ascii	"W\227u\370\230 \343e\305\310\012\252\302\357\260u\351"
 187      9820E365 
 187      C5C80AAA 
 187      C2EFB075 
 187      E9
 188 02fa ACD29181 		.ascii	"\254\322\221\201\024\324)\323\320)i\360R\015U\373}<"
ARM GAS  C:\Users\Bruger\AppData\Local\Temp\ccqi7cGy.s 			page 14


 188      14D429D3 
 188      D02969F0 
 188      520D55FB 
 188      7D3C
 189 030c A21A5C33 		.ascii	"\242\032\\3\032&.\267}:\247\204n*\241K\222\360o\235"
 189      1A262EB7 
 189      7D3AA784 
 189      6E2AA14B 
 189      92F06F9D 
 190 0320 BF0EE37E 		.ascii	"\277\016\343~AB\311\201\242G\363\250\006k\213\255(A"
 190      4142C981 
 190      A247F3A8 
 190      066B8BAD 
 190      2841
 191 0332 DCF39081 		.ascii	"\334\363\220\201\316\313\024\234\227\024\364P\005C\217"
 191      CECB149C 
 191      9714F450 
 191      05438F
 192 0341 C75E68F1 		.ascii	"\307^h\361}\201a<\377nk\264\340\242\326\346\015\271"
 192      7D81613C 
 192      FF6E6BB4 
 192      E0A2D6E6 
 192      0DB9
 193 0353 20E7A657 		.ascii	" \347\246W\306\321+q\\\240\034}\017\\\223Z\234\217)"
 193      C6D12B71 
 193      5CA01C7D 
 193      0F5C935A 
 193      9C8F29
 194 0366 C73F41BF 		.ascii	"\307?A\277EP\341\237<\307\265\027\362/\203A,P\364\311"
 194      4550E19F 
 194      3CC7B517 
 194      F22F8341 
 194      2C50F4C9 
 195 037a 28FA248A 		.ascii	"(\372$\212\213\224\302\351\252+\321\322\033n=!y\272"
 195      8B94C2E9 
 195      AA2BD1D2 
 195      1B6E3D21 
 195      79BA
 196 038c 6DBA84A5 		.ascii	"m\272\204\2457\234\216\332\034i6k\361>\241\300\350d"
 196      379C8EDA 
 196      1C69366B 
 196      F13EA1C0 
 196      E864
 197 039e 998FC54D 		.ascii	"\231\217\305M\302\240\334\373x\273\006{\205\201\331"
 197      C2A0DCFB 
 197      78BB067B 
 197      8581D9
 198 03ad 3EFC0ABA 		.ascii	">\374\012\272!\014\354{\177\251\217\240\024Q0\214h\255"
 198      210CEC7B 
 198      7FA98FA0 
 198      1451308C 
 198      68AD
 199 03bf B61F6251 		.ascii	"\266\037bQR\\RR\262\0256\246\177\207\271\013.\266\245"
 199      525C5252 
 199      B21536A6 
 199      7F87B90B 
 199      2EB6A5
ARM GAS  C:\Users\Bruger\AppData\Local\Temp\ccqi7cGy.s 			page 15


 200 03d2 B4EF5741 		.ascii	"\264\357WA\327u\024\027\332\244\213H\253kH\303\231\335"
 200      D7751417 
 200      DAA48B48 
 200      AB6B48C3 
 200      99DD
 201 03e4 7421787E 		.ascii	"t!x~\271\211A\227\340\367\313t\031\010\032\234\240\033"
 201      B9894197 
 201      E0F7CB74 
 201      19081A9C 
 201      A01B
 202 03f6 B09B7D28 		.ascii	"\260\233}(\011\015B\014\241$\352\210\322\227\215uE\363"
 202      090D420C 
 202      A124EA88 
 202      D2978D75 
 202      45F3
 203 0408 96A5746B 		.ascii	"\226\245tk\015\210\364\342\365p\2152|\254\227\240\245"
 203      0D88F4E2 
 203      F5708D32 
 203      7CAC97A0 
 203      A5
 204 0419 63DE19E8 		.ascii	"c\336\031\350\025%t\321\014\222\0348\177\261M\303#\362"
 204      152574D1 
 204      0C921C38 
 204      7FB14DC3 
 204      23F2
 205 042b 3B23B551 		.ascii	";#\265Q\2728T\235U{\256jP\\\362lr\3210\250\374?\305"
 205      BA38549D 
 205      557BAE6A 
 205      505CF26C 
 205      72D130A8 
 206 0442 947C7F4A 		.ascii	"\224|\177J\024\272\011\240\376\320I&\225\244\233\251"
 206      14BA09A0 
 206      FED04926 
 206      95A49BA9 
 207 0452 A7D6F708 		.ascii	"\247\326\367\010\343\011\241\267\255^s\245j\341A\236"
 207      E309A1B7 
 207      AD5E73A5 
 207      6AE1419E 
 208 0462 B74EF7DE 		.ascii	"\267N\367\336p\252\362yk\001\317\223\315F\031n\011\014"
 208      70AAF279 
 208      6B01CF93 
 208      CD46196E 
 208      090C
 209 0474 B276DD12 		.ascii	"\262v\335\022\026\033\335F\013\311\271)r\271\325\272"
 209      161BDD46 
 209      0BC9B929 
 209      72B9D5BA 
 210 0484 D2D0F540 		.ascii	"\322\320\365@Ojh\217\217 \035E\303\177@\367W>\353\212"
 210      4F6A688F 
 210      8F201D45 
 210      C37F40F7 
 210      573EEB8A 
 211 0498 51A06FCA 		.ascii	"Q\240o\312\226\212A~\021\355\247\350g\007\003\343\261"
 211      968A417E 
 211      11EDA7E8 
 211      670703E3 
 211      B1
ARM GAS  C:\Users\Bruger\AppData\Local\Temp\ccqi7cGy.s 			page 16


 212 04a9 0AF46905 		.ascii	"\012\364i\005w@D\007(\272\315|\2560Z\201\356V\240GE"
 212      77404407 
 212      28BACD7C 
 212      AE305A81 
 212      EE56A047 
 213 04be F4284597 		.ascii	"\364(E\227WT\237\325*\320\035\012\364\230\210\036#h"
 213      57549FD5 
 213      2AD01D0A 
 213      F498881E 
 213      2368
 214 04d0 ECA9F1DC 		.ascii	"\354\251\361\334`\221\236\325[\340\363\372l\001\272"
 214      60919ED5 
 214      5BE0F3FA 
 214      6C01BA
 215 04df 83587225 		.ascii	"\203Xr%\302\275Y\300cK\214\364\265`\350\017\014\032"
 215      C2BD59C0 
 215      634B8CF4 
 215      B560E80F 
 215      0C1A
 216 04f1 079ADF81 		.ascii	"\007\232\337\201\206\240\335\023\301\340\317A\341\331"
 216      86A0DD13 
 216      C1E0CF41 
 216      E1D9
 217 04ff 154901E4 		.ascii	"\025I\001\344\017H\340\367\355\260G\341W\302*\234|R"
 217      0F48E0F7 
 217      EDB047E1 
 217      57C22A9C 
 217      7C52
 218 0511 DA3C8F05 		.ascii	"\332<\217\005N\363\033|\200`\217\014\\,\035\324\012"
 218      4EF31B7C 
 218      80608F0C 
 218      5C2C1DD4 
 218      0A
 219 0522 9FACF08C 		.ascii	"\237\254\360\214?\346\374du>\372\266\020\356\370I\330"
 219      3FE6FC64 
 219      753EFAB6 
 219      10EEF849 
 219      D8
 220 0533 9C77433B 		.ascii	"\234wC;c\002\311\276Y\243U}:E[&\025w\367\224\330\226"
 220      6302C9BE 
 220      59A3557D 
 220      3A455B26 
 220      1577F794 
 221 0549 29DAC4DB 		.ascii	")\332\304\333\026w\251r\361\217(\232x\017\351\244\""
 221      1677A972 
 221      F18F289A 
 221      780FE9A4 
 221      22
 222 055a F0CABCBF 		.ascii	"\360\312\274\27723\303h\310]\227b\310\3136q\306ui\351"
 222      3233C368 
 222      C85D9762 
 222      C8CB3671 
 222      C67569E9 
 223 056e 3F712986 		.ascii	"?q)\206\354\03737iV|\267:!\205\371d\005\227\315\031"
 223      EC1F3337 
 223      69567CB7 
 223      3A2185F9 
ARM GAS  C:\Users\Bruger\AppData\Local\Temp\ccqi7cGy.s 			page 17


 223      640597CD 
 224 0583 D34DDCC6 		.ascii	"\323M\334\306ui\206<c\006\26765\315\220\362\305\332"
 224      7569863C 
 224      6306B736 
 224      35CD90F2 
 224      C5DA
 225 0595 B0BCD495 		.ascii	"\260\274\324\225K2\230\017\303&Wq\271&\203Q\344{'\274"
 225      4B32980F 
 225      C3265771 
 225      B9268351 
 225      E47B27BC 
 226 05a9 5216C7E5 		.ascii	"R\026\307\345\274\0336\371C\372\026./'\"/3\333\264,"
 226      BC1B36F9 
 226      43FA162E 
 226      2F27222F 
 226      33DBB42C 
 227 05bd 718ECA19 		.ascii	"q\216\312\031[M[s\270\334%\233\231\244\327\352\245o"
 227      5B4D5B73 
 227      B8DC259B 
 227      99A4D7EA 
 227      A56F
 228 05cf 846226A3 		.ascii	"\204b&\243!k\025\267)3\027\346\026\275\221|\340\322"
 228      216B15B7 
 228      293317E6 
 228      16BD917C 
 228      E0D2
 229 05e1 909A9F7F 		.ascii	"\220\232\237\177\246\237\225\222\276/\014\327j\3144"
 229      A69F9592 
 229      BE2F0CD7 
 229      6ACC34
 230 05f0 7161E53E 		.ascii	"qa\345>\230\035C\007q\341\0150\031^\363\377Uv\372\206"
 230      981D4307 
 230      71E10D30 
 230      195EF3FF 
 230      5576FA86 
 231 0604 2C2E9C65 		.ascii	",.\234eCz\306\226\274\2344\2231/\303\364\2668) \323"
 231      437AC696 
 231      BC9C3493 
 231      312FC3F4 
 231      B6382920 
 232 0619 4C608D15 		.ascii	"L`\215\025\247Vo\334\020/\276\206\311\012/#\020\252"
 232      A7566FDC 
 232      102FBE86 
 232      C90A2F23 
 232      10AA
 233 062b 8DDCA665 		.ascii	"\215\334\246e\377\001\023\317\271\321"
 233      FF0113CF 
 233      B9D1
 234              		.text
 235              		.section	.gnu.lto_.symtab.24c02d40,"",%progbits
 236 0000 4D696372 		.ascii	"Micros_Counter_SaveConfig\000\000\000\000\000\000\000"
 236      6F735F43 
 236      6F756E74 
 236      65725F53 
 236      61766543 
 237 0020 00000000 		.ascii	"\000\000\000\000\000\254\000\000\000Micros_Counter_"
 237      00AC0000 
ARM GAS  C:\Users\Bruger\AppData\Local\Temp\ccqi7cGy.s 			page 18


 237      004D6963 
 237      726F735F 
 237      436F756E 
 238 0038 52657374 		.ascii	"RestoreConfig\000\000\000\000\000\000\000\000\000\000"
 238      6F726543 
 238      6F6E6669 
 238      67000000 
 238      00000000 
 239 004f 0000AE00 		.ascii	"\000\000\256\000\000\000Micros_Counter_Sleep\000\000"
 239      00004D69 
 239      63726F73 
 239      5F436F75 
 239      6E746572 
 240 006b 00000000 		.ascii	"\000\000\000\000\000\000\000\000\000\000\260\000\000"
 240      00000000 
 240      0000B000 
 240      00
 241 0078 004D6963 		.ascii	"\000Micros_Counter_Wakeup\000\000\000\000\000\000\000"
 241      726F735F 
 241      436F756E 
 241      7465725F 
 241      57616B65 
 242 0095 00000000 		.ascii	"\000\000\000\000\000\262\000\000\000Micros_Counter_"
 242      00B20000 
 242      004D6963 
 242      726F735F 
 242      436F756E 
 243 00ad 52656164 		.ascii	"ReadControlRegister\000\000\002\000\000\000\000\000"
 243      436F6E74 
 243      726F6C52 
 243      65676973 
 243      74657200 
 244 00c8 00000000 		.ascii	"\000\000\000\000\272\000\000\000Micros_Counter_Read"
 244      BA000000 
 244      4D696372 
 244      6F735F43 
 244      6F756E74 
 245 00e3 436F756E 		.ascii	"Counter\000\000\002\000\000\000\000\000\000\000\000"
 245      74657200 
 245      00020000 
 245      00000000 
 245      0000
 246 00f5 00C20000 		.ascii	"\000\302\000\000\000Micros_Counter_WriteControlRegi"
 246      004D6963 
 246      726F735F 
 246      436F756E 
 246      7465725F 
 247 0119 73746572 		.ascii	"ster\000\000\002\000\000\000\000\000\000\000\000\000"
 247      00000200 
 247      00000000 
 247      00000000 
 248 0129 C6000000 		.ascii	"\306\000\000\000Micros_Counter_WriteCounter\000\000"
 248      4D696372 
 248      6F735F43 
 248      6F756E74 
 248      65725F57 
 249 014a 02000000 		.ascii	"\002\000\000\000\000\000\000\000\000\000\312\000\000"
ARM GAS  C:\Users\Bruger\AppData\Local\Temp\ccqi7cGy.s 			page 19


 249      00000000 
 249      0000CA00 
 249      00
 250 0157 004D6963 		.ascii	"\000Micros_Counter_Stop\000\000\002\000\000\000\000"
 250      726F735F 
 250      436F756E 
 250      7465725F 
 250      53746F70 
 251 0172 00000000 		.ascii	"\000\000\000\000\000\314\000\000\000Micros_Counter_"
 251      00CC0000 
 251      004D6963 
 251      726F735F 
 251      436F756E 
 252 018a 456E6162 		.ascii	"Enable\000\000\002\000\000\000\000\000\000\000\000\000"
 252      6C650000 
 252      02000000 
 252      00000000 
 252      0000
 253 019c CE000000 		.ascii	"\316\000\000\000"
 254              		.text
 255              		.section	.gnu.lto_.opts,"",%progbits
 256 0000 272D666E 		.ascii	"'-fno-trapv' '-mcpu=cortex-m3' '-mthumb' '-g' '-O3'"
 256      6F2D7472 
 256      61707627 
 256      20272D6D 
 256      6370753D 
 257 0033 20272D66 		.ascii	" '-ffunction-sections' '-finline-functions' '-flto'"
 257      66756E63 
 257      74696F6E 
 257      2D736563 
 257      74696F6E 
 258 0066 20272D66 		.ascii	" '-ffat-lto-objects'\000"
 258      6661742D 
 258      6C746F2D 
 258      6F626A65 
 258      63747327 
 259              		.text
 260              		.cfi_sections	.debug_frame
 261              		.section	.text.Micros_Counter_SaveConfig,"ax",%progbits
 262              		.align	2
 263              		.global	Micros_Counter_SaveConfig
 264              		.thumb
 265              		.thumb_func
 266              		.type	Micros_Counter_SaveConfig, %function
 267              	Micros_Counter_SaveConfig:
 268              	.LFB0:
 269              		.file 1 "Generated_Source\\PSoC5\\Micros_Counter_PM.c"
   1:Generated_Source\PSoC5/Micros_Counter_PM.c **** /*******************************************************************************
   2:Generated_Source\PSoC5/Micros_Counter_PM.c **** * File Name: Micros_Counter_PM.c  
   3:Generated_Source\PSoC5/Micros_Counter_PM.c **** * Version 3.0
   4:Generated_Source\PSoC5/Micros_Counter_PM.c **** *
   5:Generated_Source\PSoC5/Micros_Counter_PM.c **** *  Description:
   6:Generated_Source\PSoC5/Micros_Counter_PM.c **** *    This file provides the power management source code to API for the
   7:Generated_Source\PSoC5/Micros_Counter_PM.c **** *    Counter.  
   8:Generated_Source\PSoC5/Micros_Counter_PM.c **** *
   9:Generated_Source\PSoC5/Micros_Counter_PM.c **** *   Note:
  10:Generated_Source\PSoC5/Micros_Counter_PM.c **** *     None
ARM GAS  C:\Users\Bruger\AppData\Local\Temp\ccqi7cGy.s 			page 20


  11:Generated_Source\PSoC5/Micros_Counter_PM.c **** *
  12:Generated_Source\PSoC5/Micros_Counter_PM.c **** ********************************************************************************
  13:Generated_Source\PSoC5/Micros_Counter_PM.c **** * Copyright 2008-2012, Cypress Semiconductor Corporation.  All rights reserved.
  14:Generated_Source\PSoC5/Micros_Counter_PM.c **** * You may use this file only in accordance with the license, terms, conditions, 
  15:Generated_Source\PSoC5/Micros_Counter_PM.c **** * disclaimers, and limitations in the end user license agreement accompanying 
  16:Generated_Source\PSoC5/Micros_Counter_PM.c **** * the software package with which this file was provided.
  17:Generated_Source\PSoC5/Micros_Counter_PM.c **** *******************************************************************************/
  18:Generated_Source\PSoC5/Micros_Counter_PM.c **** 
  19:Generated_Source\PSoC5/Micros_Counter_PM.c **** #include "Micros_Counter.h"
  20:Generated_Source\PSoC5/Micros_Counter_PM.c **** 
  21:Generated_Source\PSoC5/Micros_Counter_PM.c **** static Micros_Counter_backupStruct Micros_Counter_backup;
  22:Generated_Source\PSoC5/Micros_Counter_PM.c **** 
  23:Generated_Source\PSoC5/Micros_Counter_PM.c **** 
  24:Generated_Source\PSoC5/Micros_Counter_PM.c **** /*******************************************************************************
  25:Generated_Source\PSoC5/Micros_Counter_PM.c **** * Function Name: Micros_Counter_SaveConfig
  26:Generated_Source\PSoC5/Micros_Counter_PM.c **** ********************************************************************************
  27:Generated_Source\PSoC5/Micros_Counter_PM.c **** * Summary:
  28:Generated_Source\PSoC5/Micros_Counter_PM.c **** *     Save the current user configuration
  29:Generated_Source\PSoC5/Micros_Counter_PM.c **** *
  30:Generated_Source\PSoC5/Micros_Counter_PM.c **** * Parameters:  
  31:Generated_Source\PSoC5/Micros_Counter_PM.c **** *  void
  32:Generated_Source\PSoC5/Micros_Counter_PM.c **** *
  33:Generated_Source\PSoC5/Micros_Counter_PM.c **** * Return: 
  34:Generated_Source\PSoC5/Micros_Counter_PM.c **** *  void
  35:Generated_Source\PSoC5/Micros_Counter_PM.c **** *
  36:Generated_Source\PSoC5/Micros_Counter_PM.c **** * Global variables:
  37:Generated_Source\PSoC5/Micros_Counter_PM.c **** *  Micros_Counter_backup:  Variables of this global structure are modified to 
  38:Generated_Source\PSoC5/Micros_Counter_PM.c **** *  store the values of non retention configuration registers when Sleep() API is 
  39:Generated_Source\PSoC5/Micros_Counter_PM.c **** *  called.
  40:Generated_Source\PSoC5/Micros_Counter_PM.c **** *
  41:Generated_Source\PSoC5/Micros_Counter_PM.c **** *******************************************************************************/
  42:Generated_Source\PSoC5/Micros_Counter_PM.c **** void Micros_Counter_SaveConfig(void) 
  43:Generated_Source\PSoC5/Micros_Counter_PM.c **** {
 270              		.loc 1 43 0
 271              		.cfi_startproc
 272              		@ args = 0, pretend = 0, frame = 0
 273              		@ frame_needed = 0, uses_anonymous_args = 0
 274 0000 10B5     		push	{r4, lr}
 275              		.cfi_def_cfa_offset 8
 276              		.cfi_offset 4, -8
 277              		.cfi_offset 14, -4
  44:Generated_Source\PSoC5/Micros_Counter_PM.c ****     #if (!Micros_Counter_UsingFixedFunction)
  45:Generated_Source\PSoC5/Micros_Counter_PM.c **** 
  46:Generated_Source\PSoC5/Micros_Counter_PM.c ****         Micros_Counter_backup.CounterUdb = Micros_Counter_ReadCounter();
 278              		.loc 1 46 0
 279 0002 FFF7FEFF 		bl	Micros_Counter_ReadCounter
 280              	.LVL0:
 281 0006 034C     		ldr	r4, .L3
 282 0008 6060     		str	r0, [r4, #4]
  47:Generated_Source\PSoC5/Micros_Counter_PM.c **** 
  48:Generated_Source\PSoC5/Micros_Counter_PM.c ****         #if(!Micros_Counter_ControlRegRemoved)
  49:Generated_Source\PSoC5/Micros_Counter_PM.c ****             Micros_Counter_backup.CounterControlRegister = Micros_Counter_ReadControlRegister();
 283              		.loc 1 49 0
 284 000a FFF7FEFF 		bl	Micros_Counter_ReadControlRegister
 285              	.LVL1:
 286 000e 2072     		strb	r0, [r4, #8]
 287 0010 10BD     		pop	{r4, pc}
ARM GAS  C:\Users\Bruger\AppData\Local\Temp\ccqi7cGy.s 			page 21


 288              	.L4:
 289 0012 00BF     		.align	2
 290              	.L3:
 291 0014 00000000 		.word	.LANCHOR0
 292              		.cfi_endproc
 293              	.LFE0:
 294              		.size	Micros_Counter_SaveConfig, .-Micros_Counter_SaveConfig
 295              		.section	.text.Micros_Counter_RestoreConfig,"ax",%progbits
 296              		.align	2
 297              		.global	Micros_Counter_RestoreConfig
 298              		.thumb
 299              		.thumb_func
 300              		.type	Micros_Counter_RestoreConfig, %function
 301              	Micros_Counter_RestoreConfig:
 302              	.LFB1:
  50:Generated_Source\PSoC5/Micros_Counter_PM.c ****         #endif /* (!Micros_Counter_ControlRegRemoved) */
  51:Generated_Source\PSoC5/Micros_Counter_PM.c **** 
  52:Generated_Source\PSoC5/Micros_Counter_PM.c ****     #endif /* (!Micros_Counter_UsingFixedFunction) */
  53:Generated_Source\PSoC5/Micros_Counter_PM.c **** }
  54:Generated_Source\PSoC5/Micros_Counter_PM.c **** 
  55:Generated_Source\PSoC5/Micros_Counter_PM.c **** 
  56:Generated_Source\PSoC5/Micros_Counter_PM.c **** /*******************************************************************************
  57:Generated_Source\PSoC5/Micros_Counter_PM.c **** * Function Name: Micros_Counter_RestoreConfig
  58:Generated_Source\PSoC5/Micros_Counter_PM.c **** ********************************************************************************
  59:Generated_Source\PSoC5/Micros_Counter_PM.c **** *
  60:Generated_Source\PSoC5/Micros_Counter_PM.c **** * Summary:
  61:Generated_Source\PSoC5/Micros_Counter_PM.c **** *  Restores the current user configuration.
  62:Generated_Source\PSoC5/Micros_Counter_PM.c **** *
  63:Generated_Source\PSoC5/Micros_Counter_PM.c **** * Parameters:  
  64:Generated_Source\PSoC5/Micros_Counter_PM.c **** *  void
  65:Generated_Source\PSoC5/Micros_Counter_PM.c **** *
  66:Generated_Source\PSoC5/Micros_Counter_PM.c **** * Return: 
  67:Generated_Source\PSoC5/Micros_Counter_PM.c **** *  void
  68:Generated_Source\PSoC5/Micros_Counter_PM.c **** *
  69:Generated_Source\PSoC5/Micros_Counter_PM.c **** * Global variables:
  70:Generated_Source\PSoC5/Micros_Counter_PM.c **** *  Micros_Counter_backup:  Variables of this global structure are used to 
  71:Generated_Source\PSoC5/Micros_Counter_PM.c **** *  restore the values of non retention registers on wakeup from sleep mode.
  72:Generated_Source\PSoC5/Micros_Counter_PM.c **** *
  73:Generated_Source\PSoC5/Micros_Counter_PM.c **** *******************************************************************************/
  74:Generated_Source\PSoC5/Micros_Counter_PM.c **** void Micros_Counter_RestoreConfig(void) 
  75:Generated_Source\PSoC5/Micros_Counter_PM.c **** {      
 303              		.loc 1 75 0
 304              		.cfi_startproc
 305              		@ args = 0, pretend = 0, frame = 0
 306              		@ frame_needed = 0, uses_anonymous_args = 0
 307 0000 10B5     		push	{r4, lr}
 308              		.cfi_def_cfa_offset 8
 309              		.cfi_offset 4, -8
 310              		.cfi_offset 14, -4
  76:Generated_Source\PSoC5/Micros_Counter_PM.c ****     #if (!Micros_Counter_UsingFixedFunction)
  77:Generated_Source\PSoC5/Micros_Counter_PM.c **** 
  78:Generated_Source\PSoC5/Micros_Counter_PM.c ****        Micros_Counter_WriteCounter(Micros_Counter_backup.CounterUdb);
 311              		.loc 1 78 0
 312 0002 044C     		ldr	r4, .L7
 313 0004 6068     		ldr	r0, [r4, #4]
 314 0006 FFF7FEFF 		bl	Micros_Counter_WriteCounter
 315              	.LVL2:
ARM GAS  C:\Users\Bruger\AppData\Local\Temp\ccqi7cGy.s 			page 22


  79:Generated_Source\PSoC5/Micros_Counter_PM.c **** 
  80:Generated_Source\PSoC5/Micros_Counter_PM.c ****         #if(!Micros_Counter_ControlRegRemoved)
  81:Generated_Source\PSoC5/Micros_Counter_PM.c ****             Micros_Counter_WriteControlRegister(Micros_Counter_backup.CounterControlRegister);
 316              		.loc 1 81 0
 317 000a 207A     		ldrb	r0, [r4, #8]	@ zero_extendqisi2
  82:Generated_Source\PSoC5/Micros_Counter_PM.c ****         #endif /* (!Micros_Counter_ControlRegRemoved) */
  83:Generated_Source\PSoC5/Micros_Counter_PM.c **** 
  84:Generated_Source\PSoC5/Micros_Counter_PM.c ****     #endif /* (!Micros_Counter_UsingFixedFunction) */
  85:Generated_Source\PSoC5/Micros_Counter_PM.c **** }
 318              		.loc 1 85 0
 319 000c BDE81040 		pop	{r4, lr}
 320              		.cfi_restore 14
 321              		.cfi_restore 4
 322              		.cfi_def_cfa_offset 0
  81:Generated_Source\PSoC5/Micros_Counter_PM.c ****         #endif /* (!Micros_Counter_ControlRegRemoved) */
 323              		.loc 1 81 0
 324 0010 FFF7FEBF 		b	Micros_Counter_WriteControlRegister
 325              	.LVL3:
 326              	.L8:
 327              		.align	2
 328              	.L7:
 329 0014 00000000 		.word	.LANCHOR0
 330              		.cfi_endproc
 331              	.LFE1:
 332              		.size	Micros_Counter_RestoreConfig, .-Micros_Counter_RestoreConfig
 333              		.section	.text.Micros_Counter_Sleep,"ax",%progbits
 334              		.align	2
 335              		.global	Micros_Counter_Sleep
 336              		.thumb
 337              		.thumb_func
 338              		.type	Micros_Counter_Sleep, %function
 339              	Micros_Counter_Sleep:
 340              	.LFB2:
  86:Generated_Source\PSoC5/Micros_Counter_PM.c **** 
  87:Generated_Source\PSoC5/Micros_Counter_PM.c **** 
  88:Generated_Source\PSoC5/Micros_Counter_PM.c **** /*******************************************************************************
  89:Generated_Source\PSoC5/Micros_Counter_PM.c **** * Function Name: Micros_Counter_Sleep
  90:Generated_Source\PSoC5/Micros_Counter_PM.c **** ********************************************************************************
  91:Generated_Source\PSoC5/Micros_Counter_PM.c **** * Summary:
  92:Generated_Source\PSoC5/Micros_Counter_PM.c **** *     Stop and Save the user configuration
  93:Generated_Source\PSoC5/Micros_Counter_PM.c **** *
  94:Generated_Source\PSoC5/Micros_Counter_PM.c **** * Parameters:  
  95:Generated_Source\PSoC5/Micros_Counter_PM.c **** *  void
  96:Generated_Source\PSoC5/Micros_Counter_PM.c **** *
  97:Generated_Source\PSoC5/Micros_Counter_PM.c **** * Return: 
  98:Generated_Source\PSoC5/Micros_Counter_PM.c **** *  void
  99:Generated_Source\PSoC5/Micros_Counter_PM.c **** *
 100:Generated_Source\PSoC5/Micros_Counter_PM.c **** * Global variables:
 101:Generated_Source\PSoC5/Micros_Counter_PM.c **** *  Micros_Counter_backup.enableState:  Is modified depending on the enable 
 102:Generated_Source\PSoC5/Micros_Counter_PM.c **** *  state of the block before entering sleep mode.
 103:Generated_Source\PSoC5/Micros_Counter_PM.c **** *
 104:Generated_Source\PSoC5/Micros_Counter_PM.c **** *******************************************************************************/
 105:Generated_Source\PSoC5/Micros_Counter_PM.c **** void Micros_Counter_Sleep(void) 
 106:Generated_Source\PSoC5/Micros_Counter_PM.c **** {
 341              		.loc 1 106 0
 342              		.cfi_startproc
 343              		@ args = 0, pretend = 0, frame = 0
ARM GAS  C:\Users\Bruger\AppData\Local\Temp\ccqi7cGy.s 			page 23


 344              		@ frame_needed = 0, uses_anonymous_args = 0
 345 0000 10B5     		push	{r4, lr}
 346              		.cfi_def_cfa_offset 8
 347              		.cfi_offset 4, -8
 348              		.cfi_offset 14, -4
 107:Generated_Source\PSoC5/Micros_Counter_PM.c ****     #if(!Micros_Counter_ControlRegRemoved)
 108:Generated_Source\PSoC5/Micros_Counter_PM.c ****         /* Save Counter's enable state */
 109:Generated_Source\PSoC5/Micros_Counter_PM.c ****         if(Micros_Counter_CTRL_ENABLE == (Micros_Counter_CONTROL & Micros_Counter_CTRL_ENABLE))
 349              		.loc 1 109 0
 350 0002 074B     		ldr	r3, .L11
 351 0004 074C     		ldr	r4, .L11+4
 352 0006 1B78     		ldrb	r3, [r3]	@ zero_extendqisi2
 353 0008 DB09     		lsrs	r3, r3, #7
 354 000a 2370     		strb	r3, [r4]
 110:Generated_Source\PSoC5/Micros_Counter_PM.c ****         {
 111:Generated_Source\PSoC5/Micros_Counter_PM.c ****             /* Counter is enabled */
 112:Generated_Source\PSoC5/Micros_Counter_PM.c ****             Micros_Counter_backup.CounterEnableState = 1u;
 113:Generated_Source\PSoC5/Micros_Counter_PM.c ****         }
 114:Generated_Source\PSoC5/Micros_Counter_PM.c ****         else
 115:Generated_Source\PSoC5/Micros_Counter_PM.c ****         {
 116:Generated_Source\PSoC5/Micros_Counter_PM.c ****             /* Counter is disabled */
 117:Generated_Source\PSoC5/Micros_Counter_PM.c ****             Micros_Counter_backup.CounterEnableState = 0u;
 118:Generated_Source\PSoC5/Micros_Counter_PM.c ****         }
 119:Generated_Source\PSoC5/Micros_Counter_PM.c ****     #else
 120:Generated_Source\PSoC5/Micros_Counter_PM.c ****         Micros_Counter_backup.CounterEnableState = 1u;
 121:Generated_Source\PSoC5/Micros_Counter_PM.c ****         if(Micros_Counter_backup.CounterEnableState != 0u)
 122:Generated_Source\PSoC5/Micros_Counter_PM.c ****         {
 123:Generated_Source\PSoC5/Micros_Counter_PM.c ****             Micros_Counter_backup.CounterEnableState = 0u;
 124:Generated_Source\PSoC5/Micros_Counter_PM.c ****         }
 125:Generated_Source\PSoC5/Micros_Counter_PM.c ****     #endif /* (!Micros_Counter_ControlRegRemoved) */
 126:Generated_Source\PSoC5/Micros_Counter_PM.c ****     
 127:Generated_Source\PSoC5/Micros_Counter_PM.c ****     Micros_Counter_Stop();
 355              		.loc 1 127 0
 356 000c FFF7FEFF 		bl	Micros_Counter_Stop
 357              	.LVL4:
 358              	.LBB4:
 359              	.LBB5:
  46:Generated_Source\PSoC5/Micros_Counter_PM.c **** 
 360              		.loc 1 46 0
 361 0010 FFF7FEFF 		bl	Micros_Counter_ReadCounter
 362              	.LVL5:
 363 0014 6060     		str	r0, [r4, #4]
  49:Generated_Source\PSoC5/Micros_Counter_PM.c ****         #endif /* (!Micros_Counter_ControlRegRemoved) */
 364              		.loc 1 49 0
 365 0016 FFF7FEFF 		bl	Micros_Counter_ReadControlRegister
 366              	.LVL6:
 367 001a 2072     		strb	r0, [r4, #8]
 368 001c 10BD     		pop	{r4, pc}
 369              	.L12:
 370 001e 00BF     		.align	2
 371              	.L11:
 372 0020 78650040 		.word	1073767800
 373 0024 00000000 		.word	.LANCHOR0
 374              	.LBE5:
 375              	.LBE4:
 376              		.cfi_endproc
 377              	.LFE2:
ARM GAS  C:\Users\Bruger\AppData\Local\Temp\ccqi7cGy.s 			page 24


 378              		.size	Micros_Counter_Sleep, .-Micros_Counter_Sleep
 379              		.section	.text.Micros_Counter_Wakeup,"ax",%progbits
 380              		.align	2
 381              		.global	Micros_Counter_Wakeup
 382              		.thumb
 383              		.thumb_func
 384              		.type	Micros_Counter_Wakeup, %function
 385              	Micros_Counter_Wakeup:
 386              	.LFB3:
 128:Generated_Source\PSoC5/Micros_Counter_PM.c ****     Micros_Counter_SaveConfig();
 129:Generated_Source\PSoC5/Micros_Counter_PM.c **** }
 130:Generated_Source\PSoC5/Micros_Counter_PM.c **** 
 131:Generated_Source\PSoC5/Micros_Counter_PM.c **** 
 132:Generated_Source\PSoC5/Micros_Counter_PM.c **** /*******************************************************************************
 133:Generated_Source\PSoC5/Micros_Counter_PM.c **** * Function Name: Micros_Counter_Wakeup
 134:Generated_Source\PSoC5/Micros_Counter_PM.c **** ********************************************************************************
 135:Generated_Source\PSoC5/Micros_Counter_PM.c **** *
 136:Generated_Source\PSoC5/Micros_Counter_PM.c **** * Summary:
 137:Generated_Source\PSoC5/Micros_Counter_PM.c **** *  Restores and enables the user configuration
 138:Generated_Source\PSoC5/Micros_Counter_PM.c **** *  
 139:Generated_Source\PSoC5/Micros_Counter_PM.c **** * Parameters:  
 140:Generated_Source\PSoC5/Micros_Counter_PM.c **** *  void
 141:Generated_Source\PSoC5/Micros_Counter_PM.c **** *
 142:Generated_Source\PSoC5/Micros_Counter_PM.c **** * Return: 
 143:Generated_Source\PSoC5/Micros_Counter_PM.c **** *  void
 144:Generated_Source\PSoC5/Micros_Counter_PM.c **** *
 145:Generated_Source\PSoC5/Micros_Counter_PM.c **** * Global variables:
 146:Generated_Source\PSoC5/Micros_Counter_PM.c **** *  Micros_Counter_backup.enableState:  Is used to restore the enable state of 
 147:Generated_Source\PSoC5/Micros_Counter_PM.c **** *  block on wakeup from sleep mode.
 148:Generated_Source\PSoC5/Micros_Counter_PM.c **** *
 149:Generated_Source\PSoC5/Micros_Counter_PM.c **** *******************************************************************************/
 150:Generated_Source\PSoC5/Micros_Counter_PM.c **** void Micros_Counter_Wakeup(void) 
 151:Generated_Source\PSoC5/Micros_Counter_PM.c **** {
 387              		.loc 1 151 0
 388              		.cfi_startproc
 389              		@ args = 0, pretend = 0, frame = 0
 390              		@ frame_needed = 0, uses_anonymous_args = 0
 391 0000 10B5     		push	{r4, lr}
 392              		.cfi_def_cfa_offset 8
 393              		.cfi_offset 4, -8
 394              		.cfi_offset 14, -4
 395              	.LBB8:
 396              	.LBB9:
  78:Generated_Source\PSoC5/Micros_Counter_PM.c **** 
 397              		.loc 1 78 0
 398 0002 074C     		ldr	r4, .L18
 399 0004 6068     		ldr	r0, [r4, #4]
 400 0006 FFF7FEFF 		bl	Micros_Counter_WriteCounter
 401              	.LVL7:
  81:Generated_Source\PSoC5/Micros_Counter_PM.c ****         #endif /* (!Micros_Counter_ControlRegRemoved) */
 402              		.loc 1 81 0
 403 000a 207A     		ldrb	r0, [r4, #8]	@ zero_extendqisi2
 404 000c FFF7FEFF 		bl	Micros_Counter_WriteControlRegister
 405              	.LVL8:
 406              	.LBE9:
 407              	.LBE8:
 152:Generated_Source\PSoC5/Micros_Counter_PM.c ****     Micros_Counter_RestoreConfig();
ARM GAS  C:\Users\Bruger\AppData\Local\Temp\ccqi7cGy.s 			page 25


 153:Generated_Source\PSoC5/Micros_Counter_PM.c ****     #if(!Micros_Counter_ControlRegRemoved)
 154:Generated_Source\PSoC5/Micros_Counter_PM.c ****         if(Micros_Counter_backup.CounterEnableState == 1u)
 408              		.loc 1 154 0
 409 0010 2378     		ldrb	r3, [r4]	@ zero_extendqisi2
 410 0012 012B     		cmp	r3, #1
 411 0014 00D0     		beq	.L17
 412 0016 10BD     		pop	{r4, pc}
 413              	.L17:
 155:Generated_Source\PSoC5/Micros_Counter_PM.c ****         {
 156:Generated_Source\PSoC5/Micros_Counter_PM.c ****             /* Enable Counter's operation */
 157:Generated_Source\PSoC5/Micros_Counter_PM.c ****             Micros_Counter_Enable();
 158:Generated_Source\PSoC5/Micros_Counter_PM.c ****         } /* Do nothing if Counter was disabled before */    
 159:Generated_Source\PSoC5/Micros_Counter_PM.c ****     #endif /* (!Micros_Counter_ControlRegRemoved) */
 160:Generated_Source\PSoC5/Micros_Counter_PM.c ****     
 161:Generated_Source\PSoC5/Micros_Counter_PM.c **** }
 414              		.loc 1 161 0
 415 0018 BDE81040 		pop	{r4, lr}
 416              		.cfi_restore 14
 417              		.cfi_restore 4
 418              		.cfi_def_cfa_offset 0
 157:Generated_Source\PSoC5/Micros_Counter_PM.c ****         } /* Do nothing if Counter was disabled before */    
 419              		.loc 1 157 0
 420 001c FFF7FEBF 		b	Micros_Counter_Enable
 421              	.LVL9:
 422              	.L19:
 423              		.align	2
 424              	.L18:
 425 0020 00000000 		.word	.LANCHOR0
 426              		.cfi_endproc
 427              	.LFE3:
 428              		.size	Micros_Counter_Wakeup, .-Micros_Counter_Wakeup
 429              		.bss
 430              		.align	2
 431              		.set	.LANCHOR0,. + 0
 432              		.type	Micros_Counter_backup, %object
 433              		.size	Micros_Counter_backup, 12
 434              	Micros_Counter_backup:
 435 0000 00000000 		.space	12
 435      00000000 
 435      00000000 
 436              		.text
 437              	.Letext0:
 438              		.file 2 "Generated_Source\\PSoC5\\cytypes.h"
 439              		.file 3 "Generated_Source\\PSoC5\\Micros_Counter.h"