ARM GAS  C:\Users\Bruger\AppData\Local\Temp\ccLRF4Uh.s 			page 1


   1              		.syntax unified
   2              		.cpu cortex-m3
   3              		.fpu softvfp
   4              		.eabi_attribute 20, 1
   5              		.eabi_attribute 21, 1
   6              		.eabi_attribute 23, 3
   7              		.eabi_attribute 24, 1
   8              		.eabi_attribute 25, 1
   9              		.eabi_attribute 26, 1
  10              		.eabi_attribute 30, 2
  11              		.eabi_attribute 34, 1
  12              		.eabi_attribute 18, 4
  13              		.thumb
  14              		.file	"Micros_Counter.c"
  15              		.text
  16              	.Ltext0:
  17              		.section	.gnu.lto_.profile.24c02899,"",%progbits
  18 0000 789C6366 		.ascii	"x\234cf```a\200\000F\206B7\000\001\234\000\300"
  18      60606061 
  18      80004686 
  18      42370001 
  18      9C00C0
  19              		.text
  20              		.section	.gnu.lto_.jmpfuncs.24c02899,"",%progbits
  21 0000 789C6366 		.ascii	"x\234cf\300\016\034\241\264\000\0203B0\023\220ba``e"
  21      C00E1CA1 
  21      B4001033 
  21      42301390 
  21      62616060 
  22 0015 6464AC67 		.ascii	"dd\254gc``g`\340\00019A\004\027\003\0037\003\003\017"
  22      63606067 
  22      60E00031 
  22      39410417 
  22      03033703 
  23 002b 88C9CBC0 		.ascii	"\210\311\313\300\300\007\242\371!\232\001d\025\003e"
  23      C007A2F9 
  23      219A0164 
  23      150365
  24              		.text
  25              		.section	.gnu.lto_.inline.24c02899,"",%progbits
  26 0000 789C6366 		.ascii	"x\234cf\300\016\334\030!\264\000\003\203\324]\006F\006"
  26      C00EDC18 
  26      21B40003 
  26      83D45D06 
  26      4606
  27 0012 26B569EB 		.ascii	"&\265i\3539\030\330\026\3103\201D\231\270\031\030\030"
  27      3918D816 
  27      C8338144 
  27      99B81918 
  27      18
  28 0023 27F88128 		.ascii	"'\370\201(\240\034\033+P\236\355\203\036B\232\201\233"
  28      A01C1B2B 
  28      509EED83 
  28      1E429A81 
  28      9B
  29 0034 0728C4F7 		.ascii	"\007(\304\367*\031.\304\310\005$X0\225\2622\2600\003"
  29      2A192EC4 
ARM GAS  C:\Users\Bruger\AppData\Local\Temp\ccLRF4Uh.s 			page 2


  29      C8052458 
  29      3095B232 
  29      B03003
  30 0047 85982EF0 		.ascii	"\205\230.\360\303\205\3300\205\3301\20580\20581\205"
  30      C385D830 
  30      85D83185 
  30      38308538 
  30      3185
  31 0059 B8185859 		.ascii	"\270\030XY\200B,\013\344\341B\334\230\252x0\205x1\205"
  31      80422C0B 
  31      E4E142DC 
  31      98AA7830 
  31      85783185 
  32 006d F83085F8 		.ascii	"\3700\205\3701\205\004\0308,\201B\\\333\256\260\301"
  32      31850418 
  32      382C8142 
  32      5CDBAEB0 
  32      C1
  33 007e C5180056 		.ascii	"\305\030\000V\367 u"
  33      F72075
  34              		.text
  35              		.section	.gnu.lto_.pureconst.24c02899,"",%progbits
  36 0000 789C25C1 		.ascii	"x\234%\301\267\001\000 \014\004\261'gp}\035\373/I\201"
  36      B7010020 
  36      0C04B127 
  36      67707D1D 
  36      FB2F4981 
  37 0014 14245D7D 		.ascii	"\024$]}&\034\236H\"S\2504:\203\311bs0\036(\023\002Z"
  37      261C9E48 
  37      2253A834 
  37      3A83C962 
  37      73301E28 
  38              		.text
  39              		.section	.gnu.lto_Micros_Counter_Init.24c02899,"",%progbits
  40 0000 789C7D56 		.ascii	"x\234}VmL\233U\024\276\347\276\355\373\266\245\024\342"
  40      6D4C9B55 
  40      14BEE7BE 
  40      EDFBB6A5 
  40      14E2
  41 0012 367F902C 		.ascii	"6\177\220,\232\360c.~\304\230\370\177\311b\366kf\011"
  41      9AF0632E 
  41      7EC498F8 
  41      7FC962F6 
  41      6B6609
  42 0025 31F10786 		.ascii	"1\361\007\206\020\326\037\350\034\244\300\317eoiU\206"
  42      10D61FE8 
  42      1CA4C0CF 
  42      656F6955 
  42      86
  43 0036 E82653C4 		.ascii	"\350&S\304\021\346t\"\2330\220!\310\207@\001\267\226"
  43      11E67422 
  43      9B309021 
  43      C8874001 
  43      B796
  44 0048 F131A0D0 		.ascii	"\3611\240\320n\310\200\225\302X\234s\035\204\217\015"
  44      6EC88095 
  44      C2589C73 
ARM GAS  C:\Users\Bruger\AppData\Local\Temp\ccLRF4Uh.s 			page 3


  44      1D848F0D 
  45 0058 A9E7DEF7 		.ascii	"\251\347\336\367CJ\353\232\364\355}\357=\347\334\347"
  45      434AEB9A 
  45      F4ED7DEF 
  45      3DE7DCE7 
  46 0068 79CE39F7 		.ascii	"y\3169\367V \361\237\267\360\0330\021R\200\277 \022"
  46      5620F19F 
  46      B7F01B30 
  46      115280BF 
  46      2012
  47 007a A0674608 		.ascii	"\240gF\010q\232(\030\224\201\240\014zM\006*\224y\011"
  47      719A2818 
  47      9481A00C 
  47      7A4D062A 
  47      947909
  48 008d 912D46B7 		.ascii	"\221-F\267Dd\253\021\200\315\023 '\251`0\302IjP\002"
  48      4464AB11 
  48      80CD1320 
  48      27A96030 
  48      C2496A50 
  49 00a2 DEA7110A 		.ascii	"\336\247\021\012g<u\225I\373jdY~4>\340<\342\201\015"
  49      673C7595 
  49      49FB6A64 
  49      597E343E 
  49      E03CE281 
  50 00b7 4AC83255 		.ascii	"J\3102U,\240\026\366\0214\332t7\336M\021^\0066~\372"
  50      2CA016F6 
  50      1134DA74 
  50      37DE4D11 
  50      5E06367E 
  51 00cc 4369D892 		.ascii	"Ci\330\222\376\235,\027\317\335\012dz\234\027\344\255"
  51      FE9D2C17 
  51      CFDD0A64 
  51      7A9C17E4 
  51      AD
  52 00dd 6814BD00 		.ascii	"h\024\275\000.\201\200\216\360J\032\354OS1\243\375Z"
  52      2E81808E 
  52      F04A1AEC 
  52      4F5331A3 
  52      FD5A
  53 00ef 60366C12 		.ascii	"`6l\022^\347\276\215\255\362\367F\356{\341N\203|`\233"
  53      5EE7BE8D 
  53      ADF2F746 
  53      EE7BE14E 
  53      837C609B 
  54 0103 EF4F097D 		.ascii	"\357O\011}#\356\177\202I\242\033\301\245\302eH\207:"
  54      23EE7F82 
  54      49A21BC1 
  54      A5C26548 
  54      873A
  55 0115 4857B041 		.ascii	"HW\260A=\210@\010\325f\033\237\363\310\321hsm\357\252"
  55      3D884008 
  55      D5661B9F 
  55      F3C8D168 
  55      736DEFAA 
  56 0129 F43C251B 		.ascii	"\364<%\033\224\012\204-\031\331P\344C\013\016\301F\230"
  56      940A842D 
ARM GAS  C:\Users\Bruger\AppData\Local\Temp\ccLRF4Uh.s 			page 4


  56      19D950E4 
  56      430B0EC1 
  56      4698
  57 013b 710A9B4D 		.ascii	"q\012\233Me\217]\370\020v\263\225=\354\225\2200~Q\264"
  57      658F5DF8 
  57      1076B395 
  57      3DEC9590 
  57      307E51B4 
  58 014f 051CBB25 		.ascii	"\005\034\273%a\012\372VK\267\276y\227\355\266F\231Z"
  58      610AFA56 
  58      4BB7BE79 
  58      97EDB646 
  58      995A
  59 0161 DDF5E37D 		.ascii	"\335\365\343}\226%\272A\015\3537\234\262\201a\234\015"
  59      9625BA41 
  59      0DEB379C 
  59      B281619C 
  59      0D
  60 0172 DF1C33F1 		.ascii	"\337\0343\361)\016Y\356\014-I\325P\345t#/#\\\2014h\000"
  60      290E59EE 
  60      0C2D49D5 
  60      50E57423 
  60      2F235C81 
  61 0189 A4048D50 		.ascii	"\244\004\215P\015d\012\\\353\037OP%\240\240\304|8\277"
  61      0D640A5C 
  61      EB1F4F50 
  61      25A0A0C4 
  61      7C38BF
  62 019c E9E20160 		.ascii	"\351\342\001`\035\010\374\214\306\001\340\026\0146Z"
  62      1D08FC8C 
  62      C601E016 
  62      0C365A
  63 01ab A1535F79 		.ascii	"\241S_y\323D\257\231\315\305\354\340\364\354\215\335"
  63      D344AF99 
  63      CDC5ECE0 
  63      F4EC8DDD 
  64 01bb A309F750 		.ascii	"\243\011\367P=VKg\316\251\300\215\317\202u5\016\226"
  64      3D564B67 
  64      CEA9C08D 
  64      CF827535 
  64      0E96
  65 01cd EA71ADBB 		.ascii	"\352q\255\273'\304\251\302&\302j\336\011KT`M;\223\022"
  65      27C4A9C2 
  65      26C26ADE 
  65      094B5460 
  65      4D3B9312 
  66 01e1 C0DA1FBB 		.ascii	"\300\332\037\273\307/\034\226\210y[@pX\233\212\2623"
  66      C72F1C96 
  66      88795B40 
  66      70589B8A 
  66      B233
  67 01f3 F7DF88C9 		.ascii	"\367\337\210\311\261\347\013\257\215gv\231\302\216\354"
  67      B1E70BAF 
  67      8D677699 
  67      C28EEC
  68 0202 1368C192 		.ascii	"\023h\301\222\217\235\364\004\347}\210\254\225\331\323"
  68      8F9DF404 
ARM GAS  C:\Users\Bruger\AppData\Local\Temp\ccLRF4Uh.s 			page 5


  68      E77D88AC 
  68      95D9D3
  69 0211 38FB5F99 		.ascii	"8\373_\231=\2641B\273p\355\263\322\276G\224\261\021"
  69      3DB43142 
  69      BB70EDB3 
  69      D2BE4794 
  69      B111
  70 0223 7D718953 		.ascii	"}q\211S\002\377\325\277\020\004\206\377K\247i\203J\320"
  70      02FFD5BF 
  70      100486FF 
  70      4BA76983 
  70      4AD0
  71 0235 8EF03B38 		.ascii	"\216\360;8\374N&\021\303n \330HjU\370,\261`\374\363"
  71      FC4E2611 
  71      C36E20D8 
  71      486A55F8 
  71      2CB160FC 
  72 024a A3540523 		.ascii	"\243T\005#\304\201\371\215\203\351b`v\343Z\377\342\350"
  72      C481F98D 
  72      83E96260 
  72      76E35AFF 
  72      E2E8
  73 025c 59E025B3 		.ascii	"Y\340%\263\244\2019\365d+d\323w7B\267.^\217\236\240"
  73      A48139F5 
  73      642B64D3 
  73      773742B7 
  73      2E5E8F9E 
  74 0271 1560F1D7 		.ascii	"\025`\361\327\350\036%\312\325\2135\255f\026\205\036"
  74      E81E25CA 
  74      D58B35AD 
  74      6616851E 
  75 0281 20E041DB 		.ascii	" \340A\333Ip\337v\275\257\332\240\201\363\307\3162\211"
  75      4970DF76 
  75      BDAFDAA0 
  75      81F3C7CE 
  75      3289
  76 0293 1B60985E 		.ascii	"\033`\230^P\372j\201\032Yi\007\2408\225\355\033m\216"
  76      50FA6A81 
  76      1A596907 
  76      A03895ED 
  76      1B6D8E
  77 02a6 8C49C2DB 		.ascii	"\214I\302\333\\\357\366\206\225\341$foz\221\275v\224"
  77      5CEFF686 
  77      95E12466 
  77      6F7A91BD 
  77      7694
  78 02b8 FB2A45F6 		.ascii	"\373*E\366j\346\010\333\206\372\237X\225\276\037\256"
  78      6AE608DB 
  78      86FA9F58 
  78      95BE1FAE 
  79 02c8 177DB27B 		.ascii	"\027}\262{.\032}\001\333\007\372\224\326\355G\304\277"
  79      2E1A7D01 
  79      DB07FA94 
  79      D6ED47C4 
  79      BF
  80 02d9 83D6BC70 		.ascii	"\203\326\274p\015\322\321i\313\345o\345L\205(~R\010"
  80      0DD2D169 
ARM GAS  C:\Users\Bruger\AppData\Local\Temp\ccLRF4Uh.s 			page 6


  80      CBE56FE5 
  80      4C85287E 
  80      5208
  81 02eb 5C470B14 		.ascii	"\\G\013\024\260\242i\261B\210\025\260Rb>j\376\015q\022"
  81      B0A269B1 
  81      428815B0 
  81      52623E6A 
  81      FE0D7112 
  82 02ff 7AB9843E 		.ascii	"z\271\204>^j\347&\257\27391\313\245\270dZx2\313\276"
  82      5E6AE726 
  82      AFBB3931 
  82      CBA5B864 
  82      5A7832CB 
  83 0314 BDD866D5 		.ascii	"\275\330f\325\345L\202\001\004w\203\3139\210rr\024\232"
  83      E54C8201 
  83      047783CB 
  83      39887272 
  83      149A
  84 0326 022303AE 		.ascii	"\002#\003\256B\341\035.@\307\275\320\246\224\210\342"
  84      42E11D2E 
  84      40C7BDD0 
  84      A69488E2 
  85 0336 50428AC3 		.ascii	"PB\212\303\234\242\276\263\200S#*\275\310\304W;\350"
  85      9CA2BEB3 
  85      8053232A 
  85      BDC8C457 
  85      3BE8
  86 0348 557B6DCC 		.ascii	"U{m\314A\345g\214\343w\223\363\033\345\374*>}\334\236"
  86      41E5678C 
  86      E37793F3 
  86      1BE5FC2A 
  86      3E7DDC9E 
  87 035c CCC99468 		.ascii	"\314\311\224h\374\316V]\2560o#4\246\023\032g\204F\266"
  87      FCCE565D 
  87      AE306F23 
  87      34A6131A 
  87      678446B6 
  88 0370 113A75C5 		.ascii	"\021:u\305\337\"\011\357)-T\366\270\313\2542z`\254\324"
  88      DF2209EF 
  88      292D54F6 
  88      B8CBAC32 
  88      7A60ACD4 
  89 0384 1801F8E3 		.ascii	"\030\001\370\343\317[\230\210\345\2035\017\223\032\237"
  89      CF5B9888 
  89      E583350F 
  89      931A9F
  90 0393 BF5DE658 		.ascii	"\277]\346X>M^+sP\371\210q|\002\234O\220\363i*\256=\255"
  90      3E4D5E2B 
  90      7350F988 
  90      717C029C 
  90      4F90F369 
  91 03ab D47BC9A0 		.ascii	"\324{\311\240\312\247j\265\306%m\253\367[z\275\337f"
  91      CAA76AB5 
  91      C6256DAB 
  91      F75B7ABD 
  91      DF66
  92 03bd 7CD47D13 		.ascii	"|\324}\023\364Y\273~F\304\267\331\024\337\363\017V\377"
ARM GAS  C:\Users\Bruger\AppData\Local\Temp\ccLRF4Uh.s 			page 7


  92      F459BB7E 
  92      46C4B7D9 
  92      14DFF30F 
  92      56FF
  93 03cf 9667F6D4 		.ascii	"\226g\366\3244\353)M/O\371\300h\262p\214\353544\030"
  93      34EB294D 
  93      2F4FF9C0 
  93      68B2708C 
  93      EB353434 
  94 03e4 161255C0 		.ascii	"\026\022U\300\235\204\0250\203\267\217V\321\221\340"
  94      9D841530 
  94      83B78F56 
  94      D191E0
  95 03f3 D73B52DE 		.ascii	"\327;R\336\205)\237\321%\222\342\340\316r\270s\\\242"
  95      85299FD1 
  95      2592E2E0 
  95      CE72B873 
  95      5CA2
  96 0405 4F465ADC 		.ascii	"OFZ\334\274\367,mZ\312?\352h.\026\266\245\374\256\236"
  96      BCF72C6D 
  96      5ACA3FEA 
  96      682E16B6 
  96      A5FCAE9E 
  97 0419 F29056C3 		.ascii	"\362\220V\303\323\340\362\004\275\257*\347\266\015}"
  97      D3E0F204 
  97      BDAF2AE7 
  97      B60D7D
  98 0428 CEFB3F6F 		.ascii	"\316\373?o\240'\236\312%2\272X\227)\376]\200y8\201\227"
  98      A0279ECA 
  98      2532BA58 
  98      9729FE5D 
  98      80793881 
  99 043d 5BB27E7C 		.ascii	"[\262~|\327\261\343\333\246\310\373\360|\033(\336)\350"
  99      D7B1E3DB 
  99      A6C8FBF0 
  99      7C1B28DE 
  99      29E8
 100 044f EDEF39FD 		.ascii	"\355\3579\375@\340y\252\324\362\364\347\312\204\333"
 100      40E079AA 
 100      D4F2F4E7 
 100      CA84DB
 101 045e FADFBD11 		.ascii	"\372\337\275\021\326%\\P\217\245\025Q\361OUB\014\206"
 101      D6255C50 
 101      8FA51551 
 101      F14F5542 
 101      0C86
 102 0470 D697ADFC 		.ascii	"\326\227\255\374\314A\202\213\2124\345\240^\021\377"
 102      CC41828B 
 102      8A34E5A0 
 102      5E11FF
 103 047f 1BEC1EBF 		.ascii	"\033\354\036\277 R\221\217\333\023A\325\320\234\354"
 103      2052918F 
 103      DB1341D5 
 103      D09CEC
 104 048e 64635BA6 		.ascii	"dc[\246f4]B6\010\177\203\246\220\031pz\326\016qc\302"
 104      66345D42 
 104      36087F83 
ARM GAS  C:\Users\Bruger\AppData\Local\Temp\ccLRF4Uh.s 			page 8


 104      A6901970 
 104      7AD60E71 
 105 04a4 AE6EC083 		.ascii	"\256n\300\203\015\217\272\227\016\331\217\333\035\331"
 105      0D8FBA97 
 105      0ED98FDB 
 105      1DD9
 106 04b2 85F6A359 		.ascii	"\205\366\243Y\031yE\216\034{\346\221\214\274\203of\036"
 106      1979458E 
 106      1C7BE691 
 106      8CBC836F 
 106      661E
 107 04c4 CECD71E4 		.ascii	"\316\315q\344\025d\035\314+:^hw\274\226C\0149\205\216"
 107      15641DCC 
 107      2B3A5E68 
 107      77BC9643 
 107      0C39858E 
 108 04d8 637B63A7 		.ascii	"c{c\247\263r\331\323Q\224_\230Q\210!\304|\273#7\357"
 108      B372D9D3 
 108      51945F98 
 108      518821C4 
 108      7CBB2337 
 109 04ed A894A3AC 		.ascii	"\250\224\243\254\332\364\325\202\303\331\005\037\340"
 109      DAF4D582 
 109      C3D9051F 
 109      E0
 110 04fa F487F9D9 		.ascii	"\364\207\371\331\016\373\277\333\254W\211"
 110      0EFBBFDB 
 110      AC5789
 111              		.text
 112              		.section	.gnu.lto_Micros_Counter_Enable.24c02899,"",%progbits
 113 0000 789C6366 		.ascii	"x\234cf\300\004R@\254\306\310\300\240\005\244\031\231"
 113      C0045240 
 113      ACC6C8C0 
 113      A005A419 
 113      99
 114 0011 19189926 		.ascii	"\031\030\231&\234c`h\344`bd\0041\030\030\031\352\231"
 114      9C636068 
 114      E4606264 
 114      04311818 
 114      19EA99
 115 0024 18EB195F 		.ascii	"\030\353\031_2}db\234p`\365\014n\365\245\015\015\015"
 115      327D6462 
 115      9C7060F5 
 115      0C6EF5A5 
 115      0D0D0D
 116 0037 1F3E5D96 		.ascii	"\037>]\226h\225\370\311\304\300\360\231\011b\014\343"
 116      6895F8C9 
 116      C4C0F099 
 116      09620CE3 
 117 0047 72467506 		.ascii	"rFu\006\240\232\217-\177\257s\263\265\000\325\010@\344"
 117      A09A8F2D 
 117      7FAF73B3 
 117      B500D508 
 117      40E4
 118 0059 185730B2 		.ascii	"\030W0\262\001\215gX/t\240\341\377\377\315W&\235\320"
 118      018D6758 
 118      2F74A0E1 
ARM GAS  C:\Users\Bruger\AppData\Local\Temp\ccLRF4Uh.s 			page 9


 118      FFFFCD57 
 118      269DD0
 119 006c 67626562 		.ascii	"gbeb\370\311\004\264\014H00<\001\252\002Y\365\224\211"
 119      F8C904B4 
 119      0C483030 
 119      3C01AA02 
 119      59F59489 
 120 0080 094433DF 		.ascii	"\011D3\337b<\364\255\353\336\352\011\214 \235\337\231"
 120      623CF4AD 
 120      EBDEEA09 
 120      8C209DDF 
 120      99
 121 0091 4016EF5B 		.ascii	"@\026\357[s\351\020\327\013\246\237LL?N56\260\200\354"
 121      73E910D7 
 121      0BA69F4C 
 121      4C3F4E35 
 121      36B080EC 
 122 00a5 B9FFE4FC 		.ascii	"\271\377\344\374E\016\260\020\003\210\333\260\373\321"
 122      450EB010 
 122      0388DBB0 
 122      FBD1
 123 00b3 0BF6B98C 		.ascii	"\013\366\271\214\263\033[\030\177213\256d\224b\\\305"
 123      B31B5B18 
 123      7F323133 
 123      AE649462 
 123      5CC5
 124 00c5 08F41AE3 		.ascii	"\010\364\032\343j\306\271\214\014\267\030\233\277\260"
 124      6AC6B98C 
 124      0CB7189B 
 124      BFB0
 125 00d3 418C6386 		.ascii	"A\214c\206\2308u\317\234I\234 \355\214\015\214\014\214"
 125      983875CF 
 125      9C499C20 
 125      ED8C0D8C 
 125      0C8C
 126 00e5 6B804A81 		.ascii	"k\200J\201\326N\002[\211\317\264\265@\323\200f0\334"
 126      D64E025B 
 126      89CFB4B5 
 126      40D38066 
 126      30DC
 127 00f7 636C3CF0 		.ascii	"cl<\360\327\013\244\032\344\367'@o\000]\016t\211\206"
 127      D70BA41A 
 127      E4F72740 
 127      6F005D0E 
 127      748986
 128 010a 7B6A5E6A 		.ascii	"{j^jQbIjJ|p~iQrjL@p\276\263i\214ofrQ~q\274s~i^Ij\221"
 128      5162496A 
 128      4A7C707E 
 128      6951726A 
 128      4C4070BE 
 129 012f 5E320300 		.ascii	"^2\003\0008]vB"
 129      385D7642 
 130              		.text
 131              		.section	.gnu.lto_Micros_Counter_Start.24c02899,"",%progbits
 132 0000 789C7D92 		.ascii	"x\234}\222OHTQ\024\306\317w\356s\336\033\025\012W\342"
 132      4F485451 
 132      14C6CF77 
ARM GAS  C:\Users\Bruger\AppData\Local\Temp\ccLRF4Uh.s 			page 10


 132      EE73DE1B 
 132      150A57E2 
 133 0014 62B64641 		.ascii	"b\266FA-\242u\013\027-\"\010\334\012\022\323[\004\341"
 133      2DA2750B 
 133      172D2208 
 133      DC0A12D3 
 133      5B04E1
 134 0027 C0A4CBC1 		.ascii	"\300\244\313\301\373\234),\"\206\241 \314Z\004\331\324"
 134      FB9C292C 
 134      2286A120 
 134      CC5A04D9 
 134      D4
 135 0038 987FFA0B 		.ascii	"\230\177\372\013\026\361p\251PX\364\207!m\243P\233\320"
 135      16F170A9 
 135      5058F487 
 135      216DA350 
 135      9BD0
 136 004a A6ACC1C4 		.ascii	"\246\254\301\304\316y/\012'\352\301\273\367\275s\277"
 136      CE792F0A 
 136      27EAC1BB 
 136      F7BD73BF 
 137 005a F3DDDFFD 		.ascii	"\363\335\337\375\270\206\376~\366\313{\222\211v\313"
 137      B886FE7E 
 137      F6CB7B92 
 137      8976CB
 138 0069 8C260217 		.ascii	"\214&\002\027\237\021\005\036\263\231I\221mv^\357#\333"
 138      9F11051E 
 138      B3994991 
 138      6D765EEF 
 138      23DB
 139 007b 6AE0C465 		.ascii	"j\340\304e\007\320\017\002\015\262q0\210\217\274\306"
 139      07D00F02 
 139      0DB27130 
 139      888FBCC6 
 140 008b 288695CB 		.ascii	"(\206\225\313-\2357\254\265\253\327\027\333O\267\327"
 140      2D9D37AC 
 140      B5ABD717 
 140      DB4FB7D7 
 141 009b C5AFC6B1 		.ascii	"\305\257\306\261?n\242\223D\263V\330|\323\222(\210f"
 141      3F6EA293 
 141      44B356D8 
 141      7CD39228 
 141      8866
 142 00ad 67BC8632 		.ascii	"g\274\2062\022\220y\262-\264[[\265\257\245\362AN\032"
 142      129079B2 
 142      2DB45B5B 
 142      B5AFA5F2 
 142      414E1A
 143 00c0 AA335C1D 		.ascii	"\2523\\\035<\035\210\226E\252;\2560\353l\252\030*M\257"
 143      3C1D8896 
 143      45AA3BAE 
 143      30EB6CAA 
 143      182A4DAF 
 144 00d4 7F76B5FB 		.ascii	"\177v\265\373\033\0331\276\366\362\302\004\3476\354"
 144      1B1B31BE 
 144      F6F2C204 
 144      E736EC
ARM GAS  C:\Users\Bruger\AppData\Local\Temp\ccLRF4Uh.s 			page 11


 145 00e3 B0F5EACC 		.ascii	"\260\365\352\314\233j-\325\367\313\317\027\274\017,"
 145      9B6A2DD5 
 145      F7CBCF17 
 145      BC0F2C
 146 00f2 95E8B71C 		.ascii	"\225\350\267\034\024Fq\025W\002\253*\203[\310\3416:"
 146      14467115 
 146      5702AB2A 
 146      835BC8E1 
 146      363A
 147 0104 84A22265 		.ascii	"\204\242\"ez\205\302\333|\352\217g0\366\370\274\253"
 147      7A85C2DB 
 147      7CEA8F67 
 147      30F6F8BC 
 147      AB
 148 0115 DD428071 		.ascii	"\335B\200q\325\221\"\030\232I\231w\310\207\213\363\255"
 148      D5912218 
 148      9A499977 
 148      C8878BF3 
 148      AD
 149 0126 2AA6C6ED 		.ascii	"*\246\306\355\235Z\324q\0079\241o\"\201]\235\3721\224"
 149      9D5AD471 
 149      0739A16F 
 149      22815D9D 
 149      FA3194
 150 0139 54ED3F49 		.ascii	"T\355?I\033\321&~\243MJY\004\013#c\371\035\012c@\230"
 150      1BD1267E 
 150      A34D4A59 
 150      040B2363 
 150      F91D0A63 
 151 014f 8A6056D8 		.ascii	"\212`V\330\371\225\306\354\372\271\352\236m\361\206"
 151      F995C6EC 
 151      FAB9EA9E 
 151      6DF186
 152 015e F5798EC2 		.ascii	"\365y\216\302\255\311\331\033\202\307\264@\023\356\352"
 152      ADC9D91B 
 152      82C7B440 
 152      13EEEA
 153 016d 395D597B 		.ascii	"9]Y{:\376b\266Y\255\023\337\347\002\353l\013.\021\321"
 153      3AFE62B6 
 153      59AD13DF 
 153      E702EB6C 
 153      0B2E11D1 
 154 0181 7D9A1B3E 		.ascii	"}\232\033>\313Jw1\020:\027\367\320\201\373\021\335\003"
 154      CB4A7731 
 154      103A17F7 
 154      D081FB11 
 154      DD03
 155 0193 0DAE8AFC 		.ascii	"\015\256\212\374\2273K\225\"bO/\266\275\364d\264\224"
 155      97334B95 
 155      22624F2F 
 155      B6BDF464 
 155      B494
 156 01a5 8CE2B382 		.ascii	"\214\342\263\202\374P\344\002Z\2124\377\265|$\226bB"
 156      FC50E402 
 156      5A8A34FF 
 156      B57C2496 
 156      6242
ARM GAS  C:\Users\Bruger\AppData\Local\Temp\ccLRF4Uh.s 			page 12


 157 01b7 4B08C28D 		.ascii	"K\010\302\215\303Q\302\244W\000zX\211k\327!\277\317"
 157      C351C2A4 
 157      57007A58 
 157      896BD721 
 157      BFCF
 158 01c9 CF1EEBF7 		.ascii	"\317\036\353\367\217\367vg\006\262i\277\347hw\246\353"
 158      8FF77667 
 158      06B269BF 
 158      E76877A6 
 158      EB
 159 01da 40CF9113 		.ascii	"@\317\221\023\351l\346ToWf\240\257\337\317\356M\323"
 159      E96CE654 
 159      6F5766A0 
 159      AFDFCFEE 
 159      4DD3
 160 01ec 4FE0E4EC 		.ascii	"O\340\344\354\303"
 160      C3
 161              		.text
 162              		.section	.gnu.lto_Micros_Counter_Stop.24c02899,"",%progbits
 163 0000 789C7D8F 		.ascii	"x\234}\217\275K\003A\020\305\347\315\3063\230F\254B"
 163      BD4B0341 
 163      10C5E7CD 
 163      C6339846 
 163      AC42
 164 0012 7A895868 		.ascii	"z\211Xh\345_\220\302J\021\322\006\202\234W\330\344\340"
 164      E55F90C2 
 164      4A11D206 
 164      829C57D8 
 164      E4E0
 165 0024 4CEADC69 		.ascii	"L\352\334i\004\261:\264\021$X\211\037\211\330+\310\221"
 165      04B13AB4 
 165      11245889 
 165      1F89D82B 
 165      C891
 166 0036 D2425104 		.ascii	"\322BQ\004!\205\202DI:CPs\205\306\331\\)\270\260;\273"
 166      21858244 
 166      493A4350 
 166      7385C6D9 
 166      5C29B8B0 
 167 004c 3B6F7E6F 		.ascii	";o~oF\321\337\225\222=\011\242i\211P\004\366o\210\274"
 167      46D1DF95 
 167      923D09A2 
 167      69895004 
 167      F66F88BC 
 168 0060 3803FA42 		.ascii	"8\003\372B\2402\243\214\016w\031~P\333K\244\017]\327"
 168      A032A38C 
 168      0E77197E 
 168      50DB4BA4 
 168      0F5DD7
 169 0073 7D5FFF48 		.ascii	"}_\377Hn&C&\352q\204\301\021\322$\232n\345\3731aTD3"
 169      6E264326 
 169      EA7184C1 
 169      11D2249A 
 169      6EE5FB31 
 170 008b 1EE5700C 		.ascii	"\036\345p\014C\360t>\021\270\203A\357awkV\2150\205,"
 170      43F0743E 
 170      11B88341 
ARM GAS  C:\Users\Bruger\AppData\Local\Temp\ccLRF4Uh.s 			page 13


 170      EF61776B 
 170      568D3085 
 171 00a0 667210B5 		.ascii	"fr\020\265D\245\255^\231uTM4>\267\337.|\350\312/\326"
 171      44A5AD5E 
 171      9975544D 
 171      343EB7DF 
 171      2E7CE8CA 
 172 00b6 C657F5FB 		.ascii	"\306W\365\373\306X\233C\346\376\265\347\306\264\317"
 172      C6589B43 
 172      E6FEB5E7 
 172      C6B4CF
 173 00c5 73EBF62E 		.ascii	"s\353\366.>\374\"\375t/_\332\243U\354{\025\204\254p"
 173      3EFC22FD 
 173      742F5FDA 
 173      A355EC7B 
 173      1584AC70 
 174 00d9 82144E21 		.ascii	"\202\024N!\243\241\206*\250\211\215\276\021\341TD<\350"
 174      A3A1862A 
 174      A8898DBE 
 174      11E15444 
 174      3CE8
 175 00eb FCB463BA 		.ascii	"\374\264c\272\\\225\011uQ\212\353\316\320\361?\330\231"
 175      5C950975 
 175      518AEBCE 
 175      D0F13FD8 
 175      99
 176 00fc C004414F 		.ascii	"\300\004AO\360\202pQ\253\365\350-\231B\032\227F\246"
 176      F0827051 
 176      ABF5E82D 
 176      99421A97 
 176      46A6
 177 010e E6AD82E5 		.ascii	"\346\255\202\345,\027\255\225|\326.9\246\225[\312\332"
 177      2C17AD95 
 177      7CD62E39 
 177      A6955BCA 
 177      DA
 178 011f 99B9DCC2 		.ascii	"\231\271\334\302\252\351\330k\371\214]*\024-g\306\244"
 178      AAE9D86B 
 178      F98C5D2A 
 178      142D67C6 
 178      A4
 179 0130 5F0EA276 		.ascii	"_\016\242v\372"
 179      FA
 180              		.text
 181              		.section	.gnu.lto_Micros_Counter_SetInterruptMode.24c02899,"",%progbits
 182 0000 789C6590 		.ascii	"x\234e\2201HBQ\024\206\317\177\237\231%D4\311\333\305"
 182      31484251 
 182      1486CF7F 
 182      9F992544 
 182      34C9DBC5 
 183 0014 A2686BA8 		.ascii	"\242hk\250)ph\212\002WA\304\336 \201\306Sg\3573\003"
 183      2970688A 
 183      025741C4 
 183      DE2081C6 
 183      5367EF33 
 184 0029 9B948A08 		.ascii	"\233\224\212\010\302\251\302\312,\"\232{\264EPXC\020"
 184      C2A9C2CA 
ARM GAS  C:\Users\Bruger\AppData\Local\Temp\ccLRF4Uh.s 			page 14


 184      2C229A7B 
 184      B4455058 
 184      4310
 185 003b 518B41D1 		.ascii	"Q\213A\321`\322\020\257\010;7\307.\\\316\177\017\377"
 185      60D210AF 
 185      083B37C7 
 185      2E5CCE7F 
 185      0FFF
 186 004d FFDD73AF 		.ascii	"\377\335s\257F\377\227\316\273\027D\343\\\241\021D\351"
 186      46FF97CE 
 186      BB1744E3 
 186      5CA11144 
 186      E9
 187 005e 8AC8F208 		.ascii	"\212\310\362\010@\011\002e\005\262x\025-\201\222]\335"
 187      40090265 
 187      05B27815 
 187      2D81925D 
 187      DD
 188 006f F00676A4 		.ascii	"\360\006v\244\224\3577\337\276%\237#\210>D\007\203\012"
 188      94EF37DF 
 188      BE259F23 
 188      883E4407 
 188      830A
 189 0081 026C59AE 		.ascii	"\002lY\256\335\236vk\303 \326kg\333E\370\267\244\314"
 189      DD9E766B 
 189      C320D66B 
 189      67DB45F8 
 189      B7A4CC
 190 0094 D90F8772 		.ascii	"\331\017\207r\022\0163w\241q\002#:\206t\342\006a\017"
 190      120E3377 
 190      A1710223 
 190      3A8674E2 
 190      06610F
 191 00a7 7E656EE5 		.ascii	"~en\345\177\356\274\356<\263\373;L\354\303\315c\321"
 191      7FEEBCEE 
 191      3CB3FB3B 
 191      4CECC3CD 
 191      63D1
 192 00b9 D1802DDB 		.ascii	"\321\200-\333\355\223\346jaBs1A\371\251\301\0165\336"
 192      ED93E66A 
 192      61427331 
 192      41F9A9C1 
 192      0E35DE
 193 00cc B310AA6A 		.ascii	"\263\020\252j\3678_o5\027{T\210a\307\271J\021/\302\021"
 193      F7385F6F 
 193      35177B54 
 193      8861C7B9 
 193      4A112FC2 
 194 00e1 A2706949 		.ascii	"\242piI\227\342?5\256\353\236\277\026\251\343\327\333"
 194      97E23F35 
 194      AEEB9EBF 
 194      16A9E3D7 
 194      DB
 195 00f2 C58AB78C 		.ascii	"\305\212\267\214M+o\331]\216\320P\205\216\003\360g\240"
 195      4D2B6FD9 
 195      5D8ED050 
 195      858E03F0 
ARM GAS  C:\Users\Bruger\AppData\Local\Temp\ccLRF4Uh.s 			page 15


 195      67A0
 196 0104 86323ED9 		.ascii	"\2062>\331\366\010\313\256\317(\242z_\203g\345\2338"
 196      F608CBAE 
 196      CF28A27A 
 196      5F8367E5 
 196      9B38
 197 0116 3D386524 		.ascii	"=8e$\0143\2326\346\"\241d\306\214\031\341\331P28\026"
 197      0C339A36 
 197      E622A164 
 197      C68C19E1 
 197      D9503238 
 198 012b 9E8EC7CC 		.ascii	"\236\216\307\314d*\022Lf\022i\303\034\215Q_\\\0113\263"
 198      642A124C 
 198      661269C3 
 198      1C8D515F 
 198      5C0933B3 
 199 013f 904E4D47 		.ascii	"\220NMGS\363\277\357\333r\312"
 199      53F3BFEF 
 199      DB72CA
 200              		.text
 201              		.section	.gnu.lto_Micros_Counter_ReadStatusRegister.24c02899,"",%progbits
 202 0000 789C6366 		.ascii	"x\234cf\300\004R@|\035\210\265\200\230\221\231\201\221"
 202      C0045240 
 202      7C1D88B5 
 202      80989199 
 202      8191
 203 0012 69C23906 		.ascii	"i\3029\006\206F\016&FF\020\203\201\221\241\236\211\261"
 203      86460E26 
 203      46461083 
 203      8191A19E 
 203      89B1
 204 0024 9EF125D3 		.ascii	"\236\361%\323G&\3063;\377]fT_\332\320\320\364\341\322"
 204      4726C633 
 204      3BFF5D66 
 204      545FDAD0 
 204      D0F4E1D2 
 205 0038 C4D4E953 		.ascii	"\304\324\351S\022~210|fb`\324\221b\324\004\231\303\270"
 205      127E3231 
 205      307C6662 
 205      60D49162 
 205      D40499C3 
 206 004d 9C519D01 		.ascii	"\234Q\235\001\250\360c\313\337\353\334l-\015\015\015"
 206      A8F063CB 
 206      DFEBDC6C 
 206      2D0D0D0D 
 207 005d 022079A0 		.ascii	"\002 y\240\304\012F6F \275^\350@\303\377\377\233\217"
 207      C40A4636 
 207      4620BD5E 
 207      E840C3FF 
 207      FF9B8F
 208 0070 4FE95063 		.ascii	"O\351Pcafb\000\351gx\002$@V=eb\002\321\314\267\030\017"
 208      61666200 
 208      E9677802 
 208      2440563D 
 208      656202D1 
 209 0088 7DEBFA77 		.ascii	"}\353\372w\202\013\244\347;\023\310\336\303\317.Lf|"
 209      820BA4E7 
ARM GAS  C:\Users\Bruger\AppData\Local\Temp\ccLRF4Uh.s 			page 16


 209      3B13C8DE 
 209      C3CF2E4C 
 209      667C
 210 009a C1F49389 		.ascii	"\301\364\223\211\361\305\251\306\006\026\220\015\367"
 210      F1C5A9C6 
 210      0616900D 
 210      F7
 211 00a7 9F9CBFC8 		.ascii	"\237\234\277\310\001\026b\000q[\346};\306>\227qvcK\343"
 211      01166200 
 211      715BE67D 
 211      3BC63E97 
 211      7176634B 
 212 00bc 01999F4C 		.ascii	"\001\231\237LL\214+\031\245\030W1\002\335\304\270\232"
 212      4C8C2B19 
 212      A5185731 
 212      02DDC4B8 
 212      9A
 213 00cd 712E23C3 		.ascii	"q.#\303=\306\306\006n\250\201`+\031AV\001\231\032\356"
 213      3DC6C606 
 213      6EA88160 
 213      2B194156 
 213      01991AEE 
 214 00e1 A979A945 		.ascii	"\251y\251E\211%\251)\361\301\371\245E\311\2511\001\301"
 214      8925A929 
 214      F1C1F9A5 
 214      45C9A931 
 214      01C1
 215 00f3 F9CEA631 		.ascii	"\371\316\2461\276\231\311E\371\305\361\316\371\245y"
 215      BE99C945 
 215      F9C5F1CE 
 215      F9A579
 216 0102 25A9457A 		.ascii	"%\251Ez\311\014\000\372\341^~"
 216      C90C00FA 
 216      E15E7E
 217              		.text
 218              		.section	.gnu.lto_Micros_Counter_ReadControlRegister.24c02899,"",%progbits
 219 0000 789C6366 		.ascii	"x\234cf\300\004R@|\035\210\265\200\230\221\231\201\221"
 219      C0045240 
 219      7C1D88B5 
 219      80989199 
 219      8191
 220 0012 69C23906 		.ascii	"i\3029\006\206F\016&FF\020\203\201\221\241\236\211\261"
 220      86460E26 
 220      46461083 
 220      8191A19E 
 220      89B1
 221 0024 9EF125D3 		.ascii	"\236\361%\323G&\3063;\377]fT_\332\320\320\364a\323\364"
 221      4726C633 
 221      3BFF5D66 
 221      545FDAD0 
 221      D0F461D3 
 222 0039 D4E95312 		.ascii	"\324\351S\022~210|fb`\324\221b\324\004\231\303\270\234"
 222      7E323130 
 222      7C666260 
 222      D49162D4 
 222      0499C3B8 
 223 004e 519D01A8 		.ascii	"Q\235\001\250\360c\313\337\353\334l-\015\015\015\002"
ARM GAS  C:\Users\Bruger\AppData\Local\Temp\ccLRF4Uh.s 			page 17


 223      F063CBDF 
 223      EBDC6C2D 
 223      0D0D0D02 
 224 005e 2079A0C4 		.ascii	" y\240\304\012F6F \275^\350@\303\377\377\233\357M9\241"
 224      0A463646 
 224      20BD5EE8 
 224      40C3FFFF 
 224      9BEF4D39 
 225 0073 CFC2CCC4 		.ascii	"\317\302\314\304\000\322\317\360\004H\200\254z\312\304"
 225      00D2CFF0 
 225      044880AC 
 225      7ACAC4
 226 0082 04A2996F 		.ascii	"\004\242\231o1\036\372\326\365\3564\027H\317w&\220\275"
 226      311EFAD6 
 226      F5EE3417 
 226      48CF7726 
 226      90BD
 227 0094 FBD65C3A 		.ascii	"\373\326\\:\304\365\202\351'\023\343\217S\215\015, "
 227      C4F582E9 
 227      2713E38F 
 227      538D0D2C 
 227      20
 228 00a5 1BEE3F39 		.ascii	"\033\356?9\177\221\003,\304\000\3426\354~\364\202}."
 228      7F91032C 
 228      C400E236 
 228      EC7EF482 
 228      7D2E
 229 00b7 E3ECC696 		.ascii	"\343\354\306\226\306\0032?\231\230\030W2J1\256b\004"
 229      C603323F 
 229      99981857 
 229      324A31AE 
 229      6204
 230 00c9 BA897135 		.ascii	"\272\211q5\343\\F\206{\214\215\015\334P\003\301V2\202"
 230      E35C4686 
 230      7B8C8D0D 
 230      DC5003C1 
 230      563282
 231 00dc AC023235 		.ascii	"\254\00225\334S\363R\213\022KRS\342\203\363K\213\222"
 231      DC53F352 
 231      8B124B52 
 231      53E283F3 
 231      4B8B92
 232 00ef 53630282 		.ascii	"Sc\002\202\363\235Mc|3\223\213\362\213\343\235\363K"
 232      F39D4D63 
 232      7C33938B 
 232      F28BE39D 
 232      F34B
 233 0101 F34A528B 		.ascii	"\363JR\213\364\222\031\0000\271^\351"
 233      F4921900 
 233      30B95EE9 
 234              		.text
 235              		.section	.gnu.lto_Micros_Counter_WriteControlRegister.24c02899,"",%progbits
 236 0000 789C6590 		.ascii	"x\234e\220\275K\003A\020\305\347\355\305$&\215X^\037"
 236      BD4B0341 
 236      10C5E7ED 
 236      C524268D 
 236      585E1F
ARM GAS  C:\Users\Bruger\AppData\Local\Temp\ccLRF4Uh.s 			page 18


 237 0013 A2281682 		.ascii	"\242(\026\202\215\225\220\302J\020\322\006\242\234W"
 237      8D9590C2 
 237      4A10D206 
 237      A29C57
 238 0022 089283F3 		.ascii	"\010\222\203\363Rg/\344\017\010\022D\220T\342GLT\304"
 238      52672FE4 
 238      0F081244 
 238      9054E247 
 238      4C54C4
 239 0035 52902304 		.ascii	"R\220#\004\013\013E\233\200\205\202D8\2611D\321\023"
 239      0B0B459B 
 239      80858244 
 239      38B13144 
 239      D113
 240 0047 24CE9AD2 		.ascii	"$\316\232\322\205ef\207\367~\373v5\372\277t\3361\020"
 240      85656687 
 240      F77EFB76 
 240      35FABF74 
 240      DE3110
 241 005a 4D738546 		.ascii	"Ms\205F\020\345k\"7*\000\325\020\250 P\300\213\350\012"
 241      10E56B22 
 241      372A00D5 
 241      10A82050 
 241      C08BE80A 
 242 006e 94BDFA56 		.ascii	"\224\275\372V<\271+\245|+VMYY\012\004QO\0148\330G\222"
 242      3CB92BA5 
 242      7C2B564D 
 242      59590A04 
 242      514F0C38 
 243 0085 357BAD4B 		.ascii	"5{\255K]\233\000q\373}\266Q\037N\354HY\364^\217\345"
 243      5D9B0071 
 243      FB7DB651 
 243      1F4EEC48 
 243      59F45E8F 
 244 009a 1C02661E 		.ascii	"\034\002f\036@c\003&u\214\353\304\003B\015\011%\356"
 244      40630326 
 244      758CEBC4 
 244      03420D09 
 244      25EE
 245 00ac 967EDAF1 		.ascii	"\226~\332\361p\211\331#\003$\016\021\346Xt2\352\311"
 245      7089D923 
 245      03240E11 
 245      E6587432 
 245      EAC9
 246 00be 7EBFF75E 		.ascii	"~\277\367^\361gC!&(=uX\241\342=\013\241\252v\217\346"
 246      F1674321 
 246      26283D75 
 246      58A1E23D 
 246      0BA1AA76 
 247 00d4 E6E9472B 		.ascii	"\346\351G+\242L\014\273h\3345c\276\010\204\370\272r"
 247      A24C0CBB 
 247      68DC3563 
 247      BE0884F8 
 247      BA72
 248 00e6 6548F11F 		.ascii	"eH\361\037;7\267\321\277\021\251\243<\177\362#Ul\273"
 248      3B37B7D1 
 248      BF11A9A3 
ARM GAS  C:\Users\Bruger\AppData\Local\Temp\ccLRF4Uh.s 			page 19


 248      3C7FF223 
 248      556CBB
 249 00f9 25D71B0A 		.ascii	"%\327\033\012\204\206:t4\300\237\201#T\361\311\262\007"
 249      84863A74 
 249      34C09F81 
 249      2354F1C9 
 249      B207
 250 010b B85E3BAD 		.ascii	"\270^;\255\210\352y\035\316\3127\261{l\336\314\231\366"
 250      88EA791D 
 250      CECA37B1 
 250      7B6CDECC 
 250      99F6
 251 011d B263AE64 		.ascii	"\262c\256d\323V\3366\314\314b\332J\315d\026V\015\333"
 251      D356DE36 
 251      CCCC62DA 
 251      4ACD6416 
 251      560DDB
 252 0130 5ACFA6AC 		.ascii	"Z\317\246\254|\3161\355)\203\"\206\225slk\355\0279V"
 252      7CCE31ED 
 252      29832286 
 252      95736C6B 
 252      ED173956 
 253 0144 71CB     		.ascii	"q\313"
 254              		.text
 255              		.section	.gnu.lto_Micros_Counter_WriteCounter.24c02899,"",%progbits
 256 0000 789C654F 		.ascii	"x\234eO=HBQ\030\375\316}O\023\244\210\246rj\021\243"
 256      3D484251 
 256      18FDCE7D 
 256      4F13A488 
 256      A6726A11 
 257 0015 A021680F 		.ascii	"\240!h\017\034\232\202@h\022$^oh\361\301Kg\357+\213"
 257      1C9A8240 
 257      6812245E 
 257      6F68F1C1 
 257      4B67EF2B 
 258 002a A0068914 		.ascii	"\240\006\211\024!\234*\372\261\224r\262\351\321TQV "
 258      219C2AFA 
 258      B19472B2 
 258      E9D15451 
 258      5620
 259 003c 480D4561 		.ascii	"H\015Ea`[V\020o\010\273W\307.\\\276s>\316=\347\\\205"
 259      605B5610 
 259      6F08BB57 
 259      C72E5CBE 
 259      733ECE3D 
 260 0053 FE1F9FB8 		.ascii	"\376\037\237\270\001\020\215\211\011\205\300R\025\""
 260      01108D89 
 260      0985C052 
 260      1522
 261 0061 CBC30009 		.ascii	"\313\303\000\011\010\224`H\340\2355\031Rv>\353\015\354"
 261      08946048 
 261      E09D3519 
 261      52763EEB 
 261      0DEC
 262 0073 72CE3F5E 		.ascii	"r\316?^O\006\226\373\035F\364\305:6\330C@H*\227K1e\004"
 262      4F0696FB 
 262      1D46F4C5 
ARM GAS  C:\Users\Bruger\AppData\Local\Temp\ccLRF4Uh.s 			page 20


 262      3A36D843 
 262      40482A97 
 263 008b 2460B9F0 		.ascii	"$`\271\360}\343m0\207aP\322\263\215\213\254[R\246JZ"
 263      7DE36D30 
 263      876150D2 
 263      B38D8BAC 
 263      5B52A64A 
 264 00a0 BD2BAD7B 		.ascii	"\275+\255{\374\333\234/\332\017\247|Bu\230\202}(\302"
 264      FCDB9C2F 
 264      DA0FA77C 
 264      42759882 
 264      7D28C2
 265 00b3 0E07F0E1 		.ascii	"\016\007\360\341\020>\022+B\036~)o&\177k^wRD\367v\""
 265      103E122B 
 265      421E7E29 
 265      6F267F6B 
 265      5E775244 
 266 00ca 7104B768 		.ascii	"q\004\267hM\305>\233\267Z\245\353tc\330\245\212\322"
 266      4DC53E9B 
 266      B75AA5EB 
 266      7463D8A5 
 266      8AD2
 267 00dc 524F75A1 		.ascii	"ROu\241\220\355\337\030\223Sy\304y\246YM+\362\2210\313"
 267      90EDDF18 
 267      935379C4 
 267      79A6594D 
 267      2BF29130 
 268 00f1 AC7D96BB 		.ascii	"\254}\226\273e\025u\365\312\342\355:\317\365\333{O{"
 268      651575F5 
 268      CAE2ED3A 
 268      CFF5DB7B 
 268      4F7B
 269 0103 45926EBE 		.ascii	"E\222n\276\354\254\364\344\260e%\3410\027\216E\243\202"
 269      ECACF4E4 
 269      B06525E1 
 269      30178E45 
 269      A382
 270 0115 68442822 		.ascii	"hD(\"\207\037\341\372\004\313\256\315H?\371\371:\203"
 270      871FE1FA 
 270      04CBAECD 
 270      483FF9F9 
 270      3A83
 271 0127 CC11A943 		.ascii	"\314\021\251C\223zT7gc\372\\$d\304MM\017O\207\214\340"
 271      937A5437 
 271      6763FA5C 
 271      2464C44D 
 271      4D0F4F87 
 272 013d 78786A5E 		.ascii	"xxj^3\215\205H\320\210Gc\2729\252Q\227\326\201\177\213"
 272      338D8548 
 272      D0884763 
 272      BA39AA51 
 272      97D6817F 
 273 0152 FE7B77   		.ascii	"\376{w"
 274              		.text
 275              		.section	.gnu.lto_Micros_Counter_ReadCounter.24c02899,"",%progbits
 276 0000 789C6366 		.ascii	"x\234cf\300\004R@\354\317\310\300\240\005\244\031\231"
 276      C0045240 
ARM GAS  C:\Users\Bruger\AppData\Local\Temp\ccLRF4Uh.s 			page 21


 276      ECCFC8C0 
 276      A005A419 
 276      99
 277 0011 19189926 		.ascii	"\031\030\231&\234c`h\344`bd\0041\030\030\031\352\231"
 277      9C636068 
 277      E4606264 
 277      04311818 
 277      19EA99
 278 0024 18EB195F 		.ascii	"\030\353\031_2}db\334\271\356\313Y\356\027L?\231\030"
 278      327D6462 
 278      DCB9EECB 
 278      59EE174C 
 278      3F9918
 279 0037 141880DC 		.ascii	"\024\030\200\334]\223N\314`\003q\031Y@\334\353\327f"
 279      5D934ECC 
 279      60037119 
 279      5940DCEB 
 279      D766
 280 0049 5CE7545F 		.ascii	"\\\347T_\332\320\320\364\341\322\316\304\231S\026\000"
 280      DAD0D0F4 
 280      E1D2CEC4 
 280      99531600 
 281 0059 6598183E 		.ascii	"e\230\030>310.g\224b\\\301\010\262\210q%\243:H\355\307"
 281      3331302E 
 281      6794625C 
 281      C108B288 
 281      7125A33A 
 282 0070 96BFD7B9 		.ascii	"\226\277\327\271\331Z\032\032\032\004@*\200\022\253"
 282      D95A1A1A 
 282      1A04402A 
 282      8012AB
 283 007f 18D9808E 		.ascii	"\030\331\200\216`X/t\240\341\377\377\315\317\247\236"
 283      60582F74 
 283      A0E1FFFF 
 283      CDCFA79E 
 284 008f B0666561 		.ascii	"\260feab\370\311\304\314\314\0002\206\341\011\020\203"
 284      62F8C9C4 
 284      CCCC0032 
 284      86E10910 
 284      83
 285 00a0 1CF414C8 		.ascii	"\034\364\024\310\001\322\314\267\030\017}\353zw\227"
 285      01D2CCB7 
 285      180F7DEB 
 285      7A7797
 286 00af 0DA4F13B 		.ascii	"\015\244\361;\023\310u\323\272?\355\344\0059\207\245"
 286      13C875D3 
 286      BA3FEDE4 
 286      053987A5 
 287 00bf E3546303 		.ascii	"\343Tc\003\330I\367\237\234\277\310\001\026b\000q\247"
 287      D849F79F 
 287      9CBFC801 
 287      16620071 
 287      A7
 288 00d0 3C5CD2C6 		.ascii	"<\\\322\3067\227qvc\013\343O&V\306\325@g\255\0019\213"
 288      37977176 
 288      630BE34F 
 288      2656C6D5 
ARM GAS  C:\Users\Bruger\AppData\Local\Temp\ccLRF4Uh.s 			page 22


 288      4067AD01 
 289 00e6 712DE35C 		.ascii	"q-\343\\F\006\260\211\317\356\031ALd\006\252\357\355"
 289      4606B089 
 289      CFEE1941 
 289      4C6406AA 
 289      EFED
 290 00f8 3AF48109 		.ascii	":\364\201\011\244\235\355\004\206\211l`\023\337\316"
 290      A49DED04 
 290      86896C60 
 290      13DFCE
 291 0107 DF76880B 		.ascii	"\337v\210\013lb\343\001\315\237L\354\214\353\200f\256"
 291      6C62E301 
 291      CD9F4CEC 
 291      8CEB8066 
 291      AE
 292 0118 079BB901 		.ascii	"\007\233\271\001d\346=\306\306\006c\250\201\014 O0\202"
 292      64E63DC6 
 292      C60663A8 
 292      810C204F 
 292      3082
 293 012a 1C0FF48A 		.ascii	"\034\017\364\212\206{j^jQbIjJ|p~iQrjL@p\276\263i\214"
 293      867B6A5E 
 293      6A516249 
 293      6A4A7C70 
 293      7E695172 
 294 0146 6F667251 		.ascii	"ofrQ~q\274s~i^Ij\221^2\003\0005M\213X"
 294      7E71BC73 
 294      7E695E49 
 294      6A915E32 
 294      0300354D 
 295              		.text
 296              		.section	.gnu.lto_Micros_Counter_ReadCapture.24c02899,"",%progbits
 297 0000 789C6366 		.ascii	"x\234cf\300\004R@\374\003\210\265\200\230\221\231\201"
 297      C0045240 
 297      FC0388B5 
 297      80989199 
 297      81
 298 0011 9169C239 		.ascii	"\221i\3029\006\206F\016&FF\020\203\201\221\241\236\211"
 298      0686460E 
 298      26464610 
 298      838191A1 
 298      9E89
 299 0023 B19EF125 		.ascii	"\261\236\361%\323G&\306\235\353\276\234\345~\301\364"
 299      D34726C6 
 299      9DEBBE9C 
 299      E57EC1F4 
 300 0033 93894181 		.ascii	"\223\211A\201\001\310\3355\351\304\0146\020\227\221"
 300      01C8DD35 
 300      E9C40C36 
 300      109791
 301 0042 05C4BD7E 		.ascii	"\005\304\275~m\306uN\365\245\015\015M\037\036]L\234"
 301      6DC6754E 
 301      F5A50D0D 
 301      4D1F1E5D 
 301      4C9C
 302 0054 39650150 		.ascii	"9e\001P\206\211\3413\023\003\343rF)\306\025\214 \213"
 302      8689E133 
ARM GAS  C:\Users\Bruger\AppData\Local\Temp\ccLRF4Uh.s 			page 23


 302      1303E372 
 302      4629C615 
 302      8C208B
 303 0067 185732AA 		.ascii	"\030W2\252\203\324~l\371{\235\233\255\245\241\241A\000"
 303      83D47E6C 
 303      F97B9D9B 
 303      ADA5A1A1 
 303      4100
 304 0079 A40228B1 		.ascii	"\244\002(\261\212\221\215\021H\257\027:\320\360\377"
 304      8A918D11 
 304      48AF173A 
 304      D0F0FF
 305 0088 FFE7E3D3 		.ascii	"\377\347\343\323V\250\263131\200L`x\002\304 \267<\005"
 305      56A8B331 
 305      3331804C 
 305      607802C4 
 305      20B73C05 
 306 009c 728034F3 		.ascii	"r\2004\363-\306C\337\272\356\2754\002\351\371\316\004"
 306      2DC643DF 
 306      BAEEBD34 
 306      02E9F9CE 
 306      04
 307 00ad 72586FD7 		.ascii	"rXo\327\241\017L \2270\2378\325\330\000v\315\375'\347"
 307      A10F4C20 
 307      97309F38 
 307      D5D80076 
 307      CDFD27E7 
 308 00c1 2F728085 		.ascii	"/r\200\205\030@\334\267\363\267\035\342\232\3138\273"
 308      1840DCB7 
 308      F3B71DE2 
 308      9ACB38BB 
 309 00d1 B1A5F180 		.ascii	"\261\245\361\200\346O&\026\306\325@7\255\001\271\211"
 309      E64F2616 
 309      C6D54037 
 309      AD01B989 
 310 00e1 712DE35C 		.ascii	"q-\343\\F\206{\214\215\015\306P\003\031@V2\202\254\002"
 310      46867B8C 
 310      8D0DC650 
 310      03194056 
 310      3282AC02 
 311 00f5 3235DC53 		.ascii	"25\334S\363R\213\022KRS\342\203\363K\213\222Sc\002\202"
 311      F3528B12 
 311      4B5253E2 
 311      83F34B8B 
 311      92536302 
 312 010a F39D4D63 		.ascii	"\363\235Mc|3\223\213\362\213\343\235\363K\363JR\213"
 312      7C33938B 
 312      F28BE39D 
 312      F34BF34A 
 312      528B
 313 011c F4921900 		.ascii	"\364\222\031\000IWlW"
 313      49576C57 
 314              		.text
 315              		.section	.gnu.lto_Micros_Counter_WritePeriod.24c02899,"",%progbits
 316 0000 789C658F 		.ascii	"x\234e\217?HBQ\024\306\317w\357\353)\270DS9\265\210"
 316      3F484251 
 316      14C6CF77 
ARM GAS  C:\Users\Bruger\AppData\Local\Temp\ccLRF4Uh.s 			page 24


 316      EFEB29B8 
 316      445339B5 
 317 0015 421044B4 		.ascii	"B\020D\264\007\016MA\340\230 \241op\361\305Kg\337\213"
 317      070E4D41 
 317      E09820A1 
 317      6F70F1C5 
 317      4B67DF8B 
 318 0029 D72E0D22 		.ascii	"\327.\015\"\205SD\226\245\224SM\217\206\220\240?\016"
 318      85534496 
 318      A594534D 
 318      8F8690A0 
 318      3F0E
 319 003b A535D462 		.ascii	"\2455\324bQ\321\220\025\304\033\342u\257\216]\270\234"
 319      51D19015 
 319      C41BE275 
 319      AF8E5DB8 
 319      9C
 320 004c F31DCEFD 		.ascii	"\363\035\316\375\276\337\345\364\377\004\305\215\200"
 320      BEDFE5F4 
 320      FF04C58D 
 320      80
 321 0059 684A5470 		.ascii	"hJTp\002+\\\022Y~\006\310\206@y\206<^Y\217\241\340T"
 321      022B5C12 
 321      597E06C8 
 321      86407986 
 321      3C5E598F 
 322 0070 4B81F0B6 		.ascii	"K\201\360\266i\232\037\237\355\261\265Q\227\021}\261"
 322      699A1F9F 
 322      EDB1B551 
 322      97117DB1 
 323 0080 810D7610 		.ascii	"\201\015v\020\026+^\243\327\362\361\011\220\350\217"
 323      162B5EA3 
 323      D7F2F109 
 323      90E88F
 324 008f 6BDF1781 		.ascii	"k\337\027\201\027\3462\214Ky\262\336,\251R2E\312\353"
 324      17E6328C 
 324      4B79B2DE 
 324      2CA95232 
 324      45CAEB
 325 00a2 DB4E8D87 		.ascii	"\333N\215\207\266Ls\325\351\034\231\263\212\3138*\340"
 325      B64C73D5 
 325      E91C99B3 
 325      8ACB382A 
 325      E0
 326 00b3 C20FBB08 		.ascii	"\302\017\273\010b\017A\022#B\025!\271\336\263\177\333"
 326      620F4112 
 326      23421521 
 326      B9DEB37F 
 326      DB
 327 00c4 01D516D9 		.ascii	"\001\325\026\331\303\203L\354C\025\330T\037qL\317kt"
 327      C3834CEC 
 327      4315D854 
 327      1F714CCF 
 327      6B74
 328 00d6 8BCD6955 		.ascii	"\213\315iU\021\324r\237\272bC\342?1&+\277\307i\361\360"
 328      11D4729F 
 328      BA6243E2 
ARM GAS  C:\Users\Bruger\AppData\Local\Temp\ccLRF4Uh.s 			page 25


 328      3F31262B 
 328      BFC769F1 
 329 00eb B9C8E523 		.ascii	"\271\310\345#a\266qsf\373$\212R9\267\314>\316c\367\252"
 329      61B67173 
 329      66FB248A 
 329      5239B7CC 
 329      3ECE63F7 
 330 0100 E5EF8F48 		.ascii	"\345\357\217HJ\357\375\356\315_\306\246e\303eC8\020"
 330      4AEFFDEE 
 330      CD5FC6A6 
 330      65C36543 
 330      3810
 331 0112 44354144 		.ascii	"D5AD\250\243\214\037\341\372\000\313)/J?\371\373.\203"
 331      A8A38C1F 
 331      E1FA00CB 
 331      292F4A3F 
 331      F9FB2E83 
 332 0126 CC11A991 		.ascii	"\314\021\251\2219-\243\031KY-\225\210\3519#\251\305"
 332      392DA319 
 332      4B592D95 
 332      88E93923 
 332      A9C5
 333 0138 17627A74 		.ascii	"\027bzt&>\237N\032\372J\"\252\3472Y\315\230L\222\272"
 333      263E9F4E 
 333      1AFA4A22 
 333      AAE73259 
 333      CD984C92 
 334 014d AC19693D 		.ascii	"\254\031i=\365\007\017\300}\020"
 334      F5070FC0 
 334      7D10
 335              		.text
 336              		.section	.gnu.lto_Micros_Counter_ReadPeriod.24c02899,"",%progbits
 337 0000 789C6366 		.ascii	"x\234cf\300\004R@\374\003\210\265\200\230\221\231\201"
 337      C0045240 
 337      FC0388B5 
 337      80989199 
 337      81
 338 0011 9169C239 		.ascii	"\221i\3029\006\206F\016&FF\020\203\201\221\241\236\211"
 338      0686460E 
 338      26464610 
 338      838191A1 
 338      9E89
 339 0023 B19EF125 		.ascii	"\261\236\361%\323G&\306\235\353\276\234\345~\301\364"
 339      D34726C6 
 339      9DEBBE9C 
 339      E57EC1F4 
 340 0033 93894181 		.ascii	"\223\211A\201\001\310\3355\351\304\0146\020\227\221"
 340      01C8DD35 
 340      E9C40C36 
 340      109791
 341 0042 05C4BD7E 		.ascii	"\005\304\275~m\306uN\365\245\015\015M\037\036\335M\234"
 341      6DC6754E 
 341      F5A50D0D 
 341      4D1F1EDD 
 341      4D9C
 342 0054 39650150 		.ascii	"9e\001P\206\211\3413\023\003\343rF)\306\025\214 \213"
 342      8689E133 
ARM GAS  C:\Users\Bruger\AppData\Local\Temp\ccLRF4Uh.s 			page 26


 342      1303E372 
 342      4629C615 
 342      8C208B
 343 0067 185732AA 		.ascii	"\030W2\252\203\324~l\371{\235\233\255\245\241\241A\000"
 343      83D47E6C 
 343      F97B9D9B 
 343      ADA5A1A1 
 343      4100
 344 0079 A40228B1 		.ascii	"\244\002(\261\212\221\215\021H\257\027:\320\360\377"
 344      8A918D11 
 344      48AF173A 
 344      D0F0FF
 345 0088 FFE7EFD3 		.ascii	"\377\347\357\323V\330\263131\200L`x\002\304 \267<\005"
 345      56D8B331 
 345      3331804C 
 345      607802C4 
 345      20B73C05 
 346 009c 728034F3 		.ascii	"r\2004\363-\306C\337\272\356\2757\002\351\371\316\004"
 346      2DC643DF 
 346      BAEEBD37 
 346      02E9F9CE 
 346      04
 347 00ad 72D8ACAB 		.ascii	"r\330\254\253\307Z\330A.a^q\252\261\001\354\232\373"
 347      C75AD841 
 347      2E615E71 
 347      AAB101EC 
 347      9AFB
 348 00bf 4FCE5FE4 		.ascii	"O\316_\344\000\0131\200\270\377\337\334|\3051\227qv"
 348      000B3180 
 348      B8FFDFDC 
 348      7CC53197 
 348      7176
 349 00d1 634BE301 		.ascii	"cK\343\001\315\237L,\214\253\201nZ\003r\023\343Z\306"
 349      CD9F4C2C 
 349      8CAB816E 
 349      5A037213 
 349      E35AC6
 350 00e4 B98C0CF7 		.ascii	"\271\214\014\367\030\033\033\214\241\0062\200\254d\004"
 350      181B1B8C 
 350      A1063280 
 350      AC6404
 351 00f3 5905646A 		.ascii	"Y\005dj\270\247\346\245\026%\226\244\246\304\007\347"
 351      B8A7E6A5 
 351      162596A4 
 351      A6C407E7 
 352 0103 971625A7 		.ascii	"\227\026%\247\306\004\004\347;\233\306\370f&\027\345"
 352      C60404E7 
 352      3B9BC6F8 
 352      662617E5 
 353 0113 17C73BE7 		.ascii	"\027\307;\347\227\346\225\244\026\351%3\000\000\265"
 353      97E695A4 
 353      16E92533 
 353      0000B5
 354 0122 696D2E   		.ascii	"im."
 355              		.text
 356              		.section	.gnu.lto_Micros_Counter_WriteCompare.24c02899,"",%progbits
 357 0000 789C658F 		.ascii	"x\234e\2171HBQ\024\206\317\177\337K\005\013\242\251"
ARM GAS  C:\Users\Bruger\AppData\Local\Temp\ccLRF4Uh.s 			page 27


 357      31484251 
 357      1486CF7F 
 357      DF4B050B 
 357      A2A9
 358 0012 9C5A4421 		.ascii	"\234ZD!p\010\332\003\207\246 h\225D^oh\310\027/\235"
 358      7008DA03 
 358      87A62068 
 358      95445E6F 
 358      68C8172F 
 359 0027 BDC68B56 		.ascii	"\275\306\213V1HAl\221\310\262\024\212\300Zz4U\220\325"
 359      3148416C 
 359      91C8B214 
 359      8AC05A7A 
 359      345590D5 
 360 003b 1052502D 		.ascii	"\020RP-\006\265%\026\361\206\260{u\354\302\345\234\377"
 360      06B52516 
 360      F186B07B 
 360      75ECC2E5 
 360      9CFF
 361 004d 70EEFF7F 		.ascii	"p\356\377\177W\241\377\307'n\020D\223\242B!\260L\203"
 361      57A1FFC7 
 361      276E1044 
 361      93A24221 
 361      B04C83
 362 0060 28ED6180 		.ascii	"(\355a\200l\010\224bH\341\203\265\0312v%\357\015\354"
 362      6C089462 
 362      48E183B5 
 362      19327625 
 362      EF0DEC
 363 0073 70CE3FB3 		.ascii	"p\316?\263\337c\353\243\016#\352\260\276\015v\021\020"
 363      DF63EBA3 
 363      0E23EAB0 
 363      BE0D7611 
 363      10
 364 0084 2B76F6EA 		.ascii	"+v\366\352nH\231\000\211\376\264\372u\343}g\016\303"
 364      6E489900 
 364      89FEB4FA 
 364      75E37D67 
 364      0EC3
 365 0096 B89467D9 		.ascii	"\270\224g\331\313\274KJ\246J\271}\376\\g\376\022\347"
 365      CBBC4B4A 
 365      A64AB97D 
 365      FE5C67FE 
 365      12E7
 366 00a8 6BF6E311 		.ascii	"k\366\343\021\237V\035\246\240\014E\370a\017>\354\303"
 366      9F561DA6 
 366      A00C45F8 
 366      610F3EEC 
 366      C3
 367 00b9 476244A8 		.ascii	"GbD\250\300/\327\333\326o\323\353\262D\366p?\023\007"
 367      C02FD7DB 
 367      D66FD3EB 
 367      B244F670 
 367      3F1307
 368 00cc 70096CAA 		.ascii	"p\011l\252\215\330\274\333\355<\344\312!\267*\250\345"
 368      8DD8BCDB 
 368      ED3CE4CA 
ARM GAS  C:\Users\Bruger\AppData\Local\Temp\ccLRF4Uh.s 			page 28


 368      21B72AA8 
 368      E5
 369 00dd 3EB5C486 		.ascii	">\265\304\206\304\177cLV\345\011\027[\355fN\221\217"
 369      C47F634C 
 369      56E50917 
 369      5BED664E 
 369      918F
 370 00ef 84D946E3 		.ascii	"\204\331F\343\304\352\221\251\365\3534\357\341\274\266"
 370      C4EA91A9 
 370      F5EB34EF 
 370      E1BCB6
 371 00fe 6EEF3DBD 		.ascii	"n\357=\275\021IY:\336,\014\026QH[p\330\000\016\005Q"
 371      1149593A 
 371      DE2C0C16 
 371      51485B70 
 371      D8000E05 
 372 0113 5510116A 		.ascii	"U\020\021j(\342G\270\276 mw\026\244\237\374}\213A\346"
 372      28E247B8 
 372      BE206D77 
 372      16A49FFC 
 372      7D8B41E6 
 373 0127 88D4E08C 		.ascii	"\210\324\340\214\036\327\315XB_\214\316\033IS\323#s"
 373      1ED7CD58 
 373      425F8CCE 
 373      1B4953D3 
 373      2373
 374 0139 F346782A 		.ascii	"\363Fx*2\273\244\231\306j4l$\343\011\335\014i\344\326"
 374      32BBA499 
 374      C66A346C 
 374      24E309DD 
 374      0C69E4D6 
 375 014d 8CE59598 		.ascii	"\214\345\225\230\251\377\001\034 {\323"
 375      A9FF011C 
 375      207BD3
 376              		.text
 377              		.section	.gnu.lto_Micros_Counter_ReadCompare.24c02899,"",%progbits
 378 0000 789C6366 		.ascii	"x\234cf\300\004R@\374\003\210\265\200\230\221\231\201"
 378      C0045240 
 378      FC0388B5 
 378      80989199 
 378      81
 379 0011 9169C239 		.ascii	"\221i\3029\006\206F\016&FF\020\203\201\221\241\236\211"
 379      0686460E 
 379      26464610 
 379      838191A1 
 379      9E89
 380 0023 B19EF125 		.ascii	"\261\236\361%\323G&\306\235\353\276\234\345~\301\364"
 380      D34726C6 
 380      9DEBBE9C 
 380      E57EC1F4 
 381 0033 93894181 		.ascii	"\223\211A\201\001\310\3355\351\304\0146\020\227\221"
 381      01C8DD35 
 381      E9C40C36 
 381      109791
 382 0042 05C4BD7E 		.ascii	"\005\304\275~m\306uN\365\245\015\015M\037&\375N\234"
 382      6DC6754E 
 382      F5A50D0D 
ARM GAS  C:\Users\Bruger\AppData\Local\Temp\ccLRF4Uh.s 			page 29


 382      4D1F26FD 
 382      4E9C
 383 0054 39650150 		.ascii	"9e\001P\206\211\3413\023\003\343rF)\306\025\214 \213"
 383      8689E133 
 383      1303E372 
 383      4629C615 
 383      8C208B
 384 0067 185732AA 		.ascii	"\030W2\252\203\324~l\371{\235\233\255\245\241\241A\000"
 384      83D47E6C 
 384      F97B9D9B 
 384      ADA5A1A1 
 384      4100
 385 0079 A40228B1 		.ascii	"\244\002(\261\212\221\215\021H\257\027:\320\360\377"
 385      8A918D11 
 385      48AF173A 
 385      D0F0FF
 386 0088 FFE6B7D3 		.ascii	"\377\346\267\323;\314\331\231\231\030@&0<\001b\220["
 386      3BCCD999 
 386      99184026 
 386      303C0162 
 386      905B
 387 009a 9E023940 		.ascii	"\236\0029@\232\371\026\343\241o]\367\376r\201\364|g"
 387      9AF916E3 
 387      A16F5DF7 
 387      FE7281F4 
 387      7C67
 388 00ac 0239ACFD 		.ascii	"\0029\254\375\334\326\026\260\303\230w\234jl\000\273"
 388      DCD616B0 
 388      C398779C 
 388      6A6C00BB 
 389 00bc E6FE93F3 		.ascii	"\346\376\223\363\0279\300B\014 \356\342\315\223g\363"
 389      1739C042 
 389      0C20EEE2 
 389      CD9367F3 
 390 00cc CC659CDD 		.ascii	"\314e\234\335\330\322x@\366'\023\013\343j\240\233\326"
 390      D8D27840 
 390      F627130B 
 390      E36AA09B 
 390      D6
 391 00dd 80DCC4B8 		.ascii	"\200\334\304\270\226q.#\303=\306\306\006n\250\201\014"
 391      96712E23 
 391      C33DC6C6 
 391      066EA881 
 391      0C
 392 00ee 202B1941 		.ascii	" +\031AV\001\231\032\356\251y\251E\211%\251)\361\301"
 392      5601991A 
 392      EEA979A9 
 392      458925A9 
 392      29F1C1
 393 0101 F9A545C9 		.ascii	"\371\245E\311\2511\001\301\371\316\2461\276\231\311"
 393      A93101C1 
 393      F9CEA631 
 393      BE99C9
 394 0110 45F9C5F1 		.ascii	"E\371\305\361\316\371\245y%\251Ez\311\014\000\237\332"
 394      CEF9A579 
 394      25A9457A 
 394      C90C009F 
ARM GAS  C:\Users\Bruger\AppData\Local\Temp\ccLRF4Uh.s 			page 30


 394      DA
 395 0121 6B01     		.ascii	"k\001"
 396              		.text
 397              		.section	.gnu.lto_Micros_Counter_ClearFIFO.24c02899,"",%progbits
 398 0000 789C6591 		.ascii	"x\234e\221\317+\004a\030\307\237\347ygf\307\222\344"
 398      CF2B0461 
 398      18C79FE7 
 398      796766C7 
 398      92E4
 399 0012 E81F2007 		.ascii	"\350\037 \007\007\345\340\246$'\245\\\025Zs\340`kq\336"
 399      07E5E0A6 
 399      2427A55C 
 399      155A73E0 
 399      606B71DE 
 400 0026 1926655B 		.ascii	"\031&e[R\034\224\234\344\367\357\037\271\270,\016\344"
 400      521C949C 
 400      E4F7EF1F 
 400      B9B82C0E 
 400      E4
 401 0037 E0474214 		.ascii	"\340GB\024\212]\355\036d\265\302*\326\363\316H\261S"
 401      8A5DED1E 
 401      64B5C22A 
 401      D6F3CE48 
 401      B153
 402 0049 F3BEEF7C 		.ascii	"\363\276\357|\237o\337\347\363># \373\251\341\367\011"
 402      9F6FDFE7 
 402      F33E2320 
 402      FBA9E1F7 
 402      09
 403 005a 014A7947 		.ascii	"\001JyG\015\220\206\016\001,\235Pq\017\302=l\353\012"
 403      0D90860E 
 403      012C9D50 
 403      710FC23D 
 403      6CEB0A
 404 006d 89F01E80 		.ascii	"\211\360\036\200\351Um\017\230y*\242\324\001!HBQ1H\212"
 404      E9556D0F 
 404      98792AA2 
 404      D4012148 
 404      42513148 
 405 0082 1B98A067 		.ascii	"\033\230\240g\302\241\310\374hn\361\244i\232\311\273"
 405      C2A1C8FC 
 405      686EF1A4 
 405      699AC9BB 
 406 0092 B13E618E 		.ascii	"\261>a\2164\247\011 E\256\005\247\261\030\330\365l\177"
 406      34A70920 
 406      45AE05A7 
 406      B118D8F5 
 406      6C7F
 407 00a4 5EE46A36 		.ascii	"^\344j6\273\012\334\032\316\240\306,\260\\\03013\231"
 407      BB0ADC1A 
 407      CEA0C62C 
 407      B05C1831 
 407      3399
 408 00b6 D4D3684F 		.ascii	"\324\323hO\345\240\320\004\244\031\207\027Ry\021\000"
 408      E5A0D004 
 408      A4198717 
 408      52791100 
ARM GAS  C:\Users\Bruger\AppData\Local\Temp\ccLRF4Uh.s 			page 31


 409 00c6 51F63244 		.ascii	"Q\3662D\224\2107\021c\211\311\304\025\356\274\206n\022"
 409      94883711 
 409      6389C9C4 
 409      15EEBC86 
 409      6E12
 410 00d8 E57F8223 		.ascii	"\345\177\202#\347>'5E\370\277#\316\362}\001\347P{#\205"
 410      E73E2735 
 410      45F8BF23 
 410      CEF27D01 
 410      E7507B23 
 411 00ed 6B03A19D 		.ascii	"k\003\241\235$\305)M\312\376\201e*\322~\033=:\321\035"
 411      24C5294D 
 411      CAFE8165 
 411      2AD27E1B 
 411      3D3AD11D 
 412 0101 09E4E7E3 		.ascii	"\011\344\347\343n\354\002\307q\314\032\261\3644\251"
 412      6EEC02C7 
 412      71CC1AB1 
 412      F434A9
 413 0110 388F45B8 		.ascii	"8\217E\270\200E\034\262\3102s\307\330\310SqQ\276\366"
 413      80451CB2 
 413      C83273C7 
 413      D8C85371 
 413      51BEF6
 414 0123 BD7F514E 		.ascii	"\275\177QN\357\217\351\007\206\262`\226\034\230e\011"
 414      EF8FE907 
 414      86B26096 
 414      1C986509 
 415 0133 23B8B6FB 		.ascii	"#\270\266\373p<\214\262\263\026\317\202\321\034\230"
 415      703C8CB2 
 415      B316CF82 
 415      D11C98
 416 0142 FE8FAFBB 		.ascii	"\376\217\257\273\374_\030\017\2560\314\252\003\263&"
 416      FC5F180F 
 416      AE30CCAA 
 416      03B326
 417 0151 61AEB0F7 		.ascii	"a\256\260\367\275\357\005e\2737R\335\320\265\211\311"
 417      BDEF0565 
 417      BB3752DD 
 417      D0B589C9 
 418 0161 CD1C9920 		.ascii	"\315\034\231 \252\000\327\331{\206\366eo\373\217\207"
 418      AA00D7D9 
 418      7B86F665 
 418      6FFB8F87 
 419 0171 0DD6D456 		.ascii	"\015\326\324V\330\343\0308fC\2069\227R\345\230o\320"
 419      D8E31838 
 419      66438639 
 419      9752E598 
 419      6FD0
 420 0183 8A5CDFEB 		.ascii	"\212\\\337\353\322,\325(\017\324\366\360\217(\2515:"
 420      D22CD528 
 420      0FD4F6F0 
 420      8F28A935 
 420      3A
 421 0194 8C404B97 		.ascii	"\214@K\227\321\332\324\340\357\016\370\214\306\372\006"
 421      D1DAD4E0 
 421      EF0EF88C 
ARM GAS  C:\Users\Bruger\AppData\Local\Temp\ccLRF4Uh.s 			page 32


 421      C6FA06
 422 01a3 7F754563 		.ascii	"\177uEc]\233/\340\357l\252\366wwt\031\2012\037|\003"
 422      5D9B2FE0 
 422      EF6CAAF6 
 422      77777419 
 422      81321F7C 
 423 01b8 20E5C835 		.ascii	" \345\3105"
 424              		.text
 425              		.section	.gnu.lto_.symbol_nodes.24c02899,"",%progbits
 426 0000 789C55CA 		.ascii	"x\234U\312\275\015\3020\030\204\341\363\3478q\376\343"
 426      BD0DC230 
 426      1884E1F3 
 426      E73871FE 
 426      E3
 427 0011 2CC012D4 		.ascii	",\300\022\324\254v\351\221\020\023 \330\201\021\250"
 427      AC76E991 
 427      101320D8 
 427      8111A8
 428 0020 19224AC9 		.ascii	"\031\"J\311\020DJ\343\273\346\325#\235\007pq8f\216\300"
 428      10444AE3 
 428      BBE6D523 
 428      9D077071 
 428      38668EC0 
 429 0034 FD0B9078 		.ascii	"\375\013\220x<#\314\350\304\236\226;\000/#\254\240\227"
 429      3C23CCE8 
 429      C49E963B 
 429      002F23AC 
 429      A097
 430 0046 5B60212E 		.ascii	"[`!.\031\304\025Kqd%\256\031\305\015kq\313F\334\261"
 430      19C4154B 
 430      716425AE 
 430      19C50D6B 
 430      71CB46DC 
 431 005b 15F7ECC4 		.ascii	"\025\367\354\304\003{\361\310A<q\314\355fN\207\261,"
 431      037BF1C8 
 431      413C71CC 
 431      ED664E87 
 431      B12C
 432 006d 3B135346 		.ascii	";\023SF\217\031\237\353\357\344\221\260\335\366\032"
 432      8F199FEB 
 432      EFE491B0 
 432      DDF61A
 433 007c B0BECFF8 		.ascii	"\260\276\317\370\003\327\312Rw"
 433      03D7CA52 
 433      77
 434              		.text
 435              		.section	.gnu.lto_.refs.24c02899,"",%progbits
 436 0000 789C6366 		.ascii	"x\234cf``\340d\200\000&&\006fFFf\026\006\000\001;\000"
 436      6060E064 
 436      80002626 
 436      06664646 
 436      66160600 
 437 0017 1D       		.ascii	"\035"
 438              		.text
 439              		.section	.gnu.lto_.decls.24c02899,"",%progbits
 440 0000 789C8D95 		.ascii	"x\234\215\225kL\024W\024\307\347\356]`YW\260\017\321"
 440      6B4C1457 
ARM GAS  C:\Users\Bruger\AppData\Local\Temp\ccLRF4Uh.s 			page 33


 440      14C7E7EE 
 440      5D605957 
 440      B00FD1
 441 0013 D20F4A4D 		.ascii	"\322\017JML\233Z?h\232\370\315&D\215mm\211\244\355\007"
 441      4C9B5A3F 
 441      689AF8CD 
 441      26448D6D 
 441      6D89A4ED 
 442 0028 49CC0A13 		.ascii	"I\314\012\023\273\011e\351\262$\365\333(\030\021E(\212"
 442      BB0965E9 
 442      B224F5DB 
 442      28181145 
 442      288A
 443 003a A25404C5 		.ascii	"\242T\004\305V^\272`\005aa\331\245\212(\362\024q\001"
 443      565EBA60 
 443      056161D9 
 443      A58A28F2 
 443      147101
 444 004d 95972208 		.ascii	"\225\227\"\010\312\242\326jU\266g\356\235ag\306\241"
 444      CAA2D66A 
 444      55B667EE 
 444      9D6167C6 
 444      A1
 445 005e 30C9D99D 		.ascii	"0\311\331\235\307\371\377\316\271\347\234\271\203\031"
 445      C7F9FFCE 
 445      B9E79CB9 
 445      8319
 446 006c 8689D132 		.ascii	"\206\211\3212\214\027\216-z\206\331\245a\230w\340^\004"
 446      8C178E2D 
 446      7A86D9A5 
 446      619877E0 
 446      5E04
 447 007e E33BDE05 		.ascii	"\343;\336\005+\001;\013f\003+\007\263\2039\300\234`"
 447      2B013B0B 
 447      66032B07 
 447      B38339C0 
 447      9C60
 448 0090 F5604D60 		.ascii	"\365`M`-`m`\035`\235`]`n\260\036\260\333`w\301\020\330"
 448      2D606D60 
 448      1D609D60 
 448      5D606EB0 
 448      1EB0DB60 
 449 00a8 00233F78 		.ascii	"\000#?x\366\002!f\005X\010\330\025\260a\260{`\343`c"
 449      F6022166 
 449      055808D8 
 449      15B061B0 
 449      7B60E360 
 450 00bd 60416006 		.ascii	"`A`\006\260G`\243`\217\301j\300&\300\252\004\226^\340"
 450      B04760A3 
 450      608FC16A 
 450      C026C0AA 
 450      04965EE0 
 451 00d1 F508B938 		.ascii	"\365\010\2718\204|\232\204\234\273\204<n3o\037\374\372"
 451      847C9A84 
 451      9CBB843C 
 451      6E336F1F 
 451      FCFA
ARM GAS  C:\Users\Bruger\AppData\Local\Temp\ccLRF4Uh.s 			page 34


 452 00e3 B4421E21 		.ascii	"\264B\036!\222\370\214\220\367Y\025\015_\017\235D\343"
 452      92F88C90 
 452      F759150D 
 452      5F0F9D44 
 452      E3
 453 00f4 11D63009 		.ascii	"\021\3260\011V\250``\301_\254\245Z-\312g\311\241\\%"
 453      56A86060 
 453      C15FACA5 
 453      5A2DCA67 
 453      C9A15C25 
 454 0108 07BB4453 		.ascii	"\007\273DS\241\242\261\253h\034B>j\376\016\025\177\347"
 454      A1A2B1AB 
 454      681C423E 
 454      6AFE0E15 
 454      7FE7
 455 011a FFF83B55 		.ascii	"\377\370;U\374\353g\311\251^E\303\367\310_\320\210\275"
 455      FCEB67C9 
 455      A95E45C3 
 455      F7C85FD0 
 455      88BD
 456 012c E6E740EC 		.ascii	"\346\347@\354\267\250mR\321\362\263\247S\350\370\372"
 456      B7A86D52 
 456      D1F2B3A7 
 456      53E8F8FA 
 457 013c 3D057BC2 		.ascii	"=\005{\302\370fHd\264\2500\370y\361S0\224\2726\025]"
 457      F8664864 
 457      B4A830F8 
 457      79F15330 
 457      94BA3615 
 458 0151 C71CF3EE 		.ascii	"\307\034\363\356P\321v\316!f\247\212\256k\2161\273T"
 458      50D176CE 
 458      2166A78A 
 458      AE6B8E31 
 458      BB54
 459 0163 B4EE39C4 		.ascii	"\264\3569\304t\253\350\370wJ\234\365\012\306WcQ\253"
 459      74ABE8F8 
 459      774A9CF5 
 459      0AC65763 
 459      51AB
 460 0175 9C75E93B 		.ascii	"\234u\351;\250<&5\250\352\354\263\346y#\032\024\244"
 460      A83C2635 
 460      A8EAECB3 
 460      E679231A 
 460      14A4
 461 0187 5FCA5F56 		.ascii	"_\312_Vg6f\373\303\245A\257\345/\355\257\006;\265\213"
 461      673666FB 
 461      C3A541AF 
 461      E52FEDAF 
 461      063BB58B 
 462 019b B2383832 		.ascii	"\262882\222\270\005Z\024\021\202\376@\241\350\014\012"
 462      92B8055A 
 462      141182FE 
 462      40A1E80C 
 462      0A
 463 01ac 850C0BD1 		.ascii	"\205\014\013\321\"\370\335\242\245\244\321SY\005z\254"
 463      22F8DDA2 
 463      A5A4D153 
ARM GAS  C:\Users\Bruger\AppData\Local\Temp\ccLRF4Uh.s 			page 35


 463      59057AAC 
 464 01bc 41FCF9A9 		.ascii	"A\374\371\251\354\201N\375\212\"\220\245pN\217\306\027"
 464      EC814EFD 
 464      8A2290A5 
 464      704E8FC6 
 464      17
 465 01cd 8E739F1C 		.ascii	"\216s\237\034\324,\315\345\372m\236\332c\335\006\256"
 465      D42CCDE5 
 465      FA6D9EDA 
 465      63DD06AE 
 466 01dd 91737ABD 		.ascii	"\221sz\275k\011\012\025!\214\212\321\012\262x8\247U"
 466      6B090A15 
 466      218C8AD1 
 466      0AB27838 
 466      A755
 467 01ef 28414B41 		.ascii	"(AKA\326<Q7\032\210\327\023v\345\361\221\326@\202\310"
 467      D63C5137 
 467      1A88D713 
 467      76E5F191 
 467      D64082C8 
 468 0203 3B71DA9F 		.ascii	";q\332\237\000\3528D\010\245\022B\251H8K\010{\317\247"
 468      00EA3844 
 468      08A51242 
 468      A948384B 
 468      087BCFA7 
 469 0217 0C631C45 		.ascii	"\014c\034E\010N[\372\231\000 \344\331\362\036\012\204"
 469      084E5BFA 
 469      990020E4 
 469      D9F21E0A 
 469      84
 470 0228 B5447F4E 		.ascii	"\265D\177N\242?'\352mD\357~:\364*\020\377L\364w\332"
 470      A23F27EA 
 470      6D44EF7E 
 470      3AF42A10 
 470      FF4CF477 
 471 023d 9D254154 		.ascii	"\235%AT\177\346\017\251\276L\242/\023\365\345D\337U"
 471      7FE60FA9 
 471      BE4CA22F 
 471      13F5E544 
 471      DF55
 472 024f B7678F0E 		.ascii	"\267g\217\016\357F\004\260\363w\373\376\000\250r\210"
 472      EF4604B0 
 472      F377FBFE 
 472      00A87288 
 473 025f 9E14E540 		.ascii	"\236\024\345@\3231\027&\227^\376\261\246\273\373\320"
 473      D3311726 
 473      975EFEB1 
 473      A6BBFBD0 
 474 026f 4B8CF4CB 		.ascii	"K\214\364\313S8n\027\347\311\344\360b\006\255\010E\237"
 474      53386E17 
 474      E7C9E4F0 
 474      6206AD08 
 474      459F
 475 0281 8432A812 		.ascii	"\2042\250\022-\0077\022\004\375\011\215\270\000\215"
 475      2D073712 
 475      04FD098D 
 475      B8008D
ARM GAS  C:\Users\Bruger\AppData\Local\Temp\ccLRF4Uh.s 			page 36


 476 0290 2880327B 		.ascii	"(\2002{rv;\276L\342\276@\025H\217\316O\247A\"\010\245"
 476      72763BBE 
 476      4CE2BE40 
 476      15488FCE 
 476      4FA74122 
 477 02a6 CFD8EDCA 		.ascii	"\317\330\355\312\320j\241\027\304g\013\351\357\337\336"
 477      D06AA117 
 477      C4670BE9 
 477      EFDFDE
 478 02b5 81D39A19 		.ascii	"\201\323\232\031\373[E\372{\021\011\015\276\177\341"
 478      FB5B45FA 
 478      7B11090D 
 478      BE7FE1
 479 02c4 DFEA005C 		.ascii	"\337\352\000\\J\227\220\234\337\326\032 4\262:\035\037"
 479      4A97909C 
 479      DFD61A20 
 479      34B23A1D 
 479      1F
 480 02d5 E5F27671 		.ascii	"\345\362vqS^/\322\360*T-)D\265X\010;mD\262\015K#\362"
 480      535E2FD2 
 480      F02A542D 
 480      2944B558 
 480      083B6D44 
 481 02ee C9F842D6 		.ascii	"\311\370B\326\310Fj\304Y\231\244\303\3154b\345T\352"
 481      C8466AC4 
 481      5999A4C3 
 481      CD3462E5 
 481      54EA
 482 0300 411D89D8 		.ascii	"A\035\211\330\237V\330 \214\016t\236\210P\255$b\255"
 482      9F56D820 
 482      8C0E749E 
 482      8850AD24 
 482      62AD
 483 0312 18D14122 		.ascii	"\030\321A\"\346\344\215^\322\340\011Jy\263\367\306\257"
 483      E6E48D5E 
 483      D2E0094A 
 483      79B3F7C6 
 483      AF
 484 0323 06DA3B7B 		.ascii	"\006\332;{\241\330;\036P'\001\324\211\000'\001\024\237"
 484      A1D83B1E 
 484      502701D4 
 484      89002701 
 484      149F
 485 0335 9B6A33E0 		.ascii	"\233j3\340L:\332']\327\316k)`d\032\300\257\331%\001"
 485      4C3ADA27 
 485      5DD7CE6B 
 485      2960641A 
 485      C0AFD925 
 486 034a B844403D 		.ascii	"\270D@=\001\014\270o\325\004\340\012\215\254\371a\264"
 486      010CB86F 
 486      D504E00A 
 486      8DACF961 
 486      B4
 487 035b F97D392F 		.ascii	"\371}9/\013\002\311%\377\365\017\346\373o\257\317l\327"
 487      0B02C925 
 487      FFF50FE6 
 487      FB6FAFCF 
ARM GAS  C:\Users\Bruger\AppData\Local\Temp\ccLRF4Uh.s 			page 37


 487      6CD7
 488 036d A3E57ADA 		.ascii	"\243\345z\332\330\313\264\261W\240N\177\371\032\033"
 488      D8CBB4B1 
 488      57A04E7F 
 488      F91A1B
 489 037c 263496CC 		.ascii	"&4\226\314\010T2\2601\210\231\256#j\2001\011\023\306"
 489      085432B0 
 489      318899AE 
 489      236A8031 
 489      0913C6
 490 038f E412DCBC 		.ascii	"\344\022\334\274\0147!\326\261\243\335\034\"#pez\004"
 490      0C3721D6 
 490      B1A3DD1C 
 490      22237065 
 490      7A04
 491 03a1 46DA6A3E 		.ascii	"F\332j>\233q\002\256\222v4\212\023\360\246\270\277\030"
 491      9B7102AE 
 491      9276348A 
 491      13F0A6B8 
 491      BF18
 492 03b3 E35ABA8E 		.ascii	"\343Z\272\216\334\261\216F$L\300o\207\245\023\000*t"
 492      DCB18E46 
 492      244CC06F 
 492      87A51300 
 492      2A74
 493 03c5 4D528D6B 		.ascii	"MR\215kb5\232H5J\312\263\206eCwE6\002\327e#PUp>'\030"
 493      62359A48 
 493      354ACAB3 
 493      86654377 
 493      453602D7 
 494 03e1 77D3908D 		.ascii	"w\323\220\215N\367~\372\342\3667\357k\360\355\036 A"
 494      4EF77EFA 
 494      E2F637EF 
 494      6BF0ED1E 
 494      2041
 495 03f3 CD9280CD 		.ascii	"\315\222\200\315b\300\026\022\260\252\370\326\032\374"
 495      62C01612 
 495      B0AAF8D6 
 495      1AFC
 496 0401 8C227639 		.ascii	"\214\"v9\356\015\321\015(\357@\251o\367\340\011\255"
 496      EE0DD10D 
 496      28EF40A9 
 496      6FF7E009 
 496      AD
 497 0412 1242AB48 		.ascii	"\022B\253Hh#\2044{\332q\177\234\216\011b_\311\213\214"
 497      68238434 
 497      7BDA717F 
 497      9C8E0962 
 497      5FC98B8C 
 498 0426 797410EB 		.ascii	"yt\020\353\232Yg2\367\332\353M\322\221b\241v\011\243"
 498      9A596732 
 498      F7DAEB4D 
 498      D29162A1 
 498      7609A3
 499 0439 5D647410 		.ascii	"]dt\020\306\270\3135\211q\021e\024\035~\340\325\320"
 499      C6B8CB35 
 499      89711165 
ARM GAS  C:\Users\Bruger\AppData\Local\Temp\ccLRF4Uh.s 			page 38


 499      141D7EE0 
 499      D5D0
 500 044b 953C4E53 		.ascii	"\225<NS\254\344\206\204qCdt\022\206\255\241*\327\017"
 500      ACE48684 
 500      71436474 
 500      1286ADA1 
 500      2AD70F
 501 045e 5FA28CD2 		.ascii	"_\242\214\322\311\344Oi\032\205\255\2124nJ\0207ED\027"
 501      C9E44F69 
 501      1A85AD8A 
 501      346E4A10 
 501      37454417 
 502 0472 41704D3D 		.ascii	"ApM=^\204\373)\242\341\376\221\013BA\273\323\025i\334"
 502      5E84FB29 
 502      A2E1FE91 
 502      0B4241BB 
 502      D31569DC 
 503 0486 92306E89 		.ascii	"\2220n\211\0147ax\312\247\306\002\360+\312h\352\355"
 503      0C376178 
 503      CAA7C602 
 503      F02BCA68 
 503      EAED
 504 0498 2BC6348F 		.ascii	"+\3064\217\273en\351{\311o\211\335\022J\267H\351\241"
 504      BB656EE9 
 504      7BC96F89 
 504      DD124AB7 
 504      48E9A1
 505 04ab 05292DB3 		.ascii	"\005)-\263\315\303\207\264\364\213\221Q\323\353\317"
 505      CDC387B4 
 505      F48B9151 
 505      D3EBCF
 506 04ba 53385B4F 		.ascii	"S8[O\331\353\340\243\\>\235&\262\013\241^\011\245W\244"
 506      D9EBE0A3 
 506      5C3E9D26 
 506      B20BA15E 
 506      09A557A4 
 507 04ce DC2694D6 		.ascii	"\334&\224\326\207\317\217\352\3615J\351+>\035K \375"
 507      87CF8FEA 
 507      F1354AE9 
 507      2B3E1D4B 
 507      20FD
 508 04e0 53436C3D 		.ascii	"SCl=)\011\246\373\303\035\011\341\216H\270K\010\347"
 508      2909A6FB 
 508      C31D09E1 
 508      8E48B84B 
 508      08E7
 509 04f2 8E1F7C1D 		.ascii	"\216\037|\035\200\007(a\252\327V\311\177\000a[\"\363"
 509      80072861 
 509      AAD756C9 
 509      7F00615B 
 509      22F3
 510 0504 E7982A0B 		.ascii	"\347\230*\013[\226\317\345\235\264\325\366D9wr$)\262"
 510      5B96CFE5 
 510      9DB4D5F6 
 510      44397772 
 510      2429B2
 511 0517 69F551A2 		.ascii	"i\365Q\242\26033\3745\374\366\363\257\337\000Z\306W"
ARM GAS  C:\Users\Bruger\AppData\Local\Temp\ccLRF4Uh.s 			page 39


 511      B03333FC 
 511      35FCF6F3 
 511      AFDF005A 
 511      C657
 512 0529 FAC8BE02 		.ascii	"\372\310\276\002\035~A\271\027\236\247V\315\327\303"
 512      1D7E41B9 
 512      179EA756 
 512      CDD7C3
 513 0538 DB9A3487 		.ascii	"\333\2324\207\035\035\366\200\316\226\324\256@\372\015"
 513      1D1DF680 
 513      CE96D4AE 
 513      40FA0D
 514 0547 502AEECF 		.ascii	"P*\356\317\370\015\270\374\344\253d\330*\356Av\203\276"
 514      F80DB8FC 
 514      E4AB64D8 
 514      2AEE4176 
 514      83BE
 515 0559 AD6208F9 		.ascii	"\255b\010\371>\002{\007\2175\033\014\251\276M\2038\373"
 515      3E027B07 
 515      8F351B0C 
 515      A9BE4D83 
 515      38FB
 516 056b 5EBE6164 		.ascii	"^\276ad \225\201\177\360N\311\254\030\363\303o\350\012"
 516      2095817F 
 516      F04EC9AC 
 516      18F3C36F 
 516      E80A
 517 057d 3AB2264F 		.ascii	":\262&O\350\350\012\346\270\337h\366\275\030\231\014"
 517      E8E80AE6 
 517      B8DF68F6 
 517      BD18990C 
 518 058d 1217F196 		.ascii	"\022\027\361\226\350\241\212\210_G\336\365`\204F!\255"
 518      E8A18A88 
 518      5F47DEF5 
 518      60844621 
 518      AD
 519 059e 07BE358C 		.ascii	"\007\2765\214H\326\220\364OS{\200\230H\312\354L\220"
 519      48D690F4 
 519      4F537B80 
 519      9848CAEC 
 519      4C90
 520 05b0 74D63E2F 		.ascii	"t\326>/\325\312\226=&[\366\270\260\354q\262\354\213"
 520      D5CA963D 
 520      265BF6B8 
 520      B0EC71B2 
 520      EC8B
 521 05c2 57CB0635 		.ascii	"W\313\00652\357Q\231\367#\301\373\021\361~\221?0\034"
 521      32EF5199 
 521      F723C1FB 
 521      11F17E91 
 521      3F301C
 522 05d5 2CF3E6E7 		.ascii	",\363\346\347\315\347\375X\360~L\27432s\034\2012\357"
 522      CDE7FD58 
 522      F07E4CBC 
 522      3332731C 
 522      8132EF
 523 05e8 2A99F784 		.ascii	"*\231\367\204\340=A\274\217\344z^\311\275\345\237K\217"
ARM GAS  C:\Users\Bruger\AppData\Local\Temp\ccLRF4Uh.s 			page 40


 523      E03D41BC 
 523      8FE47A5E 
 523      C9BDE59F 
 523      4B8F
 524 05fa E0ED21DE 		.ascii	"\340\355!\336w\263\235\251\362U\026\312\330\223\310"
 524      77B39DA9 
 524      F25516CA 
 524      D893C8
 525 0609 20D67392 		.ascii	" \326s\222\010\0062\032j\002\305\241L\231e\304\300\337"
 525      0806321A 
 525      6A02C5A1 
 525      4C9965C4 
 525      C0DF
 526 061b 957DB068 		.ascii	"\225}\260h\276,\300\023Y:O\205t\370\377\3676\231\242"
 526      BE2CC013 
 526      593A4F85 
 526      74F8FFF7 
 526      3699A2
 527 062e 2DE684AD 		.ascii	"-\346\204\255\341\346\3048+k\331\2721\316d\365\337\360"
 527      E1E6C438 
 527      2B6BD9BA 
 527      31CE64F5 
 527      DFF0
 528 0640 CD774BC3 		.ascii	"\315wK\303\231\2177\260q\254\305hec\266F\232\023-\321"
 528      998F37B0 
 528      71ACC568 
 528      6563B646 
 528      9A132DD1 
 529 0654 6C5444A4 		.ascii	"lTD\2449\374\363(\271be4\263P\301X\027g\334\026\313"
 529      39FCF328 
 529      B9626534 
 529      B350C158 
 529      1767DC16 
 530 0669 BEAFB81B 		.ascii	"\276\257\270\033i5Z\254\312p\221Vs\274_\242)\316\272"
 530      69355AAC 
 530      CA709156 
 530      73BC5FA2 
 530      29CEBA
 531 067c 266C8668 		.ascii	"&l\206h\321;\254;\342\331\204\225?2K\224Z\326\272\221"
 531      D13BAC3B 
 531      E2D98495 
 531      3F324B94 
 531      5AD6BA91 
 532 0690 3FB124C6 		.ascii	"?\261$\306[7\231c\3300\305\363\315\2541\006\202Z\023"
 532      5B379963 
 532      D830C5F3 
 532      CDAC3106 
 532      825A13
 533 06a3 1336B3DB 		.ascii	"\0236\263\333M\011p\353#\025\217ps\234\325b\216\025"
 533      4D0970EB 
 533      23158F70 
 533      739CD562 
 533      8E15
 534 06b5 5D96295C 		.ascii	"]\226)\\~\260\230\254\254\302\307\237Ox\365\252\017"
 534      7EB098AC 
 534      ACC2C79F 
 534      4F78F5AA 
ARM GAS  C:\Users\Bruger\AppData\Local\Temp\ccLRF4Uh.s 			page 41


 534      0F
 535 06c6 D55DC945 		.ascii	"\325]\311E\250j\244\231\037\031\343\255\211\026V\371"
 535      A86AA499 
 535      1F19E3AD 
 535      891656F9 
 536 06d6 88102358 		.ascii	"\210\020#X\213\311\034\363\201\212\212>\231!\215\237"
 536      8BC91CF3 
 536      818A8A3E 
 536      99218D9F 
 537 06e6 E28D6F03 		.ascii	"\342\215o\003i\032\344\321b\305\243\360X\326hY\277q"
 537      691AE4D1 
 537      62C5A3F0 
 537      58D66859 
 537      BF71
 538 06f8 FDB70BC3 		.ascii	"\375\267\013\303w\254\373\305d\015\007\214)\332\030"
 538      77ACFBC5 
 538      640D078C 
 538      29DA18
 539 0707 1BC9465B 		.ascii	"\033\311F[M\346\270%3\264'|\307\327\246m\320\234\020"
 539      4DE6B825 
 539      33B4277C 
 539      C7D7A66D 
 539      D09C10
 540 071a 50F11C85 		.ascii	"P\361\034\205,D\021\305\004\343\365\275\321\242\265"
 540      2C4411C5 
 540      04E3F5BD 
 540      D1A2B5
 541 0729 B0DBD7F8 		.ascii	"\260\333\327\370\301\317\352U\377\001!p\243t"
 541      C1CFEA55 
 541      FF012170 
 541      A374
 542              		.text
 543              		.section	.gnu.lto_.symtab.24c02899,"",%progbits
 544 0000 4D696372 		.ascii	"Micros_Counter_Init\000\000\000\000\000\000\000\000"
 544      6F735F43 
 544      6F756E74 
 544      65725F49 
 544      6E697400 
 545 001b 00000000 		.ascii	"\000\000\000\000\254\000\000\000Micros_Counter_Enab"
 545      AC000000 
 545      4D696372 
 545      6F735F43 
 545      6F756E74 
 546 0036 6C650000 		.ascii	"le\000\000\000\000\000\000\000\000\000\000\000\000\256"
 546      00000000 
 546      00000000 
 546      0000AE
 547 0045 0000004D 		.ascii	"\000\000\000Micros_Counter_Start\000\000\000\000\000"
 547      6963726F 
 547      735F436F 
 547      756E7465 
 547      725F5374 
 548 0061 00000000 		.ascii	"\000\000\000\000\000\000\000\260\000\000\000Micros_"
 548      000000B0 
 548      0000004D 
 548      6963726F 
 548      735F
ARM GAS  C:\Users\Bruger\AppData\Local\Temp\ccLRF4Uh.s 			page 42


 549 0073 436F756E 		.ascii	"Counter_initVar\000\000\000\000\000\000\000\000\000"
 549      7465725F 
 549      696E6974 
 549      56617200 
 549      00000000 
 550 008b 000000E1 		.ascii	"\000\000\000\341\000\000\000Micros_Counter_Stop\000"
 550      0000004D 
 550      6963726F 
 550      735F436F 
 550      756E7465 
 551 00a6 00000000 		.ascii	"\000\000\000\000\000\000\000\000\000\000\000\262\000"
 551      00000000 
 551      000000B2 
 551      00
 552 00b3 00004D69 		.ascii	"\000\000Micros_Counter_SetInterruptMode\000\000\000"
 552      63726F73 
 552      5F436F75 
 552      6E746572 
 552      5F536574 
 553 00d7 00000000 		.ascii	"\000\000\000\000\000\000\000\000\000\273\000\000\000"
 553      00000000 
 553      00BB0000 
 553      00
 554 00e4 4D696372 		.ascii	"Micros_Counter_ReadStatusRegister\000\000\000\000\000"
 554      6F735F43 
 554      6F756E74 
 554      65725F52 
 554      65616453 
 555 010a 00000000 		.ascii	"\000\000\000\000\000\000\000\276\000\000\000Micros_"
 555      000000BE 
 555      0000004D 
 555      6963726F 
 555      735F
 556 011c 436F756E 		.ascii	"Counter_ReadControlRegister\000\000\000\000\000\000"
 556      7465725F 
 556      52656164 
 556      436F6E74 
 556      726F6C52 
 557 013d 00000000 		.ascii	"\000\000\000\000\000\000\300\000\000\000Micros_Coun"
 557      0000C000 
 557      00004D69 
 557      63726F73 
 557      5F436F75 
 558 0152 7465725F 		.ascii	"ter_WriteControlRegister\000\000\000\000\000\000\000"
 558      57726974 
 558      65436F6E 
 558      74726F6C 
 558      52656769 
 559 0171 00000000 		.ascii	"\000\000\000\000\000\302\000\000\000Micros_Counter_"
 559      00C20000 
 559      004D6963 
 559      726F735F 
 559      436F756E 
 560 0189 57726974 		.ascii	"WriteCounter\000\000\000\000\000\000\000\000\000\000"
 560      65436F75 
 560      6E746572 
 560      00000000 
ARM GAS  C:\Users\Bruger\AppData\Local\Temp\ccLRF4Uh.s 			page 43


 560      00000000 
 561 019f 0000CB00 		.ascii	"\000\000\313\000\000\000Micros_Counter_ReadCounter\000"
 561      00004D69 
 561      63726F73 
 561      5F436F75 
 561      6E746572 
 562 01c0 00000000 		.ascii	"\000\000\000\000\000\000\000\000\000\000\000\316\000"
 562      00000000 
 562      000000CE 
 562      00
 563 01cd 00004D69 		.ascii	"\000\000Micros_Counter_ReadCapture\000\000\000\000\000"
 563      63726F73 
 563      5F436F75 
 563      6E746572 
 563      5F526561 
 564 01ee 00000000 		.ascii	"\000\000\000\000\000\000\000\320\000\000\000Micros_"
 564      000000D0 
 564      0000004D 
 564      6963726F 
 564      735F
 565 0200 436F756E 		.ascii	"Counter_WritePeriod\000\000\000\000\000\000\000\000"
 565      7465725F 
 565      57726974 
 565      65506572 
 565      696F6400 
 566 021b 00000000 		.ascii	"\000\000\000\000\322\000\000\000Micros_Counter_Read"
 566      D2000000 
 566      4D696372 
 566      6F735F43 
 566      6F756E74 
 567 0236 50657269 		.ascii	"Period\000\000\000\000\000\000\000\000\000\000\000\000"
 567      6F640000 
 567      00000000 
 567      00000000 
 567      0000
 568 0248 D4000000 		.ascii	"\324\000\000\000Micros_Counter_WriteCompare\000\000"
 568      4D696372 
 568      6F735F43 
 568      6F756E74 
 568      65725F57 
 569 0269 00000000 		.ascii	"\000\000\000\000\000\000\000\000\000\000\326\000\000"
 569      00000000 
 569      0000D600 
 569      00
 570 0276 004D6963 		.ascii	"\000Micros_Counter_ReadCompare\000\000\000\000\000\000"
 570      726F735F 
 570      436F756E 
 570      7465725F 
 570      52656164 
 571 0297 00000000 		.ascii	"\000\000\000\000\000\000\330\000\000\000Micros_Coun"
 571      0000D800 
 571      00004D69 
 571      63726F73 
 571      5F436F75 
 572 02ac 7465725F 		.ascii	"ter_ClearFIFO\000\000\000\000\000\000\000\000\000\000"
 572      436C6561 
 572      72464946 
ARM GAS  C:\Users\Bruger\AppData\Local\Temp\ccLRF4Uh.s 			page 44


 572      4F000000 
 572      00000000 
 573 02c3 0000DA00 		.ascii	"\000\000\332\000\000\000CyExitCriticalSection\000\000"
 573      00004379 
 573      45786974 
 573      43726974 
 573      6963616C 
 574 02e0 02000000 		.ascii	"\002\000\000\000\000\000\000\000\000\000\334\000\000"
 574      00000000 
 574      0000DC00 
 574      00
 575 02ed 00437945 		.ascii	"\000CyEnterCriticalSection\000\000\002\000\000\000\000"
 575      6E746572 
 575      43726974 
 575      6963616C 
 575      53656374 
 576 030b 00000000 		.ascii	"\000\000\000\000\000\336\000\000\000"
 576      00DE0000 
 576      00
 577              		.text
 578              		.section	.gnu.lto_.opts,"",%progbits
 579 0000 272D666E 		.ascii	"'-fno-trapv' '-mcpu=cortex-m3' '-mthumb' '-g' '-O3'"
 579      6F2D7472 
 579      61707627 
 579      20272D6D 
 579      6370753D 
 580 0033 20272D66 		.ascii	" '-ffunction-sections' '-finline-functions' '-flto'"
 580      66756E63 
 580      74696F6E 
 580      2D736563 
 580      74696F6E 
 581 0066 20272D66 		.ascii	" '-ffat-lto-objects'\000"
 581      6661742D 
 581      6C746F2D 
 581      6F626A65 
 581      63747327 
 582              		.text
 583              		.cfi_sections	.debug_frame
 584              		.section	.text.Micros_Counter_Init,"ax",%progbits
 585              		.align	2
 586              		.global	Micros_Counter_Init
 587              		.thumb
 588              		.thumb_func
 589              		.type	Micros_Counter_Init, %function
 590              	Micros_Counter_Init:
 591              	.LFB0:
 592              		.file 1 "Generated_Source\\PSoC5\\Micros_Counter.c"
   1:Generated_Source\PSoC5/Micros_Counter.c **** /*******************************************************************************
   2:Generated_Source\PSoC5/Micros_Counter.c **** * File Name: Micros_Counter.c  
   3:Generated_Source\PSoC5/Micros_Counter.c **** * Version 3.0
   4:Generated_Source\PSoC5/Micros_Counter.c **** *
   5:Generated_Source\PSoC5/Micros_Counter.c **** *  Description:
   6:Generated_Source\PSoC5/Micros_Counter.c **** *     The Counter component consists of a 8, 16, 24 or 32-bit counter with
   7:Generated_Source\PSoC5/Micros_Counter.c **** *     a selectable period between 2 and 2^Width - 1.  
   8:Generated_Source\PSoC5/Micros_Counter.c **** *
   9:Generated_Source\PSoC5/Micros_Counter.c **** *   Note:
  10:Generated_Source\PSoC5/Micros_Counter.c **** *     None
ARM GAS  C:\Users\Bruger\AppData\Local\Temp\ccLRF4Uh.s 			page 45


  11:Generated_Source\PSoC5/Micros_Counter.c **** *
  12:Generated_Source\PSoC5/Micros_Counter.c **** ********************************************************************************
  13:Generated_Source\PSoC5/Micros_Counter.c **** * Copyright 2008-2012, Cypress Semiconductor Corporation.  All rights reserved.
  14:Generated_Source\PSoC5/Micros_Counter.c **** * You may use this file only in accordance with the license, terms, conditions, 
  15:Generated_Source\PSoC5/Micros_Counter.c **** * disclaimers, and limitations in the end user license agreement accompanying 
  16:Generated_Source\PSoC5/Micros_Counter.c **** * the software package with which this file was provided.
  17:Generated_Source\PSoC5/Micros_Counter.c **** *******************************************************************************/
  18:Generated_Source\PSoC5/Micros_Counter.c **** 
  19:Generated_Source\PSoC5/Micros_Counter.c **** #include "Micros_Counter.h"
  20:Generated_Source\PSoC5/Micros_Counter.c **** 
  21:Generated_Source\PSoC5/Micros_Counter.c **** uint8 Micros_Counter_initVar = 0u;
  22:Generated_Source\PSoC5/Micros_Counter.c **** 
  23:Generated_Source\PSoC5/Micros_Counter.c **** 
  24:Generated_Source\PSoC5/Micros_Counter.c **** /*******************************************************************************
  25:Generated_Source\PSoC5/Micros_Counter.c **** * Function Name: Micros_Counter_Init
  26:Generated_Source\PSoC5/Micros_Counter.c **** ********************************************************************************
  27:Generated_Source\PSoC5/Micros_Counter.c **** * Summary:
  28:Generated_Source\PSoC5/Micros_Counter.c **** *     Initialize to the schematic state
  29:Generated_Source\PSoC5/Micros_Counter.c **** * 
  30:Generated_Source\PSoC5/Micros_Counter.c **** * Parameters:  
  31:Generated_Source\PSoC5/Micros_Counter.c **** *  void  
  32:Generated_Source\PSoC5/Micros_Counter.c **** *
  33:Generated_Source\PSoC5/Micros_Counter.c **** * Return: 
  34:Generated_Source\PSoC5/Micros_Counter.c **** *  void
  35:Generated_Source\PSoC5/Micros_Counter.c **** *
  36:Generated_Source\PSoC5/Micros_Counter.c **** *******************************************************************************/
  37:Generated_Source\PSoC5/Micros_Counter.c **** void Micros_Counter_Init(void) 
  38:Generated_Source\PSoC5/Micros_Counter.c **** {
 593              		.loc 1 38 0
 594              		.cfi_startproc
 595              		@ args = 0, pretend = 0, frame = 0
 596              		@ frame_needed = 0, uses_anonymous_args = 0
 597 0000 70B5     		push	{r4, r5, r6, lr}
 598              		.cfi_def_cfa_offset 16
 599              		.cfi_offset 4, -16
 600              		.cfi_offset 5, -12
 601              		.cfi_offset 6, -8
 602              		.cfi_offset 14, -4
  39:Generated_Source\PSoC5/Micros_Counter.c ****         #if (!Micros_Counter_UsingFixedFunction && !Micros_Counter_ControlRegRemoved)
  40:Generated_Source\PSoC5/Micros_Counter.c ****             uint8 ctrl;
  41:Generated_Source\PSoC5/Micros_Counter.c ****         #endif /* (!Micros_Counter_UsingFixedFunction && !Micros_Counter_ControlRegRemoved) */
  42:Generated_Source\PSoC5/Micros_Counter.c ****         
  43:Generated_Source\PSoC5/Micros_Counter.c ****         #if(!Micros_Counter_UsingFixedFunction) 
  44:Generated_Source\PSoC5/Micros_Counter.c ****             /* Interrupt State Backup for Critical Region*/
  45:Generated_Source\PSoC5/Micros_Counter.c ****             uint8 Micros_Counter_interruptState;
  46:Generated_Source\PSoC5/Micros_Counter.c ****         #endif /* (!Micros_Counter_UsingFixedFunction) */
  47:Generated_Source\PSoC5/Micros_Counter.c ****         
  48:Generated_Source\PSoC5/Micros_Counter.c ****         #if (Micros_Counter_UsingFixedFunction)
  49:Generated_Source\PSoC5/Micros_Counter.c ****             /* Clear all bits but the enable bit (if it's already set for Timer operation */
  50:Generated_Source\PSoC5/Micros_Counter.c ****             Micros_Counter_CONTROL &= Micros_Counter_CTRL_ENABLE;
  51:Generated_Source\PSoC5/Micros_Counter.c ****             
  52:Generated_Source\PSoC5/Micros_Counter.c ****             /* Clear the mode bits for continuous run mode */
  53:Generated_Source\PSoC5/Micros_Counter.c ****             #if (CY_PSOC5A)
  54:Generated_Source\PSoC5/Micros_Counter.c ****                 Micros_Counter_CONTROL2 &= ((uint8)(~Micros_Counter_CTRL_MODE_MASK));
  55:Generated_Source\PSoC5/Micros_Counter.c ****             #endif /* (CY_PSOC5A) */
  56:Generated_Source\PSoC5/Micros_Counter.c ****             #if (CY_PSOC3 || CY_PSOC5LP)
  57:Generated_Source\PSoC5/Micros_Counter.c ****                 Micros_Counter_CONTROL3 &= ((uint8)(~Micros_Counter_CTRL_MODE_MASK));              
ARM GAS  C:\Users\Bruger\AppData\Local\Temp\ccLRF4Uh.s 			page 46


  58:Generated_Source\PSoC5/Micros_Counter.c ****             #endif /* (CY_PSOC3 || CY_PSOC5LP) */
  59:Generated_Source\PSoC5/Micros_Counter.c ****             /* Check if One Shot mode is enabled i.e. RunMode !=0*/
  60:Generated_Source\PSoC5/Micros_Counter.c ****             #if (Micros_Counter_RunModeUsed != 0x0u)
  61:Generated_Source\PSoC5/Micros_Counter.c ****                 /* Set 3rd bit of Control register to enable one shot mode */
  62:Generated_Source\PSoC5/Micros_Counter.c ****                 Micros_Counter_CONTROL |= Micros_Counter_ONESHOT;
  63:Generated_Source\PSoC5/Micros_Counter.c ****             #endif /* (Micros_Counter_RunModeUsed != 0x0u) */
  64:Generated_Source\PSoC5/Micros_Counter.c ****             
  65:Generated_Source\PSoC5/Micros_Counter.c ****             /* Set the IRQ to use the status register interrupts */
  66:Generated_Source\PSoC5/Micros_Counter.c ****             Micros_Counter_CONTROL2 |= Micros_Counter_CTRL2_IRQ_SEL;
  67:Generated_Source\PSoC5/Micros_Counter.c ****             
  68:Generated_Source\PSoC5/Micros_Counter.c ****             /* Clear and Set SYNCTC and SYNCCMP bits of RT1 register */
  69:Generated_Source\PSoC5/Micros_Counter.c ****             Micros_Counter_RT1 &= ((uint8)(~Micros_Counter_RT1_MASK));
  70:Generated_Source\PSoC5/Micros_Counter.c ****             Micros_Counter_RT1 |= Micros_Counter_SYNC;     
  71:Generated_Source\PSoC5/Micros_Counter.c ****                     
  72:Generated_Source\PSoC5/Micros_Counter.c ****             /*Enable DSI Sync all all inputs of the Timer*/
  73:Generated_Source\PSoC5/Micros_Counter.c ****             Micros_Counter_RT1 &= ((uint8)(~Micros_Counter_SYNCDSI_MASK));
  74:Generated_Source\PSoC5/Micros_Counter.c ****             Micros_Counter_RT1 |= Micros_Counter_SYNCDSI_EN;
  75:Generated_Source\PSoC5/Micros_Counter.c **** 
  76:Generated_Source\PSoC5/Micros_Counter.c ****         #else
  77:Generated_Source\PSoC5/Micros_Counter.c ****             #if(!Micros_Counter_ControlRegRemoved)
  78:Generated_Source\PSoC5/Micros_Counter.c ****             /* Set the default compare mode defined in the parameter */
  79:Generated_Source\PSoC5/Micros_Counter.c ****             ctrl = Micros_Counter_CONTROL & ((uint8)(~Micros_Counter_CTRL_CMPMODE_MASK));
 603              		.loc 1 79 0
 604 0002 154B     		ldr	r3, .L11
 605              	.LBB40:
 606              	.LBB41:
 607              	.LBB42:
 608              	.LBB43:
  80:Generated_Source\PSoC5/Micros_Counter.c ****             Micros_Counter_CONTROL = ctrl | Micros_Counter_DEFAULT_COMPARE_MODE;
  81:Generated_Source\PSoC5/Micros_Counter.c ****             
  82:Generated_Source\PSoC5/Micros_Counter.c ****             /* Set the default capture mode defined in the parameter */
  83:Generated_Source\PSoC5/Micros_Counter.c ****             ctrl = Micros_Counter_CONTROL & ((uint8)(~Micros_Counter_CTRL_CAPMODE_MASK));
  84:Generated_Source\PSoC5/Micros_Counter.c ****             
  85:Generated_Source\PSoC5/Micros_Counter.c ****             #if( 0 != Micros_Counter_CAPTURE_MODE_CONF)
  86:Generated_Source\PSoC5/Micros_Counter.c ****                 Micros_Counter_CONTROL = ctrl | Micros_Counter_DEFAULT_CAPTURE_MODE;
  87:Generated_Source\PSoC5/Micros_Counter.c ****             #else
  88:Generated_Source\PSoC5/Micros_Counter.c ****                 Micros_Counter_CONTROL = ctrl;
  89:Generated_Source\PSoC5/Micros_Counter.c ****             #endif /* 0 != Micros_Counter_CAPTURE_MODE */ 
  90:Generated_Source\PSoC5/Micros_Counter.c ****             
  91:Generated_Source\PSoC5/Micros_Counter.c ****             #endif /* (!Micros_Counter_ControlRegRemoved) */
  92:Generated_Source\PSoC5/Micros_Counter.c ****         #endif /* (Micros_Counter_UsingFixedFunction) */
  93:Generated_Source\PSoC5/Micros_Counter.c ****         
  94:Generated_Source\PSoC5/Micros_Counter.c ****         /* Clear all data in the FIFO's */
  95:Generated_Source\PSoC5/Micros_Counter.c ****         #if (!Micros_Counter_UsingFixedFunction)
  96:Generated_Source\PSoC5/Micros_Counter.c ****             Micros_Counter_ClearFIFO();
  97:Generated_Source\PSoC5/Micros_Counter.c ****         #endif /* (!Micros_Counter_UsingFixedFunction) */
  98:Generated_Source\PSoC5/Micros_Counter.c ****         
  99:Generated_Source\PSoC5/Micros_Counter.c ****         /* Set Initial values from Configuration */
 100:Generated_Source\PSoC5/Micros_Counter.c ****         Micros_Counter_WritePeriod(Micros_Counter_INIT_PERIOD_VALUE);
 101:Generated_Source\PSoC5/Micros_Counter.c ****         #if (!(Micros_Counter_UsingFixedFunction && (CY_PSOC5A)))
 102:Generated_Source\PSoC5/Micros_Counter.c ****             Micros_Counter_WriteCounter(Micros_Counter_INIT_COUNTER_VALUE);
 103:Generated_Source\PSoC5/Micros_Counter.c ****         #endif /* (!(Micros_Counter_UsingFixedFunction && (CY_PSOC5A))) */
 104:Generated_Source\PSoC5/Micros_Counter.c ****         Micros_Counter_SetInterruptMode(Micros_Counter_INIT_INTERRUPTS_MASK);
 105:Generated_Source\PSoC5/Micros_Counter.c ****         
 106:Generated_Source\PSoC5/Micros_Counter.c ****         #if (!Micros_Counter_UsingFixedFunction)
 107:Generated_Source\PSoC5/Micros_Counter.c ****             /* Read the status register to clear the unwanted interrupts */
 108:Generated_Source\PSoC5/Micros_Counter.c ****             (void)Micros_Counter_ReadStatusRegister();
ARM GAS  C:\Users\Bruger\AppData\Local\Temp\ccLRF4Uh.s 			page 47


 109:Generated_Source\PSoC5/Micros_Counter.c ****             /* Set the compare value (only available to non-fixed function implementation */
 110:Generated_Source\PSoC5/Micros_Counter.c ****             Micros_Counter_WriteCompare(Micros_Counter_INIT_COMPARE_VALUE);
 111:Generated_Source\PSoC5/Micros_Counter.c ****             /* Use the interrupt output of the status register for IRQ output */
 112:Generated_Source\PSoC5/Micros_Counter.c ****             
 113:Generated_Source\PSoC5/Micros_Counter.c ****             /* CyEnterCriticalRegion and CyExitCriticalRegion are used to mark following region cri
 114:Generated_Source\PSoC5/Micros_Counter.c ****             /* Enter Critical Region*/
 115:Generated_Source\PSoC5/Micros_Counter.c ****             Micros_Counter_interruptState = CyEnterCriticalSection();
 116:Generated_Source\PSoC5/Micros_Counter.c ****             
 117:Generated_Source\PSoC5/Micros_Counter.c ****             Micros_Counter_STATUS_AUX_CTRL |= Micros_Counter_STATUS_ACTL_INT_EN_MASK;
 118:Generated_Source\PSoC5/Micros_Counter.c ****             
 119:Generated_Source\PSoC5/Micros_Counter.c ****             /* Exit Critical Region*/
 120:Generated_Source\PSoC5/Micros_Counter.c ****             CyExitCriticalSection(Micros_Counter_interruptState);
 121:Generated_Source\PSoC5/Micros_Counter.c ****             
 122:Generated_Source\PSoC5/Micros_Counter.c ****         #endif /* (!Micros_Counter_UsingFixedFunction) */
 123:Generated_Source\PSoC5/Micros_Counter.c **** }
 124:Generated_Source\PSoC5/Micros_Counter.c **** 
 125:Generated_Source\PSoC5/Micros_Counter.c **** 
 126:Generated_Source\PSoC5/Micros_Counter.c **** /*******************************************************************************
 127:Generated_Source\PSoC5/Micros_Counter.c **** * Function Name: Micros_Counter_Enable
 128:Generated_Source\PSoC5/Micros_Counter.c **** ********************************************************************************
 129:Generated_Source\PSoC5/Micros_Counter.c **** * Summary:
 130:Generated_Source\PSoC5/Micros_Counter.c **** *     Enable the Counter
 131:Generated_Source\PSoC5/Micros_Counter.c **** * 
 132:Generated_Source\PSoC5/Micros_Counter.c **** * Parameters:  
 133:Generated_Source\PSoC5/Micros_Counter.c **** *  void  
 134:Generated_Source\PSoC5/Micros_Counter.c **** *
 135:Generated_Source\PSoC5/Micros_Counter.c **** * Return: 
 136:Generated_Source\PSoC5/Micros_Counter.c **** *  void
 137:Generated_Source\PSoC5/Micros_Counter.c **** *
 138:Generated_Source\PSoC5/Micros_Counter.c **** * Side Effects: 
 139:Generated_Source\PSoC5/Micros_Counter.c **** *   If the Enable mode is set to Hardware only then this function has no effect 
 140:Generated_Source\PSoC5/Micros_Counter.c **** *   on the operation of the counter.
 141:Generated_Source\PSoC5/Micros_Counter.c **** *
 142:Generated_Source\PSoC5/Micros_Counter.c **** *******************************************************************************/
 143:Generated_Source\PSoC5/Micros_Counter.c **** void Micros_Counter_Enable(void) 
 144:Generated_Source\PSoC5/Micros_Counter.c **** {
 145:Generated_Source\PSoC5/Micros_Counter.c ****     /* Globally Enable the Fixed Function Block chosen */
 146:Generated_Source\PSoC5/Micros_Counter.c ****     #if (Micros_Counter_UsingFixedFunction)
 147:Generated_Source\PSoC5/Micros_Counter.c ****         Micros_Counter_GLOBAL_ENABLE |= Micros_Counter_BLOCK_EN_MASK;
 148:Generated_Source\PSoC5/Micros_Counter.c ****         Micros_Counter_GLOBAL_STBY_ENABLE |= Micros_Counter_BLOCK_STBY_EN_MASK;
 149:Generated_Source\PSoC5/Micros_Counter.c ****     #endif /* (Micros_Counter_UsingFixedFunction) */  
 150:Generated_Source\PSoC5/Micros_Counter.c ****         
 151:Generated_Source\PSoC5/Micros_Counter.c ****     /* Enable the counter from the control register  */
 152:Generated_Source\PSoC5/Micros_Counter.c ****     /* If Fixed Function then make sure Mode is set correctly */
 153:Generated_Source\PSoC5/Micros_Counter.c ****     /* else make sure reset is clear */
 154:Generated_Source\PSoC5/Micros_Counter.c ****     #if(!Micros_Counter_ControlRegRemoved || Micros_Counter_UsingFixedFunction)
 155:Generated_Source\PSoC5/Micros_Counter.c ****         Micros_Counter_CONTROL |= Micros_Counter_CTRL_ENABLE;                
 156:Generated_Source\PSoC5/Micros_Counter.c ****     #endif /* (!Micros_Counter_ControlRegRemoved || Micros_Counter_UsingFixedFunction) */
 157:Generated_Source\PSoC5/Micros_Counter.c ****     
 158:Generated_Source\PSoC5/Micros_Counter.c **** }
 159:Generated_Source\PSoC5/Micros_Counter.c **** 
 160:Generated_Source\PSoC5/Micros_Counter.c **** 
 161:Generated_Source\PSoC5/Micros_Counter.c **** /*******************************************************************************
 162:Generated_Source\PSoC5/Micros_Counter.c **** * Function Name: Micros_Counter_Start
 163:Generated_Source\PSoC5/Micros_Counter.c **** ********************************************************************************
 164:Generated_Source\PSoC5/Micros_Counter.c **** * Summary:
 165:Generated_Source\PSoC5/Micros_Counter.c **** *  Enables the counter for operation 
ARM GAS  C:\Users\Bruger\AppData\Local\Temp\ccLRF4Uh.s 			page 48


 166:Generated_Source\PSoC5/Micros_Counter.c **** *
 167:Generated_Source\PSoC5/Micros_Counter.c **** * Parameters:  
 168:Generated_Source\PSoC5/Micros_Counter.c **** *  void  
 169:Generated_Source\PSoC5/Micros_Counter.c **** *
 170:Generated_Source\PSoC5/Micros_Counter.c **** * Return: 
 171:Generated_Source\PSoC5/Micros_Counter.c **** *  void
 172:Generated_Source\PSoC5/Micros_Counter.c **** *
 173:Generated_Source\PSoC5/Micros_Counter.c **** * Global variables:
 174:Generated_Source\PSoC5/Micros_Counter.c **** *  Micros_Counter_initVar: Is modified when this function is called for the  
 175:Generated_Source\PSoC5/Micros_Counter.c **** *   first time. Is used to ensure that initialization happens only once.
 176:Generated_Source\PSoC5/Micros_Counter.c **** *
 177:Generated_Source\PSoC5/Micros_Counter.c **** *******************************************************************************/
 178:Generated_Source\PSoC5/Micros_Counter.c **** void Micros_Counter_Start(void) 
 179:Generated_Source\PSoC5/Micros_Counter.c **** {
 180:Generated_Source\PSoC5/Micros_Counter.c ****     if(Micros_Counter_initVar == 0u)
 181:Generated_Source\PSoC5/Micros_Counter.c ****     {
 182:Generated_Source\PSoC5/Micros_Counter.c ****         Micros_Counter_Init();
 183:Generated_Source\PSoC5/Micros_Counter.c ****         
 184:Generated_Source\PSoC5/Micros_Counter.c ****         Micros_Counter_initVar = 1u; /* Clear this bit for Initialization */        
 185:Generated_Source\PSoC5/Micros_Counter.c ****     }
 186:Generated_Source\PSoC5/Micros_Counter.c ****     
 187:Generated_Source\PSoC5/Micros_Counter.c ****     /* Enable the Counter */
 188:Generated_Source\PSoC5/Micros_Counter.c ****     Micros_Counter_Enable();        
 189:Generated_Source\PSoC5/Micros_Counter.c **** }
 190:Generated_Source\PSoC5/Micros_Counter.c **** 
 191:Generated_Source\PSoC5/Micros_Counter.c **** 
 192:Generated_Source\PSoC5/Micros_Counter.c **** /*******************************************************************************
 193:Generated_Source\PSoC5/Micros_Counter.c **** * Function Name: Micros_Counter_Stop
 194:Generated_Source\PSoC5/Micros_Counter.c **** ********************************************************************************
 195:Generated_Source\PSoC5/Micros_Counter.c **** * Summary:
 196:Generated_Source\PSoC5/Micros_Counter.c **** * Halts the counter, but does not change any modes or disable interrupts.
 197:Generated_Source\PSoC5/Micros_Counter.c **** *
 198:Generated_Source\PSoC5/Micros_Counter.c **** * Parameters:  
 199:Generated_Source\PSoC5/Micros_Counter.c **** *  void  
 200:Generated_Source\PSoC5/Micros_Counter.c **** *
 201:Generated_Source\PSoC5/Micros_Counter.c **** * Return: 
 202:Generated_Source\PSoC5/Micros_Counter.c **** *  void
 203:Generated_Source\PSoC5/Micros_Counter.c **** *
 204:Generated_Source\PSoC5/Micros_Counter.c **** * Side Effects: If the Enable mode is set to Hardware only then this function
 205:Generated_Source\PSoC5/Micros_Counter.c **** *               has no effect on the operation of the counter.
 206:Generated_Source\PSoC5/Micros_Counter.c **** *
 207:Generated_Source\PSoC5/Micros_Counter.c **** *******************************************************************************/
 208:Generated_Source\PSoC5/Micros_Counter.c **** void Micros_Counter_Stop(void) 
 209:Generated_Source\PSoC5/Micros_Counter.c **** {
 210:Generated_Source\PSoC5/Micros_Counter.c ****     /* Disable Counter */
 211:Generated_Source\PSoC5/Micros_Counter.c ****     #if(!Micros_Counter_ControlRegRemoved || Micros_Counter_UsingFixedFunction)
 212:Generated_Source\PSoC5/Micros_Counter.c ****         Micros_Counter_CONTROL &= ((uint8)(~Micros_Counter_CTRL_ENABLE));        
 213:Generated_Source\PSoC5/Micros_Counter.c ****     #endif /* (!Micros_Counter_ControlRegRemoved || Micros_Counter_UsingFixedFunction) */
 214:Generated_Source\PSoC5/Micros_Counter.c ****     
 215:Generated_Source\PSoC5/Micros_Counter.c ****     /* Globally disable the Fixed Function Block chosen */
 216:Generated_Source\PSoC5/Micros_Counter.c ****     #if (Micros_Counter_UsingFixedFunction)
 217:Generated_Source\PSoC5/Micros_Counter.c ****         Micros_Counter_GLOBAL_ENABLE &= ((uint8)(~Micros_Counter_BLOCK_EN_MASK));
 218:Generated_Source\PSoC5/Micros_Counter.c ****         Micros_Counter_GLOBAL_STBY_ENABLE &= ((uint8)(~Micros_Counter_BLOCK_STBY_EN_MASK));
 219:Generated_Source\PSoC5/Micros_Counter.c ****     #endif /* (Micros_Counter_UsingFixedFunction) */
 220:Generated_Source\PSoC5/Micros_Counter.c **** }
 221:Generated_Source\PSoC5/Micros_Counter.c **** 
 222:Generated_Source\PSoC5/Micros_Counter.c **** 
ARM GAS  C:\Users\Bruger\AppData\Local\Temp\ccLRF4Uh.s 			page 49


 223:Generated_Source\PSoC5/Micros_Counter.c **** /*******************************************************************************
 224:Generated_Source\PSoC5/Micros_Counter.c **** * Function Name: Micros_Counter_SetInterruptMode
 225:Generated_Source\PSoC5/Micros_Counter.c **** ********************************************************************************
 226:Generated_Source\PSoC5/Micros_Counter.c **** * Summary:
 227:Generated_Source\PSoC5/Micros_Counter.c **** * Configures which interrupt sources are enabled to generate the final interrupt
 228:Generated_Source\PSoC5/Micros_Counter.c **** *
 229:Generated_Source\PSoC5/Micros_Counter.c **** * Parameters:  
 230:Generated_Source\PSoC5/Micros_Counter.c **** *  InterruptsMask: This parameter is an or'd collection of the status bits
 231:Generated_Source\PSoC5/Micros_Counter.c **** *                   which will be allowed to generate the counters interrupt.   
 232:Generated_Source\PSoC5/Micros_Counter.c **** *
 233:Generated_Source\PSoC5/Micros_Counter.c **** * Return: 
 234:Generated_Source\PSoC5/Micros_Counter.c **** *  void
 235:Generated_Source\PSoC5/Micros_Counter.c **** *
 236:Generated_Source\PSoC5/Micros_Counter.c **** *******************************************************************************/
 237:Generated_Source\PSoC5/Micros_Counter.c **** void Micros_Counter_SetInterruptMode(uint8 interruptsMask) 
 238:Generated_Source\PSoC5/Micros_Counter.c **** {
 239:Generated_Source\PSoC5/Micros_Counter.c ****     Micros_Counter_STATUS_MASK = interruptsMask;
 240:Generated_Source\PSoC5/Micros_Counter.c **** }
 241:Generated_Source\PSoC5/Micros_Counter.c **** 
 242:Generated_Source\PSoC5/Micros_Counter.c **** 
 243:Generated_Source\PSoC5/Micros_Counter.c **** /*******************************************************************************
 244:Generated_Source\PSoC5/Micros_Counter.c **** * Function Name: Micros_Counter_ReadStatusRegister
 245:Generated_Source\PSoC5/Micros_Counter.c **** ********************************************************************************
 246:Generated_Source\PSoC5/Micros_Counter.c **** * Summary:
 247:Generated_Source\PSoC5/Micros_Counter.c **** *   Reads the status register and returns it's state. This function should use
 248:Generated_Source\PSoC5/Micros_Counter.c **** *       defined types for the bit-field information as the bits in this
 249:Generated_Source\PSoC5/Micros_Counter.c **** *       register may be permuteable.
 250:Generated_Source\PSoC5/Micros_Counter.c **** *
 251:Generated_Source\PSoC5/Micros_Counter.c **** * Parameters:  
 252:Generated_Source\PSoC5/Micros_Counter.c **** *  void
 253:Generated_Source\PSoC5/Micros_Counter.c **** *
 254:Generated_Source\PSoC5/Micros_Counter.c **** * Return: 
 255:Generated_Source\PSoC5/Micros_Counter.c **** *  (uint8) The contents of the status register
 256:Generated_Source\PSoC5/Micros_Counter.c **** *
 257:Generated_Source\PSoC5/Micros_Counter.c **** * Side Effects:
 258:Generated_Source\PSoC5/Micros_Counter.c **** *   Status register bits may be clear on read. 
 259:Generated_Source\PSoC5/Micros_Counter.c **** *
 260:Generated_Source\PSoC5/Micros_Counter.c **** *******************************************************************************/
 261:Generated_Source\PSoC5/Micros_Counter.c **** uint8   Micros_Counter_ReadStatusRegister(void) 
 262:Generated_Source\PSoC5/Micros_Counter.c **** {
 263:Generated_Source\PSoC5/Micros_Counter.c ****     return Micros_Counter_STATUS;
 609              		.loc 1 263 0
 610 0004 154A     		ldr	r2, .L11+4
 611              	.LBE43:
 612              	.LBE42:
 613              	.LBE41:
 614              	.LBE40:
  79:Generated_Source\PSoC5/Micros_Counter.c ****             Micros_Counter_CONTROL = ctrl | Micros_Counter_DEFAULT_COMPARE_MODE;
 615              		.loc 1 79 0
 616 0006 1978     		ldrb	r1, [r3]	@ zero_extendqisi2
 617 0008 01F0F801 		and	r1, r1, #248
 618              	.LVL0:
  80:Generated_Source\PSoC5/Micros_Counter.c ****             Micros_Counter_CONTROL = ctrl | Micros_Counter_DEFAULT_COMPARE_MODE;
 619              		.loc 1 80 0
 620 000c 1970     		strb	r1, [r3]
  83:Generated_Source\PSoC5/Micros_Counter.c ****             
 621              		.loc 1 83 0
ARM GAS  C:\Users\Bruger\AppData\Local\Temp\ccLRF4Uh.s 			page 50


 622 000e 1978     		ldrb	r1, [r3]	@ zero_extendqisi2
 623              	.LVL1:
 624 0010 01F0FC01 		and	r1, r1, #252
 625              	.LVL2:
  88:Generated_Source\PSoC5/Micros_Counter.c ****             #endif /* 0 != Micros_Counter_CAPTURE_MODE */ 
 626              		.loc 1 88 0
 627 0014 1970     		strb	r1, [r3]
 628              	.LBB51:
 629              	.LBB50:
 630              	.LBB46:
 631              	.LBB44:
 632              		.loc 1 263 0
 633 0016 1378     		ldrb	r3, [r2]	@ zero_extendqisi2
 634              	.LBE44:
 635              	.LBE46:
 264:Generated_Source\PSoC5/Micros_Counter.c **** }
 265:Generated_Source\PSoC5/Micros_Counter.c **** 
 266:Generated_Source\PSoC5/Micros_Counter.c **** 
 267:Generated_Source\PSoC5/Micros_Counter.c **** #if(!Micros_Counter_ControlRegRemoved)
 268:Generated_Source\PSoC5/Micros_Counter.c **** /*******************************************************************************
 269:Generated_Source\PSoC5/Micros_Counter.c **** * Function Name: Micros_Counter_ReadControlRegister
 270:Generated_Source\PSoC5/Micros_Counter.c **** ********************************************************************************
 271:Generated_Source\PSoC5/Micros_Counter.c **** * Summary:
 272:Generated_Source\PSoC5/Micros_Counter.c **** *   Reads the control register and returns it's state. This function should use
 273:Generated_Source\PSoC5/Micros_Counter.c **** *       defined types for the bit-field information as the bits in this
 274:Generated_Source\PSoC5/Micros_Counter.c **** *       register may be permuteable.
 275:Generated_Source\PSoC5/Micros_Counter.c **** *
 276:Generated_Source\PSoC5/Micros_Counter.c **** * Parameters:  
 277:Generated_Source\PSoC5/Micros_Counter.c **** *  void
 278:Generated_Source\PSoC5/Micros_Counter.c **** *
 279:Generated_Source\PSoC5/Micros_Counter.c **** * Return: 
 280:Generated_Source\PSoC5/Micros_Counter.c **** *  (uint8) The contents of the control register
 281:Generated_Source\PSoC5/Micros_Counter.c **** *
 282:Generated_Source\PSoC5/Micros_Counter.c **** *******************************************************************************/
 283:Generated_Source\PSoC5/Micros_Counter.c **** uint8   Micros_Counter_ReadControlRegister(void) 
 284:Generated_Source\PSoC5/Micros_Counter.c **** {
 285:Generated_Source\PSoC5/Micros_Counter.c ****     return Micros_Counter_CONTROL;
 286:Generated_Source\PSoC5/Micros_Counter.c **** }
 287:Generated_Source\PSoC5/Micros_Counter.c **** 
 288:Generated_Source\PSoC5/Micros_Counter.c **** 
 289:Generated_Source\PSoC5/Micros_Counter.c **** /*******************************************************************************
 290:Generated_Source\PSoC5/Micros_Counter.c **** * Function Name: Micros_Counter_WriteControlRegister
 291:Generated_Source\PSoC5/Micros_Counter.c **** ********************************************************************************
 292:Generated_Source\PSoC5/Micros_Counter.c **** * Summary:
 293:Generated_Source\PSoC5/Micros_Counter.c **** *   Sets the bit-field of the control register.  This function should use
 294:Generated_Source\PSoC5/Micros_Counter.c **** *       defined types for the bit-field information as the bits in this
 295:Generated_Source\PSoC5/Micros_Counter.c **** *       register may be permuteable.
 296:Generated_Source\PSoC5/Micros_Counter.c **** *
 297:Generated_Source\PSoC5/Micros_Counter.c **** * Parameters:  
 298:Generated_Source\PSoC5/Micros_Counter.c **** *  void
 299:Generated_Source\PSoC5/Micros_Counter.c **** *
 300:Generated_Source\PSoC5/Micros_Counter.c **** * Return: 
 301:Generated_Source\PSoC5/Micros_Counter.c **** *  (uint8) The contents of the control register
 302:Generated_Source\PSoC5/Micros_Counter.c **** *
 303:Generated_Source\PSoC5/Micros_Counter.c **** *******************************************************************************/
 304:Generated_Source\PSoC5/Micros_Counter.c **** void    Micros_Counter_WriteControlRegister(uint8 control) 
 305:Generated_Source\PSoC5/Micros_Counter.c **** {
ARM GAS  C:\Users\Bruger\AppData\Local\Temp\ccLRF4Uh.s 			page 51


 306:Generated_Source\PSoC5/Micros_Counter.c ****     Micros_Counter_CONTROL = control;
 307:Generated_Source\PSoC5/Micros_Counter.c **** }
 308:Generated_Source\PSoC5/Micros_Counter.c **** 
 309:Generated_Source\PSoC5/Micros_Counter.c **** #endif  /* (!Micros_Counter_ControlRegRemoved) */
 310:Generated_Source\PSoC5/Micros_Counter.c **** 
 311:Generated_Source\PSoC5/Micros_Counter.c **** 
 312:Generated_Source\PSoC5/Micros_Counter.c **** #if (!(Micros_Counter_UsingFixedFunction && (CY_PSOC5A)))
 313:Generated_Source\PSoC5/Micros_Counter.c **** /*******************************************************************************
 314:Generated_Source\PSoC5/Micros_Counter.c **** * Function Name: Micros_Counter_WriteCounter
 315:Generated_Source\PSoC5/Micros_Counter.c **** ********************************************************************************
 316:Generated_Source\PSoC5/Micros_Counter.c **** * Summary:
 317:Generated_Source\PSoC5/Micros_Counter.c **** *   This funtion is used to set the counter to a specific value
 318:Generated_Source\PSoC5/Micros_Counter.c **** *
 319:Generated_Source\PSoC5/Micros_Counter.c **** * Parameters:  
 320:Generated_Source\PSoC5/Micros_Counter.c **** *  counter:  New counter value. 
 321:Generated_Source\PSoC5/Micros_Counter.c **** *
 322:Generated_Source\PSoC5/Micros_Counter.c **** * Return: 
 323:Generated_Source\PSoC5/Micros_Counter.c **** *  void 
 324:Generated_Source\PSoC5/Micros_Counter.c **** *
 325:Generated_Source\PSoC5/Micros_Counter.c **** *******************************************************************************/
 326:Generated_Source\PSoC5/Micros_Counter.c **** void Micros_Counter_WriteCounter(uint32 counter) \
 327:Generated_Source\PSoC5/Micros_Counter.c ****                                    
 328:Generated_Source\PSoC5/Micros_Counter.c **** {
 329:Generated_Source\PSoC5/Micros_Counter.c ****     #if(Micros_Counter_UsingFixedFunction)
 330:Generated_Source\PSoC5/Micros_Counter.c ****         /* assert if block is already enabled */
 331:Generated_Source\PSoC5/Micros_Counter.c ****         CYASSERT (0u == (Micros_Counter_GLOBAL_ENABLE & Micros_Counter_BLOCK_EN_MASK));
 332:Generated_Source\PSoC5/Micros_Counter.c ****         /* If block is disabled, enable it and then write the counter */
 333:Generated_Source\PSoC5/Micros_Counter.c ****         Micros_Counter_GLOBAL_ENABLE |= Micros_Counter_BLOCK_EN_MASK;
 334:Generated_Source\PSoC5/Micros_Counter.c ****         CY_SET_REG16(Micros_Counter_COUNTER_LSB_PTR, (uint16)counter);
 335:Generated_Source\PSoC5/Micros_Counter.c ****         Micros_Counter_GLOBAL_ENABLE &= ((uint8)(~Micros_Counter_BLOCK_EN_MASK));
 336:Generated_Source\PSoC5/Micros_Counter.c ****     #else
 337:Generated_Source\PSoC5/Micros_Counter.c ****         CY_SET_REG32(Micros_Counter_COUNTER_LSB_PTR, counter);
 338:Generated_Source\PSoC5/Micros_Counter.c ****     #endif /* (Micros_Counter_UsingFixedFunction) */
 339:Generated_Source\PSoC5/Micros_Counter.c **** }
 340:Generated_Source\PSoC5/Micros_Counter.c **** #endif /* (!(Micros_Counter_UsingFixedFunction && (CY_PSOC5A))) */
 341:Generated_Source\PSoC5/Micros_Counter.c **** 
 342:Generated_Source\PSoC5/Micros_Counter.c **** 
 343:Generated_Source\PSoC5/Micros_Counter.c **** /*******************************************************************************
 344:Generated_Source\PSoC5/Micros_Counter.c **** * Function Name: Micros_Counter_ReadCounter
 345:Generated_Source\PSoC5/Micros_Counter.c **** ********************************************************************************
 346:Generated_Source\PSoC5/Micros_Counter.c **** * Summary:
 347:Generated_Source\PSoC5/Micros_Counter.c **** * Returns the current value of the counter.  It doesn't matter
 348:Generated_Source\PSoC5/Micros_Counter.c **** * if the counter is enabled or running.
 349:Generated_Source\PSoC5/Micros_Counter.c **** *
 350:Generated_Source\PSoC5/Micros_Counter.c **** * Parameters:  
 351:Generated_Source\PSoC5/Micros_Counter.c **** *  void:  
 352:Generated_Source\PSoC5/Micros_Counter.c **** *
 353:Generated_Source\PSoC5/Micros_Counter.c **** * Return: 
 354:Generated_Source\PSoC5/Micros_Counter.c **** *  (uint32) The present value of the counter.
 355:Generated_Source\PSoC5/Micros_Counter.c **** *
 356:Generated_Source\PSoC5/Micros_Counter.c **** *******************************************************************************/
 357:Generated_Source\PSoC5/Micros_Counter.c **** uint32 Micros_Counter_ReadCounter(void) 
 358:Generated_Source\PSoC5/Micros_Counter.c **** {
 359:Generated_Source\PSoC5/Micros_Counter.c ****     /* Force capture by reading Accumulator */
 360:Generated_Source\PSoC5/Micros_Counter.c ****     /* Must first do a software capture to be able to read the counter */
 361:Generated_Source\PSoC5/Micros_Counter.c ****     /* It is up to the user code to make sure there isn't already captured data in the FIFO */
 362:Generated_Source\PSoC5/Micros_Counter.c ****     #if(Micros_Counter_UsingFixedFunction)
ARM GAS  C:\Users\Bruger\AppData\Local\Temp\ccLRF4Uh.s 			page 52


 363:Generated_Source\PSoC5/Micros_Counter.c **** 		(void)CY_GET_REG16(Micros_Counter_COUNTER_LSB_PTR);
 364:Generated_Source\PSoC5/Micros_Counter.c **** 	#else
 365:Generated_Source\PSoC5/Micros_Counter.c **** 		(void)CY_GET_REG8(Micros_Counter_COUNTER_LSB_PTR_8BIT);
 366:Generated_Source\PSoC5/Micros_Counter.c **** 	#endif/* (Micros_Counter_UsingFixedFunction) */
 367:Generated_Source\PSoC5/Micros_Counter.c ****     
 368:Generated_Source\PSoC5/Micros_Counter.c ****     /* Read the data from the FIFO (or capture register for Fixed Function)*/
 369:Generated_Source\PSoC5/Micros_Counter.c ****     #if(Micros_Counter_UsingFixedFunction)
 370:Generated_Source\PSoC5/Micros_Counter.c ****         return ((uint32)CY_GET_REG16(Micros_Counter_STATICCOUNT_LSB_PTR));
 371:Generated_Source\PSoC5/Micros_Counter.c ****     #else
 372:Generated_Source\PSoC5/Micros_Counter.c ****         return (CY_GET_REG32(Micros_Counter_STATICCOUNT_LSB_PTR));
 373:Generated_Source\PSoC5/Micros_Counter.c ****     #endif /* (Micros_Counter_UsingFixedFunction) */
 374:Generated_Source\PSoC5/Micros_Counter.c **** }
 375:Generated_Source\PSoC5/Micros_Counter.c **** 
 376:Generated_Source\PSoC5/Micros_Counter.c **** 
 377:Generated_Source\PSoC5/Micros_Counter.c **** /*******************************************************************************
 378:Generated_Source\PSoC5/Micros_Counter.c **** * Function Name: Micros_Counter_ReadCapture
 379:Generated_Source\PSoC5/Micros_Counter.c **** ********************************************************************************
 380:Generated_Source\PSoC5/Micros_Counter.c **** * Summary:
 381:Generated_Source\PSoC5/Micros_Counter.c **** *   This function returns the last value captured.
 382:Generated_Source\PSoC5/Micros_Counter.c **** *
 383:Generated_Source\PSoC5/Micros_Counter.c **** * Parameters:  
 384:Generated_Source\PSoC5/Micros_Counter.c **** *  void
 385:Generated_Source\PSoC5/Micros_Counter.c **** *
 386:Generated_Source\PSoC5/Micros_Counter.c **** * Return: 
 387:Generated_Source\PSoC5/Micros_Counter.c **** *  (uint32) Present Capture value.
 388:Generated_Source\PSoC5/Micros_Counter.c **** *
 389:Generated_Source\PSoC5/Micros_Counter.c **** *******************************************************************************/
 390:Generated_Source\PSoC5/Micros_Counter.c **** uint32 Micros_Counter_ReadCapture(void) 
 391:Generated_Source\PSoC5/Micros_Counter.c **** {
 392:Generated_Source\PSoC5/Micros_Counter.c ****     #if(Micros_Counter_UsingFixedFunction)
 393:Generated_Source\PSoC5/Micros_Counter.c ****         return ((uint32)CY_GET_REG16(Micros_Counter_STATICCOUNT_LSB_PTR));
 394:Generated_Source\PSoC5/Micros_Counter.c ****     #else
 395:Generated_Source\PSoC5/Micros_Counter.c ****         return (CY_GET_REG32(Micros_Counter_STATICCOUNT_LSB_PTR));
 396:Generated_Source\PSoC5/Micros_Counter.c ****     #endif /* (Micros_Counter_UsingFixedFunction) */
 397:Generated_Source\PSoC5/Micros_Counter.c **** }
 398:Generated_Source\PSoC5/Micros_Counter.c **** 
 399:Generated_Source\PSoC5/Micros_Counter.c **** 
 400:Generated_Source\PSoC5/Micros_Counter.c **** /*******************************************************************************
 401:Generated_Source\PSoC5/Micros_Counter.c **** * Function Name: Micros_Counter_WritePeriod
 402:Generated_Source\PSoC5/Micros_Counter.c **** ********************************************************************************
 403:Generated_Source\PSoC5/Micros_Counter.c **** * Summary:
 404:Generated_Source\PSoC5/Micros_Counter.c **** * Changes the period of the counter.  The new period 
 405:Generated_Source\PSoC5/Micros_Counter.c **** * will be loaded the next time terminal count is detected.
 406:Generated_Source\PSoC5/Micros_Counter.c **** *
 407:Generated_Source\PSoC5/Micros_Counter.c **** * Parameters:  
 408:Generated_Source\PSoC5/Micros_Counter.c **** *  period: (uint32) A value of 0 will result in
 409:Generated_Source\PSoC5/Micros_Counter.c **** *         the counter remaining at zero.  
 410:Generated_Source\PSoC5/Micros_Counter.c **** *
 411:Generated_Source\PSoC5/Micros_Counter.c **** * Return: 
 412:Generated_Source\PSoC5/Micros_Counter.c **** *  void
 413:Generated_Source\PSoC5/Micros_Counter.c **** *
 414:Generated_Source\PSoC5/Micros_Counter.c **** *******************************************************************************/
 415:Generated_Source\PSoC5/Micros_Counter.c **** void Micros_Counter_WritePeriod(uint32 period) 
 416:Generated_Source\PSoC5/Micros_Counter.c **** {
 417:Generated_Source\PSoC5/Micros_Counter.c ****     #if(Micros_Counter_UsingFixedFunction)
 418:Generated_Source\PSoC5/Micros_Counter.c ****         CY_SET_REG16(Micros_Counter_PERIOD_LSB_PTR,(uint16)period);
 419:Generated_Source\PSoC5/Micros_Counter.c ****     #else
ARM GAS  C:\Users\Bruger\AppData\Local\Temp\ccLRF4Uh.s 			page 53


 420:Generated_Source\PSoC5/Micros_Counter.c ****         CY_SET_REG32(Micros_Counter_PERIOD_LSB_PTR, period);
 421:Generated_Source\PSoC5/Micros_Counter.c ****     #endif /* (Micros_Counter_UsingFixedFunction) */
 422:Generated_Source\PSoC5/Micros_Counter.c **** }
 423:Generated_Source\PSoC5/Micros_Counter.c **** 
 424:Generated_Source\PSoC5/Micros_Counter.c **** 
 425:Generated_Source\PSoC5/Micros_Counter.c **** /*******************************************************************************
 426:Generated_Source\PSoC5/Micros_Counter.c **** * Function Name: Micros_Counter_ReadPeriod
 427:Generated_Source\PSoC5/Micros_Counter.c **** ********************************************************************************
 428:Generated_Source\PSoC5/Micros_Counter.c **** * Summary:
 429:Generated_Source\PSoC5/Micros_Counter.c **** * Reads the current period value without affecting counter operation.
 430:Generated_Source\PSoC5/Micros_Counter.c **** *
 431:Generated_Source\PSoC5/Micros_Counter.c **** * Parameters:  
 432:Generated_Source\PSoC5/Micros_Counter.c **** *  void:  
 433:Generated_Source\PSoC5/Micros_Counter.c **** *
 434:Generated_Source\PSoC5/Micros_Counter.c **** * Return: 
 435:Generated_Source\PSoC5/Micros_Counter.c **** *  (uint32) Present period value.
 436:Generated_Source\PSoC5/Micros_Counter.c **** *
 437:Generated_Source\PSoC5/Micros_Counter.c **** *******************************************************************************/
 438:Generated_Source\PSoC5/Micros_Counter.c **** uint32 Micros_Counter_ReadPeriod(void) 
 439:Generated_Source\PSoC5/Micros_Counter.c **** {
 440:Generated_Source\PSoC5/Micros_Counter.c ****     #if(Micros_Counter_UsingFixedFunction)
 441:Generated_Source\PSoC5/Micros_Counter.c ****         return ((uint32)CY_GET_REG16(Micros_Counter_PERIOD_LSB_PTR));
 442:Generated_Source\PSoC5/Micros_Counter.c ****     #else
 443:Generated_Source\PSoC5/Micros_Counter.c ****         return (CY_GET_REG32(Micros_Counter_PERIOD_LSB_PTR));
 444:Generated_Source\PSoC5/Micros_Counter.c ****     #endif /* (Micros_Counter_UsingFixedFunction) */
 445:Generated_Source\PSoC5/Micros_Counter.c **** }
 446:Generated_Source\PSoC5/Micros_Counter.c **** 
 447:Generated_Source\PSoC5/Micros_Counter.c **** 
 448:Generated_Source\PSoC5/Micros_Counter.c **** #if (!Micros_Counter_UsingFixedFunction)
 449:Generated_Source\PSoC5/Micros_Counter.c **** /*******************************************************************************
 450:Generated_Source\PSoC5/Micros_Counter.c **** * Function Name: Micros_Counter_WriteCompare
 451:Generated_Source\PSoC5/Micros_Counter.c **** ********************************************************************************
 452:Generated_Source\PSoC5/Micros_Counter.c **** * Summary:
 453:Generated_Source\PSoC5/Micros_Counter.c **** * Changes the compare value.  The compare output will 
 454:Generated_Source\PSoC5/Micros_Counter.c **** * reflect the new value on the next UDB clock.  The compare output will be 
 455:Generated_Source\PSoC5/Micros_Counter.c **** * driven high when the present counter value compares true based on the 
 456:Generated_Source\PSoC5/Micros_Counter.c **** * configured compare mode setting. 
 457:Generated_Source\PSoC5/Micros_Counter.c **** *
 458:Generated_Source\PSoC5/Micros_Counter.c **** * Parameters:  
 459:Generated_Source\PSoC5/Micros_Counter.c **** *  Compare:  New compare value. 
 460:Generated_Source\PSoC5/Micros_Counter.c **** *
 461:Generated_Source\PSoC5/Micros_Counter.c **** * Return: 
 462:Generated_Source\PSoC5/Micros_Counter.c **** *  void
 463:Generated_Source\PSoC5/Micros_Counter.c **** *
 464:Generated_Source\PSoC5/Micros_Counter.c **** *******************************************************************************/
 465:Generated_Source\PSoC5/Micros_Counter.c **** void Micros_Counter_WriteCompare(uint32 compare) \
 466:Generated_Source\PSoC5/Micros_Counter.c ****                                    
 467:Generated_Source\PSoC5/Micros_Counter.c **** {
 468:Generated_Source\PSoC5/Micros_Counter.c ****     #if(Micros_Counter_UsingFixedFunction)
 469:Generated_Source\PSoC5/Micros_Counter.c ****         CY_SET_REG16(Micros_Counter_COMPARE_LSB_PTR, (uint16)compare);
 470:Generated_Source\PSoC5/Micros_Counter.c ****     #else
 471:Generated_Source\PSoC5/Micros_Counter.c ****         CY_SET_REG32(Micros_Counter_COMPARE_LSB_PTR, compare);
 472:Generated_Source\PSoC5/Micros_Counter.c ****     #endif /* (Micros_Counter_UsingFixedFunction) */
 473:Generated_Source\PSoC5/Micros_Counter.c **** }
 474:Generated_Source\PSoC5/Micros_Counter.c **** 
 475:Generated_Source\PSoC5/Micros_Counter.c **** 
 476:Generated_Source\PSoC5/Micros_Counter.c **** /*******************************************************************************
ARM GAS  C:\Users\Bruger\AppData\Local\Temp\ccLRF4Uh.s 			page 54


 477:Generated_Source\PSoC5/Micros_Counter.c **** * Function Name: Micros_Counter_ReadCompare
 478:Generated_Source\PSoC5/Micros_Counter.c **** ********************************************************************************
 479:Generated_Source\PSoC5/Micros_Counter.c **** * Summary:
 480:Generated_Source\PSoC5/Micros_Counter.c **** * Returns the compare value.
 481:Generated_Source\PSoC5/Micros_Counter.c **** *
 482:Generated_Source\PSoC5/Micros_Counter.c **** * Parameters:  
 483:Generated_Source\PSoC5/Micros_Counter.c **** *  void:
 484:Generated_Source\PSoC5/Micros_Counter.c **** *
 485:Generated_Source\PSoC5/Micros_Counter.c **** * Return: 
 486:Generated_Source\PSoC5/Micros_Counter.c **** *  (uint32) Present compare value.
 487:Generated_Source\PSoC5/Micros_Counter.c **** *
 488:Generated_Source\PSoC5/Micros_Counter.c **** *******************************************************************************/
 489:Generated_Source\PSoC5/Micros_Counter.c **** uint32 Micros_Counter_ReadCompare(void) 
 490:Generated_Source\PSoC5/Micros_Counter.c **** {
 491:Generated_Source\PSoC5/Micros_Counter.c ****     return (CY_GET_REG32(Micros_Counter_COMPARE_LSB_PTR));
 492:Generated_Source\PSoC5/Micros_Counter.c **** }
 493:Generated_Source\PSoC5/Micros_Counter.c **** 
 494:Generated_Source\PSoC5/Micros_Counter.c **** 
 495:Generated_Source\PSoC5/Micros_Counter.c **** #if (Micros_Counter_COMPARE_MODE_SOFTWARE)
 496:Generated_Source\PSoC5/Micros_Counter.c **** /*******************************************************************************
 497:Generated_Source\PSoC5/Micros_Counter.c **** * Function Name: Micros_Counter_SetCompareMode
 498:Generated_Source\PSoC5/Micros_Counter.c **** ********************************************************************************
 499:Generated_Source\PSoC5/Micros_Counter.c **** * Summary:
 500:Generated_Source\PSoC5/Micros_Counter.c **** *  Sets the software controlled Compare Mode.
 501:Generated_Source\PSoC5/Micros_Counter.c **** *
 502:Generated_Source\PSoC5/Micros_Counter.c **** * Parameters:
 503:Generated_Source\PSoC5/Micros_Counter.c **** *  compareMode:  Compare Mode Enumerated Type.
 504:Generated_Source\PSoC5/Micros_Counter.c **** *
 505:Generated_Source\PSoC5/Micros_Counter.c **** * Return:
 506:Generated_Source\PSoC5/Micros_Counter.c **** *  void
 507:Generated_Source\PSoC5/Micros_Counter.c **** *
 508:Generated_Source\PSoC5/Micros_Counter.c **** *******************************************************************************/
 509:Generated_Source\PSoC5/Micros_Counter.c **** void Micros_Counter_SetCompareMode(uint8 compareMode) 
 510:Generated_Source\PSoC5/Micros_Counter.c **** {
 511:Generated_Source\PSoC5/Micros_Counter.c ****     /* Clear the compare mode bits in the control register */
 512:Generated_Source\PSoC5/Micros_Counter.c ****     Micros_Counter_CONTROL &= ((uint8)(~Micros_Counter_CTRL_CMPMODE_MASK));
 513:Generated_Source\PSoC5/Micros_Counter.c ****     
 514:Generated_Source\PSoC5/Micros_Counter.c ****     /* Write the new setting */
 515:Generated_Source\PSoC5/Micros_Counter.c ****     Micros_Counter_CONTROL |= compareMode;
 516:Generated_Source\PSoC5/Micros_Counter.c **** }
 517:Generated_Source\PSoC5/Micros_Counter.c **** #endif  /* (Micros_Counter_COMPARE_MODE_SOFTWARE) */
 518:Generated_Source\PSoC5/Micros_Counter.c **** 
 519:Generated_Source\PSoC5/Micros_Counter.c **** 
 520:Generated_Source\PSoC5/Micros_Counter.c **** #if (Micros_Counter_CAPTURE_MODE_SOFTWARE)
 521:Generated_Source\PSoC5/Micros_Counter.c **** /*******************************************************************************
 522:Generated_Source\PSoC5/Micros_Counter.c **** * Function Name: Micros_Counter_SetCaptureMode
 523:Generated_Source\PSoC5/Micros_Counter.c **** ********************************************************************************
 524:Generated_Source\PSoC5/Micros_Counter.c **** * Summary:
 525:Generated_Source\PSoC5/Micros_Counter.c **** *  Sets the software controlled Capture Mode.
 526:Generated_Source\PSoC5/Micros_Counter.c **** *
 527:Generated_Source\PSoC5/Micros_Counter.c **** * Parameters:
 528:Generated_Source\PSoC5/Micros_Counter.c **** *  captureMode:  Capture Mode Enumerated Type.
 529:Generated_Source\PSoC5/Micros_Counter.c **** *
 530:Generated_Source\PSoC5/Micros_Counter.c **** * Return:
 531:Generated_Source\PSoC5/Micros_Counter.c **** *  void
 532:Generated_Source\PSoC5/Micros_Counter.c **** *
 533:Generated_Source\PSoC5/Micros_Counter.c **** *******************************************************************************/
ARM GAS  C:\Users\Bruger\AppData\Local\Temp\ccLRF4Uh.s 			page 55


 534:Generated_Source\PSoC5/Micros_Counter.c **** void Micros_Counter_SetCaptureMode(uint8 captureMode) 
 535:Generated_Source\PSoC5/Micros_Counter.c **** {
 536:Generated_Source\PSoC5/Micros_Counter.c ****     /* Clear the capture mode bits in the control register */
 537:Generated_Source\PSoC5/Micros_Counter.c ****     Micros_Counter_CONTROL &= ((uint8)(~Micros_Counter_CTRL_CAPMODE_MASK));
 538:Generated_Source\PSoC5/Micros_Counter.c ****     
 539:Generated_Source\PSoC5/Micros_Counter.c ****     /* Write the new setting */
 540:Generated_Source\PSoC5/Micros_Counter.c ****     Micros_Counter_CONTROL |= ((uint8)((uint8)captureMode << Micros_Counter_CTRL_CAPMODE0_SHIFT));
 541:Generated_Source\PSoC5/Micros_Counter.c **** }
 542:Generated_Source\PSoC5/Micros_Counter.c **** #endif  /* (Micros_Counter_CAPTURE_MODE_SOFTWARE) */
 543:Generated_Source\PSoC5/Micros_Counter.c **** 
 544:Generated_Source\PSoC5/Micros_Counter.c **** 
 545:Generated_Source\PSoC5/Micros_Counter.c **** /*******************************************************************************
 546:Generated_Source\PSoC5/Micros_Counter.c **** * Function Name: Micros_Counter_ClearFIFO
 547:Generated_Source\PSoC5/Micros_Counter.c **** ********************************************************************************
 548:Generated_Source\PSoC5/Micros_Counter.c **** * Summary:
 549:Generated_Source\PSoC5/Micros_Counter.c **** *   This function clears all capture data from the capture FIFO
 550:Generated_Source\PSoC5/Micros_Counter.c **** *
 551:Generated_Source\PSoC5/Micros_Counter.c **** * Parameters:  
 552:Generated_Source\PSoC5/Micros_Counter.c **** *  void:
 553:Generated_Source\PSoC5/Micros_Counter.c **** *
 554:Generated_Source\PSoC5/Micros_Counter.c **** * Return: 
 555:Generated_Source\PSoC5/Micros_Counter.c **** *  None
 556:Generated_Source\PSoC5/Micros_Counter.c **** *
 557:Generated_Source\PSoC5/Micros_Counter.c **** *******************************************************************************/
 558:Generated_Source\PSoC5/Micros_Counter.c **** void Micros_Counter_ClearFIFO(void) 
 559:Generated_Source\PSoC5/Micros_Counter.c **** {
 560:Generated_Source\PSoC5/Micros_Counter.c **** 
 561:Generated_Source\PSoC5/Micros_Counter.c ****     while(0u != (Micros_Counter_ReadStatusRegister() & Micros_Counter_STATUS_FIFONEMP))
 636              		.loc 1 561 0
 637 0018 5906     		lsls	r1, r3, #25
 638              	.LVL3:
 639 001a 04D5     		bpl	.L2
 640              	.LBB47:
 641              	.LBB48:
 395:Generated_Source\PSoC5/Micros_Counter.c ****     #endif /* (Micros_Counter_UsingFixedFunction) */
 642              		.loc 1 395 0
 643 001c 1049     		ldr	r1, .L11+8
 644              	.L6:
 645 001e 0B68     		ldr	r3, [r1]
 646              	.LBE48:
 647              	.LBE47:
 648              	.LBB49:
 649              	.LBB45:
 263:Generated_Source\PSoC5/Micros_Counter.c **** }
 650              		.loc 1 263 0
 651 0020 1378     		ldrb	r3, [r2]	@ zero_extendqisi2
 652              	.LBE45:
 653              	.LBE49:
 654              		.loc 1 561 0
 655 0022 5B06     		lsls	r3, r3, #25
 656 0024 FBD4     		bmi	.L6
 657              	.L2:
 658              	.LVL4:
 659              	.LBE50:
 660              	.LBE51:
 661              	.LBB52:
 662              	.LBB53:
ARM GAS  C:\Users\Bruger\AppData\Local\Temp\ccLRF4Uh.s 			page 56


 420:Generated_Source\PSoC5/Micros_Counter.c ****     #endif /* (Micros_Counter_UsingFixedFunction) */
 663              		.loc 1 420 0
 664 0026 0F4E     		ldr	r6, .L11+12
 665              	.LBE53:
 666              	.LBE52:
 667              	.LBB56:
 668              	.LBB57:
 337:Generated_Source\PSoC5/Micros_Counter.c ****     #endif /* (Micros_Counter_UsingFixedFunction) */
 669              		.loc 1 337 0
 670 0028 0F4D     		ldr	r5, .L11+16
 671              	.LBE57:
 672              	.LBE56:
 673              	.LBB60:
 674              	.LBB61:
 239:Generated_Source\PSoC5/Micros_Counter.c **** }
 675              		.loc 1 239 0
 676 002a 104C     		ldr	r4, .L11+20
 677              	.LBE61:
 678              	.LBE60:
 679              	.LBB63:
 680              	.LBB54:
 420:Generated_Source\PSoC5/Micros_Counter.c ****     #endif /* (Micros_Counter_UsingFixedFunction) */
 681              		.loc 1 420 0
 682 002c 4FF0FF33 		mov	r3, #-1
 683              	.LBE54:
 684              	.LBE63:
 685              	.LBB64:
 686              	.LBB58:
 337:Generated_Source\PSoC5/Micros_Counter.c ****     #endif /* (Micros_Counter_UsingFixedFunction) */
 687              		.loc 1 337 0
 688 0030 0022     		movs	r2, #0
 689              	.LBE58:
 690              	.LBE64:
 691              	.LBB65:
 692              	.LBB66:
 263:Generated_Source\PSoC5/Micros_Counter.c **** }
 693              		.loc 1 263 0
 694 0032 0A48     		ldr	r0, .L11+4
 695              	.LBE66:
 696              	.LBE65:
 697              	.LBB68:
 698              	.LBB69:
 471:Generated_Source\PSoC5/Micros_Counter.c ****     #endif /* (Micros_Counter_UsingFixedFunction) */
 699              		.loc 1 471 0
 700 0034 0E49     		ldr	r1, .L11+24
 701              	.LBE69:
 702              	.LBE68:
 703              	.LBB71:
 704              	.LBB55:
 420:Generated_Source\PSoC5/Micros_Counter.c ****     #endif /* (Micros_Counter_UsingFixedFunction) */
 705              		.loc 1 420 0
 706 0036 3360     		str	r3, [r6]
 707              	.LVL5:
 708              	.LBE55:
 709              	.LBE71:
 710              	.LBB72:
 711              	.LBB59:
ARM GAS  C:\Users\Bruger\AppData\Local\Temp\ccLRF4Uh.s 			page 57


 337:Generated_Source\PSoC5/Micros_Counter.c ****     #endif /* (Micros_Counter_UsingFixedFunction) */
 712              		.loc 1 337 0
 713 0038 2A60     		str	r2, [r5]
 714              	.LVL6:
 715              	.LBE59:
 716              	.LBE72:
 717              	.LBB73:
 718              	.LBB62:
 239:Generated_Source\PSoC5/Micros_Counter.c **** }
 719              		.loc 1 239 0
 720 003a 2270     		strb	r2, [r4]
 721              	.LBE62:
 722              	.LBE73:
 723              	.LBB74:
 724              	.LBB67:
 263:Generated_Source\PSoC5/Micros_Counter.c **** }
 725              		.loc 1 263 0
 726 003c 0278     		ldrb	r2, [r0]	@ zero_extendqisi2
 727              	.LVL7:
 728              	.LBE67:
 729              	.LBE74:
 730              	.LBB75:
 731              	.LBB70:
 471:Generated_Source\PSoC5/Micros_Counter.c ****     #endif /* (Micros_Counter_UsingFixedFunction) */
 732              		.loc 1 471 0
 733 003e 0B60     		str	r3, [r1]
 734              	.LBE70:
 735              	.LBE75:
 115:Generated_Source\PSoC5/Micros_Counter.c ****             
 736              		.loc 1 115 0
 737 0040 FFF7FEFF 		bl	CyEnterCriticalSection
 738              	.LVL8:
 117:Generated_Source\PSoC5/Micros_Counter.c ****             
 739              		.loc 1 117 0
 740 0044 0B4A     		ldr	r2, .L11+28
 741 0046 1378     		ldrb	r3, [r2]	@ zero_extendqisi2
 742 0048 43F01003 		orr	r3, r3, #16
 743 004c 1370     		strb	r3, [r2]
 123:Generated_Source\PSoC5/Micros_Counter.c **** 
 744              		.loc 1 123 0
 745 004e BDE87040 		pop	{r4, r5, r6, lr}
 746              		.cfi_restore 14
 747              		.cfi_restore 6
 748              		.cfi_restore 5
 749              		.cfi_restore 4
 750              		.cfi_def_cfa_offset 0
 120:Generated_Source\PSoC5/Micros_Counter.c ****             
 751              		.loc 1 120 0
 752 0052 FFF7FEBF 		b	CyExitCriticalSection
 753              	.LVL9:
 754              	.L12:
 755 0056 00BF     		.align	2
 756              	.L11:
 757 0058 78650040 		.word	1073767800
 758 005c 68650040 		.word	1073767784
 759 0060 48650040 		.word	1073767752
 760 0064 28650040 		.word	1073767720
ARM GAS  C:\Users\Bruger\AppData\Local\Temp\ccLRF4Uh.s 			page 58


 761 0068 08650040 		.word	1073767688
 762 006c 88650040 		.word	1073767816
 763 0070 38650040 		.word	1073767736
 764 0074 98650040 		.word	1073767832
 765              		.cfi_endproc
 766              	.LFE0:
 767              		.size	Micros_Counter_Init, .-Micros_Counter_Init
 768              		.section	.text.Micros_Counter_Enable,"ax",%progbits
 769              		.align	2
 770              		.global	Micros_Counter_Enable
 771              		.thumb
 772              		.thumb_func
 773              		.type	Micros_Counter_Enable, %function
 774              	Micros_Counter_Enable:
 775              	.LFB1:
 144:Generated_Source\PSoC5/Micros_Counter.c ****     /* Globally Enable the Fixed Function Block chosen */
 776              		.loc 1 144 0
 777              		.cfi_startproc
 778              		@ args = 0, pretend = 0, frame = 0
 779              		@ frame_needed = 0, uses_anonymous_args = 0
 780              		@ link register save eliminated.
 155:Generated_Source\PSoC5/Micros_Counter.c ****     #endif /* (!Micros_Counter_ControlRegRemoved || Micros_Counter_UsingFixedFunction) */
 781              		.loc 1 155 0
 782 0000 024A     		ldr	r2, .L14
 783 0002 1378     		ldrb	r3, [r2]	@ zero_extendqisi2
 784 0004 43F08003 		orr	r3, r3, #128
 785 0008 1370     		strb	r3, [r2]
 786 000a 7047     		bx	lr
 787              	.L15:
 788              		.align	2
 789              	.L14:
 790 000c 78650040 		.word	1073767800
 791              		.cfi_endproc
 792              	.LFE1:
 793              		.size	Micros_Counter_Enable, .-Micros_Counter_Enable
 794              		.section	.text.Micros_Counter_Start,"ax",%progbits
 795              		.align	2
 796              		.global	Micros_Counter_Start
 797              		.thumb
 798              		.thumb_func
 799              		.type	Micros_Counter_Start, %function
 800              	Micros_Counter_Start:
 801              	.LFB2:
 179:Generated_Source\PSoC5/Micros_Counter.c ****     if(Micros_Counter_initVar == 0u)
 802              		.loc 1 179 0
 803              		.cfi_startproc
 804              		@ args = 0, pretend = 0, frame = 0
 805              		@ frame_needed = 0, uses_anonymous_args = 0
 806 0000 F8B5     		push	{r3, r4, r5, r6, r7, lr}
 807              		.cfi_def_cfa_offset 24
 808              		.cfi_offset 3, -24
 809              		.cfi_offset 4, -20
 810              		.cfi_offset 5, -16
 811              		.cfi_offset 6, -12
 812              		.cfi_offset 7, -8
 813              		.cfi_offset 14, -4
 180:Generated_Source\PSoC5/Micros_Counter.c ****     {
ARM GAS  C:\Users\Bruger\AppData\Local\Temp\ccLRF4Uh.s 			page 59


 814              		.loc 1 180 0
 815 0002 1A4C     		ldr	r4, .L27
 816 0004 2378     		ldrb	r3, [r4]	@ zero_extendqisi2
 817 0006 2BB1     		cbz	r3, .L26
 818              	.L17:
 819              	.LBB96:
 820              	.LBB97:
 155:Generated_Source\PSoC5/Micros_Counter.c ****     #endif /* (!Micros_Counter_ControlRegRemoved || Micros_Counter_UsingFixedFunction) */
 821              		.loc 1 155 0
 822 0008 194A     		ldr	r2, .L27+4
 823 000a 1378     		ldrb	r3, [r2]	@ zero_extendqisi2
 824 000c 43F08003 		orr	r3, r3, #128
 825 0010 1370     		strb	r3, [r2]
 826 0012 F8BD     		pop	{r3, r4, r5, r6, r7, pc}
 827              	.L26:
 828              	.LBE97:
 829              	.LBE96:
 830              	.LBB98:
 831              	.LBB99:
  79:Generated_Source\PSoC5/Micros_Counter.c ****             Micros_Counter_CONTROL = ctrl | Micros_Counter_DEFAULT_COMPARE_MODE;
 832              		.loc 1 79 0
 833 0014 164B     		ldr	r3, .L27+4
 834              	.LBB100:
 835              	.LBB101:
 836              	.LBB102:
 837              	.LBB103:
 263:Generated_Source\PSoC5/Micros_Counter.c **** }
 838              		.loc 1 263 0
 839 0016 174A     		ldr	r2, .L27+8
 840              	.LBE103:
 841              	.LBE102:
 842              	.LBE101:
 843              	.LBE100:
  79:Generated_Source\PSoC5/Micros_Counter.c ****             Micros_Counter_CONTROL = ctrl | Micros_Counter_DEFAULT_COMPARE_MODE;
 844              		.loc 1 79 0
 845 0018 1978     		ldrb	r1, [r3]	@ zero_extendqisi2
 846 001a 01F0F801 		and	r1, r1, #248
 847              	.LVL10:
  80:Generated_Source\PSoC5/Micros_Counter.c ****             
 848              		.loc 1 80 0
 849 001e 1970     		strb	r1, [r3]
  83:Generated_Source\PSoC5/Micros_Counter.c ****             
 850              		.loc 1 83 0
 851 0020 1978     		ldrb	r1, [r3]	@ zero_extendqisi2
 852              	.LVL11:
 853 0022 01F0FC01 		and	r1, r1, #252
 854              	.LVL12:
  88:Generated_Source\PSoC5/Micros_Counter.c ****             #endif /* 0 != Micros_Counter_CAPTURE_MODE */ 
 855              		.loc 1 88 0
 856 0026 1970     		strb	r1, [r3]
 857              	.LBB111:
 858              	.LBB110:
 859              	.LBB106:
 860              	.LBB104:
 263:Generated_Source\PSoC5/Micros_Counter.c **** }
 861              		.loc 1 263 0
 862 0028 1378     		ldrb	r3, [r2]	@ zero_extendqisi2
ARM GAS  C:\Users\Bruger\AppData\Local\Temp\ccLRF4Uh.s 			page 60


 863              	.LBE104:
 864              	.LBE106:
 865              		.loc 1 561 0
 866 002a 5906     		lsls	r1, r3, #25
 867              	.LVL13:
 868 002c 04D5     		bpl	.L18
 869              	.LBB107:
 870              	.LBB108:
 395:Generated_Source\PSoC5/Micros_Counter.c ****     #endif /* (Micros_Counter_UsingFixedFunction) */
 871              		.loc 1 395 0
 872 002e 1249     		ldr	r1, .L27+12
 873              	.L22:
 874 0030 0B68     		ldr	r3, [r1]
 875              	.LBE108:
 876              	.LBE107:
 877              	.LBB109:
 878              	.LBB105:
 263:Generated_Source\PSoC5/Micros_Counter.c **** }
 879              		.loc 1 263 0
 880 0032 1378     		ldrb	r3, [r2]	@ zero_extendqisi2
 881              	.LBE105:
 882              	.LBE109:
 883              		.loc 1 561 0
 884 0034 5B06     		lsls	r3, r3, #25
 885 0036 FBD4     		bmi	.L22
 886              	.L18:
 887              	.LVL14:
 888              	.LBE110:
 889              	.LBE111:
 890              	.LBB112:
 891              	.LBB113:
 420:Generated_Source\PSoC5/Micros_Counter.c ****     #endif /* (Micros_Counter_UsingFixedFunction) */
 892              		.loc 1 420 0
 893 0038 104F     		ldr	r7, .L27+16
 894              	.LBE113:
 895              	.LBE112:
 896              	.LBB116:
 897              	.LBB117:
 337:Generated_Source\PSoC5/Micros_Counter.c ****     #endif /* (Micros_Counter_UsingFixedFunction) */
 898              		.loc 1 337 0
 899 003a 114E     		ldr	r6, .L27+20
 900              	.LBE117:
 901              	.LBE116:
 902              	.LBB120:
 903              	.LBB121:
 239:Generated_Source\PSoC5/Micros_Counter.c **** }
 904              		.loc 1 239 0
 905 003c 114D     		ldr	r5, .L27+24
 906              	.LBE121:
 907              	.LBE120:
 908              	.LBB123:
 909              	.LBB114:
 420:Generated_Source\PSoC5/Micros_Counter.c ****     #endif /* (Micros_Counter_UsingFixedFunction) */
 910              		.loc 1 420 0
 911 003e 4FF0FF33 		mov	r3, #-1
 912              	.LBE114:
 913              	.LBE123:
ARM GAS  C:\Users\Bruger\AppData\Local\Temp\ccLRF4Uh.s 			page 61


 914              	.LBB124:
 915              	.LBB118:
 337:Generated_Source\PSoC5/Micros_Counter.c ****     #endif /* (Micros_Counter_UsingFixedFunction) */
 916              		.loc 1 337 0
 917 0042 0022     		movs	r2, #0
 918              	.LBE118:
 919              	.LBE124:
 920              	.LBB125:
 921              	.LBB126:
 471:Generated_Source\PSoC5/Micros_Counter.c ****     #endif /* (Micros_Counter_UsingFixedFunction) */
 922              		.loc 1 471 0
 923 0044 1049     		ldr	r1, .L27+28
 924              	.LBE126:
 925              	.LBE125:
 926              	.LBB128:
 927              	.LBB129:
 263:Generated_Source\PSoC5/Micros_Counter.c **** }
 928              		.loc 1 263 0
 929 0046 0B48     		ldr	r0, .L27+8
 930              	.LBE129:
 931              	.LBE128:
 932              	.LBB131:
 933              	.LBB115:
 420:Generated_Source\PSoC5/Micros_Counter.c ****     #endif /* (Micros_Counter_UsingFixedFunction) */
 934              		.loc 1 420 0
 935 0048 3B60     		str	r3, [r7]
 936              	.LVL15:
 937              	.LBE115:
 938              	.LBE131:
 939              	.LBB132:
 940              	.LBB119:
 337:Generated_Source\PSoC5/Micros_Counter.c ****     #endif /* (Micros_Counter_UsingFixedFunction) */
 941              		.loc 1 337 0
 942 004a 3260     		str	r2, [r6]
 943              	.LVL16:
 944              	.LBE119:
 945              	.LBE132:
 946              	.LBB133:
 947              	.LBB122:
 239:Generated_Source\PSoC5/Micros_Counter.c **** }
 948              		.loc 1 239 0
 949 004c 2A70     		strb	r2, [r5]
 950              	.LBE122:
 951              	.LBE133:
 952              	.LBB134:
 953              	.LBB130:
 263:Generated_Source\PSoC5/Micros_Counter.c **** }
 954              		.loc 1 263 0
 955 004e 0278     		ldrb	r2, [r0]	@ zero_extendqisi2
 956              	.LVL17:
 957              	.LBE130:
 958              	.LBE134:
 959              	.LBB135:
 960              	.LBB127:
 471:Generated_Source\PSoC5/Micros_Counter.c ****     #endif /* (Micros_Counter_UsingFixedFunction) */
 961              		.loc 1 471 0
 962 0050 0B60     		str	r3, [r1]
ARM GAS  C:\Users\Bruger\AppData\Local\Temp\ccLRF4Uh.s 			page 62


 963              	.LBE127:
 964              	.LBE135:
 115:Generated_Source\PSoC5/Micros_Counter.c ****             
 965              		.loc 1 115 0
 966 0052 FFF7FEFF 		bl	CyEnterCriticalSection
 967              	.LVL18:
 117:Generated_Source\PSoC5/Micros_Counter.c ****             
 968              		.loc 1 117 0
 969 0056 0D4A     		ldr	r2, .L27+32
 970 0058 1378     		ldrb	r3, [r2]	@ zero_extendqisi2
 971 005a 43F01003 		orr	r3, r3, #16
 972 005e 1370     		strb	r3, [r2]
 120:Generated_Source\PSoC5/Micros_Counter.c ****             
 973              		.loc 1 120 0
 974 0060 FFF7FEFF 		bl	CyExitCriticalSection
 975              	.LVL19:
 976              	.LBE99:
 977              	.LBE98:
 184:Generated_Source\PSoC5/Micros_Counter.c ****     }
 978              		.loc 1 184 0
 979 0064 0123     		movs	r3, #1
 980 0066 2370     		strb	r3, [r4]
 981 0068 CEE7     		b	.L17
 982              	.L28:
 983 006a 00BF     		.align	2
 984              	.L27:
 985 006c 00000000 		.word	.LANCHOR0
 986 0070 78650040 		.word	1073767800
 987 0074 68650040 		.word	1073767784
 988 0078 48650040 		.word	1073767752
 989 007c 28650040 		.word	1073767720
 990 0080 08650040 		.word	1073767688
 991 0084 88650040 		.word	1073767816
 992 0088 38650040 		.word	1073767736
 993 008c 98650040 		.word	1073767832
 994              		.cfi_endproc
 995              	.LFE2:
 996              		.size	Micros_Counter_Start, .-Micros_Counter_Start
 997              		.section	.text.Micros_Counter_Stop,"ax",%progbits
 998              		.align	2
 999              		.global	Micros_Counter_Stop
 1000              		.thumb
 1001              		.thumb_func
 1002              		.type	Micros_Counter_Stop, %function
 1003              	Micros_Counter_Stop:
 1004              	.LFB3:
 209:Generated_Source\PSoC5/Micros_Counter.c ****     /* Disable Counter */
 1005              		.loc 1 209 0
 1006              		.cfi_startproc
 1007              		@ args = 0, pretend = 0, frame = 0
 1008              		@ frame_needed = 0, uses_anonymous_args = 0
 1009              		@ link register save eliminated.
 212:Generated_Source\PSoC5/Micros_Counter.c ****     #endif /* (!Micros_Counter_ControlRegRemoved || Micros_Counter_UsingFixedFunction) */
 1010              		.loc 1 212 0
 1011 0000 024A     		ldr	r2, .L30
 1012 0002 1378     		ldrb	r3, [r2]	@ zero_extendqisi2
 1013 0004 03F07F03 		and	r3, r3, #127
ARM GAS  C:\Users\Bruger\AppData\Local\Temp\ccLRF4Uh.s 			page 63


 1014 0008 1370     		strb	r3, [r2]
 1015 000a 7047     		bx	lr
 1016              	.L31:
 1017              		.align	2
 1018              	.L30:
 1019 000c 78650040 		.word	1073767800
 1020              		.cfi_endproc
 1021              	.LFE3:
 1022              		.size	Micros_Counter_Stop, .-Micros_Counter_Stop
 1023              		.section	.text.Micros_Counter_SetInterruptMode,"ax",%progbits
 1024              		.align	2
 1025              		.global	Micros_Counter_SetInterruptMode
 1026              		.thumb
 1027              		.thumb_func
 1028              		.type	Micros_Counter_SetInterruptMode, %function
 1029              	Micros_Counter_SetInterruptMode:
 1030              	.LFB4:
 238:Generated_Source\PSoC5/Micros_Counter.c ****     Micros_Counter_STATUS_MASK = interruptsMask;
 1031              		.loc 1 238 0
 1032              		.cfi_startproc
 1033              		@ args = 0, pretend = 0, frame = 0
 1034              		@ frame_needed = 0, uses_anonymous_args = 0
 1035              		@ link register save eliminated.
 1036              	.LVL20:
 239:Generated_Source\PSoC5/Micros_Counter.c **** }
 1037              		.loc 1 239 0
 1038 0000 014B     		ldr	r3, .L33
 1039 0002 1870     		strb	r0, [r3]
 1040 0004 7047     		bx	lr
 1041              	.L34:
 1042 0006 00BF     		.align	2
 1043              	.L33:
 1044 0008 88650040 		.word	1073767816
 1045              		.cfi_endproc
 1046              	.LFE4:
 1047              		.size	Micros_Counter_SetInterruptMode, .-Micros_Counter_SetInterruptMode
 1048              		.section	.text.Micros_Counter_ReadStatusRegister,"ax",%progbits
 1049              		.align	2
 1050              		.global	Micros_Counter_ReadStatusRegister
 1051              		.thumb
 1052              		.thumb_func
 1053              		.type	Micros_Counter_ReadStatusRegister, %function
 1054              	Micros_Counter_ReadStatusRegister:
 1055              	.LFB5:
 262:Generated_Source\PSoC5/Micros_Counter.c ****     return Micros_Counter_STATUS;
 1056              		.loc 1 262 0
 1057              		.cfi_startproc
 1058              		@ args = 0, pretend = 0, frame = 0
 1059              		@ frame_needed = 0, uses_anonymous_args = 0
 1060              		@ link register save eliminated.
 263:Generated_Source\PSoC5/Micros_Counter.c **** }
 1061              		.loc 1 263 0
 1062 0000 014B     		ldr	r3, .L36
 1063 0002 1878     		ldrb	r0, [r3]	@ zero_extendqisi2
 264:Generated_Source\PSoC5/Micros_Counter.c **** 
 1064              		.loc 1 264 0
 1065 0004 7047     		bx	lr
ARM GAS  C:\Users\Bruger\AppData\Local\Temp\ccLRF4Uh.s 			page 64


 1066              	.L37:
 1067 0006 00BF     		.align	2
 1068              	.L36:
 1069 0008 68650040 		.word	1073767784
 1070              		.cfi_endproc
 1071              	.LFE5:
 1072              		.size	Micros_Counter_ReadStatusRegister, .-Micros_Counter_ReadStatusRegister
 1073              		.section	.text.Micros_Counter_ReadControlRegister,"ax",%progbits
 1074              		.align	2
 1075              		.global	Micros_Counter_ReadControlRegister
 1076              		.thumb
 1077              		.thumb_func
 1078              		.type	Micros_Counter_ReadControlRegister, %function
 1079              	Micros_Counter_ReadControlRegister:
 1080              	.LFB6:
 284:Generated_Source\PSoC5/Micros_Counter.c ****     return Micros_Counter_CONTROL;
 1081              		.loc 1 284 0
 1082              		.cfi_startproc
 1083              		@ args = 0, pretend = 0, frame = 0
 1084              		@ frame_needed = 0, uses_anonymous_args = 0
 1085              		@ link register save eliminated.
 285:Generated_Source\PSoC5/Micros_Counter.c **** }
 1086              		.loc 1 285 0
 1087 0000 014B     		ldr	r3, .L39
 1088 0002 1878     		ldrb	r0, [r3]	@ zero_extendqisi2
 286:Generated_Source\PSoC5/Micros_Counter.c **** 
 1089              		.loc 1 286 0
 1090 0004 7047     		bx	lr
 1091              	.L40:
 1092 0006 00BF     		.align	2
 1093              	.L39:
 1094 0008 78650040 		.word	1073767800
 1095              		.cfi_endproc
 1096              	.LFE6:
 1097              		.size	Micros_Counter_ReadControlRegister, .-Micros_Counter_ReadControlRegister
 1098              		.section	.text.Micros_Counter_WriteControlRegister,"ax",%progbits
 1099              		.align	2
 1100              		.global	Micros_Counter_WriteControlRegister
 1101              		.thumb
 1102              		.thumb_func
 1103              		.type	Micros_Counter_WriteControlRegister, %function
 1104              	Micros_Counter_WriteControlRegister:
 1105              	.LFB7:
 305:Generated_Source\PSoC5/Micros_Counter.c ****     Micros_Counter_CONTROL = control;
 1106              		.loc 1 305 0
 1107              		.cfi_startproc
 1108              		@ args = 0, pretend = 0, frame = 0
 1109              		@ frame_needed = 0, uses_anonymous_args = 0
 1110              		@ link register save eliminated.
 1111              	.LVL21:
 306:Generated_Source\PSoC5/Micros_Counter.c **** }
 1112              		.loc 1 306 0
 1113 0000 014B     		ldr	r3, .L42
 1114 0002 1870     		strb	r0, [r3]
 1115 0004 7047     		bx	lr
 1116              	.L43:
 1117 0006 00BF     		.align	2
ARM GAS  C:\Users\Bruger\AppData\Local\Temp\ccLRF4Uh.s 			page 65


 1118              	.L42:
 1119 0008 78650040 		.word	1073767800
 1120              		.cfi_endproc
 1121              	.LFE7:
 1122              		.size	Micros_Counter_WriteControlRegister, .-Micros_Counter_WriteControlRegister
 1123              		.section	.text.Micros_Counter_WriteCounter,"ax",%progbits
 1124              		.align	2
 1125              		.global	Micros_Counter_WriteCounter
 1126              		.thumb
 1127              		.thumb_func
 1128              		.type	Micros_Counter_WriteCounter, %function
 1129              	Micros_Counter_WriteCounter:
 1130              	.LFB8:
 328:Generated_Source\PSoC5/Micros_Counter.c ****     #if(Micros_Counter_UsingFixedFunction)
 1131              		.loc 1 328 0
 1132              		.cfi_startproc
 1133              		@ args = 0, pretend = 0, frame = 0
 1134              		@ frame_needed = 0, uses_anonymous_args = 0
 1135              		@ link register save eliminated.
 1136              	.LVL22:
 337:Generated_Source\PSoC5/Micros_Counter.c ****     #endif /* (Micros_Counter_UsingFixedFunction) */
 1137              		.loc 1 337 0
 1138 0000 014B     		ldr	r3, .L45
 1139 0002 1860     		str	r0, [r3]
 1140 0004 7047     		bx	lr
 1141              	.L46:
 1142 0006 00BF     		.align	2
 1143              	.L45:
 1144 0008 08650040 		.word	1073767688
 1145              		.cfi_endproc
 1146              	.LFE8:
 1147              		.size	Micros_Counter_WriteCounter, .-Micros_Counter_WriteCounter
 1148              		.section	.text.Micros_Counter_ReadCounter,"ax",%progbits
 1149              		.align	2
 1150              		.global	Micros_Counter_ReadCounter
 1151              		.thumb
 1152              		.thumb_func
 1153              		.type	Micros_Counter_ReadCounter, %function
 1154              	Micros_Counter_ReadCounter:
 1155              	.LFB9:
 358:Generated_Source\PSoC5/Micros_Counter.c ****     /* Force capture by reading Accumulator */
 1156              		.loc 1 358 0
 1157              		.cfi_startproc
 1158              		@ args = 0, pretend = 0, frame = 0
 1159              		@ frame_needed = 0, uses_anonymous_args = 0
 1160              		@ link register save eliminated.
 372:Generated_Source\PSoC5/Micros_Counter.c ****     #endif /* (Micros_Counter_UsingFixedFunction) */
 1161              		.loc 1 372 0
 1162 0000 024B     		ldr	r3, .L48
 365:Generated_Source\PSoC5/Micros_Counter.c **** 	#endif/* (Micros_Counter_UsingFixedFunction) */
 1163              		.loc 1 365 0
 1164 0002 034A     		ldr	r2, .L48+4
 1165 0004 1278     		ldrb	r2, [r2]	@ zero_extendqisi2
 372:Generated_Source\PSoC5/Micros_Counter.c ****     #endif /* (Micros_Counter_UsingFixedFunction) */
 1166              		.loc 1 372 0
 1167 0006 1868     		ldr	r0, [r3]
 374:Generated_Source\PSoC5/Micros_Counter.c **** 
ARM GAS  C:\Users\Bruger\AppData\Local\Temp\ccLRF4Uh.s 			page 66


 1168              		.loc 1 374 0
 1169 0008 7047     		bx	lr
 1170              	.L49:
 1171 000a 00BF     		.align	2
 1172              	.L48:
 1173 000c 48650040 		.word	1073767752
 1174 0010 08650040 		.word	1073767688
 1175              		.cfi_endproc
 1176              	.LFE9:
 1177              		.size	Micros_Counter_ReadCounter, .-Micros_Counter_ReadCounter
 1178              		.section	.text.Micros_Counter_ReadCapture,"ax",%progbits
 1179              		.align	2
 1180              		.global	Micros_Counter_ReadCapture
 1181              		.thumb
 1182              		.thumb_func
 1183              		.type	Micros_Counter_ReadCapture, %function
 1184              	Micros_Counter_ReadCapture:
 1185              	.LFB10:
 391:Generated_Source\PSoC5/Micros_Counter.c ****     #if(Micros_Counter_UsingFixedFunction)
 1186              		.loc 1 391 0
 1187              		.cfi_startproc
 1188              		@ args = 0, pretend = 0, frame = 0
 1189              		@ frame_needed = 0, uses_anonymous_args = 0
 1190              		@ link register save eliminated.
 395:Generated_Source\PSoC5/Micros_Counter.c ****     #endif /* (Micros_Counter_UsingFixedFunction) */
 1191              		.loc 1 395 0
 1192 0000 014B     		ldr	r3, .L51
 1193 0002 1868     		ldr	r0, [r3]
 397:Generated_Source\PSoC5/Micros_Counter.c **** 
 1194              		.loc 1 397 0
 1195 0004 7047     		bx	lr
 1196              	.L52:
 1197 0006 00BF     		.align	2
 1198              	.L51:
 1199 0008 48650040 		.word	1073767752
 1200              		.cfi_endproc
 1201              	.LFE10:
 1202              		.size	Micros_Counter_ReadCapture, .-Micros_Counter_ReadCapture
 1203              		.section	.text.Micros_Counter_WritePeriod,"ax",%progbits
 1204              		.align	2
 1205              		.global	Micros_Counter_WritePeriod
 1206              		.thumb
 1207              		.thumb_func
 1208              		.type	Micros_Counter_WritePeriod, %function
 1209              	Micros_Counter_WritePeriod:
 1210              	.LFB11:
 416:Generated_Source\PSoC5/Micros_Counter.c ****     #if(Micros_Counter_UsingFixedFunction)
 1211              		.loc 1 416 0
 1212              		.cfi_startproc
 1213              		@ args = 0, pretend = 0, frame = 0
 1214              		@ frame_needed = 0, uses_anonymous_args = 0
 1215              		@ link register save eliminated.
 1216              	.LVL23:
 420:Generated_Source\PSoC5/Micros_Counter.c ****     #endif /* (Micros_Counter_UsingFixedFunction) */
 1217              		.loc 1 420 0
 1218 0000 014B     		ldr	r3, .L54
 1219 0002 1860     		str	r0, [r3]
ARM GAS  C:\Users\Bruger\AppData\Local\Temp\ccLRF4Uh.s 			page 67


 1220 0004 7047     		bx	lr
 1221              	.L55:
 1222 0006 00BF     		.align	2
 1223              	.L54:
 1224 0008 28650040 		.word	1073767720
 1225              		.cfi_endproc
 1226              	.LFE11:
 1227              		.size	Micros_Counter_WritePeriod, .-Micros_Counter_WritePeriod
 1228              		.section	.text.Micros_Counter_ReadPeriod,"ax",%progbits
 1229              		.align	2
 1230              		.global	Micros_Counter_ReadPeriod
 1231              		.thumb
 1232              		.thumb_func
 1233              		.type	Micros_Counter_ReadPeriod, %function
 1234              	Micros_Counter_ReadPeriod:
 1235              	.LFB12:
 439:Generated_Source\PSoC5/Micros_Counter.c ****     #if(Micros_Counter_UsingFixedFunction)
 1236              		.loc 1 439 0
 1237              		.cfi_startproc
 1238              		@ args = 0, pretend = 0, frame = 0
 1239              		@ frame_needed = 0, uses_anonymous_args = 0
 1240              		@ link register save eliminated.
 443:Generated_Source\PSoC5/Micros_Counter.c ****     #endif /* (Micros_Counter_UsingFixedFunction) */
 1241              		.loc 1 443 0
 1242 0000 014B     		ldr	r3, .L57
 1243 0002 1868     		ldr	r0, [r3]
 445:Generated_Source\PSoC5/Micros_Counter.c **** 
 1244              		.loc 1 445 0
 1245 0004 7047     		bx	lr
 1246              	.L58:
 1247 0006 00BF     		.align	2
 1248              	.L57:
 1249 0008 28650040 		.word	1073767720
 1250              		.cfi_endproc
 1251              	.LFE12:
 1252              		.size	Micros_Counter_ReadPeriod, .-Micros_Counter_ReadPeriod
 1253              		.section	.text.Micros_Counter_WriteCompare,"ax",%progbits
 1254              		.align	2
 1255              		.global	Micros_Counter_WriteCompare
 1256              		.thumb
 1257              		.thumb_func
 1258              		.type	Micros_Counter_WriteCompare, %function
 1259              	Micros_Counter_WriteCompare:
 1260              	.LFB13:
 467:Generated_Source\PSoC5/Micros_Counter.c ****     #if(Micros_Counter_UsingFixedFunction)
 1261              		.loc 1 467 0
 1262              		.cfi_startproc
 1263              		@ args = 0, pretend = 0, frame = 0
 1264              		@ frame_needed = 0, uses_anonymous_args = 0
 1265              		@ link register save eliminated.
 1266              	.LVL24:
 471:Generated_Source\PSoC5/Micros_Counter.c ****     #endif /* (Micros_Counter_UsingFixedFunction) */
 1267              		.loc 1 471 0
 1268 0000 014B     		ldr	r3, .L60
 1269 0002 1860     		str	r0, [r3]
 1270 0004 7047     		bx	lr
 1271              	.L61:
ARM GAS  C:\Users\Bruger\AppData\Local\Temp\ccLRF4Uh.s 			page 68


 1272 0006 00BF     		.align	2
 1273              	.L60:
 1274 0008 38650040 		.word	1073767736
 1275              		.cfi_endproc
 1276              	.LFE13:
 1277              		.size	Micros_Counter_WriteCompare, .-Micros_Counter_WriteCompare
 1278              		.section	.text.Micros_Counter_ReadCompare,"ax",%progbits
 1279              		.align	2
 1280              		.global	Micros_Counter_ReadCompare
 1281              		.thumb
 1282              		.thumb_func
 1283              		.type	Micros_Counter_ReadCompare, %function
 1284              	Micros_Counter_ReadCompare:
 1285              	.LFB14:
 490:Generated_Source\PSoC5/Micros_Counter.c ****     return (CY_GET_REG32(Micros_Counter_COMPARE_LSB_PTR));
 1286              		.loc 1 490 0
 1287              		.cfi_startproc
 1288              		@ args = 0, pretend = 0, frame = 0
 1289              		@ frame_needed = 0, uses_anonymous_args = 0
 1290              		@ link register save eliminated.
 491:Generated_Source\PSoC5/Micros_Counter.c **** }
 1291              		.loc 1 491 0
 1292 0000 014B     		ldr	r3, .L63
 1293 0002 1868     		ldr	r0, [r3]
 492:Generated_Source\PSoC5/Micros_Counter.c **** 
 1294              		.loc 1 492 0
 1295 0004 7047     		bx	lr
 1296              	.L64:
 1297 0006 00BF     		.align	2
 1298              	.L63:
 1299 0008 38650040 		.word	1073767736
 1300              		.cfi_endproc
 1301              	.LFE14:
 1302              		.size	Micros_Counter_ReadCompare, .-Micros_Counter_ReadCompare
 1303              		.section	.text.Micros_Counter_ClearFIFO,"ax",%progbits
 1304              		.align	2
 1305              		.global	Micros_Counter_ClearFIFO
 1306              		.thumb
 1307              		.thumb_func
 1308              		.type	Micros_Counter_ClearFIFO, %function
 1309              	Micros_Counter_ClearFIFO:
 1310              	.LFB15:
 559:Generated_Source\PSoC5/Micros_Counter.c **** 
 1311              		.loc 1 559 0
 1312              		.cfi_startproc
 1313              		@ args = 0, pretend = 0, frame = 0
 1314              		@ frame_needed = 0, uses_anonymous_args = 0
 1315              		@ link register save eliminated.
 1316              	.LBB136:
 1317              	.LBB137:
 263:Generated_Source\PSoC5/Micros_Counter.c **** }
 1318              		.loc 1 263 0
 1319 0000 044A     		ldr	r2, .L73
 1320 0002 1378     		ldrb	r3, [r2]	@ zero_extendqisi2
 1321              	.LBE137:
 1322              	.LBE136:
 1323              		.loc 1 561 0
ARM GAS  C:\Users\Bruger\AppData\Local\Temp\ccLRF4Uh.s 			page 69


 1324 0004 5906     		lsls	r1, r3, #25
 1325 0006 04D5     		bpl	.L65
 1326              	.LBB139:
 1327              	.LBB140:
 395:Generated_Source\PSoC5/Micros_Counter.c ****     #endif /* (Micros_Counter_UsingFixedFunction) */
 1328              		.loc 1 395 0
 1329 0008 0349     		ldr	r1, .L73+4
 1330              	.L70:
 1331 000a 0B68     		ldr	r3, [r1]
 1332              	.LBE140:
 1333              	.LBE139:
 1334              	.LBB141:
 1335              	.LBB138:
 263:Generated_Source\PSoC5/Micros_Counter.c **** }
 1336              		.loc 1 263 0
 1337 000c 1378     		ldrb	r3, [r2]	@ zero_extendqisi2
 1338              	.LBE138:
 1339              	.LBE141:
 1340              		.loc 1 561 0
 1341 000e 5B06     		lsls	r3, r3, #25
 1342 0010 FBD4     		bmi	.L70
 1343              	.L65:
 1344 0012 7047     		bx	lr
 1345              	.L74:
 1346              		.align	2
 1347              	.L73:
 1348 0014 68650040 		.word	1073767784
 1349 0018 48650040 		.word	1073767752
 1350              		.cfi_endproc
 1351              	.LFE15:
 1352              		.size	Micros_Counter_ClearFIFO, .-Micros_Counter_ClearFIFO
 1353              		.global	Micros_Counter_initVar
 1354              		.bss
 1355              		.set	.LANCHOR0,. + 0
 1356              		.type	Micros_Counter_initVar, %object
 1357              		.size	Micros_Counter_initVar, 1
 1358              	Micros_Counter_initVar:
 1359 0000 00       		.space	1
 1360              		.text
 1361              	.Letext0:
 1362              		.file 2 "Generated_Source\\PSoC5\\cytypes.h"
 1363              		.file 3 "Generated_Source\\PSoC5\\CyLib.h"