ARM GAS  C:\Users\Bruger\AppData\Local\Temp\cc4sBB0a.s 			page 1


   1              		.syntax unified
   2              		.cpu cortex-m3
   3              		.fpu softvfp
   4              		.eabi_attribute 20, 1
   5              		.eabi_attribute 21, 1
   6              		.eabi_attribute 23, 3
   7              		.eabi_attribute 24, 1
   8              		.eabi_attribute 25, 1
   9              		.eabi_attribute 26, 1
  10              		.eabi_attribute 30, 2
  11              		.eabi_attribute 34, 1
  12              		.eabi_attribute 18, 4
  13              		.thumb
  14              		.file	"P2.c"
  15              		.text
  16              	.Ltext0:
  17              		.section	.gnu.lto_.profile.24c08683,"",%progbits
  18 0000 789C6366 		.ascii	"x\234cf```a\200\000F\206 \037\000\001d\000\247"
  18      60606061 
  18      80004686 
  18      201F0001 
  18      6400A7
  19              		.text
  20              		.section	.gnu.lto_.jmpfuncs.24c08683,"",%progbits
  21 0000 789C6366 		.ascii	"x\234cf\300\016d\2404\033\003##c=#\210`b``f``abdd\256"
  21      C00E64A0 
  21      341B0323 
  21      23633D23 
  21      88606260 
  22 001d AF6705CA 		.ascii	"\257g\005\312\001\000 \267\002>"
  22      010020B7 
  22      023E
  23              		.text
  24              		.section	.gnu.lto_.inline.24c08683,"",%progbits
  25 0000 789C6366 		.ascii	"x\234cf\300\016z\2404\033\003\003+\013#\003\023\313"
  25      C00E7AA0 
  25      341B0303 
  25      2B0B2303 
  25      13CB
  26 0012 027906B6 		.ascii	"\002y\006\266\005\362L 1F\006\025eFF \305\300\354\320"
  26      05F24C20 
  26      31460615 
  26      65464620 
  26      C5C0ECD0 
  27 0026 F0851922 		.ascii	"\360\205\031\"\316t\201\237\005$\311\304\300\302\014"
  27      CE74819F 
  27      0524C9C4 
  27      C0C20C
  28 0035 540FE4C2 		.ascii	"T\017\344\302\3253c\012\2610(\31312\201\214`\004\031"
  28      D533630A 
  28      B13028CB 
  28      3132818C 
  28      600419
  29 0048 2330C701 		.ascii	"#0\307\001\"e\320\360\235\011l\014+\246\036\006\000"
  29      2265D0F0 
  29      9D096C0C 
  29      2BA61E06 
ARM GAS  C:\Users\Bruger\AppData\Local\Temp\cc4sBB0a.s 			page 2


  29      00
  30 0059 26780EAB 		.ascii	"&x\016\253"
  31              		.text
  32              		.section	.gnu.lto_.pureconst.24c08683,"",%progbits
  33 0000 789C6366 		.ascii	"x\234cf``\340e\200\0006\006)F)&)f)\026)V)\000\005\261"
  33      6060E065 
  33      80003606 
  33      29462926 
  33      29662916 
  34 001a 00C2     		.ascii	"\000\302"
  35              		.text
  36              		.section	.gnu.lto_P2_Write.24c08683,"",%progbits
  37 0000 789C654F 		.ascii	"x\234eOM(DQ\024>\337\275\236\177%\313IYh\232\224(%;"
  37      4D284451 
  37      143EDFBD 
  37      9E7F25CB 
  37      4959689A 
  38 0018 8985ED94 		.ascii	"\211\205\355\224\355\224\246\361\026J\024\303\326}\323"
  38      ED94A6F1 
  38      164A14C3 
  38      D67DD3
  39 0027 D8288514 		.ascii	"\330(\205\024%\232!\371\031\377jv\364\310B\211i6\304"
  39      259A21F9 
  39      19FF6A76 
  39      F4C84289 
  39      6936C4
  40 003a 6250A3D8 		.ascii	"bP\243\330\221\"\304s\356\233\0159u\273\247\323\367"
  40      9122C473 
  40      EE9B0D39 
  40      75BBA7D3 
  40      F7
  41 004b 2BE9FF78 		.ascii	"+\351\377x\370\315\203\250\236\177H\202\030?'\262\012"
  41      F8CD83A8 
  41      9E7F4882 
  41      183F27B2 
  41      0A
  42 005c 05A01702 		.ascii	"\005\240\027\002\015\013\014\343Q<\013\214\333\211\231"
  42      0D0B0CE3 
  42      513C0B8C 
  42      DB8999
  43 006b 12DF9252 		.ascii	"\022\337\222R\352i2e\371m\274\013\242\027\221\323\301"
  43      EA693265 
  43      F96DBC0B 
  43      A21791D3 
  43      C1
  44 007c 327C8C79 		.ascii	"2|\214yI\250))\253@\274o\247\317\276\013\274\213JE\354"
  44      49A82929 
  44      AB40BC6F 
  44      A7CFBE0B 
  44      BC8B4A45 
  45 0091 8D4DD5C2 		.ascii	"\215M\325\302p`\005\222\031\250\365\240\306C| \254\302"
  45      70600592 
  45      19A8F5A0 
  45      C6437C20 
  45      ACC2
  46 00a3 ABC1BB63 		.ascii	"\253\301\273c\307I!\275.1~zw\\Z\035g\342\355g2`[1\365"
  46      C74921BD 
ARM GAS  C:\Users\Bruger\AppData\Local\Temp\cc4sBB0a.s 			page 3


  46      2E317E7A 
  46      775C5A1D 
  46      67E2ED67 
  47 00bc ED382E7D 		.ascii	"\3558.}\3557=7\214\177\216~]\226\344G9X9\022\250\316"
  47      ED373D37 
  47      8C7F8E7E 
  47      5D96E447 
  47      39583912 
  48 00d2 65C23AF2 		.ascii	"e\302:\362\271\027mU\330\312q\366\366\017?`\010\266"
  48      B9176D55 
  48      D8CA71F6 
  48      F60F3F60 
  48      08B6
  49 00e4 1412AE27 		.ascii	"\024\022\256'e\031\245;\336\013\241\177y\215\243\327"
  49      6519A53B 
  49      DE0BA17F 
  49      798DA3D7 
  50 00f4 D1CC7481 		.ascii	"\321\314t\201&\276\011]x\344\344(R\366 \336\205\214"
  50      26BE095D 
  50      78E4E428 
  50      52F620DE 
  50      858C
  51 0106 2D582A4F 		.ascii	"-X*O[\335dS\351B\367\344:_\215f\016\212\3460kE9^\036"
  51      5BDD6453 
  51      E942F7E4 
  51      3A5F8D66 
  51      0E8AE630 
  52 011f 36E0C126 		.ascii	"6\340\301&8\031\2660\007\272@D5\27198\325o2\347\302"
  52      3819B630 
  52      07BA4044 
  52      35B93938 
  52      D56F32E7 
  53 0134 36E3D872 		.ascii	"6\343\330rr\242Y#\376hY\266\361Wm\207\325\336\3302\003"
  53      72A25923 
  53      FE6859B6 
  53      F1576D87 
  53      D5DED832 
  54 0149 CBFE3434 		.ascii	"\313\37644^7\317\262\016\007\347\032\225\355f\257\331"
  54      5E37CFB2 
  54      0E07E71A 
  54      95ED66AF 
  54      D9
  55 015a 1F0C9B5D 		.ascii	"\037\014\233]\235\035}\203\375!3\340\357\350kk\014\370"
  55      9D1D7D83 
  55      FD2133E0 
  55      EFE86B6B 
  55      0CF8
  56 016c 1BEA4264 		.ascii	"\033\352Bd\014\005{\006\315\342\201p0\334\035j\355\016"
  56      0C057B06 
  56      CDE28170 
  56      30DC1D6A 
  56      ED0E
  57 017e 0FFC00E1 		.ascii	"\017\374\000\341\207\240>"
  57      87A03E
  58              		.text
  59              		.section	.gnu.lto_P2_SetDriveMode.24c08683,"",%progbits
  60 0000 789C7D95 		.ascii	"x\234}\225kHSa\030\307\337\347\234\271\315t.o\250\363"
ARM GAS  C:\Users\Bruger\AppData\Local\Temp\cc4sBB0a.s 			page 4


  60      6B485361 
  60      18C7DFE7 
  60      9CB9CD74 
  60      2E6FA8F3 
  61 0014 8ECEE12D 		.ascii	"\216\316\341-o\370=\350\203_\005\277\012!\272o\225 "
  61      6FF83DE8 
  61      835F05BF 
  61      0A21BA6F 
  61      9520
  62 0026 F5D94D8D 		.ascii	"\365\331M\215J\"\246\225\226\"\245\025Z\232\346\245"
  62      4A22A695 
  62      9622A515 
  62      5A9AE6A5 
  63 0036 EC623697 		.ascii	"\354b6\227\371\301\300T\002\311\310\240\2544(\\J5C\354"
  63      F9C1C054 
  63      02C9C8A0 
  63      AC34285C 
  63      4A3543EC 
  64 004a 79DEB3CB 		.ascii	"y\336\263\313\273\023k\270\377\331\363\347\375\377\337"
  64      BB136BB8 
  64      FFD9F3E7 
  64      FDFFDF
  65 0059 DF793739 		.ascii	"\337y792\373\367e\302\267C\307X\026^Af 9\026\030\263"
  65      32FBF765 
  65      C2B743C7 
  65      58165E41 
  65      66203916 
  66 006f EB2500FA 		.ascii	"\353%\000\372\300\2005J\320\010\233\222[\002\207s\360"
  66      C080354A 
  66      D0089B92 
  66      5B028773 
  66      F0
  67 0080 4A84E596 		.ascii	"J\204\345\226\315f\333\352\233L<\235\350\221\030\333"
  67      CD66DBEA 
  67      9B4C3C9D 
  67      E89118DB 
  68 0090 96941AE8 		.ascii	"\226\224\032\350\007\013.\371\342\331\3547\310\351\300"
  68      070B2EF9 
  68      E2D9EC37 
  68      C8E9C0
  69 009f F0F35EDB 		.ascii	"\360\363^\333\312\262d\276a\26359\247\206m\207\301\203"
  69      CAB264BE 
  69      61B33539 
  69      A7866D87 
  69      C183
  70 00b1 9D032063 		.ascii	"\235\003 c\002\012L\220kbh0\270\015fZ\354n\331[\211"
  70      020A4C90 
  70      6B626830 
  70      B80D665A 
  70      EC6ED95B 
  71 00c6 D0B660F7 		.ascii	"\320\266`\367A\245\023\356\200\026\360:\022\343\264"
  71      41A513EE 
  71      8016F03A 
  71      12E3B4
  72 00d5 EDEF6FBF 		.ascii	"\355\357o\277k;[\006\345\022f$\031E\326\220\204\001"
  72      6B3B5B06 
  72      E5126624 
ARM GAS  C:\Users\Bruger\AppData\Local\Temp\cc4sBB0a.s 			page 5


  72      1945D690 
  72      8401
  73 00e7 C5B5F451 		.ascii	"\305\265\364QG\242'\011\2475\021$\2214\032H\242H\214"
  73      47A22709 
  73      A7351124 
  73      91341A48 
  73      A2488C
  74 00fa E44593C4 		.ascii	"\344E\223\304\320\030K\022G\022O^\002I\"\215I$D''\223"
  74      D0184B12 
  74      47124F5E 
  74      0249228D 
  74      49244427 
  75 0110 974A9246 		.ascii	"\227J\222Fc:I\006I&yY$\3314\232IrH,\344\345\222\344"
  75      633A4906 
  75      49267959 
  75      24D9349A 
  75      4972482C 
  76 0128 D1984F52 		.ascii	"\321\230OR@RH^\021I1\215%$\245$e\3441\266\216o:\360"
  76      4052485E 
  76      1149318D 
  76      2524A524 
  76      65E431B6 
  77 0140 4F38E055 		.ascii	"O8\340U^\005\327\317\326\317\335\032:\206_\022\235\376"
  77      5E05D7CF 
  77      D6CFDD1A 
  77      3A865F12 
  77      9DFE
  78 0152 CCC49976 		.ascii	"\314\304\231v\375\206\344\2214\216\353v\233\206\016"
  78      FD86E491 
  78      348EEB76 
  78      9B860E
  79 0161 EDFDFAAB 		.ascii	"\355\375\372\253%\305b4~\370h\277\251\353\201n{\013"
  79      25C56234 
  79      7EF868BF 
  79      A9EB816E 
  79      7B0B
  80 0173 9E75180C 		.ascii	"\236u\030\014\202\011\206\000\277_\270\013=\300V\241"
  80      82098600 
  80      BF5FB80B 
  80      3DC056A1 
  81 0183 694DA7D4 		.ascii	"iM\247\324\311\330\210s\363o\2552k\320\302\374\233\357"
  81      C9D88873 
  81      F36FAD32 
  81      6BD0C2FC 
  81      9BEF
  82 0195 5B2F799D 		.ascii	"[/y\235\354\336\367\276\360\253\037\306\012!\213\177"
  82      ECDEF7BE 
  82      F0AB1FC6 
  82      0A218B7F 
  83 01a5 61625687 		.ascii	"abV\207\026f\227\306\277\315\206\361l\024\203\021\036"
  83      166697C6 
  83      BFCD86F1 
  83      6C148311 
  83      1E
  84 01b6 69DEF12E 		.ascii	"i\336\361.\321\363\035tbK8\2728\273\332\201\346\377"
  84      D1F31D74 
  84      624B38BA 
ARM GAS  C:\Users\Bruger\AppData\Local\Temp\cc4sBB0a.s 			page 6


  84      38BBDA81 
  84      E6FF
  85 01c8 B1DF4376 		.ascii	"\261\337Cv\\\317\370\201|MV\342\021\230\230\333\337"
  85      5CCFF881 
  85      7C4D56E2 
  85      119898DB 
  85      DF
  86 01d9 1E94F9CD 		.ascii	"\036\224\371\315\267\371\316c\254sqA\023(\031\365\227"
  86      B7F9CE63 
  86      AC737141 
  86      132819F5 
  86      97
  87 01ea 8CA90E20 		.ascii	"\214\251\016 \022+\304\2330\240\345\275Q?u\024\2777"
  87      122BC49B 
  87      30A0E5BD 
  87      513F7514 
  87      BF37
  88 01fc 831833A2 		.ascii	"\203\0303\242\033D\035r\303qNmT\250\177x\251\243\351"
  88      1B441D72 
  88      C3714E6D 
  88      54A87F78 
  88      A9A3E9
  89 020f 9F62A86F 		.ascii	"\237b\250o\307\310\251\333}\324k\216?.)P2\341/\271\257"
  89      C7C8A9DB 
  89      7DD46B8E 
  89      3F2E2950 
  89      32E12FB9 
  90 0224 A28EC10A 		.ascii	"\242\216\301\012\221:\026-5u\034\247\216\025c\361\350"
  90      913A162D 
  90      35751CA7 
  90      8E1563F1 
  90      E8
  91 0235 065187DC 		.ascii	"\006Q\207\334\360\001\247\216W\250w\275\324\011\230"
  91      F001A78E 
  91      57A877BD 
  91      D40998
  92 0244 98DFE8BA 		.ascii	"\230\337\350\272`\340\324\027}\324\356\351\231Ic\240"
  92      60E0D417 
  92      7DD4EEE9 
  92      994963A0 
  93 0254 64D25FF2 		.ascii	"d\322_\362PE\235\210\025\"u\022Zjj\023\247N\022c\311"
  93      50459D88 
  93      15227512 
  93      5A6A6A13 
  93      A74E1263 
  94 0269 E8065187 		.ascii	"\350\006Q\207\334\360\021\247NV\250])J<\025\023\347"
  94      DCF011A7 
  94      4E56A85D 
  94      294A3C15 
  94      13E7
  95 027b BA5ADD07 		.ascii	"\272Z\335\0078\365%\037\265\243\333\336\021\036(y\354"
  95      38F5251F 
  95      B5A3DBDE 
  95      111E2879 
  95      EC
  96 028c 2F79A2A2 		.ascii	"/y\242\242N\303\012\221:\035-5u\006\247N\027c\231\350"
  96      4EC30A91 
ARM GAS  C:\Users\Bruger\AppData\Local\Temp\cc4sBB0a.s 			page 7


  96      3A1D2D35 
  96      7506A74E 
  96      176399E8 
  97 02a0 065187DC 		.ascii	"\006Q\207\334p\212Sg*\324\363^\352,L\214.\016\364*\277"
  97      708A5367 
  97      2AD4F35E 
  97      EA2C4C8C 
  97      2E0EF42A 
  98 02b5 EBCB3E6A 		.ascii	"\353\313>jOo\363\2006P\362\324_2\255\242\316\306\012"
  98      4F6FF380 
  98      3650F2D4 
  98      5F32ADA2 
  98      CEC60A
  99 02c8 91DA8C96 		.ascii	"\221\332\214\226\232:\207S\233\305\230\005\335 \352"
  99      9A3A8753 
  99      9BC59805 
  99      DD20EA
 100 02d7 901B3EE3 		.ascii	"\220\033>\343\324\026\205z\331K\235\213\211\236.\317"
 100      D416857A 
 100      D94B9D8B 
 100      899E2ECF 
 101 02e7 6B85BAC3 		.ascii	"k\205\272\303G\375\366\332\354\234>P\342\364\227\314"
 101      47FDF6DA 
 101      EC9C3E50 
 101      E2F497CC 
 102 02f7 A8A8F3B0 		.ascii	"\250\250\363\260B\244\316GKM]\300\251\363\305X!\272"
 102      42A4CE47 
 102      4B4D5DC0 
 102      A9F3C558 
 102      21BA
 103 0309 41D42137 		.ascii	"A\324!7tq\352B\205z\325K]\204\211\3633\3035\034\272"
 103      7471EA42 
 103      857AD54B 
 103      5D8489F3 
 103      33C3351C 
 104 031e D307DDD7 		.ascii	"\323\007\335\327\261{,P\361\334_1\253b.\306\002\221"
 104      B17B2C50 
 104      F1DC5F31 
 104      AB622EC6 
 104      0291
 105 0330 B9042D35 		.ascii	"\271\004-5s)g.\021ce\350\0061\207\332\357\005G.ck`w"
 105      7329672E 
 105      116365E8 
 105      063187DA 
 105      EF05472E 
 106 0348 5EADA0C5 		.ascii	"^\255\240\305\364\224]\307'&>\035\360Y\221Ra=am\250"
 106      F4945DC7 
 106      27263E1D 
 106      F0599152 
 106      613D616D 
 107 035d 3969AD3B 		.ascii	"9i\255;ZU\177\252\241\326Z]YU\177\244\274\272\262\364"
 107      5A557FAA 
 107      A1D65A5D 
 107      59557FA4 
 107      BCBAB2F4 
 108 0371 502DD31C 		.ascii	"P-\323\034\257\257\263\376\005\314\210\202\335"
 108      AFAFB3FE 
ARM GAS  C:\Users\Bruger\AppData\Local\Temp\cc4sBB0a.s 			page 8


 108      05CC8882 
 108      DD
 109              		.text
 110              		.section	.gnu.lto_P2_Read.24c08683,"",%progbits
 111 0000 789C6366 		.ascii	"x\234cf\300\004R@|\035\210\345\200\230\221\231\201\221"
 111      C0045240 
 111      7C1D88E5 
 111      80989199 
 111      8191
 112 0012 69C23906 		.ascii	"i\3029\006\206F\016&FF\020\203\201\221\241\236\211\261"
 112      86460E26 
 112      46461083 
 112      8191A19E 
 112      89B1
 113 0024 9EF125D3 		.ascii	"\236\361%\323G&\3063;\377]fT_\332\320\320\364\241i\377"
 113      4726C633 
 113      3BFF5D66 
 113      545FDAD0 
 113      D0F4A169 
 114 0039 1DEE5689 		.ascii	"\035\356V\211\237L\014\014\237\231\030\030u\244\030"
 114      9F4C0C0C 
 114      9F991818 
 114      75A418
 115 0048 3541E630 		.ascii	"5A\3460.gTg\000*\374\330\362\367:7[KCC\203\000H\036"
 115      2E675467 
 115      002AFCD8 
 115      F2F73A37 
 115      5B4B4343 
 116 0060 28B18291 		.ascii	"(\261\202\221\215\021H\257\027:\320\360\377\377\347"
 116      8D1148AF 
 116      173AD0F0 
 116      FFFFE7
 117 006f 3F135FD8 		.ascii	"?\023_\3301231\200\3643<\001\022 \253\23621\201h\346"
 117      31323331 
 117      80F4333C 
 117      011220AB 
 117      9E323181 
 118 0085 5B8C87BE 		.ascii	"[\214\207\276u]\233\317\005\322\363\235\011d\357\343"
 118      755D9BCF 
 118      05D2F39D 
 118      0964EFE3 
 119 0095 4B8B3E70 		.ascii	"K\213>p\276`\372\311\304\270pQc\003\013\310\206\373"
 119      BE60FAC9 
 119      C4B87051 
 119      63030BC8 
 119      86FB
 120 00a7 4FCE5FE4 		.ascii	"O\316_\344\000\0131\200\270\007?\256\337\3021\227qv"
 120      000B3180 
 120      B8073FAE 
 120      DFC23197 
 120      7176
 121 00b9 634BE301 		.ascii	"cK\343\001\331\237LL\214+\031\245\030W1\002\335\304"
 121      D99F4C4C 
 121      8C2B19A5 
 121      18573102 
 121      DDC4
 122 00cb B89A712E 		.ascii	"\270\232q.#\303=\306\306\006n\250\201`+\031AV\001\231"
ARM GAS  C:\Users\Bruger\AppData\Local\Temp\cc4sBB0a.s 			page 9


 122      23C33DC6 
 122      C6066EA8 
 122      81602B19 
 122      41560199 
 123 00df 32EEA979 		.ascii	"2\356\251y\251E\211%\251)\361\301\371\245E\311\2511"
 123      A9458925 
 123      A929F1C1 
 123      F9A545C9 
 123      A931
 124 00f1 01C1F9CE 		.ascii	"\001\301\371\316\2461\001Fz\311\014\000\203\007YQ"
 124      A6310146 
 124      7AC90C00 
 124      83075951 
 125              		.text
 126              		.section	.gnu.lto_P2_ReadDataReg.24c08683,"",%progbits
 127 0000 789C6366 		.ascii	"x\234cf\300\004R@|\035\210\345\200\230\221\231\201\221"
 127      C0045240 
 127      7C1D88E5 
 127      80989199 
 127      8191
 128 0012 69C23906 		.ascii	"i\3029\006\206F\016&FF\020\203\201\221\241\236\211\261"
 128      86460E26 
 128      46461083 
 128      8191A19E 
 128      89B1
 129 0024 9EF125D3 		.ascii	"\236\361%\323G&\3063;\377]fT_\332\320\320\364\341\320"
 129      4726C633 
 129      3BFF5D66 
 129      545FDAD0 
 129      D0F4E1D0 
 130 0038 D53BDCAD 		.ascii	"\325;\334\255\022?\231\030\030>310\352H1j\202\314a\\"
 130      123F9918 
 130      183E3331 
 130      30EA4831 
 130      6A82CC61 
 131 004d CEA8CE00 		.ascii	"\316\250\316\000T\370\261\345\357un\266\226\206\206"
 131      54F8B1E5 
 131      EF756EB6 
 131      968686
 132 005c 0601903C 		.ascii	"\006\001\220<Pb\005#\033#\220^/t\240\341\377\377\317"
 132      50620523 
 132      1B23905E 
 132      2F74A0E1 
 132      FFFFCF
 133 006f D726BDD0 		.ascii	"\327&\275\320fbfb\000\351gx\002$@V=eb\002\321\314\267"
 133      66626662 
 133      00E96778 
 133      02244056 
 133      3D656202 
 134 0086 180F7DEB 		.ascii	"\030\017}\353\372\266\212\013\244\347;\023\310\336\326"
 134      FAB68A0B 
 134      A4E73B13 
 134      C8DED6
 135 0095 13879A78 		.ascii	"\023\207\232x_0\375db\\\260\250\261\201\005d\303\375"
 135      5F30FD64 
 135      625CB0A8 
 135      B1810564 
ARM GAS  C:\Users\Bruger\AppData\Local\Temp\cc4sBB0a.s 			page 10


 135      C3FD
 136 00a7 27E72F72 		.ascii	"'\347/r\200\205\030@\334\233]\367\366q\316e\234\335"
 136      80851840 
 136      DC9B5DF7 
 136      F671CE65 
 136      9CDD
 137 00b9 D8D27840 		.ascii	"\330\322x@\366'\023\023\343JF)\306U\214@71\256f\234"
 137      F6271313 
 137      E34A4629 
 137      C6558C40 
 137      3731AE66 
 138 00ce CBC8708F 		.ascii	"\313\310p\217\261\261\201\033j \330JF\220U@\246\214"
 138      B1B1811B 
 138      6A20D84A 
 138      46905540 
 138      A68C
 139 00e0 7B6A5E6A 		.ascii	"{j^jQbIjJ|p~iQrjL@p\276\263iL\200\221^2\003\000h}X\323"
 139      5162496A 
 139      4A7C707E 
 139      6951726A 
 139      4C4070BE 
 140              		.text
 141              		.section	.gnu.lto_P2_SetInterruptMode.24c08683,"",%progbits
 142 0000 789C6DD4 		.ascii	"x\234m\324]L\034U\024\007\360{\356\354\314\316\316\356"
 142      5D4C1C55 
 142      1407F07B 
 142      EEECCCCE 
 142      CEEE
 143 0012 EC0C4340 		.ascii	"\354\014C@(\004,\021\361\301\330\244\306\367&>\370\332"
 143      28042C11 
 143      F1C1D8A4 
 143      C6F7263E 
 143      F8DA
 144 0024 A4AF4DD4 		.ascii	"\244\257M\324\264\233\330\007\273M\255/\366\241\263"
 144      B49BD807 
 144      BB4DAD2F 
 144      F6A1B3
 145 0033 B05A6842 		.ascii	"\260ZhB\272\"m\221J\032\264\037(V\320\212\005v\325\265"
 145      BA226D91 
 145      4A1AB41F 
 145      2856D08A 
 145      0576D5B5 
 146 0047 D0DAA4A1 		.ascii	"\320\332\244\241\315\332\"\224\240(\001-\211Vq\255@"
 146      CDDA2294 
 146      A028012D 
 146      895671AD 
 146      40
 147 0058 138BF79E 		.ascii	"\023\213\367\236;\263{\263\353&0g\376\271\367\314\357"
 147      3BB37BB3 
 147      EB263067 
 147      FEB9F7CC 
 147      EF
 148 0069 9EFD5048 		.ascii	"\236\375PH\371k\221\375\235\326\010y\232]\241\222\000"
 148      F96B91FD 
 148      9DD60879 
 148      9A5DA192 
 148      00
ARM GAS  C:\Users\Bruger\AppData\Local\Temp\cc4sBB0a.s 			page 11


 149 007a 4DDD2424 		.ascii	"M\335$$\241S\252\264\267\020\327\010\360\377\021\005"
 149      A153AAB4 
 149      B710D708 
 149      F0FF1105 
 150 008a 02220E50 		.ascii	"\002\"\016P\025c\015c\0254\021k4\210\261\216q\020t\021"
 150      15630D63 
 150      1534116B 
 150      3488B18E 
 150      71107411 
 151 009e EB3484B1 		.ascii	"\3534\204\261\201q\010\014\021\0334\214q\004\3430DD"
 151      8171080C 
 151      111B348C 
 151      7104E330 
 151      4444
 152 00b0 1CA126C6 		.ascii	"\034\241&\306Q\214M\210\2128J-\214m\214-\260El\323\212"
 152      518C4D88 
 152      8A384A2D 
 152      8C6D8C2D 
 152      B0456CD3 
 153 00c5 3BDB58EC 		.ascii	";\333X\354d\032X\\\001\216\210\035\000^\020 G\250\022"
 153      641A585C 
 153      018E881D 
 153      005E1020 
 153      47A812
 154 00d8 50B5A01E 		.ascii	"P\265\240\0362\302\0213j\331\025\016\034\201\025\272"
 154      32C21133 
 154      6AD9150E 
 154      1C8115BA 
 155 00e8 4A21951D 		.ascii	"J!\225\035\354\011\267\234s]\367\317\367W_q\273_\332"
 155      EC09B79C 
 155      735DF7CF 
 155      F7575F71 
 155      BB5FDA
 156 00fb A084E4A9 		.ascii	"\240\204\344\251\230\007\\\200\026\266fy\264\377\260"
 156      98075C80 
 156      16B66679 
 156      B4FFB0
 157 010a D2088495 		.ascii	"\322\010\204\2257\026\327\363\221{t\203\202\315o{g\226"
 157      3716D7F3 
 157      917B7483 
 157      82CD6F7B 
 157      6796
 158 011c FF56F82D 		.ascii	"\377V\370-\245\374vp\262{8\330\374\201\353\266f\247"
 158      A5FC7670 
 158      B27B38D8 
 158      FC81EBB6 
 158      66A7
 159 012e 86DD1D2C 		.ascii	"\206\335\035,W`\000\024\326\016>\204-\360\021l!,\"0"
 159      57600014 
 159      D60E3E84 
 159      2DF0116C 
 159      212C2230 
 160 0142 08CD6CF5 		.ascii	"\010\315l\365\257\033+\027L\345)\354\273\2308\363 ,"
 160      AF1B2B17 
 160      4CE529EC 
 160      BB9838F3 
 160      202C
ARM GAS  C:\Users\Bruger\AppData\Local\Temp\cc4sBB0a.s 			page 12


 161 0154 76DEF777 		.ascii	"v\336\367w~\374?;/B3_\276\232\374w&\254%\231\332\026"
 161      7EFC3F3B 
 161      2F42335F 
 161      BE9AFC77 
 161      26AC2599 
 162 016a 58F80434 		.ascii	"X\370\0044`\327!'\353nn\346\257\336n\177Vy\"\004\374"
 162      60D72127 
 162      EB6E6EE6 
 162      AFDE6E7F 
 162      56792204 
 163 017f 4906DF19 		.ascii	"I\006\337\031\001\276\325de\300\342\3676\257\034^U\362"
 163      01BED564 
 163      65C0E2F7 
 163      36AF1C5E 
 163      55F2
 164 0191 AA8A57D5 		.ascii	"\252\212W\325\274\252\341U-\257\352xU\317\253\006^5"
 164      BCAAE155 
 164      2DAFEA78 
 164      55CFAB06 
 164      5E35
 165 01a3 F26A2BAF 		.ascii	"\362j+\257\232xE\310\022{.\037\3572;;\273*s\320\266"
 165      9A7845C8 
 165      127B2E1F 
 165      EF323B3B 
 165      BB2A73D0 
 166 01b8 FED62FA3 		.ascii	"\376\326/\243op\312\032\335\272FC\014\232\353=\337f"
 166      6F70CA1A 
 166      DDBA4643 
 166      0C9AEB3D 
 166      DF66
 167 01ca DDC3E310 		.ascii	"\335\303\343\020\030b\247\230\206\344\335\266jo\015"
 167      1862A798 
 167      86E4DDB6 
 167      6A6F0D
 168 01d9 5BB0B074 		.ascii	"[\260\260t+\247\343\002v\210a\266\200\277\226\331]{"
 168      2BA7E302 
 168      768861B6 
 168      80BF96D9 
 168      5D7B
 169 01eb 0BEBD83A 		.ascii	"\013\353\330:{\364\237\321\003b\265\271F#d\016\256t"
 169      7BF49FD1 
 169      0362B5B9 
 169      4623640E 
 169      AE74
 170 01fd F53FC603 		.ascii	"\365?\306\003\266\267\353\273\316\343\006\337\253\246"
 170      B6B7EBBB 
 170      CEE306DF 
 170      ABA6
 171 020b 8E25DC00 		.ascii	"\216%\334\000\221\333\251\204\337N\345\246\307\314>"
 171      91DBA984 
 171      DF4EE5A6 
 171      C7CC3E
 172 021a 389D4826 		.ascii	"8\235H&\262\352\006\325\340S6\314\317\370S\340\022\364"
 172      B2EA06D5 
 172      E05336CC 
 172      CFF853E0 
 172      12F4
ARM GAS  C:\Users\Bruger\AppData\Local\Temp\cc4sBB0a.s 			page 13


 173 022c 016B8A4F 		.ascii	"\001k\212O\013\024\017pm\314;\200!\016p\353\247\211"
 173      0B140F70 
 173      6DCC3B80 
 173      210E70EB 
 173      A789
 174 023e E3F8862B 		.ascii	"\343\370\206+\354\255\370\274\344\000\206$V\013\342"
 174      ECADF8BC 
 174      E4008624 
 174      560BE2
 175 024d EFC73CB1 		.ascii	"\357\307<\261]&N\317uf\261\233\372\266/\356\270=\361"
 175      5D264ECF 
 175      7566B19B 
 175      FAB62FEE 
 175      B83DF1
 176 0260 A42C1C29 		.ascii	"\244,\034)\010\277@\241\215\3355i\304\276\320\022\302"
 176      08BF40A1 
 176      8DDD3569 
 176      C4BED012 
 176      C2
 177 0271 B3B9851C 		.ascii	"\263\271\205\034~\006\225\000\201\313%BK\022\006\213"
 177      7E069500 
 177      81CB2542 
 177      4B12068B 
 178 0281 33F58595 		.ascii	"3\365\205\225e\302L\307\370{A\024v\371\302\351\233="
 178      65C24CC7 
 178      F87B4114 
 178      76F9C2E9 
 178      9B3D
 179 0293 F39A4C1C 		.ascii	"\363\232L\034-\020\307\220X\211\355ui\210\343\036\321"
 179      2D10C790 
 179      5889ED75 
 179      6988E31E 
 179      D1
 180 02a4 11C4D9FE 		.ascii	"\021\304\331\376\337N\232H\324\011\214\227\020\035\211"
 180      DF4E9A48 
 180      D4098C97 
 180      101D89
 181 02b3 182A0E71 		.ascii	"\030*\016q\334#V\227\021{\357\3765\002H|\307'\036[9"
 181      DC235697 
 181      117BEFFE 
 181      3502487C 
 181      C7271E5B 
 182 02c8 31109489 		.ascii	"1\020\224\211\351\0021\203\304jloHS\364\211U\202x\376"
 182      E9023183 
 182      C46A6C6F 
 182      4853F489 
 182      558278FE 
 183 02dc 87371F86 		.ascii	"\2077\037\206\220h\023\370\262\204X%\021\303\305)\372"
 183      906813F8 
 183      B2845825 
 183      11C3C529 
 183      FA
 184 02ed C4DA32E2 		.ascii	"\304\3322\342\320\346\273\027\261\233\332\355\023\373"
 184      D0E6BB17 
 184      B19BDAED 
 184      13FB
 185 02fb 067EEF0C 		.ascii	"\006~\357\014\311\304\257\012\304\257\221X\213\355#"
ARM GAS  C:\Users\Bruger\AppData\Local\Temp\cc4sBB0a.s 			page 14


 185      C9C4AF0A 
 185      C4AF9158 
 185      8BED23
 186 030a D214D31E 		.ascii	"\322\024\323\036\261F\020\177\356|p\011\317\255<N ["
 186      B146107F 
 186      EE7C7009 
 186      CFAD3C4E 
 186      205B
 187 031c 42AC9188 		.ascii	"B\254\221\210fq\212i\217X_F<\225Z?+\276<'|bj\352\350"
 187      66718A69 
 187      8F585F46 
 187      3C955A3F 
 187      2BBE3C27 
 188 0335 6454267E 		.ascii	"dT&~S ^Ab=\266\217JS\364\211u\202xf\246\343a\024\211"
 188      53205E41 
 188      623DB68F 
 188      4A53F489 
 188      75827866 
 189 034e 3B084C94 		.ascii	";\010L\224\020\353$\242U\234\242Ol,#>\272\374h\004?"
 189      10EB24A2 
 189      559CA24F 
 189      6C2C233E 
 189      BAFC6804 
 190 0363 D9EA499F 		.ascii	"\331\352I\2378\237\274q\037d\342d\201x\025\211\215\330"
 190      389FBC71 
 190      1F64E264 
 190      81781589 
 190      8DD8
 191 0375 DE96A698 		.ascii	"\336\226\246\230\361\210\015\202\230_\350\337\216B\227"
 191      F1880D82 
 191      985FE8DF 
 191      8E4297
 192 0384 FD225D2B 		.ascii	"\375\"]+!6H\304\012rg\2337\305\214Gl*#\266\236\233\315"
 192      213648C4 
 192      0A72679B 
 192      37C58C47 
 192      6C2A23B6 
 193 039b E381D553 		.ascii	"\343\201\325S>1=?\363\207\"\023\277-\020\257#\261\011"
 193      3E313D3F 
 193      F3872213 
 193      BF2D10AF 
 193      23B109
 194 03ae DB3B48FC 		.ascii	"\333;H\374\021\022\331\036\2137\343\017]\242\300S\366"
 194      1112D91E 
 194      8B37E30F 
 194      5DA2C053 
 194      F6
 195 03bf C35AFF42 		.ascii	"\303Z\377Bl\177\354\340\313\207b{_\334\025\177\375\340"
 195      6C7FECE0 
 195      CB87627B 
 195      5FDC157F 
 195      FDE0
 196 03d1 9ED8EE9D 		.ascii	"\236\330\356\235\273\342\317?\267{\347\366g\366\020"
 196      BBE2CF3F 
 196      B77BE7F6 
 196      67F610
 197 03e0 FD40FCB5 		.ascii	"\375@\374\265}\207\366\305\367\007^\215\357\215\375"
ARM GAS  C:\Users\Bruger\AppData\Local\Temp\cc4sBB0a.s 			page 15


 197      7D87F6C5 
 197      F7075E8D 
 197      EF8DFD
 198 03ef 0722CD71 		.ascii	"\007\"\315q\037"
 198      1F
 199              		.text
 200              		.section	.gnu.lto_P2_ClearInterrupt.24c08683,"",%progbits
 201 0000 789C6366 		.ascii	"x\234cf\300\004R@|\035\210\345\200\230\221\231\201\221"
 201      C0045240 
 201      7C1D88E5 
 201      80989199 
 201      8191
 202 0012 69C23906 		.ascii	"i\3029\006\206F\016&FF\020\203\201\221\241\236\211\261"
 202      86460E26 
 202      46461083 
 202      8191A19E 
 202      89B1
 203 0024 9EF125D3 		.ascii	"\236\361%\323G&\3063;\377]fT_\332\320\320\364a\323\377"
 203      4726C633 
 203      3BFF5D66 
 203      545FDAD0 
 203      D0F461D3 
 204 0039 9CE95312 		.ascii	"\234\351S\022~210|fb`\324\221b\324\004\231\303\270\234"
 204      7E323130 
 204      7C666260 
 204      D49162D4 
 204      0499C3B8 
 205 004e 519D01A8 		.ascii	"Q\235\001\250\360c\313\337\353\334l-\015\015\015\002"
 205      F063CBDF 
 205      EBDC6C2D 
 205      0D0D0D02 
 206 005e 2079A0C4 		.ascii	" y\240\304\012F6F \275^\350@\303\377\377\233\377]>a"
 206      0A463646 
 206      20BD5EE8 
 206      40C3FFFF 
 206      9BFF5D3E 
 207 0073 CFCCCCC4 		.ascii	"\317\314\314\304\000\322\317\360\004H\200\254z\312\304"
 207      00D2CFF0 
 207      044880AC 
 207      7ACAC4
 208 0082 04A2996F 		.ascii	"\004\242\231o1\036\372\326\365n\277\021H\317w&\220\275"
 208      311EFAD6 
 208      F56EBF11 
 208      48CF7726 
 208      90BD
 209 0094 3B7ECD6C 		.ascii	";~\315ldy\301\364\223\211\261\251\273\261\201\005d\303"
 209      6479C1F4 
 209      9389B1A9 
 209      BBB18105 
 209      64C3
 210 00a6 FD27E72F 		.ascii	"\375'\347/r\200\205\030@\334-\023>\367s\315e\234\335"
 210      72808518 
 210      40DC2D13 
 210      3EF773CD 
 210      659CDD
 211 00b9 D8D27840 		.ascii	"\330\322x@\363'\023\023\343JF)\306U\214@71\256f\234"
 211      F3271313 
ARM GAS  C:\Users\Bruger\AppData\Local\Temp\cc4sBB0a.s 			page 16


 211      E34A4629 
 211      C6558C40 
 211      3731AE66 
 212 00ce CBC8708F 		.ascii	"\313\310p\217\261\261\301\030j \330JF\220U@\246\214"
 212      B1B1C118 
 212      6A20D84A 
 212      46905540 
 212      A68C
 213 00e0 7B6A5E6A 		.ascii	"{j^jQbIjJ|p~iQrjL@p\276\263iL\200\221^2\003\000\014"
 213      5162496A 
 213      4A7C707E 
 213      6951726A 
 213      4C4070BE 
 214 00fe 2959AC   		.ascii	")Y\254"
 215              		.text
 216              		.section	.gnu.lto_.symbol_nodes.24c08683,"",%progbits
 217 0000 789C55C7 		.ascii	"x\234U\307;\015\000 \020D\301w\037\022tbd-\240\200\240"
 217      3B0D0020 
 217      1044C177 
 217      1F127462 
 217      642DA080 
 218 0015 084D3414 		.ascii	"\010M4\024\334t\023\300\340q\004\363\200\304\332\035"
 218      DC7413C0 
 218      E07104F3 
 218      80C4DA1D 
 219 0025 3759B9CB 		.ascii	"7Y\271\313\313CQ\236\312\362\246\366\237\013\351b\031"
 219      CB43519E 
 219      CAF2A6F6 
 219      9F0BE962 
 219      19
 220 0036 56       		.ascii	"V"
 221              		.text
 222              		.section	.gnu.lto_.refs.24c08683,"",%progbits
 223 0000 789C6366 		.ascii	"x\234cf```d\200\002\000\000=\000\005"
 223      60606064 
 223      80020000 
 223      3D0005
 224              		.text
 225              		.section	.gnu.lto_.decls.24c08683,"",%progbits
 226 0000 789C8554 		.ascii	"x\234\205TkH\024Q\024\276g\357\354\303q\333\212\300"
 226      6B481451 
 226      14BE67EF 
 226      ECC371DB 
 226      8AC0
 227 0012 6209DA20 		.ascii	"b\011\332 \204@\202\202\242\177\3750\210~\024K\022\375"
 227      84408282 
 227      A27FFD30 
 227      887E144B 
 227      12FD
 228 0024 28884507 		.ascii	"(\210E\007\023Bc[\203\376\324M\013W\213\02214{\011Y"
 228      1342635B 
 228      83FED44D 
 228      0B578B12 
 228      31347B09 
 229 0039 56965A6D 		.ascii	"V\226Zm\331\252\325l\346#_\375(*{YJ\017*j3\013{N\347"
 229      D9AAD56C 
 229      E6235FFD 
ARM GAS  C:\Users\Bruger\AppData\Local\Temp\cc4sBB0a.s 			page 17


 229      282A7B59 
 229      4A0F2A6A 
 230 0052 DE997117 		.ascii	"\336\231q\027[\353\302\331\231s\346|\337y\336\245\204"
 230      5BEBC2D9 
 230      9973E67C 
 230      DF79DEA5 
 230      84
 231 0063 10068468 		.ascii	"\020\006\204hx\332$B\032P\267\243xI\354\330P.\242\204"
 231      78DA2442 
 231      1A50B7A3 
 231      7849ECD8 
 231      502EA284 
 232 0077 509A50C2 		.ascii	"P\232P\302(\355(\235\344\357\303\375\254\006\376<J\012"
 232      28ED289D 
 232      E4EFC3FD 
 232      AC06FE3C 
 232      4A0A
 233 0089 4A2F4AB7 		.ascii	"J/J\267\361\035\014\237\211'd\304\211\307\365'\300\206"
 233      F11D0C9F 
 233      892764C4 
 233      89C7F527 
 233      C086
 234 009b 1260794E 		.ascii	"\022`yN\324\300M\364oJ\340\037\376\207\1778\201?\257"
 234      D4C04DF4 
 234      6F4AE01F 
 234      FE877F38 
 234      813FAF
 235 00ae D5EC890B 		.ascii	"\325\354\211\013\305\211\242NR[{\002|\347?\342%\352"
 235      C589A24E 
 235      525B7B02 
 235      7CE73FE2 
 235      25EA
 236 00c0 E1270B84 		.ascii	"\341'\013\204\353G\373\222\337X\300%{\270\332\\\326"
 236      EB47FB92 
 236      DF58C025 
 236      7BB8DA5C 
 236      D6
 237 00d1 556943D5 		.ascii	"UiC\325)K\\\275\177\243\250\310A-\300\337OT\276\270"
 237      294B5CBD 
 237      7FA3A8C8 
 237      412DC0DF 
 237      4F54BEB8 
 238 00e5 27A79D65 		.ascii	"'\247\235e\214\005\231\252B\214b\327\251\226}v\304\244"
 238      8C0599AA 
 238      428C62D7 
 238      A9967D76 
 238      C4A4
 239 00f7 C842DDDF 		.ascii	"\310B\335\337S\025\241B\3258\31620P\376\215\202\234"
 239      5315A142 
 239      D538CE32 
 239      3050FE8D 
 239      829C
 240 0109 1A64AC80 		.ascii	"\032d\254\200E\313\030\235E \315\015\363\335\004\352"
 240      45CB189D 
 240      4520CD0D 
 240      F3DD04EA 
 241 0119 2115DDE0 		.ascii	"!\025\335\340,\244\021\250\0037\234\0037\251\301\000"
ARM GAS  C:\Users\Bruger\AppData\Local\Temp\cc4sBB0a.s 			page 18


 241      2CA411A8 
 241      03379C03 
 241      37A9C100 
 242 0129 D1E3D1BB 		.ascii	"\321\343\321\273\263\031\223\340<\310p\006\250\360\300"
 242      B31993E0 
 242      3CC87006 
 242      A8F0C0
 243 0138 32780423 		.ascii	"2x\004#h\351\236H\251$Y\320\310}\326\213l\277h/NZf\036"
 243      68E99E48 
 243      A92459D0 
 243      C87DD68B 
 243      6CBF682F 
 244 0150 4402565A 		.ascii	"D\002VZ\310\246I\340M\201Z\244=\215\264\004\032a&\376"
 244      C8A649E0 
 244      4D815AA4 
 244      3D8DB404 
 244      1A6126FE 
 245 0164 3680A413 		.ascii	"6\200\244\023<,R\2378\350BQ\332\205\303_\016'y\216\261"
 245      3C2C529F 
 245      38E84251 
 245      DA85C35F 
 245      0E27798E 
 246 0179 EAC6E8F7 		.ascii	"\352\306\350\367\221\001'\353b\252\246-\023\020\270"
 246      910127EB 
 246      62AAA62D 
 246      1310B8
 247 0188 301E9EF0 		.ascii	"0\036\236\360w\275\237\027\301\203\260\352\307\025\022"
 247      77BD9F17 
 247      C183B0EA 
 247      C71512
 248 0197 5D27183E 		.ascii	"]'\030>\262\367AI0T7\237\260\351x\001\277\024\007\277"
 248      B2F74149 
 248      3054379F 
 248      B0E97801 
 248      BF1407BF 
 249 01ab 64C24302 		.ascii	"d\302C\002^\274\273\221\306g\313\013\211\245{Y\244\273"
 249      5EBCBB91 
 249      C667CB0B 
 249      89A57B59 
 249      A4BB
 250 01bd DEC8B6F3 		.ascii	"\336\310\266\363\245\372\304J\263E\254\247w\257\377"
 250      A5FAC44A 
 250      B345ACA7 
 250      77AFFF
 251 01cc B68A58CF 		.ascii	"\266\212X\317\307\206\025u7\373\251iT\000\340J\\\264"
 251      C7861575 
 251      37FBA969 
 251      5400E04A 
 251      5CB4
 252 01de 2B66B426 		.ascii	"+f\264&\021\355UX+v\320<\301\360\265\273\241\330\256"
 252      11ED5558 
 252      2B76D03C 
 252      C1F0B5BB 
 252      A1D8AE
 253 01f1 677BEEA4 		.ascii	"g{\356\244\231-\307_\215\303_5\361a\201\357\031\032"
 253      992DC75F 
 253      8DC35F35 
ARM GAS  C:\Users\Bruger\AppData\Local\Temp\cc4sBB0a.s 			page 19


 253      F16181EF 
 253      191A
 254 0203 FBEC148B 		.ascii	"\373\354\024\2132\215ST=x9J\305\242X\270zt\344Ck\022"
 254      328D5354 
 254      3D78394A 
 254      C5A258B8 
 254      7A74E443 
 255 0219 DD01F1FB 		.ascii	"\335\001\361\373\340\321\367\241\342\335X\310!T\236"
 255      E0D1F7A1 
 255      E2DD58C8 
 255      21549E
 256 0228 262EC48F 		.ascii	"&.\304\217\341\372Z\033\244\312\372\244G\364I\253X|"
 256      E1FA5A1B 
 256      A4CAFAA4 
 256      47F449AB 
 256      587C
 257 023a 6B6CD21E 		.ascii	"kl\322\036c\322biX!\263\236v\021h\306\346\264`s\340"
 257      63D26269 
 257      5821B39E 
 257      761168C6 
 257      E6B46073 
 258 024f 06EE8DC7 		.ascii	"\006\356\215\307\330\233kh\274\216F\214\324Z\363\366"
 258      D89B6B68 
 258      BC8E468C 
 258      D45AF3F6 
 259 025f 43B2D809 		.ascii	"C\262\330\011u|'\012\237\265<s\214\333\" \214\275\243"
 259      757C270A 
 259      9FB53C73 
 259      8CDB2220 
 259      8CBDA3
 260 0272 650FA449 		.ascii	"e\017\244I\027\245Mt\376\246\271(\203\003u\203S\351"
 260      17A54D74 
 260      FEA6B928 
 260      83037583 
 260      53E9
 261 0284 1E10B51D 		.ascii	"\036\020\265\035\011\017\2659\215M)\337?\345\020\253"
 261      090FB539 
 261      8D4D29DF 
 261      3FE510AB 
 262 0294 2E60BF35 		.ascii	".`\2775\\t\216\202[q\355\273e\266\257]\264\357\370\257"
 262      5C748E82 
 262      5B71EDBB 
 262      65B6AF5D 
 262      B4EFF8AF 
 263 02a8 6FC3323D 		.ascii	"o\3032=\244\263\274:U\325\236\254O\360\307\353\216\330"
 263      A4B3BC3A 
 263      55D59EAC 
 263      4FF0C7EB 
 263      8ED8
 264 02ba BEF11174 		.ascii	"\276\361\021t\304qt\230\034\235\202\203U\354\255q\320"
 264      C4717498 
 264      1C9D8283 
 264      55ECAD71 
 264      D0
 265 02cb 3A9DE3F2 		.ascii	":\235\343\362\327\222\360\0249\310\233\363\377K\205"
 265      D792F014 
 265      39C89BF3 
ARM GAS  C:\Users\Bruger\AppData\Local\Temp\cc4sBB0a.s 			page 20


 265      FF4B85
 266 02da 5DBFD75F 		.ascii	"]\277\327_r?I\277\206\023\021=\223^\303\362\301y|8\335"
 266      723F49BF 
 266      8613113D 
 266      935EC3F2 
 266      C1797C38 
 267 02ef D8BAAED8 		.ascii	"\330\272\256\330pnC\354\036\026\017U\3659\235%|L\330"
 267      706E43EC 
 267      1E160F55 
 267      F5399D25 
 267      7C4CD8
 268 0302 CAA42E97 		.ascii	"\312\244.\227p\2165\263\027\234\242\002|~\262\320Hm"
 268      708E35B3 
 268      179CA202 
 268      7C7EB2D0 
 268      486D
 269 0314 E4910C6E 		.ascii	"\344\221\014n\331]\211\177\"cs\240\037\231\202|\014"
 269      D95D897F 
 269      226373A0 
 269      1F99827C 
 269      0C
 270 0325 D102462B 		.ascii	"\321\002F+]fFD| p\007i\372\220\206{\253o4m\247\246\237"
 270      5D664644 
 270      7C207007 
 270      69FA9086 
 270      7BAB6F34 
 271 033d 0376E120 		.ascii	"\003v\341 ~\254\3719\271\201\245\266\025\253\327z\322"
 271      7EACF939 
 271      B981A5B6 
 271      15ABD77A 
 271      D2
 272 034e C9DC154A 		.ascii	"\311\334\025J\256\342\367\005\224\254\215\031y\371\376"
 272      AEE2F705 
 272      94AC8D19 
 272      79F9FE
 273 035d 4C658337 		.ascii	"Le\2037#/}\361\206\314\355\201\355[\224\255\0136\021"
 273      232F7DF1 
 273      86CCED81 
 273      ED5B94AD 
 273      0B3611
 274 0370 8777D1C6 		.ascii	"\207w\321\306u\376\234\2002{\022W\357\242\005\231d*"
 274      75FE9C80 
 274      327B1257 
 274      EFA20599 
 274      642A
 275 0382 7A652881 		.ascii	"ze(\201\345\376\234m\312\252\274,\305\216\372\032\305"
 275      E5FE9C6D 
 275      CAAABC2C 
 275      C58EFA1A 
 275      C5
 276 0393 97E5329E 		.ascii	"\227\3452\236\313}\001\337\032%\333\306c/\\2C\367^\231"
 276      CB7D01DF 
 276      1A25DBC6 
 276      632F5C32 
 276      43F75E99 
 277 03a7 1B50FCFE 		.ascii	"\033P\374\376\374-\001\216\230\216\266\364\315\212\317"
 277      FC2D018E 
ARM GAS  C:\Users\Bruger\AppData\Local\Temp\cc4sBB0a.s 			page 21


 277      988EB6F4 
 277      CD8ACF
 278 03b6 3F6E95FC 		.ascii	"?n\225\374J\366\322?\355\304\326y"
 278      4AF6D23F 
 278      EDC4D679 
 279              		.text
 280              		.section	.gnu.lto_.symtab.24c08683,"",%progbits
 281 0000 50325F57 		.ascii	"P2_Write\000\000\000\000\000\000\000\000\000\000\000"
 281      72697465 
 281      00000000 
 281      00000000 
 281      000000
 282 0013 00B20000 		.ascii	"\000\262\000\000\000P2_SetDriveMode\000\000\000\000"
 282      0050325F 
 282      53657444 
 282      72697665 
 282      4D6F6465 
 283 002b 00000000 		.ascii	"\000\000\000\000\000\000\000\000\264\000\000\000P2_"
 283      00000000 
 283      B4000000 
 283      50325F
 284 003a 52656164 		.ascii	"Read\000\000\000\000\000\000\000\000\000\000\000\000"
 284      00000000 
 284      00000000 
 284      00000000 
 285 004a B7000000 		.ascii	"\267\000\000\000P2_ReadDataReg\000\000\000\000\000\000"
 285      50325F52 
 285      65616444 
 285      61746152 
 285      65670000 
 286 0062 00000000 		.ascii	"\000\000\000\000\000\000\271\000\000\000P2_SetInter"
 286      0000B900 
 286      00005032 
 286      5F536574 
 286      496E7465 
 287 0077 72757074 		.ascii	"ruptMode\000\000\000\000\000\000\000\000\000\000\000"
 287      4D6F6465 
 287      00000000 
 287      00000000 
 287      000000
 288 008a 00C50000 		.ascii	"\000\305\000\000\000P2_ClearInterrupt\000\000\000\000"
 288      0050325F 
 288      436C6561 
 288      72496E74 
 288      65727275 
 289 00a4 00000000 		.ascii	"\000\000\000\000\000\000\000\000\307\000\000\000"
 289      00000000 
 289      C7000000 
 290              		.text
 291              		.section	.gnu.lto_.opts,"",%progbits
 292 0000 272D666E 		.ascii	"'-fno-trapv' '-mcpu=cortex-m3' '-mthumb' '-g' '-O3'"
 292      6F2D7472 
 292      61707627 
 292      20272D6D 
 292      6370753D 
 293 0033 20272D66 		.ascii	" '-ffunction-sections' '-finline-functions' '-flto'"
 293      66756E63 
ARM GAS  C:\Users\Bruger\AppData\Local\Temp\cc4sBB0a.s 			page 22


 293      74696F6E 
 293      2D736563 
 293      74696F6E 
 294 0066 20272D66 		.ascii	" '-ffat-lto-objects'\000"
 294      6661742D 
 294      6C746F2D 
 294      6F626A65 
 294      63747327 
 295              		.text
 296              		.cfi_sections	.debug_frame
 297              		.section	.text.P2_Write,"ax",%progbits
 298              		.align	2
 299              		.global	P2_Write
 300              		.thumb
 301              		.thumb_func
 302              		.type	P2_Write, %function
 303              	P2_Write:
 304              	.LFB0:
 305              		.file 1 "Generated_Source\\PSoC5\\P2.c"
   1:Generated_Source\PSoC5/P2.c **** /*******************************************************************************
   2:Generated_Source\PSoC5/P2.c **** * File Name: P2.c  
   3:Generated_Source\PSoC5/P2.c **** * Version 2.20
   4:Generated_Source\PSoC5/P2.c **** *
   5:Generated_Source\PSoC5/P2.c **** * Description:
   6:Generated_Source\PSoC5/P2.c **** *  This file contains API to enable firmware control of a Pins component.
   7:Generated_Source\PSoC5/P2.c **** *
   8:Generated_Source\PSoC5/P2.c **** * Note:
   9:Generated_Source\PSoC5/P2.c **** *
  10:Generated_Source\PSoC5/P2.c **** ********************************************************************************
  11:Generated_Source\PSoC5/P2.c **** * Copyright 2008-2015, Cypress Semiconductor Corporation.  All rights reserved.
  12:Generated_Source\PSoC5/P2.c **** * You may use this file only in accordance with the license, terms, conditions, 
  13:Generated_Source\PSoC5/P2.c **** * disclaimers, and limitations in the end user license agreement accompanying 
  14:Generated_Source\PSoC5/P2.c **** * the software package with which this file was provided.
  15:Generated_Source\PSoC5/P2.c **** *******************************************************************************/
  16:Generated_Source\PSoC5/P2.c **** 
  17:Generated_Source\PSoC5/P2.c **** #include "cytypes.h"
  18:Generated_Source\PSoC5/P2.c **** #include "P2.h"
  19:Generated_Source\PSoC5/P2.c **** 
  20:Generated_Source\PSoC5/P2.c **** /* APIs are not generated for P15[7:6] on PSoC 5 */
  21:Generated_Source\PSoC5/P2.c **** #if !(CY_PSOC5A &&\
  22:Generated_Source\PSoC5/P2.c **** 	 P2__PORT == 15 && ((P2__MASK & 0xC0) != 0))
  23:Generated_Source\PSoC5/P2.c **** 
  24:Generated_Source\PSoC5/P2.c **** 
  25:Generated_Source\PSoC5/P2.c **** /*******************************************************************************
  26:Generated_Source\PSoC5/P2.c **** * Function Name: P2_Write
  27:Generated_Source\PSoC5/P2.c **** ****************************************************************************//**
  28:Generated_Source\PSoC5/P2.c **** *
  29:Generated_Source\PSoC5/P2.c **** * \brief Writes the value to the physical port (data output register), masking
  30:Generated_Source\PSoC5/P2.c **** *  and shifting the bits appropriately. 
  31:Generated_Source\PSoC5/P2.c **** *
  32:Generated_Source\PSoC5/P2.c **** * The data output register controls the signal applied to the physical pin in 
  33:Generated_Source\PSoC5/P2.c **** * conjunction with the drive mode parameter. This function avoids changing 
  34:Generated_Source\PSoC5/P2.c **** * other bits in the port by using the appropriate method (read-modify-write or
  35:Generated_Source\PSoC5/P2.c **** * bit banding).
  36:Generated_Source\PSoC5/P2.c **** *
  37:Generated_Source\PSoC5/P2.c **** * <b>Note</b> This function should not be used on a hardware digital output pin 
  38:Generated_Source\PSoC5/P2.c **** * as it is driven by the hardware signal attached to it.
ARM GAS  C:\Users\Bruger\AppData\Local\Temp\cc4sBB0a.s 			page 23


  39:Generated_Source\PSoC5/P2.c **** *
  40:Generated_Source\PSoC5/P2.c **** * \param value
  41:Generated_Source\PSoC5/P2.c **** *  Value to write to the component instance.
  42:Generated_Source\PSoC5/P2.c **** *
  43:Generated_Source\PSoC5/P2.c **** * \return 
  44:Generated_Source\PSoC5/P2.c **** *  None 
  45:Generated_Source\PSoC5/P2.c **** *
  46:Generated_Source\PSoC5/P2.c **** * \sideeffect
  47:Generated_Source\PSoC5/P2.c **** *  If you use read-modify-write operations that are not atomic; the Interrupt 
  48:Generated_Source\PSoC5/P2.c **** *  Service Routines (ISR) can cause corruption of this function. An ISR that 
  49:Generated_Source\PSoC5/P2.c **** *  interrupts this function and performs writes to the Pins component data 
  50:Generated_Source\PSoC5/P2.c **** *  register can cause corrupted port data. To avoid this issue, you should 
  51:Generated_Source\PSoC5/P2.c **** *  either use the Per-Pin APIs (primary method) or disable interrupts around 
  52:Generated_Source\PSoC5/P2.c **** *  this function.
  53:Generated_Source\PSoC5/P2.c **** *
  54:Generated_Source\PSoC5/P2.c **** * \funcusage
  55:Generated_Source\PSoC5/P2.c **** *  \snippet P2_SUT.c usage_P2_Write
  56:Generated_Source\PSoC5/P2.c **** *******************************************************************************/
  57:Generated_Source\PSoC5/P2.c **** void P2_Write(uint8 value)
  58:Generated_Source\PSoC5/P2.c **** {
 306              		.loc 1 58 0
 307              		.cfi_startproc
 308              		@ args = 0, pretend = 0, frame = 0
 309              		@ frame_needed = 0, uses_anonymous_args = 0
 310              		@ link register save eliminated.
 311              	.LVL0:
  59:Generated_Source\PSoC5/P2.c ****     uint8 staticBits = (P2_DR & (uint8)(~P2_MASK));
 312              		.loc 1 59 0
 313 0000 014B     		ldr	r3, .L2
 314 0002 1A78     		ldrb	r2, [r3]	@ zero_extendqisi2
 315              	.LVL1:
  60:Generated_Source\PSoC5/P2.c ****     P2_DR = staticBits | ((uint8)(value << P2_SHIFT) & P2_MASK);
 316              		.loc 1 60 0
 317 0004 1870     		strb	r0, [r3]
 318 0006 7047     		bx	lr
 319              	.L3:
 320              		.align	2
 321              	.L2:
 322 0008 20510040 		.word	1073762592
 323              		.cfi_endproc
 324              	.LFE0:
 325              		.size	P2_Write, .-P2_Write
 326              		.section	.text.P2_SetDriveMode,"ax",%progbits
 327              		.align	2
 328              		.global	P2_SetDriveMode
 329              		.thumb
 330              		.thumb_func
 331              		.type	P2_SetDriveMode, %function
 332              	P2_SetDriveMode:
 333              	.LFB1:
  61:Generated_Source\PSoC5/P2.c **** }
  62:Generated_Source\PSoC5/P2.c **** 
  63:Generated_Source\PSoC5/P2.c **** 
  64:Generated_Source\PSoC5/P2.c **** /*******************************************************************************
  65:Generated_Source\PSoC5/P2.c **** * Function Name: P2_SetDriveMode
  66:Generated_Source\PSoC5/P2.c **** ****************************************************************************//**
  67:Generated_Source\PSoC5/P2.c **** *
ARM GAS  C:\Users\Bruger\AppData\Local\Temp\cc4sBB0a.s 			page 24


  68:Generated_Source\PSoC5/P2.c **** * \brief Sets the drive mode for each of the Pins component's pins.
  69:Generated_Source\PSoC5/P2.c **** * 
  70:Generated_Source\PSoC5/P2.c **** * <b>Note</b> This affects all pins in the Pins component instance. Use the
  71:Generated_Source\PSoC5/P2.c **** * Per-Pin APIs if you wish to control individual pin's drive modes.
  72:Generated_Source\PSoC5/P2.c **** *
  73:Generated_Source\PSoC5/P2.c **** * \param mode
  74:Generated_Source\PSoC5/P2.c **** *  Mode for the selected signals. Valid options are documented in 
  75:Generated_Source\PSoC5/P2.c **** *  \ref driveMode.
  76:Generated_Source\PSoC5/P2.c **** *
  77:Generated_Source\PSoC5/P2.c **** * \return
  78:Generated_Source\PSoC5/P2.c **** *  None
  79:Generated_Source\PSoC5/P2.c **** *
  80:Generated_Source\PSoC5/P2.c **** * \sideeffect
  81:Generated_Source\PSoC5/P2.c **** *  If you use read-modify-write operations that are not atomic, the ISR can
  82:Generated_Source\PSoC5/P2.c **** *  cause corruption of this function. An ISR that interrupts this function 
  83:Generated_Source\PSoC5/P2.c **** *  and performs writes to the Pins component Drive Mode registers can cause 
  84:Generated_Source\PSoC5/P2.c **** *  corrupted port data. To avoid this issue, you should either use the Per-Pin
  85:Generated_Source\PSoC5/P2.c **** *  APIs (primary method) or disable interrupts around this function.
  86:Generated_Source\PSoC5/P2.c **** *
  87:Generated_Source\PSoC5/P2.c **** * \funcusage
  88:Generated_Source\PSoC5/P2.c **** *  \snippet P2_SUT.c usage_P2_SetDriveMode
  89:Generated_Source\PSoC5/P2.c **** *******************************************************************************/
  90:Generated_Source\PSoC5/P2.c **** void P2_SetDriveMode(uint8 mode)
  91:Generated_Source\PSoC5/P2.c **** {
 334              		.loc 1 91 0
 335              		.cfi_startproc
 336              		@ args = 0, pretend = 0, frame = 0
 337              		@ frame_needed = 0, uses_anonymous_args = 0
 338              		@ link register save eliminated.
 339              	.LVL2:
  92:Generated_Source\PSoC5/P2.c **** 	CyPins_SetPinDriveMode(P2_0, mode);
 340              		.loc 1 92 0
 341 0000 1649     		ldr	r1, .L5
 342 0002 00F00E00 		and	r0, r0, #14
 343              	.LVL3:
 344 0006 0B78     		ldrb	r3, [r1]	@ zero_extendqisi2
  93:Generated_Source\PSoC5/P2.c **** 	CyPins_SetPinDriveMode(P2_1, mode);
 345              		.loc 1 93 0
 346 0008 154A     		ldr	r2, .L5+4
  92:Generated_Source\PSoC5/P2.c **** 	CyPins_SetPinDriveMode(P2_0, mode);
 347              		.loc 1 92 0
 348 000a 03F0F103 		and	r3, r3, #241
 349 000e 0343     		orrs	r3, r3, r0
 350 0010 0B70     		strb	r3, [r1]
 351              		.loc 1 93 0
 352 0012 1378     		ldrb	r3, [r2]	@ zero_extendqisi2
 353 0014 03F0F103 		and	r3, r3, #241
 354 0018 0343     		orrs	r3, r3, r0
 355 001a 1370     		strb	r3, [r2]
  94:Generated_Source\PSoC5/P2.c **** 	CyPins_SetPinDriveMode(P2_2, mode);
 356              		.loc 1 94 0
 357 001c 8B78     		ldrb	r3, [r1, #2]	@ zero_extendqisi2
 358 001e 03F0F103 		and	r3, r3, #241
 359 0022 0343     		orrs	r3, r3, r0
 360 0024 8B70     		strb	r3, [r1, #2]
  95:Generated_Source\PSoC5/P2.c **** 	CyPins_SetPinDriveMode(P2_3, mode);
 361              		.loc 1 95 0
ARM GAS  C:\Users\Bruger\AppData\Local\Temp\cc4sBB0a.s 			page 25


 362 0026 9378     		ldrb	r3, [r2, #2]	@ zero_extendqisi2
 363 0028 03F0F103 		and	r3, r3, #241
 364 002c 0343     		orrs	r3, r3, r0
 365 002e 9370     		strb	r3, [r2, #2]
  96:Generated_Source\PSoC5/P2.c **** 	CyPins_SetPinDriveMode(P2_4, mode);
 366              		.loc 1 96 0
 367 0030 0B79     		ldrb	r3, [r1, #4]	@ zero_extendqisi2
 368 0032 03F0F103 		and	r3, r3, #241
 369 0036 0343     		orrs	r3, r3, r0
 370 0038 0B71     		strb	r3, [r1, #4]
  97:Generated_Source\PSoC5/P2.c **** 	CyPins_SetPinDriveMode(P2_5, mode);
 371              		.loc 1 97 0
 372 003a 1379     		ldrb	r3, [r2, #4]	@ zero_extendqisi2
 373 003c 03F0F103 		and	r3, r3, #241
 374 0040 0343     		orrs	r3, r3, r0
 375 0042 1371     		strb	r3, [r2, #4]
  98:Generated_Source\PSoC5/P2.c **** 	CyPins_SetPinDriveMode(P2_6, mode);
 376              		.loc 1 98 0
 377 0044 8B79     		ldrb	r3, [r1, #6]	@ zero_extendqisi2
 378 0046 03F0F103 		and	r3, r3, #241
 379 004a 0343     		orrs	r3, r3, r0
 380 004c 8B71     		strb	r3, [r1, #6]
  99:Generated_Source\PSoC5/P2.c **** 	CyPins_SetPinDriveMode(P2_7, mode);
 381              		.loc 1 99 0
 382 004e 9379     		ldrb	r3, [r2, #6]	@ zero_extendqisi2
 383 0050 03F0F103 		and	r3, r3, #241
 384 0054 1843     		orrs	r0, r0, r3
 385 0056 9071     		strb	r0, [r2, #6]
 386 0058 7047     		bx	lr
 387              	.L6:
 388 005a 00BF     		.align	2
 389              	.L5:
 390 005c 10500040 		.word	1073762320
 391 0060 11500040 		.word	1073762321
 392              		.cfi_endproc
 393              	.LFE1:
 394              		.size	P2_SetDriveMode, .-P2_SetDriveMode
 395              		.section	.text.P2_Read,"ax",%progbits
 396              		.align	2
 397              		.global	P2_Read
 398              		.thumb
 399              		.thumb_func
 400              		.type	P2_Read, %function
 401              	P2_Read:
 402              	.LFB2:
 100:Generated_Source\PSoC5/P2.c **** }
 101:Generated_Source\PSoC5/P2.c **** 
 102:Generated_Source\PSoC5/P2.c **** 
 103:Generated_Source\PSoC5/P2.c **** /*******************************************************************************
 104:Generated_Source\PSoC5/P2.c **** * Function Name: P2_Read
 105:Generated_Source\PSoC5/P2.c **** ****************************************************************************//**
 106:Generated_Source\PSoC5/P2.c **** *
 107:Generated_Source\PSoC5/P2.c **** * \brief Reads the associated physical port (pin status register) and masks 
 108:Generated_Source\PSoC5/P2.c **** *  the required bits according to the width and bit position of the component
 109:Generated_Source\PSoC5/P2.c **** *  instance. 
 110:Generated_Source\PSoC5/P2.c **** *
 111:Generated_Source\PSoC5/P2.c **** * The pin's status register returns the current logic level present on the 
ARM GAS  C:\Users\Bruger\AppData\Local\Temp\cc4sBB0a.s 			page 26


 112:Generated_Source\PSoC5/P2.c **** * physical pin.
 113:Generated_Source\PSoC5/P2.c **** *
 114:Generated_Source\PSoC5/P2.c **** * \return 
 115:Generated_Source\PSoC5/P2.c **** *  The current value for the pins in the component as a right justified number.
 116:Generated_Source\PSoC5/P2.c **** *
 117:Generated_Source\PSoC5/P2.c **** * \funcusage
 118:Generated_Source\PSoC5/P2.c **** *  \snippet P2_SUT.c usage_P2_Read  
 119:Generated_Source\PSoC5/P2.c **** *******************************************************************************/
 120:Generated_Source\PSoC5/P2.c **** uint8 P2_Read(void)
 121:Generated_Source\PSoC5/P2.c **** {
 403              		.loc 1 121 0
 404              		.cfi_startproc
 405              		@ args = 0, pretend = 0, frame = 0
 406              		@ frame_needed = 0, uses_anonymous_args = 0
 407              		@ link register save eliminated.
 122:Generated_Source\PSoC5/P2.c ****     return (P2_PS & P2_MASK) >> P2_SHIFT;
 408              		.loc 1 122 0
 409 0000 014B     		ldr	r3, .L8
 410 0002 1878     		ldrb	r0, [r3]	@ zero_extendqisi2
 123:Generated_Source\PSoC5/P2.c **** }
 411              		.loc 1 123 0
 412 0004 7047     		bx	lr
 413              	.L9:
 414 0006 00BF     		.align	2
 415              	.L8:
 416 0008 21510040 		.word	1073762593
 417              		.cfi_endproc
 418              	.LFE2:
 419              		.size	P2_Read, .-P2_Read
 420              		.section	.text.P2_ReadDataReg,"ax",%progbits
 421              		.align	2
 422              		.global	P2_ReadDataReg
 423              		.thumb
 424              		.thumb_func
 425              		.type	P2_ReadDataReg, %function
 426              	P2_ReadDataReg:
 427              	.LFB3:
 124:Generated_Source\PSoC5/P2.c **** 
 125:Generated_Source\PSoC5/P2.c **** 
 126:Generated_Source\PSoC5/P2.c **** /*******************************************************************************
 127:Generated_Source\PSoC5/P2.c **** * Function Name: P2_ReadDataReg
 128:Generated_Source\PSoC5/P2.c **** ****************************************************************************//**
 129:Generated_Source\PSoC5/P2.c **** *
 130:Generated_Source\PSoC5/P2.c **** * \brief Reads the associated physical port's data output register and masks 
 131:Generated_Source\PSoC5/P2.c **** *  the correct bits according to the width and bit position of the component 
 132:Generated_Source\PSoC5/P2.c **** *  instance. 
 133:Generated_Source\PSoC5/P2.c **** *
 134:Generated_Source\PSoC5/P2.c **** * The data output register controls the signal applied to the physical pin in 
 135:Generated_Source\PSoC5/P2.c **** * conjunction with the drive mode parameter. This is not the same as the 
 136:Generated_Source\PSoC5/P2.c **** * preferred P2_Read() API because the 
 137:Generated_Source\PSoC5/P2.c **** * P2_ReadDataReg() reads the data register instead of the status 
 138:Generated_Source\PSoC5/P2.c **** * register. For output pins this is a useful function to determine the value 
 139:Generated_Source\PSoC5/P2.c **** * just written to the pin.
 140:Generated_Source\PSoC5/P2.c **** *
 141:Generated_Source\PSoC5/P2.c **** * \return 
 142:Generated_Source\PSoC5/P2.c **** *  The current value of the data register masked and shifted into a right 
 143:Generated_Source\PSoC5/P2.c **** *  justified number for the component instance.
ARM GAS  C:\Users\Bruger\AppData\Local\Temp\cc4sBB0a.s 			page 27


 144:Generated_Source\PSoC5/P2.c **** *
 145:Generated_Source\PSoC5/P2.c **** * \funcusage
 146:Generated_Source\PSoC5/P2.c **** *  \snippet P2_SUT.c usage_P2_ReadDataReg 
 147:Generated_Source\PSoC5/P2.c **** *******************************************************************************/
 148:Generated_Source\PSoC5/P2.c **** uint8 P2_ReadDataReg(void)
 149:Generated_Source\PSoC5/P2.c **** {
 428              		.loc 1 149 0
 429              		.cfi_startproc
 430              		@ args = 0, pretend = 0, frame = 0
 431              		@ frame_needed = 0, uses_anonymous_args = 0
 432              		@ link register save eliminated.
 150:Generated_Source\PSoC5/P2.c ****     return (P2_DR & P2_MASK) >> P2_SHIFT;
 433              		.loc 1 150 0
 434 0000 014B     		ldr	r3, .L11
 435 0002 1878     		ldrb	r0, [r3]	@ zero_extendqisi2
 151:Generated_Source\PSoC5/P2.c **** }
 436              		.loc 1 151 0
 437 0004 7047     		bx	lr
 438              	.L12:
 439 0006 00BF     		.align	2
 440              	.L11:
 441 0008 20510040 		.word	1073762592
 442              		.cfi_endproc
 443              	.LFE3:
 444              		.size	P2_ReadDataReg, .-P2_ReadDataReg
 445              		.section	.text.P2_SetInterruptMode,"ax",%progbits
 446              		.align	2
 447              		.global	P2_SetInterruptMode
 448              		.thumb
 449              		.thumb_func
 450              		.type	P2_SetInterruptMode, %function
 451              	P2_SetInterruptMode:
 452              	.LFB4:
 152:Generated_Source\PSoC5/P2.c **** 
 153:Generated_Source\PSoC5/P2.c **** 
 154:Generated_Source\PSoC5/P2.c **** /* If interrupt is connected for this Pins component */ 
 155:Generated_Source\PSoC5/P2.c **** #if defined(P2_INTSTAT) 
 156:Generated_Source\PSoC5/P2.c **** 
 157:Generated_Source\PSoC5/P2.c ****     /*******************************************************************************
 158:Generated_Source\PSoC5/P2.c ****     * Function Name: P2_SetInterruptMode
 159:Generated_Source\PSoC5/P2.c ****     ****************************************************************************//**
 160:Generated_Source\PSoC5/P2.c ****     *
 161:Generated_Source\PSoC5/P2.c ****     * \brief Configures the interrupt mode for each of the Pins component's
 162:Generated_Source\PSoC5/P2.c ****     *  pins. Alternatively you may set the interrupt mode for all the pins
 163:Generated_Source\PSoC5/P2.c ****     *  specified in the Pins component.
 164:Generated_Source\PSoC5/P2.c ****     *
 165:Generated_Source\PSoC5/P2.c ****     *  <b>Note</b> The interrupt is port-wide and therefore any enabled pin
 166:Generated_Source\PSoC5/P2.c ****     *  interrupt may trigger it.
 167:Generated_Source\PSoC5/P2.c ****     *
 168:Generated_Source\PSoC5/P2.c ****     * \param position
 169:Generated_Source\PSoC5/P2.c ****     *  The pin position as listed in the Pins component. You may OR these to be 
 170:Generated_Source\PSoC5/P2.c ****     *  able to configure the interrupt mode of multiple pins within a Pins 
 171:Generated_Source\PSoC5/P2.c ****     *  component. Or you may use P2_INTR_ALL to configure the
 172:Generated_Source\PSoC5/P2.c ****     *  interrupt mode of all the pins in the Pins component.       
 173:Generated_Source\PSoC5/P2.c ****     *  - P2_0_INTR       (First pin in the list)
 174:Generated_Source\PSoC5/P2.c ****     *  - P2_1_INTR       (Second pin in the list)
 175:Generated_Source\PSoC5/P2.c ****     *  - ...
ARM GAS  C:\Users\Bruger\AppData\Local\Temp\cc4sBB0a.s 			page 28


 176:Generated_Source\PSoC5/P2.c ****     *  - P2_INTR_ALL     (All pins in Pins component)
 177:Generated_Source\PSoC5/P2.c ****     *
 178:Generated_Source\PSoC5/P2.c ****     * \param mode
 179:Generated_Source\PSoC5/P2.c ****     *  Interrupt mode for the selected pins. Valid options are documented in
 180:Generated_Source\PSoC5/P2.c ****     *  \ref intrMode.
 181:Generated_Source\PSoC5/P2.c ****     *
 182:Generated_Source\PSoC5/P2.c ****     * \return 
 183:Generated_Source\PSoC5/P2.c ****     *  None
 184:Generated_Source\PSoC5/P2.c ****     *  
 185:Generated_Source\PSoC5/P2.c ****     * \sideeffect
 186:Generated_Source\PSoC5/P2.c ****     *  It is recommended that the interrupt be disabled before calling this 
 187:Generated_Source\PSoC5/P2.c ****     *  function to avoid unintended interrupt requests. Note that the interrupt
 188:Generated_Source\PSoC5/P2.c ****     *  type is port wide, and therefore will trigger for any enabled pin on the 
 189:Generated_Source\PSoC5/P2.c ****     *  port.
 190:Generated_Source\PSoC5/P2.c ****     *
 191:Generated_Source\PSoC5/P2.c ****     * \funcusage
 192:Generated_Source\PSoC5/P2.c ****     *  \snippet P2_SUT.c usage_P2_SetInterruptMode
 193:Generated_Source\PSoC5/P2.c ****     *******************************************************************************/
 194:Generated_Source\PSoC5/P2.c ****     void P2_SetInterruptMode(uint16 position, uint16 mode)
 195:Generated_Source\PSoC5/P2.c ****     {
 453              		.loc 1 195 0
 454              		.cfi_startproc
 455              		@ args = 0, pretend = 0, frame = 0
 456              		@ frame_needed = 0, uses_anonymous_args = 0
 457              		@ link register save eliminated.
 458              	.LVL4:
 196:Generated_Source\PSoC5/P2.c **** 		if((position & P2_0_INTR) != 0u) 
 459              		.loc 1 196 0
 460 0000 C207     		lsls	r2, r0, #31
 461 0002 02D5     		bpl	.L14
 197:Generated_Source\PSoC5/P2.c **** 		{ 
 198:Generated_Source\PSoC5/P2.c **** 			 P2_0_INTTYPE_REG = (uint8)mode; 
 462              		.loc 1 198 0
 463 0004 134B     		ldr	r3, .L47
 464 0006 CAB2     		uxtb	r2, r1
 465 0008 1A70     		strb	r2, [r3]
 466              	.L14:
 199:Generated_Source\PSoC5/P2.c **** 		} 
 200:Generated_Source\PSoC5/P2.c **** 		if((position & P2_1_INTR) != 0u) 
 467              		.loc 1 200 0
 468 000a 8307     		lsls	r3, r0, #30
 469 000c 02D5     		bpl	.L15
 201:Generated_Source\PSoC5/P2.c **** 		{ 
 202:Generated_Source\PSoC5/P2.c **** 			 P2_1_INTTYPE_REG = (uint8)mode; 
 470              		.loc 1 202 0
 471 000e 124B     		ldr	r3, .L47+4
 472 0010 CAB2     		uxtb	r2, r1
 473 0012 1A70     		strb	r2, [r3]
 474              	.L15:
 203:Generated_Source\PSoC5/P2.c **** 		} 
 204:Generated_Source\PSoC5/P2.c **** 		if((position & P2_2_INTR) != 0u) 
 475              		.loc 1 204 0
 476 0014 4207     		lsls	r2, r0, #29
 477 0016 02D5     		bpl	.L16
 205:Generated_Source\PSoC5/P2.c **** 		{ 
 206:Generated_Source\PSoC5/P2.c **** 			 P2_2_INTTYPE_REG = (uint8)mode; 
 478              		.loc 1 206 0
ARM GAS  C:\Users\Bruger\AppData\Local\Temp\cc4sBB0a.s 			page 29


 479 0018 104B     		ldr	r3, .L47+8
 480 001a CAB2     		uxtb	r2, r1
 481 001c 1A70     		strb	r2, [r3]
 482              	.L16:
 207:Generated_Source\PSoC5/P2.c **** 		} 
 208:Generated_Source\PSoC5/P2.c **** 		if((position & P2_3_INTR) != 0u) 
 483              		.loc 1 208 0
 484 001e 0307     		lsls	r3, r0, #28
 485 0020 02D5     		bpl	.L17
 209:Generated_Source\PSoC5/P2.c **** 		{ 
 210:Generated_Source\PSoC5/P2.c **** 			 P2_3_INTTYPE_REG = (uint8)mode; 
 486              		.loc 1 210 0
 487 0022 0F4B     		ldr	r3, .L47+12
 488 0024 CAB2     		uxtb	r2, r1
 489 0026 1A70     		strb	r2, [r3]
 490              	.L17:
 211:Generated_Source\PSoC5/P2.c **** 		} 
 212:Generated_Source\PSoC5/P2.c **** 		if((position & P2_4_INTR) != 0u) 
 491              		.loc 1 212 0
 492 0028 C206     		lsls	r2, r0, #27
 493 002a 02D5     		bpl	.L18
 213:Generated_Source\PSoC5/P2.c **** 		{ 
 214:Generated_Source\PSoC5/P2.c **** 			 P2_4_INTTYPE_REG = (uint8)mode; 
 494              		.loc 1 214 0
 495 002c 0D4B     		ldr	r3, .L47+16
 496 002e CAB2     		uxtb	r2, r1
 497 0030 1A70     		strb	r2, [r3]
 498              	.L18:
 215:Generated_Source\PSoC5/P2.c **** 		} 
 216:Generated_Source\PSoC5/P2.c **** 		if((position & P2_5_INTR) != 0u) 
 499              		.loc 1 216 0
 500 0032 8306     		lsls	r3, r0, #26
 501 0034 02D5     		bpl	.L19
 217:Generated_Source\PSoC5/P2.c **** 		{ 
 218:Generated_Source\PSoC5/P2.c **** 			 P2_5_INTTYPE_REG = (uint8)mode; 
 502              		.loc 1 218 0
 503 0036 0C4B     		ldr	r3, .L47+20
 504 0038 CAB2     		uxtb	r2, r1
 505 003a 1A70     		strb	r2, [r3]
 506              	.L19:
 219:Generated_Source\PSoC5/P2.c **** 		} 
 220:Generated_Source\PSoC5/P2.c **** 		if((position & P2_6_INTR) != 0u) 
 507              		.loc 1 220 0
 508 003c 4206     		lsls	r2, r0, #25
 509 003e 02D5     		bpl	.L20
 221:Generated_Source\PSoC5/P2.c **** 		{ 
 222:Generated_Source\PSoC5/P2.c **** 			 P2_6_INTTYPE_REG = (uint8)mode; 
 510              		.loc 1 222 0
 511 0040 0A4B     		ldr	r3, .L47+24
 512 0042 CAB2     		uxtb	r2, r1
 513 0044 1A70     		strb	r2, [r3]
 514              	.L20:
 223:Generated_Source\PSoC5/P2.c **** 		} 
 224:Generated_Source\PSoC5/P2.c **** 		if((position & P2_7_INTR) != 0u) 
 515              		.loc 1 224 0
 516 0046 0306     		lsls	r3, r0, #24
 517 0048 02D5     		bpl	.L13
ARM GAS  C:\Users\Bruger\AppData\Local\Temp\cc4sBB0a.s 			page 30


 225:Generated_Source\PSoC5/P2.c **** 		{ 
 226:Generated_Source\PSoC5/P2.c **** 			 P2_7_INTTYPE_REG = (uint8)mode; 
 518              		.loc 1 226 0
 519 004a 094B     		ldr	r3, .L47+28
 520 004c C9B2     		uxtb	r1, r1
 521              	.LVL5:
 522 004e 1970     		strb	r1, [r3]
 523              	.L13:
 524 0050 7047     		bx	lr
 525              	.L48:
 526 0052 00BF     		.align	2
 527              	.L47:
 528 0054 10450040 		.word	1073759504
 529 0058 11450040 		.word	1073759505
 530 005c 12450040 		.word	1073759506
 531 0060 13450040 		.word	1073759507
 532 0064 14450040 		.word	1073759508
 533 0068 15450040 		.word	1073759509
 534 006c 16450040 		.word	1073759510
 535 0070 17450040 		.word	1073759511
 536              		.cfi_endproc
 537              	.LFE4:
 538              		.size	P2_SetInterruptMode, .-P2_SetInterruptMode
 539              		.section	.text.P2_ClearInterrupt,"ax",%progbits
 540              		.align	2
 541              		.global	P2_ClearInterrupt
 542              		.thumb
 543              		.thumb_func
 544              		.type	P2_ClearInterrupt, %function
 545              	P2_ClearInterrupt:
 546              	.LFB5:
 227:Generated_Source\PSoC5/P2.c **** 		}
 228:Generated_Source\PSoC5/P2.c ****     }
 229:Generated_Source\PSoC5/P2.c ****     
 230:Generated_Source\PSoC5/P2.c ****     
 231:Generated_Source\PSoC5/P2.c ****     /*******************************************************************************
 232:Generated_Source\PSoC5/P2.c ****     * Function Name: P2_ClearInterrupt
 233:Generated_Source\PSoC5/P2.c ****     ****************************************************************************//**
 234:Generated_Source\PSoC5/P2.c ****     *
 235:Generated_Source\PSoC5/P2.c ****     * \brief Clears any active interrupts attached with the component and returns 
 236:Generated_Source\PSoC5/P2.c ****     *  the value of the interrupt status register allowing determination of which
 237:Generated_Source\PSoC5/P2.c ****     *  pins generated an interrupt event.
 238:Generated_Source\PSoC5/P2.c ****     *
 239:Generated_Source\PSoC5/P2.c ****     * \return 
 240:Generated_Source\PSoC5/P2.c ****     *  The right-shifted current value of the interrupt status register. Each pin 
 241:Generated_Source\PSoC5/P2.c ****     *  has one bit set if it generated an interrupt event. For example, bit 0 is 
 242:Generated_Source\PSoC5/P2.c ****     *  for pin 0 and bit 1 is for pin 1 of the Pins component.
 243:Generated_Source\PSoC5/P2.c ****     *  
 244:Generated_Source\PSoC5/P2.c ****     * \sideeffect
 245:Generated_Source\PSoC5/P2.c ****     *  Clears all bits of the physical port's interrupt status register, not just
 246:Generated_Source\PSoC5/P2.c ****     *  those associated with the Pins component.
 247:Generated_Source\PSoC5/P2.c ****     *
 248:Generated_Source\PSoC5/P2.c ****     * \funcusage
 249:Generated_Source\PSoC5/P2.c ****     *  \snippet P2_SUT.c usage_P2_ClearInterrupt
 250:Generated_Source\PSoC5/P2.c ****     *******************************************************************************/
 251:Generated_Source\PSoC5/P2.c ****     uint8 P2_ClearInterrupt(void)
 252:Generated_Source\PSoC5/P2.c ****     {
ARM GAS  C:\Users\Bruger\AppData\Local\Temp\cc4sBB0a.s 			page 31


 547              		.loc 1 252 0
 548              		.cfi_startproc
 549              		@ args = 0, pretend = 0, frame = 0
 550              		@ frame_needed = 0, uses_anonymous_args = 0
 551              		@ link register save eliminated.
 253:Generated_Source\PSoC5/P2.c ****         return (P2_INTSTAT & P2_MASK) >> P2_SHIFT;
 552              		.loc 1 253 0
 553 0000 014B     		ldr	r3, .L50
 554 0002 1878     		ldrb	r0, [r3]	@ zero_extendqisi2
 254:Generated_Source\PSoC5/P2.c ****     }
 555              		.loc 1 254 0
 556 0004 7047     		bx	lr
 557              	.L51:
 558 0006 00BF     		.align	2
 559              	.L50:
 560 0008 82450040 		.word	1073759618
 561              		.cfi_endproc
 562              	.LFE5:
 563              		.size	P2_ClearInterrupt, .-P2_ClearInterrupt
 564              		.text
 565              	.Letext0:
 566              		.file 2 "Generated_Source\\PSoC5\\cytypes.h"