ARM GAS  C:\Users\Bruger\AppData\Local\Temp\ccZUUZOC.s 			page 1


   1              		.syntax unified
   2              		.cpu cortex-m3
   3              		.fpu softvfp
   4              		.eabi_attribute 20, 1
   5              		.eabi_attribute 21, 1
   6              		.eabi_attribute 23, 3
   7              		.eabi_attribute 24, 1
   8              		.eabi_attribute 25, 1
   9              		.eabi_attribute 26, 1
  10              		.eabi_attribute 30, 4
  11              		.eabi_attribute 34, 1
  12              		.eabi_attribute 18, 4
  13              		.thumb
  14              		.file	"PWM_Reg_5_PM.c"
  15              		.text
  16              	.Ltext0:
  17              		.section	.gnu.lto_.profile.ec5a5c5a,"",%progbits
  18 0000 789C6366 		.ascii	"x\234cf```a\200\000F\006\005.\000\000\276\0003"
  18      60606061 
  18      80004606 
  18      052E0000 
  18      BE0033
  19              		.text
  20              		.section	.gnu.lto_.jmpfuncs.ec5a5c5a,"",%progbits
  21 0000 789C6366 		.ascii	"x\234cf\300\016\004\2404\013\0203100C\231\014\000\002"
  21      C00E04A0 
  21      340B1033 
  21      31303043 
  21      990C0002 
  22 0014 C70021   		.ascii	"\307\000!"
  23              		.text
  24              		.section	.gnu.lto_.inline.ec5a5c5a,"",%progbits
  25 0000 789C6366 		.ascii	"x\234cf\300\016\302\2404\013\003\003+\013#\003\023\313"
  25      C00EC2A0 
  25      340B0303 
  25      2B0B2303 
  25      13CB
  26 0012 027906B6 		.ascii	"\002y\006\266\005\362L 1&L!f\006\026\036\240\020\220"
  26      05F24C20 
  26      31264C21 
  26      6606161E 
  26      A01090
  27 0025 051361E4 		.ascii	"\005\023a\344\002\353\306*\314\000\000 A\005]"
  27      02EBC62A 
  27      CC000020 
  27      41055D
  28              		.text
  29              		.section	.gnu.lto_.pureconst.ec5a5c5a,"",%progbits
  30 0000 789C6366 		.ascii	"x\234cf``\340d\200\000\026\006)&)f\011\026\011\000\002"
  30      6060E064 
  30      80001606 
  30      29262966 
  30      09160900 
  31 0015 C9007E   		.ascii	"\311\000~"
  32              		.text
  33              		.section	.gnu.lto_PWM_Reg_5_SaveConfig.ec5a5c5a,"",%progbits
  34 0000 789C654F 		.ascii	"x\234eO=HBQ\024>\337y*\206\015\321\350^\266\330\346"
ARM GAS  C:\Users\Bruger\AppData\Local\Temp\ccZUUZOC.s 			page 2


  34      3D484251 
  34      143EDF79 
  34      2A860DD1 
  34      E85EB6D8 
  35 0015 DCD0D024 		.ascii	"\334\320\320$H\015-\202\204=\332\022\244F\361>1\210"
  35      480D2D82 
  35      843DDA12 
  35      A446F13E 
  35      3188
  36 0027 86928608 		.ascii	"\206\222\206\010\312\266\310\322\024\032j}EC\021\024"
  36      CAB6C8D2 
  36      141A6A7D 
  36      45431114 
  37 0037 11253814 		.ascii	"\021%8\024\201AACf\024\2170;W\227\240\013\227s\3179"
  37      81414143 
  37      66148F30 
  37      3B5797A0 
  37      0B9773CF 
  38 004c DFFD7E0C 		.ascii	"\337\375~\014\372\177\374rG@4$\025\006\201s\227D\226"
  38      FA7FFC72 
  38      47403424 
  38      15068173 
  38      974496
  39 005f 9701FD20 		.ascii	"\227\001\375 P\232\221\306\0137\0309\273\270\356\013"
  39      509A91C6 
  39      0B371839 
  39      BBB8EE0B 
  40 006f 6C2BA5DE 		.ascii	"l+\245\3362\027V\304\206\303DM\356\362`\007\001\022"
  40      321756C4 
  40      86C3444D 
  40      EEF26007 
  40      0112
  41 0081 5023DBAA 		.ascii	"P#\333\252\372<Y\001\365uw(\300#\374T\351\267U\273\335"
  41      FA3C5901 
  41      F5757728 
  41      C023FC54 
  41      E9B755BB 
  42 0096 2C1D1FC2 		.ascii	",\035\037\302\305\344\260\314\352\262\327*O\314\272"
  42      C5E4B0CC 
  42      EAB2D72A 
  42      4FCCBA
  43 00a5 1A359C7C 		.ascii	"\0325\234|.\335\335\366\350/_\254%\317\325\353i\357"
  43      2EDDDDF6 
  43      E82F5FAC 
  43      25CFD5EB 
  43      69EF
  44 00b7 333BCC1F 		.ascii	"3;\314\037g\226ri\201\207\372\325\265\2673\"\335.T\327"
  44      67967269 
  44      8187FAD5 
  44      B5B73322 
  44      DD2E54D7 
  45 00cb DA461E1B 		.ascii	"\332F\036\033VV\354\030\330\205\037{\220P(\"\017\252"
  45      5656EC18 
  45      D8851F7B 
  45      90502822 
  45      0FAA
  46 00dd 21B3FA38 		.ascii	"!\263\3728\240\371\004\272u\263\\\346\324\267ZT^\207"
ARM GAS  C:\Users\Bruger\AppData\Local\Temp\ccZUUZOC.s 			page 3


  46      A0F904BA 
  46      75B35CE6 
  46      D4B75A54 
  46      5E87
  47 00ef 5D2D6DEE 		.ascii	"]-m\356/\237\253\323\026\254\354&4\237\322(7JHa_\023"
  47      2F9FABD3 
  47      16ACEC26 
  47      349FD228 
  47      374A4861 
  48 0105 CAEEA7B4 		.ascii	"\312\356\247\264r\340\011\026%\233\035t\330\203\262"
  48      72E00916 
  48      259B1D74 
  48      D883B2
  49 0114 00DF3BF9 		.ascii	"\000\337;\371QAP\034\323=,\373\310\255\365\364\264."
  49      5141501C 
  49      D33D2CFB 
  49      C8ADF5F4 
  49      B42E
  50 0126 21259720 		.ascii	"!%\227 \006\307\314Y395gN\307&\022\363\311\270\031\215"
  50      06C7CC59 
  50      33393567 
  50      4EC72612 
  50      F3C9B819 
  51 013b 4C244643 		.ascii	"L$FC\321\310d86n\316\304B\261Hx8N\277\224\255\2019"
  51      D1C86438 
  51      366ECEC4 
  51      42B14878 
  51      384EBF94 
  52              		.text
  53              		.section	.gnu.lto_PWM_Reg_5_RestoreConfig.ec5a5c5a,"",%progbits
  54 0000 789C658F 		.ascii	"x\234e\217=H\003A\020\205g\346\222\343 \026b\031\254"
  54      3D480341 
  54      108567E6 
  54      92E32016 
  54      6219AC
  55 0013 8D20B14B 		.ascii	"\215 \261Ke)h\0258L!H\340\220x\330\031\010Z\206\354"
  55      65296815 
  55      384C2148 
  55      E09078D8 
  55      19085A86 
  56 0028 CA09561A 		.ascii	"\312\011V\032-D\360\007,\304hb\002\012\2669\305B\033"
  56      2D44F007 
  56      2CC46862 
  56      020AB639 
  56      C5421B
  57 003b 835A0452 		.ascii	"\203Z\004Rh\023A\301\302\250 \207\3048{\251\304\205"
  57      681341C1 
  57      C2A82087 
  57      C4387BA9 
  57      C485
  58 004d 657667DE 		.ascii	"evg\336\274oF\203\377'\314w\004\001\0069\242\006H\371"
  58      BC6F4683 
  58      FF27CC77 
  58      04010639 
  58      A20648F9 
  59 0061 1B006910 		.ascii	"\033\000i\020\242z\000B\2160\207/\324\"\314\273\305"
  59      A27A0042 
ARM GAS  C:\Users\Bruger\AppData\Local\Temp\ccZUUZOC.s 			page 4


  59      8E30872F 
  59      D422CCBB 
  59      C5
  60 0072 CD50645F 		.ascii	"\315Pd_\010\361vW\223\246\213\036\001|P\327\007\017"
  60      08F17657 
  60      93A68B1E 
  60      017C50D7 
  60      070F
  61 0084 30022C6A 		.ascii	"0\002,j9\355zHwX\324\333\255a\001u\366\207J\237+:\235"
  61      39ED7A48 
  61      7758D4DB 
  61      AD610175 
  61      F6874A9F 
  62 009b D3EA795E 		.ascii	"\323\352y^\017\020x\304\271&\327\025\345\211HE\255\201"
  62      0F1078C4 
  62      B926D715 
  62      E5894845 
  62      AD81
  63 00ad 8B67ADEA 		.ascii	"\213g\255\352\224\352\370\"E\334\275_)S\366[,\013\303"
  63      94EAF822 
  63      45DCBD5F 
  63      2953F65B 
  63      2C0BC3
  64 00c0 236A2B3B 		.ascii	"#j+;\316>6k\267\3063q\306\377\026\244\263\215;\270%"
  64      CE3E366B 
  64      B7C63371 
  64      C6FF16A4 
  64      B38D3BB8 
  65 00d5 85526978 		.ascii	"\205Rix\210Y<\302\260_\373)\255\236\350\321!\217\002"
  65      88593CC2 
  65      B05FFB29 
  65      AD9EE8D1 
  65      218F02
  66 00e8 5864CDBB 		.ascii	"Xd\315\273?,\2260\012\015\274X\337\353W(\226]\213\327"
  66      3F2C9630 
  66      0A0DBC58 
  66      DFEB5728 
  66      965D8BD7 
  67 00fc CB1EE518 		.ascii	"\313\036\345\030\374\274\222\"\360\007\022\364\215\226"
  67      FCBC9222 
  67      F00712F4 
  67      8D96
  68 010a EA1B1D4D 		.ascii	"\352\033\035MA\034\351\352\036\351x\214a,+\012V\330"
  68      411CE9EA 
  68      1EE9788C 
  68      612C2B0A 
  68      56D8
  69 011c 98C78507 		.ascii	"\230\307\205\007\224\356\332\230rT\220&/\310;1p`\334"
  69      94EEDA98 
  69      72549026 
  69      2FC83B31 
  69      7060DC
  70 012f 9EB333D3 		.ascii	"\236\2633\323\363\366\214\225H/dRv\322L\244GcIs2nM\330"
  70      F3F68C95 
  70      482F6452 
  70      76D24CA4 
  70      47634973 
ARM GAS  C:\Users\Bruger\AppData\Local\Temp\ccZUUZOC.s 			page 5


  71 0147 B356CC32 		.ascii	"\263V\3142\343\303)\370\0058\342~\363"
  71      E3C329F8 
  71      0538E27E 
  71      F3
  72              		.text
  73              		.section	.gnu.lto_PWM_Reg_5_Sleep.ec5a5c5a,"",%progbits
  74 0000 789C6366 		.ascii	"x\234cf\300\004R@\274\030\2105\200\230\221\231\201\221"
  74      C0045240 
  74      BC188835 
  74      80989199 
  74      8191
  75 0012 69C23906 		.ascii	"i\3029\006\206F\016&FF\020\203\201\221\241\236\211\261"
  75      86460E26 
  75      46461083 
  75      8191A19E 
  75      89B1
  76 0024 9EF125D3 		.ascii	"\236\361%\323G&\306\011\007V\317\340V_\332\320\320\360"
  76      4726C609 
  76      0756CFE0 
  76      565FDAD0 
  76      D0F0
  77 0036 61D25689 		.ascii	"a\322V\211V\211\237L\014\014\237\231 \3060.gTg\000\252"
  77      56899F4C 
  77      0C0C9F99 
  77      20C6302E 
  77      67546700 
  78 004b F9D8F2F7 		.ascii	"\371\330\362\367:7[\013P\215\000D\216q\005#\033#\220"
  78      3A375B0B 
  78      508D0044 
  78      8E710523 
  78      1B2390
  79 005e 5E2F74A0 		.ascii	"^/t\240\341\377\377\315W'vh\003\255ax\002\224\003Y\360"
  79      E1FFFFCD 
  79      57277668 
  79      03AD6178 
  79      02940359 
  80 0073 94890944 		.ascii	"\224\211\011D3\337al>p\375\030\023H5\310\230y\227\373"
  80      33DF616C 
  80      3E70FD18 
  80      134835C8 
  80      987997FB 
  81 0087 D631D5FE 		.ascii	"\3261\325\376n\350h\340\370\311\304\370\231\011h\002"
  81      6EE868E0 
  81      F8C9C4F8 
  81      99096802 
  82 0097 E34AC65A 		.ascii	"\343J\306Z\206\237@\345\367\030\033\017\334t\003\253"
  82      869F40E5 
  82      F7181B0F 
  82      DC7403AB 
  83 00a7 640019C4 		.ascii	"d\000\031\304\0102\000h\234\232{j^jQbIjJ|p~iQrjL@p\276"
  83      08320068 
  83      9C9A7B6A 
  83      5E6A5162 
  83      496A4A7C 
  84 00c5 B3694C40 		.ascii	"\263iL@\270o|Pjz\274i|\200\257^2\003\000\334\364G\326"
  84      B86F7C50 
  84      6A7ABC69 
ARM GAS  C:\Users\Bruger\AppData\Local\Temp\ccZUUZOC.s 			page 6


  84      7C80AF5E 
  84      320300DC 
  85              		.text
  86              		.section	.gnu.lto_PWM_Reg_5_Wakeup.ec5a5c5a,"",%progbits
  87 0000 789C6366 		.ascii	"x\234cf\300\004R@\274\030\2105\200\230\221\231\201\221"
  87      C0045240 
  87      BC188835 
  87      80989199 
  87      8191
  88 0012 69C23906 		.ascii	"i\3029\006\206F\016&FF\020\203\201\221\241\236\211\261"
  88      86460E26 
  88      46461083 
  88      8191A19E 
  88      89B1
  89 0024 9EF125D3 		.ascii	"\236\361%\323G&\306\011\007V\317\340V_\332\320\320\360"
  89      4726C609 
  89      0756CFE0 
  89      565FDAD0 
  89      D0F0
  90 0036 E1D24E89 		.ascii	"\341\322N\211V\211\237L\014\014\237\231 \3060.gTg\000"
  90      56899F4C 
  90      0C0C9F99 
  90      20C6302E 
  90      67546700 
  91 004a AAF9D8F2 		.ascii	"\252\371\330\362\367:7[\013P\215\000D\216q\005#\033"
  91      F73A375B 
  91      0B508D00 
  91      448E7105 
  91      231B
  92 005c 23905E2F 		.ascii	"#\220^/t\240\341\377\377\315\317'v\230\001\255ax\002"
  92      74A0E1FF 
  92      FFCDCF27 
  92      769801AD 
  92      617802
  93 006f 940359F0 		.ascii	"\224\003Y\360\224\211\011D3\337al>0\3778\023H5\310\230"
  93      94890944 
  93      33DF616C 
  93      3E30FF38 
  93      134835C8 
  94 0084 7997FBD6 		.ascii	"y\227\373\3261\325\376n\350h\340\370\311\304\370\231"
  94      31D5FE6E 
  94      E868E0F8 
  94      C9C4F899 
  95 0094 096802E3 		.ascii	"\011h\002\343J\306Z\206\237@\345\367\030\033\017lt\007"
  95      4AC65A86 
  95      9F40E5F7 
  95      181B0F6C 
  95      7407
  96 00a6 AB640019 		.ascii	"\253d\000\031\304\0102\000h\234\232{j^jQbIjJ|p~iQrj"
  96      C4083200 
  96      689C9A7B 
  96      6A5E6A51 
  96      62496A4A 
  97 00c1 4C4070BE 		.ascii	"L@p\276\263iL@\270o|Pjz\274i|\200\257^2\003\000\376"
  97      B3694C40 
  97      B86F7C50 
  97      6A7ABC69 
ARM GAS  C:\Users\Bruger\AppData\Local\Temp\ccZUUZOC.s 			page 7


  97      7C80AF5E 
  98 00d9 4C47D9   		.ascii	"LG\331"
  99              		.text
 100              		.section	.gnu.lto_.symbol_nodes.ec5a5c5a,"",%progbits
 101 0000 789C5588 		.ascii	"x\234U\210\321\011\2000\024\304\362\356*\270\242\323"
 101      D1098030 
 101      14C4F2EE 
 101      2AB8A2D3 
 102 0010 DC0A4E20 		.ascii	"\334\012N \305\201\234\301I\212 ~\324\374\204\304\300"
 102      C5819CC1 
 102      498A207E 
 102      D4FC84C4 
 102      C0
 103 0021 C6872AB0 		.ascii	"\306\207*\260_\220p\364\225\005\272b)5o9\372u\213\347"
 103      5F9070F4 
 103      9505BA62 
 103      29356F39 
 103      FA758BE7 
 104 0035 B6E1BC47 		.ascii	"\266\341\274G\271\3515\017\341m\0273"
 104      B9E9350F 
 104      E16D1733 
 105              		.text
 106              		.section	.gnu.lto_.refs.ec5a5c5a,"",%progbits
 107 0000 789C6366 		.ascii	"x\234cf``\340f\200\000F\006FF&F& \311\000\000\001l\000"
 107      6060E066 
 107      80004606 
 107      46462646 
 107      2620C900 
 108 0018 19       		.ascii	"\031"
 109              		.text
 110              		.section	.gnu.lto_.decls.ec5a5c5a,"",%progbits
 111 0000 789C8553 		.ascii	"x\234\205SoHTK\024\237sg[\327\355\266\012\206\206\237"
 111      6F48544B 
 111      149F7367 
 111      5BD7EDB6 
 111      0A86869F 
 112 0014 2C41DE0B 		.ascii	",A\336\013\211\010\212\276e-\021\024=\0267\351C\305"
 112      89088ABE 
 112      652D1114 
 112      3D1637E9 
 112      43C5
 113 0026 E2DBEEB3 		.ascii	"\342\333\356\263\250\\\333\326\240>\304\244\224f\021"
 113      A85CDBD6 
 113      A03EC4A4 
 113      946611
 114 0035 25956114 		.ascii	"%\225a\024\033J\245\255\353\266O\353m\332\272V\272\253"
 114      1B4AA5AD 
 114      EBB64FEB 
 114      6DDABA56 
 114      BAAB
 115 0047 62458465 		.ascii	"bE\204e\037\312\214\240\017A\333\037\244\377\333\231"
 115      1FCA8CA0 
 115      0F41DB1F 
 115      A4FFDB99 
 116 0057 D97BBBAB 		.ascii	"\331{\273\253/k\340\334;g\346\367\373\2353\347\314P"
 116      2F6BE0DC 
 116      3B67E6F7 
ARM GAS  C:\Users\Bruger\AppData\Local\Temp\ccZUUZOC.s 			page 8


 116      FB9D33E7 
 116      CC50
 117 0069 42C84220 		.ascii	"B\310B $\201c\257\201\020\003\316g\340\232\215\350\003"
 117      248163AF 
 117      811003CE 
 117      67E09A8D 
 117      E803
 118 007b 97890FCD 		.ascii	"\227\211\017\315\217\026@\013\242!\214\364\222\311\203"
 118      8F16400B 
 118      A2218CF4 
 118      92C983
 119 008a 63D2546E 		.ascii	"c\322Tn6Z\014\3556\332\000\332\015\264k*\257K\375\373"
 119      365A0CED 
 119      36DA00DA 
 119      0DB46B2A 
 119      AF4BFDFB 
 120 009e A6D1F14F 		.ascii	"\246\321\361O\321I\345k\232\251:\376itx\256T\325\031"
 120      D149E56B 
 120      9AA93AFE 
 120      697478AE 
 120      54D519
 121 00b1 446B51D7 		.ascii	"DkQ\327%u\317G\376?\202\277\340\004\325XS\307\033\011"
 121      2575CF47 
 121      FE3F82BF 
 121      E004D558 
 121      53C71B09 
 122 00c5 86C63FBC 		.ascii	"\206\306?\274\223_J`1gr\267\361\341\213\367\024]\331"
 122      935F4A60 
 122      316772B7 
 122      F1E18BF7 
 122      145DD9
 123 00d8 2C71F7EA 		.ascii	",q\367\352\307\211vc\316I\306G5\313\224\300\226\015"
 123      C7897663 
 123      CE49C647 
 123      35CB94C0 
 123      960D
 124 00ea 1721172E 		.ascii	"\027!\027.A.f\336\0029\370\335`H*\335\034o\250N\243"
 124      412E66DE 
 124      0239F8DD 
 124      60482ADD 
 124      1C6FA84E 
 125 00ff 12F079D3 		.ascii	"\022\360y\323\351g\017\314\205\255\310\252e\221\017"
 125      E9670FCC 
 125      85ADC8AA 
 125      65910F
 126 010e 921E2E7E 		.ascii	"\222\036.~\366\376\363\364\274sl,\020\017\007Fev\211"
 126      F6FEF3F4 
 126      BC736C2C 
 126      100F0746 
 126      657689
 127 0121 45128965 		.ascii	"E\022\211eB\012Z\201\302e(\344H>\027\024\360A\036\322"
 127      420A5A81 
 127      C26528E4 
 127      483E1714 
 127      F0411ED2 
 128 0135 DADE8DF6 		.ascii	"\332\336\215\366\246\323\225B\373\371\213OMI\011\357"
 128      A6D39542 
ARM GAS  C:\Users\Bruger\AppData\Local\Temp\ccZUUZOC.s 			page 9


 128      FBF98B4F 
 128      4D4909EF 
 129 0145 D7202BAA 		.ascii	"\327 +\252b_\022\011*\004\332R\004\3324\001\277\020"
 129      625F1209 
 129      2A04DA52 
 129      04DA3401 
 129      BF10
 130 0157 E8BC7F28 		.ascii	"\350\274\177(j\241\233\204\300\255W\255c&\024\360\006"
 130      6AA19B84 
 130      C0AD57AD 
 130      632614F0 
 130      06
 131 0168 BC2D4DC6 		.ascii	"\274-M\306d\006\202\337\236\302o\327\370\001\301?yg"
 131      640682DF 
 131      9EC26FD7 
 131      F801C13F 
 131      7967
 132 017a E8A04C77 		.ascii	"\350\240Lw\010~\350s\264\237&\371\303\223\370WR\370"
 132      087EE873 
 132      B49F26F9 
 132      C393F857 
 132      52F8
 133 018c 57347E50 		.ascii	"W4~P\360\303\203\217\217f\320}\202?\322SSc\242\247@"
 133      F0C3838F 
 133      8F66D07D 
 133      823FD253 
 133      5363A2A7 
 134 01a1 38FB2F74 		.ascii	"8\373/t\035I\303\202g\233E}\216\0165\366R\341&\370\266"
 134      1D49C382 
 134      679B457D 
 134      8E0E35F6 
 134      52E126F8 
 135 01b6 343A7AE2 		.ascii	"4:z\342#\005sA-cU,^\317\350\034\002\205\271\360g.\201"
 135      23057341 
 135      2D63552C 
 135      5ECFE81C 
 135      0285B9F0 
 136 01cd FFA00061 		.ascii	"\377\240\000a\" tbO\256bO\232\261\342\361\356\003\341"
 136      22207462 
 136      4FAE624F 
 136      9AB1E2F1 
 136      EE03E1
 137 01e0 D5D5AC08 		.ascii	"\325\325\254\010\256\201\031:~\244$\"\250]hL\214tXh"
 137      AE81193A 
 137      7EA42422 
 137      A85D684C 
 137      8C745868 
 138 01f4 5864404F 		.ascii	"Xd@O|\373\022\260@\326\274\202\343\274\313\361*V\264"
 138      7CFB12B0 
 138      40D6BC82 
 138      E3BCCBF1 
 138      2A56B4
 139 0207 538B41E0 		.ascii	"S\213A\340:dq>tc\260.\230'\004\274\230K\374L\364\356"
 139      3A64713E 
 139      7463B02E 
 139      982704BC 
 139      984BFC4C 
ARM GAS  C:\Users\Bruger\AppData\Local\Temp\ccZUUZOC.s 			page 10


 140 021d AC063616 		.ascii	"\254\0066\026\001\021&\204a8TM\355\017N\235\217\037"
 140      01112684 
 140      6138544D 
 140      ED0F4E9D 
 140      8F1F
 141 022f 91D058F7 		.ascii	"\221\320X\367\"\023\337%Zq\264<\244\375=\361\020@\326"
 141      2213DF25 
 141      5A71B43C 
 141      A4FD3DF1 
 141      1040D6
 142 0242 4F224318 		.ascii	"O\"C\030\003\376,\270\020\214\031\001n\340\346\277\372"
 142      03FE2CB8 
 142      108C1901 
 142      6EE0E6BF 
 142      FA
 143 0253 E9B8BE76 		.ascii	"\351\270\276v\274{o\007\0032}\235,pd\3307\221\266\244"
 143      BC7B6F07 
 143      03327D9D 
 143      2C7064D8 
 143      3791B6A4 
 144 0267 83D57A4D 		.ascii	"\203\325zM\202\203B\274\\|\353\351\335h\304\234\177"
 144      828342BC 
 144      5C7CEBE9 
 144      DD68C49C 
 144      7F
 145 0278 9E316F3C 		.ascii	"\2361o<\374\244Y\302\343\2408o\246\000\366$\305\177"
 145      FCA459C2 
 145      E3A0386F 
 145      A600F624 
 145      C57F
 146 028a 94A28777 		.ascii	"\224\242\207w\024\"\260\204@/\344#\2355\034n6Q\226\274"
 146      1422B084 
 146      402FE423 
 146      9D351C6E 
 146      365196BC 
 147 029e F19D1375 		.ascii	"\361\235\023u\241Y\346Z\376L~\337&<\372\203;u#\351\311"
 147      A159E65A 
 147      FE4C7EDF 
 147      263CFA83 
 147      3B7523E9 
 148 02b3 C64E65F4 		.ascii	"\306Ne\364M\323\330@w\337[\312\230\001nc\305o\352G\277"
 148      4DD3D840 
 148      77DF5BCA 
 148      98016E63 
 148      C56FEA47 
 149 02c8 057A6743 		.ascii	"\005zgC\376\367\3033\305s\316\343\356\365\372\330i\243"
 149      FEF7C333 
 149      C573CEE3 
 149      EEF5FAD8 
 149      69A3
 150 02da 78CE06EE 		.ascii	"x\316\006\356\036\032o\034\226\345:~\227\216U\263\364"
 150      1E1A6F1C 
 150      96E53A7E 
 150      978E55B3 
 150      F4
 151 02eb 984548F5 		.ascii	"\230EH\365c\214\250x\3201\220\305\235\305?\242\353\037"
 151      638CA878 
ARM GAS  C:\Users\Bruger\AppData\Local\Temp\ccZUUZOC.s 			page 11


 151      D03190C5 
 151      9DC53FA2 
 151      EB1F
 152 02fd 851E1B26 		.ascii	"\205\036\033&\241yYt\364\200\212\036\020\350\313\355"
 152      A1795974 
 152      F4808A1E 
 152      10E8CBED 
 153 030d 076A3226 		.ascii	"\007j2&\241\371\223\320\321\203 k\011\343\224\314\266"
 153      A1F993D0 
 153      D183206B 
 153      09E394CC 
 153      B6
 154 031e AD5FEB28 		.ascii	"\255_\353(V\312\034\213\035\366\322\335\212\325U\376"
 154      56CA1C8B 
 154      1DF6D2DD 
 154      8AD555FE 
 155 032e CFD632E3 		.ascii	"\317\3262\343\252\277J\362\254\244`\225R\256\270K=\312"
 155      AABF4AF2 
 155      ACA46095 
 155      52AEB84B 
 155      3DCA
 156 0340 6687DD55 		.ascii	"f\207\335U\351v*\033mv\227u\361F\235b[\273\300Irt\277"
 156      E9762A1B 
 156      6D769775 
 156      F1469D62 
 156      5BBBC049 
 157 0357 58D9E571 		.ascii	"X\331\345q\271U\225\214\024\351\355\212R\221\251\373"
 157      B955958C 
 157      14E9ED8A 
 157      5291A9FB 
 158 0367 EB4BB729 		.ascii	"\353K\267)\225\025)\304\025\313\255kJl\016\373\272\342"
 158      951529C4 
 158      15CBAD6B 
 158      4A6C0EFB 
 158      BAE2
 159 0379 12EBBA19 		.ascii	"\022\353\272\031\225[\313=K\347N\023\335\271\307\263"
 159      955BCB3D 
 159      4BE74E13 
 159      DDB9C7B3 
 160 0389 A742D9B5 		.ascii	"\247B\331\265`\013\221\235\256r\217\333\265\335\356"
 160      600B919D 
 160      AE728FDB 
 160      B5DDEE
 161 0398 4154FEEF 		.ascii	"AT\376\357\222EBJ\006\177\227:\267UV\030\334J\331\322"
 161      9245424A 
 161      067F973A 
 161      B7555618 
 161      DC4AD9D2 
 162 03ac EF82FBCB 		.ascii	"\357\202\373\313\351"
 162      E9
 163              		.text
 164              		.section	.gnu.lto_.symtab.ec5a5c5a,"",%progbits
 165 0000 50574D5F 		.ascii	"PWM_Reg_5_SaveConfig\000\000\000\000\000\000\000\000"
 165      5265675F 
 165      355F5361 
 165      7665436F 
 165      6E666967 
ARM GAS  C:\Users\Bruger\AppData\Local\Temp\ccZUUZOC.s 			page 12


 166 001c 00000000 		.ascii	"\000\000\000\000\254\000\000\000PWM_Reg_5_RestoreCo"
 166      AC000000 
 166      50574D5F 
 166      5265675F 
 166      355F5265 
 167 0037 6E666967 		.ascii	"nfig\000\000\000\000\000\000\000\000\000\000\000\000"
 167      00000000 
 167      00000000 
 167      00000000 
 168 0047 AE000000 		.ascii	"\256\000\000\000PWM_Reg_5_Sleep\000\000\000\000\000"
 168      50574D5F 
 168      5265675F 
 168      355F536C 
 168      65657000 
 169 005f 00000000 		.ascii	"\000\000\000\000\000\000\000\260\000\000\000PWM_Reg"
 169      000000B0 
 169      00000050 
 169      574D5F52 
 169      6567
 170 0071 5F355F57 		.ascii	"_5_Wakeup\000\000\000\000\000\000\000\000\000\000\000"
 170      616B6575 
 170      70000000 
 170      00000000 
 170      00000000 
 171 0085 00B20000 		.ascii	"\000\262\000\000\000"
 171      00
 172              		.text
 173              		.section	.gnu.lto_.opts,"",%progbits
 174 0000 272D666E 		.ascii	"'-fno-trapv' '-mcpu=cortex-m3' '-mthumb' '-g' '-Os'"
 174      6F2D7472 
 174      61707627 
 174      20272D6D 
 174      6370753D 
 175 0033 20272D66 		.ascii	" '-ffunction-sections' '-finline-functions' '-flto'"
 175      66756E63 
 175      74696F6E 
 175      2D736563 
 175      74696F6E 
 176 0066 20272D66 		.ascii	" '-ffat-lto-objects'\000"
 176      6661742D 
 176      6C746F2D 
 176      6F626A65 
 176      63747327 
 177              		.text
 178              		.cfi_sections	.debug_frame
 179              		.section	.text.PWM_Reg_5_SaveConfig,"ax",%progbits
 180              		.align	1
 181              		.global	PWM_Reg_5_SaveConfig
 182              		.thumb
 183              		.thumb_func
 184              		.type	PWM_Reg_5_SaveConfig, %function
 185              	PWM_Reg_5_SaveConfig:
 186              	.LFB0:
 187              		.file 1 "Generated_Source\\PSoC5\\PWM_Reg_5_PM.c"
   1:Generated_Source\PSoC5/PWM_Reg_5_PM.c **** /*******************************************************************************
   2:Generated_Source\PSoC5/PWM_Reg_5_PM.c **** * File Name: PWM_Reg_5_PM.c
   3:Generated_Source\PSoC5/PWM_Reg_5_PM.c **** * Version 1.80
ARM GAS  C:\Users\Bruger\AppData\Local\Temp\ccZUUZOC.s 			page 13


   4:Generated_Source\PSoC5/PWM_Reg_5_PM.c **** *
   5:Generated_Source\PSoC5/PWM_Reg_5_PM.c **** * Description:
   6:Generated_Source\PSoC5/PWM_Reg_5_PM.c **** *  This file contains the setup, control, and status commands to support 
   7:Generated_Source\PSoC5/PWM_Reg_5_PM.c **** *  the component operation in the low power mode. 
   8:Generated_Source\PSoC5/PWM_Reg_5_PM.c **** *
   9:Generated_Source\PSoC5/PWM_Reg_5_PM.c **** * Note:
  10:Generated_Source\PSoC5/PWM_Reg_5_PM.c **** *
  11:Generated_Source\PSoC5/PWM_Reg_5_PM.c **** ********************************************************************************
  12:Generated_Source\PSoC5/PWM_Reg_5_PM.c **** * Copyright 2015, Cypress Semiconductor Corporation.  All rights reserved.
  13:Generated_Source\PSoC5/PWM_Reg_5_PM.c **** * You may use this file only in accordance with the license, terms, conditions, 
  14:Generated_Source\PSoC5/PWM_Reg_5_PM.c **** * disclaimers, and limitations in the end user license agreement accompanying 
  15:Generated_Source\PSoC5/PWM_Reg_5_PM.c **** * the software package with which this file was provided.
  16:Generated_Source\PSoC5/PWM_Reg_5_PM.c **** *******************************************************************************/
  17:Generated_Source\PSoC5/PWM_Reg_5_PM.c **** 
  18:Generated_Source\PSoC5/PWM_Reg_5_PM.c **** #include "PWM_Reg_5.h"
  19:Generated_Source\PSoC5/PWM_Reg_5_PM.c **** 
  20:Generated_Source\PSoC5/PWM_Reg_5_PM.c **** /* Check for removal by optimization */
  21:Generated_Source\PSoC5/PWM_Reg_5_PM.c **** #if !defined(PWM_Reg_5_Sync_ctrl_reg__REMOVED)
  22:Generated_Source\PSoC5/PWM_Reg_5_PM.c **** 
  23:Generated_Source\PSoC5/PWM_Reg_5_PM.c **** static PWM_Reg_5_BACKUP_STRUCT  PWM_Reg_5_backup = {0u};
  24:Generated_Source\PSoC5/PWM_Reg_5_PM.c **** 
  25:Generated_Source\PSoC5/PWM_Reg_5_PM.c ****     
  26:Generated_Source\PSoC5/PWM_Reg_5_PM.c **** /*******************************************************************************
  27:Generated_Source\PSoC5/PWM_Reg_5_PM.c **** * Function Name: PWM_Reg_5_SaveConfig
  28:Generated_Source\PSoC5/PWM_Reg_5_PM.c **** ********************************************************************************
  29:Generated_Source\PSoC5/PWM_Reg_5_PM.c **** *
  30:Generated_Source\PSoC5/PWM_Reg_5_PM.c **** * Summary:
  31:Generated_Source\PSoC5/PWM_Reg_5_PM.c **** *  Saves the control register value.
  32:Generated_Source\PSoC5/PWM_Reg_5_PM.c **** *
  33:Generated_Source\PSoC5/PWM_Reg_5_PM.c **** * Parameters:
  34:Generated_Source\PSoC5/PWM_Reg_5_PM.c **** *  None
  35:Generated_Source\PSoC5/PWM_Reg_5_PM.c **** *
  36:Generated_Source\PSoC5/PWM_Reg_5_PM.c **** * Return:
  37:Generated_Source\PSoC5/PWM_Reg_5_PM.c **** *  None
  38:Generated_Source\PSoC5/PWM_Reg_5_PM.c **** *
  39:Generated_Source\PSoC5/PWM_Reg_5_PM.c **** *******************************************************************************/
  40:Generated_Source\PSoC5/PWM_Reg_5_PM.c **** void PWM_Reg_5_SaveConfig(void) 
  41:Generated_Source\PSoC5/PWM_Reg_5_PM.c **** {
 188              		.loc 1 41 0
 189              		.cfi_startproc
 190              		@ args = 0, pretend = 0, frame = 0
 191              		@ frame_needed = 0, uses_anonymous_args = 0
 192              		@ link register save eliminated.
  42:Generated_Source\PSoC5/PWM_Reg_5_PM.c ****     PWM_Reg_5_backup.controlState = PWM_Reg_5_Control;
 193              		.loc 1 42 0
 194 0000 024B     		ldr	r3, .L2
 195 0002 1A78     		ldrb	r2, [r3]	@ zero_extendqisi2
 196 0004 024B     		ldr	r3, .L2+4
 197 0006 1A70     		strb	r2, [r3]
 198 0008 7047     		bx	lr
 199              	.L3:
 200 000a 00BF     		.align	2
 201              	.L2:
 202 000c 74640040 		.word	1073767540
 203 0010 00000000 		.word	.LANCHOR0
 204              		.cfi_endproc
 205              	.LFE0:
ARM GAS  C:\Users\Bruger\AppData\Local\Temp\ccZUUZOC.s 			page 14


 206              		.size	PWM_Reg_5_SaveConfig, .-PWM_Reg_5_SaveConfig
 207              		.section	.text.PWM_Reg_5_RestoreConfig,"ax",%progbits
 208              		.align	1
 209              		.global	PWM_Reg_5_RestoreConfig
 210              		.thumb
 211              		.thumb_func
 212              		.type	PWM_Reg_5_RestoreConfig, %function
 213              	PWM_Reg_5_RestoreConfig:
 214              	.LFB1:
  43:Generated_Source\PSoC5/PWM_Reg_5_PM.c **** }
  44:Generated_Source\PSoC5/PWM_Reg_5_PM.c **** 
  45:Generated_Source\PSoC5/PWM_Reg_5_PM.c **** 
  46:Generated_Source\PSoC5/PWM_Reg_5_PM.c **** /*******************************************************************************
  47:Generated_Source\PSoC5/PWM_Reg_5_PM.c **** * Function Name: PWM_Reg_5_RestoreConfig
  48:Generated_Source\PSoC5/PWM_Reg_5_PM.c **** ********************************************************************************
  49:Generated_Source\PSoC5/PWM_Reg_5_PM.c **** *
  50:Generated_Source\PSoC5/PWM_Reg_5_PM.c **** * Summary:
  51:Generated_Source\PSoC5/PWM_Reg_5_PM.c **** *  Restores the control register value.
  52:Generated_Source\PSoC5/PWM_Reg_5_PM.c **** *
  53:Generated_Source\PSoC5/PWM_Reg_5_PM.c **** * Parameters:
  54:Generated_Source\PSoC5/PWM_Reg_5_PM.c **** *  None
  55:Generated_Source\PSoC5/PWM_Reg_5_PM.c **** *
  56:Generated_Source\PSoC5/PWM_Reg_5_PM.c **** * Return:
  57:Generated_Source\PSoC5/PWM_Reg_5_PM.c **** *  None
  58:Generated_Source\PSoC5/PWM_Reg_5_PM.c **** *
  59:Generated_Source\PSoC5/PWM_Reg_5_PM.c **** *
  60:Generated_Source\PSoC5/PWM_Reg_5_PM.c **** *******************************************************************************/
  61:Generated_Source\PSoC5/PWM_Reg_5_PM.c **** void PWM_Reg_5_RestoreConfig(void) 
  62:Generated_Source\PSoC5/PWM_Reg_5_PM.c **** {
 215              		.loc 1 62 0
 216              		.cfi_startproc
 217              		@ args = 0, pretend = 0, frame = 0
 218              		@ frame_needed = 0, uses_anonymous_args = 0
 219              		@ link register save eliminated.
  63:Generated_Source\PSoC5/PWM_Reg_5_PM.c ****      PWM_Reg_5_Control = PWM_Reg_5_backup.controlState;
 220              		.loc 1 63 0
 221 0000 024B     		ldr	r3, .L5
 222 0002 1A78     		ldrb	r2, [r3]	@ zero_extendqisi2
 223 0004 024B     		ldr	r3, .L5+4
 224 0006 1A70     		strb	r2, [r3]
 225 0008 7047     		bx	lr
 226              	.L6:
 227 000a 00BF     		.align	2
 228              	.L5:
 229 000c 00000000 		.word	.LANCHOR0
 230 0010 74640040 		.word	1073767540
 231              		.cfi_endproc
 232              	.LFE1:
 233              		.size	PWM_Reg_5_RestoreConfig, .-PWM_Reg_5_RestoreConfig
 234              		.section	.text.PWM_Reg_5_Sleep,"ax",%progbits
 235              		.align	1
 236              		.global	PWM_Reg_5_Sleep
 237              		.thumb
 238              		.thumb_func
 239              		.type	PWM_Reg_5_Sleep, %function
 240              	PWM_Reg_5_Sleep:
 241              	.LFB2:
ARM GAS  C:\Users\Bruger\AppData\Local\Temp\ccZUUZOC.s 			page 15


  64:Generated_Source\PSoC5/PWM_Reg_5_PM.c **** }
  65:Generated_Source\PSoC5/PWM_Reg_5_PM.c **** 
  66:Generated_Source\PSoC5/PWM_Reg_5_PM.c **** 
  67:Generated_Source\PSoC5/PWM_Reg_5_PM.c **** /*******************************************************************************
  68:Generated_Source\PSoC5/PWM_Reg_5_PM.c **** * Function Name: PWM_Reg_5_Sleep
  69:Generated_Source\PSoC5/PWM_Reg_5_PM.c **** ********************************************************************************
  70:Generated_Source\PSoC5/PWM_Reg_5_PM.c **** *
  71:Generated_Source\PSoC5/PWM_Reg_5_PM.c **** * Summary:
  72:Generated_Source\PSoC5/PWM_Reg_5_PM.c **** *  Prepares the component for entering the low power mode.
  73:Generated_Source\PSoC5/PWM_Reg_5_PM.c **** *
  74:Generated_Source\PSoC5/PWM_Reg_5_PM.c **** * Parameters:
  75:Generated_Source\PSoC5/PWM_Reg_5_PM.c **** *  None
  76:Generated_Source\PSoC5/PWM_Reg_5_PM.c **** *
  77:Generated_Source\PSoC5/PWM_Reg_5_PM.c **** * Return:
  78:Generated_Source\PSoC5/PWM_Reg_5_PM.c **** *  None
  79:Generated_Source\PSoC5/PWM_Reg_5_PM.c **** *
  80:Generated_Source\PSoC5/PWM_Reg_5_PM.c **** *******************************************************************************/
  81:Generated_Source\PSoC5/PWM_Reg_5_PM.c **** void PWM_Reg_5_Sleep(void) 
  82:Generated_Source\PSoC5/PWM_Reg_5_PM.c **** {
 242              		.loc 1 82 0
 243              		.cfi_startproc
 244              		@ args = 0, pretend = 0, frame = 0
 245              		@ frame_needed = 0, uses_anonymous_args = 0
 246              		@ link register save eliminated.
  83:Generated_Source\PSoC5/PWM_Reg_5_PM.c ****     PWM_Reg_5_SaveConfig();
 247              		.loc 1 83 0
 248 0000 FFF7FEBF 		b	PWM_Reg_5_SaveConfig
 249              	.LVL0:
 250              		.cfi_endproc
 251              	.LFE2:
 252              		.size	PWM_Reg_5_Sleep, .-PWM_Reg_5_Sleep
 253              		.section	.text.PWM_Reg_5_Wakeup,"ax",%progbits
 254              		.align	1
 255              		.global	PWM_Reg_5_Wakeup
 256              		.thumb
 257              		.thumb_func
 258              		.type	PWM_Reg_5_Wakeup, %function
 259              	PWM_Reg_5_Wakeup:
 260              	.LFB3:
  84:Generated_Source\PSoC5/PWM_Reg_5_PM.c **** }
  85:Generated_Source\PSoC5/PWM_Reg_5_PM.c **** 
  86:Generated_Source\PSoC5/PWM_Reg_5_PM.c **** 
  87:Generated_Source\PSoC5/PWM_Reg_5_PM.c **** /*******************************************************************************
  88:Generated_Source\PSoC5/PWM_Reg_5_PM.c **** * Function Name: PWM_Reg_5_Wakeup
  89:Generated_Source\PSoC5/PWM_Reg_5_PM.c **** ********************************************************************************
  90:Generated_Source\PSoC5/PWM_Reg_5_PM.c **** *
  91:Generated_Source\PSoC5/PWM_Reg_5_PM.c **** * Summary:
  92:Generated_Source\PSoC5/PWM_Reg_5_PM.c **** *  Restores the component after waking up from the low power mode.
  93:Generated_Source\PSoC5/PWM_Reg_5_PM.c **** *
  94:Generated_Source\PSoC5/PWM_Reg_5_PM.c **** * Parameters:
  95:Generated_Source\PSoC5/PWM_Reg_5_PM.c **** *  None
  96:Generated_Source\PSoC5/PWM_Reg_5_PM.c **** *
  97:Generated_Source\PSoC5/PWM_Reg_5_PM.c **** * Return:
  98:Generated_Source\PSoC5/PWM_Reg_5_PM.c **** *  None
  99:Generated_Source\PSoC5/PWM_Reg_5_PM.c **** *
 100:Generated_Source\PSoC5/PWM_Reg_5_PM.c **** *******************************************************************************/
 101:Generated_Source\PSoC5/PWM_Reg_5_PM.c **** void PWM_Reg_5_Wakeup(void)  
ARM GAS  C:\Users\Bruger\AppData\Local\Temp\ccZUUZOC.s 			page 16


 102:Generated_Source\PSoC5/PWM_Reg_5_PM.c **** {
 261              		.loc 1 102 0
 262              		.cfi_startproc
 263              		@ args = 0, pretend = 0, frame = 0
 264              		@ frame_needed = 0, uses_anonymous_args = 0
 265              		@ link register save eliminated.
 103:Generated_Source\PSoC5/PWM_Reg_5_PM.c ****     PWM_Reg_5_RestoreConfig();
 266              		.loc 1 103 0
 267 0000 FFF7FEBF 		b	PWM_Reg_5_RestoreConfig
 268              	.LVL1:
 269              		.cfi_endproc
 270              	.LFE3:
 271              		.size	PWM_Reg_5_Wakeup, .-PWM_Reg_5_Wakeup
 272              		.bss
 273              		.set	.LANCHOR0,. + 0
 274              		.type	PWM_Reg_5_backup, %object
 275              		.size	PWM_Reg_5_backup, 1
 276              	PWM_Reg_5_backup:
 277 0000 00       		.space	1
 278              		.text
 279              	.Letext0:
 280              		.file 2 "Generated_Source\\PSoC5\\cytypes.h"
 281              		.file 3 "Generated_Source\\PSoC5\\PWM_Reg_5.h"