ARM GAS  C:\Users\Bruger\AppData\Local\Temp\cctvWd5V.s 			page 1


   1              		.syntax unified
   2              		.cpu cortex-m3
   3              		.fpu softvfp
   4              		.eabi_attribute 20, 1
   5              		.eabi_attribute 21, 1
   6              		.eabi_attribute 23, 3
   7              		.eabi_attribute 24, 1
   8              		.eabi_attribute 25, 1
   9              		.eabi_attribute 26, 1
  10              		.eabi_attribute 30, 4
  11              		.eabi_attribute 34, 1
  12              		.eabi_attribute 18, 4
  13              		.thumb
  14              		.file	"ServoCounter_PM.c"
  15              		.text
  16              	.Ltext0:
  17              		.section	.gnu.lto_.profile.ec5a3448,"",%progbits
  18 0000 789C6366 		.ascii	"x\234cf```a\200\000F\206\014\031\000\001`\000\215"
  18      60606061 
  18      80004686 
  18      0C190001 
  18      60008D
  19              		.text
  20              		.section	.gnu.lto_.jmpfuncs.ec5a3448,"",%progbits
  21 0000 789C6366 		.ascii	"x\234cf\300\016\244\2404\013\230db``\004#f\204\030\000"
  21      C00EA4A0 
  21      340B9864 
  21      62606004 
  21      23668418 
  22 0015 0544002D 		.ascii	"\005D\000-"
  23              		.text
  24              		.section	.gnu.lto_.inline.ec5a3448,"",%progbits
  25 0000 789C6366 		.ascii	"x\234cf\300\016\252\2404\013\003\003\247\024#\003\023"
  25      C00EAAA0 
  25      340B0303 
  25      A7142303 
  25      13
  26 0011 CB027906 		.ascii	"\313\002y\006\266\005\362L 1&n8\201]\222q\202\037\224"
  26      B605F24C 
  26      2031266E 
  26      38815D92 
  26      71821F94 
  27 0025 6266E002 		.ascii	"bf\340\002)\340\332g\007W\300\310\005#X\0308\004\201"
  27      29E0DA67 
  27      0757C0C8 
  27      05235818 
  27      380481
  28 0038 926C1FF4 		.ascii	"\222l\037\364\260H2\000\000\232\325\012\004"
  28      B0483200 
  28      009AD50A 
  28      04
  29              		.text
  30              		.section	.gnu.lto_.pureconst.ec5a3448,"",%progbits
  31 0000 789C6366 		.ascii	"x\234cf``\340d\200\000\026\006\011&\011f)\026\011\000"
  31      6060E064 
  31      80001606 
  31      09260966 
ARM GAS  C:\Users\Bruger\AppData\Local\Temp\cctvWd5V.s 			page 2


  31      29160900 
  32 0014 02B7007C 		.ascii	"\002\267\000|"
  33              		.text
  34              		.section	.gnu.lto_ServoCounter_SaveConfig.ec5a3448,"",%progbits
  35 0000 789C7D90 		.ascii	"x\234}\220\275K\003A\020\305\347\355\231\3634\215X\346"
  35      BD4B0341 
  35      10C5E7ED 
  35      99F3348D 
  35      58E6
  36 0012 1F08A2B1 		.ascii	"\037\010\242\261\263K\227B\033!\2206\020$^\233\203#"
  36      B34B9742 
  36      1B219036 
  36      10245E9B 
  36      8323
  37 0024 B10BB9D3 		.ascii	"\261\013\271\323\024V\032\254\004?@A\214\346K\355\205"
  37      14561AAC 
  37      043F4041 
  37      8CE64BED 
  37      85
  38 0035 B3161449 		.ascii	"\263\026\024I!D\321&\202\351\214W\310!1\316^\272D\\"
  38      2144D126 
  38      82E98C57 
  38      C82131CE 
  38      5EBA445C 
  39 0049 98DD9D9D 		.ascii	"\230\335\235\235\267o~\273\012\215\216\020G\015D\263"
  39      B76F7EBB 
  39      0A8D8E10 
  39      470D44B3 
  40 0059 BC422188 		.ascii	"\274B!\210\322\035\221\255\011@n\010T\020(\240#\272"
  40      D21D91AD 
  40      09406E08 
  40      541028A0 
  40      23BA
  41 006b 0225A7B2 		.ascii	"\002%\247\262\033\014\237X\226\365q|k\307\035x\202\310"
  41      1B0C9F58 
  41      96F5717C 
  41      6BC71D78 
  41      82C8
  42 007d 15031F9C 		.ascii	"\025\003\037\234\"L,\352\026{\217A\265\310\242\251A"
  42      224C2CEA 
  42      167B8F41 
  42      B5C8A2A9 
  42      41
  43 008e 0D65A8EC 		.ascii	"\015e\250\354O\215i\307\352\367\335\332M\013\232B\236"
  43      4F8D69C7 
  43      EAF7DDDA 
  43      4D0B9A42 
  43      9E
  44 009f 80CA130B 		.ascii	"\200\312\023\013\332\034\262\325\033'\274*\317\330p"
  44      DA1CB2D5 
  44      1B27BC2A 
  44      CFD870
  45 00ae AE3B425E 		.ascii	"\256;B^\373\022\012;\0366\267\352\"\377mmZ\232'\024"
  45      FB120A3B 
  45      1E36B7EA 
  45      22FF6D6D 
  45      5A9A2714 
ARM GAS  C:\Users\Bruger\AppData\Local\Temp\cctvWd5V.s 			page 3


  46 00c2 57B019CE 		.ascii	"W\260\031\316\220\347\333c\324\302\372\316\321\234\324"
  46      90E7DB63 
  46      D4C2FACE 
  46      D19CD4
  47 00d1 0E0B033D 		.ascii	"\016\013\003=\331\234O_\333\367\017\332\273\340\023"
  47      D99C4F5F 
  47      DBF70FDA 
  47      BBE013
  48 00e0 3F2DDBC5 		.ascii	"?-\333\305}\034`\317\266\244J\3059\362\250 \344\327"
  48      7D1C60CF 
  48      B6A44AC5 
  48      39F2A820 
  48      E4D7
  49 00f2 7EAADB57 		.ascii	"~\252\333Wj\244\302\354N\324\023\343\250\262\360\323"
  49      6AA4C2EC 
  49      4ED413E3 
  49      A8B2F0D3 
  50 0102 7F1F6A88 		.ascii	"\177\037j\2100\015I\270fG\031\300\215\364\324\\\371"
  50      300D49B8 
  50      664719C0 
  50      8DF4D45C 
  50      F9
  51 0113 20D47DB8 		.ascii	" \324}\270\211\001\\\364_\270a\232\306\3374K\236\230"
  51      89015CF4 
  51      5FB8619A 
  51      C6DF344B 
  51      9E98
  52 0125 C4854F23 		.ascii	"\304\205O#\277\022\227\222F\245\027\330\316S@6\220\214"
  52      BF129792 
  52      46A517D8 
  52      CE534036 
  52      908C
  53 0137 6DAEF107 		.ascii	"m\256\361\007\262\363\314\242\236\321\315\225\254\276"
  53      B2F3CCA2 
  53      9ED1CD95 
  53      ACBE
  54 0145 9A4A1839 		.ascii	"\232J\03093\255'\343\011#\266\220L\350\346\232\0213"
  54      33AD27E3 
  54      0923B690 
  54      4CE8E69A 
  54      1133
  55 0157 7299AC6E 		.ascii	"r\231\254n\246\342\313\363i\372\005\227\224\247\245"
  55      A6E2CBF3 
  55      69FA0597 
  55      94A7A5
  56              		.text
  57              		.section	.gnu.lto_ServoCounter_RestoreConfig.ec5a3448,"",%progbits
  58 0000 789C7D90 		.ascii	"x\234}\220\317K\002Q\020\307\347;\273m[^\242S\370\017"
  58      CF4B0251 
  58      10C7E73B 
  58      BB6D5B5E 
  58      A253F80F 
  59 0014 4888DDFA 		.ascii	"H\210\335\372\013\204:\005\202WA\302\366\352\302\242"
  59      0B843A05 
  59      825741C2 
  59      F6EAC2A2 
  60 0024 DDC4DD30 		.ascii	"\335\304\3350\350Tv\013\372\001\005\221\245i\026t\366"
ARM GAS  C:\Users\Bruger\AppData\Local\Temp\cctvWd5V.s 			page 4


  60      E854760B 
  60      FA010591 
  60      A5691674 
  60      F6
  61 0035 1F289182 		.ascii	"\037(\221\202\240\242.\006u\313\366\020K\230\275\267"
  61      A0A22E06 
  61      75CBF610 
  61      4B98BDB7 
  62 0045 76B21F0F 		.ascii	"v\262\037\017\346\315\233\231\357\233\3710\012\375<"
  62      E6CD9B99 
  62      EF9BF930 
  62      0AFD3C
  63 0054 4161BB20 		.ascii	"Aa\273 \012\013\017\205\300\305K\"Gg@>\010\224g\344"
  63      0A0B0F85 
  63      C0C54B22 
  63      4767403E 
  63      089467E4 
  64 0068 F1C21D46 		.ascii	"\361\302\035F\261Q\336\010\204\366m\333~\335;\233X\236"
  64      B151DE08 
  64      84F66DDB 
  64      7EDD3B9B 
  64      589E
  65 007a F098C8E5 		.ascii	"\360\230\310\345~\033\034 DB\323)to\002ZAh\306\3725"
  65      7E1B1C20 
  65      4442D329 
  65      746F025A 
  65      4168C6FA 
  66 008f 94A089F6 		.ascii	"\224\240\211\366T\033o\330\275\236{\261^\012Cc\362\030"
  66      541B6FD8 
  66      BD9E7BB1 
  66      5E0A4363 
  66      F218
  67 00a1 AAB884A2 		.ascii	"\252\270\204\242-L\216z\022\201\360\312-\226\316\353"
  67      2D4C8E7A 
  67      1281F0CA 
  67      2D96CEEB 
  68 00b1 4D47911F 		.ascii	"MG\221\037\337Y\316\335\271Z\255r\356\303^\261u\217"
  68      DF59CEDD 
  68      B95AAD72 
  68      EEC35EB1 
  68      758F
  69 00c3 95AEEC2A 		.ascii	"\225\256\354*\262\217\355fK\177f\221\361\303\222S\330"
  69      B28FED66 
  69      4B7F6691 
  69      F1C39253 
  69      D8
  70 00d4 C236361D 		.ascii	"\30266\035[\252T\034\"\207#\004\375\332ge\355T\213\204"
  70      5BAA541C 
  70      22872304 
  70      FDDA6765 
  70      ED548B84 
  71 00e8 3D1E4259 		.ascii	"=\036BYh\336|fT\020\241{\250r\016\015N\321\\\026\320"
  71      68DE7C66 
  71      5410A17B 
  71      A8720E0D 
  71      4ED15C16 
  72 00fd 38468E04 		.ascii	"8F\216\004\203\307\303$\261:\327\255o,\365O\254A\216"
ARM GAS  C:\Users\Bruger\AppData\Local\Temp\cctvWd5V.s 			page 5


  72      83C7C324 
  72      B13AD7AD 
  72      6F2CF54F 
  72      AC418E
  73 0110 EA6F1C3A 		.ascii	"\352o\034:j>\207\\\014N\376\341\030q\345\212P\3679T"
  73      6A3E875C 
  73      0C4EFEE1 
  73      1871E58A 
  73      50F73954 
  74 0124 8F47E901 		.ascii	"\217G\351\001N\343n\306\027\223\\\036\344\322\204fr"
  74      4EE36EC6 
  74      17935C1E 
  74      E4D28466 
  74      72
  75 0135 D6481BD6 		.ascii	"\326H\033\326|\306XH\306\315\254\2252\022\261\270\031"
  75      7CC65848 
  75      C6CDAC95 
  75      3212B1B8 
  75      19
  76 0146 9D4EC40D 		.ascii	"\235N\304\015k\321\214\232\331t\306\260\222\261\271"
  76      6BD18C9A 
  76      D974C6B0 
  76      92B1B9
  77 0155 A9147D01 		.ascii	"\251\024}\001\266\011\236\016"
  77      B6099E0E 
  78              		.text
  79              		.section	.gnu.lto_ServoCounter_Sleep.ec5a3448,"",%progbits
  80 0000 789C8592 		.ascii	"x\234\205\222OH\024Q\034\307\177\337\337\274\231]\327"
  80      4F481451 
  80      1CC77FDF 
  80      DFBC995D 
  80      D7
  81 0011 B2E8241E 		.ascii	"\262\350$\036\273H\204\335:\206\007\017E\020\010{\025"
  81      BB4884DD 
  81      3A86070F 
  81      4510087B 
  81      15
  82 0022 246CAEBB 		.ascii	"$l\256\273\261h\267\3057\356D\342\241\266\272,\332v"
  82      B168B7C5 
  82      37EE44E2 
  82      A1B6BA2C 
  82      DA76
  83 0034 ABB67653 		.ascii	"\253\266vS[\373s\020b\362\022D\024\026\021H\030\204"
  83      5BFB7310 
  83      62F21244 
  83      14161148 
  83      1884
  84 0046 8241C99A 		.ascii	"\202A\311\232b\016a\333\357\315n%F5\360\346\275\367"
  84      620E61DB 
  84      EFCD6E25 
  84      4635F0E6 
  84      BDF7
  85 0058 7B9FF7FD 		.ascii	"{\237\367\375~\347\275\261\350\317\347\230\264\263L"
  85      7EE7BDB1 
  85      E8CFE798 
  85      B4B34C
  86 0067 74587A38 		.ascii	"tXz8\004\316\277 \362\342\314\326V\033\351\204*t\223"
ARM GAS  C:\Users\Bruger\AppData\Local\Temp\cctvWd5V.s 			page 6


  86      04CEBF20 
  86      F2E2CCD6 
  86      561BE984 
  86      2A7493
  87 007a DE63C16E 		.ascii	"\336c\301n\224\325\317\201\015\230\001\201\206\331R"
  87      94D5CF81 
  87      0D980181 
  87      86D952
  88 0089 3686F191 		.ascii	"6\206\361\221\327\030\371\240\\h\355\274\241\265\256"
  88      D718F9A0 
  88      5C68EDBC 
  88      A1B5AE
  89 0098 5D996D3F 		.ascii	"]\231m?\337\036\212\362:7\234p\013\235$\314\232\277"
  89      DF1E8AF2 
  89      3A379C70 
  89      0B9D24CC 
  89      9ABF
  90 00aa FDB6D5F1 		.ascii	"\375\266\325\361\205\331\337XC\011\016\244\237:\020"
  90      85D9DF58 
  90      43090EA4 
  90      9F3A10
  91 00b9 E87A7DE6 		.ascii	"\350z}\346\363\345\322An\261(d(y\011\261$\315\270-\313"
  91      F3E5D241 
  91      6EB12864 
  91      287909B1 
  91      24CDB82D 
  92 00ce 447A6B01 		.ascii	"Dzk\001s\233c\253\305*\314\316\257l\211\350\343\312"
  92      739B63AB 
  92      C52ACCCE 
  92      AF6C89E8 
  92      E3CA
  93 00e0 ABB9C40A 		.ascii	"\253\271\304\012\207\022\373\231\247\225\361y\277\364"
  93      8712FB99 
  93      A795F179 
  93      BFF4
  94 00ee 723E1E95 		.ascii	"r>\036\225\310L\365\354\207\225X\021\023\236\217\220"
  94      C84CF5EC 
  94      87955811 
  94      139E8F90 
  95 00fe 156EA303 		.ascii	"\025n\243\003w\320!\356e\024A\013\030Y\274\360I5\004"
  95      77D021EE 
  95      6514410B 
  95      1859BCF0 
  95      493504
  96 0111 9568D21B 		.ascii	"\225h\322\033\370\317s\251fa\247\234\204A\305\354$\223"
  96      F8CF73A9 
  96      6661A79C 
  96      8441C5EC 
  96      2493
  97 0123 C8A2AD36 		.ascii	"\310\242\2556\0114R\233\336x\262\327\320\202^\177}q"
  97      0934529B 
  97      DE78B2D7 
  97      D0825E7F 
  97      7D71
  98 0135 92B3DFF4 		.ascii	"\222\263\337\364\250\216\207lo\233o\334)`G\323\222\347"
  98      A88E876C 
  98      6F9B6FDC 
ARM GAS  C:\Users\Bruger\AppData\Local\Temp\cctvWd5V.s 			page 7


  98      296047D3 
  98      92E7
  99 0147 5F83C9A3 		.ascii	"_\203\311\243\015\345\340.\262\2304\262\262\366\275"
  99      0DE5E02E 
  99      B29834B2 
  99      B2F6BD
 100 0156 72A9EA74 		.ascii	"r\251\352t\225\345\210\202\023!\3070%\340\227\350\030"
 100      95E58882 
 100      1321C730 
 100      25E097E8 
 100      18
 101 0167 318D2E01 		.ascii	"1\215.\001\346\307o\346\366\031\255\030\010\367\242"
 101      E6C76FE6 
 101      F619AD18 
 101      08F7A2
 102 0176 30CBACA8 		.ascii	"0\313\254\250\320\035E\251m\376'\312n\357\352?\274g"
 102      D01D45A9 
 102      6DFE27CA 
 102      6EEFEA3F 
 102      BC67
 103 0188 7E7BDF8F 		.ascii	"~{\337\217\274\177}GLJ\017\232\336vt1\357\220\013\352"
 103      BC7F7D47 
 103      4C4A0F9A 
 103      DE767431 
 103      EF900BEA 
 104 019c 4FD978D3 		.ascii	"O\331x\323n\363\370:\313%\343!\262r\251-d\320|\342o"
 104      6EF3F83A 
 104      CB25E321 
 104      B272A92D 
 104      64D07CE2 
 105 01b1 A439E347 		.ascii	"\2449\343GMr\021^p\365dD\222\371\027`\254\0048t\334"
 105      4D72115E 
 105      70F56444 
 105      92F91760 
 105      AC043874 
 106 01c6 4DB999D3 		.ascii	"M\271\231\323\203\356\231\376dz(3\340\366\365&\323="
 106      83EE99FE 
 106      647A2833 
 106      E0F6F526 
 106      D33D
 107 01d8 47FB926E 		.ascii	"G\373\222n\346\\\272'=\224\032t3\375\275\247\216\014"
 107      E65CBA27 
 107      3D941A74 
 107      33FDBDA7 
 107      8E0C
 108 01ea D00F380E 		.ascii	"\320\0178\016\362f"
 108      F266
 109              		.text
 110              		.section	.gnu.lto_ServoCounter_Wakeup.ec5a3448,"",%progbits
 111 0000 789C7550 		.ascii	"x\234uP\273J\003A\024\275\347\356d\015F\214X\211? \022"
 111      BB4A0341 
 111      14BDE7EE 
 111      640D468C 
 111      58893F20 
 112 0015 B4506C6D 		.ascii	"\264PlmRX\210 \244\025\202\350\266\011,\232.d\242+X"
 112      52588820 
 112      A41582E8 
ARM GAS  C:\Users\Bruger\AppData\Local\Temp\cctvWd5V.s 			page 8


 112      B6092C9A 
 112      2E64A22B 
 113 002a 69D046F0 		.ascii	"i\320F\360\321\211Qc\202\026\326[)\244PD\202\">@\"h"
 113      D1895163 
 113      8216D65B 
 113      29A45044 
 113      82223E40 
 114 0040 674C2141 		.ascii	"gL!Ab\234\331\010\202\342\300pg\316\234\007g\014\372"
 114      629CD908 
 114      82E2C070 
 114      67CE9C07 
 114      670CFA
 115 0053 BB06D54E 		.ascii	"\273\006\325N\200(\244&|\004\316\234\021\245\375\314"
 115      8028A426 
 115      7C04CE9C 
 115      11A5FDCC 
 116 0063 C6499064 		.ascii	"\306I\220d\253(\016\223l3 \232\260\000\364\201@)6\004"
 116      AB280E93 
 116      6C33209A 
 116      B000F481 
 116      40293604 
 117 0077 5278E10A 		.ascii	"Rx\341\012#\343\356\257\005z\266\245\224\257\217\245"
 117      23E3EEAF 
 117      057AB6A5 
 117      94AF8FA5 
 118 0087 AE85AE1A 		.ascii	"\256\205\256\032\023U\271\351\217\035\364\220\342T\234"
 118      1355B9E9 
 118      8F1DF490 
 118      E2549C
 119 0096 FA55C074 		.ascii	"\372U\300t\024\247\243\371\206,L\225K\205NW6\032\325"
 119      14A7A3F9 
 119      862C4C95 
 119      4B854E57 
 119      361AD5
 120 00a9 AB95EC00 		.ascii	"\253\225\354\000\233\202j\254\300\262\"\350\234'f=\215"
 120      9B826AAC 
 120      C0B222E8 
 120      9C27663D 
 120      8D
 121 00ba 5BCCBB95 		.ascii	"[\314\273\225\"k\211\366\332\272\\\312s\362C.J\177\215"
 121      226B89F6 
 121      DABA5CCA 
 121      73F2432E 
 121      4A7F8D
 122 00cd B9AA15D8 		.ascii	"\271\252\025\330ERi\015\272\301\334\361\341\335[\213"
 122      4552690D 
 122      BAC1DCF1 
 122      E1DD5B8B 
 123 00dd E6BEB3F8 		.ascii	"\346\276\263\370\315\026u\235\255\320\207\362\371\205"
 123      CD16759D 
 123      ADD087F2 
 123      F985
 124 00eb FF9915E2 		.ascii	"\377\231\025\342]\263ig\003\233XOK\315\362a\017I\354"
 124      5DB36967 
 124      039B584F 
 124      4BCDF261 
 124      0F49EC
ARM GAS  C:\Users\Bruger\AppData\Local\Temp\cctvWd5V.s 			page 9


 125 00fe A3DB7BFB 		.ascii	"\243\333{\373\314-\037\231}\241\032\233\310)\316\233"
 125      CC2D1F99 
 125      7DA11A9B 
 125      C829CE9B 
 126 010e D70C07E8 		.ascii	"\327\014\007\350\243\022\234\353\371\330O\324\351\346"
 126      A3129CEB 
 126      F9D84FD4 
 126      E9E6
 127 011c F391D0A6 		.ascii	"\363\221\320\246\000!\257\345\244K\030t\022\364:|\024"
 127      0021AFE5 
 127      A44B1874 
 127      12F43A7C 
 127      14
 128 012d DBFFEBA0 		.ascii	"\333\377\353\240LQ\370\356\2405\302+~\217\264\273:\352"
 128      4C51F8EE 
 128      A035C22B 
 128      7E8FB4BB 
 128      3AEA
 129 013f 69487F0B 		.ascii	"iH\177\0134\252\250\275#V\314\262'g\254\351h$>kOY\023"
 129      34AAA8BD 
 129      2356CCB2 
 129      2767ACE9 
 129      68243E6B 
 130 0156 E3917878 		.ascii	"\343\221xxh\"b\331\211x8>\033\233\261\354\350\370X\377"
 130      682262D9 
 130      8978383E 
 130      1B9BB1EC 
 130      E8F858FF 
 131 016a 147D0116 		.ascii	"\024}\001\026\240\225\335"
 131      A095DD
 132              		.text
 133              		.section	.gnu.lto_.symbol_nodes.ec5a3448,"",%progbits
 134 0000 789C55CF 		.ascii	"x\234U\317\301\015\3020\014F\341\027;m\223\316\300\256"
 134      C10DC230 
 134      0C46E117 
 134      3B6D93CE 
 134      C0AE
 135 0012 7F0F1D80 		.ascii	"\177\017\035\200\011P\205X\203[\317\314\000\2109\020"
 135      09508558 
 135      835BCFCC 
 135      00883910 
 136 0022 69E16072 		.ascii	"i\341`ry\372\354\213\343\300\223\337\263$8\336@\342"
 136      79FAEC8B 
 136      E3C093DF 
 136      B32438DE 
 136      40E2
 137 0034 B4143A58 		.ascii	"\264\024:XLn\246\024\307\346\262?gyt\352\225\277f\232"
 137      4C6EA614 
 137      C7E6B23F 
 137      677974EA 
 137      95BF669A 
 138 0048 1A3B7591 		.ascii	"\032;u\221E}\344\240!\262\252D\216\252\201N\317\345"
 138      457DE4A0 
 138      21B2AA44 
 138      8EAA814E 
 138      CFE5
 139 005a FE4EDE4E 		.ascii	"\376N\336N{m\265\302\272w`~\264ze\335\333~\2655\033"
ARM GAS  C:\Users\Bruger\AppData\Local\Temp\cctvWd5V.s 			page 10


 139      7B6DB5C2 
 139      BA77607E 
 139      B47A65DD 
 139      DB7EB535 
 140 006f E76D9F47 		.ascii	"\347m\237G\346\353\201\017I\340;G"
 140      E6EB810F 
 140      49E03B47 
 141              		.text
 142              		.section	.gnu.lto_.refs.ec5a3448,"",%progbits
 143 0000 789C25C7 		.ascii	"x\234%\307\301\021\000 \020\203@H\3166\354\277Lu\344"
 143      C1110020 
 143      10834048 
 143      CE36ECBF 
 143      4C75E4
 144 0013 B514D8FC 		.ascii	"\265\024\330\374\202F'\017\330\364\216.\007\303\001"
 144      8246270F 
 144      D8F48E2E 
 144      07C301
 145 0022 07DF0052 		.ascii	"\007\337\000R"
 146              		.text
 147              		.section	.gnu.lto_.decls.ec5a3448,"",%progbits
 148 0000 789C8D55 		.ascii	"x\234\215UkL\024W\024\236\273\027\026\030\266\253\225"
 148      6B4C1457 
 148      149EBB17 
 148      1618B6AB 
 148      95
 149 0011 042D7F5C 		.ascii	"\004-\177\\1!\2651\306\376h\343\277\232\220\306\246"
 149      3121B531 
 149      C6FE68E3 
 149      BF9A90C6 
 149      A6
 150 0022 A60D9198 		.ascii	"\246\015\221\230\376\250\211A\034\225hX\262.&\376\352"
 150      FEA88941 
 150      1C956858 
 150      B22E26FE 
 150      EA
 151 0033 204FB1C5 		.ascii	" O\261\305e\265\362\250\232mA\036\242\013RT@\352\002"
 151      65B5F2A8 
 151      9A6D411E 
 151      A20B5254 
 151      40EA02
 152 0046 E202F250 		.ascii	"\342\002\362P+EWA\027V\021\005->b\241\324n\317=3\303"
 152      2B455741 
 152      17561105 
 152      2D3E62A1 
 152      D46ECF3D 
 153 005c CE90A5ED 		.ascii	"\316\220\245\355$g\231{\371\276\357\234\357\334\307"
 153      2467997B 
 153      F9BEEF9C 
 153      EFDCC7
 154 006b 508EE33A 		.ascii	"P\216\343:\010\307\371\3411Dp\334\030\274\207\302\\"
 154      08C7F9E1 
 154      314470DC 
 154      18BC87C2 
 154      5C
 155 007c 02177878 		.ascii	"\002\027xx\2103\020N\210:\210z\210f\210v\0107\3045\210"
 155      8833104E 
ARM GAS  C:\Users\Bruger\AppData\Local\Temp\cctvWd5V.s 			page 11


 155      883A887A 
 155      88668876 
 155      0837C435 
 156 0091 5E887E08 		.ascii	"^\210~\010\240s\3679\355\303\270\221\262\246\011\"\032"
 156      A073F739 
 156      EDC3B891 
 156      B2A60922 
 156      1A
 157 00a2 C20BD10A 		.ascii	"\302\013\321\0121\0021\004\341\202\030\205h\204\270"
 157      31023104 
 157      E1821885 
 157      6884B8
 158 00b1 00A183F0 		.ascii	"\000\241\203\360@\334\201\240\262F\273\2347X\016g\220"
 158      40DC81A0 
 158      B246BB9C 
 158      37580E67 
 158      90
 159 00c2 1C6A6D1F 		.ascii	"\034jm\037D\227\254\375\220y\016\222\303){q/\220\243"
 159      4497ACFD 
 159      90790E92 
 159      C3297B71 
 159      2F90A3
 160 00d5 4EEE4582 		.ascii	"N\356E\202\254?\0061\011\361T\225\213\351?\203\250\226"
 160      AC3F0631 
 160      09F15495 
 160      8BE93F83 
 160      A896
 161 00e7 350665ED 		.ascii	"5\006e\355:\271Gg\026\320f=\015Si+\032j]\265^\275\\"
 161      3AB94767 
 161      16D0663D 
 161      0D53692B 
 161      1A6A5DB5 
 162 00fe EF423D7F 		.ascii	"\357B=\177\241#=\243\323\257\014\343:b\344\027\263a"
 162      A1233DA3 
 162      D3AF0CE3 
 162      3A62E417 
 162      B361
 163 0110 E9ED47AF 		.ascii	"\351\355G\257)\014\015\274\216\015/\314\274\251\325"
 163      290C0DBC 
 163      8E0D2FCC 
 163      BCA9D5
 164 011f 2FFD5E64 		.ascii	"/\375^dO\246\270XG\022\242I%\211!U$\006\024\253\311"
 164      4FA6B858 
 164      4712A249 
 164      25892155 
 164      240614AB 
 165 0134 52F8FD3A 		.ascii	"R\370\375:DRj\030{k\217\244:\302\336\313\212G\006\370"
 165      44526A18 
 165      7B6B8FA4 
 165      3AC2DECB 
 165      8A4706F8 
 166 0148 D5A78195 		.ascii	"\325\247\201\225'\266\336\240\201t\205\2635#\341\246"
 166      27B6DEA0 
 166      817485B3 
 166      3523E1A6 
 167 0158 93A2B76E 		.ascii	"\223\242\267n\252\273\301c\020\253\304V\277\377\023"
 167      AABBC163 
ARM GAS  C:\Users\Bruger\AppData\Local\Temp\cctvWd5V.s 			page 12


 167      10ABC456 
 167      BFFF13
 168 0167 9422A709 		.ascii	"\224\"\247\011%5d5C\262w\244\2203\304\004\264#\343?"
 168      25356435 
 168      43B277A4 
 168      9033C404 
 168      B423E33F 
 169 017b E553BA11 		.ascii	"\345S\272\021\265\313\335\316L#J8J\313\364\222\000\362"
 169      B5CBDDCE 
 169      4C234A38 
 169      4ACBF492 
 169      00F2
 170 018d CFAAF867 		.ascii	"\317\252\370g\025\276\023\371\365\265?\330\026\321\035"
 170      15BE13F9 
 170      F5B53FD8 
 170      16D11D
 171 019c C82F7A51 		.ascii	"\310/zQ\355\242\300w\3249<\032~\255\212_\253\360\353"
 171      EDA2C077 
 171      D4393C1A 
 171      7EAD8A5F 
 171      ABF0EB
 172 01af 90FFF6EC 		.ascii	"\220\377\366\354P/\241\373\221\177y6\247B'\361\235\247"
 172      502FA1FB 
 172      917F7936 
 172      A74227F1 
 172      9DA7
 173 01c1 D4FC732A 		.ascii	"\324\374s*\3769\205_\217\374AWnn8\375\216\240@F\305"
 173      FE39855F 
 173      8FFC4157 
 173      6E6E38FD 
 173      8EA04046 
 174 01d6 A56FC3A0 		.ascii	"\245o\303\240\307\321<\266\244\240\247\264\215\342\320"
 174      C7D13CB6 
 174      A4A0A7B4 
 174      8DE2D0
 175 01e5 CFFEADF3 		.ascii	"\317\376\255\363x\216\316P\302\307\345\211\342\001q"
 175      788ECE50 
 175      C2C7E589 
 175      E20171
 176 01f4 CA2ED265 		.ascii	"\312.\322e\034Y\035CV\305p\344\"\211\003\030&!\015\260"
 176      1C591D43 
 176      56C570E4 
 176      22890318 
 176      26210DB0 
 177 0208 0CE76119 		.ascii	"\014\347a\031\312\241\311S5\331\227?\317\024\327\223"
 177      CAA1C953 
 177      35D9973F 
 177      CF14D793 
 178 0218 0B84273F 		.ascii	"\013\204'?\317\225\201\031\344\306\367\325t\347\020"
 178      CF958119 
 178      E4C6F7D5 
 178      74E710
 179 0227 F54A3268 		.ascii	"\365J2h`)\0335K\231\377\350^\227\216\236\227\312\275"
 179      60291B35 
 179      4B99FFE8 
 179      5E978E9E 
 179      97CABD
ARM GAS  C:\Users\Bruger\AppData\Local\Temp\cctvWd5V.s 			page 13


 180 023a 3E3ED3CC 		.ascii	">>\323\314\372\345\025\247\234\225\023\273\0123mGE\257"
 180      FAE515A7 
 180      9C9513BB 
 180      0A336D47 
 180      45AF
 181 024c DFBF1C49 		.ascii	"\337\277\034I\244Ie\272I1\335\214\246O\274|\336\022"
 181      A44965BA 
 181      4931DD8C 
 181      A64FBC7C 
 181      DE12
 182 025e 41DF6A4D 		.ascii	"A\337jM\233$\323E\023\323\015\3418\364\373)s=\353sV"
 182      9B24D345 
 182      13D30DE1 
 182      38F4FB29 
 182      733DEB73 
 183 0273 EA491C2F 		.ascii	"\352I\034/\3319%\331qA\215\227\002vL\262\035\354\014"
 183      D93925D9 
 183      71418D97 
 183      02764CB2 
 183      1DEC0C
 184 0286 B808AD32 		.ascii	"\270\010\2552rs\036\310eh\216InN\013L\376\002\223\220"
 184      72731EC8 
 184      65688E49 
 184      6E4E0B4C 
 184      FE029390 
 185 029a E9E061FB 		.ascii	"\351\340a\3734\2576\356\322\030o\325\030/\234(}c\240"
 185      34AF36EE 
 185      D2186FD5 
 185      182F9C28 
 185      7D63A0
 186 02ad 59D2263E 		.ascii	"Y\322&>\356+.5*\306\177\377Le\034H\244Me\274M1\336\216"
 186      EE2B2E35 
 186      2AC67FFF 
 186      4C651C48 
 186      A44D65BC 
 187 02c5 C66DD96D 		.ascii	"\306m\331m\266\220\020\2708\260\311\240\015s\275E\307"
 187      B69010B8 
 187      38B0C9A0 
 187      0D73BD45 
 187      C7
 188 02d6 DB23173C 		.ascii	"\333#\027<I\035X\305\025\"\2271b;V\036AOHe\344\335z"
 188      491D58C5 
 188      15229731 
 188      623B561E 
 188      414F4865 
 189 02ed ECE2B10C 		.ascii	"\354\342\261\014\257\263\254\323\340P\216\014p\310U"
 189      AFB3ACD3 
 189      E0508E0C 
 189      70C855
 190 02fc 55115795 		.ascii	"U\021W\225\"\334XDK\371\323\347\221X\204k\256\010_\311"
 190      22DC5844 
 190      4BF9D3E7 
 190      9158846B 
 190      AE085FC9 
 191 0310 B12EE382 		.ascii	"\261.\343\202Eta\021\235J\021\207\013\273\012\027Q\227"
 191      45746111 
 191      9D4A1187 
ARM GAS  C:\Users\Bruger\AppData\Local\Temp\cctvWd5V.s 			page 14


 191      0BBB0A17 
 191      5197
 192 0322 54447E65 		.ascii	"TD~e\203-\024\213p4\227\345\230\344]\017\014\322\255"
 192      832D148B 
 192      703497E5 
 192      98E45D0F 
 192      0CD2AD
 193 0335 2AA15B29 		.ascii	"*\241[)\341\032\226`o\312\371\223R\217\244PW\330\341"
 193      E11A9660 
 193      6FCAF993 
 193      528FA450 
 193      57D8E1
 194 0348 09916C54 		.ascii	"\011\221lT\225\271\0036\330\311\351Qi\364(\032\275\250"
 194      95B90336 
 194      D8C9E951 
 194      69F4281A 
 194      BDA8
 195 035a 31EDAE29 		.ascii	"1\355\256)\240tB\322\310\355\254\230\324I\032O\256\010"
 195      A07442D2 
 195      C8EDAC98 
 195      D4491A4F 
 195      AE08
 196 036c ED07C4BF 		.ascii	"\355\007\304\277\330\356A\211>\225D\237\"\321\217\022"
 196      D8EE4189 
 196      3E95449F 
 196      22D18F12 
 197 037c 0FFE78D0 		.ascii	"\017\376x\320\036\206W\334Z&b\317nl4\342\025\247g\303"
 197      1E8657DC 
 197      5A2662CF 
 197      6E6C34E2 
 197      15A767C3 
 198 0390 A1739353 		.ascii	"\241s\223Sa\324/%\030}R\340\341i\011\305\201\315\375"
 198      61D42F25 
 198      187D52E0 
 198      E16909C5 
 198      81CDFD
 199 03a3 2A574FCF 		.ascii	"*WO\317H\203\314\362\241\277)\275(\015\232\234\257\373"
 199      4883CCF2 
 199      A1BF29BD 
 199      280D9A9C 
 199      AFFB
 200 03b5 2251D104 		.ascii	"\"Q\321\004\303\320\231\336\322F#\211\215\212\215\215"
 200      C3D099DE 
 200      D2462389 
 200      8D8A8D8D 
 201 03c5 73C0D6F4 		.ascii	"s\300\326\364\346\373\334\221b\361Z\\\375_\241\256\333"
 201      E6FBDC91 
 201      62F15A5C 
 201      FD5FA1AE 
 201      DB
 202 03d6 244A39C1 		.ascii	"$J9\301\357\263F\177\000?\\![\004\233(\256\267p\344"
 202      EFB3467F 
 202      003F5C21 
 202      5B049B28 
 202      AEB770E4 
 203 03ea 3AACC10D 		.ascii	":\254\301\015\\\003\006\005\033\344.l\346A\022K<\020"
 203      5C030605 
ARM GAS  C:\Users\Bruger\AppData\Local\Temp\cctvWd5V.s 			page 15


 203      1BE42E6C 
 203      E641124B 
 203      3C10
 204 03fc 77482CDA 		.ascii	"wH,\332A\355\002_\347\234\366@\020\355\337\230\214\004"
 204      41ED025F 
 204      E79CF640 
 204      10EDDF98 
 204      8C04
 205 040e 3D94990B 		.ascii	"=\224\231\013\027\354Z\\\377[2t\356\264 \270\022\301"
 205      17EC5A5C 
 205      FF5B3274 
 205      EEB420B8 
 205      12C1
 206 0420 ECC879F3 		.ascii	"\354\310y\363\312\364\"a\020Ni\243ru\350jo\236\264\207"
 206      CAF42261 
 206      104E69A3 
 206      7275E86A 
 206      6F9EB487 
 207 0434 92B828C4 		.ascii	"\222\270(\304\225\304\207\223!\020\272\0318\226\214"
 207      95C48793 
 207      2110BA19 
 207      38968C
 208 0443 844F304B 		.ascii	"\204O0K\344\0368\3717W\320\316\327\263\366A=\355\227"
 208      E41E38F9 
 208      3757D0CE 
 208      D7B3F641 
 208      3DED97
 209 0456 7A3BD091 		.ascii	"z;\320\221\225\241_\371\243(:\246\272\357V\3512DG\206"
 209      95A15FF9 
 209      A3283AA6 
 209      BAEF56E9 
 209      32444786 
 210 046a 28B2CD86 		.ascii	"(\262\315\206i\207\245\264\252\216\015K\213M\356\223"
 210      6987A5B4 
 210      AA8E0D4B 
 210      8B4DEE93 
 211 047a 95C06EB6 		.ascii	"\225\300n\266w\025\353qqq\303\347\016\367\225D\032\362"
 211      7715EB71 
 211      7171C3E7 
 211      0EF79544 
 211      1AF2
 212 048c D97D61CB 		.ascii	"\331}a\313\024#\272\214xt\241G\344\001\222\275\304\200"
 212      1423BA8C 
 212      7874A147 
 212      E40192BD 
 212      C480
 213 049e 64F80BE8 		.ascii	"d\370\013\350\341\341g\325!\0324K\031@\217\310\350\021"
 213      E1E167D5 
 213      211A344B 
 213      19408FC8 
 213      E811
 214 04b0 440F796F 		.ascii	"D\017yo\017\3524\350F\215\366\250\214\036EtE_K\213\266"
 214      0FEA34E8 
 214      468DF6A8 
 214      8C1E4574 
 214      455F4B8B 
 215 04c5 922E0DDA 		.ascii	"\222.\015\332'\243}\210\316:\322f\3475\350\016\015\372"
ARM GAS  C:\Users\Bruger\AppData\Local\Temp\cctvWd5V.s 			page 16


 215      27A37D88 
 215      CE3AD266 
 215      E735E80E 
 215      0DFA
 216 04d7 A18C7EC8 		.ascii	"\241\214~\310\320\264\255\262\355.Ob\370\230b\370\334"
 216      D0B4ADB2 
 216      ED2E4F62 
 216      F89862F8 
 216      DC
 217 04e8 4E2F2763 		.ascii	"N/'c\204gw$\\\244\007DZlT>\037\034\376\203#\217A\346"
 217      84677724 
 217      5CA40744 
 217      5A6C543E 
 217      1F1CFE83 
 218 0500 11C83074 		.ascii	"\021\3100t\353\270\337\377\215_z\016\207!\200\375@\011"
 218      EBB8DFFF 
 218      8D5F7A0E 
 218      872180FD 
 218      4009
 219 0512 62D1A1F2 		.ascii	"b\321\241\362p:*-\312\3717\371M\357\360y\354\326\370"
 219      703A2A2D 
 219      CAF937F9 
 219      4DEFF079 
 219      ECD6F8
 220 0525 EF2F126C 		.ascii	"\357/\022l\231\201\376\374\301\010\351\0336\2371\261"
 220      9981FEFC 
 220      C108E91B 
 220      369F31B1 
 221 0535 E037ECEA 		.ascii	"\3407\354\352\313\215Yp\351?\205\355:\036\330]OH\340"
 221      CB8D5970 
 221      E93F85ED 
 221      3A1ED85D 
 221      4F48E0
 222 0548 237670B4 		.ascii	"#vp\264\264\317\240i\013\003\007\3322)\267e\022\233"
 222      B4CFA069 
 222      0B0307DA 
 222      3229B765 
 222      129B
 223 055a 58539B9D 		.ascii	"XS\233\235\273H\203\256\3264\361\0311(I\340\225[\232"
 223      BB4883AE 
 223      D634F119 
 223      312849E0 
 223      955B9A
 224 056d 2858F699 		.ascii	"(X\366\231\343\315\351\251V\301\26251i\237\020oN\335"
 224      E3CDE9A9 
 224      56C1B235 
 224      31699F10 
 224      6F4EDD
 225 0580 91B253BF 		.ascii	"\221\262S\277\341\313\315\246xn\325\006!U\260$Y\205"
 225      E1CBCDA6 
 225      786ED506 
 225      2155B024 
 225      5985
 226 0592 ED5B13CD 		.ascii	"\355[\023\315\351\226daKB\2429\376\243-\032V\302\027"
 226      E9966461 
 226      4B42A239 
 226      FEA32D1A 
ARM GAS  C:\Users\Bruger\AppData\Local\Temp\cctvWd5V.s 			page 17


 226      56C217
 227 05a5 6B92B918 		.ascii	"k\222\271\030\315\324&a\257\325l\221\265\226hs\354\021"
 227      CDD42661 
 227      AFD56C91 
 227      B5966873 
 227      EC11
 228 05b7 84B428CD 		.ascii	"\204\264(\315\324WI\273\205\364\264\320\364\224T\353"
 228      D45749BB 
 228      85F4B4D0 
 228      F49454EB 
 229 05c7 BA150B64 		.ascii	"\272\025\013dL\336o\335\237&\354]\263\2133\315\313\224"
 229      4CDE6FDD 
 229      9F26EC5D 
 229      B38B33CD 
 229      CB94
 230 05d9 B41DD258 		.ascii	"\264\035\322X-\346=\233\204\235){a.\356\177\024\015"
 230      2DE63D9B 
 230      849D297B 
 230      612EEE7F 
 230      140D
 231 05eb 3A7A96EF 		.ascii	":z\226\357\303\217\227\005\221\303\367\025\332\032-"
 231      C38F9705 
 231      91C3F715 
 231      DA1A2D
 232 05fa 2956615E 		.ascii	")Va^\242\367\202!p\360\256\326\262\325<\317\361\247"
 232      A2F78221 
 232      70F0AED6 
 232      B2D53CCF 
 232      F1A7
 233 060c A949DBF6 		.ascii	"\251I\333\366\010Z\376\266\244\344\335\351i\211VKz\262"
 233      085AFEB6 
 233      A4E4DDE9 
 233      6989564B 
 233      7AB2
 234 061e 75893C29 		.ascii	"u\211<)\341\022\255`\206\227\2476o\337\026-\277\316"
 234      E112AD60 
 234      8697A736 
 234      6FDF162D 
 234      BFCE
 235 0630 2B272A88 		.ascii	"+'*\210\\\210E\330\271\356\037\234\231\264\266"
 235      5C8845D8 
 235      B9EE1F9C 
 235      99B4B6
 236              		.text
 237              		.section	.gnu.lto_.symtab.ec5a3448,"",%progbits
 238 0000 53657276 		.ascii	"ServoCounter_SaveConfig\000\000\000\000\000\000\000"
 238      6F436F75 
 238      6E746572 
 238      5F536176 
 238      65436F6E 
 239 001e 00000000 		.ascii	"\000\000\000\000\000\254\000\000\000ServoCounter_Re"
 239      00AC0000 
 239      00536572 
 239      766F436F 
 239      756E7465 
 240 0036 73746F72 		.ascii	"storeConfig\000\000\000\000\000\000\000\000\000\000"
 240      65436F6E 
ARM GAS  C:\Users\Bruger\AppData\Local\Temp\cctvWd5V.s 			page 18


 240      66696700 
 240      00000000 
 240      00000000 
 241 004b 0000AE00 		.ascii	"\000\000\256\000\000\000ServoCounter_Sleep\000\000\000"
 241      00005365 
 241      72766F43 
 241      6F756E74 
 241      65725F53 
 242 0066 00000000 		.ascii	"\000\000\000\000\000\000\000\000\000\260\000\000\000"
 242      00000000 
 242      00B00000 
 242      00
 243 0073 53657276 		.ascii	"ServoCounter_Wakeup\000\000\000\000\000\000\000\000"
 243      6F436F75 
 243      6E746572 
 243      5F57616B 
 243      65757000 
 244 008e 00000000 		.ascii	"\000\000\000\000\262\000\000\000ServoCounter_ReadCo"
 244      B2000000 
 244      53657276 
 244      6F436F75 
 244      6E746572 
 245 00a9 6E74726F 		.ascii	"ntrolRegister\000\000\002\000\000\000\000\000\000\000"
 245      6C526567 
 245      69737465 
 245      72000002 
 245      00000000 
 246 00c0 0000BA00 		.ascii	"\000\000\272\000\000\000ServoCounter_ReadCounter\000"
 246      00005365 
 246      72766F43 
 246      6F756E74 
 246      65725F52 
 247 00df 00020000 		.ascii	"\000\002\000\000\000\000\000\000\000\000\000\302\000"
 247      00000000 
 247      000000C2 
 247      00
 248 00ec 00005365 		.ascii	"\000\000ServoCounter_WriteControlRegister\000\000\002"
 248      72766F43 
 248      6F756E74 
 248      65725F57 
 248      72697465 
 249 0112 00000000 		.ascii	"\000\000\000\000\000\000\000\000\000\306\000\000\000"
 249      00000000 
 249      00C60000 
 249      00
 250 011f 53657276 		.ascii	"ServoCounter_WriteCounter\000\000\002\000\000\000\000"
 250      6F436F75 
 250      6E746572 
 250      5F577269 
 250      7465436F 
 251 013f 00000000 		.ascii	"\000\000\000\000\000\312\000\000\000ServoCounter_St"
 251      00CA0000 
 251      00536572 
 251      766F436F 
 251      756E7465 
 252 0157 6F700000 		.ascii	"op\000\000\002\000\000\000\000\000\000\000\000\000\314"
 252      02000000 
ARM GAS  C:\Users\Bruger\AppData\Local\Temp\cctvWd5V.s 			page 19


 252      00000000 
 252      0000CC
 253 0166 00000053 		.ascii	"\000\000\000ServoCounter_Enable\000\000\002\000\000"
 253      6572766F 
 253      436F756E 
 253      7465725F 
 253      456E6162 
 254 0181 00000000 		.ascii	"\000\000\000\000\000\000\000\316\000\000\000"
 254      000000CE 
 254      000000
 255              		.text
 256              		.section	.gnu.lto_.opts,"",%progbits
 257 0000 272D666E 		.ascii	"'-fno-trapv' '-mcpu=cortex-m3' '-mthumb' '-g' '-Os'"
 257      6F2D7472 
 257      61707627 
 257      20272D6D 
 257      6370753D 
 258 0033 20272D66 		.ascii	" '-ffunction-sections' '-finline-functions' '-flto'"
 258      66756E63 
 258      74696F6E 
 258      2D736563 
 258      74696F6E 
 259 0066 20272D66 		.ascii	" '-ffat-lto-objects'\000"
 259      6661742D 
 259      6C746F2D 
 259      6F626A65 
 259      63747327 
 260              		.text
 261              		.cfi_sections	.debug_frame
 262              		.section	.text.ServoCounter_SaveConfig,"ax",%progbits
 263              		.align	1
 264              		.global	ServoCounter_SaveConfig
 265              		.thumb
 266              		.thumb_func
 267              		.type	ServoCounter_SaveConfig, %function
 268              	ServoCounter_SaveConfig:
 269              	.LFB0:
 270              		.file 1 "Generated_Source\\PSoC5\\ServoCounter_PM.c"
   1:Generated_Source\PSoC5/ServoCounter_PM.c **** /*******************************************************************************
   2:Generated_Source\PSoC5/ServoCounter_PM.c **** * File Name: ServoCounter_PM.c  
   3:Generated_Source\PSoC5/ServoCounter_PM.c **** * Version 3.0
   4:Generated_Source\PSoC5/ServoCounter_PM.c **** *
   5:Generated_Source\PSoC5/ServoCounter_PM.c **** *  Description:
   6:Generated_Source\PSoC5/ServoCounter_PM.c **** *    This file provides the power management source code to API for the
   7:Generated_Source\PSoC5/ServoCounter_PM.c **** *    Counter.  
   8:Generated_Source\PSoC5/ServoCounter_PM.c **** *
   9:Generated_Source\PSoC5/ServoCounter_PM.c **** *   Note:
  10:Generated_Source\PSoC5/ServoCounter_PM.c **** *     None
  11:Generated_Source\PSoC5/ServoCounter_PM.c **** *
  12:Generated_Source\PSoC5/ServoCounter_PM.c **** ********************************************************************************
  13:Generated_Source\PSoC5/ServoCounter_PM.c **** * Copyright 2008-2012, Cypress Semiconductor Corporation.  All rights reserved.
  14:Generated_Source\PSoC5/ServoCounter_PM.c **** * You may use this file only in accordance with the license, terms, conditions, 
  15:Generated_Source\PSoC5/ServoCounter_PM.c **** * disclaimers, and limitations in the end user license agreement accompanying 
  16:Generated_Source\PSoC5/ServoCounter_PM.c **** * the software package with which this file was provided.
  17:Generated_Source\PSoC5/ServoCounter_PM.c **** *******************************************************************************/
  18:Generated_Source\PSoC5/ServoCounter_PM.c **** 
  19:Generated_Source\PSoC5/ServoCounter_PM.c **** #include "ServoCounter.h"
ARM GAS  C:\Users\Bruger\AppData\Local\Temp\cctvWd5V.s 			page 20


  20:Generated_Source\PSoC5/ServoCounter_PM.c **** 
  21:Generated_Source\PSoC5/ServoCounter_PM.c **** static ServoCounter_backupStruct ServoCounter_backup;
  22:Generated_Source\PSoC5/ServoCounter_PM.c **** 
  23:Generated_Source\PSoC5/ServoCounter_PM.c **** 
  24:Generated_Source\PSoC5/ServoCounter_PM.c **** /*******************************************************************************
  25:Generated_Source\PSoC5/ServoCounter_PM.c **** * Function Name: ServoCounter_SaveConfig
  26:Generated_Source\PSoC5/ServoCounter_PM.c **** ********************************************************************************
  27:Generated_Source\PSoC5/ServoCounter_PM.c **** * Summary:
  28:Generated_Source\PSoC5/ServoCounter_PM.c **** *     Save the current user configuration
  29:Generated_Source\PSoC5/ServoCounter_PM.c **** *
  30:Generated_Source\PSoC5/ServoCounter_PM.c **** * Parameters:  
  31:Generated_Source\PSoC5/ServoCounter_PM.c **** *  void
  32:Generated_Source\PSoC5/ServoCounter_PM.c **** *
  33:Generated_Source\PSoC5/ServoCounter_PM.c **** * Return: 
  34:Generated_Source\PSoC5/ServoCounter_PM.c **** *  void
  35:Generated_Source\PSoC5/ServoCounter_PM.c **** *
  36:Generated_Source\PSoC5/ServoCounter_PM.c **** * Global variables:
  37:Generated_Source\PSoC5/ServoCounter_PM.c **** *  ServoCounter_backup:  Variables of this global structure are modified to 
  38:Generated_Source\PSoC5/ServoCounter_PM.c **** *  store the values of non retention configuration registers when Sleep() API is 
  39:Generated_Source\PSoC5/ServoCounter_PM.c **** *  called.
  40:Generated_Source\PSoC5/ServoCounter_PM.c **** *
  41:Generated_Source\PSoC5/ServoCounter_PM.c **** *******************************************************************************/
  42:Generated_Source\PSoC5/ServoCounter_PM.c **** void ServoCounter_SaveConfig(void) 
  43:Generated_Source\PSoC5/ServoCounter_PM.c **** {
 271              		.loc 1 43 0
 272              		.cfi_startproc
 273              		@ args = 0, pretend = 0, frame = 0
 274              		@ frame_needed = 0, uses_anonymous_args = 0
 275 0000 10B5     		push	{r4, lr}
 276              		.cfi_def_cfa_offset 8
 277              		.cfi_offset 4, -8
 278              		.cfi_offset 14, -4
  44:Generated_Source\PSoC5/ServoCounter_PM.c ****     #if (!ServoCounter_UsingFixedFunction)
  45:Generated_Source\PSoC5/ServoCounter_PM.c **** 
  46:Generated_Source\PSoC5/ServoCounter_PM.c ****         ServoCounter_backup.CounterUdb = ServoCounter_ReadCounter();
 279              		.loc 1 46 0
 280 0002 FFF7FEFF 		bl	ServoCounter_ReadCounter
 281              	.LVL0:
 282 0006 034C     		ldr	r4, .L2
 283 0008 6080     		strh	r0, [r4, #2]	@ movhi
  47:Generated_Source\PSoC5/ServoCounter_PM.c **** 
  48:Generated_Source\PSoC5/ServoCounter_PM.c ****         #if(!ServoCounter_ControlRegRemoved)
  49:Generated_Source\PSoC5/ServoCounter_PM.c ****             ServoCounter_backup.CounterControlRegister = ServoCounter_ReadControlRegister();
 284              		.loc 1 49 0
 285 000a FFF7FEFF 		bl	ServoCounter_ReadControlRegister
 286              	.LVL1:
 287 000e 2071     		strb	r0, [r4, #4]
 288 0010 10BD     		pop	{r4, pc}
 289              	.L3:
 290 0012 00BF     		.align	2
 291              	.L2:
 292 0014 00000000 		.word	.LANCHOR0
 293              		.cfi_endproc
 294              	.LFE0:
 295              		.size	ServoCounter_SaveConfig, .-ServoCounter_SaveConfig
 296              		.section	.text.ServoCounter_RestoreConfig,"ax",%progbits
 297              		.align	1
ARM GAS  C:\Users\Bruger\AppData\Local\Temp\cctvWd5V.s 			page 21


 298              		.global	ServoCounter_RestoreConfig
 299              		.thumb
 300              		.thumb_func
 301              		.type	ServoCounter_RestoreConfig, %function
 302              	ServoCounter_RestoreConfig:
 303              	.LFB1:
  50:Generated_Source\PSoC5/ServoCounter_PM.c ****         #endif /* (!ServoCounter_ControlRegRemoved) */
  51:Generated_Source\PSoC5/ServoCounter_PM.c **** 
  52:Generated_Source\PSoC5/ServoCounter_PM.c ****     #endif /* (!ServoCounter_UsingFixedFunction) */
  53:Generated_Source\PSoC5/ServoCounter_PM.c **** }
  54:Generated_Source\PSoC5/ServoCounter_PM.c **** 
  55:Generated_Source\PSoC5/ServoCounter_PM.c **** 
  56:Generated_Source\PSoC5/ServoCounter_PM.c **** /*******************************************************************************
  57:Generated_Source\PSoC5/ServoCounter_PM.c **** * Function Name: ServoCounter_RestoreConfig
  58:Generated_Source\PSoC5/ServoCounter_PM.c **** ********************************************************************************
  59:Generated_Source\PSoC5/ServoCounter_PM.c **** *
  60:Generated_Source\PSoC5/ServoCounter_PM.c **** * Summary:
  61:Generated_Source\PSoC5/ServoCounter_PM.c **** *  Restores the current user configuration.
  62:Generated_Source\PSoC5/ServoCounter_PM.c **** *
  63:Generated_Source\PSoC5/ServoCounter_PM.c **** * Parameters:  
  64:Generated_Source\PSoC5/ServoCounter_PM.c **** *  void
  65:Generated_Source\PSoC5/ServoCounter_PM.c **** *
  66:Generated_Source\PSoC5/ServoCounter_PM.c **** * Return: 
  67:Generated_Source\PSoC5/ServoCounter_PM.c **** *  void
  68:Generated_Source\PSoC5/ServoCounter_PM.c **** *
  69:Generated_Source\PSoC5/ServoCounter_PM.c **** * Global variables:
  70:Generated_Source\PSoC5/ServoCounter_PM.c **** *  ServoCounter_backup:  Variables of this global structure are used to 
  71:Generated_Source\PSoC5/ServoCounter_PM.c **** *  restore the values of non retention registers on wakeup from sleep mode.
  72:Generated_Source\PSoC5/ServoCounter_PM.c **** *
  73:Generated_Source\PSoC5/ServoCounter_PM.c **** *******************************************************************************/
  74:Generated_Source\PSoC5/ServoCounter_PM.c **** void ServoCounter_RestoreConfig(void) 
  75:Generated_Source\PSoC5/ServoCounter_PM.c **** {      
 304              		.loc 1 75 0
 305              		.cfi_startproc
 306              		@ args = 0, pretend = 0, frame = 0
 307              		@ frame_needed = 0, uses_anonymous_args = 0
 308 0000 10B5     		push	{r4, lr}
 309              		.cfi_def_cfa_offset 8
 310              		.cfi_offset 4, -8
 311              		.cfi_offset 14, -4
  76:Generated_Source\PSoC5/ServoCounter_PM.c ****     #if (!ServoCounter_UsingFixedFunction)
  77:Generated_Source\PSoC5/ServoCounter_PM.c **** 
  78:Generated_Source\PSoC5/ServoCounter_PM.c ****        ServoCounter_WriteCounter(ServoCounter_backup.CounterUdb);
 312              		.loc 1 78 0
 313 0002 044C     		ldr	r4, .L5
 314 0004 6088     		ldrh	r0, [r4, #2]
 315 0006 FFF7FEFF 		bl	ServoCounter_WriteCounter
 316              	.LVL2:
  79:Generated_Source\PSoC5/ServoCounter_PM.c **** 
  80:Generated_Source\PSoC5/ServoCounter_PM.c ****         #if(!ServoCounter_ControlRegRemoved)
  81:Generated_Source\PSoC5/ServoCounter_PM.c ****             ServoCounter_WriteControlRegister(ServoCounter_backup.CounterControlRegister);
 317              		.loc 1 81 0
 318 000a 2079     		ldrb	r0, [r4, #4]	@ zero_extendqisi2
  82:Generated_Source\PSoC5/ServoCounter_PM.c ****         #endif /* (!ServoCounter_ControlRegRemoved) */
  83:Generated_Source\PSoC5/ServoCounter_PM.c **** 
  84:Generated_Source\PSoC5/ServoCounter_PM.c ****     #endif /* (!ServoCounter_UsingFixedFunction) */
  85:Generated_Source\PSoC5/ServoCounter_PM.c **** }
ARM GAS  C:\Users\Bruger\AppData\Local\Temp\cctvWd5V.s 			page 22


 319              		.loc 1 85 0
 320 000c BDE81040 		pop	{r4, lr}
 321              		.cfi_restore 14
 322              		.cfi_restore 4
 323              		.cfi_def_cfa_offset 0
  81:Generated_Source\PSoC5/ServoCounter_PM.c ****         #endif /* (!ServoCounter_ControlRegRemoved) */
 324              		.loc 1 81 0
 325 0010 FFF7FEBF 		b	ServoCounter_WriteControlRegister
 326              	.LVL3:
 327              	.L6:
 328              		.align	2
 329              	.L5:
 330 0014 00000000 		.word	.LANCHOR0
 331              		.cfi_endproc
 332              	.LFE1:
 333              		.size	ServoCounter_RestoreConfig, .-ServoCounter_RestoreConfig
 334              		.section	.text.ServoCounter_Sleep,"ax",%progbits
 335              		.align	1
 336              		.global	ServoCounter_Sleep
 337              		.thumb
 338              		.thumb_func
 339              		.type	ServoCounter_Sleep, %function
 340              	ServoCounter_Sleep:
 341              	.LFB2:
  86:Generated_Source\PSoC5/ServoCounter_PM.c **** 
  87:Generated_Source\PSoC5/ServoCounter_PM.c **** 
  88:Generated_Source\PSoC5/ServoCounter_PM.c **** /*******************************************************************************
  89:Generated_Source\PSoC5/ServoCounter_PM.c **** * Function Name: ServoCounter_Sleep
  90:Generated_Source\PSoC5/ServoCounter_PM.c **** ********************************************************************************
  91:Generated_Source\PSoC5/ServoCounter_PM.c **** * Summary:
  92:Generated_Source\PSoC5/ServoCounter_PM.c **** *     Stop and Save the user configuration
  93:Generated_Source\PSoC5/ServoCounter_PM.c **** *
  94:Generated_Source\PSoC5/ServoCounter_PM.c **** * Parameters:  
  95:Generated_Source\PSoC5/ServoCounter_PM.c **** *  void
  96:Generated_Source\PSoC5/ServoCounter_PM.c **** *
  97:Generated_Source\PSoC5/ServoCounter_PM.c **** * Return: 
  98:Generated_Source\PSoC5/ServoCounter_PM.c **** *  void
  99:Generated_Source\PSoC5/ServoCounter_PM.c **** *
 100:Generated_Source\PSoC5/ServoCounter_PM.c **** * Global variables:
 101:Generated_Source\PSoC5/ServoCounter_PM.c **** *  ServoCounter_backup.enableState:  Is modified depending on the enable 
 102:Generated_Source\PSoC5/ServoCounter_PM.c **** *  state of the block before entering sleep mode.
 103:Generated_Source\PSoC5/ServoCounter_PM.c **** *
 104:Generated_Source\PSoC5/ServoCounter_PM.c **** *******************************************************************************/
 105:Generated_Source\PSoC5/ServoCounter_PM.c **** void ServoCounter_Sleep(void) 
 106:Generated_Source\PSoC5/ServoCounter_PM.c **** {
 342              		.loc 1 106 0
 343              		.cfi_startproc
 344              		@ args = 0, pretend = 0, frame = 0
 345              		@ frame_needed = 0, uses_anonymous_args = 0
 346 0000 08B5     		push	{r3, lr}
 347              		.cfi_def_cfa_offset 8
 348              		.cfi_offset 3, -8
 349              		.cfi_offset 14, -4
 107:Generated_Source\PSoC5/ServoCounter_PM.c ****     #if(!ServoCounter_ControlRegRemoved)
 108:Generated_Source\PSoC5/ServoCounter_PM.c ****         /* Save Counter's enable state */
 109:Generated_Source\PSoC5/ServoCounter_PM.c ****         if(ServoCounter_CTRL_ENABLE == (ServoCounter_CONTROL & ServoCounter_CTRL_ENABLE))
 350              		.loc 1 109 0
ARM GAS  C:\Users\Bruger\AppData\Local\Temp\cctvWd5V.s 			page 23


 351 0002 074B     		ldr	r3, .L11
 352 0004 1B78     		ldrb	r3, [r3]	@ zero_extendqisi2
 353 0006 13F0800F 		tst	r3, #128
 354 000a 064B     		ldr	r3, .L11+4
 110:Generated_Source\PSoC5/ServoCounter_PM.c ****         {
 111:Generated_Source\PSoC5/ServoCounter_PM.c ****             /* Counter is enabled */
 112:Generated_Source\PSoC5/ServoCounter_PM.c ****             ServoCounter_backup.CounterEnableState = 1u;
 355              		.loc 1 112 0
 356 000c 14BF     		ite	ne
 357 000e 0122     		movne	r2, #1
 113:Generated_Source\PSoC5/ServoCounter_PM.c ****         }
 114:Generated_Source\PSoC5/ServoCounter_PM.c ****         else
 115:Generated_Source\PSoC5/ServoCounter_PM.c ****         {
 116:Generated_Source\PSoC5/ServoCounter_PM.c ****             /* Counter is disabled */
 117:Generated_Source\PSoC5/ServoCounter_PM.c ****             ServoCounter_backup.CounterEnableState = 0u;
 358              		.loc 1 117 0
 359 0010 0022     		moveq	r2, #0
 360 0012 1A70     		strb	r2, [r3]
 118:Generated_Source\PSoC5/ServoCounter_PM.c ****         }
 119:Generated_Source\PSoC5/ServoCounter_PM.c ****     #else
 120:Generated_Source\PSoC5/ServoCounter_PM.c ****         ServoCounter_backup.CounterEnableState = 1u;
 121:Generated_Source\PSoC5/ServoCounter_PM.c ****         if(ServoCounter_backup.CounterEnableState != 0u)
 122:Generated_Source\PSoC5/ServoCounter_PM.c ****         {
 123:Generated_Source\PSoC5/ServoCounter_PM.c ****             ServoCounter_backup.CounterEnableState = 0u;
 124:Generated_Source\PSoC5/ServoCounter_PM.c ****         }
 125:Generated_Source\PSoC5/ServoCounter_PM.c ****     #endif /* (!ServoCounter_ControlRegRemoved) */
 126:Generated_Source\PSoC5/ServoCounter_PM.c ****     
 127:Generated_Source\PSoC5/ServoCounter_PM.c ****     ServoCounter_Stop();
 361              		.loc 1 127 0
 362 0014 FFF7FEFF 		bl	ServoCounter_Stop
 363              	.LVL4:
 128:Generated_Source\PSoC5/ServoCounter_PM.c ****     ServoCounter_SaveConfig();
 129:Generated_Source\PSoC5/ServoCounter_PM.c **** }
 364              		.loc 1 129 0
 365 0018 BDE80840 		pop	{r3, lr}
 366              		.cfi_restore 14
 367              		.cfi_restore 3
 368              		.cfi_def_cfa_offset 0
 128:Generated_Source\PSoC5/ServoCounter_PM.c ****     ServoCounter_SaveConfig();
 369              		.loc 1 128 0
 370 001c FFF7FEBF 		b	ServoCounter_SaveConfig
 371              	.LVL5:
 372              	.L12:
 373              		.align	2
 374              	.L11:
 375 0020 78650040 		.word	1073767800
 376 0024 00000000 		.word	.LANCHOR0
 377              		.cfi_endproc
 378              	.LFE2:
 379              		.size	ServoCounter_Sleep, .-ServoCounter_Sleep
 380              		.section	.text.ServoCounter_Wakeup,"ax",%progbits
 381              		.align	1
 382              		.global	ServoCounter_Wakeup
 383              		.thumb
 384              		.thumb_func
 385              		.type	ServoCounter_Wakeup, %function
 386              	ServoCounter_Wakeup:
ARM GAS  C:\Users\Bruger\AppData\Local\Temp\cctvWd5V.s 			page 24


 387              	.LFB3:
 130:Generated_Source\PSoC5/ServoCounter_PM.c **** 
 131:Generated_Source\PSoC5/ServoCounter_PM.c **** 
 132:Generated_Source\PSoC5/ServoCounter_PM.c **** /*******************************************************************************
 133:Generated_Source\PSoC5/ServoCounter_PM.c **** * Function Name: ServoCounter_Wakeup
 134:Generated_Source\PSoC5/ServoCounter_PM.c **** ********************************************************************************
 135:Generated_Source\PSoC5/ServoCounter_PM.c **** *
 136:Generated_Source\PSoC5/ServoCounter_PM.c **** * Summary:
 137:Generated_Source\PSoC5/ServoCounter_PM.c **** *  Restores and enables the user configuration
 138:Generated_Source\PSoC5/ServoCounter_PM.c **** *  
 139:Generated_Source\PSoC5/ServoCounter_PM.c **** * Parameters:  
 140:Generated_Source\PSoC5/ServoCounter_PM.c **** *  void
 141:Generated_Source\PSoC5/ServoCounter_PM.c **** *
 142:Generated_Source\PSoC5/ServoCounter_PM.c **** * Return: 
 143:Generated_Source\PSoC5/ServoCounter_PM.c **** *  void
 144:Generated_Source\PSoC5/ServoCounter_PM.c **** *
 145:Generated_Source\PSoC5/ServoCounter_PM.c **** * Global variables:
 146:Generated_Source\PSoC5/ServoCounter_PM.c **** *  ServoCounter_backup.enableState:  Is used to restore the enable state of 
 147:Generated_Source\PSoC5/ServoCounter_PM.c **** *  block on wakeup from sleep mode.
 148:Generated_Source\PSoC5/ServoCounter_PM.c **** *
 149:Generated_Source\PSoC5/ServoCounter_PM.c **** *******************************************************************************/
 150:Generated_Source\PSoC5/ServoCounter_PM.c **** void ServoCounter_Wakeup(void) 
 151:Generated_Source\PSoC5/ServoCounter_PM.c **** {
 388              		.loc 1 151 0
 389              		.cfi_startproc
 390              		@ args = 0, pretend = 0, frame = 0
 391              		@ frame_needed = 0, uses_anonymous_args = 0
 392 0000 08B5     		push	{r3, lr}
 393              		.cfi_def_cfa_offset 8
 394              		.cfi_offset 3, -8
 395              		.cfi_offset 14, -4
 152:Generated_Source\PSoC5/ServoCounter_PM.c ****     ServoCounter_RestoreConfig();
 396              		.loc 1 152 0
 397 0002 FFF7FEFF 		bl	ServoCounter_RestoreConfig
 398              	.LVL6:
 153:Generated_Source\PSoC5/ServoCounter_PM.c ****     #if(!ServoCounter_ControlRegRemoved)
 154:Generated_Source\PSoC5/ServoCounter_PM.c ****         if(ServoCounter_backup.CounterEnableState == 1u)
 399              		.loc 1 154 0
 400 0006 044B     		ldr	r3, .L16
 401 0008 1B78     		ldrb	r3, [r3]	@ zero_extendqisi2
 402 000a 012B     		cmp	r3, #1
 403 000c 03D1     		bne	.L13
 155:Generated_Source\PSoC5/ServoCounter_PM.c ****         {
 156:Generated_Source\PSoC5/ServoCounter_PM.c ****             /* Enable Counter's operation */
 157:Generated_Source\PSoC5/ServoCounter_PM.c ****             ServoCounter_Enable();
 158:Generated_Source\PSoC5/ServoCounter_PM.c ****         } /* Do nothing if Counter was disabled before */    
 159:Generated_Source\PSoC5/ServoCounter_PM.c ****     #endif /* (!ServoCounter_ControlRegRemoved) */
 160:Generated_Source\PSoC5/ServoCounter_PM.c ****     
 161:Generated_Source\PSoC5/ServoCounter_PM.c **** }
 404              		.loc 1 161 0
 405 000e BDE80840 		pop	{r3, lr}
 406              		.cfi_remember_state
 407              		.cfi_restore 14
 408              		.cfi_restore 3
 409              		.cfi_def_cfa_offset 0
 157:Generated_Source\PSoC5/ServoCounter_PM.c ****         } /* Do nothing if Counter was disabled before */    
 410              		.loc 1 157 0
ARM GAS  C:\Users\Bruger\AppData\Local\Temp\cctvWd5V.s 			page 25


 411 0012 FFF7FEBF 		b	ServoCounter_Enable
 412              	.LVL7:
 413              	.L13:
 414              		.cfi_restore_state
 415 0016 08BD     		pop	{r3, pc}
 416              	.L17:
 417              		.align	2
 418              	.L16:
 419 0018 00000000 		.word	.LANCHOR0
 420              		.cfi_endproc
 421              	.LFE3:
 422              		.size	ServoCounter_Wakeup, .-ServoCounter_Wakeup
 423              		.bss
 424              		.align	1
 425              		.set	.LANCHOR0,. + 0
 426              		.type	ServoCounter_backup, %object
 427              		.size	ServoCounter_backup, 6
 428              	ServoCounter_backup:
 429 0000 00000000 		.space	6
 429      0000
 430              		.text
 431              	.Letext0:
 432              		.file 2 "Generated_Source\\PSoC5\\cytypes.h"
 433              		.file 3 "Generated_Source\\PSoC5\\ServoCounter.h"