ARM GAS  C:\Users\Bruger\AppData\Local\Temp\ccqMjbBn.s 			page 1


   1              		.syntax unified
   2              		.cpu cortex-m3
   3              		.fpu softvfp
   4              		.eabi_attribute 20, 1
   5              		.eabi_attribute 21, 1
   6              		.eabi_attribute 23, 3
   7              		.eabi_attribute 24, 1
   8              		.eabi_attribute 25, 1
   9              		.eabi_attribute 26, 1
  10              		.eabi_attribute 30, 2
  11              		.eabi_attribute 34, 1
  12              		.eabi_attribute 18, 4
  13              		.thumb
  14              		.file	"USBUART_pm.c"
  15              		.text
  16              	.Ltext0:
  17              		.section	.gnu.lto_.profile.24c066fa,"",%progbits
  18 0000 789C6366 		.ascii	"x\234cf```e\200\000F\206\026\2464\000\002\200\000\366"
  18      60606065 
  18      80004686 
  18      16A63400 
  18      028000F6 
  19              		.text
  20              		.section	.gnu.lto_.jmpfuncs.24c066fa,"",%progbits
  21 0000 789C6366 		.ascii	"x\234cf\300\016\026BiV\020\301\310\300\300\004\242Y"
  21      C00E1642 
  21      695610C1 
  21      C8C0C004 
  21      A259
  22 0012 206C46A6 		.ascii	" lF\246\217L\214\027g-k\346\177\301\364\223\011(\302"
  22      8F4C8C17 
  22      672D6BE6 
  22      7FC1F493 
  22      0928C2
  23 0025 B89C510A 		.ascii	"\270\234Q\012(\012\245\200\222\367\237\234\277\310\001"
  23      280AA580 
  23      92F79F9C 
  23      BFC801
  24 0034 9604AA5E 		.ascii	"\226\004\252^\001\221\004Q\014l`\003\320L`\004\232\260"
  24      01910451 
  24      0C6C6003 
  24      D04C6004 
  24      9AB0
  25 0046 12A6F5FC 		.ascii	"\022\246\365\374\203\303\375<`\255@\223W!\264\202%\367"
  25      83C3FD3C 
  25      60AD4093 
  25      5721B482 
  25      25F7
  26 0058 DEBFFD90 		.ascii	"\336\277\375\220\031,\251\301\300\270\032d \003\000"
  26      192CA9C1 
  26      C0B81A64 
  26      200300
  27 0067 7A5C2478 		.ascii	"z\\$x"
  28              		.text
  29              		.section	.gnu.lto_.inline.24c066fa,"",%progbits
  30 0000 789C6366 		.ascii	"x\234cf\300\016\016AiV\006\006\026\036F\006& \223m\201"
  30      C00E0E41 
ARM GAS  C:\Users\Bruger\AppData\Local\Temp\ccqMjbBn.s 			page 2


  30      69560606 
  30      161E4606 
  30      2620936D 
  31 0015 3C886260 		.ascii	"<\210b`\344\002\021\014\314L\250\302L\014\034\274@\021"
  31      E402110C 
  31      CC4CA8C2 
  31      4C0C1CBC 
  31      4011
  32 0027 B60F7A68 		.ascii	"\266\017zh*A\004\013\203\221\036P\322\345]\023#\252"
  32      2A41040B 
  32      83911E50 
  32      D2E55D13 
  32      23AA
  33 0039 2C133790 		.ascii	",\0237\2201\301\017L1`'\031\330\030\364\255\201L\273"
  33      31C10F4C 
  33      31602719 
  33      D818F4AD 
  33      814CBB
  34 004c 8E9B08CD 		.ascii	"\216\233\010\315P}\0103pif\000\000i\023\014\320"
  34      507D0833 
  34      70696600 
  34      0069130C 
  34      D0
  35              		.text
  36              		.section	.gnu.lto_.pureconst.24c066fa,"",%progbits
  37 0000 789C6366 		.ascii	"x\234cf``\340f\200\000V\006\011F\006&)\026)6)\000\003"
  37      6060E066 
  37      80005606 
  37      09460626 
  37      29162936 
  38 0017 560087   		.ascii	"V\000\207"
  39              		.text
  40              		.section	.gnu.lto_USBUART_DP_ISR.24c066fa,"",%progbits
  41 0000 789C6366 		.ascii	"x\234cf\300\004R@\274\020\210\325\200\230\221\231\201"
  41      C0045240 
  41      BC1088D5 
  41      80989199 
  41      81
  42 0011 9169C239 		.ascii	"\221i\3029\006\206F\016&FF\020\203\201\221\241\236\211"
  42      0686460E 
  42      26464610 
  42      838191A1 
  42      9E89
  43 0023 B19EF125 		.ascii	"\261\236\361%\323G&\306\011\007V\317\340V_\332\320\320"
  43      D34726C6 
  43      090756CF 
  43      E0565FDA 
  43      D0D0
  44 0035 F061D3EA 		.ascii	"\360a\323\352\306\200\003\214?\231\030\030>3A\314a\\"
  44      C680038C 
  44      3F991818 
  44      3E3341CC 
  44      615C
  45 0047 CEA8CE00 		.ascii	"\316\250\316\000T\364\261\345\357un\266\026\240\"\001"
  45      54F4B1E5 
  45      EF756EB6 
  45      16A02201 
ARM GAS  C:\Users\Bruger\AppData\Local\Temp\ccqMjbBn.s 			page 3


  46 0057 881CE30A 		.ascii	"\210\034\343\012F6F \275^\350@\303\377\377\223\327-"
  46      46364620 
  46      BD5EE840 
  46      C3FFFF93 
  46      D72D
  47 0069 E1676660 		.ascii	"\341gf`x\002\224\001\231\377\224\211\011D3\337al>p;"
  47      78029401 
  47      99FF9489 
  47      094433DF 
  47      616C3E70 
  48 007e 15A41464 		.ascii	"\025\244\024d\306\274\313}\353\230j\1777t4p\374db\374"
  48      C6BCCB7D 
  48      EB986A7F 
  48      37743470 
  48      FC6462FC 
  49 0092 CC04D4CE 		.ascii	"\314\004\324\316\270\222\261\226\341'P\365=\306\306"
  49      B892B196 
  49      E12750F5 
  49      3DC6C6
  50 00a1 035F45C1 		.ascii	"\003_E\301*\031@\3460\202\364\003MSqO\315K-J,IM\211"
  50      2A1940E6 
  50      3082F403 
  50      4D53714F 
  50      CD4B2D4A 
  51 00b9 0FCE2F2D 		.ascii	"\017\316/-JN\215\011\010\316w6\215\011\015v\012u\014"
  51      4A4E8D09 
  51      08CE7736 
  51      8D090D76 
  51      0A750C
  52 00cc 0A892FC8 		.ascii	"\012\211/\310\325Kf\000\000\006KF\327"
  52      D54B6600 
  52      00064B46 
  52      D7
  53              		.text
  54              		.section	.gnu.lto_USBUART_SaveConfig.24c066fa,"",%progbits
  55 0000 789C6366 		.ascii	"x\234cf\300\004R@\\\012\304j@\314\310\314\300\3104\341"
  55      C0045240 
  55      5C0AC46A 
  55      40CCC8CC 
  55      C0C834E1 
  56 0014 1C034323 		.ascii	"\034\003C#\007\023##\210\301\300\310P\317\304X\317\370"
  56      07132323 
  56      88C1C0C8 
  56      50CFC458 
  56      CFF8
  57 0026 92E92313 		.ascii	"\222\351#\023\343\204\003\253gp\253/mhh\370\320\264"
  57      E38403AB 
  57      6770AB2F 
  57      6D6868F8 
  57      D0B4
  58 0038 59A255E2 		.ascii	"Y\242U\342'\023\003\303g&\2101\214\313\031\325\031\200"
  58      271303C3 
  58      67268831 
  58      8CCB19D5 
  58      1980
  59 004a 6A3EB6FC 		.ascii	"j>\266\374\275\316\315\326\002T#\000\221c\\\301\310"
  59      BDCECDD6 
ARM GAS  C:\Users\Bruger\AppData\Local\Temp\ccqMjbBn.s 			page 4


  59      02542300 
  59      91635CC1 
  59      C8
  60 005b C608A4D7 		.ascii	"\306\010\244\327\013\035h\370\377\377\363\231\211/\324"
  60      0B1D68F8 
  60      FFFFF399 
  60      892FD4
  61 006a 1881E24F 		.ascii	"\030\201\342O\200\030d\301S&&\020\315|\217\221\021\244"
  61      801864C1 
  61      53262610 
  61      CD7C8F91 
  61      11A4
  62 007c 1264D413 		.ascii	"\022d\324\023&F\220\020P\201\212{j^jQbIjJ|p~iQrjL@p"
  62      26469010 
  62      50818A7B 
  62      6A5E6A51 
  62      62496A4A 
  63 009a BEB3694C 		.ascii	"\276\263iLh\260S\250cPH|A\256^2\003\000\372\0305\364"
  63      68B053A8 
  63      6350487C 
  63      41AE5E32 
  63      0300FA18 
  64              		.text
  65              		.section	.gnu.lto_USBUART_RestoreConfig.24c066fa,"",%progbits
  66 0000 789C758F 		.ascii	"x\234u\217\277KBQ\024\307\3179\367\371\224t\210&ip\212"
  66      BF4B4251 
  66      14C7CF39 
  66      F7F99474 
  66      88266970 
  67 0015 DC7288FE 		.ascii	"\334r\210\376\200\012j\215\314M\2222\3072\244F\361\276"
  67      800A6A8D 
  67      CC4D9232 
  67      C732A446 
  67      F1BE
  68 0027 346888B0 		.ascii	"4h\210\260\246 l\313~XFS`\313\243\241\261\210\250(\254"
  68      A6206CCB 
  68      7E584653 
  68      60CBA3A1 
  68      B188A828 
  69 003c 200C6C4B 		.ascii	" \014lK\034\342\025b\347>\203\240\350\302\345\336\373"
  69      1CE21562 
  69      E73E83A0 
  69      E8C2E5DE 
  69      FB
  70 004d BD9FEFF7 		.ascii	"\275\237\357\367\234#\340\357\352\345=\216\000\335|"
  70      9C23E0EF 
  70      EAE53D8E 
  70      00DD7C
  71 005c A20390B2 		.ascii	"\242\003\220\262\347\000\206\213H\224| \333\264\233"
  71      E700868B 
  71      48947C20 
  71      DBB49B
  72 006b 00488F40 		.ascii	"\000H\217@\255%k\210\352\002\010)\022\032\246\360\225"
  72      AD256B88 
  72      EA020829 
  72      121AA6F0 
  72      95
ARM GAS  C:\Users\Bruger\AppData\Local\Temp\ccqMjbBn.s 			page 5


  73 007c 6A8459B3 		.ascii	"j\204Y\263\260\356\366oI)\337\026\216\275\213^\213\000"
  73      B0EEF66F 
  73      4929DF16 
  73      8EBD8B5E 
  73      8B00
  74 008e EAD4CAC7 		.ascii	"\352\324\312\307m\364\0033\265L\343\326\255g\230io\375"
  74      6DF40333 
  74      B54CE3D6 
  74      AD679869 
  74      6FFD
  75 00a0 E10EEA5C 		.ascii	"\341\016\352\\\027\016;L\331l\326\313\253\325\000\352"
  75      170E3B4C 
  75      D96CD6CB 
  75      ABD500EA 
  76 00b0 022C62B1 		.ascii	"\002,b\261\302\200\252\363B\244Nq\217\247kG\0175\247"
  76      C280AAF3 
  76      42A44E71 
  76      8FA76B47 
  76      0F35A7
  77 00c3 F2BC93E0 		.ascii	"\362\274\223\340\270\315\253\225\"%?\345\222tYD\015"
  77      B8CDAB95 
  77      22253FE5 
  77      92745944 
  77      0D
  78 00d4 15C8EA53 		.ascii	"\025\310\352S\345\342\322U%V\354\347\263\314[\316\034"
  78      E5E2D255 
  78      2556ECE7 
  78      B3CC5BCE 
  78      1C
  79 00e5 6E18D260 		.ascii	"n\030\322`J\340.&q\017;\271v\001s\010\327\230\271KO"
  79      4AE02E26 
  79      710F3BB9 
  79      76017308 
  79      D798B94B 
  80 00fa FE641AF9 		.ascii	"\376d\032\371\223e\247rs\007\270\2578P-\010(\371D\031"
  80      9365A772 
  80      7307B8AF 
  80      38502D08 
  80      28F94419 
  81 010e D3A675E6 		.ascii	"\323\246u\346Q0\374.\257\325m\307\001&\271{\007(\364"
  81      5130FC2E 
  81      AFD56DC7 
  81      0126B97B 
  81      0728F4
  82 0121 43FF8FE4 		.ascii	"C\377\217\344\316\260\370M\252t\315\036\360\021\015"
  82      CEB0F84D 
  82      AA74CD1E 
  82      F0110D
  83 0130 B339647B 		.ascii	"\2639d{@\215\217Je\264k86\023KL\314\305\246\"\301\370"
  83      408D8F4A 
  83      65B46B38 
  83      36134B4C 
  83      CCC5A622 
  84 0146 7C221A0B 		.ascii	"|\"\032\013\217\004\343\203}\341Pp \324?:\026\231\235"
  84      8F04E383 
  84      7DE15070 
  84      20D43F3A 
ARM GAS  C:\Users\Bruger\AppData\Local\Temp\ccqMjbBn.s 			page 6


  84      16999D
  85 0159 EE89C217 		.ascii	"\356\211\302\027\366R\213\311"
  85      F6528BC9 
  86              		.text
  87              		.section	.gnu.lto_USBUART_Suspend.24c066fa,"",%progbits
  88 0000 789C8556 		.ascii	"x\234\205V_LSg\024\377\316\275\267\245\265-\355\246"
  88      5F4C5367 
  88      14FFCEBD 
  88      B7A5B52D 
  88      EDA6
  89 0012 11532283 		.ascii	"\021S\"\203@B\226\210{Z\366\266d\333\303\262\227\305"
  89      40429688 
  89      7B5AF6B6 
  89      64DBC3B2 
  89      97C5
  90 0024 8CF96662 		.ascii	"\214\371fb\324\365mC\3030\331\013\343\026\352@\263\270"
  90      D4F56D43 
  90      C330D90B 
  90      E316EA40 
  90      B3B8
  91 0036 D2B1854D 		.ascii	"\322\261\205M\221\261\214\211\243\374\031*N\335\264"
  91      91B18C89 
  91      A3FC192A 
  91      4EDDB4
  92 0045 63024EFE 		.ascii	"c\002N\376\0102a(C\234\305\240sK\241\304\331\010t\347"
  92      08326128 
  92      439CC5A0 
  92      734BA1C4 
  92      D90874E7 
  93 0059 7CDFED2D 		.ascii	"|\337\355-^l\327\244\347\336\373\365\234\337\367;\277"
  93      5E6CD7A4 
  93      E7DEFBF5 
  93      9CDFF73B 
  93      BF
  94 006a 73BE7B2A 		.ascii	"s\276{*\263\265\237\227\361\333ce\354%\274\202\231\201"
  94      B3B59F97 
  94      F1DB6365 
  94      EC25BC82 
  94      9981
  95 007c E41F66CC 		.ascii	"\344\037f\314k\221$y\336\314\324uJc?c\252]\006\223X"
  95      6B912479 
  95      DECCD475 
  95      4A633F63 
  95      AA5D0693 
  96 0091 57123726 		.ascii	"W\0227&\000\272a\300*$Y1A\005\334\223\346%\360\207Z"
  96      00BA61C0 
  96      2A245931 
  96      4105DC93 
  96      E625F087 
  97 00a6 EB6D85CD 		.ascii	"\353m\205\315\252\252F\272.n:\260)&1\026\225\304Vp\034"
  97      AAAA46BA 
  97      2E6E3AB0 
  97      29263116 
  97      95C45670 
  98 00bb 0A19FA34 		.ascii	"\012\031\3724\337\2177\331\345B\240\373\371\211\350"
  98      DF8F37D9 
  98      E542A0FB 
ARM GAS  C:\Users\Bruger\AppData\Local\Temp\ccqMjbBn.s 			page 7


  98      F989E8
  99 00ca C7D6FC26 		.ascii	"\307\326\374&U\255\234Y\276\323gS\353U\337L<\376\\L"
  99      55AD9C59 
  99      BED36753 
  99      EB55DF4C 
  99      3CFE5C4C 
 100 00de 02680119 		.ascii	"\002h\001\031#a\213\033\236wkd)\300\267<a3\373p\003"
 100      23618B1B 
 100      9E776B64 
 100      29C0B73C 
 100      6133FB70 
 101 00f3 179C807C 		.ascii	"\027\234\200|\001\016\337\201\031\360B+\035\317\206"
 101      010EDF81 
 101      19F0422B 
 101      1DCF86
 102 0102 D478FCE4 		.ascii	"\324x\374\344JmK\276\274Ea\264db1I2\243\221-tg%c'\343"
 102      4A6D4BBE 
 102      BC4561B4 
 102      64623149 
 102      32A3912D 
 103 011c 20E324E3 		.ascii	" \343$\343\"\263\236\314\0062\033\311d\221q\223\311"
 103      22B39ECC 
 103      06321BC9 
 103      64917193 
 103      C9
 104 012d 26B3994C 		.ascii	"&\263\231L\016\231\\2yd\362\311\024\220a,\214_\222d"
 104      0E995C32 
 104      7964F2C9 
 104      1490612C 
 104      8C5F9264 
 105 0141 161FF02A 		.ascii	"\026\037\360*OAU(^\235E\334\376\225\024\244~l\354p\273"
 105      4F415528 
 105      5E9D45DC 
 105      FE9514A4 
 105      7E6CEC70 
 106 0156 54FE58AD 		.ascii	"T\376X\255Q-1I\211J\304\270\025\3121\332\304\306A\342"
 106      512D3149 
 106      894AC4B8 
 106      15CA31DA 
 106      C4C641E2 
 107 016a 49205B74 		.ascii	"I [tf7\240\347\341\241\341\226m\"\330\204\301\323'j"
 107      6637A0E7 
 107      E1A1E196 
 107      6D22D884 
 107      C1D3276A 
 108 017e BE813929 		.ascii	"\276\2019)&\231kB^U!)n\205\257\216Z\370\022W\346\362"
 108      26996B42 
 108      5E552129 
 108      6E85AF8E 
 108      5AF81257 
 109 0194 99705766 		.ascii	"\231pWf\003\034\361\372 &e@\020\334\320\006\250\034"
 109      031CF1FA 
 109      20266540 
 109      10DCD006 
 109      A81C
 110 01a6 B4430320 		.ascii	"\264C\003 b\345tu\030\004 a\262\353\340\033\254\332"
 110      62E57475 
ARM GAS  C:\Users\Bruger\AppData\Local\Temp\ccqMjbBn.s 			page 8


 110      18042061 
 110      B2EBE01B 
 110      ACDA
 111 01b8 AD2DAC86 		.ascii	"\255-\254\206\2231\246\003\204\346\263\3704o\2261:\322"
 111      9331A603 
 111      84E6B3F8 
 111      346F9631 
 111      3AD2
 112 01ca D9D76325 		.ascii	"\331\327c%oc&\226eI\224F\007\260\360\307\026\257\357"
 112      6F632696 
 112      65499446 
 112      07B0F0C7 
 112      16AFEF
 113 01dd 28101F95 		.ascii	"(\020\037\225\274\254\320\011\345\360=\301\342o+\301"
 113      BCACD009 
 113      E5F03DC1 
 113      E26F2BC1 
 114 01ed 4FBACC45 		.ascii	"O\272\314E\255X\305\320\013T\353.t\\\340m\002'\241\010"
 114      AD58C5D0 
 114      0B54EB2E 
 114      745CE06D 
 114      0227A108 
 115 0201 1D46BFFC 		.ascii	"\035F\277\374\266\312IX\000\014Na\024W\244\257\365C"
 115      B6CA4958 
 115      000C4E61 
 115      1457A4AF 
 115      F543
 116 0213 C1D7822E 		.ascii	"\301\327\202.\017\026\006;\355<}\177B\221\216\245O\227"
 116      0F16063B 
 116      ED3C7D7F 
 116      42918EA5 
 116      4F97
 117 0225 9D49094E 		.ascii	"\235I\011N\353\022t\013\011\252\036\231E\274U@4\336"
 117      EB12740B 
 117      09AA1E99 
 117      45BC5540 
 117      34DE
 118 0237 5B995308 		.ascii	"[\231S\010\"\243\202\301\031\261K\000\264$S\202\375"
 118      22A382C1 
 118      19B14B00 
 118      B4245382 
 118      FD
 119 0248 806008C1 		.ascii	"\200`\010\301\246\300\027\212^\261\223;3\212\262.J-"
 119      A6C0178A 
 119      5EB1933B 
 119      338AB22E 
 119      4A2D
 120 025a 0167B1BC 		.ascii	"\001g\261\274\253\225\261\341\3329p\307\260\375xBw["
 120      AB95B1E1 
 120      DA3970C7 
 120      B0FD7842 
 120      775B
 121 026c FD5A49EC 		.ascii	"\375ZI\354\350\366\325c\377\250\225gTW\255eT\327w|R"
 121      E8F6D563 
 121      FFA89567 
 121      5457AD65 
 121      54D7777C 
ARM GAS  C:\Users\Bruger\AppData\Local\Temp\ccqMjbBn.s 			page 9


 122 0281 4E9238AF 		.ascii	"N\2228\257\223\370\321\220\221C@\034l\256\011r\210\214"
 122      93F8D190 
 122      9143401C 
 122      6CAE0972 
 122      888C
 123 0293 180AF793 		.ascii	"\030\012\367\223!\245\224h\027xJ\016M\345`\251\300t"
 123      21A59468 
 123      17784A0E 
 123      4DE560A9 
 123      C074
 124 02a5 A6EBAA8B 		.ascii	"\246\353\252\213\006\002.\364_\243a\312\350\020\337"
 124      06022EF4 
 124      5FA361CA 
 124      E810DF
 125 02b4 D0C535FC 		.ascii	"\320\3055\374l \255\206?\243\206O\212\026\354\324D["
 125      6C20AD86 
 125      3FA3864F 
 125      8A16ECD4 
 125      445B
 126 02c6 8F21B563 		.ascii	"\217!\265c\177_1s\321\016&\332 \\\327T\237\221\334\265"
 126      7F5F3173 
 126      D10E26DA 
 126      205CD754 
 126      9F91DCB5 
 127 02da 47DFF597 		.ascii	"G\337\365\227\004\347\217\226d\201\260A\200\3647\314"
 127      04E78F96 
 127      6481B041 
 127      80F437CC 
 128 02ea 75F146C0 		.ascii	"u\361F\300C\011\227x\022\225\201\3339i\333\335\330\337"
 128      43099778 
 128      129581DB 
 128      3969DBDD 
 128      D8DF
 129 02fc BD69FABB 		.ascii	"\275i\372\273\217\3677P\177\367C\021n+2\371'\370\201"
 129      8FF73750 
 129      7FF74311 
 129      6E2B32F9 
 129      27F881
 130 030f A0B1311D 		.ascii	"\240\2611\035\353\313\006\245\263\204\177m\355\251c"
 130      EBCB06A5 
 130      B3847F6D 
 130      EDA963
 131 031e 99BCD42B 		.ascii	"\231\274\324+H\372W\203\362)\321\256p\345\263\270\362"
 131      48FA5783 
 131      F229D1AE 
 131      70E5B3B8 
 131      F2
 132 032f 8DE9951F 		.ascii	"\215\351\225\037\020\335\253\237E\033\3563\270\252\020"
 132      10DDAB9F 
 132      451BEE33 
 132      B8AA10
 133 033e E36D89EE 		.ascii	"\343m\211\356u\247k\256!\003\377l\364_\3037e\3640\347"
 133      75A76BAE 
 133      2103FF6C 
 133      F45FC337 
 133      65F430E7 
 134 0352 9BAD09D6 		.ascii	"\233\255\011\326\246\275\0006cH}\377\312#\231W>\220"
ARM GAS  C:\Users\Bruger\AppData\Local\Temp\ccqMjbBn.s 			page 10


 134      A6BD0036 
 134      63487DFF 
 134      CA239957 
 134      3E90
 135 0364 A8FC44F7 		.ascii	"\250\374D\367\347\005I\220\253:\310\210FaQ\243\220#"
 135      E7054990 
 135      AB3AC888 
 135      466151A3 
 135      9023
 136 0376 10CEB62F 		.ascii	"\020\316\266/\016\331x\331s\031\214\032\030\245\302"
 136      0ED978D9 
 136      73198C1A 
 136      18A5C2
 137 0385 BAC609E5 		.ascii	"\272\306\011\345h\357\350\366\200&A.\206|\361\240\251"
 137      68EFE8F6 
 137      8026412E 
 137      867CF1A0 
 137      A9
 138 0396 5BF46273 		.ascii	"[\364bs\342\000\037\272\3600dM\302\214\3510\277\031"
 138      E2001FBA 
 138      F030644D 
 138      C28CE930 
 138      BF19
 139 03a8 54C94388 		.ascii	"T\311C\2105\252\244\214\276\316I\344\011\022\327\266"
 139      35AAA48C 
 139      BECE49E4 
 139      0912D7B6 
 140 03b8 0A887C8C 		.ascii	"\012\210|\214\270Y\033\031\022C\341t\202\302\314\204"
 140      B8591B19 
 140      1243E174 
 140      82C2CC84 
 141 03c8 B7D39E04 		.ascii	"\267\323\236\004\031\327A&\014\024\012\020b\015\205"
 141      19D74126 
 141      0C140A10 
 141      620D85
 142 03d7 94D1BF73 		.ascii	"\224\321\277s\012\005\274\221&\3237\322$\035a\255sh"
 142      0A05BC91 
 142      26D337D2 
 142      241D61AD 
 142      7368
 143 03e9 A6280CFF 		.ascii	"\246(\014\377V\360\241\022Y\372\237\241b<e7\322\234"
 143      56F0A112 
 143      59FA9FA1 
 143      623C6537 
 143      D29C
 144 03fb B29BC929 		.ascii	"\262\233\311)2\305\247\210\376\336\245Q\373\007\037"
 144      32C5A788 
 144      FEDEA551 
 144      FB071F
 145 040a 69B338F9 		.ascii	"i\2638\371\304t\366\205b\003\322SY;\242|\006N#k\034"
 145      C474F685 
 145      6203D253 
 145      593BA27C 
 145      064E236B 
 146 041f C6312993 		.ascii	"\3061)\223\321,\367g>\325\031\007\271\202\316\267\264"
 146      D12CF767 
 146      3ED51907 
ARM GAS  C:\Users\Bruger\AppData\Local\Temp\ccqMjbBn.s 			page 11


 146      B982CEB7 
 146      B4
 147 0430 418ED245 		.ascii	"A\216\322EF.\311ZN\207\003\015\007\034D\300\251\366"
 147      462EC95A 
 147      4E87030D 
 147      071C44C0 
 147      A9F6
 148 0442 56A9994F 		.ascii	"V\251\231O\314\002'\317\341hM\375y\375\234\272`\006"
 148      CC0227CF 
 148      E1684DFD 
 148      79FD9CBA 
 148      6006
 149 0454 E5BDCDE5 		.ascii	"\345\275\315\345\375\023\223\301\337\307\207\356\337"
 149      FD1393C1 
 149      DFC787EE 
 149      DF
 150 0461 E5EECFA8 		.ascii	"\345\356\317\250\330\243wDq\"#\275\211\035\026\376R"
 150      D8A37744 
 150      712223BD 
 150      891D16FE 
 150      52
 151 0472 1B14B143 		.ascii	"\033\024\261C\217\266\303\342\302\327\001G\0222\254"
 151      8FB6C3E2 
 151      C2D70147 
 151      1232AC
 152 0481 43CE2224 		.ascii	"C\316\"$\207\230\006o\350\310\233<\035F\177\\\200$A"
 152      8798066F 
 152      E8C89B3C 
 152      1D467F5C 
 152      802441
 153 0494 E10A5EF7 		.ascii	"\341\012^\367\224xJw\225y\336\331Y\274w\177\351\036"
 153      94784A77 
 153      9579DED9 
 153      59BC777F 
 153      E91E
 154 04a6 CF8E6DC5 		.ascii	"\317\216m\305{_{q\307\366\342W\267\277\362\326\333;"
 154      7B5F7B71 
 154      C7F6E257 
 154      B7BFF2D6 
 154      DB3B
 155 04b8 F7BDB775 		.ascii	"\367\275\267u\017syJv\355~\327\363FI\231\247\264t\377"
 155      0F73794A 
 155      76ED7ED7 
 155      F3464999 
 155      A7B474FF 
 156 04cc BEB2F7FF 		.ascii	"\276\262\367\377\003L\262xc"
 156      034CB278 
 156      63
 157              		.text
 158              		.section	.gnu.lto_USBUART_Resume.24c066fa,"",%progbits
 159 0000 789C8D95 		.ascii	"x\234\215\225_L\323W\024\307\357\271\277\376\243-\010"
 159      5F4CD357 
 159      14C7EFB9 
 159      BFFEA32D 
 159      08
 160 0011 0E993491 		.ascii	"\016\2314\221M4\342\262\261=,\313\236\267=,\313^\226"
 160      4D34E2B2 
ARM GAS  C:\Users\Bruger\AppData\Local\Temp\ccqMjbBn.s 			page 12


 160      B13D2CCB 
 160      9EB73D2C 
 160      CB5E96
 161 0024 31F76462 		.ascii	"1\367db\324\365mC\203\370H\374\025\352d\206\014\004"
 161      D4F56D43 
 161      83F848FC 
 161      15EA6486 
 161      0C04
 162 0036 66AA9339 		.ascii	"f\252\2239\222\241u:APt\370g\025\030 RYe\266\343\317"
 162      92A1753A 
 162      415074F8 
 162      67151820 
 162      525965B6 
 163 004c 4A4DC039 		.ascii	"JM\3009#\014\254\2725\246\260s\356\355\257\205B\211"
 163      230CACBA 
 163      35A6B073 
 163      EEEDAF85 
 163      4289
 164 005e 4D7A7EED 		.ascii	"Mz~\355\375\235\363=\237{\356=\367*l\351\347M\374N\233"
 164      FD9DF33D 
 164      9F7BEE3D 
 164      F72A6CE9 
 164      E74DFC4E 
 165 0073 187B1B9F 		.ascii	"\030{\033\237\240g\300kn1\3460q\256t\3441\325\254\363"
 165      A067C06B 
 165      6E31E630 
 165      71AE74E4 
 165      31D5ACF3 
 166 0087 BFC154AB 		.ascii	"\277\301T\253\002:9\254\003\240\037\014\330>\256\350"
 166      023A39AC 
 166      03A01F0C 
 166      D83EAEE8 
 167 0097 601FFCCD 		.ascii	"`\037\374\315g9\324xN\273,\005M\252\252\316\264F\326"
 167      6739D478 
 167      4EBB2C05 
 167      4DAAAACE 
 167      B446D6
 168 00aa EE5F1BE1 		.ascii	"\356_\033\341\214\205\271\324\207\223P\300\320\247\351"
 168      8C85B9D4 
 168      879350C0 
 168      D0A7E9
 169 00b9 C17CA355 		.ascii	"\301|\243U)\000\372=\033\010W\245mhT\325\362\220\367"
 169      2900FA3D 
 169      1B0857A5 
 169      6D6854D5 
 169      F290F7
 170 00cc AF1E8BEA 		.ascii	"\257\036\213\352R\235\241\371\371\227\"\034\300\015"
 170      529DA1F9 
 170      F997221C 
 170      C00D
 171 00da 0A46C26B 		.ascii	"\012F\302k6x\305\026#\244\000g4`181A&\234\202\015R\034"
 171      3678C516 
 171      23A40067 
 171      34603138 
 171      3141269C 
 172 00f2 7E0403E0 		.ascii	"~\004\003\340\203F\232W{\324\371\371\266{u\356M\372"
 172      83469A57 
ARM GAS  C:\Users\Bruger\AppData\Local\Temp\ccqMjbBn.s 			page 13


 172      7BD4F9F9 
 172      B67B75EE 
 172      4DFA
 173 0104 CD3A4643 		.ascii	"\315:FCz\026\341\334H\306D\306L\306B&\235L\006\231L"
 173      7A16E1DC 
 173      48C644C6 
 173      4CC64226 
 173      9D4C0699 
 174 0119 325964B2 		.ascii	"2Yd\262\311\254!\223C&\227\214\215\314:2yd\326\223\311"
 174      C9AC2193 
 174      4326978C 
 174      8DCC3A32 
 174      7964D693 
 175 012e 27C3D804 		.ascii	"'\303\330\004~\251\016\223\370\007\237\312\030Tx\216"
 175      7EA90E93 
 175      F8079FCA 
 175      1854788E 
 176 013e 57BF4844 		.ascii	"W\277HD\377r\035\002\1777\364\365Y^\366L\255TM\021\216"
 176      FF721D02 
 176      7F37F4F5 
 176      595EF64C 
 176      AD544D11 
 177 0153 3322CED3 		.ascii	"3\"\316\323P\206\321:\346\007.\320\221\021\235\331\010"
 177      5086D13A 
 177      E6072ED0 
 177      91119DD9 
 177      08
 178 0164 94B7CF3E 		.ascii	"\224\267\317>\0342\312`}r\260>\312e\015\306'\006}\246"
 178      1C32CA60 
 178      7D72B03E 
 178      CA650DC6 
 178      27067DA6 
 179 0178 FB1C47C4 		.ascii	"\373\034G\304_\267\303y\014\032\340[\207J^\0068\003"
 179      5FB7C379 
 179      0C1AE05B 
 179      874A5E06 
 179      3803
 180 018a 65F013D8 		.ascii	"e\360\023\330\304\273\2713\325\255\206\302W\251\236"
 180      C4BBB933 
 180      D5AD86C2 
 180      57A99E
 181 0199 67D1E791 		.ascii	"g\321\347\221X\012h\206Bv\007\234\303\025;\022\251\034"
 181      580A6886 
 181      4276079C 
 181      C3153B12 
 181      A91C
 182 01ab 272E5719 		.ascii	"'.W\031I\024]\240\005d\311'\271\302:\362\224\021\350"
 182      49145DA0 
 182      0564C927 
 182      B9C23AF2 
 182      9411E8
 183 01be 9C6999AE 		.ascii	"\234i\231\256S\310\033]\017\375s\300k&W\243\332U\241"
 183      53C81B5D 
 183      0FFD73C0 
 183      6B2657A3 
 183      DA55A1
 184 01d1 662C4232 		.ascii	"f,B2\212\264>\247\032\325\023\222\023\"\334\004\347"
ARM GAS  C:\Users\Bruger\AppData\Local\Temp\ccqMjbBn.s 			page 14


 184      8AB43EA7 
 184      1AD51392 
 184      1322DC04 
 184      E7
 185 01e2 C006AD24 		.ascii	"\300\006\255$\011m\010\201\357\375\336\007\367\204{"
 185      096D0881 
 185      EFFDDE07 
 185      F7847B
 186 01f1 9AFA3283 		.ascii	"\232\3722\203\363\370\012S<=8\327_\013\222\310\210N"
 186      F3F80A53 
 186      3C3D38D7 
 186      5F0B92C8 
 186      884E
 187 0203 471E36B6 		.ascii	"G\0366\266\033\310\311\334t\300\241\352\026\2451\213"
 187      1BC8C9DC 
 187      74C0A1EA 
 187      16A5318B 
 188 0213 3407AF3D 		.ascii	"4\007\257=\365\244ii,p\001\323\264\2134\0271\015JV<"
 188      F5A46969 
 188      2C7001D3 
 188      B48B3417 
 188      310D4A56 
 189 0228 36483993 		.ascii	"6H9\223T\354m\270\337\252\023s\004\006\227dV\231q%\261"
 189      54EC6DB8 
 189      DFAA1373 
 189      04069764 
 189      56997125 
 190 023d 9F510C25 		.ascii	"\237Q\014%$b\347\207R\321\214\021\243\207f\274\222\346"
 190      2462E787 
 190      52D18C11 
 190      A38766BC 
 190      92E6
 191 024f 8206180A 		.ascii	"\202\006\030\0128Z\254\011\221\216\270\310\345$\"\013"
 191      385AAC09 
 191      918EB8C8 
 191      E524220B 
 192 025f 4A2C4148 		.ascii	"J,AH\031}E X$B\360fM\254J\351\030s~j\252\333\" \032"
 192      197D4520 
 192      582442F0 
 192      664DAC4A 
 192      E918737E 
 193 0279 AEC7209C 		.ascii	"\256\307 \234\201\375\243\226\204\314\325\270\314\265"
 193      81FDA396 
 193      84CCD5B8 
 193      CCB5
 194 0287 24880C94 		.ascii	"$\210\014\224X\002\2212\372\027\001\221!!\036\305\352"
 194      58029132 
 194      FA170191 
 194      21211EC5 
 194      EA
 195 0298 908911DF 		.ascii	"\220\211\021\337?\253\361\245\011\204z\255\016\365="
 195      3FABF1A5 
 195      09847AAD 
 195      0EF53D
 196 02a7 27879584 		.ascii	"'\207\225\204\210'.r=\011!\013%\226 \244\214\356\024"
 196      88272E72 
 196      3D09210B 
ARM GAS  C:\Users\Bruger\AppData\Local\Temp\ccqMjbBn.s 			page 15


 196      259620A4 
 196      8CEE14
 197 02ba 08596C0C 		.ascii	"\010Yl\014\234\236\272!+\271\263\3446\261\206\305\026"
 197      9C9EBA21 
 197      2BB9B3E4 
 197      36B186C5 
 197      16
 198 02cb EEC21EC3 		.ascii	"\356\302\036\303WW\307G\357*\304\226\276\231A7\330\""
 198      5757C747 
 198      EF2AC496 
 198      BE994137 
 198      D822
 199 02dd DA048203 		.ascii	"\332\004\202\003%\222 \233v\364\320T\277\334j_yb3\230"
 199      2592209B 
 199      76F4D054 
 199      BFDC6A5F 
 199      79623398 
 200 02f1 A86F7419 		.ascii	"\250ot\031\023\014\277\306\031z\344\014\312\333\033"
 200      130CBFC6 
 200      197AE40C 
 200      CADB1B
 201 0300 0BA5C09A 		.ascii	"\013\245\300\232\224\215\232\334\231\275\313wf\237\350"
 201      948D9ADC 
 201      99BDCB77 
 201      669FE8
 202 030f 4CA0CEBC 		.ascii	"L\240\316\274\201\235I\325\371r@\221\3429\010\210)\026"
 202      819D49D5 
 202      F9724091 
 202      E2390888 
 202      2916
 203 0321 9527255A 		.ascii	"\225'%Z\277(O\216(\317\221\225\313sS\226'\336P\3518"
 203      BF284F8E 
 203      28CF9195 
 203      CB735396 
 203      27DE50E9 
 204 0336 36B0A03C 		.ascii	"6\260\240<s\003\332&\313]iA\274I\313i\223\376G\003\223"
 204      7303DA26 
 204      CB5D6941 
 204      BC49CB69 
 204      93FE4703 
 205 034b 8F45D531 		.ascii	"\217E\3251\027\334z\336\325\035\024\3706\201\177ne\374"
 205      17DC7ADE 
 205      D51D14F8 
 205      36817F6E 
 205      65FC
 206 035d DF24FE60 		.ascii	"\337$\376`\250\253\332*\3601\217o\001\276\337\253\341"
 206      A8ABDA2A 
 206      F0318F6F 
 206      01BEDFAB 
 206      E1
 207 036e AF5B29E3 		.ascii	"\257[)\343\355$\374<\351\337Q\333\347\022\333\001\017"
 207      ED24FC3C 
 207      E9DF51DB 
 207      E712DB01 
 207      0F
 208 037f 65187A5E 		.ascii	"e\030z^\374\337\005~\036\023\247e\264\333\250\235+U"
 208      FCDF057E 
ARM GAS  C:\Users\Bruger\AppData\Local\Temp\ccqMjbBn.s 			page 16


 208      1E13A765 
 208      B4DBA89D 
 208      2B55
 209 0391 EE1B7AB1 		.ascii	"\356\033z\261\267\334\332\336\252v\035\276-\217G\207"
 209      B7DCDADE 
 209      AA761DBE 
 209      2D8F4787 
 210 03a1 279744EE 		.ascii	"'\227D\356\304E\374\362\200l>\376d\016(\310\2420\010"
 210      C445FCF2 
 210      806C3EFE 
 210      640E28C8 
 210      A23008
 211 03b4 68E7E3F4 		.ascii	"h\347\343\364`l\317\256G\227\340\251\312\037\204\213"
 211      606CCFAE 
 211      4797E0A9 
 211      CA1F848B 
 212 03c4 B952D3ED 		.ascii	"\271R\323\355\2738\321\232\221@\373#\256:\2344\317|"
 212      BB38D19A 
 212      9140FB23 
 212      AE3A9C34 
 212      CF7C
 213 03d6 29F1CD95 		.ascii	")\361\315\225c\265\242q\271\212\007\342H\322DS\252\215"
 213      63B5A271 
 213      B98A07E2 
 213      48D24453 
 213      AA8D
 214 03e8 8A89E68B 		.ascii	"\212\211\346\213u\212\246X\247Ua\274:\030\214\311u\362"
 214      758AA658 
 214      A75561BC 
 214      3A188CC9 
 214      75F2
 215 03fa 1D3D51B1 		.ascii	"\035=Q\261\212\022eb\236?i\235\262D\231f\272\237her"
 215      8A126562 
 215      9E3F699D 
 215      B2449966 
 215      BA9F6865 
 216 040f F5CEFD27 		.ascii	"\365\316\375'\266\214\271V\233N\240\375\360\306\205"
 216      B68CB956 
 216      9B4EA0FD 
 216      F0C685
 217 041e 550AC609 		.ascii	"U\012\306\011\306\221@,\014]\267\256\234e\011V\207q"
 217      C691402C 
 217      0C5DB7AE 
 217      9C650956 
 217      8771
 218 0430 F51884C4 		.ascii	"\365\030\204\304]\373\202\270\314t\261+\032\267\227"
 218      5DFB82B8 
 218      CC74B12B 
 218      1AB797
 219 043f 9F2F1B94 		.ascii	"\237/\033\224\035\246K\025\356b\020\336\310\021l\274"
 219      1DA64B15 
 219      EE6210DE 
 219      C8116CBC 
 220 044f 20383C6D 		.ascii	" 8<m\237\012gF\327=\220\006n\301\215\357\333\213\355"
 220      9F0A6746 
 220      D73D9006 
 220      6EC18DEF 
ARM GAS  C:\Users\Bruger\AppData\Local\Temp\ccqMjbBn.s 			page 17


 220      DB8BED
 221 0462 25DB4BED 		.ascii	"%\333K\355\237m+\332\265\267d\247}\353GE\273\336{k\353"
 221      9F6D2BDA 
 221      B5B764A7 
 221      7DEB4745 
 221      BBDE7B6B 
 222 0477 96A277B7 		.ascii	"\226\242w\267\274\363\361'\333v\177\361\372N\226i/\336"
 222      BCF3F127 
 222      DB767FF1 
 222      FA4E9669 
 222      2FDE
 223 0489 BEE373FB 		.ascii	"\276\343s\373\007\305\245\366\222\222\275\273K\367\374"
 223      07C5A5F6 
 223      9292BDBB 
 223      4BF7FC
 224 0498 0F45762B 		.ascii	"\017Ev+\275"
 224      BD
 225              		.text
 226              		.section	.gnu.lto_.symbol_nodes.24c066fa,"",%progbits
 227 0000 789C55CB 		.ascii	"x\234U\3131\012\302@\020\205\341\2673\233M\262I\300"
 227      310AC240 
 227      1085E1B7 
 227      339B4DB2 
 227      49C0
 228 0012 1B78899C 		.ascii	"\033x\211\234\303+M\212`a!B\300R\202\344\010z\203`\241"
 228      C32B4D8A 
 228      60612142 
 228      C05282E4 
 228      087A8360 
 229 0027 90425B0B 		.ascii	"\220B[\013\213\224\236A\3345)\326i~\276\007\303\000"
 229      8B949E41 
 229      DC3529D6 
 229      697EBE07 
 229      C300
 230 0039 560AD391 		.ascii	"V\012\323\221\022`7\000\"8\264\011\210D\375\231\205"
 230      12603700 
 230      2238B409 
 230      8844FD99 
 230      85
 231 004a 42473116 		.ascii	"BG1\026\002\322\302\177+TK\302\024\211\016ge$\232\214"
 231      02D2C27F 
 231      2B544BC2 
 231      14890E67 
 231      65249A8C 
 232 005e AA724CC5 		.ascii	"\252rL\305\204L$\016\231K\0222\2234\244\025\033\262"
 232      844C240E 
 232      994B1232 
 232      9334A415 
 232      1BB2
 233 0070 902C2023 		.ascii	"\220, #F\367\372(\246\024\343\251dJP\237K\326\371\264"
 233      46F7FA28 
 233      A614E3A9 
 233      644A509F 
 233      4BD6F9B4 
 234 0084 EA0CFDFA 		.ascii	"\352\014\375\372\371k\267\231Zog7\276\026c\363^\262"
 234      F96BB799 
 234      5A6F6737 
ARM GAS  C:\Users\Bruger\AppData\Local\Temp\ccqMjbBn.s 			page 18


 234      BE1663F3 
 234      5EB2
 235 0096 8E51EF5D 		.ascii	"\216Q\357]\315\374g\334\337\365b|\307\333\334\301\267"
 235      CDFC67DC 
 235      DFF5627C 
 235      C7DBDCC1 
 235      B7
 236 00a7 C078F725 		.ascii	"\300x\367%\034\037\276\026\275\373\307\027\202\337V"
 236      1C1FBE16 
 236      BDFBC717 
 236      82DF56
 237 00b6 5A       		.ascii	"Z"
 238              		.text
 239              		.section	.gnu.lto_.refs.24c066fa,"",%progbits
 240 0000 789C6366 		.ascii	"x\234cf``\220d\200\000F&\006fFf\026FV6FV\021FV5&6\006"
 240      60609064 
 240      80004626 
 240      06664666 
 240      16465636 
 241 001d 56660656 		.ascii	"Vf\006V\021\006\000\011z\000\246"
 241      11060009 
 241      7A00A6
 242              		.text
 243              		.section	.gnu.lto_.decls.24c066fa,"",%progbits
 244 0000 789C8D56 		.ascii	"x\234\215VmPTU\030\276g\317\262\300\345\253\262\250"
 244      6D505455 
 244      18BE67CF 
 244      B2C0E5AB 
 244      B2A8
 245 0012 9866042D 		.ascii	"\230f\004-\247\032r\312\246\246~\365\261:\215S\3230"
 245      A71A72CA 
 245      A6A67EF5 
 245      B13A8D53 
 245      D330
 246 0024 20BF6A86 		.ascii	" \277j\206A\274\031\023_\301\342\304\257\216\200\205"
 246      41BC1913 
 246      5FC1E2C4 
 246      AF8E8085 
 247 0034 584664BA 		.ascii	"XFd\272P\331\032(\246\211X\202|l\262+\246k\210\022 "
 247      50D91A28 
 247      A6895882 
 247      7C6CB22B 
 247      A66B8812 
 248 0049 0AA42C10 		.ascii	"\012\244,\020\202`\272\362\325\302\232\333{\316=w\367"
 248      8260BAF2 
 248      D5C29ADB 
 248      7BCE3D77 
 248      F7
 249 005a DE62C7EE 		.ascii	"\336b\307\356\314\273{\317\335\347}\316\363>\3579\347"
 249      CCBB7BCF 
 249      DDE77DCE 
 249      F33EEF39 
 249      E7
 250 006b 2E160421 		.ascii	".\026\004!^'\010^\270\202\302\004a9\334\033\340Y\002"
 250      5E27085E 
 250      B882C204 
 250      6139DC1B 
ARM GAS  C:\Users\Bruger\AppData\Local\Temp\ccqMjbBn.s 			page 19


 250      E05902
 251 007e 04DC0AB5 		.ascii	"\004\334\012\265\020\365\202|\205C4B4CX!\216C\330 \034"
 251      10F5827C 
 251      85433442 
 251      34435821 
 251      8E43D820 
 252 0093 10BF429C 		.ascii	"\020\277B\234\205\350\204\350\201\350\205\350\347\034"
 252      85E884E8 
 252      81E885E8 
 252      E71C
 253 00a1 9721C605 		.ascii	"\227!\306\005\355Ey0\237\347\032\304)\376\\\307\177"
 253      ED457930 
 253      9FE71AC4 
 253      29FE5CC7 
 253      7F
 254 00b2 7308FFBD 		.ascii	"s\010\377\275\350\274\210\347\010\374\276y\021\034\325"
 254      E8BC88E7 
 254      08FCBE79 
 254      111CD5
 255 00c1 A6D4100D 		.ascii	"\246\324\020\0151\0011\0001\011\321\3001\230\343\316"
 255      31013100 
 255      3109D1C0 
 255      3198E3CE 
 256 00d1 72ED88EB 		.ascii	"r\355\210\353T_\264\276\3738\317I\316\365\247J\357\024"
 256      545FB4BE 
 256      FB38CF49 
 256      CEF5A74A 
 256      EF14
 257 00e3 840B621A 		.ascii	"\204\013b\032\342*\304\214 \373\325\0051\013q\016b\001"
 257      E22AC48C 
 257      20FBD505 
 257      310B710E 
 257      6201
 258 00f5 C20D11C7 		.ascii	"\302\015\021\307k\033\206\030\202\010\342\374\275\334"
 258      6B1B8618 
 258      8208E2FC 
 258      BDDC
 259 0103 AF4E5E33 		.ascii	"\257N^3Z\304+\033\237[\255C\321\240\314\255\236G\321"
 259      5AC42B1B 
 259      9F5BAD43 
 259      D1A0CCAD 
 259      9E47D1
 260 0116 A5D6E311 		.ascii	"\245\326\343\021\344>^R\371\240hT\3532\360\371\024]"
 260      E43E5E52 
 260      F9A06854 
 260      EB32F0F9 
 260      145D
 261 0128 FDDCA7CE 		.ascii	"\375\334\247\316\000\332n\351P\373\260{:|\\\207\"\305"
 261      00DA6EE9 
 261      50FBB07B 
 261      3A7C5C87 
 261      22C5
 262 013a 7BE8B0F2 		.ascii	"{\350\260\362\342\350\014\206a\270\250\243\303o\246"
 262      E2E80C86 
 262      61B8A8A3 
 262      C36FA6
 263 0149 6E5843B1 		.ascii	"nXC\261\016\321\373*\363P\217\030\177\200\020RBl\016"
ARM GAS  C:\Users\Bruger\AppData\Local\Temp\ccqMjbBn.s 			page 20


 263      0ED1FB2A 
 263      F3508F18 
 263      7F801052 
 263      426C0E
 264 015c E4A7D8BC 		.ascii	"\344\247\330\274\257\345\223`\310\211\025\331p\327\244"
 264      AFE59360 
 264      C88915D9 
 264      70D7A4
 265 016b FB68081B 		.ascii	"\373h\010\033z\275\030\036\350<#\2655\006\264B\254\206"
 265      7ABD181E 
 265      E83C23B5 
 265      3506B442 
 265      AC86
 266 017d 54D7FEA9 		.ascii	"T\327\376\251\356G\010\321\243Z$\242\357\021F\007P<"
 266      EE4708D1 
 266      A35A24A2 
 266      EF114607 
 266      503C
 267 018f 154773E9 		.ascii	"\025Gs\351UBH!!E$h\177\244\200jP\014\332\217b\004t\010"
 267      55424821 
 267      21452468 
 267      7FA4806A 
 267      500CDA8F 
 268 01a7 AD0004C3 		.ascii	"\255\000\004\303\242\203\360\360\007\372\020\030`\266"
 268      A283F0F0 
 268      07FA1018 
 268      60B6
 269 01b5 A6DA998E 		.ascii	"\246\332\231\2160\246?\226N\336\\\3560\033\230~=\035"
 269      30A63F96 
 269      4EDE5CEE 
 269      301B987E 
 269      3D1D
 270 01c7 0E5DBA68 		.ascii	"\016]\272h\015\306\253\220Zf\234,s\360\253\371\352P"
 270      0DC6AB90 
 270      5A669C2C 
 270      73F0ABF9 
 270      EA50
 271 01d9 36A4BB27 		.ascii	"6\244\273'\212\012m9Q\376\233\310\205Z\026B\021\252"
 271      8A0A6D39 
 271      51FE9BC8 
 271      855A1642 
 271      11AA
 272 01eb 079147FC 		.ascii	"\007\221G\374\"\343\324\"\313\212H\250\003D\036\006"
 272      22E3D422 
 272      CB8A48A8 
 272      03441E06 
 273 01fb 3D7554CF 		.ascii	"=uT\317Q\020\031\307E\376\010\017\177\242\017\353\231"
 273      511019C7 
 273      45FE080F 
 273      7FA20FEB 
 273      99
 274 020c C816CF70 		.ascii	"\310\026\317p\217\376\301/\201\226\246\335\243G\011"
 274      8FFEC12F 
 274      8196A6DD 
 274      A34709
 275 021b D1BE3C01 		.ascii	"\321\276<\0015\240\007\341\363-\275\354fK\177Oq\010"
 275      35A007E1 
ARM GAS  C:\Users\Bruger\AppData\Local\Temp\ccqMjbBn.s 			page 21


 275      F32DBDEC 
 275      664B7F4F 
 275      7108
 276 022d 7E91491E 		.ascii	"~\221I\036\250n\350\216\212\335M,u.\363H\257\256\202"
 276      A86EE88E 
 276      8ADD4D2C 
 276      752EF348 
 276      AFAE82
 277 0240 580AC91D 		.ascii	"X\012\311\035\257\027\261\034t\314\247L\240\367L\032"
 277      AF17B11C 
 277      74CCA74C 
 277      A0F74C1A 
 278 0250 6A44B190 		.ascii	"jD\261\220h?\\a\017\306\231\214\344\312w\333?1\000I"
 278      683F5C61 
 278      0FC6998C 
 278      E4CA77DB 
 278      3F310049 
 279 0264 5D9DD3DC 		.ascii	"]\235\323\334&\331\212\311m\332\027\306\320\244bhR\030"
 279      26D98AC9 
 279      6DDA17C6 
 279      D0A46268 
 279      5218
 280 0276 9A19C3A4 		.ascii	"\232\031\303\244\353\330M\003&\210Q\214m\363\334\017"
 280      EBD84D03 
 280      2688518C 
 280      6DF3DC0F 
 281 0286 0CCE3A4B 		.ascii	"\014\316:Kc\225\301Al^\357K,\277E\225\337\242\344[Y"
 281      6395C141 
 281      6C5EEF4B 
 281      2CBF4595 
 281      DFA2E45B 
 282 029b BEBBABD2 		.ascii	"\276\273\253\322&\342\235r~\365\356\261\277\365\254"
 282      26E29D72 
 282      7EF5EEB1 
 282      BFF5AC
 283 02aa 0E8B4743 		.ascii	"\016\213GC\360\263\212\340g\205\3408# e\347\317\350"
 283      F0B38AE0 
 283      6785E038 
 283      232065E7 
 283      CFE8
 284 02bc F13E99E0 		.ascii	"\361>\231\340\246\243\321\036&\023\264\327\250\011Z"
 284      A6A3D11E 
 284      2613B4D7 
 284      A8095A
 285 02cb 5504AD0A 		.ascii	"U\004\255\012\201\215\021\364\266~\374q\010\256G\232"
 285      818D11F4 
 285      B67EFC71 
 285      08AE479A 
 286 02db E647CBCD 		.ascii	"\346G\313\315\337\336^i\307l\350\245?\353\372\372v\314"
 286      DFDE5E69 
 286      C76CE8A5 
 286      3FEBFAFA 
 286      76CC
 287 02ed 6324AE60 		.ascii	"c$\256`\235u\225\023\374\220\200\342c\320\023\320\301"
 287      9D759513 
 287      FC9080E2 
 287      63D013D0 
ARM GAS  C:\Users\Bruger\AppData\Local\Temp\ccqMjbBn.s 			page 22


 287      C1
 288 02fe 5FA0ADD1 		.ascii	"_\240\255\321\274\255'\240gm\3203y%\273\344\225|\022"
 288      BCAD27A0 
 288      676DD033 
 288      7925BBE4 
 288      957C12
 289 0311 1689DDBF 		.ascii	"\026\211\335\277H\242E\337\306\330Z\\\207\325]\247H"
 289      48A245DF 
 289      C6D85A5C 
 289      87D55DA7 
 289      48
 290 0322 7FDB4F69 		.ascii	"\177\333Oi\332>\261\337\001\016\266\310j\013g\233\232"
 290      DA3EB1DF 
 290      010EB6C8 
 290      6A0B679B 
 290      9A
 291 0333 68CB9CC4 		.ascii	"h\313\234\304uh\2547\274\202\354Q\372\016I\350\264\252"
 291      7568AC37 
 291      BC82EC51 
 291      FA0E49E8 
 291      B4AA
 292 0345 E6D34ACD 		.ascii	"\346\323J\315\016V\363\355\252\235\036\003^\220Y\026"
 292      0E56F3ED 
 292      AA9D1E03 
 292      5E905916 
 293 0355 EA5B8723 		.ascii	"\352[\207#e\226\335[[\237Q\261P\347\316\250X\316(,\277"
 293      6596DD5B 
 293      5B9F51B1 
 293      50E7CEA8 
 293      58CE282C 
 294 036a 32963BCE 		.ascii	"2\226;\316\362\317\365\370\250\274\355?m\363\364D0\026"
 294      F2CFF5F8 
 294      A8BCED3F 
 294      6DF3F444 
 294      3016
 295 037c 8B67EF47 		.ascii	"\213g\357G\261*\357\333U\014\355\012\303Y\306P\266\305"
 295      B12AEFDB 
 295      550CED0A 
 295      C359C650 
 295      B6C5
 296 038e 5EA6D7C3 		.ascii	"^\246\327\303\321\304j~\213\355\305Y\357\320^]\300M"
 296      D1C46A7E 
 296      8BEDC559 
 296      EFD05E5D 
 296      C04D
 297 03a0 708EB9D1 		.ascii	"p\216\271\321\201\270\035\327\017\035\251\013\303\247"
 297      81B81DD7 
 297      0F1DA90B 
 297      C3A7
 298 03ae F8C95366 		.ascii	"\370\311Sf\035\220\355\250\263N~\250\252\003\222\320"
 298      1D90EDA8 
 298      B34E7EA8 
 298      AA0392D0 
 299 03be 79958AF3 		.ascii	"y\225\212\363\212\212N\246\302Z=q#\214\251\250\365\251"
 299      8A8A4EA6 
 299      C25A3D71 
 299      238CA9A8 
ARM GAS  C:\Users\Bruger\AppData\Local\Temp\ccqMjbBn.s 			page 23


 299      F5A9
 300 03d0 18AC9F3B 		.ascii	"\030\254\237;&\006T\321\305T\374\246\250\370b\310Y\031"
 300      260654D1 
 300      C554FCA6 
 300      A8F862C8 
 300      5919
 301 03e2 846FCB2A 		.ascii	"\204o\313*\266\315]\231F\262\021\356*\237\021\220\201"
 301      B6CD5D99 
 301      46B211EE 
 301      2A9F1190 
 301      81
 302 03f3 BA5512BA 		.ascii	"\272U\022\272\025\011=L\302\371\211\271\012\021\177"
 302      15093D4C 
 302      C2F989B9 
 302      0A117F
 303 0402 8419C3E0 		.ascii	"\204\031\303\340\301\275\031\214\300ygD:\241lD\332\322"
 303      C1BD198C 
 303      C0796744 
 303      3AA16C44 
 303      DAD2
 304 0414 0B2A860B 		.ascii	"\013*\206\013\012C/c\250\254\350#\210\025Q\357+b\274"
 304      0A432F63 
 304      A8ACE823 
 304      881551EF 
 304      2B62BC
 305 0427 D3FA54C0 		.ascii	"\323\372T\300\032.\261\032.*5\364o_\350\020\3617\262"
 305      1A2EB11A 
 305      2E2A35F4 
 305      6F5FE810 
 305      F137B2
 306 043a 82C206EB 		.ascii	"\202\302\006\353\026\275,a\241\315/\001RP\237JB\237"
 306      16BD2C61 
 306      A1CD2F01 
 306      52509F4A 
 306      429F
 307 044c 22A19F49 		.ascii	"\"\241\237I\250\237+m\212\020K\350\271|\367\275AO\234"
 307      A89F2B6D 
 307      8A104BE8 
 307      B97CF7BD 
 307      414F9C
 308 045f B63D43C1 		.ascii	"\266=C\301\370\240<%9Y\325\206\227\357!\325E\256\255"
 308      F8A03C25 
 308      3959D586 
 308      97EF21D5 
 308      45AEAD
 309 0472 8727230E 		.ascii	"\207'#\016\327\222\023\233\213\311\235\227\274\030\015"
 309      D792139B 
 309      8BC99D97 
 309      BC180D
 310 0481 4041BFCB 		.ascii	"@A\277\313\323rF\201\216\331\314\227\321rH\376}\352"
 310      D3724681 
 310      8ED9CC97 
 310      D17248FE 
 310      7DEA
 311 0493 6A261E91 		.ascii	"j&\036\221\211Zk\273\315!x^\036\214\315_\253\211\300"
 311      895A6BBB 
 311      CD21785E 
ARM GAS  C:\Users\Bruger\AppData\Local\Temp\ccqMjbBn.s 			page 24


 311      1E8CCD5F 
 311      AB89C0
 312 04a6 5BF474A0 		.ascii	"[\364t\240\377\276\271ag(Z\266l\311\012\013\354_\347"
 312      FFBEB961 
 312      67285AB6 
 312      6CC90A0B 
 312      EC5FE7
 313 04b9 EDD15361 		.ascii	"\355\321Sa\304\3744[zN\240\037AK\024\301\217\323)\342"
 313      C4FC345B 
 313      7A4EA01F 
 313      414B14C1 
 313      8FD329E2 
 314 04cd E143A048 		.ascii	"\341C\240H\213g4\210\343\006\027\301=Iq\2373\227-\344"
 314      8B673488 
 314      E30617C1 
 314      3D49719F 
 314      33972DE4 
 315 04e1 E5F7FDEF 		.ascii	"\345\367\375\357#\201A\251\352?\300\200a\264\014\015"
 315      238141A9 
 315      EA3FC080 
 315      61B40C0D 
 316 04f1 A165CC30 		.ascii	"\241e\3140z08\347\367\032\340\334\004\210\240\030\252"
 316      7A3038E7 
 316      F71AE0DC 
 316      0488A018 
 316      AA
 317 0502 9C08BA81 		.ascii	"\234\010\272\201\216\312]\360\206Y\302p%\033C\320U "
 317      8ECA5DF0 
 317      8659C270 
 317      251B43D0 
 317      5520
 318 0514 BAE23F3C 		.ascii	"\272\342?<h\022\273\026\233\026\215\302l\201f\006Oj"
 318      6812BB16 
 318      9B168DC2 
 318      6C816606 
 318      4F6A
 319 0526 466F1E13 		.ascii	"Fo\036\023q)\363\004]\334u\340\244\010\266\023\213\313"
 319      7129F304 
 319      5DDC75E0 
 319      A408B613 
 319      8BCB
 320 0538 5CD4B574 		.ascii	"\\\324\265t3}u\020\272`\331\224c\334u\177Ec\334\367"
 320      337D7510 
 320      BA60D994 
 320      63DC757F 
 320      4563DCF7 
 321 054c 71E6BB7B 		.ascii	"q\346\273{\317\320\325\250\360R\377{\216\255R\377\032"
 321      CFD0D5A8 
 321      F052FF7B 
 321      8EAD52FF 
 321      1A
 322 055d BB86C219 		.ascii	"\273\206\302\031\032\276\001\3357s\375\353p\015z@s\322"
 322      1ABE01DD 
 322      3773FDEB 
 322      700D7A40 
 322      73D2
 323 056f 4D70F404 		.ascii	"Mp\364\004C_1\333J\365\032t\203\206{\022\205+vL\322"
ARM GAS  C:\Users\Bruger\AppData\Local\Temp\ccqMjbBn.s 			page 25


 323      435F31DB 
 323      4AF51A74 
 323      83867B12 
 323      852B764C 
 324 0584 046CAFB1 		.ascii	"\004l\257\261\367\213(F\2141\303?\017\367R\364'\022"
 324      F78B2846 
 324      8C31C33F 
 324      0FF752F4 
 324      2712
 325 0596 E92B188E 		.ascii	"\351+\030\216\340B\202\315\221\202o\355\320\037\004"
 325      E04282CD 
 325      91826FED 
 325      D01F04
 326 05a5 740398AE 		.ascii	"t\003\230\256\003\023E\333\306\275\336\017\275\362\365"
 326      031345DB 
 326      C6BDDE0F 
 326      BDF2F5
 327 05b4 593003D0 		.ascii	"Y0\003\320\017\272,wm\253\016\301\025\314,]\317\271"
 327      0FBA2C77 
 327      6DAB0EC1 
 327      15CC2C5D 
 327      CFB9
 328 05c6 D2DE50F9 		.ascii	"\322\336P\371\370\377\367\022\277\025\360\370\3371\370"
 328      F8FFF712 
 328      BF15F0F8 
 328      DF31F8
 329 05d5 283DFE5D 		.ascii	"(=\376]P\352M\177\007\007\220\352\374\037\256\354\320"
 329      50EA4D7F 
 329      070790EA 
 329      FC1FAEEC 
 329      D0
 330 05e6 FAE2D2F8 		.ascii	"\372\342\322\3702\305}\231b\276\024\235&+5`\332(?x\232"
 330      32C57D99 
 330      62BE149D 
 330      262B3560 
 330      DA283F78 
 331 05fb 83A719B8 		.ascii	"\203\247\031\270\277\331~9B\203\356\322\2308\303\321"
 331      BFD97E39 
 331      4283EED2 
 331      9838C3D1 
 332 060b 330C5D56 		.ascii	"3\014]V\376\325\361P\015\372\234\006=\313\321\263\014"
 332      FED5F150 
 332      0DFA9C06 
 332      3DCBD1B3 
 332      0C
 333 061c 5D52DE30 		.ascii	"]R\3360\031\204w\313\353\250\353\313[\337\206\310{\377"
 333      198477CB 
 333      EBA8EBCB 
 333      5BDF86C8 
 333      7BFF
 334 062e 7FFDE301 		.ascii	"\177\375\343\0017\267\271\307oE*n\376'i~\221$\366\207"
 334      37B7B9C7 
 334      6F452A6E 
 334      FE27697E 
 334      9124F687 
 335 0642 EB6C1442 		.ascii	"\353l\024Bn\360g\316o\346_*3\033\317\034\031\326ijp"
 335      6EF067CE 
ARM GAS  C:\Users\Bruger\AppData\Local\Temp\ccqMjbBn.s 			page 26


 335      6FE65F2A 
 335      331BCF1C 
 335      19D6696A 
 336 0657 6BCC5CE0 		.ascii	"k\314\\\3405,\260\032\254Em\305a\032\364%M\305\036\216"
 336      352CB01A 
 336      AC456DC5 
 336      611AF425 
 336      4DC51E8E 
 337 066b A6DF86FC 		.ascii	"\246\337\206\374\364,\3233\317\033^{39\326(\304\275"
 337      F42CD333 
 337      CF1B5E7B 
 337      3339D628 
 337      C4BD
 338 067d 266549B9 		.ascii	"&eI\271\251&iCJRv~n\232\364vBR\266\361\271\267\323\012"
 338      A9266943 
 338      4A52767E 
 338      6E9AF476 
 338      4252B6F1 
 339 0695 4C053952 		.ascii	"L\0059R\336\312we\374\263\253\"\223\223^M~%q]\312\352"
 339      DECA7765 
 339      FCB3AB22 
 339      93935E4D 
 339      7E25715D 
 340 06ab 8494B549 		.ascii	"\204\224\265I\211\217\006\310SP9\231+\323\204\373\224"
 340      898F06C8 
 340      53503999 
 340      2BD384FB 
 340      94
 341 06bc 5152EA26 		.ascii	"QR\352&\311\230\235\365N\372\306\007\224G\211R\236)"
 341      C9989DF5 
 341      4EFAC607 
 341      94478952 
 341      9E29
 342 06ce 3B973F8D 		.ascii	";\227?\215\362\001\363\363r\244\254\015\221*T~\246\024"
 342      F201F3F3 
 342      72A4AC0D 
 342      912A547E 
 342      A614
 343 06e0 4425BCF0 		.ascii	"D%\274\360\260OAN\2121CJ\315]\233e\222rs\363sLw\023"
 343      B04F414E 
 343      8A31434A 
 343      CD5D9B65 
 343      927273F3 
 344 06f8 B33A07EA 		.ascii	"\263:\007\352X\242\214\326\344$\231\000\2736+\335\364"
 344      58A28CD6 
 344      E4249900 
 344      BB362BDD 
 344      F4
 345 0709 D8DDAAD8 		.ascii	"\330\335\252\330d\202\314{\225\241,6Q\332\370\200\261"
 345      6482CC7B 
 345      95A12C36 
 345      51DAF880 
 345      B1
 346 071a 60CD07E9 		.ascii	"`\315\007\351&cn\272)=-5#IJ3\245gg-\015\300f,x#}=\360"
 346      26636EBA 
 346      293D2D35 
 346      23494A33 
ARM GAS  C:\Users\Bruger\AppData\Local\Temp\ccqMjbBn.s 			page 27


 346      A567672D 
 347 0737 841A0B56 		.ascii	"\204\032\013VK\031\251\005\311y\321\220O\305\377\213"
 347      4B19A905 
 347      C979D190 
 347      4FC5FF8B 
 348 0747 2082038C 		.ascii	" \202\003\214\005i\031R\236\317\25246m>0\003&P\3038"
 348      05691952 
 348      9ECFAA34 
 348      366D3E30 
 348      032650C3 
 349 075c 18A6F1E5 		.ascii	"\030\246\361\345\275\372\212\361\365\344\204\224\244"
 349      BDFA8AF1 
 349      F5E48494 
 349      A4
 350 0769 7589C9C6 		.ascii	"u\211\311\306uaRV\352\372\014\211\225\256\317\314\336"
 350      75615256 
 350      EAFA0C89 
 350      95AECFCC 
 350      DE
 351 077a 20F93C5E 		.ascii	" \371<^\237\232\366^~\216>W\332\370B\020|<\273\352\037"
 351      9F9AF65E 
 351      7E8E3E57 
 351      DAF84210 
 351      7C3CBBEA 
 352 078f 8A286928 		.ascii	"\212(i("
 353              		.text
 354              		.section	.gnu.lto_.symtab.24c066fa,"",%progbits
 355 0000 55534255 		.ascii	"USBUART_DP_ISR\000\000\000\000\000\000\000\000\000\000"
 355      4152545F 
 355      44505F49 
 355      53520000 
 355      00000000 
 356 0018 0000B800 		.ascii	"\000\000\270\000\000\000USBUART_SaveConfig\000\000\000"
 356      00005553 
 356      42554152 
 356      545F5361 
 356      7665436F 
 357 0033 00000000 		.ascii	"\000\000\000\000\000\000\000\000\000\272\000\000\000"
 357      00000000 
 357      00BA0000 
 357      00
 358 0040 55534255 		.ascii	"USBUART_RestoreConfig\000\000\000\000\000\000\000\000"
 358      4152545F 
 358      52657374 
 358      6F726543 
 358      6F6E6669 
 359 005d 00000000 		.ascii	"\000\000\000\000\274\000\000\000USBUART_Suspend\000"
 359      BC000000 
 359      55534255 
 359      4152545F 
 359      53757370 
 360 0075 00000000 		.ascii	"\000\000\000\000\000\000\000\000\000\000\000\276\000"
 360      00000000 
 360      000000BE 
 360      00
 361 0082 00005553 		.ascii	"\000\000USBUART_Resume\000\000\000\000\000\000\000\000"
 361      42554152 
ARM GAS  C:\Users\Bruger\AppData\Local\Temp\ccqMjbBn.s 			page 28


 361      545F5265 
 361      73756D65 
 361      00000000 
 362 009a 00000000 		.ascii	"\000\000\000\000\300\000\000\000USBUART_configurati"
 362      C0000000 
 362      55534255 
 362      4152545F 
 362      636F6E66 
 363 00b5 6F6E0000 		.ascii	"on\000\000\002\000\000\000\000\000\000\000\000\000\335"
 363      02000000 
 363      00000000 
 363      0000DD
 364 00c4 00000055 		.ascii	"\000\000\000USBUART_Dp_ClearInterrupt\000\000\002\000"
 364      53425541 
 364      52545F44 
 364      705F436C 
 364      65617249 
 365 00e4 00000000 		.ascii	"\000\000\000\000\000\000\000\000\310\000\000\000USB"
 365      00000000 
 365      C8000000 
 365      555342
 366 00f3 55415254 		.ascii	"UART_EpStateInit\000\000\002\000\000\000\000\000\000"
 366      5F457053 
 366      74617465 
 366      496E6974 
 366      00000200 
 367 010c 000000CA 		.ascii	"\000\000\000\312\000\000\000USBUART_ConfigReg\000\000"
 367      00000055 
 367      53425541 
 367      52545F43 
 367      6F6E6669 
 368 0126 02000000 		.ascii	"\002\000\000\000\000\000\000\000\000\000\314\000\000"
 368      00000000 
 368      0000CC00 
 368      00
 369 0133 00437945 		.ascii	"\000CyExitCriticalSection\000\000\002\000\000\000\000"
 369      78697443 
 369      72697469 
 369      63616C53 
 369      65637469 
 370 0150 00000000 		.ascii	"\000\000\000\000\000\320\000\000\000CyDelayUs\000\000"
 370      00D00000 
 370      00437944 
 370      656C6179 
 370      55730000 
 371 0164 02000000 		.ascii	"\002\000\000\000\000\000\000\000\000\000\324\000\000"
 371      00000000 
 371      0000D400 
 371      00
 372 0171 00437945 		.ascii	"\000CyEnterCriticalSection\000\000\002\000\000\000\000"
 372      6E746572 
 372      43726974 
 372      6963616C 
 372      53656374 
 373 018f 00000000 		.ascii	"\000\000\000\000\000\326\000\000\000CyDelayCycles\000"
 373      00D60000 
 373      00437944 
ARM GAS  C:\Users\Bruger\AppData\Local\Temp\ccqMjbBn.s 			page 29


 373      656C6179 
 373      4379636C 
 374 01a6 00020000 		.ascii	"\000\002\000\000\000\000\000\000\000\000\000\332\000"
 374      00000000 
 374      000000DA 
 374      00
 375 01b3 0000     		.ascii	"\000\000"
 376              		.text
 377              		.section	.gnu.lto_.opts,"",%progbits
 378 0000 272D666E 		.ascii	"'-fno-trapv' '-mcpu=cortex-m3' '-mthumb' '-g' '-O3'"
 378      6F2D7472 
 378      61707627 
 378      20272D6D 
 378      6370753D 
 379 0033 20272D66 		.ascii	" '-ffunction-sections' '-finline-functions' '-flto'"
 379      66756E63 
 379      74696F6E 
 379      2D736563 
 379      74696F6E 
 380 0066 20272D66 		.ascii	" '-ffat-lto-objects'\000"
 380      6661742D 
 380      6C746F2D 
 380      6F626A65 
 380      63747327 
 381              		.text
 382              		.cfi_sections	.debug_frame
 383              		.section	.text.USBUART_DP_ISR,"ax",%progbits
 384              		.align	2
 385              		.global	USBUART_DP_ISR
 386              		.thumb
 387              		.thumb_func
 388              		.type	USBUART_DP_ISR, %function
 389              	USBUART_DP_ISR:
 390              	.LFB0:
 391              		.file 1 "Generated_Source\\PSoC5\\USBUART_pm.c"
   1:Generated_Source\PSoC5/USBUART_pm.c **** /***************************************************************************//**
   2:Generated_Source\PSoC5/USBUART_pm.c **** * \file USBUART_pm.c
   3:Generated_Source\PSoC5/USBUART_pm.c **** * \version 3.0
   4:Generated_Source\PSoC5/USBUART_pm.c **** *
   5:Generated_Source\PSoC5/USBUART_pm.c **** * \brief
   6:Generated_Source\PSoC5/USBUART_pm.c **** *  This file provides Suspend/Resume APIs implementation.
   7:Generated_Source\PSoC5/USBUART_pm.c **** *
   8:Generated_Source\PSoC5/USBUART_pm.c **** ********************************************************************************
   9:Generated_Source\PSoC5/USBUART_pm.c **** * \copyright
  10:Generated_Source\PSoC5/USBUART_pm.c **** * Copyright 2008-2015, Cypress Semiconductor Corporation.  All rights reserved.
  11:Generated_Source\PSoC5/USBUART_pm.c **** * You may use this file only in accordance with the license, terms, conditions,
  12:Generated_Source\PSoC5/USBUART_pm.c **** * disclaimers, and limitations in the end user license agreement accompanying
  13:Generated_Source\PSoC5/USBUART_pm.c **** * the software package with which this file was provided.
  14:Generated_Source\PSoC5/USBUART_pm.c **** *******************************************************************************/
  15:Generated_Source\PSoC5/USBUART_pm.c **** 
  16:Generated_Source\PSoC5/USBUART_pm.c **** #include "USBUART_pvt.h"
  17:Generated_Source\PSoC5/USBUART_pm.c **** #include "USBUART_Dp.h"
  18:Generated_Source\PSoC5/USBUART_pm.c **** 
  19:Generated_Source\PSoC5/USBUART_pm.c **** 
  20:Generated_Source\PSoC5/USBUART_pm.c **** /***************************************
  21:Generated_Source\PSoC5/USBUART_pm.c **** * Custom Declarations
  22:Generated_Source\PSoC5/USBUART_pm.c **** ***************************************/
ARM GAS  C:\Users\Bruger\AppData\Local\Temp\ccqMjbBn.s 			page 30


  23:Generated_Source\PSoC5/USBUART_pm.c **** /* `#START PM_CUSTOM_DECLARATIONS` Place your declaration here */
  24:Generated_Source\PSoC5/USBUART_pm.c **** 
  25:Generated_Source\PSoC5/USBUART_pm.c **** /* `#END` */
  26:Generated_Source\PSoC5/USBUART_pm.c **** 
  27:Generated_Source\PSoC5/USBUART_pm.c **** 
  28:Generated_Source\PSoC5/USBUART_pm.c **** /***************************************
  29:Generated_Source\PSoC5/USBUART_pm.c **** * Local data allocation
  30:Generated_Source\PSoC5/USBUART_pm.c **** ***************************************/
  31:Generated_Source\PSoC5/USBUART_pm.c **** 
  32:Generated_Source\PSoC5/USBUART_pm.c **** static USBUART_BACKUP_STRUCT  USBUART_backup;
  33:Generated_Source\PSoC5/USBUART_pm.c **** 
  34:Generated_Source\PSoC5/USBUART_pm.c **** #if (USBUART_DP_ISR_ACTIVE)
  35:Generated_Source\PSoC5/USBUART_pm.c ****     /*******************************************************************************
  36:Generated_Source\PSoC5/USBUART_pm.c ****     * Function Name: USBUART_DP_ISR
  37:Generated_Source\PSoC5/USBUART_pm.c ****     ****************************************************************************//**
  38:Generated_Source\PSoC5/USBUART_pm.c ****     *
  39:Generated_Source\PSoC5/USBUART_pm.c ****     *  This Interrupt Service Routine handles DP pin changes for wake-up from
  40:Generated_Source\PSoC5/USBUART_pm.c ****     *  the sleep mode.
  41:Generated_Source\PSoC5/USBUART_pm.c ****     *
  42:Generated_Source\PSoC5/USBUART_pm.c ****     *******************************************************************************/
  43:Generated_Source\PSoC5/USBUART_pm.c ****     CY_ISR(USBUART_DP_ISR)
  44:Generated_Source\PSoC5/USBUART_pm.c ****     {
 392              		.loc 1 44 0
 393              		.cfi_startproc
 394              		@ args = 0, pretend = 0, frame = 0
 395              		@ frame_needed = 0, uses_anonymous_args = 0
 396              		@ link register save eliminated.
  45:Generated_Source\PSoC5/USBUART_pm.c ****     #ifdef USBUART_DP_ISR_ENTRY_CALLBACK
  46:Generated_Source\PSoC5/USBUART_pm.c ****         USBUART_DP_ISR_EntryCallback();
  47:Generated_Source\PSoC5/USBUART_pm.c ****     #endif /* (USBUART_DP_ISR_ENTRY_CALLBACK) */
  48:Generated_Source\PSoC5/USBUART_pm.c **** 
  49:Generated_Source\PSoC5/USBUART_pm.c ****         /* `#START DP_USER_CODE` Place your code here */
  50:Generated_Source\PSoC5/USBUART_pm.c **** 
  51:Generated_Source\PSoC5/USBUART_pm.c ****         /* `#END` */
  52:Generated_Source\PSoC5/USBUART_pm.c **** 
  53:Generated_Source\PSoC5/USBUART_pm.c ****         (void) USBUART_Dp_ClearInterrupt();
 397              		.loc 1 53 0
 398 0000 FFF7FEBF 		b	USBUART_Dp_ClearInterrupt
 399              	.LVL0:
 400              		.cfi_endproc
 401              	.LFE0:
 402              		.size	USBUART_DP_ISR, .-USBUART_DP_ISR
 403              		.section	.text.USBUART_SaveConfig,"ax",%progbits
 404              		.align	2
 405              		.global	USBUART_SaveConfig
 406              		.thumb
 407              		.thumb_func
 408              		.type	USBUART_SaveConfig, %function
 409              	USBUART_SaveConfig:
 410              	.LFB1:
  54:Generated_Source\PSoC5/USBUART_pm.c **** 		
  55:Generated_Source\PSoC5/USBUART_pm.c **** 	#ifdef USBUART_DP_ISR_EXIT_CALLBACK
  56:Generated_Source\PSoC5/USBUART_pm.c ****         USBUART_DP_ISR_ExitCallback();
  57:Generated_Source\PSoC5/USBUART_pm.c ****     #endif /* (USBUART_DP_ISR_EXIT_CALLBACK) */
  58:Generated_Source\PSoC5/USBUART_pm.c ****     }
  59:Generated_Source\PSoC5/USBUART_pm.c **** #endif /* (USBUART_DP_ISR_ACTIVE) */
  60:Generated_Source\PSoC5/USBUART_pm.c **** 
ARM GAS  C:\Users\Bruger\AppData\Local\Temp\ccqMjbBn.s 			page 31


  61:Generated_Source\PSoC5/USBUART_pm.c **** 
  62:Generated_Source\PSoC5/USBUART_pm.c **** /*******************************************************************************
  63:Generated_Source\PSoC5/USBUART_pm.c **** * Function Name: USBUART_SaveConfig
  64:Generated_Source\PSoC5/USBUART_pm.c **** ****************************************************************************//**
  65:Generated_Source\PSoC5/USBUART_pm.c **** *
  66:Generated_Source\PSoC5/USBUART_pm.c **** *  Saves the current user configuration.
  67:Generated_Source\PSoC5/USBUART_pm.c **** *
  68:Generated_Source\PSoC5/USBUART_pm.c **** * \reentrant
  69:Generated_Source\PSoC5/USBUART_pm.c **** *  No.
  70:Generated_Source\PSoC5/USBUART_pm.c **** *
  71:Generated_Source\PSoC5/USBUART_pm.c **** *******************************************************************************/
  72:Generated_Source\PSoC5/USBUART_pm.c **** void USBUART_SaveConfig(void) 
  73:Generated_Source\PSoC5/USBUART_pm.c **** {
 411              		.loc 1 73 0
 412              		.cfi_startproc
 413              		@ args = 0, pretend = 0, frame = 0
 414              		@ frame_needed = 0, uses_anonymous_args = 0
 415              		@ link register save eliminated.
 416 0000 7047     		bx	lr
 417              		.cfi_endproc
 418              	.LFE1:
 419              		.size	USBUART_SaveConfig, .-USBUART_SaveConfig
 420 0002 00BF     		.section	.text.USBUART_RestoreConfig,"ax",%progbits
 421              		.align	2
 422              		.global	USBUART_RestoreConfig
 423              		.thumb
 424              		.thumb_func
 425              		.type	USBUART_RestoreConfig, %function
 426              	USBUART_RestoreConfig:
 427              	.LFB2:
  74:Generated_Source\PSoC5/USBUART_pm.c ****     /* Empty function added for the compatibility purpose. */
  75:Generated_Source\PSoC5/USBUART_pm.c **** }
  76:Generated_Source\PSoC5/USBUART_pm.c **** 
  77:Generated_Source\PSoC5/USBUART_pm.c **** 
  78:Generated_Source\PSoC5/USBUART_pm.c **** /*******************************************************************************
  79:Generated_Source\PSoC5/USBUART_pm.c **** * Function Name: USBUART_RestoreConfig
  80:Generated_Source\PSoC5/USBUART_pm.c **** ****************************************************************************//**
  81:Generated_Source\PSoC5/USBUART_pm.c **** *
  82:Generated_Source\PSoC5/USBUART_pm.c **** *  Restores the current user configuration.
  83:Generated_Source\PSoC5/USBUART_pm.c **** *
  84:Generated_Source\PSoC5/USBUART_pm.c **** * \reentrant
  85:Generated_Source\PSoC5/USBUART_pm.c **** *  No.
  86:Generated_Source\PSoC5/USBUART_pm.c **** *
  87:Generated_Source\PSoC5/USBUART_pm.c **** *******************************************************************************/
  88:Generated_Source\PSoC5/USBUART_pm.c **** void USBUART_RestoreConfig(void) 
  89:Generated_Source\PSoC5/USBUART_pm.c **** {
 428              		.loc 1 89 0
 429              		.cfi_startproc
 430              		@ args = 0, pretend = 0, frame = 0
 431              		@ frame_needed = 0, uses_anonymous_args = 0
 432              		.loc 1 89 0
 433 0000 08B5     		push	{r3, lr}
 434              		.cfi_def_cfa_offset 8
 435              		.cfi_offset 3, -8
 436              		.cfi_offset 14, -4
  90:Generated_Source\PSoC5/USBUART_pm.c ****     if (USBUART_configuration != 0u)
 437              		.loc 1 90 0
ARM GAS  C:\Users\Bruger\AppData\Local\Temp\ccqMjbBn.s 			page 32


 438 0002 054B     		ldr	r3, .L8
 439 0004 1B78     		ldrb	r3, [r3]	@ zero_extendqisi2
 440 0006 03B9     		cbnz	r3, .L7
 441 0008 08BD     		pop	{r3, pc}
 442              	.L7:
  91:Generated_Source\PSoC5/USBUART_pm.c ****     {
  92:Generated_Source\PSoC5/USBUART_pm.c ****         USBUART_ConfigReg();
 443              		.loc 1 92 0
 444 000a FFF7FEFF 		bl	USBUART_ConfigReg
 445              	.LVL1:
  93:Generated_Source\PSoC5/USBUART_pm.c ****         USBUART_EpStateInit();
  94:Generated_Source\PSoC5/USBUART_pm.c ****     }
  95:Generated_Source\PSoC5/USBUART_pm.c **** }
 446              		.loc 1 95 0
 447 000e BDE80840 		pop	{r3, lr}
 448              		.cfi_restore 14
 449              		.cfi_restore 3
 450              		.cfi_def_cfa_offset 0
  93:Generated_Source\PSoC5/USBUART_pm.c ****         USBUART_EpStateInit();
 451              		.loc 1 93 0
 452 0012 FFF7FEBF 		b	USBUART_EpStateInit
 453              	.LVL2:
 454              	.L9:
 455 0016 00BF     		.align	2
 456              	.L8:
 457 0018 00000000 		.word	USBUART_configuration
 458              		.cfi_endproc
 459              	.LFE2:
 460              		.size	USBUART_RestoreConfig, .-USBUART_RestoreConfig
 461              		.section	.text.USBUART_Suspend,"ax",%progbits
 462              		.align	2
 463              		.global	USBUART_Suspend
 464              		.thumb
 465              		.thumb_func
 466              		.type	USBUART_Suspend, %function
 467              	USBUART_Suspend:
 468              	.LFB3:
  96:Generated_Source\PSoC5/USBUART_pm.c **** 
  97:Generated_Source\PSoC5/USBUART_pm.c **** 
  98:Generated_Source\PSoC5/USBUART_pm.c **** /*******************************************************************************
  99:Generated_Source\PSoC5/USBUART_pm.c **** * Function Name: USBUART_Suspend
 100:Generated_Source\PSoC5/USBUART_pm.c **** ****************************************************************************//**
 101:Generated_Source\PSoC5/USBUART_pm.c **** *
 102:Generated_Source\PSoC5/USBUART_pm.c **** *  This function prepares the USBFS component to enter low power mode. The 
 103:Generated_Source\PSoC5/USBUART_pm.c **** *  interrupt on falling edge on Dp pin is configured to wakeup device when the 
 104:Generated_Source\PSoC5/USBUART_pm.c **** *  host drives resume condition. The pull-up is enabled on the Dp line while 
 105:Generated_Source\PSoC5/USBUART_pm.c **** *  device is in low power mode. The supported low power modes are Deep Sleep 
 106:Generated_Source\PSoC5/USBUART_pm.c **** *  (PSoC 4200L) and Sleep (PSoC 3/ PSoC 5LP).
 107:Generated_Source\PSoC5/USBUART_pm.c **** *  
 108:Generated_Source\PSoC5/USBUART_pm.c **** *  *Note* For PSoC 4200L devices, this function should not be called before 
 109:Generated_Source\PSoC5/USBUART_pm.c **** *  entering Sleep.
 110:Generated_Source\PSoC5/USBUART_pm.c **** *  
 111:Generated_Source\PSoC5/USBUART_pm.c **** *  *Note* After enter low power mode, the data which is left in the IN or OUT 
 112:Generated_Source\PSoC5/USBUART_pm.c **** *  endpoint buffers is not restored after wakeup and lost. Therefore it should 
 113:Generated_Source\PSoC5/USBUART_pm.c **** *  be stored in the SRAM for OUT endpoint or read by the host for IN endpoint 
 114:Generated_Source\PSoC5/USBUART_pm.c **** *  before enter low power mode.
 115:Generated_Source\PSoC5/USBUART_pm.c **** *
ARM GAS  C:\Users\Bruger\AppData\Local\Temp\ccqMjbBn.s 			page 33


 116:Generated_Source\PSoC5/USBUART_pm.c **** * \globalvars
 117:Generated_Source\PSoC5/USBUART_pm.c **** *  USBUART_backup.enable:  modified.
 118:Generated_Source\PSoC5/USBUART_pm.c **** *
 119:Generated_Source\PSoC5/USBUART_pm.c **** * \reentrant
 120:Generated_Source\PSoC5/USBUART_pm.c **** *  No.
 121:Generated_Source\PSoC5/USBUART_pm.c **** *
 122:Generated_Source\PSoC5/USBUART_pm.c **** *******************************************************************************/
 123:Generated_Source\PSoC5/USBUART_pm.c **** void USBUART_Suspend(void) 
 124:Generated_Source\PSoC5/USBUART_pm.c **** {
 469              		.loc 1 124 0
 470              		.cfi_startproc
 471              		@ args = 0, pretend = 0, frame = 0
 472              		@ frame_needed = 0, uses_anonymous_args = 0
 473 0000 2DE9F041 		push	{r4, r5, r6, r7, r8, lr}
 474              		.cfi_def_cfa_offset 24
 475              		.cfi_offset 4, -24
 476              		.cfi_offset 5, -20
 477              		.cfi_offset 6, -16
 478              		.cfi_offset 7, -12
 479              		.cfi_offset 8, -8
 480              		.cfi_offset 14, -4
 125:Generated_Source\PSoC5/USBUART_pm.c ****     uint8 enableInterrupts;
 126:Generated_Source\PSoC5/USBUART_pm.c **** 
 127:Generated_Source\PSoC5/USBUART_pm.c ****     enableInterrupts = CyEnterCriticalSection();
 481              		.loc 1 127 0
 482 0004 FFF7FEFF 		bl	CyEnterCriticalSection
 483              	.LVL3:
 128:Generated_Source\PSoC5/USBUART_pm.c **** 
 129:Generated_Source\PSoC5/USBUART_pm.c ****     if (0u != (USBUART_CR0_REG & USBUART_CR0_ENABLE))
 484              		.loc 1 129 0
 485 0008 294C     		ldr	r4, .L15
 127:Generated_Source\PSoC5/USBUART_pm.c **** 
 486              		.loc 1 127 0
 487 000a 0546     		mov	r5, r0
 488              	.LVL4:
 489              		.loc 1 129 0
 490 000c 2378     		ldrb	r3, [r4]	@ zero_extendqisi2
 491 000e 1B06     		lsls	r3, r3, #24
 492 0010 0FD4     		bmi	.L14
 130:Generated_Source\PSoC5/USBUART_pm.c ****     {
 131:Generated_Source\PSoC5/USBUART_pm.c ****         /* USB block is enabled. */
 132:Generated_Source\PSoC5/USBUART_pm.c ****         USBUART_backup.enableState = 1u;
 133:Generated_Source\PSoC5/USBUART_pm.c **** 
 134:Generated_Source\PSoC5/USBUART_pm.c ****     #if (USBUART_EP_MANAGEMENT_DMA)
 135:Generated_Source\PSoC5/USBUART_pm.c ****         USBUART_Stop_DMA(USBUART_MAX_EP);
 136:Generated_Source\PSoC5/USBUART_pm.c ****     #endif /* (USBUART_EP_MANAGEMENT_DMA) */
 137:Generated_Source\PSoC5/USBUART_pm.c **** 
 138:Generated_Source\PSoC5/USBUART_pm.c ****     #if (CY_PSOC4)
 139:Generated_Source\PSoC5/USBUART_pm.c ****         /* Suspend enter sequence. */
 140:Generated_Source\PSoC5/USBUART_pm.c ****         USBUART_POWER_CTRL_REG |= (USBUART_POWER_CTRL_SUSPEND |
 141:Generated_Source\PSoC5/USBUART_pm.c ****                                             USBUART_POWER_CTRL_SUSPEND_DEL);
 142:Generated_Source\PSoC5/USBUART_pm.c **** 
 143:Generated_Source\PSoC5/USBUART_pm.c ****         /* Store state of USB regulator and disable it. */
 144:Generated_Source\PSoC5/USBUART_pm.c ****         USBUART_backup.mode = (uint8)  (USBUART_CR1_REG & USBUART_CR1_REG_ENABLE);
 145:Generated_Source\PSoC5/USBUART_pm.c ****         USBUART_CR1_REG    &= (uint32) ~USBUART_CR1_REG_ENABLE;
 146:Generated_Source\PSoC5/USBUART_pm.c ****         
 147:Generated_Source\PSoC5/USBUART_pm.c ****         /* Store SIE interrupt sources. Valid bits are 0 - 4. */
ARM GAS  C:\Users\Bruger\AppData\Local\Temp\ccqMjbBn.s 			page 34


 148:Generated_Source\PSoC5/USBUART_pm.c ****         USBUART_backup.intrSeiMask = (uint8) USBUART_INTR_SIE_MASK_REG;
 149:Generated_Source\PSoC5/USBUART_pm.c **** 
 150:Generated_Source\PSoC5/USBUART_pm.c ****     #else
 151:Generated_Source\PSoC5/USBUART_pm.c ****         /* Ensure USB transmit enable is low (USB_USBIO_CR0.ten). - Manual Transmission - Disabled.
 152:Generated_Source\PSoC5/USBUART_pm.c ****         USBUART_USBIO_CR0_REG &= (uint8) ~USBUART_USBIO_CR0_TEN;
 153:Generated_Source\PSoC5/USBUART_pm.c ****         CyDelayUs(USBUART_WAIT_REG_STABILITY_50NS);  /*~50ns delay. */
 154:Generated_Source\PSoC5/USBUART_pm.c **** 
 155:Generated_Source\PSoC5/USBUART_pm.c ****         /* Disable the USBIO by asserting PM.USB_CR0.fsusbio_pd_n(Inverted) and pd_pullup_hv(Invert
 156:Generated_Source\PSoC5/USBUART_pm.c ****         USBUART_PM_USB_CR0_REG &= (uint8) ~(USBUART_PM_USB_CR0_PD_N |
 157:Generated_Source\PSoC5/USBUART_pm.c ****                                                      USBUART_PM_USB_CR0_PD_PULLUP_N);
 158:Generated_Source\PSoC5/USBUART_pm.c **** 
 159:Generated_Source\PSoC5/USBUART_pm.c ****         /* Disable the SIE. */
 160:Generated_Source\PSoC5/USBUART_pm.c ****         USBUART_CR0_REG &= (uint8) ~USBUART_CR0_ENABLE;
 161:Generated_Source\PSoC5/USBUART_pm.c **** 
 162:Generated_Source\PSoC5/USBUART_pm.c ****         CyDelayUs(USBUART_WAIT_REG_STABILITY_50NS);  /* ~50ns delay. */
 163:Generated_Source\PSoC5/USBUART_pm.c ****         /* Store mode and disable VRegulator. */
 164:Generated_Source\PSoC5/USBUART_pm.c ****         USBUART_backup.mode = (uint8) (USBUART_CR1_REG & USBUART_CR1_REG_ENABLE);
 165:Generated_Source\PSoC5/USBUART_pm.c ****         USBUART_CR1_REG    &= (uint8) ~USBUART_CR1_REG_ENABLE;
 166:Generated_Source\PSoC5/USBUART_pm.c **** 
 167:Generated_Source\PSoC5/USBUART_pm.c ****         CyDelayUs(USBUART_WAIT_REG_STABILITY_1US); /* min 0.5us delay required. */
 168:Generated_Source\PSoC5/USBUART_pm.c **** 
 169:Generated_Source\PSoC5/USBUART_pm.c ****         /* Disable the USBIO reference by setting PM.USB_CR0.fsusbio_ref_en.*/
 170:Generated_Source\PSoC5/USBUART_pm.c ****         USBUART_PM_USB_CR0_REG &= (uint8) ~USBUART_PM_USB_CR0_REF_EN;
 171:Generated_Source\PSoC5/USBUART_pm.c **** 
 172:Generated_Source\PSoC5/USBUART_pm.c ****         /* Switch DP and DM terminals to GPIO mode and disconnect 1.5k pull-up. */
 173:Generated_Source\PSoC5/USBUART_pm.c ****         USBUART_USBIO_CR1_REG |= USBUART_USBIO_CR1_IOMODE;
 174:Generated_Source\PSoC5/USBUART_pm.c **** 
 175:Generated_Source\PSoC5/USBUART_pm.c ****         /* Disable USBFS block. */
 176:Generated_Source\PSoC5/USBUART_pm.c ****         /* Clear power active and standby mode templates: disable USB block. */
 177:Generated_Source\PSoC5/USBUART_pm.c ****         USBUART_PM_ACT_CFG_REG  &= (uint8) ~USBUART_PM_ACT_EN_FSUSB;
 178:Generated_Source\PSoC5/USBUART_pm.c ****         USBUART_PM_STBY_CFG_REG &= (uint8) ~USBUART_PM_STBY_EN_FSUSB;
 179:Generated_Source\PSoC5/USBUART_pm.c **** 
 180:Generated_Source\PSoC5/USBUART_pm.c ****         CyDelayUs(USBUART_WAIT_REG_STABILITY_1US); /* min 0.5us delay required. */
 181:Generated_Source\PSoC5/USBUART_pm.c ****     #endif /* (CY_PSOC4) */
 182:Generated_Source\PSoC5/USBUART_pm.c ****     }
 183:Generated_Source\PSoC5/USBUART_pm.c ****     else
 184:Generated_Source\PSoC5/USBUART_pm.c ****     {
 185:Generated_Source\PSoC5/USBUART_pm.c ****         USBUART_backup.enableState = 0u;
 493              		.loc 1 185 0
 494 0012 284B     		ldr	r3, .L15+4
 495 0014 0022     		movs	r2, #0
 496 0016 1A70     		strb	r2, [r3]
 497              	.L12:
 186:Generated_Source\PSoC5/USBUART_pm.c ****     }
 187:Generated_Source\PSoC5/USBUART_pm.c **** 
 188:Generated_Source\PSoC5/USBUART_pm.c ****     CyExitCriticalSection(enableInterrupts);
 498              		.loc 1 188 0
 499 0018 2846     		mov	r0, r5
 500 001a FFF7FEFF 		bl	CyExitCriticalSection
 501              	.LVL5:
 189:Generated_Source\PSoC5/USBUART_pm.c **** 
 190:Generated_Source\PSoC5/USBUART_pm.c **** #if (USBUART_DP_ISR_ACTIVE)
 191:Generated_Source\PSoC5/USBUART_pm.c ****     /* Clear active mode Dp interrupt source history. */
 192:Generated_Source\PSoC5/USBUART_pm.c ****     (void) USBUART_Dp_ClearInterrupt();
 502              		.loc 1 192 0
 503 001e FFF7FEFF 		bl	USBUART_Dp_ClearInterrupt
 504              	.LVL6:
ARM GAS  C:\Users\Bruger\AppData\Local\Temp\ccqMjbBn.s 			page 35


 193:Generated_Source\PSoC5/USBUART_pm.c ****     CyIntClearPending(USBUART_DP_INTC_VECT_NUM);
 505              		.loc 1 193 0
 506 0022 2549     		ldr	r1, .L15+8
 194:Generated_Source\PSoC5/USBUART_pm.c **** 
 195:Generated_Source\PSoC5/USBUART_pm.c ****     CyIntEnable      (USBUART_DP_INTC_VECT_NUM);
 507              		.loc 1 195 0
 508 0024 254A     		ldr	r2, .L15+12
 193:Generated_Source\PSoC5/USBUART_pm.c ****     CyIntClearPending(USBUART_DP_INTC_VECT_NUM);
 509              		.loc 1 193 0
 510 0026 4FF48053 		mov	r3, #4096
 511 002a 0B60     		str	r3, [r1]
 512              		.loc 1 195 0
 513 002c 1360     		str	r3, [r2]
 514 002e BDE8F081 		pop	{r4, r5, r6, r7, r8, pc}
 515              	.LVL7:
 516              	.L14:
 132:Generated_Source\PSoC5/USBUART_pm.c **** 
 517              		.loc 1 132 0
 518 0032 DFF88080 		ldr	r8, .L15+4
 519 0036 0127     		movs	r7, #1
 152:Generated_Source\PSoC5/USBUART_pm.c ****         CyDelayUs(USBUART_WAIT_REG_STABILITY_50NS);  /*~50ns delay. */
 520              		.loc 1 152 0
 521 0038 214A     		ldr	r2, .L15+16
 132:Generated_Source\PSoC5/USBUART_pm.c **** 
 522              		.loc 1 132 0
 523 003a 88F80070 		strb	r7, [r8]
 152:Generated_Source\PSoC5/USBUART_pm.c ****         CyDelayUs(USBUART_WAIT_REG_STABILITY_50NS);  /*~50ns delay. */
 524              		.loc 1 152 0
 525 003e 1378     		ldrb	r3, [r2]	@ zero_extendqisi2
 156:Generated_Source\PSoC5/USBUART_pm.c ****                                                      USBUART_PM_USB_CR0_PD_PULLUP_N);
 526              		.loc 1 156 0
 527 0040 204E     		ldr	r6, .L15+20
 152:Generated_Source\PSoC5/USBUART_pm.c ****         CyDelayUs(USBUART_WAIT_REG_STABILITY_50NS);  /*~50ns delay. */
 528              		.loc 1 152 0
 529 0042 03F07F03 		and	r3, r3, #127
 530 0046 1370     		strb	r3, [r2]
 153:Generated_Source\PSoC5/USBUART_pm.c **** 
 531              		.loc 1 153 0
 532 0048 0020     		movs	r0, #0
 533 004a FFF7FEFF 		bl	CyDelayUs
 534              	.LVL8:
 156:Generated_Source\PSoC5/USBUART_pm.c ****                                                      USBUART_PM_USB_CR0_PD_PULLUP_N);
 535              		.loc 1 156 0
 536 004e 3378     		ldrb	r3, [r6]	@ zero_extendqisi2
 162:Generated_Source\PSoC5/USBUART_pm.c ****         /* Store mode and disable VRegulator. */
 537              		.loc 1 162 0
 538 0050 0020     		movs	r0, #0
 156:Generated_Source\PSoC5/USBUART_pm.c ****                                                      USBUART_PM_USB_CR0_PD_PULLUP_N);
 539              		.loc 1 156 0
 540 0052 03F0F903 		and	r3, r3, #249
 541 0056 3370     		strb	r3, [r6]
 160:Generated_Source\PSoC5/USBUART_pm.c **** 
 542              		.loc 1 160 0
 543 0058 2378     		ldrb	r3, [r4]	@ zero_extendqisi2
 544 005a 03F07F03 		and	r3, r3, #127
 545 005e 2370     		strb	r3, [r4]
 162:Generated_Source\PSoC5/USBUART_pm.c ****         /* Store mode and disable VRegulator. */
ARM GAS  C:\Users\Bruger\AppData\Local\Temp\ccqMjbBn.s 			page 36


 546              		.loc 1 162 0
 547 0060 FFF7FEFF 		bl	CyDelayUs
 548              	.LVL9:
 164:Generated_Source\PSoC5/USBUART_pm.c ****         USBUART_CR1_REG    &= (uint8) ~USBUART_CR1_REG_ENABLE;
 549              		.loc 1 164 0
 550 0064 184A     		ldr	r2, .L15+24
 167:Generated_Source\PSoC5/USBUART_pm.c **** 
 551              		.loc 1 167 0
 552 0066 3846     		mov	r0, r7
 164:Generated_Source\PSoC5/USBUART_pm.c ****         USBUART_CR1_REG    &= (uint8) ~USBUART_CR1_REG_ENABLE;
 553              		.loc 1 164 0
 554 0068 1378     		ldrb	r3, [r2]	@ zero_extendqisi2
 165:Generated_Source\PSoC5/USBUART_pm.c **** 
 555              		.loc 1 165 0
 556 006a 1178     		ldrb	r1, [r2]	@ zero_extendqisi2
 164:Generated_Source\PSoC5/USBUART_pm.c ****         USBUART_CR1_REG    &= (uint8) ~USBUART_CR1_REG_ENABLE;
 557              		.loc 1 164 0
 558 006c 3B40     		ands	r3, r3, r7
 165:Generated_Source\PSoC5/USBUART_pm.c **** 
 559              		.loc 1 165 0
 560 006e 01F0FE01 		and	r1, r1, #254
 561 0072 1170     		strb	r1, [r2]
 164:Generated_Source\PSoC5/USBUART_pm.c ****         USBUART_CR1_REG    &= (uint8) ~USBUART_CR1_REG_ENABLE;
 562              		.loc 1 164 0
 563 0074 88F80130 		strb	r3, [r8, #1]
 167:Generated_Source\PSoC5/USBUART_pm.c **** 
 564              		.loc 1 167 0
 565 0078 FFF7FEFF 		bl	CyDelayUs
 566              	.LVL10:
 170:Generated_Source\PSoC5/USBUART_pm.c **** 
 567              		.loc 1 170 0
 568 007c 3378     		ldrb	r3, [r6]	@ zero_extendqisi2
 173:Generated_Source\PSoC5/USBUART_pm.c **** 
 569              		.loc 1 173 0
 570 007e 134A     		ldr	r2, .L15+28
 170:Generated_Source\PSoC5/USBUART_pm.c **** 
 571              		.loc 1 170 0
 572 0080 03F0FE03 		and	r3, r3, #254
 573 0084 3370     		strb	r3, [r6]
 173:Generated_Source\PSoC5/USBUART_pm.c **** 
 574              		.loc 1 173 0
 575 0086 1378     		ldrb	r3, [r2]	@ zero_extendqisi2
 177:Generated_Source\PSoC5/USBUART_pm.c ****         USBUART_PM_STBY_CFG_REG &= (uint8) ~USBUART_PM_STBY_EN_FSUSB;
 576              		.loc 1 177 0
 577 0088 1149     		ldr	r1, .L15+32
 173:Generated_Source\PSoC5/USBUART_pm.c **** 
 578              		.loc 1 173 0
 579 008a 43F02003 		orr	r3, r3, #32
 580 008e 1370     		strb	r3, [r2]
 177:Generated_Source\PSoC5/USBUART_pm.c ****         USBUART_PM_STBY_CFG_REG &= (uint8) ~USBUART_PM_STBY_EN_FSUSB;
 581              		.loc 1 177 0
 582 0090 0B78     		ldrb	r3, [r1]	@ zero_extendqisi2
 178:Generated_Source\PSoC5/USBUART_pm.c **** 
 583              		.loc 1 178 0
 584 0092 A2F5E252 		sub	r2, r2, #7232
 177:Generated_Source\PSoC5/USBUART_pm.c ****         USBUART_PM_STBY_CFG_REG &= (uint8) ~USBUART_PM_STBY_EN_FSUSB;
 585              		.loc 1 177 0
ARM GAS  C:\Users\Bruger\AppData\Local\Temp\ccqMjbBn.s 			page 37


 586 0096 03F0FE03 		and	r3, r3, #254
 178:Generated_Source\PSoC5/USBUART_pm.c **** 
 587              		.loc 1 178 0
 588 009a 1D3A     		subs	r2, r2, #29
 177:Generated_Source\PSoC5/USBUART_pm.c ****         USBUART_PM_STBY_CFG_REG &= (uint8) ~USBUART_PM_STBY_EN_FSUSB;
 589              		.loc 1 177 0
 590 009c 0B70     		strb	r3, [r1]
 178:Generated_Source\PSoC5/USBUART_pm.c **** 
 591              		.loc 1 178 0
 592 009e 1378     		ldrb	r3, [r2]	@ zero_extendqisi2
 180:Generated_Source\PSoC5/USBUART_pm.c ****     #endif /* (CY_PSOC4) */
 593              		.loc 1 180 0
 594 00a0 3846     		mov	r0, r7
 178:Generated_Source\PSoC5/USBUART_pm.c **** 
 595              		.loc 1 178 0
 596 00a2 03F0FE03 		and	r3, r3, #254
 597 00a6 1370     		strb	r3, [r2]
 180:Generated_Source\PSoC5/USBUART_pm.c ****     #endif /* (CY_PSOC4) */
 598              		.loc 1 180 0
 599 00a8 FFF7FEFF 		bl	CyDelayUs
 600              	.LVL11:
 601 00ac B4E7     		b	.L12
 602              	.L16:
 603 00ae 00BF     		.align	2
 604              	.L15:
 605 00b0 08600040 		.word	1073766408
 606 00b4 00000000 		.word	.LANCHOR0
 607 00b8 80E200E0 		.word	-536812928
 608 00bc 00E100E0 		.word	-536813312
 609 00c0 10600040 		.word	1073766416
 610 00c4 94430040 		.word	1073759124
 611 00c8 09600040 		.word	1073766409
 612 00cc 12600040 		.word	1073766418
 613 00d0 A5430040 		.word	1073759141
 614              		.cfi_endproc
 615              	.LFE3:
 616              		.size	USBUART_Suspend, .-USBUART_Suspend
 617              		.section	.text.USBUART_Resume,"ax",%progbits
 618              		.align	2
 619              		.global	USBUART_Resume
 620              		.thumb
 621              		.thumb_func
 622              		.type	USBUART_Resume, %function
 623              	USBUART_Resume:
 624              	.LFB4:
 196:Generated_Source\PSoC5/USBUART_pm.c **** #endif /* (USBUART_DP_ISR_ACTIVE). */
 197:Generated_Source\PSoC5/USBUART_pm.c **** }
 198:Generated_Source\PSoC5/USBUART_pm.c **** 
 199:Generated_Source\PSoC5/USBUART_pm.c **** 
 200:Generated_Source\PSoC5/USBUART_pm.c **** /*******************************************************************************
 201:Generated_Source\PSoC5/USBUART_pm.c **** * Function Name: USBUART_Resume
 202:Generated_Source\PSoC5/USBUART_pm.c **** ****************************************************************************//**
 203:Generated_Source\PSoC5/USBUART_pm.c **** *
 204:Generated_Source\PSoC5/USBUART_pm.c **** *  This function prepares the USBFS component for active mode operation after 
 205:Generated_Source\PSoC5/USBUART_pm.c **** *  exit low power mode. It restores the component active mode configuration such 
 206:Generated_Source\PSoC5/USBUART_pm.c **** *  as device address assigned previously by the host, endpoints buffer and disables 
 207:Generated_Source\PSoC5/USBUART_pm.c **** *  interrupt on Dp pin.
ARM GAS  C:\Users\Bruger\AppData\Local\Temp\ccqMjbBn.s 			page 38


 208:Generated_Source\PSoC5/USBUART_pm.c **** *  The supported low power modes are Deep Sleep (PSoC 4200L) and Sleep 
 209:Generated_Source\PSoC5/USBUART_pm.c **** *  (PSoC 3/ PSoC 5LP).
 210:Generated_Source\PSoC5/USBUART_pm.c **** *  
 211:Generated_Source\PSoC5/USBUART_pm.c **** *  *Note* For PSoC 4200L devices, this function should not be called after 
 212:Generated_Source\PSoC5/USBUART_pm.c **** *  exiting Sleep.
 213:Generated_Source\PSoC5/USBUART_pm.c **** *  
 214:Generated_Source\PSoC5/USBUART_pm.c **** *  *Note* To resume communication with the host, the data endpoints must be 
 215:Generated_Source\PSoC5/USBUART_pm.c **** *  managed: the OUT endpoints must be enabled and IN endpoints must be loaded 
 216:Generated_Source\PSoC5/USBUART_pm.c **** *  with data. For DMA with Automatic Buffer Management, all endpoints buffers 
 217:Generated_Source\PSoC5/USBUART_pm.c **** *  must be initialized again before making them available to the host.
 218:Generated_Source\PSoC5/USBUART_pm.c **** *
 219:Generated_Source\PSoC5/USBUART_pm.c **** *
 220:Generated_Source\PSoC5/USBUART_pm.c **** * \globalvars
 221:Generated_Source\PSoC5/USBUART_pm.c **** *  USBUART_backup - checked.
 222:Generated_Source\PSoC5/USBUART_pm.c **** *
 223:Generated_Source\PSoC5/USBUART_pm.c **** * \reentrant
 224:Generated_Source\PSoC5/USBUART_pm.c **** *  No.
 225:Generated_Source\PSoC5/USBUART_pm.c **** *
 226:Generated_Source\PSoC5/USBUART_pm.c **** *******************************************************************************/
 227:Generated_Source\PSoC5/USBUART_pm.c **** void USBUART_Resume(void) 
 228:Generated_Source\PSoC5/USBUART_pm.c **** {
 625              		.loc 1 228 0
 626              		.cfi_startproc
 627              		@ args = 0, pretend = 0, frame = 0
 628              		@ frame_needed = 0, uses_anonymous_args = 0
 629 0000 70B5     		push	{r4, r5, r6, lr}
 630              		.cfi_def_cfa_offset 16
 631              		.cfi_offset 4, -16
 632              		.cfi_offset 5, -12
 633              		.cfi_offset 6, -8
 634              		.cfi_offset 14, -4
 229:Generated_Source\PSoC5/USBUART_pm.c ****     uint8 enableInterrupts;
 230:Generated_Source\PSoC5/USBUART_pm.c **** 
 231:Generated_Source\PSoC5/USBUART_pm.c ****     enableInterrupts = CyEnterCriticalSection();
 635              		.loc 1 231 0
 636 0002 FFF7FEFF 		bl	CyEnterCriticalSection
 637              	.LVL12:
 232:Generated_Source\PSoC5/USBUART_pm.c **** 
 233:Generated_Source\PSoC5/USBUART_pm.c ****     if (0u != USBUART_backup.enableState)
 638              		.loc 1 233 0
 639 0006 294D     		ldr	r5, .L26
 231:Generated_Source\PSoC5/USBUART_pm.c **** 
 640              		.loc 1 231 0
 641 0008 0646     		mov	r6, r0
 642              	.LVL13:
 643              		.loc 1 233 0
 644 000a 2B78     		ldrb	r3, [r5]	@ zero_extendqisi2
 645 000c 23B9     		cbnz	r3, .L25
 646              	.L19:
 234:Generated_Source\PSoC5/USBUART_pm.c ****     {
 235:Generated_Source\PSoC5/USBUART_pm.c ****     #if (USBUART_DP_ISR_ACTIVE)
 236:Generated_Source\PSoC5/USBUART_pm.c ****         CyIntDisable(USBUART_DP_INTC_VECT_NUM);
 237:Generated_Source\PSoC5/USBUART_pm.c ****     #endif /* (USBUART_DP_ISR_ACTIVE) */
 238:Generated_Source\PSoC5/USBUART_pm.c **** 
 239:Generated_Source\PSoC5/USBUART_pm.c ****     #if (CY_PSOC4)
 240:Generated_Source\PSoC5/USBUART_pm.c ****         /* Enable clock to USB IP. */
 241:Generated_Source\PSoC5/USBUART_pm.c ****         USBUART_USB_CLK_EN_REG |= USBUART_USB_CLK_CSR_CLK_EN;
ARM GAS  C:\Users\Bruger\AppData\Local\Temp\ccqMjbBn.s 			page 39


 242:Generated_Source\PSoC5/USBUART_pm.c **** 
 243:Generated_Source\PSoC5/USBUART_pm.c ****         /* Restore arbiter configuration for DMA transfers. */
 244:Generated_Source\PSoC5/USBUART_pm.c ****         #if (USBUART_EP_MANAGEMENT_DMA)
 245:Generated_Source\PSoC5/USBUART_pm.c ****             #if (USBUART_ARB_ISR_ACTIVE)
 246:Generated_Source\PSoC5/USBUART_pm.c ****                 /* Enable ARB EP interrupt sources. */
 247:Generated_Source\PSoC5/USBUART_pm.c ****                 USBUART_ARB_INT_EN_REG = USBUART_DEFAULT_ARB_INT_EN;
 248:Generated_Source\PSoC5/USBUART_pm.c ****             #endif /* (USBUART_EP_MANAGEMENT_DMA) */
 249:Generated_Source\PSoC5/USBUART_pm.c **** 
 250:Generated_Source\PSoC5/USBUART_pm.c ****             /* Configure arbiter for Manual or Auto DMA operation and clear 
 251:Generated_Source\PSoC5/USBUART_pm.c ****             * configuration completion. 
 252:Generated_Source\PSoC5/USBUART_pm.c ****             */
 253:Generated_Source\PSoC5/USBUART_pm.c ****             USBUART_ARB_CFG_REG = USBUART_DEFAULT_ARB_CFG;
 254:Generated_Source\PSoC5/USBUART_pm.c ****         #endif /* (USBUART_EP_MANAGEMENT_DMA) */
 255:Generated_Source\PSoC5/USBUART_pm.c **** 
 256:Generated_Source\PSoC5/USBUART_pm.c ****         /* Restore level (hi, lo, med) for each interrupt source. */
 257:Generated_Source\PSoC5/USBUART_pm.c ****         USBUART_INTR_LVL_SEL_REG = USBUART_DEFAULT_INTR_LVL_SEL;
 258:Generated_Source\PSoC5/USBUART_pm.c ****         
 259:Generated_Source\PSoC5/USBUART_pm.c ****         /* Store SIE interrupt sources. */
 260:Generated_Source\PSoC5/USBUART_pm.c ****         USBUART_INTR_SIE_MASK_REG = (uint32) USBUART_backup.intrSeiMask;
 261:Generated_Source\PSoC5/USBUART_pm.c **** 
 262:Generated_Source\PSoC5/USBUART_pm.c ****         /* Set EP0.CR: ACK Setup, NAK IN/OUT. */
 263:Generated_Source\PSoC5/USBUART_pm.c ****         USBUART_EP0_CR_REG = USBUART_MODE_NAK_IN_OUT;
 264:Generated_Source\PSoC5/USBUART_pm.c **** 
 265:Generated_Source\PSoC5/USBUART_pm.c ****         /* Restore data EP1-8 configuration. */
 266:Generated_Source\PSoC5/USBUART_pm.c ****         USBUART_RestoreConfig();
 267:Generated_Source\PSoC5/USBUART_pm.c **** 
 268:Generated_Source\PSoC5/USBUART_pm.c ****         /* Restore state of USB regulator and wait until it supples stable power. */
 269:Generated_Source\PSoC5/USBUART_pm.c ****         USBUART_CR1_REG |= USBUART_backup.mode;
 270:Generated_Source\PSoC5/USBUART_pm.c ****         CyDelayUs(USBUART_WAIT_VREF_STABILITY);
 271:Generated_Source\PSoC5/USBUART_pm.c **** 
 272:Generated_Source\PSoC5/USBUART_pm.c ****         /* Suspend exit sequence. */
 273:Generated_Source\PSoC5/USBUART_pm.c ****         USBUART_POWER_CTRL_REG &= (uint32) ~USBUART_POWER_CTRL_SUSPEND;
 274:Generated_Source\PSoC5/USBUART_pm.c ****         CyDelayUs(USBUART_WAIT_SUSPEND_DEL_DISABLE);
 275:Generated_Source\PSoC5/USBUART_pm.c ****         USBUART_POWER_CTRL_REG &= (uint32) ~USBUART_POWER_CTRL_SUSPEND_DEL;
 276:Generated_Source\PSoC5/USBUART_pm.c **** 
 277:Generated_Source\PSoC5/USBUART_pm.c ****     #else
 278:Generated_Source\PSoC5/USBUART_pm.c ****         /* Set power active and standby mode templates: enable USB block. */
 279:Generated_Source\PSoC5/USBUART_pm.c ****         USBUART_PM_ACT_CFG_REG  |= USBUART_PM_ACT_EN_FSUSB;
 280:Generated_Source\PSoC5/USBUART_pm.c ****         USBUART_PM_STBY_CFG_REG |= USBUART_PM_STBY_EN_FSUSB;
 281:Generated_Source\PSoC5/USBUART_pm.c **** 
 282:Generated_Source\PSoC5/USBUART_pm.c ****         /* Enable core clock. */
 283:Generated_Source\PSoC5/USBUART_pm.c ****         USBUART_USB_CLK_EN_REG |= USBUART_USB_CLK_ENABLE;
 284:Generated_Source\PSoC5/USBUART_pm.c **** 
 285:Generated_Source\PSoC5/USBUART_pm.c ****         /* Enable the USBIO reference by setting PM.USB_CR0.fsusbio_ref_en.*/
 286:Generated_Source\PSoC5/USBUART_pm.c ****         USBUART_PM_USB_CR0_REG |= USBUART_PM_USB_CR0_REF_EN;
 287:Generated_Source\PSoC5/USBUART_pm.c **** 
 288:Generated_Source\PSoC5/USBUART_pm.c ****         /* The reference is available ~40us after power restored. */
 289:Generated_Source\PSoC5/USBUART_pm.c ****         CyDelayUs(USBUART_WAIT_VREF_RESTORE);
 290:Generated_Source\PSoC5/USBUART_pm.c ****         /* Restore state of USB regulator and wait until it supples stable power. */
 291:Generated_Source\PSoC5/USBUART_pm.c ****         USBUART_CR1_REG |= USBUART_backup.mode;
 292:Generated_Source\PSoC5/USBUART_pm.c ****         CyDelayUs(USBUART_WAIT_VREF_STABILITY);   /*~50ns delay. */
 293:Generated_Source\PSoC5/USBUART_pm.c **** 
 294:Generated_Source\PSoC5/USBUART_pm.c ****         /* Enable USBIO. */
 295:Generated_Source\PSoC5/USBUART_pm.c ****         USBUART_PM_USB_CR0_REG |= USBUART_PM_USB_CR0_PD_N;
 296:Generated_Source\PSoC5/USBUART_pm.c ****         CyDelayUs(USBUART_WAIT_PD_PULLUP_N_ENABLE);
 297:Generated_Source\PSoC5/USBUART_pm.c ****         /* Set the USBIO pull-up enable. */
 298:Generated_Source\PSoC5/USBUART_pm.c ****         USBUART_PM_USB_CR0_REG |= USBUART_PM_USB_CR0_PD_PULLUP_N;
ARM GAS  C:\Users\Bruger\AppData\Local\Temp\ccqMjbBn.s 			page 40


 299:Generated_Source\PSoC5/USBUART_pm.c **** 
 300:Generated_Source\PSoC5/USBUART_pm.c ****         /* Restore arbiter configuration for DMA transfers. */
 301:Generated_Source\PSoC5/USBUART_pm.c ****         #if (USBUART_EP_MANAGEMENT_DMA)
 302:Generated_Source\PSoC5/USBUART_pm.c ****             #if (USBUART_ARB_ISR_ACTIVE)
 303:Generated_Source\PSoC5/USBUART_pm.c ****                 /* Enable ARB EP interrupt sources. */
 304:Generated_Source\PSoC5/USBUART_pm.c ****                 USBUART_ARB_INT_EN_REG = USBUART_DEFAULT_ARB_INT_EN;
 305:Generated_Source\PSoC5/USBUART_pm.c ****             #endif /* (USBUART_EP_MANAGEMENT_DMA) */
 306:Generated_Source\PSoC5/USBUART_pm.c **** 
 307:Generated_Source\PSoC5/USBUART_pm.c ****             /* Configure arbiter for Manual or Auto DMA operation and clear 
 308:Generated_Source\PSoC5/USBUART_pm.c ****             * configuration completion. 
 309:Generated_Source\PSoC5/USBUART_pm.c ****             */
 310:Generated_Source\PSoC5/USBUART_pm.c ****             USBUART_ARB_CFG_REG = USBUART_DEFAULT_ARB_CFG;
 311:Generated_Source\PSoC5/USBUART_pm.c ****         #endif /* (USBUART_EP_MANAGEMENT_DMA) */
 312:Generated_Source\PSoC5/USBUART_pm.c **** 
 313:Generated_Source\PSoC5/USBUART_pm.c ****         /* Set EP0.CR: ACK Setup, STALL IN/OUT. */
 314:Generated_Source\PSoC5/USBUART_pm.c ****         USBUART_EP0_CR_REG = USBUART_MODE_STALL_IN_OUT;
 315:Generated_Source\PSoC5/USBUART_pm.c **** 
 316:Generated_Source\PSoC5/USBUART_pm.c ****         /* Enable the USB IP to respond to USB traffic with the last address. */
 317:Generated_Source\PSoC5/USBUART_pm.c ****         USBUART_CR0_REG |= USBUART_CR0_ENABLE;
 318:Generated_Source\PSoC5/USBUART_pm.c ****         CyDelayCycles(USBUART_WAIT_CR0_REG_STABILITY);
 319:Generated_Source\PSoC5/USBUART_pm.c **** 
 320:Generated_Source\PSoC5/USBUART_pm.c ****         /* Enable D+ pull-up and keep USB control on IO. */
 321:Generated_Source\PSoC5/USBUART_pm.c ****         USBUART_USBIO_CR1_REG = USBUART_USBIO_CR1_USBPUEN;
 322:Generated_Source\PSoC5/USBUART_pm.c **** 
 323:Generated_Source\PSoC5/USBUART_pm.c ****         /* Restore data EP1-8 configuration. */
 324:Generated_Source\PSoC5/USBUART_pm.c ****         USBUART_RestoreConfig();
 325:Generated_Source\PSoC5/USBUART_pm.c ****     #endif /* (CY_PSOC4) */
 326:Generated_Source\PSoC5/USBUART_pm.c ****     }
 327:Generated_Source\PSoC5/USBUART_pm.c **** 
 328:Generated_Source\PSoC5/USBUART_pm.c ****     CyExitCriticalSection(enableInterrupts);
 647              		.loc 1 328 0
 648 000e 3046     		mov	r0, r6
 329:Generated_Source\PSoC5/USBUART_pm.c **** }
 649              		.loc 1 329 0
 650 0010 BDE87040 		pop	{r4, r5, r6, lr}
 651              		.cfi_remember_state
 652              		.cfi_restore 14
 653              		.cfi_restore 6
 654              		.cfi_restore 5
 655              		.cfi_restore 4
 656              		.cfi_def_cfa_offset 0
 657              	.LVL14:
 328:Generated_Source\PSoC5/USBUART_pm.c **** }
 658              		.loc 1 328 0
 659 0014 FFF7FEBF 		b	CyExitCriticalSection
 660              	.LVL15:
 661              	.L25:
 662              		.cfi_restore_state
 236:Generated_Source\PSoC5/USBUART_pm.c ****     #endif /* (USBUART_DP_ISR_ACTIVE) */
 663              		.loc 1 236 0
 664 0018 254B     		ldr	r3, .L26+4
 279:Generated_Source\PSoC5/USBUART_pm.c ****         USBUART_PM_STBY_CFG_REG |= USBUART_PM_STBY_EN_FSUSB;
 665              		.loc 1 279 0
 666 001a 264A     		ldr	r2, .L26+8
 236:Generated_Source\PSoC5/USBUART_pm.c ****     #endif /* (USBUART_DP_ISR_ACTIVE) */
 667              		.loc 1 236 0
 668 001c 4FF48051 		mov	r1, #4096
ARM GAS  C:\Users\Bruger\AppData\Local\Temp\ccqMjbBn.s 			page 41


 669 0020 1960     		str	r1, [r3]
 279:Generated_Source\PSoC5/USBUART_pm.c ****         USBUART_PM_STBY_CFG_REG |= USBUART_PM_STBY_EN_FSUSB;
 670              		.loc 1 279 0
 671 0022 1378     		ldrb	r3, [r2]	@ zero_extendqisi2
 280:Generated_Source\PSoC5/USBUART_pm.c **** 
 672              		.loc 1 280 0
 673 0024 2449     		ldr	r1, .L26+12
 279:Generated_Source\PSoC5/USBUART_pm.c ****         USBUART_PM_STBY_CFG_REG |= USBUART_PM_STBY_EN_FSUSB;
 674              		.loc 1 279 0
 675 0026 43F00103 		orr	r3, r3, #1
 676 002a 1370     		strb	r3, [r2]
 280:Generated_Source\PSoC5/USBUART_pm.c **** 
 677              		.loc 1 280 0
 678 002c 0B78     		ldrb	r3, [r1]	@ zero_extendqisi2
 283:Generated_Source\PSoC5/USBUART_pm.c **** 
 679              		.loc 1 283 0
 680 002e 02F5E752 		add	r2, r2, #7392
 280:Generated_Source\PSoC5/USBUART_pm.c **** 
 681              		.loc 1 280 0
 682 0032 43F00103 		orr	r3, r3, #1
 683 0036 0B70     		strb	r3, [r1]
 283:Generated_Source\PSoC5/USBUART_pm.c **** 
 684              		.loc 1 283 0
 685 0038 1832     		adds	r2, r2, #24
 686 003a 1378     		ldrb	r3, [r2]	@ zero_extendqisi2
 286:Generated_Source\PSoC5/USBUART_pm.c **** 
 687              		.loc 1 286 0
 688 003c 1F4C     		ldr	r4, .L26+16
 283:Generated_Source\PSoC5/USBUART_pm.c **** 
 689              		.loc 1 283 0
 690 003e 43F00103 		orr	r3, r3, #1
 691 0042 1370     		strb	r3, [r2]
 286:Generated_Source\PSoC5/USBUART_pm.c **** 
 692              		.loc 1 286 0
 693 0044 2378     		ldrb	r3, [r4]	@ zero_extendqisi2
 289:Generated_Source\PSoC5/USBUART_pm.c ****         /* Restore state of USB regulator and wait until it supples stable power. */
 694              		.loc 1 289 0
 695 0046 2820     		movs	r0, #40
 286:Generated_Source\PSoC5/USBUART_pm.c **** 
 696              		.loc 1 286 0
 697 0048 43F00103 		orr	r3, r3, #1
 698 004c 2370     		strb	r3, [r4]
 289:Generated_Source\PSoC5/USBUART_pm.c ****         /* Restore state of USB regulator and wait until it supples stable power. */
 699              		.loc 1 289 0
 700 004e FFF7FEFF 		bl	CyDelayUs
 701              	.LVL16:
 291:Generated_Source\PSoC5/USBUART_pm.c ****         CyDelayUs(USBUART_WAIT_VREF_STABILITY);   /*~50ns delay. */
 702              		.loc 1 291 0
 703 0052 1B4A     		ldr	r2, .L26+20
 704 0054 6B78     		ldrb	r3, [r5, #1]	@ zero_extendqisi2
 705 0056 1178     		ldrb	r1, [r2]	@ zero_extendqisi2
 292:Generated_Source\PSoC5/USBUART_pm.c **** 
 706              		.loc 1 292 0
 707 0058 0020     		movs	r0, #0
 291:Generated_Source\PSoC5/USBUART_pm.c ****         CyDelayUs(USBUART_WAIT_VREF_STABILITY);   /*~50ns delay. */
 708              		.loc 1 291 0
 709 005a 0B43     		orrs	r3, r3, r1
ARM GAS  C:\Users\Bruger\AppData\Local\Temp\ccqMjbBn.s 			page 42


 710 005c 1370     		strb	r3, [r2]
 292:Generated_Source\PSoC5/USBUART_pm.c **** 
 711              		.loc 1 292 0
 712 005e FFF7FEFF 		bl	CyDelayUs
 713              	.LVL17:
 295:Generated_Source\PSoC5/USBUART_pm.c ****         CyDelayUs(USBUART_WAIT_PD_PULLUP_N_ENABLE);
 714              		.loc 1 295 0
 715 0062 2378     		ldrb	r3, [r4]	@ zero_extendqisi2
 296:Generated_Source\PSoC5/USBUART_pm.c ****         /* Set the USBIO pull-up enable. */
 716              		.loc 1 296 0
 717 0064 0220     		movs	r0, #2
 295:Generated_Source\PSoC5/USBUART_pm.c ****         CyDelayUs(USBUART_WAIT_PD_PULLUP_N_ENABLE);
 718              		.loc 1 295 0
 719 0066 0343     		orrs	r3, r3, r0
 720 0068 2370     		strb	r3, [r4]
 296:Generated_Source\PSoC5/USBUART_pm.c ****         /* Set the USBIO pull-up enable. */
 721              		.loc 1 296 0
 722 006a FFF7FEFF 		bl	CyDelayUs
 723              	.LVL18:
 298:Generated_Source\PSoC5/USBUART_pm.c **** 
 724              		.loc 1 298 0
 725 006e 2378     		ldrb	r3, [r4]	@ zero_extendqisi2
 314:Generated_Source\PSoC5/USBUART_pm.c **** 
 726              		.loc 1 314 0
 727 0070 1449     		ldr	r1, .L26+24
 317:Generated_Source\PSoC5/USBUART_pm.c ****         CyDelayCycles(USBUART_WAIT_CR0_REG_STABILITY);
 728              		.loc 1 317 0
 729 0072 154A     		ldr	r2, .L26+28
 298:Generated_Source\PSoC5/USBUART_pm.c **** 
 730              		.loc 1 298 0
 731 0074 43F00403 		orr	r3, r3, #4
 314:Generated_Source\PSoC5/USBUART_pm.c **** 
 732              		.loc 1 314 0
 733 0078 0320     		movs	r0, #3
 298:Generated_Source\PSoC5/USBUART_pm.c **** 
 734              		.loc 1 298 0
 735 007a 2370     		strb	r3, [r4]
 314:Generated_Source\PSoC5/USBUART_pm.c **** 
 736              		.loc 1 314 0
 737 007c 0870     		strb	r0, [r1]
 317:Generated_Source\PSoC5/USBUART_pm.c ****         CyDelayCycles(USBUART_WAIT_CR0_REG_STABILITY);
 738              		.loc 1 317 0
 739 007e 1378     		ldrb	r3, [r2]	@ zero_extendqisi2
 318:Generated_Source\PSoC5/USBUART_pm.c **** 
 740              		.loc 1 318 0
 741 0080 0120     		movs	r0, #1
 317:Generated_Source\PSoC5/USBUART_pm.c ****         CyDelayCycles(USBUART_WAIT_CR0_REG_STABILITY);
 742              		.loc 1 317 0
 743 0082 43F08003 		orr	r3, r3, #128
 744 0086 1370     		strb	r3, [r2]
 318:Generated_Source\PSoC5/USBUART_pm.c **** 
 745              		.loc 1 318 0
 746 0088 FFF7FEFF 		bl	CyDelayCycles
 747              	.LVL19:
 321:Generated_Source\PSoC5/USBUART_pm.c **** 
 748              		.loc 1 321 0
 749 008c 0F4A     		ldr	r2, .L26+32
ARM GAS  C:\Users\Bruger\AppData\Local\Temp\ccqMjbBn.s 			page 43


 750 008e 0421     		movs	r1, #4
 751              	.LBB4:
 752              	.LBB5:
  90:Generated_Source\PSoC5/USBUART_pm.c ****     {
 753              		.loc 1 90 0
 754 0090 0F4B     		ldr	r3, .L26+36
 755              	.LBE5:
 756              	.LBE4:
 321:Generated_Source\PSoC5/USBUART_pm.c **** 
 757              		.loc 1 321 0
 758 0092 1170     		strb	r1, [r2]
 759              	.LBB7:
 760              	.LBB6:
  90:Generated_Source\PSoC5/USBUART_pm.c ****     {
 761              		.loc 1 90 0
 762 0094 1B78     		ldrb	r3, [r3]	@ zero_extendqisi2
 763 0096 002B     		cmp	r3, #0
 764 0098 B9D0     		beq	.L19
  92:Generated_Source\PSoC5/USBUART_pm.c ****         USBUART_EpStateInit();
 765              		.loc 1 92 0
 766 009a FFF7FEFF 		bl	USBUART_ConfigReg
 767              	.LVL20:
  93:Generated_Source\PSoC5/USBUART_pm.c ****     }
 768              		.loc 1 93 0
 769 009e FFF7FEFF 		bl	USBUART_EpStateInit
 770              	.LVL21:
 771              	.LBE6:
 772              	.LBE7:
 328:Generated_Source\PSoC5/USBUART_pm.c **** }
 773              		.loc 1 328 0
 774 00a2 3046     		mov	r0, r6
 775              		.loc 1 329 0
 776 00a4 BDE87040 		pop	{r4, r5, r6, lr}
 777              		.cfi_restore 4
 778              		.cfi_restore 5
 779              		.cfi_restore 6
 780              		.cfi_restore 14
 781              		.cfi_def_cfa_offset 0
 782              	.LVL22:
 328:Generated_Source\PSoC5/USBUART_pm.c **** }
 783              		.loc 1 328 0
 784 00a8 FFF7FEBF 		b	CyExitCriticalSection
 785              	.LVL23:
 786              	.L27:
 787              		.align	2
 788              	.L26:
 789 00ac 00000000 		.word	.LANCHOR0
 790 00b0 80E100E0 		.word	-536813184
 791 00b4 A5430040 		.word	1073759141
 792 00b8 B5430040 		.word	1073759157
 793 00bc 94430040 		.word	1073759124
 794 00c0 09600040 		.word	1073766409
 795 00c4 28600040 		.word	1073766440
 796 00c8 08600040 		.word	1073766408
 797 00cc 12600040 		.word	1073766418
 798 00d0 00000000 		.word	USBUART_configuration
 799              		.cfi_endproc
ARM GAS  C:\Users\Bruger\AppData\Local\Temp\ccqMjbBn.s 			page 44


 800              	.LFE4:
 801              		.size	USBUART_Resume, .-USBUART_Resume
 802              		.bss
 803              		.align	2
 804              		.set	.LANCHOR0,. + 0
 805              		.type	USBUART_backup, %object
 806              		.size	USBUART_backup, 2
 807              	USBUART_backup:
 808 0000 0000     		.space	2
 809 0002 0000     		.text
 810              	.Letext0:
 811              		.file 2 "Generated_Source\\PSoC5\\cytypes.h"
 812              		.file 3 "Generated_Source\\PSoC5\\USBUART.h"
 813              		.file 4 "Generated_Source\\PSoC5\\USBUART_pvt.h"
 814              		.file 5 "Generated_Source\\PSoC5\\USBUART_Dp.h"
 815              		.file 6 "Generated_Source\\PSoC5\\CyLib.h"